ARM GAS  C:\Users\luvsd\AppData\Local\Temp\cc1pDs5h.s 			page 1


   1              		.syntax unified
   2              		.cpu cortex-m0
   3              		.fpu softvfp
   4              		.eabi_attribute 20, 1
   5              		.eabi_attribute 21, 1
   6              		.eabi_attribute 23, 3
   7              		.eabi_attribute 24, 1
   8              		.eabi_attribute 25, 1
   9              		.eabi_attribute 26, 1
  10              		.eabi_attribute 30, 1
  11              		.eabi_attribute 34, 0
  12              		.eabi_attribute 18, 4
  13              		.thumb
  14              		.syntax unified
  15              		.file	"cyfitter_cfg.c"
  16              		.text
  17              	.Ltext0:
  18              		.cfi_sections	.debug_frame
  19              		.section	.text.cfg_write_bytes32,"ax",%progbits
  20              		.align	2
  21              		.code	16
  22              		.thumb_func
  23              		.type	cfg_write_bytes32, %function
  24              	cfg_write_bytes32:
  25              	.LFB4:
  26              		.file 1 "Generated_Source\\PSoC4\\cyfitter_cfg.c"
   1:Generated_Source\PSoC4/cyfitter_cfg.c **** 
   2:Generated_Source\PSoC4/cyfitter_cfg.c **** /*******************************************************************************
   3:Generated_Source\PSoC4/cyfitter_cfg.c **** * File Name: cyfitter_cfg.c
   4:Generated_Source\PSoC4/cyfitter_cfg.c **** * 
   5:Generated_Source\PSoC4/cyfitter_cfg.c **** * PSoC Creator  4.4
   6:Generated_Source\PSoC4/cyfitter_cfg.c **** *
   7:Generated_Source\PSoC4/cyfitter_cfg.c **** * Description:
   8:Generated_Source\PSoC4/cyfitter_cfg.c **** * This file contains device initialization code.
   9:Generated_Source\PSoC4/cyfitter_cfg.c **** * Except for the user defined sections in CyClockStartupError(), this file should not be modified.
  10:Generated_Source\PSoC4/cyfitter_cfg.c **** * This file is automatically generated by PSoC Creator.
  11:Generated_Source\PSoC4/cyfitter_cfg.c **** *
  12:Generated_Source\PSoC4/cyfitter_cfg.c **** ********************************************************************************
  13:Generated_Source\PSoC4/cyfitter_cfg.c **** * Copyright (c) 2007-2020 Cypress Semiconductor.  All rights reserved.
  14:Generated_Source\PSoC4/cyfitter_cfg.c **** * You may use this file only in accordance with the license, terms, conditions, 
  15:Generated_Source\PSoC4/cyfitter_cfg.c **** * disclaimers, and limitations in the end user license agreement accompanying 
  16:Generated_Source\PSoC4/cyfitter_cfg.c **** * the software package with which this file was provided.
  17:Generated_Source\PSoC4/cyfitter_cfg.c **** ********************************************************************************/
  18:Generated_Source\PSoC4/cyfitter_cfg.c **** 
  19:Generated_Source\PSoC4/cyfitter_cfg.c **** #include <string.h>
  20:Generated_Source\PSoC4/cyfitter_cfg.c **** #include "cytypes.h"
  21:Generated_Source\PSoC4/cyfitter_cfg.c **** #include "cydevice_trm.h"
  22:Generated_Source\PSoC4/cyfitter_cfg.c **** #include "cyfitter.h"
  23:Generated_Source\PSoC4/cyfitter_cfg.c **** #include "CyLib.h"
  24:Generated_Source\PSoC4/cyfitter_cfg.c **** #include "CyLFClk.h"
  25:Generated_Source\PSoC4/cyfitter_cfg.c **** #include "cyfitter_cfg.h"
  26:Generated_Source\PSoC4/cyfitter_cfg.c **** #include "cyapicallbacks.h"
  27:Generated_Source\PSoC4/cyfitter_cfg.c **** 
  28:Generated_Source\PSoC4/cyfitter_cfg.c **** 
  29:Generated_Source\PSoC4/cyfitter_cfg.c **** #if defined(__GNUC__) || defined(__ARMCC_VERSION)
  30:Generated_Source\PSoC4/cyfitter_cfg.c ****     #define CYPACKED 
  31:Generated_Source\PSoC4/cyfitter_cfg.c ****     #define CYPACKED_ATTR __attribute__ ((packed))
ARM GAS  C:\Users\luvsd\AppData\Local\Temp\cc1pDs5h.s 			page 2


  32:Generated_Source\PSoC4/cyfitter_cfg.c ****     #define CYALIGNED __attribute__ ((aligned))
  33:Generated_Source\PSoC4/cyfitter_cfg.c ****     #define CY_CFG_UNUSED __attribute__ ((unused))
  34:Generated_Source\PSoC4/cyfitter_cfg.c ****     #ifndef CY_CFG_SECTION
  35:Generated_Source\PSoC4/cyfitter_cfg.c ****         #define CY_CFG_SECTION __attribute__ ((section(".psocinit")))
  36:Generated_Source\PSoC4/cyfitter_cfg.c ****     #endif
  37:Generated_Source\PSoC4/cyfitter_cfg.c ****     
  38:Generated_Source\PSoC4/cyfitter_cfg.c ****     #if defined(__ARMCC_VERSION)
  39:Generated_Source\PSoC4/cyfitter_cfg.c ****         #define CY_CFG_MEMORY_BARRIER() __memory_changed()
  40:Generated_Source\PSoC4/cyfitter_cfg.c ****     #else
  41:Generated_Source\PSoC4/cyfitter_cfg.c ****         #define CY_CFG_MEMORY_BARRIER() __sync_synchronize()
  42:Generated_Source\PSoC4/cyfitter_cfg.c ****     #endif
  43:Generated_Source\PSoC4/cyfitter_cfg.c ****     
  44:Generated_Source\PSoC4/cyfitter_cfg.c **** #elif defined(__ICCARM__)
  45:Generated_Source\PSoC4/cyfitter_cfg.c ****     #include <intrinsics.h>
  46:Generated_Source\PSoC4/cyfitter_cfg.c **** 
  47:Generated_Source\PSoC4/cyfitter_cfg.c ****     #define CYPACKED __packed
  48:Generated_Source\PSoC4/cyfitter_cfg.c ****     #define CYPACKED_ATTR 
  49:Generated_Source\PSoC4/cyfitter_cfg.c ****     #define CYALIGNED _Pragma("data_alignment=4")
  50:Generated_Source\PSoC4/cyfitter_cfg.c ****     #define CY_CFG_UNUSED _Pragma("diag_suppress=Pe177")
  51:Generated_Source\PSoC4/cyfitter_cfg.c ****     #define CY_CFG_SECTION _Pragma("location=\".psocinit\"")
  52:Generated_Source\PSoC4/cyfitter_cfg.c ****     
  53:Generated_Source\PSoC4/cyfitter_cfg.c ****     #define CY_CFG_MEMORY_BARRIER() __DMB()
  54:Generated_Source\PSoC4/cyfitter_cfg.c ****     
  55:Generated_Source\PSoC4/cyfitter_cfg.c **** #else
  56:Generated_Source\PSoC4/cyfitter_cfg.c ****     #error Unsupported toolchain
  57:Generated_Source\PSoC4/cyfitter_cfg.c **** #endif
  58:Generated_Source\PSoC4/cyfitter_cfg.c **** 
  59:Generated_Source\PSoC4/cyfitter_cfg.c **** #ifndef CYCODE
  60:Generated_Source\PSoC4/cyfitter_cfg.c ****     #define CYCODE
  61:Generated_Source\PSoC4/cyfitter_cfg.c **** #endif
  62:Generated_Source\PSoC4/cyfitter_cfg.c **** #ifndef CYDATA
  63:Generated_Source\PSoC4/cyfitter_cfg.c ****     #define CYDATA
  64:Generated_Source\PSoC4/cyfitter_cfg.c **** #endif
  65:Generated_Source\PSoC4/cyfitter_cfg.c **** #ifndef CYFAR
  66:Generated_Source\PSoC4/cyfitter_cfg.c ****     #define CYFAR
  67:Generated_Source\PSoC4/cyfitter_cfg.c **** #endif
  68:Generated_Source\PSoC4/cyfitter_cfg.c **** #ifndef CYXDATA
  69:Generated_Source\PSoC4/cyfitter_cfg.c ****     #define CYXDATA
  70:Generated_Source\PSoC4/cyfitter_cfg.c **** #endif
  71:Generated_Source\PSoC4/cyfitter_cfg.c **** 
  72:Generated_Source\PSoC4/cyfitter_cfg.c **** 
  73:Generated_Source\PSoC4/cyfitter_cfg.c **** CY_CFG_UNUSED
  74:Generated_Source\PSoC4/cyfitter_cfg.c **** static void CYMEMZERO(void *s, size_t n);
  75:Generated_Source\PSoC4/cyfitter_cfg.c **** CY_CFG_UNUSED
  76:Generated_Source\PSoC4/cyfitter_cfg.c **** static void CYMEMZERO(void *s, size_t n)
  77:Generated_Source\PSoC4/cyfitter_cfg.c **** {
  78:Generated_Source\PSoC4/cyfitter_cfg.c **** 	(void)memset(s, 0, n);
  79:Generated_Source\PSoC4/cyfitter_cfg.c **** }
  80:Generated_Source\PSoC4/cyfitter_cfg.c **** CY_CFG_UNUSED
  81:Generated_Source\PSoC4/cyfitter_cfg.c **** static void CYCONFIGCPY(void *dest, const void *src, size_t n);
  82:Generated_Source\PSoC4/cyfitter_cfg.c **** CY_CFG_UNUSED
  83:Generated_Source\PSoC4/cyfitter_cfg.c **** static void CYCONFIGCPY(void *dest, const void *src, size_t n)
  84:Generated_Source\PSoC4/cyfitter_cfg.c **** {
  85:Generated_Source\PSoC4/cyfitter_cfg.c **** 	(void)memcpy(dest, src, n);
  86:Generated_Source\PSoC4/cyfitter_cfg.c **** }
  87:Generated_Source\PSoC4/cyfitter_cfg.c **** CY_CFG_UNUSED
  88:Generated_Source\PSoC4/cyfitter_cfg.c **** static void CYCONFIGCPYCODE(void *dest, const void *src, size_t n);
ARM GAS  C:\Users\luvsd\AppData\Local\Temp\cc1pDs5h.s 			page 3


  89:Generated_Source\PSoC4/cyfitter_cfg.c **** CY_CFG_UNUSED
  90:Generated_Source\PSoC4/cyfitter_cfg.c **** static void CYCONFIGCPYCODE(void *dest, const void *src, size_t n)
  91:Generated_Source\PSoC4/cyfitter_cfg.c **** {
  92:Generated_Source\PSoC4/cyfitter_cfg.c **** 	(void)memcpy(dest, src, n);
  93:Generated_Source\PSoC4/cyfitter_cfg.c **** }
  94:Generated_Source\PSoC4/cyfitter_cfg.c **** 
  95:Generated_Source\PSoC4/cyfitter_cfg.c **** 
  96:Generated_Source\PSoC4/cyfitter_cfg.c **** 
  97:Generated_Source\PSoC4/cyfitter_cfg.c **** 
  98:Generated_Source\PSoC4/cyfitter_cfg.c **** /* Clock startup error codes                                                   */
  99:Generated_Source\PSoC4/cyfitter_cfg.c **** #define CYCLOCKSTART_NO_ERROR    0u
 100:Generated_Source\PSoC4/cyfitter_cfg.c **** #define CYCLOCKSTART_XTAL_ERROR  1u
 101:Generated_Source\PSoC4/cyfitter_cfg.c **** #define CYCLOCKSTART_32KHZ_ERROR 2u
 102:Generated_Source\PSoC4/cyfitter_cfg.c **** #define CYCLOCKSTART_PLL_ERROR   3u
 103:Generated_Source\PSoC4/cyfitter_cfg.c **** #define CYCLOCKSTART_FLL_ERROR   4u
 104:Generated_Source\PSoC4/cyfitter_cfg.c **** #define CYCLOCKSTART_WCO_ERROR   5u
 105:Generated_Source\PSoC4/cyfitter_cfg.c **** 
 106:Generated_Source\PSoC4/cyfitter_cfg.c **** 
 107:Generated_Source\PSoC4/cyfitter_cfg.c **** #ifdef CY_NEED_CYCLOCKSTARTUPERROR
 108:Generated_Source\PSoC4/cyfitter_cfg.c **** /*******************************************************************************
 109:Generated_Source\PSoC4/cyfitter_cfg.c **** * Function Name: CyClockStartupError
 110:Generated_Source\PSoC4/cyfitter_cfg.c **** ********************************************************************************
 111:Generated_Source\PSoC4/cyfitter_cfg.c **** * Summary:
 112:Generated_Source\PSoC4/cyfitter_cfg.c **** *  If an error is encountered during clock configuration (crystal startup error,
 113:Generated_Source\PSoC4/cyfitter_cfg.c **** *  PLL lock error, etc.), the system will end up here.  Unless reimplemented by
 114:Generated_Source\PSoC4/cyfitter_cfg.c **** *  the customer, this function will stop in an infinite loop.
 115:Generated_Source\PSoC4/cyfitter_cfg.c **** *
 116:Generated_Source\PSoC4/cyfitter_cfg.c **** * Parameters:
 117:Generated_Source\PSoC4/cyfitter_cfg.c **** *   void
 118:Generated_Source\PSoC4/cyfitter_cfg.c **** *
 119:Generated_Source\PSoC4/cyfitter_cfg.c **** * Return:
 120:Generated_Source\PSoC4/cyfitter_cfg.c **** *   void
 121:Generated_Source\PSoC4/cyfitter_cfg.c **** *
 122:Generated_Source\PSoC4/cyfitter_cfg.c **** *******************************************************************************/
 123:Generated_Source\PSoC4/cyfitter_cfg.c **** CY_CFG_UNUSED
 124:Generated_Source\PSoC4/cyfitter_cfg.c **** static void CyClockStartupError(uint8 errorCode);
 125:Generated_Source\PSoC4/cyfitter_cfg.c **** CY_CFG_UNUSED
 126:Generated_Source\PSoC4/cyfitter_cfg.c **** static void CyClockStartupError(uint8 errorCode)
 127:Generated_Source\PSoC4/cyfitter_cfg.c **** {
 128:Generated_Source\PSoC4/cyfitter_cfg.c ****     /* To remove the compiler warning if errorCode not used.                */
 129:Generated_Source\PSoC4/cyfitter_cfg.c ****     errorCode = errorCode;
 130:Generated_Source\PSoC4/cyfitter_cfg.c **** 
 131:Generated_Source\PSoC4/cyfitter_cfg.c ****     /* If we have a clock startup error (bad MHz crystal, PLL lock, etc.),  */
 132:Generated_Source\PSoC4/cyfitter_cfg.c ****     /* we will end up here to allow the customer to implement something to  */
 133:Generated_Source\PSoC4/cyfitter_cfg.c ****     /* deal with the clock condition.                                       */
 134:Generated_Source\PSoC4/cyfitter_cfg.c **** 
 135:Generated_Source\PSoC4/cyfitter_cfg.c **** #ifdef CY_CFG_CLOCK_STARTUP_ERROR_CALLBACK
 136:Generated_Source\PSoC4/cyfitter_cfg.c ****     CY_CFG_Clock_Startup_ErrorCallback();
 137:Generated_Source\PSoC4/cyfitter_cfg.c **** #else
 138:Generated_Source\PSoC4/cyfitter_cfg.c ****     /*  If not using CY_CFG_CLOCK_STARTUP_ERROR_CALLBACK, place your clock startup code here. */
 139:Generated_Source\PSoC4/cyfitter_cfg.c ****     /* `#START CyClockStartupError` */
 140:Generated_Source\PSoC4/cyfitter_cfg.c **** 
 141:Generated_Source\PSoC4/cyfitter_cfg.c **** 
 142:Generated_Source\PSoC4/cyfitter_cfg.c **** 
 143:Generated_Source\PSoC4/cyfitter_cfg.c ****     /* `#END` */
 144:Generated_Source\PSoC4/cyfitter_cfg.c **** 
 145:Generated_Source\PSoC4/cyfitter_cfg.c ****     while(1) {}
ARM GAS  C:\Users\luvsd\AppData\Local\Temp\cc1pDs5h.s 			page 4


 146:Generated_Source\PSoC4/cyfitter_cfg.c **** #endif /* CY_CFG_CLOCK_STARTUP_ERROR_CALLBACK */
 147:Generated_Source\PSoC4/cyfitter_cfg.c **** }
 148:Generated_Source\PSoC4/cyfitter_cfg.c **** #endif
 149:Generated_Source\PSoC4/cyfitter_cfg.c **** 
 150:Generated_Source\PSoC4/cyfitter_cfg.c **** #define CY_CFG_BASE_ADDR_COUNT 11u
 151:Generated_Source\PSoC4/cyfitter_cfg.c **** CYPACKED typedef struct
 152:Generated_Source\PSoC4/cyfitter_cfg.c **** {
 153:Generated_Source\PSoC4/cyfitter_cfg.c **** 	uint8 offset;
 154:Generated_Source\PSoC4/cyfitter_cfg.c **** 	uint8 value;
 155:Generated_Source\PSoC4/cyfitter_cfg.c **** } CYPACKED_ATTR cy_cfg_addrvalue_t;
 156:Generated_Source\PSoC4/cyfitter_cfg.c **** 
 157:Generated_Source\PSoC4/cyfitter_cfg.c **** 
 158:Generated_Source\PSoC4/cyfitter_cfg.c **** 
 159:Generated_Source\PSoC4/cyfitter_cfg.c **** /*******************************************************************************
 160:Generated_Source\PSoC4/cyfitter_cfg.c **** * Function Name: cfg_write_bytes32
 161:Generated_Source\PSoC4/cyfitter_cfg.c **** ********************************************************************************
 162:Generated_Source\PSoC4/cyfitter_cfg.c **** * Summary:
 163:Generated_Source\PSoC4/cyfitter_cfg.c **** *  This function is used for setting up the chip configuration areas that
 164:Generated_Source\PSoC4/cyfitter_cfg.c **** *  contain relatively sparse data.
 165:Generated_Source\PSoC4/cyfitter_cfg.c **** *
 166:Generated_Source\PSoC4/cyfitter_cfg.c **** * Parameters:
 167:Generated_Source\PSoC4/cyfitter_cfg.c **** *   void
 168:Generated_Source\PSoC4/cyfitter_cfg.c **** *
 169:Generated_Source\PSoC4/cyfitter_cfg.c **** * Return:
 170:Generated_Source\PSoC4/cyfitter_cfg.c **** *   void
 171:Generated_Source\PSoC4/cyfitter_cfg.c **** *
 172:Generated_Source\PSoC4/cyfitter_cfg.c **** *******************************************************************************/
 173:Generated_Source\PSoC4/cyfitter_cfg.c **** static void cfg_write_bytes32(const uint32 addr_table[], const cy_cfg_addrvalue_t data_table[]);
 174:Generated_Source\PSoC4/cyfitter_cfg.c **** static void cfg_write_bytes32(const uint32 addr_table[], const cy_cfg_addrvalue_t data_table[])
 175:Generated_Source\PSoC4/cyfitter_cfg.c **** {
  27              		.loc 1 175 0
  28              		.cfi_startproc
  29              		@ args = 0, pretend = 0, frame = 0
  30              		@ frame_needed = 0, uses_anonymous_args = 0
  31              	.LVL0:
  32 0000 F0B5     		push	{r4, r5, r6, r7, lr}
  33              		.cfi_def_cfa_offset 20
  34              		.cfi_offset 4, -20
  35              		.cfi_offset 5, -16
  36              		.cfi_offset 6, -12
  37              		.cfi_offset 7, -8
  38              		.cfi_offset 14, -4
  39              	.LVL1:
 176:Generated_Source\PSoC4/cyfitter_cfg.c **** 	/* For 32-bit little-endian architectures */
 177:Generated_Source\PSoC4/cyfitter_cfg.c **** 	uint32 i, j = 0u;
  40              		.loc 1 177 0
  41 0002 0025     		movs	r5, #0
 178:Generated_Source\PSoC4/cyfitter_cfg.c **** 	for (i = 0u; i < CY_CFG_BASE_ADDR_COUNT; i++)
  42              		.loc 1 178 0
  43 0004 0027     		movs	r7, #0
  44 0006 11E0     		b	.L2
  45              	.LVL2:
  46              	.L5:
  47              	.LBB2:
 179:Generated_Source\PSoC4/cyfitter_cfg.c **** 	{
 180:Generated_Source\PSoC4/cyfitter_cfg.c **** 		uint32 baseAddr = addr_table[i];
  48              		.loc 1 180 0
ARM GAS  C:\Users\luvsd\AppData\Local\Temp\cc1pDs5h.s 			page 5


  49 0008 BB00     		lsls	r3, r7, #2
  50 000a C658     		ldr	r6, [r0, r3]
  51              	.LVL3:
 181:Generated_Source\PSoC4/cyfitter_cfg.c **** 		uint8 count = (uint8)baseAddr;
  52              		.loc 1 181 0
  53 000c F3B2     		uxtb	r3, r6
  54              	.LVL4:
 182:Generated_Source\PSoC4/cyfitter_cfg.c **** 		baseAddr &= 0xFFFFFF00u;
  55              		.loc 1 182 0
  56 000e FF22     		movs	r2, #255
  57 0010 9643     		bics	r6, r2
  58              	.LVL5:
 183:Generated_Source\PSoC4/cyfitter_cfg.c **** 		while (count != 0u)
  59              		.loc 1 183 0
  60 0012 08E0     		b	.L3
  61              	.L4:
 184:Generated_Source\PSoC4/cyfitter_cfg.c **** 		{
 185:Generated_Source\PSoC4/cyfitter_cfg.c **** 			CY_SET_REG8((void *)(baseAddr + data_table[j].offset), data_table[j].value);
  62              		.loc 1 185 0
  63 0014 6A00     		lsls	r2, r5, #1
  64 0016 8A18     		adds	r2, r1, r2
  65 0018 1478     		ldrb	r4, [r2]
  66 001a A419     		adds	r4, r4, r6
  67 001c 5278     		ldrb	r2, [r2, #1]
  68 001e 2270     		strb	r2, [r4]
 186:Generated_Source\PSoC4/cyfitter_cfg.c **** 			j++;
  69              		.loc 1 186 0
  70 0020 0135     		adds	r5, r5, #1
  71              	.LVL6:
 187:Generated_Source\PSoC4/cyfitter_cfg.c **** 			count--;
  72              		.loc 1 187 0
  73 0022 013B     		subs	r3, r3, #1
  74              	.LVL7:
  75 0024 DBB2     		uxtb	r3, r3
  76              	.LVL8:
  77              	.L3:
 183:Generated_Source\PSoC4/cyfitter_cfg.c **** 		{
  78              		.loc 1 183 0
  79 0026 002B     		cmp	r3, #0
  80 0028 F4D1     		bne	.L4
  81              	.LBE2:
 178:Generated_Source\PSoC4/cyfitter_cfg.c **** 	{
  82              		.loc 1 178 0 discriminator 2
  83 002a 0137     		adds	r7, r7, #1
  84              	.LVL9:
  85              	.L2:
 178:Generated_Source\PSoC4/cyfitter_cfg.c **** 	{
  86              		.loc 1 178 0 is_stmt 0 discriminator 1
  87 002c 0A2F     		cmp	r7, #10
  88 002e EBD9     		bls	.L5
 188:Generated_Source\PSoC4/cyfitter_cfg.c **** 		}
 189:Generated_Source\PSoC4/cyfitter_cfg.c **** 	}
 190:Generated_Source\PSoC4/cyfitter_cfg.c **** }
  89              		.loc 1 190 0 is_stmt 1
  90              		@ sp needed
  91              	.LVL10:
  92              	.LVL11:
ARM GAS  C:\Users\luvsd\AppData\Local\Temp\cc1pDs5h.s 			page 6


  93 0030 F0BD     		pop	{r4, r5, r6, r7, pc}
  94              		.cfi_endproc
  95              	.LFE4:
  96              		.size	cfg_write_bytes32, .-cfg_write_bytes32
  97 0032 C046     		.section	.text.AnalogSetDefault,"ax",%progbits
  98              		.align	2
  99              		.code	16
 100              		.thumb_func
 101              		.type	AnalogSetDefault, %function
 102              	AnalogSetDefault:
 103              	.LFB6:
 191:Generated_Source\PSoC4/cyfitter_cfg.c **** 
 192:Generated_Source\PSoC4/cyfitter_cfg.c **** 
 193:Generated_Source\PSoC4/cyfitter_cfg.c **** /*******************************************************************************
 194:Generated_Source\PSoC4/cyfitter_cfg.c **** * Function Name: ClockSetup
 195:Generated_Source\PSoC4/cyfitter_cfg.c **** ********************************************************************************
 196:Generated_Source\PSoC4/cyfitter_cfg.c **** *
 197:Generated_Source\PSoC4/cyfitter_cfg.c **** * Summary:
 198:Generated_Source\PSoC4/cyfitter_cfg.c **** *   Performs the initialization of all of the clocks in the device based on the
 199:Generated_Source\PSoC4/cyfitter_cfg.c **** *   settings in the Clock tab of the DWR.  This includes enabling the requested
 200:Generated_Source\PSoC4/cyfitter_cfg.c **** *   clocks and setting the necessary dividers to produce the desired frequency. 
 201:Generated_Source\PSoC4/cyfitter_cfg.c **** *
 202:Generated_Source\PSoC4/cyfitter_cfg.c **** * Parameters:
 203:Generated_Source\PSoC4/cyfitter_cfg.c **** *   void
 204:Generated_Source\PSoC4/cyfitter_cfg.c **** *
 205:Generated_Source\PSoC4/cyfitter_cfg.c **** * Return:
 206:Generated_Source\PSoC4/cyfitter_cfg.c **** *   void
 207:Generated_Source\PSoC4/cyfitter_cfg.c **** *
 208:Generated_Source\PSoC4/cyfitter_cfg.c **** *******************************************************************************/
 209:Generated_Source\PSoC4/cyfitter_cfg.c **** static void ClockSetup(void);
 210:Generated_Source\PSoC4/cyfitter_cfg.c **** CY_CFG_SECTION
 211:Generated_Source\PSoC4/cyfitter_cfg.c **** static void ClockSetup(void)
 212:Generated_Source\PSoC4/cyfitter_cfg.c **** {
 213:Generated_Source\PSoC4/cyfitter_cfg.c **** 
 214:Generated_Source\PSoC4/cyfitter_cfg.c **** 	/* Set Flash Cycles based on max possible frequency in case a glitch occurs during ClockSetup(). *
 215:Generated_Source\PSoC4/cyfitter_cfg.c **** 	CY_SET_REG32((void CYXDATA *)(CYREG_CPUSS_FLASH_CTL), (0x0012u));
 216:Generated_Source\PSoC4/cyfitter_cfg.c **** 
 217:Generated_Source\PSoC4/cyfitter_cfg.c **** 	/* Start the WCO */
 218:Generated_Source\PSoC4/cyfitter_cfg.c **** 	CySysClkWcoStart();
 219:Generated_Source\PSoC4/cyfitter_cfg.c **** 	CyDelayCycles(12000000u); /* WCO may take up to 500ms to start */
 220:Generated_Source\PSoC4/cyfitter_cfg.c **** 
 221:Generated_Source\PSoC4/cyfitter_cfg.c **** 	/* Setup and trim IMO based on desired frequency. */
 222:Generated_Source\PSoC4/cyfitter_cfg.c **** 	CySysClkWriteImoFreq(48u);
 223:Generated_Source\PSoC4/cyfitter_cfg.c **** 	CySysClkImoEnableWcoLock();
 224:Generated_Source\PSoC4/cyfitter_cfg.c **** 	/* CYDEV_CLK_ILO_CONFIG Starting address: CYDEV_CLK_ILO_CONFIG */
 225:Generated_Source\PSoC4/cyfitter_cfg.c **** 	CY_SET_REG32((void *)(CYREG_CLK_ILO_CONFIG), 0x80000006u);
 226:Generated_Source\PSoC4/cyfitter_cfg.c **** 
 227:Generated_Source\PSoC4/cyfitter_cfg.c **** 	/* CYDEV_WDT_CONFIG Starting address: CYDEV_WDT_CONFIG */
 228:Generated_Source\PSoC4/cyfitter_cfg.c **** 	CY_SET_REG32((void *)(CYREG_WDT_CONFIG), 0x40000000u);
 229:Generated_Source\PSoC4/cyfitter_cfg.c **** 
 230:Generated_Source\PSoC4/cyfitter_cfg.c **** 
 231:Generated_Source\PSoC4/cyfitter_cfg.c **** 	/* Setup phase aligned clocks */
 232:Generated_Source\PSoC4/cyfitter_cfg.c **** 	CY_SET_REG32((void *)CYREG_PERI_DIV_16_CTL0, 0x00000200u);
 233:Generated_Source\PSoC4/cyfitter_cfg.c **** 	CY_SET_REG32((void *)CYREG_PERI_DIV_CMD, 0x8000FF40u);
 234:Generated_Source\PSoC4/cyfitter_cfg.c **** 
 235:Generated_Source\PSoC4/cyfitter_cfg.c **** 	/* CYDEV_CLK_IMO_CONFIG Starting address: CYDEV_CLK_IMO_CONFIG */
 236:Generated_Source\PSoC4/cyfitter_cfg.c **** 	CY_SET_REG32((void *)(CYREG_CLK_IMO_CONFIG), 0x80000000u);
ARM GAS  C:\Users\luvsd\AppData\Local\Temp\cc1pDs5h.s 			page 7


 237:Generated_Source\PSoC4/cyfitter_cfg.c **** 
 238:Generated_Source\PSoC4/cyfitter_cfg.c **** 	/* CYDEV_CLK_SELECT Starting address: CYDEV_CLK_SELECT */
 239:Generated_Source\PSoC4/cyfitter_cfg.c **** 	CY_SET_REG32((void *)(CYREG_CLK_SELECT), 0x00040000u);
 240:Generated_Source\PSoC4/cyfitter_cfg.c **** 
 241:Generated_Source\PSoC4/cyfitter_cfg.c **** 	/* CYDEV_PERI_PCLK_CTL19 Starting address: CYDEV_PERI_PCLK_CTL19 */
 242:Generated_Source\PSoC4/cyfitter_cfg.c **** 	CY_SET_REG32((void *)(CYREG_PERI_PCLK_CTL19), 0x00000040u);
 243:Generated_Source\PSoC4/cyfitter_cfg.c **** 
 244:Generated_Source\PSoC4/cyfitter_cfg.c **** 	(void)CyIntSetVector(8u, &CySysWdtIsr);
 245:Generated_Source\PSoC4/cyfitter_cfg.c **** 	CyIntEnable(8u);
 246:Generated_Source\PSoC4/cyfitter_cfg.c **** 	CY_SET_REG32((void *)(CYREG_WDT_CONFIG), 0x40000000u);
 247:Generated_Source\PSoC4/cyfitter_cfg.c **** }
 248:Generated_Source\PSoC4/cyfitter_cfg.c **** 
 249:Generated_Source\PSoC4/cyfitter_cfg.c **** 
 250:Generated_Source\PSoC4/cyfitter_cfg.c **** /* Analog API Functions */
 251:Generated_Source\PSoC4/cyfitter_cfg.c **** 
 252:Generated_Source\PSoC4/cyfitter_cfg.c **** 
 253:Generated_Source\PSoC4/cyfitter_cfg.c **** /*******************************************************************************
 254:Generated_Source\PSoC4/cyfitter_cfg.c **** * Function Name: AnalogSetDefault
 255:Generated_Source\PSoC4/cyfitter_cfg.c **** ********************************************************************************
 256:Generated_Source\PSoC4/cyfitter_cfg.c **** *
 257:Generated_Source\PSoC4/cyfitter_cfg.c **** * Summary:
 258:Generated_Source\PSoC4/cyfitter_cfg.c **** *  Sets up the analog portions of the chip to default values based on chip
 259:Generated_Source\PSoC4/cyfitter_cfg.c **** *  configuration options from the project.
 260:Generated_Source\PSoC4/cyfitter_cfg.c **** *
 261:Generated_Source\PSoC4/cyfitter_cfg.c **** * Parameters:
 262:Generated_Source\PSoC4/cyfitter_cfg.c **** *  void
 263:Generated_Source\PSoC4/cyfitter_cfg.c **** *
 264:Generated_Source\PSoC4/cyfitter_cfg.c **** * Return:
 265:Generated_Source\PSoC4/cyfitter_cfg.c **** *  void
 266:Generated_Source\PSoC4/cyfitter_cfg.c **** *
 267:Generated_Source\PSoC4/cyfitter_cfg.c **** *******************************************************************************/
 268:Generated_Source\PSoC4/cyfitter_cfg.c **** static void AnalogSetDefault(void);
 269:Generated_Source\PSoC4/cyfitter_cfg.c **** static void AnalogSetDefault(void)
 270:Generated_Source\PSoC4/cyfitter_cfg.c **** {
 104              		.loc 1 270 0
 105              		.cfi_startproc
 106              		@ args = 0, pretend = 0, frame = 0
 107              		@ frame_needed = 0, uses_anonymous_args = 0
 108              		@ link register save eliminated.
 271:Generated_Source\PSoC4/cyfitter_cfg.c **** 	CY_SET_XTND_REG32((void CYFAR *)CYREG_CTBM0_DFT_CTRL, 0x00000003u);
 109              		.loc 1 271 0
 110 0000 0323     		movs	r3, #3
 111 0002 044A     		ldr	r2, .L7
 112 0004 1360     		str	r3, [r2]
 272:Generated_Source\PSoC4/cyfitter_cfg.c **** 	CY_SET_XTND_REG32((void CYFAR *)CYREG_CTBM1_DFT_CTRL, 0x00000003u);
 113              		.loc 1 272 0
 114 0006 044A     		ldr	r2, .L7+4
 115 0008 1360     		str	r3, [r2]
 273:Generated_Source\PSoC4/cyfitter_cfg.c **** 	CY_SET_XTND_REG32((void CYFAR *)CYREG_PASS_DSAB_DSAB_CTRL, 0x00000000u);
 116              		.loc 1 273 0
 117 000a 0022     		movs	r2, #0
 118 000c 034B     		ldr	r3, .L7+8
 119 000e 1A60     		str	r2, [r3]
 274:Generated_Source\PSoC4/cyfitter_cfg.c **** }
 120              		.loc 1 274 0
 121              		@ sp needed
 122 0010 7047     		bx	lr
ARM GAS  C:\Users\luvsd\AppData\Local\Temp\cc1pDs5h.s 			page 8


 123              	.L8:
 124 0012 C046     		.align	2
 125              	.L7:
 126 0014 30003040 		.word	1076887600
 127 0018 30003140 		.word	1076953136
 128 001c 000E3F40 		.word	1077874176
 129              		.cfi_endproc
 130              	.LFE6:
 131              		.size	AnalogSetDefault, .-AnalogSetDefault
 132              		.section	.text.CYMEMZERO,"ax",%progbits
 133              		.align	2
 134              		.code	16
 135              		.thumb_func
 136              		.type	CYMEMZERO, %function
 137              	CYMEMZERO:
 138              	.LFB1:
  77:Generated_Source\PSoC4/cyfitter_cfg.c **** 	(void)memset(s, 0, n);
 139              		.loc 1 77 0
 140              		.cfi_startproc
 141              		@ args = 0, pretend = 0, frame = 0
 142              		@ frame_needed = 0, uses_anonymous_args = 0
 143              	.LVL12:
 144 0000 10B5     		push	{r4, lr}
 145              		.cfi_def_cfa_offset 8
 146              		.cfi_offset 4, -8
 147              		.cfi_offset 14, -4
 148 0002 0A00     		movs	r2, r1
  78:Generated_Source\PSoC4/cyfitter_cfg.c **** }
 149              		.loc 1 78 0
 150 0004 0021     		movs	r1, #0
 151              	.LVL13:
 152 0006 FFF7FEFF 		bl	memset
 153              	.LVL14:
  79:Generated_Source\PSoC4/cyfitter_cfg.c **** CY_CFG_UNUSED
 154              		.loc 1 79 0
 155              		@ sp needed
 156 000a 10BD     		pop	{r4, pc}
 157              		.cfi_endproc
 158              	.LFE1:
 159              		.size	CYMEMZERO, .-CYMEMZERO
 160              		.section	.text.CYCONFIGCPYCODE,"ax",%progbits
 161              		.align	2
 162              		.code	16
 163              		.thumb_func
 164              		.type	CYCONFIGCPYCODE, %function
 165              	CYCONFIGCPYCODE:
 166              	.LFB3:
  91:Generated_Source\PSoC4/cyfitter_cfg.c **** 	(void)memcpy(dest, src, n);
 167              		.loc 1 91 0
 168              		.cfi_startproc
 169              		@ args = 0, pretend = 0, frame = 0
 170              		@ frame_needed = 0, uses_anonymous_args = 0
 171              	.LVL15:
 172 0000 10B5     		push	{r4, lr}
 173              		.cfi_def_cfa_offset 8
 174              		.cfi_offset 4, -8
 175              		.cfi_offset 14, -4
ARM GAS  C:\Users\luvsd\AppData\Local\Temp\cc1pDs5h.s 			page 9


  92:Generated_Source\PSoC4/cyfitter_cfg.c **** }
 176              		.loc 1 92 0
 177 0002 FFF7FEFF 		bl	memcpy
 178              	.LVL16:
  93:Generated_Source\PSoC4/cyfitter_cfg.c **** 
 179              		.loc 1 93 0
 180              		@ sp needed
 181 0006 10BD     		pop	{r4, pc}
 182              		.cfi_endproc
 183              	.LFE3:
 184              		.size	CYCONFIGCPYCODE, .-CYCONFIGCPYCODE
 185              		.section	.psocinit,"ax",%progbits
 186              		.align	2
 187              		.code	16
 188              		.thumb_func
 189              		.type	ClockSetup, %function
 190              	ClockSetup:
 191              	.LFB5:
 212:Generated_Source\PSoC4/cyfitter_cfg.c **** 
 192              		.loc 1 212 0
 193              		.cfi_startproc
 194              		@ args = 0, pretend = 0, frame = 0
 195              		@ frame_needed = 0, uses_anonymous_args = 0
 196 0000 70B5     		push	{r4, r5, r6, lr}
 197              		.cfi_def_cfa_offset 16
 198              		.cfi_offset 4, -16
 199              		.cfi_offset 5, -12
 200              		.cfi_offset 6, -8
 201              		.cfi_offset 14, -4
 215:Generated_Source\PSoC4/cyfitter_cfg.c **** 
 202              		.loc 1 215 0
 203 0002 1222     		movs	r2, #18
 204 0004 164B     		ldr	r3, .L12
 205 0006 1A60     		str	r2, [r3]
 218:Generated_Source\PSoC4/cyfitter_cfg.c **** 	CyDelayCycles(12000000u); /* WCO may take up to 500ms to start */
 206              		.loc 1 218 0
 207 0008 FFF7FEFF 		bl	CySysClkWcoStart
 208              	.LVL17:
 219:Generated_Source\PSoC4/cyfitter_cfg.c **** 
 209              		.loc 1 219 0
 210 000c 1548     		ldr	r0, .L12+4
 211 000e FFF7FEFF 		bl	CyDelayCycles
 212              	.LVL18:
 222:Generated_Source\PSoC4/cyfitter_cfg.c **** 	CySysClkImoEnableWcoLock();
 213              		.loc 1 222 0
 214 0012 3020     		movs	r0, #48
 215 0014 FFF7FEFF 		bl	CySysClkWriteImoFreq
 216              	.LVL19:
 223:Generated_Source\PSoC4/cyfitter_cfg.c **** 	/* CYDEV_CLK_ILO_CONFIG Starting address: CYDEV_CLK_ILO_CONFIG */
 217              		.loc 1 223 0
 218 0018 FFF7FEFF 		bl	CySysClkImoEnableWcoLock
 219              	.LVL20:
 225:Generated_Source\PSoC4/cyfitter_cfg.c **** 
 220              		.loc 1 225 0
 221 001c 124A     		ldr	r2, .L12+8
 222 001e 134B     		ldr	r3, .L12+12
 223 0020 1A60     		str	r2, [r3]
ARM GAS  C:\Users\luvsd\AppData\Local\Temp\cc1pDs5h.s 			page 10


 228:Generated_Source\PSoC4/cyfitter_cfg.c **** 
 224              		.loc 1 228 0
 225 0022 134C     		ldr	r4, .L12+16
 226 0024 8025     		movs	r5, #128
 227 0026 ED05     		lsls	r5, r5, #23
 228 0028 2560     		str	r5, [r4]
 232:Generated_Source\PSoC4/cyfitter_cfg.c **** 	CY_SET_REG32((void *)CYREG_PERI_DIV_CMD, 0x8000FF40u);
 229              		.loc 1 232 0
 230 002a 8022     		movs	r2, #128
 231 002c 9200     		lsls	r2, r2, #2
 232 002e 114B     		ldr	r3, .L12+20
 233 0030 1A60     		str	r2, [r3]
 233:Generated_Source\PSoC4/cyfitter_cfg.c **** 
 234              		.loc 1 233 0
 235 0032 114A     		ldr	r2, .L12+24
 236 0034 114B     		ldr	r3, .L12+28
 237 0036 1A60     		str	r2, [r3]
 236:Generated_Source\PSoC4/cyfitter_cfg.c **** 
 238              		.loc 1 236 0
 239 0038 8022     		movs	r2, #128
 240 003a 1206     		lsls	r2, r2, #24
 241 003c 104B     		ldr	r3, .L12+32
 242 003e 1A60     		str	r2, [r3]
 239:Generated_Source\PSoC4/cyfitter_cfg.c **** 
 243              		.loc 1 239 0
 244 0040 8022     		movs	r2, #128
 245 0042 D202     		lsls	r2, r2, #11
 246 0044 0F4B     		ldr	r3, .L12+36
 247 0046 1A60     		str	r2, [r3]
 242:Generated_Source\PSoC4/cyfitter_cfg.c **** 
 248              		.loc 1 242 0
 249 0048 4022     		movs	r2, #64
 250 004a 0F4B     		ldr	r3, .L12+40
 251 004c 1A60     		str	r2, [r3]
 244:Generated_Source\PSoC4/cyfitter_cfg.c **** 	CyIntEnable(8u);
 252              		.loc 1 244 0
 253 004e 0F49     		ldr	r1, .L12+44
 254 0050 0820     		movs	r0, #8
 255 0052 FFF7FEFF 		bl	CyIntSetVector
 256              	.LVL21:
 245:Generated_Source\PSoC4/cyfitter_cfg.c **** 	CY_SET_REG32((void *)(CYREG_WDT_CONFIG), 0x40000000u);
 257              		.loc 1 245 0
 258 0056 0820     		movs	r0, #8
 259 0058 FFF7FEFF 		bl	CyIntEnable
 260              	.LVL22:
 246:Generated_Source\PSoC4/cyfitter_cfg.c **** }
 261              		.loc 1 246 0
 262 005c 2560     		str	r5, [r4]
 247:Generated_Source\PSoC4/cyfitter_cfg.c **** 
 263              		.loc 1 247 0
 264              		@ sp needed
 265 005e 70BD     		pop	{r4, r5, r6, pc}
 266              	.L13:
 267              		.align	2
 268              	.L12:
 269 0060 30001040 		.word	1074790448
 270 0064 001BB700 		.word	12000000
ARM GAS  C:\Users\luvsd\AppData\Local\Temp\cc1pDs5h.s 			page 11


 271 0068 06000080 		.word	-2147483642
 272 006c 04010B40 		.word	1074462980
 273 0070 0C020B40 		.word	1074463244
 274 0074 00030140 		.word	1073808128
 275 0078 40FF0080 		.word	-2147418304
 276 007c 00000140 		.word	1073807360
 277 0080 08010B40 		.word	1074462984
 278 0084 00010B40 		.word	1074462976
 279 0088 4C010140 		.word	1073807692
 280 008c 00000000 		.word	CySysWdtIsr
 281              		.cfi_endproc
 282              	.LFE5:
 283              		.size	ClockSetup, .-ClockSetup
 284              		.align	2
 285              		.global	cyfitter_cfg
 286              		.code	16
 287              		.thumb_func
 288              		.type	cyfitter_cfg, %function
 289              	cyfitter_cfg:
 290              	.LFB7:
 275:Generated_Source\PSoC4/cyfitter_cfg.c **** 
 276:Generated_Source\PSoC4/cyfitter_cfg.c **** 
 277:Generated_Source\PSoC4/cyfitter_cfg.c **** 
 278:Generated_Source\PSoC4/cyfitter_cfg.c **** 
 279:Generated_Source\PSoC4/cyfitter_cfg.c **** /*******************************************************************************
 280:Generated_Source\PSoC4/cyfitter_cfg.c **** * Function Name: cyfitter_cfg
 281:Generated_Source\PSoC4/cyfitter_cfg.c **** ********************************************************************************
 282:Generated_Source\PSoC4/cyfitter_cfg.c **** * Summary:
 283:Generated_Source\PSoC4/cyfitter_cfg.c **** *  This function is called by the start-up code for the selected device. It
 284:Generated_Source\PSoC4/cyfitter_cfg.c **** *  performs all of the necessary device configuration based on the design
 285:Generated_Source\PSoC4/cyfitter_cfg.c **** *  settings.  This includes settings from the Design Wide Resources (DWR) such
 286:Generated_Source\PSoC4/cyfitter_cfg.c **** *  as Clocks and Pins as well as any component configuration that is necessary.
 287:Generated_Source\PSoC4/cyfitter_cfg.c **** *
 288:Generated_Source\PSoC4/cyfitter_cfg.c **** * Parameters:
 289:Generated_Source\PSoC4/cyfitter_cfg.c **** *   void
 290:Generated_Source\PSoC4/cyfitter_cfg.c **** *
 291:Generated_Source\PSoC4/cyfitter_cfg.c **** * Return:
 292:Generated_Source\PSoC4/cyfitter_cfg.c **** *   void
 293:Generated_Source\PSoC4/cyfitter_cfg.c **** *
 294:Generated_Source\PSoC4/cyfitter_cfg.c **** *******************************************************************************/
 295:Generated_Source\PSoC4/cyfitter_cfg.c **** CY_CFG_SECTION
 296:Generated_Source\PSoC4/cyfitter_cfg.c **** void cyfitter_cfg(void)
 297:Generated_Source\PSoC4/cyfitter_cfg.c **** {
 291              		.loc 1 297 0
 292              		.cfi_startproc
 293              		@ args = 0, pretend = 0, frame = 0
 294              		@ frame_needed = 0, uses_anonymous_args = 0
 295 0090 70B5     		push	{r4, r5, r6, lr}
 296              		.cfi_def_cfa_offset 16
 297              		.cfi_offset 4, -16
 298              		.cfi_offset 5, -12
 299              		.cfi_offset 6, -8
 300              		.cfi_offset 14, -4
 298:Generated_Source\PSoC4/cyfitter_cfg.c **** 	/* Disable interrupts by default. Let user enable if/when they want. */
 299:Generated_Source\PSoC4/cyfitter_cfg.c **** 	CyGlobalIntDisable;
 301              		.loc 1 299 0
 302              		.syntax divided
ARM GAS  C:\Users\luvsd\AppData\Local\Temp\cc1pDs5h.s 			page 12


 303              	@ 299 "Generated_Source\PSoC4\cyfitter_cfg.c" 1
 304 0092 72B6     		CPSID   i
 305              	@ 0 "" 2
 300:Generated_Source\PSoC4/cyfitter_cfg.c **** 
 301:Generated_Source\PSoC4/cyfitter_cfg.c **** 	/* Enable the clock in the interrupt controller for the routed interrupts */
 302:Generated_Source\PSoC4/cyfitter_cfg.c **** 	CY_SET_REG8((void *)CYREG_UDB_UDB_INT_CLK_CTL, 0x01u);
 306              		.loc 1 302 0
 307              		.thumb
 308              		.syntax unified
 309 0094 0122     		movs	r2, #1
 310 0096 3C4B     		ldr	r3, .L19
 311 0098 1A70     		strb	r2, [r3]
 312              	.LVL23:
 313              	.LBB3:
 303:Generated_Source\PSoC4/cyfitter_cfg.c **** 	{
 304:Generated_Source\PSoC4/cyfitter_cfg.c **** 		static const uint32 CYCODE cy_cfg_addr_table[] = {
 305:Generated_Source\PSoC4/cyfitter_cfg.c **** 			0x400F0001u, /* Base address: 0x400F0000 Count: 1 */
 306:Generated_Source\PSoC4/cyfitter_cfg.c **** 			0x400F3411u, /* Base address: 0x400F3400 Count: 17 */
 307:Generated_Source\PSoC4/cyfitter_cfg.c **** 			0x400F3532u, /* Base address: 0x400F3500 Count: 50 */
 308:Generated_Source\PSoC4/cyfitter_cfg.c **** 			0x400F3648u, /* Base address: 0x400F3600 Count: 72 */
 309:Generated_Source\PSoC4/cyfitter_cfg.c **** 			0x400F3746u, /* Base address: 0x400F3700 Count: 70 */
 310:Generated_Source\PSoC4/cyfitter_cfg.c **** 			0x400F4002u, /* Base address: 0x400F4000 Count: 2 */
 311:Generated_Source\PSoC4/cyfitter_cfg.c **** 			0x400F4101u, /* Base address: 0x400F4100 Count: 1 */
 312:Generated_Source\PSoC4/cyfitter_cfg.c **** 			0x400F420Cu, /* Base address: 0x400F4200 Count: 12 */
 313:Generated_Source\PSoC4/cyfitter_cfg.c **** 			0x400F430Bu, /* Base address: 0x400F4300 Count: 11 */
 314:Generated_Source\PSoC4/cyfitter_cfg.c **** 			0x400F4704u, /* Base address: 0x400F4700 Count: 4 */
 315:Generated_Source\PSoC4/cyfitter_cfg.c **** 			0x400F6002u, /* Base address: 0x400F6000 Count: 2 */
 316:Generated_Source\PSoC4/cyfitter_cfg.c **** 		};
 317:Generated_Source\PSoC4/cyfitter_cfg.c **** 
 318:Generated_Source\PSoC4/cyfitter_cfg.c **** 		static const cy_cfg_addrvalue_t CYCODE cy_cfg_data_table[] = {
 319:Generated_Source\PSoC4/cyfitter_cfg.c **** 			{0x85u, 0x0Fu},
 320:Generated_Source\PSoC4/cyfitter_cfg.c **** 			{0x04u, 0x02u},
 321:Generated_Source\PSoC4/cyfitter_cfg.c **** 			{0x06u, 0x08u},
 322:Generated_Source\PSoC4/cyfitter_cfg.c **** 			{0x08u, 0x02u},
 323:Generated_Source\PSoC4/cyfitter_cfg.c **** 			{0x0Au, 0x0Du},
 324:Generated_Source\PSoC4/cyfitter_cfg.c **** 			{0x0Cu, 0x0Du},
 325:Generated_Source\PSoC4/cyfitter_cfg.c **** 			{0x10u, 0x02u},
 326:Generated_Source\PSoC4/cyfitter_cfg.c **** 			{0x12u, 0x04u},
 327:Generated_Source\PSoC4/cyfitter_cfg.c **** 			{0x14u, 0x0Du},
 328:Generated_Source\PSoC4/cyfitter_cfg.c **** 			{0x20u, 0x0Du},
 329:Generated_Source\PSoC4/cyfitter_cfg.c **** 			{0x24u, 0x0Du},
 330:Generated_Source\PSoC4/cyfitter_cfg.c **** 			{0x28u, 0x0Du},
 331:Generated_Source\PSoC4/cyfitter_cfg.c **** 			{0x2Cu, 0x01u},
 332:Generated_Source\PSoC4/cyfitter_cfg.c **** 			{0x2Eu, 0x02u},
 333:Generated_Source\PSoC4/cyfitter_cfg.c **** 			{0x32u, 0x0Fu},
 334:Generated_Source\PSoC4/cyfitter_cfg.c **** 			{0x3Au, 0x08u},
 335:Generated_Source\PSoC4/cyfitter_cfg.c **** 			{0x58u, 0x04u},
 336:Generated_Source\PSoC4/cyfitter_cfg.c **** 			{0x5Fu, 0x01u},
 337:Generated_Source\PSoC4/cyfitter_cfg.c **** 			{0x00u, 0x14u},
 338:Generated_Source\PSoC4/cyfitter_cfg.c **** 			{0x02u, 0x01u},
 339:Generated_Source\PSoC4/cyfitter_cfg.c **** 			{0x04u, 0x06u},
 340:Generated_Source\PSoC4/cyfitter_cfg.c **** 			{0x05u, 0x10u},
 341:Generated_Source\PSoC4/cyfitter_cfg.c **** 			{0x07u, 0x02u},
 342:Generated_Source\PSoC4/cyfitter_cfg.c **** 			{0x09u, 0x06u},
 343:Generated_Source\PSoC4/cyfitter_cfg.c **** 			{0x0Cu, 0x22u},
 344:Generated_Source\PSoC4/cyfitter_cfg.c **** 			{0x0Eu, 0x20u},
 345:Generated_Source\PSoC4/cyfitter_cfg.c **** 			{0x10u, 0x28u},
ARM GAS  C:\Users\luvsd\AppData\Local\Temp\cc1pDs5h.s 			page 13


 346:Generated_Source\PSoC4/cyfitter_cfg.c **** 			{0x11u, 0x01u},
 347:Generated_Source\PSoC4/cyfitter_cfg.c **** 			{0x13u, 0x40u},
 348:Generated_Source\PSoC4/cyfitter_cfg.c **** 			{0x15u, 0x11u},
 349:Generated_Source\PSoC4/cyfitter_cfg.c **** 			{0x16u, 0x01u},
 350:Generated_Source\PSoC4/cyfitter_cfg.c **** 			{0x18u, 0x10u},
 351:Generated_Source\PSoC4/cyfitter_cfg.c **** 			{0x1Du, 0x10u},
 352:Generated_Source\PSoC4/cyfitter_cfg.c **** 			{0x1Eu, 0x20u},
 353:Generated_Source\PSoC4/cyfitter_cfg.c **** 			{0x1Fu, 0x08u},
 354:Generated_Source\PSoC4/cyfitter_cfg.c **** 			{0x27u, 0x08u},
 355:Generated_Source\PSoC4/cyfitter_cfg.c **** 			{0x2Cu, 0xA0u},
 356:Generated_Source\PSoC4/cyfitter_cfg.c **** 			{0x2Du, 0x90u},
 357:Generated_Source\PSoC4/cyfitter_cfg.c **** 			{0x36u, 0x10u},
 358:Generated_Source\PSoC4/cyfitter_cfg.c **** 			{0x37u, 0x4Au},
 359:Generated_Source\PSoC4/cyfitter_cfg.c **** 			{0x3Du, 0x08u},
 360:Generated_Source\PSoC4/cyfitter_cfg.c **** 			{0x3Eu, 0x80u},
 361:Generated_Source\PSoC4/cyfitter_cfg.c **** 			{0x3Fu, 0x20u},
 362:Generated_Source\PSoC4/cyfitter_cfg.c **** 			{0x45u, 0x0Au},
 363:Generated_Source\PSoC4/cyfitter_cfg.c **** 			{0x47u, 0x22u},
 364:Generated_Source\PSoC4/cyfitter_cfg.c **** 			{0x4Cu, 0x01u},
 365:Generated_Source\PSoC4/cyfitter_cfg.c **** 			{0x4Du, 0x88u},
 366:Generated_Source\PSoC4/cyfitter_cfg.c **** 			{0x4Fu, 0x60u},
 367:Generated_Source\PSoC4/cyfitter_cfg.c **** 			{0x55u, 0x01u},
 368:Generated_Source\PSoC4/cyfitter_cfg.c **** 			{0x56u, 0x9Au},
 369:Generated_Source\PSoC4/cyfitter_cfg.c **** 			{0x65u, 0x10u},
 370:Generated_Source\PSoC4/cyfitter_cfg.c **** 			{0x6Cu, 0x2Au},
 371:Generated_Source\PSoC4/cyfitter_cfg.c **** 			{0x6Du, 0x11u},
 372:Generated_Source\PSoC4/cyfitter_cfg.c **** 			{0x6Fu, 0x40u},
 373:Generated_Source\PSoC4/cyfitter_cfg.c **** 			{0x74u, 0x80u},
 374:Generated_Source\PSoC4/cyfitter_cfg.c **** 			{0x76u, 0x01u},
 375:Generated_Source\PSoC4/cyfitter_cfg.c **** 			{0x86u, 0x80u},
 376:Generated_Source\PSoC4/cyfitter_cfg.c **** 			{0x8Cu, 0x02u},
 377:Generated_Source\PSoC4/cyfitter_cfg.c **** 			{0x8Du, 0x04u},
 378:Generated_Source\PSoC4/cyfitter_cfg.c **** 			{0xC0u, 0xF7u},
 379:Generated_Source\PSoC4/cyfitter_cfg.c **** 			{0xC2u, 0x7Cu},
 380:Generated_Source\PSoC4/cyfitter_cfg.c **** 			{0xC4u, 0xDFu},
 381:Generated_Source\PSoC4/cyfitter_cfg.c **** 			{0xCAu, 0xF0u},
 382:Generated_Source\PSoC4/cyfitter_cfg.c **** 			{0xCCu, 0xF0u},
 383:Generated_Source\PSoC4/cyfitter_cfg.c **** 			{0xCEu, 0x70u},
 384:Generated_Source\PSoC4/cyfitter_cfg.c **** 			{0xD0u, 0xE0u},
 385:Generated_Source\PSoC4/cyfitter_cfg.c **** 			{0xD2u, 0x30u},
 386:Generated_Source\PSoC4/cyfitter_cfg.c **** 			{0xD8u, 0x20u},
 387:Generated_Source\PSoC4/cyfitter_cfg.c **** 			{0x00u, 0x1Au},
 388:Generated_Source\PSoC4/cyfitter_cfg.c **** 			{0x04u, 0x18u},
 389:Generated_Source\PSoC4/cyfitter_cfg.c **** 			{0x06u, 0x02u},
 390:Generated_Source\PSoC4/cyfitter_cfg.c **** 			{0x09u, 0x08u},
 391:Generated_Source\PSoC4/cyfitter_cfg.c **** 			{0x0Au, 0x10u},
 392:Generated_Source\PSoC4/cyfitter_cfg.c **** 			{0x0Bu, 0x33u},
 393:Generated_Source\PSoC4/cyfitter_cfg.c **** 			{0x0Cu, 0x01u},
 394:Generated_Source\PSoC4/cyfitter_cfg.c **** 			{0x0Du, 0x25u},
 395:Generated_Source\PSoC4/cyfitter_cfg.c **** 			{0x0Eu, 0x08u},
 396:Generated_Source\PSoC4/cyfitter_cfg.c **** 			{0x0Fu, 0x08u},
 397:Generated_Source\PSoC4/cyfitter_cfg.c **** 			{0x10u, 0x08u},
 398:Generated_Source\PSoC4/cyfitter_cfg.c **** 			{0x12u, 0x12u},
 399:Generated_Source\PSoC4/cyfitter_cfg.c **** 			{0x14u, 0x12u},
 400:Generated_Source\PSoC4/cyfitter_cfg.c **** 			{0x16u, 0x08u},
 401:Generated_Source\PSoC4/cyfitter_cfg.c **** 			{0x18u, 0x0Cu},
 402:Generated_Source\PSoC4/cyfitter_cfg.c **** 			{0x19u, 0x1Cu},
ARM GAS  C:\Users\luvsd\AppData\Local\Temp\cc1pDs5h.s 			page 14


 403:Generated_Source\PSoC4/cyfitter_cfg.c **** 			{0x1Au, 0x03u},
 404:Generated_Source\PSoC4/cyfitter_cfg.c **** 			{0x1Cu, 0x03u},
 405:Generated_Source\PSoC4/cyfitter_cfg.c **** 			{0x1Eu, 0x04u},
 406:Generated_Source\PSoC4/cyfitter_cfg.c **** 			{0x1Fu, 0x02u},
 407:Generated_Source\PSoC4/cyfitter_cfg.c **** 			{0x20u, 0x1Au},
 408:Generated_Source\PSoC4/cyfitter_cfg.c **** 			{0x24u, 0x08u},
 409:Generated_Source\PSoC4/cyfitter_cfg.c **** 			{0x2Cu, 0x02u},
 410:Generated_Source\PSoC4/cyfitter_cfg.c **** 			{0x2Du, 0x28u},
 411:Generated_Source\PSoC4/cyfitter_cfg.c **** 			{0x2Fu, 0x17u},
 412:Generated_Source\PSoC4/cyfitter_cfg.c **** 			{0x30u, 0x0Fu},
 413:Generated_Source\PSoC4/cyfitter_cfg.c **** 			{0x34u, 0x10u},
 414:Generated_Source\PSoC4/cyfitter_cfg.c **** 			{0x35u, 0x3Cu},
 415:Generated_Source\PSoC4/cyfitter_cfg.c **** 			{0x37u, 0x03u},
 416:Generated_Source\PSoC4/cyfitter_cfg.c **** 			{0x39u, 0x20u},
 417:Generated_Source\PSoC4/cyfitter_cfg.c **** 			{0x3Au, 0x02u},
 418:Generated_Source\PSoC4/cyfitter_cfg.c **** 			{0x3Eu, 0x10u},
 419:Generated_Source\PSoC4/cyfitter_cfg.c **** 			{0x54u, 0x40u},
 420:Generated_Source\PSoC4/cyfitter_cfg.c **** 			{0x58u, 0x04u},
 421:Generated_Source\PSoC4/cyfitter_cfg.c **** 			{0x59u, 0x04u},
 422:Generated_Source\PSoC4/cyfitter_cfg.c **** 			{0x5Bu, 0x04u},
 423:Generated_Source\PSoC4/cyfitter_cfg.c **** 			{0x5Fu, 0x01u},
 424:Generated_Source\PSoC4/cyfitter_cfg.c **** 			{0x81u, 0x04u},
 425:Generated_Source\PSoC4/cyfitter_cfg.c **** 			{0x84u, 0x04u},
 426:Generated_Source\PSoC4/cyfitter_cfg.c **** 			{0x86u, 0x08u},
 427:Generated_Source\PSoC4/cyfitter_cfg.c **** 			{0x8Du, 0x17u},
 428:Generated_Source\PSoC4/cyfitter_cfg.c **** 			{0x90u, 0x0Eu},
 429:Generated_Source\PSoC4/cyfitter_cfg.c **** 			{0x91u, 0x02u},
 430:Generated_Source\PSoC4/cyfitter_cfg.c **** 			{0x92u, 0x01u},
 431:Generated_Source\PSoC4/cyfitter_cfg.c **** 			{0x93u, 0x0Cu},
 432:Generated_Source\PSoC4/cyfitter_cfg.c **** 			{0x95u, 0x0Cu},
 433:Generated_Source\PSoC4/cyfitter_cfg.c **** 			{0x97u, 0x02u},
 434:Generated_Source\PSoC4/cyfitter_cfg.c **** 			{0x99u, 0x0Au},
 435:Generated_Source\PSoC4/cyfitter_cfg.c **** 			{0x9Bu, 0x04u},
 436:Generated_Source\PSoC4/cyfitter_cfg.c **** 			{0x9Du, 0x0Eu},
 437:Generated_Source\PSoC4/cyfitter_cfg.c **** 			{0xA0u, 0x04u},
 438:Generated_Source\PSoC4/cyfitter_cfg.c **** 			{0xA1u, 0x0Eu},
 439:Generated_Source\PSoC4/cyfitter_cfg.c **** 			{0xA5u, 0x12u},
 440:Generated_Source\PSoC4/cyfitter_cfg.c **** 			{0xA7u, 0x05u},
 441:Generated_Source\PSoC4/cyfitter_cfg.c **** 			{0xA9u, 0x02u},
 442:Generated_Source\PSoC4/cyfitter_cfg.c **** 			{0xACu, 0x01u},
 443:Generated_Source\PSoC4/cyfitter_cfg.c **** 			{0xADu, 0x11u},
 444:Generated_Source\PSoC4/cyfitter_cfg.c **** 			{0xAEu, 0x0Au},
 445:Generated_Source\PSoC4/cyfitter_cfg.c **** 			{0xAFu, 0x02u},
 446:Generated_Source\PSoC4/cyfitter_cfg.c **** 			{0xB0u, 0x08u},
 447:Generated_Source\PSoC4/cyfitter_cfg.c **** 			{0xB1u, 0x07u},
 448:Generated_Source\PSoC4/cyfitter_cfg.c **** 			{0xB3u, 0x08u},
 449:Generated_Source\PSoC4/cyfitter_cfg.c **** 			{0xB4u, 0x07u},
 450:Generated_Source\PSoC4/cyfitter_cfg.c **** 			{0xB7u, 0x10u},
 451:Generated_Source\PSoC4/cyfitter_cfg.c **** 			{0xBAu, 0x20u},
 452:Generated_Source\PSoC4/cyfitter_cfg.c **** 			{0xBEu, 0x01u},
 453:Generated_Source\PSoC4/cyfitter_cfg.c **** 			{0xBFu, 0x44u},
 454:Generated_Source\PSoC4/cyfitter_cfg.c **** 			{0xD4u, 0x09u},
 455:Generated_Source\PSoC4/cyfitter_cfg.c **** 			{0xD8u, 0x04u},
 456:Generated_Source\PSoC4/cyfitter_cfg.c **** 			{0xD9u, 0x04u},
 457:Generated_Source\PSoC4/cyfitter_cfg.c **** 			{0xDBu, 0x04u},
 458:Generated_Source\PSoC4/cyfitter_cfg.c **** 			{0xDFu, 0x01u},
 459:Generated_Source\PSoC4/cyfitter_cfg.c **** 			{0x00u, 0x04u},
ARM GAS  C:\Users\luvsd\AppData\Local\Temp\cc1pDs5h.s 			page 15


 460:Generated_Source\PSoC4/cyfitter_cfg.c **** 			{0x04u, 0x40u},
 461:Generated_Source\PSoC4/cyfitter_cfg.c **** 			{0x05u, 0x10u},
 462:Generated_Source\PSoC4/cyfitter_cfg.c **** 			{0x06u, 0x08u},
 463:Generated_Source\PSoC4/cyfitter_cfg.c **** 			{0x07u, 0x50u},
 464:Generated_Source\PSoC4/cyfitter_cfg.c **** 			{0x09u, 0x02u},
 465:Generated_Source\PSoC4/cyfitter_cfg.c **** 			{0x0Cu, 0x0Au},
 466:Generated_Source\PSoC4/cyfitter_cfg.c **** 			{0x0Du, 0x40u},
 467:Generated_Source\PSoC4/cyfitter_cfg.c **** 			{0x0Eu, 0x04u},
 468:Generated_Source\PSoC4/cyfitter_cfg.c **** 			{0x11u, 0x02u},
 469:Generated_Source\PSoC4/cyfitter_cfg.c **** 			{0x13u, 0x40u},
 470:Generated_Source\PSoC4/cyfitter_cfg.c **** 			{0x14u, 0x80u},
 471:Generated_Source\PSoC4/cyfitter_cfg.c **** 			{0x16u, 0x22u},
 472:Generated_Source\PSoC4/cyfitter_cfg.c **** 			{0x18u, 0x04u},
 473:Generated_Source\PSoC4/cyfitter_cfg.c **** 			{0x1Au, 0x84u},
 474:Generated_Source\PSoC4/cyfitter_cfg.c **** 			{0x1Bu, 0x10u},
 475:Generated_Source\PSoC4/cyfitter_cfg.c **** 			{0x1Cu, 0x40u},
 476:Generated_Source\PSoC4/cyfitter_cfg.c **** 			{0x1Du, 0x02u},
 477:Generated_Source\PSoC4/cyfitter_cfg.c **** 			{0x1Fu, 0x12u},
 478:Generated_Source\PSoC4/cyfitter_cfg.c **** 			{0x21u, 0x08u},
 479:Generated_Source\PSoC4/cyfitter_cfg.c **** 			{0x23u, 0x41u},
 480:Generated_Source\PSoC4/cyfitter_cfg.c **** 			{0x26u, 0xA0u},
 481:Generated_Source\PSoC4/cyfitter_cfg.c **** 			{0x28u, 0x80u},
 482:Generated_Source\PSoC4/cyfitter_cfg.c **** 			{0x2Au, 0x21u},
 483:Generated_Source\PSoC4/cyfitter_cfg.c **** 			{0x2Bu, 0x1Au},
 484:Generated_Source\PSoC4/cyfitter_cfg.c **** 			{0x2Fu, 0x02u},
 485:Generated_Source\PSoC4/cyfitter_cfg.c **** 			{0x30u, 0x2Au},
 486:Generated_Source\PSoC4/cyfitter_cfg.c **** 			{0x33u, 0x50u},
 487:Generated_Source\PSoC4/cyfitter_cfg.c **** 			{0x36u, 0xA0u},
 488:Generated_Source\PSoC4/cyfitter_cfg.c **** 			{0x39u, 0x80u},
 489:Generated_Source\PSoC4/cyfitter_cfg.c **** 			{0x3Au, 0x02u},
 490:Generated_Source\PSoC4/cyfitter_cfg.c **** 			{0x3Bu, 0x40u},
 491:Generated_Source\PSoC4/cyfitter_cfg.c **** 			{0x3Fu, 0x60u},
 492:Generated_Source\PSoC4/cyfitter_cfg.c **** 			{0x58u, 0x21u},
 493:Generated_Source\PSoC4/cyfitter_cfg.c **** 			{0x59u, 0x08u},
 494:Generated_Source\PSoC4/cyfitter_cfg.c **** 			{0x5Au, 0x80u},
 495:Generated_Source\PSoC4/cyfitter_cfg.c **** 			{0x63u, 0x01u},
 496:Generated_Source\PSoC4/cyfitter_cfg.c **** 			{0x66u, 0x10u},
 497:Generated_Source\PSoC4/cyfitter_cfg.c **** 			{0x67u, 0x22u},
 498:Generated_Source\PSoC4/cyfitter_cfg.c **** 			{0x6Cu, 0x01u},
 499:Generated_Source\PSoC4/cyfitter_cfg.c **** 			{0x80u, 0x01u},
 500:Generated_Source\PSoC4/cyfitter_cfg.c **** 			{0x84u, 0x20u},
 501:Generated_Source\PSoC4/cyfitter_cfg.c **** 			{0x86u, 0x02u},
 502:Generated_Source\PSoC4/cyfitter_cfg.c **** 			{0x88u, 0x01u},
 503:Generated_Source\PSoC4/cyfitter_cfg.c **** 			{0x89u, 0x08u},
 504:Generated_Source\PSoC4/cyfitter_cfg.c **** 			{0x8Du, 0x10u},
 505:Generated_Source\PSoC4/cyfitter_cfg.c **** 			{0x8Eu, 0x20u},
 506:Generated_Source\PSoC4/cyfitter_cfg.c **** 			{0x8Fu, 0x01u},
 507:Generated_Source\PSoC4/cyfitter_cfg.c **** 			{0x94u, 0x04u},
 508:Generated_Source\PSoC4/cyfitter_cfg.c **** 			{0x97u, 0x40u},
 509:Generated_Source\PSoC4/cyfitter_cfg.c **** 			{0x99u, 0x08u},
 510:Generated_Source\PSoC4/cyfitter_cfg.c **** 			{0x9Au, 0x1Bu},
 511:Generated_Source\PSoC4/cyfitter_cfg.c **** 			{0x9Bu, 0x40u},
 512:Generated_Source\PSoC4/cyfitter_cfg.c **** 			{0xA0u, 0x2Au},
 513:Generated_Source\PSoC4/cyfitter_cfg.c **** 			{0xA1u, 0x01u},
 514:Generated_Source\PSoC4/cyfitter_cfg.c **** 			{0xA3u, 0x08u},
 515:Generated_Source\PSoC4/cyfitter_cfg.c **** 			{0xA5u, 0x0Au},
 516:Generated_Source\PSoC4/cyfitter_cfg.c **** 			{0xA6u, 0x80u},
ARM GAS  C:\Users\luvsd\AppData\Local\Temp\cc1pDs5h.s 			page 16


 517:Generated_Source\PSoC4/cyfitter_cfg.c **** 			{0xA7u, 0x10u},
 518:Generated_Source\PSoC4/cyfitter_cfg.c **** 			{0xABu, 0x08u},
 519:Generated_Source\PSoC4/cyfitter_cfg.c **** 			{0xAFu, 0x20u},
 520:Generated_Source\PSoC4/cyfitter_cfg.c **** 			{0xC0u, 0xF4u},
 521:Generated_Source\PSoC4/cyfitter_cfg.c **** 			{0xC2u, 0xF8u},
 522:Generated_Source\PSoC4/cyfitter_cfg.c **** 			{0xC4u, 0xB9u},
 523:Generated_Source\PSoC4/cyfitter_cfg.c **** 			{0xCAu, 0x1Fu},
 524:Generated_Source\PSoC4/cyfitter_cfg.c **** 			{0xCCu, 0x3Fu},
 525:Generated_Source\PSoC4/cyfitter_cfg.c **** 			{0xCEu, 0x39u},
 526:Generated_Source\PSoC4/cyfitter_cfg.c **** 			{0xD6u, 0x0Fu},
 527:Generated_Source\PSoC4/cyfitter_cfg.c **** 			{0xD8u, 0x78u},
 528:Generated_Source\PSoC4/cyfitter_cfg.c **** 			{0xE2u, 0x90u},
 529:Generated_Source\PSoC4/cyfitter_cfg.c **** 			{0x68u, 0x01u},
 530:Generated_Source\PSoC4/cyfitter_cfg.c **** 			{0xDAu, 0x40u},
 531:Generated_Source\PSoC4/cyfitter_cfg.c **** 			{0xA4u, 0x01u},
 532:Generated_Source\PSoC4/cyfitter_cfg.c **** 			{0x07u, 0x80u},
 533:Generated_Source\PSoC4/cyfitter_cfg.c **** 			{0x53u, 0x04u},
 534:Generated_Source\PSoC4/cyfitter_cfg.c **** 			{0x57u, 0x02u},
 535:Generated_Source\PSoC4/cyfitter_cfg.c **** 			{0x66u, 0x08u},
 536:Generated_Source\PSoC4/cyfitter_cfg.c **** 			{0x67u, 0x02u},
 537:Generated_Source\PSoC4/cyfitter_cfg.c **** 			{0x87u, 0x04u},
 538:Generated_Source\PSoC4/cyfitter_cfg.c **** 			{0xA4u, 0x01u},
 539:Generated_Source\PSoC4/cyfitter_cfg.c **** 			{0xC0u, 0x20u},
 540:Generated_Source\PSoC4/cyfitter_cfg.c **** 			{0xD4u, 0x20u},
 541:Generated_Source\PSoC4/cyfitter_cfg.c **** 			{0xD6u, 0xA0u},
 542:Generated_Source\PSoC4/cyfitter_cfg.c **** 			{0xD8u, 0x80u},
 543:Generated_Source\PSoC4/cyfitter_cfg.c **** 			{0xE6u, 0x10u},
 544:Generated_Source\PSoC4/cyfitter_cfg.c **** 			{0x83u, 0x01u},
 545:Generated_Source\PSoC4/cyfitter_cfg.c **** 			{0x88u, 0x01u},
 546:Generated_Source\PSoC4/cyfitter_cfg.c **** 			{0x8Eu, 0x08u},
 547:Generated_Source\PSoC4/cyfitter_cfg.c **** 			{0x97u, 0x02u},
 548:Generated_Source\PSoC4/cyfitter_cfg.c **** 			{0x9Eu, 0x08u},
 549:Generated_Source\PSoC4/cyfitter_cfg.c **** 			{0xA4u, 0x01u},
 550:Generated_Source\PSoC4/cyfitter_cfg.c **** 			{0xABu, 0x02u},
 551:Generated_Source\PSoC4/cyfitter_cfg.c **** 			{0xAFu, 0x80u},
 552:Generated_Source\PSoC4/cyfitter_cfg.c **** 			{0xE6u, 0x20u},
 553:Generated_Source\PSoC4/cyfitter_cfg.c **** 			{0xE8u, 0x40u},
 554:Generated_Source\PSoC4/cyfitter_cfg.c **** 			{0xEAu, 0x20u},
 555:Generated_Source\PSoC4/cyfitter_cfg.c **** 			{0x2Du, 0x08u},
 556:Generated_Source\PSoC4/cyfitter_cfg.c **** 			{0x89u, 0x08u},
 557:Generated_Source\PSoC4/cyfitter_cfg.c **** 			{0xCAu, 0x01u},
 558:Generated_Source\PSoC4/cyfitter_cfg.c **** 			{0xE2u, 0x01u},
 559:Generated_Source\PSoC4/cyfitter_cfg.c **** 			{0x12u, 0x01u},
 560:Generated_Source\PSoC4/cyfitter_cfg.c **** 			{0x13u, 0x01u},
 561:Generated_Source\PSoC4/cyfitter_cfg.c **** 		};
 562:Generated_Source\PSoC4/cyfitter_cfg.c **** 
 563:Generated_Source\PSoC4/cyfitter_cfg.c **** 
 564:Generated_Source\PSoC4/cyfitter_cfg.c **** 
 565:Generated_Source\PSoC4/cyfitter_cfg.c **** 		CYPACKED typedef struct {
 566:Generated_Source\PSoC4/cyfitter_cfg.c **** 			void CYFAR *address;
 567:Generated_Source\PSoC4/cyfitter_cfg.c **** 			uint16 size;
 568:Generated_Source\PSoC4/cyfitter_cfg.c **** 		} CYPACKED_ATTR cfg_memset_t;
 569:Generated_Source\PSoC4/cyfitter_cfg.c **** 
 570:Generated_Source\PSoC4/cyfitter_cfg.c **** 
 571:Generated_Source\PSoC4/cyfitter_cfg.c **** 		CYPACKED typedef struct {
 572:Generated_Source\PSoC4/cyfitter_cfg.c **** 			void CYFAR *dest;
 573:Generated_Source\PSoC4/cyfitter_cfg.c **** 			const void CYCODE *src;
ARM GAS  C:\Users\luvsd\AppData\Local\Temp\cc1pDs5h.s 			page 17


 574:Generated_Source\PSoC4/cyfitter_cfg.c **** 			uint16 size;
 575:Generated_Source\PSoC4/cyfitter_cfg.c **** 		} CYPACKED_ATTR cfg_memcpy_t;
 576:Generated_Source\PSoC4/cyfitter_cfg.c **** 
 577:Generated_Source\PSoC4/cyfitter_cfg.c **** 		static const cfg_memset_t CYCODE cfg_memset_list[] = {
 578:Generated_Source\PSoC4/cyfitter_cfg.c **** 			/* address, size */
 579:Generated_Source\PSoC4/cyfitter_cfg.c **** 			{(void CYFAR *)(CYDEV_UDB_P0_U0_BASE), 1152u},
 580:Generated_Source\PSoC4/cyfitter_cfg.c **** 			{(void CYFAR *)(CYDEV_UDB_P2_ROUTE_BASE), 768u},
 581:Generated_Source\PSoC4/cyfitter_cfg.c **** 			{(void CYFAR *)(CYDEV_UDB_DSI0_BASE), 2048u},
 582:Generated_Source\PSoC4/cyfitter_cfg.c **** 		};
 583:Generated_Source\PSoC4/cyfitter_cfg.c **** 
 584:Generated_Source\PSoC4/cyfitter_cfg.c **** 		/* UDB_0_1_1_CONFIG Address: CYDEV_UDB_P2_U1_BASE Size (bytes): 128 */
 585:Generated_Source\PSoC4/cyfitter_cfg.c **** 		static const uint8 CYCODE BS_UDB_0_1_1_CONFIG_VAL[] = {
 586:Generated_Source\PSoC4/cyfitter_cfg.c **** 			0x03u, 0x00u, 0x3Cu, 0x00u, 0x79u, 0x04u, 0x06u, 0x00u, 0x02u, 0x56u, 0x0Du, 0x09u, 0x15u, 0x60u
 587:Generated_Source\PSoC4/cyfitter_cfg.c **** 			0x40u, 0x0Au, 0x00u, 0x10u, 0x10u, 0x01u, 0x60u, 0x00u, 0x40u, 0x04u, 0x00u, 0x00u, 0x00u, 0x04u
 588:Generated_Source\PSoC4/cyfitter_cfg.c **** 			0x40u, 0x04u, 0x00u, 0x00u, 0x00u, 0x04u, 0x00u, 0x00u, 0x00u, 0x00u, 0x40u, 0x04u, 0x40u, 0x07u
 589:Generated_Source\PSoC4/cyfitter_cfg.c **** 			0x00u, 0x00u, 0x70u, 0x00u, 0x0Fu, 0x7Fu, 0x00u, 0x00u, 0x00u, 0x20u, 0x28u, 0x00u, 0x00u, 0x00u
 590:Generated_Source\PSoC4/cyfitter_cfg.c **** 			0x46u, 0x05u, 0x30u, 0x00u, 0x02u, 0x0Eu, 0xFBu, 0xCDu, 0x3Du, 0xFFu, 0xFFu, 0xFFu, 0x22u, 0x00u
 591:Generated_Source\PSoC4/cyfitter_cfg.c **** 			0x04u, 0x00u, 0x00u, 0x00u, 0x00u, 0x00u, 0x02u, 0x24u, 0x04u, 0x04u, 0x04u, 0x04u, 0x00u, 0x00u
 592:Generated_Source\PSoC4/cyfitter_cfg.c **** 			0x00u, 0x00u, 0xC0u, 0x00u, 0x40u, 0x01u, 0x10u, 0x11u, 0xC0u, 0x01u, 0x00u, 0x11u, 0x40u, 0x01u
 593:Generated_Source\PSoC4/cyfitter_cfg.c **** 			0x00u, 0x00u, 0x00u, 0x00u, 0x00u, 0x00u, 0x00u, 0x00u, 0x00u, 0x00u, 0x00u, 0x00u, 0x00u, 0x00u
 594:Generated_Source\PSoC4/cyfitter_cfg.c **** 
 595:Generated_Source\PSoC4/cyfitter_cfg.c **** 		static const cfg_memcpy_t CYCODE cfg_memcpy_list [] = {
 596:Generated_Source\PSoC4/cyfitter_cfg.c **** 			/* dest, src, size */
 597:Generated_Source\PSoC4/cyfitter_cfg.c **** 			{(void CYFAR *)(CYDEV_UDB_P2_U1_BASE), BS_UDB_0_1_1_CONFIG_VAL, 128u},
 598:Generated_Source\PSoC4/cyfitter_cfg.c **** 		};
 599:Generated_Source\PSoC4/cyfitter_cfg.c **** 
 600:Generated_Source\PSoC4/cyfitter_cfg.c **** 		uint8 CYDATA i;
 601:Generated_Source\PSoC4/cyfitter_cfg.c **** 
 602:Generated_Source\PSoC4/cyfitter_cfg.c **** 		/* Zero out critical memory blocks before beginning configuration */
 603:Generated_Source\PSoC4/cyfitter_cfg.c **** 		for (i = 0u; i < (sizeof(cfg_memset_list)/sizeof(cfg_memset_list[0])); i++)
 314              		.loc 1 603 0
 315 009a 0024     		movs	r4, #0
 316 009c 0FE0     		b	.L15
 317              	.LVL24:
 318              	.L16:
 319              	.LBB4:
 604:Generated_Source\PSoC4/cyfitter_cfg.c **** 		{
 605:Generated_Source\PSoC4/cyfitter_cfg.c **** 			const cfg_memset_t CYCODE * CYDATA ms = &cfg_memset_list[i];
 606:Generated_Source\PSoC4/cyfitter_cfg.c **** 			CYMEMZERO(ms->address, (size_t)(uint32)(ms->size));
 320              		.loc 1 606 0 discriminator 3
 321 009e 3B48     		ldr	r0, .L19+4
 322 00a0 6200     		lsls	r2, r4, #1
 323 00a2 1319     		adds	r3, r2, r4
 324 00a4 5900     		lsls	r1, r3, #1
 325 00a6 0B00     		movs	r3, r1
 326 00a8 4118     		adds	r1, r0, r1
 327 00aa 8988     		ldrh	r1, [r1, #4]
 328 00ac 1A5A     		ldrh	r2, [r3, r0]
 329 00ae C318     		adds	r3, r0, r3
 330 00b0 5888     		ldrh	r0, [r3, #2]
 331 00b2 0004     		lsls	r0, r0, #16
 332 00b4 1043     		orrs	r0, r2
 333 00b6 FFF7FEFF 		bl	CYMEMZERO
 334              	.LVL25:
 335              	.LBE4:
 603:Generated_Source\PSoC4/cyfitter_cfg.c **** 		{
 336              		.loc 1 603 0 discriminator 3
ARM GAS  C:\Users\luvsd\AppData\Local\Temp\cc1pDs5h.s 			page 18


 337 00ba 0134     		adds	r4, r4, #1
 338              	.LVL26:
 339 00bc E4B2     		uxtb	r4, r4
 340              	.LVL27:
 341              	.L15:
 603:Generated_Source\PSoC4/cyfitter_cfg.c **** 		{
 342              		.loc 1 603 0 is_stmt 0 discriminator 1
 343 00be 022C     		cmp	r4, #2
 344 00c0 EDD9     		bls	.L16
 345 00c2 0024     		movs	r4, #0
 346              	.LVL28:
 347 00c4 11E0     		b	.L17
 348              	.LVL29:
 349              	.L18:
 350              	.LBB5:
 607:Generated_Source\PSoC4/cyfitter_cfg.c **** 		}
 608:Generated_Source\PSoC4/cyfitter_cfg.c **** 
 609:Generated_Source\PSoC4/cyfitter_cfg.c **** 		/* Copy device configuration data into registers */
 610:Generated_Source\PSoC4/cyfitter_cfg.c **** 		for (i = 0u; i < (sizeof(cfg_memcpy_list)/sizeof(cfg_memcpy_list[0])); i++)
 611:Generated_Source\PSoC4/cyfitter_cfg.c **** 		{
 612:Generated_Source\PSoC4/cyfitter_cfg.c **** 			const cfg_memcpy_t CYCODE * CYDATA mc = &cfg_memcpy_list[i];
 613:Generated_Source\PSoC4/cyfitter_cfg.c **** 			void * CYDATA destPtr = mc->dest;
 351              		.loc 1 613 0 is_stmt 1 discriminator 3
 352 00c6 314E     		ldr	r6, .L19+4
 353 00c8 A200     		lsls	r2, r4, #2
 354 00ca 1319     		adds	r3, r2, r4
 355 00cc 5900     		lsls	r1, r3, #1
 356 00ce 7118     		adds	r1, r6, r1
 357 00d0 8D8A     		ldrh	r5, [r1, #20]
 358 00d2 C88A     		ldrh	r0, [r1, #22]
 359 00d4 0004     		lsls	r0, r0, #16
 360 00d6 2843     		orrs	r0, r5
 361              	.LVL30:
 614:Generated_Source\PSoC4/cyfitter_cfg.c **** 			const void CYCODE * CYDATA srcPtr = mc->src;
 362              		.loc 1 614 0 discriminator 3
 363 00d8 0A8B     		ldrh	r2, [r1, #24]
 364 00da 498B     		ldrh	r1, [r1, #26]
 365 00dc 0904     		lsls	r1, r1, #16
 366 00de 1143     		orrs	r1, r2
 367              	.LVL31:
 615:Generated_Source\PSoC4/cyfitter_cfg.c **** 			uint16 CYDATA numBytes = mc->size;
 616:Generated_Source\PSoC4/cyfitter_cfg.c **** 			CYCONFIGCPYCODE(destPtr, srcPtr, numBytes);
 368              		.loc 1 616 0 discriminator 3
 369 00e0 8022     		movs	r2, #128
 370 00e2 FFF7FEFF 		bl	CYCONFIGCPYCODE
 371              	.LVL32:
 372              	.LBE5:
 610:Generated_Source\PSoC4/cyfitter_cfg.c **** 		{
 373              		.loc 1 610 0 discriminator 3
 374 00e6 0134     		adds	r4, r4, #1
 375              	.LVL33:
 376 00e8 E4B2     		uxtb	r4, r4
 377              	.LVL34:
 378              	.L17:
 610:Generated_Source\PSoC4/cyfitter_cfg.c **** 		{
 379              		.loc 1 610 0 is_stmt 0 discriminator 1
 380 00ea 002C     		cmp	r4, #0
ARM GAS  C:\Users\luvsd\AppData\Local\Temp\cc1pDs5h.s 			page 19


 381 00ec EBD0     		beq	.L18
 617:Generated_Source\PSoC4/cyfitter_cfg.c **** 		}
 618:Generated_Source\PSoC4/cyfitter_cfg.c **** 
 619:Generated_Source\PSoC4/cyfitter_cfg.c **** 		cfg_write_bytes32(cy_cfg_addr_table, cy_cfg_data_table);
 382              		.loc 1 619 0 is_stmt 1
 383 00ee 2749     		ldr	r1, .L19+4
 384 00f0 2031     		adds	r1, r1, #32
 385 00f2 2748     		ldr	r0, .L19+8
 386 00f4 0430     		adds	r0, r0, #4
 387 00f6 FFF7FEFF 		bl	cfg_write_bytes32
 388              	.LVL35:
 620:Generated_Source\PSoC4/cyfitter_cfg.c **** 
 621:Generated_Source\PSoC4/cyfitter_cfg.c **** 		/* Perform normal device configuration. Order is not critical for these items. */
 622:Generated_Source\PSoC4/cyfitter_cfg.c **** 		CY_SET_REG16((void *)(CYREG_UDB_BCTL0_DRV), 0x0100u);
 389              		.loc 1 622 0
 390 00fa 8022     		movs	r2, #128
 391 00fc 5200     		lsls	r2, r2, #1
 392 00fe 254B     		ldr	r3, .L19+12
 393 0100 1A80     		strh	r2, [r3]
 623:Generated_Source\PSoC4/cyfitter_cfg.c **** 		CY_SET_REG8((void *)(CYREG_UDB_BCTL0_DRV + 0x2u), 0x01u);
 394              		.loc 1 623 0
 395 0102 0123     		movs	r3, #1
 396 0104 244A     		ldr	r2, .L19+16
 397 0106 1370     		strb	r3, [r2]
 624:Generated_Source\PSoC4/cyfitter_cfg.c **** 
 625:Generated_Source\PSoC4/cyfitter_cfg.c **** 		/* HSIOM Starting address: CYDEV_HSIOM_BASE */
 626:Generated_Source\PSoC4/cyfitter_cfg.c **** 		CY_SET_REG32((void *)(CYREG_HSIOM_PORT_SEL2), 0x00330303u);
 398              		.loc 1 626 0
 399 0108 2449     		ldr	r1, .L19+20
 400 010a 254A     		ldr	r2, .L19+24
 401 010c 1160     		str	r1, [r2]
 627:Generated_Source\PSoC4/cyfitter_cfg.c **** 
 628:Generated_Source\PSoC4/cyfitter_cfg.c **** 		/* FORCED_HSIOM Starting address: CYDEV_HSIOM_PORT_SEL3 */
 629:Generated_Source\PSoC4/cyfitter_cfg.c **** 		CY_SET_REG32((void *)(CYREG_HSIOM_PORT_SEL3), 0x00000000u);
 402              		.loc 1 629 0
 403 010e 0022     		movs	r2, #0
 404 0110 2449     		ldr	r1, .L19+28
 405 0112 0A60     		str	r2, [r1]
 630:Generated_Source\PSoC4/cyfitter_cfg.c **** 
 631:Generated_Source\PSoC4/cyfitter_cfg.c **** 		/* IOPINS0_3 Starting address: CYDEV_GPIO_PRT3_PC */
 632:Generated_Source\PSoC4/cyfitter_cfg.c **** 		CY_SET_REG32((void *)(CYREG_GPIO_PRT3_PC), 0x00000000u);
 406              		.loc 1 632 0
 407 0114 2449     		ldr	r1, .L19+32
 408 0116 0A60     		str	r2, [r1]
 633:Generated_Source\PSoC4/cyfitter_cfg.c **** 
 634:Generated_Source\PSoC4/cyfitter_cfg.c **** 		/* UDB_PA_1 Starting address: CYDEV_UDB_PA1_BASE */
 635:Generated_Source\PSoC4/cyfitter_cfg.c **** 		CY_SET_REG32((void *)(CYDEV_UDB_PA1_BASE), 0x00990000u);
 409              		.loc 1 635 0
 410 0118 9922     		movs	r2, #153
 411 011a 1204     		lsls	r2, r2, #16
 412 011c 2349     		ldr	r1, .L19+36
 413 011e 0A60     		str	r2, [r1]
 636:Generated_Source\PSoC4/cyfitter_cfg.c **** 
 637:Generated_Source\PSoC4/cyfitter_cfg.c **** 		/* UDB_PA_2 Starting address: CYDEV_UDB_PA2_BASE */
 638:Generated_Source\PSoC4/cyfitter_cfg.c **** 		CY_SET_REG32((void *)(CYDEV_UDB_PA2_BASE), 0x00990004u);
 414              		.loc 1 638 0
 415 0120 2348     		ldr	r0, .L19+40
ARM GAS  C:\Users\luvsd\AppData\Local\Temp\cc1pDs5h.s 			page 20


 416 0122 2449     		ldr	r1, .L19+44
 417 0124 0860     		str	r0, [r1]
 639:Generated_Source\PSoC4/cyfitter_cfg.c **** 		CY_SET_REG32((void *)(CYREG_UDB_PA2_CFG4), 0x00080000u);
 418              		.loc 1 639 0
 419 0126 8020     		movs	r0, #128
 420 0128 0003     		lsls	r0, r0, #12
 421 012a 2349     		ldr	r1, .L19+48
 422 012c 0860     		str	r0, [r1]
 640:Generated_Source\PSoC4/cyfitter_cfg.c **** 		CY_SET_REG32((void *)(CYREG_UDB_PA2_CFG8), 0x07470000u);
 423              		.loc 1 640 0
 424 012e 2348     		ldr	r0, .L19+52
 425 0130 2349     		ldr	r1, .L19+56
 426 0132 0860     		str	r0, [r1]
 641:Generated_Source\PSoC4/cyfitter_cfg.c **** 
 642:Generated_Source\PSoC4/cyfitter_cfg.c **** 		/* UDB_PA_4 Starting address: CYDEV_UDB_PA4_BASE */
 643:Generated_Source\PSoC4/cyfitter_cfg.c **** 		CY_SET_REG32((void *)(CYDEV_UDB_PA4_BASE), 0x00990000u);
 427              		.loc 1 643 0
 428 0134 2349     		ldr	r1, .L19+60
 429 0136 0A60     		str	r2, [r1]
 644:Generated_Source\PSoC4/cyfitter_cfg.c **** 
 645:Generated_Source\PSoC4/cyfitter_cfg.c **** 		/* INT_SELECT Starting address: CYDEV_CPUSS_INT_SEL */
 646:Generated_Source\PSoC4/cyfitter_cfg.c **** 		CY_SET_REG32((void *)(CYREG_CPUSS_INT_SEL), 0x00000001u);
 430              		.loc 1 646 0
 431 0138 234A     		ldr	r2, .L19+64
 432 013a 1360     		str	r3, [r2]
 647:Generated_Source\PSoC4/cyfitter_cfg.c **** 
 648:Generated_Source\PSoC4/cyfitter_cfg.c **** 		/* Enable UDB array and digital routing */
 649:Generated_Source\PSoC4/cyfitter_cfg.c **** 		CY_SET_XTND_REG8((void *)CYREG_UDB_UDB_WAIT_CFG, (uint8)((CY_GET_XTND_REG8((void *)CYREG_UDB_UDB_
 433              		.loc 1 649 0
 434 013c 2349     		ldr	r1, .L19+68
 435 013e 0B78     		ldrb	r3, [r1]
 436 0140 3C22     		movs	r2, #60
 437 0142 9343     		bics	r3, r2
 438 0144 1422     		movs	r2, #20
 439 0146 1343     		orrs	r3, r2
 440 0148 DBB2     		uxtb	r3, r3
 441 014a 0B70     		strb	r3, [r1]
 650:Generated_Source\PSoC4/cyfitter_cfg.c **** 		CY_SET_XTND_REG8((void *)CYREG_UDB_UDB_BANK_CTL, (uint8)(CY_GET_XTND_REG8((void *)CYREG_UDB_UDB_B
 442              		.loc 1 650 0
 443 014c 204A     		ldr	r2, .L19+72
 444 014e 1178     		ldrb	r1, [r2]
 445 0150 1623     		movs	r3, #22
 446 0152 0B43     		orrs	r3, r1
 447 0154 DBB2     		uxtb	r3, r3
 448 0156 1370     		strb	r3, [r2]
 449              	.LBE3:
 651:Generated_Source\PSoC4/cyfitter_cfg.c **** 	}
 652:Generated_Source\PSoC4/cyfitter_cfg.c **** 
 653:Generated_Source\PSoC4/cyfitter_cfg.c **** 	/* Perform second pass device configuration. These items must be configured in specific order afte
 654:Generated_Source\PSoC4/cyfitter_cfg.c **** 	/* IOPINS0_0 Starting address: CYDEV_GPIO_PRT0_BASE */
 655:Generated_Source\PSoC4/cyfitter_cfg.c **** 	CY_SET_REG32((void *)(CYREG_GPIO_PRT0_PC), 0x00000030u);
 450              		.loc 1 655 0
 451 0158 3022     		movs	r2, #48
 452 015a 1E4B     		ldr	r3, .L19+76
 453 015c 1A60     		str	r2, [r3]
 656:Generated_Source\PSoC4/cyfitter_cfg.c **** 
 657:Generated_Source\PSoC4/cyfitter_cfg.c **** 	/* IOPINS0_13 Starting address: CYDEV_GPIO_PRT13_BASE */
ARM GAS  C:\Users\luvsd\AppData\Local\Temp\cc1pDs5h.s 			page 21


 658:Generated_Source\PSoC4/cyfitter_cfg.c **** 	CY_SET_REG32((void *)(CYDEV_GPIO_PRT13_BASE), 0x00000003u);
 454              		.loc 1 658 0
 455 015e 2D3A     		subs	r2, r2, #45
 456 0160 1D4B     		ldr	r3, .L19+80
 457 0162 1A60     		str	r2, [r3]
 659:Generated_Source\PSoC4/cyfitter_cfg.c **** 	CY_SET_REG32((void *)(CYREG_GPIO_PRT13_INTR_CFG), 0x00000002u);
 458              		.loc 1 659 0
 459 0164 013A     		subs	r2, r2, #1
 460 0166 1D4B     		ldr	r3, .L19+84
 461 0168 1A60     		str	r2, [r3]
 660:Generated_Source\PSoC4/cyfitter_cfg.c **** 
 661:Generated_Source\PSoC4/cyfitter_cfg.c **** 	/* IOPINS0_1 Starting address: CYDEV_GPIO_PRT1_BASE */
 662:Generated_Source\PSoC4/cyfitter_cfg.c **** 	CY_SET_REG32((void *)(CYREG_GPIO_PRT1_PC), 0x00180000u);
 462              		.loc 1 662 0
 463 016a C022     		movs	r2, #192
 464 016c 5203     		lsls	r2, r2, #13
 465 016e 1C4B     		ldr	r3, .L19+88
 466 0170 1A60     		str	r2, [r3]
 663:Generated_Source\PSoC4/cyfitter_cfg.c **** 
 664:Generated_Source\PSoC4/cyfitter_cfg.c **** 	/* IOPINS0_2 Starting address: CYDEV_GPIO_PRT2_BASE */
 665:Generated_Source\PSoC4/cyfitter_cfg.c **** 	CY_SET_REG32((void *)(CYDEV_GPIO_PRT2_BASE), 0x00000077u);
 467              		.loc 1 665 0
 468 0172 7722     		movs	r2, #119
 469 0174 1B4B     		ldr	r3, .L19+92
 470 0176 1A60     		str	r2, [r3]
 666:Generated_Source\PSoC4/cyfitter_cfg.c **** 	CY_SET_REG32((void *)(CYREG_GPIO_PRT2_PC), 0x001B618Eu);
 471              		.loc 1 666 0
 472 0178 1B4A     		ldr	r2, .L19+96
 473 017a 1C4B     		ldr	r3, .L19+100
 474 017c 1A60     		str	r2, [r3]
 667:Generated_Source\PSoC4/cyfitter_cfg.c **** 
 668:Generated_Source\PSoC4/cyfitter_cfg.c **** 
 669:Generated_Source\PSoC4/cyfitter_cfg.c **** 	/* Setup clocks based on selections from Clock DWR */
 670:Generated_Source\PSoC4/cyfitter_cfg.c **** 	ClockSetup();
 475              		.loc 1 670 0
 476 017e FFF73FFF 		bl	ClockSetup
 477              	.LVL36:
 671:Generated_Source\PSoC4/cyfitter_cfg.c **** 
 672:Generated_Source\PSoC4/cyfitter_cfg.c **** 	/* Perform basic analog initialization to defaults */
 673:Generated_Source\PSoC4/cyfitter_cfg.c **** 	AnalogSetDefault();
 478              		.loc 1 673 0
 479 0182 FFF7FEFF 		bl	AnalogSetDefault
 480              	.LVL37:
 674:Generated_Source\PSoC4/cyfitter_cfg.c **** 
 675:Generated_Source\PSoC4/cyfitter_cfg.c **** }
 481              		.loc 1 675 0
 482              		@ sp needed
 483              	.LVL38:
 484 0186 70BD     		pop	{r4, r5, r6, pc}
 485              	.L20:
 486              		.align	2
 487              	.L19:
 488 0188 1C700F40 		.word	1074753564
 489 018c 00000000 		.word	.LANCHOR0
 490 0190 00020000 		.word	.LANCHOR1
 491 0194 00600F40 		.word	1074749440
 492 0198 02600F40 		.word	1074749442
ARM GAS  C:\Users\luvsd\AppData\Local\Temp\cc1pDs5h.s 			page 22


 493 019c 03033300 		.word	3343107
 494 01a0 00020240 		.word	1073873408
 495 01a4 00030240 		.word	1073873664
 496 01a8 08030440 		.word	1074004744
 497 01ac 10500F40 		.word	1074745360
 498 01b0 04009900 		.word	10027012
 499 01b4 20500F40 		.word	1074745376
 500 01b8 24500F40 		.word	1074745380
 501 01bc 00004707 		.word	122093568
 502 01c0 28500F40 		.word	1074745384
 503 01c4 40500F40 		.word	1074745408
 504 01c8 20001040 		.word	1074790432
 505 01cc 01700F40 		.word	1074753537
 506 01d0 00700F40 		.word	1074753536
 507 01d4 08000440 		.word	1074003976
 508 01d8 000D0440 		.word	1074007296
 509 01dc 0C0D0440 		.word	1074007308
 510 01e0 08010440 		.word	1074004232
 511 01e4 00020440 		.word	1074004480
 512 01e8 8E611B00 		.word	1794446
 513 01ec 08020440 		.word	1074004488
 514              		.cfi_endproc
 515              	.LFE7:
 516              		.size	cyfitter_cfg, .-cyfitter_cfg
 517              		.section	.rodata
 518              		.align	2
 519              		.set	.LANCHOR0,. + 0
 520              		.set	.LANCHOR1,. + 512
 521              		.type	cfg_memset_list.4976, %object
 522              		.size	cfg_memset_list.4976, 18
 523              	cfg_memset_list.4976:
 524 0000 00300F40 		.word	1074737152
 525 0004 8004     		.short	1152
 526 0006 00350F40 		.4byte	1074738432
 527 000a 0003     		.short	768
 528 000c 00400F40 		.word	1074741248
 529 0010 0008     		.short	2048
 530 0012 0000     		.space	2
 531              		.type	cfg_memcpy_list.4978, %object
 532              		.size	cfg_memcpy_list.4978, 10
 533              	cfg_memcpy_list.4978:
 534 0014 80340F40 		.word	1074738304
 535 0018 30020000 		.word	BS_UDB_0_1_1_CONFIG_VAL.4977
 536 001c 8000     		.short	128
 537 001e 0000     		.space	2
 538              		.type	cy_cfg_data_table.4966, %object
 539              		.size	cy_cfg_data_table.4966, 484
 540              	cy_cfg_data_table.4966:
 541 0020 85       		.byte	-123
 542 0021 0F       		.byte	15
 543 0022 04       		.byte	4
 544 0023 02       		.byte	2
 545 0024 06       		.byte	6
 546 0025 08       		.byte	8
 547 0026 08       		.byte	8
 548 0027 02       		.byte	2
 549 0028 0A       		.byte	10
ARM GAS  C:\Users\luvsd\AppData\Local\Temp\cc1pDs5h.s 			page 23


 550 0029 0D       		.byte	13
 551 002a 0C       		.byte	12
 552 002b 0D       		.byte	13
 553 002c 10       		.byte	16
 554 002d 02       		.byte	2
 555 002e 12       		.byte	18
 556 002f 04       		.byte	4
 557 0030 14       		.byte	20
 558 0031 0D       		.byte	13
 559 0032 20       		.byte	32
 560 0033 0D       		.byte	13
 561 0034 24       		.byte	36
 562 0035 0D       		.byte	13
 563 0036 28       		.byte	40
 564 0037 0D       		.byte	13
 565 0038 2C       		.byte	44
 566 0039 01       		.byte	1
 567 003a 2E       		.byte	46
 568 003b 02       		.byte	2
 569 003c 32       		.byte	50
 570 003d 0F       		.byte	15
 571 003e 3A       		.byte	58
 572 003f 08       		.byte	8
 573 0040 58       		.byte	88
 574 0041 04       		.byte	4
 575 0042 5F       		.byte	95
 576 0043 01       		.byte	1
 577 0044 00       		.byte	0
 578 0045 14       		.byte	20
 579 0046 02       		.byte	2
 580 0047 01       		.byte	1
 581 0048 04       		.byte	4
 582 0049 06       		.byte	6
 583 004a 05       		.byte	5
 584 004b 10       		.byte	16
 585 004c 07       		.byte	7
 586 004d 02       		.byte	2
 587 004e 09       		.byte	9
 588 004f 06       		.byte	6
 589 0050 0C       		.byte	12
 590 0051 22       		.byte	34
 591 0052 0E       		.byte	14
 592 0053 20       		.byte	32
 593 0054 10       		.byte	16
 594 0055 28       		.byte	40
 595 0056 11       		.byte	17
 596 0057 01       		.byte	1
 597 0058 13       		.byte	19
 598 0059 40       		.byte	64
 599 005a 15       		.byte	21
 600 005b 11       		.byte	17
 601 005c 16       		.byte	22
 602 005d 01       		.byte	1
 603 005e 18       		.byte	24
 604 005f 10       		.byte	16
 605 0060 1D       		.byte	29
 606 0061 10       		.byte	16
ARM GAS  C:\Users\luvsd\AppData\Local\Temp\cc1pDs5h.s 			page 24


 607 0062 1E       		.byte	30
 608 0063 20       		.byte	32
 609 0064 1F       		.byte	31
 610 0065 08       		.byte	8
 611 0066 27       		.byte	39
 612 0067 08       		.byte	8
 613 0068 2C       		.byte	44
 614 0069 A0       		.byte	-96
 615 006a 2D       		.byte	45
 616 006b 90       		.byte	-112
 617 006c 36       		.byte	54
 618 006d 10       		.byte	16
 619 006e 37       		.byte	55
 620 006f 4A       		.byte	74
 621 0070 3D       		.byte	61
 622 0071 08       		.byte	8
 623 0072 3E       		.byte	62
 624 0073 80       		.byte	-128
 625 0074 3F       		.byte	63
 626 0075 20       		.byte	32
 627 0076 45       		.byte	69
 628 0077 0A       		.byte	10
 629 0078 47       		.byte	71
 630 0079 22       		.byte	34
 631 007a 4C       		.byte	76
 632 007b 01       		.byte	1
 633 007c 4D       		.byte	77
 634 007d 88       		.byte	-120
 635 007e 4F       		.byte	79
 636 007f 60       		.byte	96
 637 0080 55       		.byte	85
 638 0081 01       		.byte	1
 639 0082 56       		.byte	86
 640 0083 9A       		.byte	-102
 641 0084 65       		.byte	101
 642 0085 10       		.byte	16
 643 0086 6C       		.byte	108
 644 0087 2A       		.byte	42
 645 0088 6D       		.byte	109
 646 0089 11       		.byte	17
 647 008a 6F       		.byte	111
 648 008b 40       		.byte	64
 649 008c 74       		.byte	116
 650 008d 80       		.byte	-128
 651 008e 76       		.byte	118
 652 008f 01       		.byte	1
 653 0090 86       		.byte	-122
 654 0091 80       		.byte	-128
 655 0092 8C       		.byte	-116
 656 0093 02       		.byte	2
 657 0094 8D       		.byte	-115
 658 0095 04       		.byte	4
 659 0096 C0       		.byte	-64
 660 0097 F7       		.byte	-9
 661 0098 C2       		.byte	-62
 662 0099 7C       		.byte	124
 663 009a C4       		.byte	-60
ARM GAS  C:\Users\luvsd\AppData\Local\Temp\cc1pDs5h.s 			page 25


 664 009b DF       		.byte	-33
 665 009c CA       		.byte	-54
 666 009d F0       		.byte	-16
 667 009e CC       		.byte	-52
 668 009f F0       		.byte	-16
 669 00a0 CE       		.byte	-50
 670 00a1 70       		.byte	112
 671 00a2 D0       		.byte	-48
 672 00a3 E0       		.byte	-32
 673 00a4 D2       		.byte	-46
 674 00a5 30       		.byte	48
 675 00a6 D8       		.byte	-40
 676 00a7 20       		.byte	32
 677 00a8 00       		.byte	0
 678 00a9 1A       		.byte	26
 679 00aa 04       		.byte	4
 680 00ab 18       		.byte	24
 681 00ac 06       		.byte	6
 682 00ad 02       		.byte	2
 683 00ae 09       		.byte	9
 684 00af 08       		.byte	8
 685 00b0 0A       		.byte	10
 686 00b1 10       		.byte	16
 687 00b2 0B       		.byte	11
 688 00b3 33       		.byte	51
 689 00b4 0C       		.byte	12
 690 00b5 01       		.byte	1
 691 00b6 0D       		.byte	13
 692 00b7 25       		.byte	37
 693 00b8 0E       		.byte	14
 694 00b9 08       		.byte	8
 695 00ba 0F       		.byte	15
 696 00bb 08       		.byte	8
 697 00bc 10       		.byte	16
 698 00bd 08       		.byte	8
 699 00be 12       		.byte	18
 700 00bf 12       		.byte	18
 701 00c0 14       		.byte	20
 702 00c1 12       		.byte	18
 703 00c2 16       		.byte	22
 704 00c3 08       		.byte	8
 705 00c4 18       		.byte	24
 706 00c5 0C       		.byte	12
 707 00c6 19       		.byte	25
 708 00c7 1C       		.byte	28
 709 00c8 1A       		.byte	26
 710 00c9 03       		.byte	3
 711 00ca 1C       		.byte	28
 712 00cb 03       		.byte	3
 713 00cc 1E       		.byte	30
 714 00cd 04       		.byte	4
 715 00ce 1F       		.byte	31
 716 00cf 02       		.byte	2
 717 00d0 20       		.byte	32
 718 00d1 1A       		.byte	26
 719 00d2 24       		.byte	36
 720 00d3 08       		.byte	8
ARM GAS  C:\Users\luvsd\AppData\Local\Temp\cc1pDs5h.s 			page 26


 721 00d4 2C       		.byte	44
 722 00d5 02       		.byte	2
 723 00d6 2D       		.byte	45
 724 00d7 28       		.byte	40
 725 00d8 2F       		.byte	47
 726 00d9 17       		.byte	23
 727 00da 30       		.byte	48
 728 00db 0F       		.byte	15
 729 00dc 34       		.byte	52
 730 00dd 10       		.byte	16
 731 00de 35       		.byte	53
 732 00df 3C       		.byte	60
 733 00e0 37       		.byte	55
 734 00e1 03       		.byte	3
 735 00e2 39       		.byte	57
 736 00e3 20       		.byte	32
 737 00e4 3A       		.byte	58
 738 00e5 02       		.byte	2
 739 00e6 3E       		.byte	62
 740 00e7 10       		.byte	16
 741 00e8 54       		.byte	84
 742 00e9 40       		.byte	64
 743 00ea 58       		.byte	88
 744 00eb 04       		.byte	4
 745 00ec 59       		.byte	89
 746 00ed 04       		.byte	4
 747 00ee 5B       		.byte	91
 748 00ef 04       		.byte	4
 749 00f0 5F       		.byte	95
 750 00f1 01       		.byte	1
 751 00f2 81       		.byte	-127
 752 00f3 04       		.byte	4
 753 00f4 84       		.byte	-124
 754 00f5 04       		.byte	4
 755 00f6 86       		.byte	-122
 756 00f7 08       		.byte	8
 757 00f8 8D       		.byte	-115
 758 00f9 17       		.byte	23
 759 00fa 90       		.byte	-112
 760 00fb 0E       		.byte	14
 761 00fc 91       		.byte	-111
 762 00fd 02       		.byte	2
 763 00fe 92       		.byte	-110
 764 00ff 01       		.byte	1
 765 0100 93       		.byte	-109
 766 0101 0C       		.byte	12
 767 0102 95       		.byte	-107
 768 0103 0C       		.byte	12
 769 0104 97       		.byte	-105
 770 0105 02       		.byte	2
 771 0106 99       		.byte	-103
 772 0107 0A       		.byte	10
 773 0108 9B       		.byte	-101
 774 0109 04       		.byte	4
 775 010a 9D       		.byte	-99
 776 010b 0E       		.byte	14
 777 010c A0       		.byte	-96
ARM GAS  C:\Users\luvsd\AppData\Local\Temp\cc1pDs5h.s 			page 27


 778 010d 04       		.byte	4
 779 010e A1       		.byte	-95
 780 010f 0E       		.byte	14
 781 0110 A5       		.byte	-91
 782 0111 12       		.byte	18
 783 0112 A7       		.byte	-89
 784 0113 05       		.byte	5
 785 0114 A9       		.byte	-87
 786 0115 02       		.byte	2
 787 0116 AC       		.byte	-84
 788 0117 01       		.byte	1
 789 0118 AD       		.byte	-83
 790 0119 11       		.byte	17
 791 011a AE       		.byte	-82
 792 011b 0A       		.byte	10
 793 011c AF       		.byte	-81
 794 011d 02       		.byte	2
 795 011e B0       		.byte	-80
 796 011f 08       		.byte	8
 797 0120 B1       		.byte	-79
 798 0121 07       		.byte	7
 799 0122 B3       		.byte	-77
 800 0123 08       		.byte	8
 801 0124 B4       		.byte	-76
 802 0125 07       		.byte	7
 803 0126 B7       		.byte	-73
 804 0127 10       		.byte	16
 805 0128 BA       		.byte	-70
 806 0129 20       		.byte	32
 807 012a BE       		.byte	-66
 808 012b 01       		.byte	1
 809 012c BF       		.byte	-65
 810 012d 44       		.byte	68
 811 012e D4       		.byte	-44
 812 012f 09       		.byte	9
 813 0130 D8       		.byte	-40
 814 0131 04       		.byte	4
 815 0132 D9       		.byte	-39
 816 0133 04       		.byte	4
 817 0134 DB       		.byte	-37
 818 0135 04       		.byte	4
 819 0136 DF       		.byte	-33
 820 0137 01       		.byte	1
 821 0138 00       		.byte	0
 822 0139 04       		.byte	4
 823 013a 04       		.byte	4
 824 013b 40       		.byte	64
 825 013c 05       		.byte	5
 826 013d 10       		.byte	16
 827 013e 06       		.byte	6
 828 013f 08       		.byte	8
 829 0140 07       		.byte	7
 830 0141 50       		.byte	80
 831 0142 09       		.byte	9
 832 0143 02       		.byte	2
 833 0144 0C       		.byte	12
 834 0145 0A       		.byte	10
ARM GAS  C:\Users\luvsd\AppData\Local\Temp\cc1pDs5h.s 			page 28


 835 0146 0D       		.byte	13
 836 0147 40       		.byte	64
 837 0148 0E       		.byte	14
 838 0149 04       		.byte	4
 839 014a 11       		.byte	17
 840 014b 02       		.byte	2
 841 014c 13       		.byte	19
 842 014d 40       		.byte	64
 843 014e 14       		.byte	20
 844 014f 80       		.byte	-128
 845 0150 16       		.byte	22
 846 0151 22       		.byte	34
 847 0152 18       		.byte	24
 848 0153 04       		.byte	4
 849 0154 1A       		.byte	26
 850 0155 84       		.byte	-124
 851 0156 1B       		.byte	27
 852 0157 10       		.byte	16
 853 0158 1C       		.byte	28
 854 0159 40       		.byte	64
 855 015a 1D       		.byte	29
 856 015b 02       		.byte	2
 857 015c 1F       		.byte	31
 858 015d 12       		.byte	18
 859 015e 21       		.byte	33
 860 015f 08       		.byte	8
 861 0160 23       		.byte	35
 862 0161 41       		.byte	65
 863 0162 26       		.byte	38
 864 0163 A0       		.byte	-96
 865 0164 28       		.byte	40
 866 0165 80       		.byte	-128
 867 0166 2A       		.byte	42
 868 0167 21       		.byte	33
 869 0168 2B       		.byte	43
 870 0169 1A       		.byte	26
 871 016a 2F       		.byte	47
 872 016b 02       		.byte	2
 873 016c 30       		.byte	48
 874 016d 2A       		.byte	42
 875 016e 33       		.byte	51
 876 016f 50       		.byte	80
 877 0170 36       		.byte	54
 878 0171 A0       		.byte	-96
 879 0172 39       		.byte	57
 880 0173 80       		.byte	-128
 881 0174 3A       		.byte	58
 882 0175 02       		.byte	2
 883 0176 3B       		.byte	59
 884 0177 40       		.byte	64
 885 0178 3F       		.byte	63
 886 0179 60       		.byte	96
 887 017a 58       		.byte	88
 888 017b 21       		.byte	33
 889 017c 59       		.byte	89
 890 017d 08       		.byte	8
 891 017e 5A       		.byte	90
ARM GAS  C:\Users\luvsd\AppData\Local\Temp\cc1pDs5h.s 			page 29


 892 017f 80       		.byte	-128
 893 0180 63       		.byte	99
 894 0181 01       		.byte	1
 895 0182 66       		.byte	102
 896 0183 10       		.byte	16
 897 0184 67       		.byte	103
 898 0185 22       		.byte	34
 899 0186 6C       		.byte	108
 900 0187 01       		.byte	1
 901 0188 80       		.byte	-128
 902 0189 01       		.byte	1
 903 018a 84       		.byte	-124
 904 018b 20       		.byte	32
 905 018c 86       		.byte	-122
 906 018d 02       		.byte	2
 907 018e 88       		.byte	-120
 908 018f 01       		.byte	1
 909 0190 89       		.byte	-119
 910 0191 08       		.byte	8
 911 0192 8D       		.byte	-115
 912 0193 10       		.byte	16
 913 0194 8E       		.byte	-114
 914 0195 20       		.byte	32
 915 0196 8F       		.byte	-113
 916 0197 01       		.byte	1
 917 0198 94       		.byte	-108
 918 0199 04       		.byte	4
 919 019a 97       		.byte	-105
 920 019b 40       		.byte	64
 921 019c 99       		.byte	-103
 922 019d 08       		.byte	8
 923 019e 9A       		.byte	-102
 924 019f 1B       		.byte	27
 925 01a0 9B       		.byte	-101
 926 01a1 40       		.byte	64
 927 01a2 A0       		.byte	-96
 928 01a3 2A       		.byte	42
 929 01a4 A1       		.byte	-95
 930 01a5 01       		.byte	1
 931 01a6 A3       		.byte	-93
 932 01a7 08       		.byte	8
 933 01a8 A5       		.byte	-91
 934 01a9 0A       		.byte	10
 935 01aa A6       		.byte	-90
 936 01ab 80       		.byte	-128
 937 01ac A7       		.byte	-89
 938 01ad 10       		.byte	16
 939 01ae AB       		.byte	-85
 940 01af 08       		.byte	8
 941 01b0 AF       		.byte	-81
 942 01b1 20       		.byte	32
 943 01b2 C0       		.byte	-64
 944 01b3 F4       		.byte	-12
 945 01b4 C2       		.byte	-62
 946 01b5 F8       		.byte	-8
 947 01b6 C4       		.byte	-60
 948 01b7 B9       		.byte	-71
ARM GAS  C:\Users\luvsd\AppData\Local\Temp\cc1pDs5h.s 			page 30


 949 01b8 CA       		.byte	-54
 950 01b9 1F       		.byte	31
 951 01ba CC       		.byte	-52
 952 01bb 3F       		.byte	63
 953 01bc CE       		.byte	-50
 954 01bd 39       		.byte	57
 955 01be D6       		.byte	-42
 956 01bf 0F       		.byte	15
 957 01c0 D8       		.byte	-40
 958 01c1 78       		.byte	120
 959 01c2 E2       		.byte	-30
 960 01c3 90       		.byte	-112
 961 01c4 68       		.byte	104
 962 01c5 01       		.byte	1
 963 01c6 DA       		.byte	-38
 964 01c7 40       		.byte	64
 965 01c8 A4       		.byte	-92
 966 01c9 01       		.byte	1
 967 01ca 07       		.byte	7
 968 01cb 80       		.byte	-128
 969 01cc 53       		.byte	83
 970 01cd 04       		.byte	4
 971 01ce 57       		.byte	87
 972 01cf 02       		.byte	2
 973 01d0 66       		.byte	102
 974 01d1 08       		.byte	8
 975 01d2 67       		.byte	103
 976 01d3 02       		.byte	2
 977 01d4 87       		.byte	-121
 978 01d5 04       		.byte	4
 979 01d6 A4       		.byte	-92
 980 01d7 01       		.byte	1
 981 01d8 C0       		.byte	-64
 982 01d9 20       		.byte	32
 983 01da D4       		.byte	-44
 984 01db 20       		.byte	32
 985 01dc D6       		.byte	-42
 986 01dd A0       		.byte	-96
 987 01de D8       		.byte	-40
 988 01df 80       		.byte	-128
 989 01e0 E6       		.byte	-26
 990 01e1 10       		.byte	16
 991 01e2 83       		.byte	-125
 992 01e3 01       		.byte	1
 993 01e4 88       		.byte	-120
 994 01e5 01       		.byte	1
 995 01e6 8E       		.byte	-114
 996 01e7 08       		.byte	8
 997 01e8 97       		.byte	-105
 998 01e9 02       		.byte	2
 999 01ea 9E       		.byte	-98
 1000 01eb 08       		.byte	8
 1001 01ec A4       		.byte	-92
 1002 01ed 01       		.byte	1
 1003 01ee AB       		.byte	-85
 1004 01ef 02       		.byte	2
 1005 01f0 AF       		.byte	-81
ARM GAS  C:\Users\luvsd\AppData\Local\Temp\cc1pDs5h.s 			page 31


 1006 01f1 80       		.byte	-128
 1007 01f2 E6       		.byte	-26
 1008 01f3 20       		.byte	32
 1009 01f4 E8       		.byte	-24
 1010 01f5 40       		.byte	64
 1011 01f6 EA       		.byte	-22
 1012 01f7 20       		.byte	32
 1013 01f8 2D       		.byte	45
 1014 01f9 08       		.byte	8
 1015 01fa 89       		.byte	-119
 1016 01fb 08       		.byte	8
 1017 01fc CA       		.byte	-54
 1018 01fd 01       		.byte	1
 1019 01fe E2       		.byte	-30
 1020 01ff 01       		.byte	1
 1021 0200 12       		.byte	18
 1022 0201 01       		.byte	1
 1023 0202 13       		.byte	19
 1024 0203 01       		.byte	1
 1025              		.type	cy_cfg_addr_table.4965, %object
 1026              		.size	cy_cfg_addr_table.4965, 44
 1027              	cy_cfg_addr_table.4965:
 1028 0204 01000F40 		.word	1074724865
 1029 0208 11340F40 		.word	1074738193
 1030 020c 32350F40 		.word	1074738482
 1031 0210 48360F40 		.word	1074738760
 1032 0214 46370F40 		.word	1074739014
 1033 0218 02400F40 		.word	1074741250
 1034 021c 01410F40 		.word	1074741505
 1035 0220 0C420F40 		.word	1074741772
 1036 0224 0B430F40 		.word	1074742027
 1037 0228 04470F40 		.word	1074743044
 1038 022c 02600F40 		.word	1074749442
 1039              		.type	BS_UDB_0_1_1_CONFIG_VAL.4977, %object
 1040              		.size	BS_UDB_0_1_1_CONFIG_VAL.4977, 128
 1041              	BS_UDB_0_1_1_CONFIG_VAL.4977:
 1042 0230 03       		.byte	3
 1043 0231 00       		.byte	0
 1044 0232 3C       		.byte	60
 1045 0233 00       		.byte	0
 1046 0234 79       		.byte	121
 1047 0235 04       		.byte	4
 1048 0236 06       		.byte	6
 1049 0237 00       		.byte	0
 1050 0238 02       		.byte	2
 1051 0239 56       		.byte	86
 1052 023a 0D       		.byte	13
 1053 023b 09       		.byte	9
 1054 023c 15       		.byte	21
 1055 023d 60       		.byte	96
 1056 023e 6A       		.byte	106
 1057 023f 00       		.byte	0
 1058 0240 40       		.byte	64
 1059 0241 0A       		.byte	10
 1060 0242 00       		.byte	0
 1061 0243 10       		.byte	16
 1062 0244 10       		.byte	16
ARM GAS  C:\Users\luvsd\AppData\Local\Temp\cc1pDs5h.s 			page 32


 1063 0245 01       		.byte	1
 1064 0246 60       		.byte	96
 1065 0247 00       		.byte	0
 1066 0248 40       		.byte	64
 1067 0249 04       		.byte	4
 1068 024a 00       		.byte	0
 1069 024b 00       		.byte	0
 1070 024c 00       		.byte	0
 1071 024d 04       		.byte	4
 1072 024e 00       		.byte	0
 1073 024f 00       		.byte	0
 1074 0250 40       		.byte	64
 1075 0251 04       		.byte	4
 1076 0252 00       		.byte	0
 1077 0253 00       		.byte	0
 1078 0254 00       		.byte	0
 1079 0255 04       		.byte	4
 1080 0256 00       		.byte	0
 1081 0257 00       		.byte	0
 1082 0258 00       		.byte	0
 1083 0259 00       		.byte	0
 1084 025a 40       		.byte	64
 1085 025b 04       		.byte	4
 1086 025c 40       		.byte	64
 1087 025d 07       		.byte	7
 1088 025e 00       		.byte	0
 1089 025f 38       		.byte	56
 1090 0260 00       		.byte	0
 1091 0261 00       		.byte	0
 1092 0262 70       		.byte	112
 1093 0263 00       		.byte	0
 1094 0264 0F       		.byte	15
 1095 0265 7F       		.byte	127
 1096 0266 00       		.byte	0
 1097 0267 00       		.byte	0
 1098 0268 00       		.byte	0
 1099 0269 20       		.byte	32
 1100 026a 28       		.byte	40
 1101 026b 00       		.byte	0
 1102 026c 00       		.byte	0
 1103 026d 00       		.byte	0
 1104 026e 00       		.byte	0
 1105 026f 00       		.byte	0
 1106 0270 46       		.byte	70
 1107 0271 05       		.byte	5
 1108 0272 30       		.byte	48
 1109 0273 00       		.byte	0
 1110 0274 02       		.byte	2
 1111 0275 0E       		.byte	14
 1112 0276 FB       		.byte	-5
 1113 0277 CD       		.byte	-51
 1114 0278 3D       		.byte	61
 1115 0279 FF       		.byte	-1
 1116 027a FF       		.byte	-1
 1117 027b FF       		.byte	-1
 1118 027c 22       		.byte	34
 1119 027d 00       		.byte	0
ARM GAS  C:\Users\luvsd\AppData\Local\Temp\cc1pDs5h.s 			page 33


 1120 027e F0       		.byte	-16
 1121 027f 08       		.byte	8
 1122 0280 04       		.byte	4
 1123 0281 00       		.byte	0
 1124 0282 00       		.byte	0
 1125 0283 00       		.byte	0
 1126 0284 00       		.byte	0
 1127 0285 00       		.byte	0
 1128 0286 02       		.byte	2
 1129 0287 24       		.byte	36
 1130 0288 04       		.byte	4
 1131 0289 04       		.byte	4
 1132 028a 04       		.byte	4
 1133 028b 04       		.byte	4
 1134 028c 00       		.byte	0
 1135 028d 00       		.byte	0
 1136 028e 00       		.byte	0
 1137 028f 01       		.byte	1
 1138 0290 00       		.byte	0
 1139 0291 00       		.byte	0
 1140 0292 C0       		.byte	-64
 1141 0293 00       		.byte	0
 1142 0294 40       		.byte	64
 1143 0295 01       		.byte	1
 1144 0296 10       		.byte	16
 1145 0297 11       		.byte	17
 1146 0298 C0       		.byte	-64
 1147 0299 01       		.byte	1
 1148 029a 00       		.byte	0
 1149 029b 11       		.byte	17
 1150 029c 40       		.byte	64
 1151 029d 01       		.byte	1
 1152 029e 40       		.byte	64
 1153 029f 01       		.byte	1
 1154 02a0 00       		.byte	0
 1155 02a1 00       		.byte	0
 1156 02a2 00       		.byte	0
 1157 02a3 00       		.byte	0
 1158 02a4 00       		.byte	0
 1159 02a5 00       		.byte	0
 1160 02a6 00       		.byte	0
 1161 02a7 00       		.byte	0
 1162 02a8 00       		.byte	0
 1163 02a9 00       		.byte	0
 1164 02aa 00       		.byte	0
 1165 02ab 00       		.byte	0
 1166 02ac 00       		.byte	0
 1167 02ad 00       		.byte	0
 1168 02ae 00       		.byte	0
 1169 02af 00       		.byte	0
 1170              		.text
 1171              	.Letext0:
 1172              		.file 2 "c:\\program files (x86)\\cypress\\psoc creator\\4.4\\psoc creator\\import\\gnu\\arm\\5.4.
 1173              		.file 3 "Generated_Source\\PSoC4\\cytypes.h"
 1174              		.file 4 "Generated_Source\\PSoC4\\CyLFClk.h"
 1175              		.file 5 "Generated_Source\\PSoC4\\CyLib.h"