ARM GAS  C:\Users\luvsd\AppData\Local\Temp\ccehdU1h.s 			page 1


   1              		.syntax unified
   2              		.cpu cortex-m0
   3              		.fpu softvfp
   4              		.eabi_attribute 20, 1
   5              		.eabi_attribute 21, 1
   6              		.eabi_attribute 23, 3
   7              		.eabi_attribute 24, 1
   8              		.eabi_attribute 25, 1
   9              		.eabi_attribute 26, 1
  10              		.eabi_attribute 30, 1
  11              		.eabi_attribute 34, 0
  12              		.eabi_attribute 18, 4
  13              		.thumb
  14              		.syntax unified
  15              		.file	"andonApi.c"
  16              		.text
  17              	.Ltext0:
  18              		.cfi_sections	.debug_frame
  19              		.section	.text.andonResponse,"ax",%progbits
  20              		.align	2
  21              		.global	andonResponse
  22              		.code	16
  23              		.thumb_func
  24              		.type	andonResponse, %function
  25              	andonResponse:
  26              	.LFB63:
  27              		.file 1 "andonApi.c"
   1:andonApi.c    **** /* ========================================
   2:andonApi.c    ****  *
   3:andonApi.c    ****  * Copyright Suntech, 2023.02.01
   4:andonApi.c    ****  * All Rights Reserved
   5:andonApi.c    ****  * UNPUBLISHED, LICENSED SOFTWARE.
   6:andonApi.c    ****  *
   7:andonApi.c    ****  * CONFIDENTIAL AND PROPRIETARY INFORMATION
   8:andonApi.c    ****  * WHICH IS THE PROPERTY OF Suntech.
   9:andonApi.c    ****  *
  10:andonApi.c    ****  * ========================================
  11:andonApi.c    **** */
  12:andonApi.c    **** #include "andonApi.h"
  13:andonApi.c    **** #include "andonJson.h"
  14:andonApi.c    **** #include "andonMessageQueue.h"
  15:andonApi.c    **** #include "lib/WIFI.h"
  16:andonApi.c    **** #include "lib/server.h"
  17:andonApi.c    **** #include "lib/utility.h"
  18:andonApi.c    **** #include "userProjectPatternSewing.h"
  19:andonApi.c    **** #include "count.h"
  20:andonApi.c    **** #include "package.h"
  21:andonApi.c    **** #include "lib/sysTick.h"
  22:andonApi.c    **** #include "WarningLight.h"
  23:andonApi.c    **** #include "downtime.h"
  24:andonApi.c    **** #include "defective.h"
  25:andonApi.c    **** 
  26:andonApi.c    **** ANDON_LISTS g_AndonLists;
  27:andonApi.c    **** uint8       g_bDeviceInfoUpdate=FALSE;
  28:andonApi.c    **** uint8       g_uReplyResult=RR_INIT;
  29:andonApi.c    **** static uint16 g_uAndonRequestType = ANDON_NONE;  /* andonApi.c 내부에서만 사용 */
  30:andonApi.c    **** uint8       g_bTargetReceived = FALSE;
ARM GAS  C:\Users\luvsd\AppData\Local\Temp\ccehdU1h.s 			page 2


  31:andonApi.c    **** uint8       g_index_request_interval=0;
  32:andonApi.c    **** uint8       g_bReceivedAndonStart = 0;
  33:andonApi.c    **** 
  34:andonApi.c    **** INFO  g_Info = {
  35:andonApi.c    ****     .nNoOfLineForNotice =0, 
  36:andonApi.c    **** };
  37:andonApi.c    **** 
  38:andonApi.c    **** uint8 andonLoop()
  39:andonApi.c    **** {
  40:andonApi.c    ****     if(!isEmptyQueueANDON())
  41:andonApi.c    ****     {
  42:andonApi.c    ****         ANDON_QUEUE *aq = deQueueANDON();
  43:andonApi.c    ****         
  44:andonApi.c    ****         char url[512];
  45:andonApi.c    ****         snprintf(url, sizeof(url), "%s?code=%s", DEFAULT_API_ENDPOINT, aq->message);
  46:andonApi.c    **** 
  47:andonApi.c    ****         g_uAndonRequestType = aq->type;
  48:andonApi.c    **** 
  49:andonApi.c    ****         wifi_cmd_http(url);
  50:andonApi.c    ****         
  51:andonApi.c    ****         return TRUE;
  52:andonApi.c    ****     }
  53:andonApi.c    ****     
  54:andonApi.c    ****     if(g_bReceivedAndonStart)
  55:andonApi.c    ****     {
  56:andonApi.c    ****         if(isFinishCounter_1ms(g_index_request_interval)) // Wifi Strength 체크를 5sec마다 수
  57:andonApi.c    ****         {
  58:andonApi.c    ****             resetCounter_1ms(g_index_request_interval);
  59:andonApi.c    ****             
  60:andonApi.c    ****             if(g_ptrMachineParameter->andon_enable==TRUE) makeAndonList();             
  61:andonApi.c    ****             
  62:andonApi.c    ****             return TRUE;
  63:andonApi.c    ****         }
  64:andonApi.c    ****         
  65:andonApi.c    ****         WarningLight();
  66:andonApi.c    ****     }
  67:andonApi.c    ****    
  68:andonApi.c    ****     return FALSE;
  69:andonApi.c    **** }
  70:andonApi.c    **** 
  71:andonApi.c    **** 
  72:andonApi.c    **** void andonResponse(char *ptrText, int16 sizeOfText)
  73:andonApi.c    **** {
  28              		.loc 1 73 0
  29              		.cfi_startproc
  30              		@ args = 0, pretend = 0, frame = 0
  31              		@ frame_needed = 0, uses_anonymous_args = 0
  32              	.LVL0:
  33 0000 10B5     		push	{r4, lr}
  34              		.cfi_def_cfa_offset 8
  35              		.cfi_offset 4, -8
  36              		.cfi_offset 14, -4
  37 0002 0300     		movs	r3, r0
  38 0004 0A00     		movs	r2, r1
  74:andonApi.c    ****     andonJsonParsor(g_uAndonRequestType, ptrText, sizeOfText);
  39              		.loc 1 74 0
  40 0006 044C     		ldr	r4, .L2
ARM GAS  C:\Users\luvsd\AppData\Local\Temp\ccehdU1h.s 			page 3


  41 0008 2088     		ldrh	r0, [r4]
  42              	.LVL1:
  43 000a 1900     		movs	r1, r3
  44              	.LVL2:
  45 000c FFF7FEFF 		bl	andonJsonParsor
  46              	.LVL3:
  75:andonApi.c    ****     g_uAndonRequestType = ANDON_NONE;
  47              		.loc 1 75 0
  48 0010 0023     		movs	r3, #0
  49 0012 2380     		strh	r3, [r4]
  76:andonApi.c    **** }
  50              		.loc 1 76 0
  51              		@ sp needed
  52 0014 10BD     		pop	{r4, pc}
  53              	.L3:
  54 0016 C046     		.align	2
  55              	.L2:
  56 0018 00000000 		.word	.LANCHOR0
  57              		.cfi_endproc
  58              	.LFE63:
  59              		.size	andonResponse, .-andonResponse
  60              		.section	.text.makeAndonCurrentTimeRequest,"ax",%progbits
  61              		.align	2
  62              		.global	makeAndonCurrentTimeRequest
  63              		.code	16
  64              		.thumb_func
  65              		.type	makeAndonCurrentTimeRequest, %function
  66              	makeAndonCurrentTimeRequest:
  67              	.LFB64:
  77:andonApi.c    **** 
  78:andonApi.c    **** void makeAndonCurrentTimeRequest()
  79:andonApi.c    **** {
  68              		.loc 1 79 0
  69              		.cfi_startproc
  70              		@ args = 0, pretend = 0, frame = 0
  71              		@ frame_needed = 0, uses_anonymous_args = 0
  72 0000 10B5     		push	{r4, lr}
  73              		.cfi_def_cfa_offset 8
  74              		.cfi_offset 4, -8
  75              		.cfi_offset 14, -4
  80:andonApi.c    ****     /* [BUG FIX] mac 포함 → 서버가 work_date + shift_idx 반환 (교대 기반 AUTO RESET) *
  81:andonApi.c    ****     enQueueANDON_printf(ANDON_CURRENT_TIME,"get_dateTime&mac=%s", g_network.MAC);
  76              		.loc 1 81 0
  77 0002 034A     		ldr	r2, .L5
  78 0004 0349     		ldr	r1, .L5+4
  79 0006 0120     		movs	r0, #1
  80 0008 FFF7FEFF 		bl	enQueueANDON_printf
  81              	.LVL4:
  82:andonApi.c    **** }
  82              		.loc 1 82 0
  83              		@ sp needed
  84 000c 10BD     		pop	{r4, pc}
  85              	.L6:
  86 000e C046     		.align	2
  87              	.L5:
  88 0010 6C000000 		.word	g_network+108
  89 0014 00000000 		.word	.LC2
ARM GAS  C:\Users\luvsd\AppData\Local\Temp\ccehdU1h.s 			page 4


  90              		.cfi_endproc
  91              	.LFE64:
  92              		.size	makeAndonCurrentTimeRequest, .-makeAndonCurrentTimeRequest
  93              		.section	.text.makeAndonStart,"ax",%progbits
  94              		.align	2
  95              		.global	makeAndonStart
  96              		.code	16
  97              		.thumb_func
  98              		.type	makeAndonStart, %function
  99              	makeAndonStart:
 100              	.LFB65:
  83:andonApi.c    **** 
  84:andonApi.c    **** void makeAndonStart()
  85:andonApi.c    **** {
 101              		.loc 1 85 0
 102              		.cfi_startproc
 103              		@ args = 0, pretend = 0, frame = 0
 104              		@ frame_needed = 0, uses_anonymous_args = 0
 105 0000 00B5     		push	{lr}
 106              		.cfi_def_cfa_offset 4
 107              		.cfi_offset 14, -4
 108 0002 83B0     		sub	sp, sp, #12
 109              		.cfi_def_cfa_offset 16
  86:andonApi.c    ****     //enQueueANDON_printf(ANDON_START,"start&mac=%s&name=%s&ip=%s&ver=%s",
  87:andonApi.c    ****     enQueueANDON_printf(ANDON_START,"start&mac=%s&machine_no=%s&ip=%s&ver=%s",
  88:andonApi.c    ****         g_network.MAC,
  89:andonApi.c    ****         g_ptrServer->deviceName,
 110              		.loc 1 89 0
 111 0004 074B     		ldr	r3, .L8
 112 0006 1B68     		ldr	r3, [r3]
 113 0008 7033     		adds	r3, r3, #112
  87:andonApi.c    ****         g_network.MAC,
 114              		.loc 1 87 0
 115 000a 074A     		ldr	r2, .L8+4
 116 000c 0749     		ldr	r1, .L8+8
 117 000e 0191     		str	r1, [sp, #4]
 118 0010 1100     		movs	r1, r2
 119 0012 4039     		subs	r1, r1, #64
 120 0014 0091     		str	r1, [sp]
 121 0016 0649     		ldr	r1, .L8+12
 122 0018 0F20     		movs	r0, #15
 123 001a FFF7FEFF 		bl	enQueueANDON_printf
 124              	.LVL5:
  90:andonApi.c    ****         g_network.IPv4,
  91:andonApi.c    ****         PROJECT_FIRMWARE_VERSION
  92:andonApi.c    ****     ); 
  93:andonApi.c    **** }
 125              		.loc 1 93 0
 126 001e 03B0     		add	sp, sp, #12
 127              		@ sp needed
 128 0020 00BD     		pop	{pc}
 129              	.L9:
 130 0022 C046     		.align	2
 131              	.L8:
 132 0024 00000000 		.word	g_ptrServer
 133 0028 6C000000 		.word	g_network+108
 134 002c 3C000000 		.word	.LC8
ARM GAS  C:\Users\luvsd\AppData\Local\Temp\ccehdU1h.s 			page 5


 135 0030 14000000 		.word	.LC6
 136              		.cfi_endproc
 137              	.LFE65:
 138              		.size	makeAndonStart, .-makeAndonStart
 139              		.section	.text.makeAndonList,"ax",%progbits
 140              		.align	2
 141              		.global	makeAndonList
 142              		.code	16
 143              		.thumb_func
 144              		.type	makeAndonList, %function
 145              	makeAndonList:
 146              	.LFB66:
  94:andonApi.c    **** 
  95:andonApi.c    **** void makeAndonList()
  96:andonApi.c    **** {
 147              		.loc 1 96 0
 148              		.cfi_startproc
 149              		@ args = 0, pretend = 0, frame = 0
 150              		@ frame_needed = 0, uses_anonymous_args = 0
 151 0000 10B5     		push	{r4, lr}
 152              		.cfi_def_cfa_offset 8
 153              		.cfi_offset 4, -8
 154              		.cfi_offset 14, -4
  97:andonApi.c    ****     enQueueANDON_printf(ANDON_REQUEST_LIST,"get_andonList&mac=%s",
 155              		.loc 1 97 0
 156 0002 034A     		ldr	r2, .L11
 157 0004 0349     		ldr	r1, .L11+4
 158 0006 0520     		movs	r0, #5
 159 0008 FFF7FEFF 		bl	enQueueANDON_printf
 160              	.LVL6:
  98:andonApi.c    ****         g_network.MAC
  99:andonApi.c    ****     );   
 100:andonApi.c    **** }
 161              		.loc 1 100 0
 162              		@ sp needed
 163 000c 10BD     		pop	{r4, pc}
 164              	.L12:
 165 000e C046     		.align	2
 166              	.L11:
 167 0010 6C000000 		.word	g_network+108
 168 0014 4C000000 		.word	.LC12
 169              		.cfi_endproc
 170              	.LFE66:
 171              		.size	makeAndonList, .-makeAndonList
 172              		.section	.text.andonLoop,"ax",%progbits
 173              		.align	2
 174              		.global	andonLoop
 175              		.code	16
 176              		.thumb_func
 177              		.type	andonLoop, %function
 178              	andonLoop:
 179              	.LFB62:
  39:andonApi.c    ****     if(!isEmptyQueueANDON())
 180              		.loc 1 39 0
 181              		.cfi_startproc
 182              		@ args = 0, pretend = 0, frame = 512
 183              		@ frame_needed = 0, uses_anonymous_args = 0
ARM GAS  C:\Users\luvsd\AppData\Local\Temp\ccehdU1h.s 			page 6


 184 0000 10B5     		push	{r4, lr}
 185              		.cfi_def_cfa_offset 8
 186              		.cfi_offset 4, -8
 187              		.cfi_offset 14, -4
 188 0002 1D4C     		ldr	r4, .L18
 189 0004 A544     		add	sp, sp, r4
 190              		.cfi_def_cfa_offset 528
  40:andonApi.c    ****     {
 191              		.loc 1 40 0
 192 0006 FFF7FEFF 		bl	isEmptyQueueANDON
 193              	.LVL7:
 194 000a 0028     		cmp	r0, #0
 195 000c 14D1     		bne	.L14
 196              	.LBB2:
  42:andonApi.c    ****         
 197              		.loc 1 42 0
 198 000e FFF7FEFF 		bl	deQueueANDON
 199              	.LVL8:
 200 0012 0400     		movs	r4, r0
 201              	.LVL9:
  45:andonApi.c    **** 
 202              		.loc 1 45 0
 203 0014 0090     		str	r0, [sp]
 204 0016 194B     		ldr	r3, .L18+4
 205 0018 194A     		ldr	r2, .L18+8
 206 001a 8021     		movs	r1, #128
 207 001c 8900     		lsls	r1, r1, #2
 208 001e 02A8     		add	r0, sp, #8
 209              	.LVL10:
 210 0020 FFF7FEFF 		bl	snprintf
 211              	.LVL11:
  47:andonApi.c    **** 
 212              		.loc 1 47 0
 213 0024 8023     		movs	r3, #128
 214 0026 5B00     		lsls	r3, r3, #1
 215 0028 E25A     		ldrh	r2, [r4, r3]
 216 002a 164B     		ldr	r3, .L18+12
 217 002c 1A80     		strh	r2, [r3]
  49:andonApi.c    ****         
 218              		.loc 1 49 0
 219 002e 02A8     		add	r0, sp, #8
 220 0030 FFF7FEFF 		bl	wifi_cmd_http
 221              	.LVL12:
  51:andonApi.c    ****     }
 222              		.loc 1 51 0
 223 0034 0124     		movs	r4, #1
 224              	.LVL13:
 225 0036 19E0     		b	.L15
 226              	.L14:
 227              	.LBE2:
  54:andonApi.c    ****     {
 228              		.loc 1 54 0
 229 0038 124B     		ldr	r3, .L18+12
 230 003a 9C78     		ldrb	r4, [r3, #2]
 231 003c 002C     		cmp	r4, #0
 232 003e 15D0     		beq	.L15
  56:andonApi.c    ****         {
ARM GAS  C:\Users\luvsd\AppData\Local\Temp\ccehdU1h.s 			page 7


 233              		.loc 1 56 0
 234 0040 D878     		ldrb	r0, [r3, #3]
 235 0042 FFF7FEFF 		bl	isFinishCounter_1ms
 236              	.LVL14:
 237 0046 041E     		subs	r4, r0, #0
 238 0048 0CD0     		beq	.L16
  58:andonApi.c    ****             
 239              		.loc 1 58 0
 240 004a 0E4B     		ldr	r3, .L18+12
 241 004c D878     		ldrb	r0, [r3, #3]
 242 004e FFF7FEFF 		bl	resetCounter_1ms
 243              	.LVL15:
  60:andonApi.c    ****             
 244              		.loc 1 60 0
 245 0052 0D4B     		ldr	r3, .L18+16
 246 0054 1B68     		ldr	r3, [r3]
 247 0056 9B8A     		ldrh	r3, [r3, #20]
 248 0058 012B     		cmp	r3, #1
 249 005a 06D1     		bne	.L17
  60:andonApi.c    ****             
 250              		.loc 1 60 0 is_stmt 0 discriminator 1
 251 005c FFF7FEFF 		bl	makeAndonList
 252              	.LVL16:
  62:andonApi.c    ****         }
 253              		.loc 1 62 0 is_stmt 1 discriminator 1
 254 0060 0124     		movs	r4, #1
 255 0062 03E0     		b	.L15
 256              	.L16:
  65:andonApi.c    ****     }
 257              		.loc 1 65 0
 258 0064 FFF7FEFF 		bl	WarningLight
 259              	.LVL17:
 260 0068 00E0     		b	.L15
 261              	.L17:
  62:andonApi.c    ****         }
 262              		.loc 1 62 0
 263 006a 0124     		movs	r4, #1
 264              	.L15:
  69:andonApi.c    **** 
 265              		.loc 1 69 0 discriminator 1
 266 006c 2000     		movs	r0, r4
 267 006e 8223     		movs	r3, #130
 268 0070 9B00     		lsls	r3, r3, #2
 269 0072 9D44     		add	sp, sp, r3
 270              		@ sp needed
 271 0074 10BD     		pop	{r4, pc}
 272              	.L19:
 273 0076 C046     		.align	2
 274              	.L18:
 275 0078 F8FDFFFF 		.word	-520
 276 007c 64000000 		.word	.LC14
 277 0080 74000000 		.word	.LC16
 278 0084 00000000 		.word	.LANCHOR0
 279 0088 00000000 		.word	g_ptrMachineParameter
 280              		.cfi_endproc
 281              	.LFE62:
 282              		.size	andonLoop, .-andonLoop
ARM GAS  C:\Users\luvsd\AppData\Local\Temp\ccehdU1h.s 			page 8


 283              		.section	.text.makeAndonWarningRequest,"ax",%progbits
 284              		.align	2
 285              		.global	makeAndonWarningRequest
 286              		.code	16
 287              		.thumb_func
 288              		.type	makeAndonWarningRequest, %function
 289              	makeAndonWarningRequest:
 290              	.LFB67:
 101:andonApi.c    **** 
 102:andonApi.c    **** void makeAndonWarningRequest(int idx)
 103:andonApi.c    **** {
 291              		.loc 1 103 0
 292              		.cfi_startproc
 293              		@ args = 0, pretend = 0, frame = 0
 294              		@ frame_needed = 0, uses_anonymous_args = 0
 295              	.LVL18:
 296 0000 10B5     		push	{r4, lr}
 297              		.cfi_def_cfa_offset 8
 298              		.cfi_offset 4, -8
 299              		.cfi_offset 14, -4
 300 0002 0300     		movs	r3, r0
 104:andonApi.c    ****     //enQueueANDON_printf(ANDON_REQUEST_ITEM,"send_andon_warning&mac=%s&andon_text_idx=%d",
 105:andonApi.c    ****     enQueueANDON_printf(ANDON_REQUEST_ITEM,"send_andon_warning&mac=%s&andon_idx=%d",
 301              		.loc 1 105 0
 302 0004 024A     		ldr	r2, .L21
 303 0006 0349     		ldr	r1, .L21+4
 304 0008 0420     		movs	r0, #4
 305              	.LVL19:
 306 000a FFF7FEFF 		bl	enQueueANDON_printf
 307              	.LVL20:
 106:andonApi.c    ****         g_network.MAC,
 107:andonApi.c    ****         idx
 108:andonApi.c    ****     );  
 109:andonApi.c    **** }
 308              		.loc 1 109 0
 309              		@ sp needed
 310 000e 10BD     		pop	{r4, pc}
 311              	.L22:
 312              		.align	2
 313              	.L21:
 314 0010 6C000000 		.word	g_network+108
 315 0014 80000000 		.word	.LC21
 316              		.cfi_endproc
 317              	.LFE67:
 318              		.size	makeAndonWarningRequest, .-makeAndonWarningRequest
 319              		.section	.text.makeAndonCompleteRequest,"ax",%progbits
 320              		.align	2
 321              		.global	makeAndonCompleteRequest
 322              		.code	16
 323              		.thumb_func
 324              		.type	makeAndonCompleteRequest, %function
 325              	makeAndonCompleteRequest:
 326              	.LFB68:
 110:andonApi.c    **** 
 111:andonApi.c    **** void makeAndonCompleteRequest(int idx)
 112:andonApi.c    **** {
 327              		.loc 1 112 0
ARM GAS  C:\Users\luvsd\AppData\Local\Temp\ccehdU1h.s 			page 9


 328              		.cfi_startproc
 329              		@ args = 0, pretend = 0, frame = 0
 330              		@ frame_needed = 0, uses_anonymous_args = 0
 331              	.LVL21:
 332 0000 10B5     		push	{r4, lr}
 333              		.cfi_def_cfa_offset 8
 334              		.cfi_offset 4, -8
 335              		.cfi_offset 14, -4
 336 0002 0300     		movs	r3, r0
 113:andonApi.c    ****     //enQueueANDON_printf(ANDON_REQUEST_ITEM,"send_andon_completed&mac=%s&andon_text_idx=%d",
 114:andonApi.c    ****     enQueueANDON_printf(ANDON_REQUEST_ITEM,"send_andon_completed&mac=%s&andon_idx=%d",
 337              		.loc 1 114 0
 338 0004 024A     		ldr	r2, .L24
 339 0006 0349     		ldr	r1, .L24+4
 340 0008 0420     		movs	r0, #4
 341              	.LVL22:
 342 000a FFF7FEFF 		bl	enQueueANDON_printf
 343              	.LVL23:
 115:andonApi.c    ****         g_network.MAC,
 116:andonApi.c    ****         idx);  
 117:andonApi.c    **** }
 344              		.loc 1 117 0
 345              		@ sp needed
 346 000e 10BD     		pop	{r4, pc}
 347              	.L25:
 348              		.align	2
 349              	.L24:
 350 0010 6C000000 		.word	g_network+108
 351 0014 A8000000 		.word	.LC24
 352              		.cfi_endproc
 353              	.LFE68:
 354              		.size	makeAndonCompleteRequest, .-makeAndonCompleteRequest
 355              		.global	__aeabi_ui2d
 356              		.global	__aeabi_ddiv
 357              		.global	__aeabi_i2d
 358              		.section	.text.makeAndonPatternCount,"ax",%progbits
 359              		.align	2
 360              		.global	makeAndonPatternCount
 361              		.code	16
 362              		.thumb_func
 363              		.type	makeAndonPatternCount, %function
 364              	makeAndonPatternCount:
 365              	.LFB69:
 118:andonApi.c    **** 
 119:andonApi.c    **** /* 패턴 New CPU 보드의 Uart 신호. (디바이스 4pin. 1번,2번) */
 120:andonApi.c    **** void makeAndonPatternCount()
 121:andonApi.c    **** {
 366              		.loc 1 121 0
 367              		.cfi_startproc
 368              		@ args = 0, pretend = 0, frame = 0
 369              		@ frame_needed = 0, uses_anonymous_args = 0
 370 0000 70B5     		push	{r4, r5, r6, lr}
 371              		.cfi_def_cfa_offset 16
 372              		.cfi_offset 4, -16
 373              		.cfi_offset 5, -12
 374              		.cfi_offset 6, -8
 375              		.cfi_offset 14, -4
ARM GAS  C:\Users\luvsd\AppData\Local\Temp\ccehdU1h.s 			page 10


 376 0002 86B0     		sub	sp, sp, #24
 377              		.cfi_def_cfa_offset 40
 122:andonApi.c    ****     COUNT *ptrCount = getCount();    
 378              		.loc 1 122 0
 379 0004 FFF7FEFF 		bl	getCount
 380              	.LVL24:
 381 0008 0400     		movs	r4, r0
 382              	.LVL25:
 123:andonApi.c    ****     uint32 pts =   GetWorkingTimeCount();
 383              		.loc 1 123 0
 384 000a FFF7FEFF 		bl	GetWorkingTimeCount
 385              	.LVL26:
 124:andonApi.c    ****     ResetWorkingTimeCount();
 386              		.loc 1 124 0
 387 000e FFF7FEFF 		bl	ResetWorkingTimeCount
 388              	.LVL27:
 125:andonApi.c    **** 
 126:andonApi.c    ****     //enQueueANDON_printf(ANDON_SEND_PATTERN_COUNT,"send_pCount&mac=%s&d_idx=%u&pc=%u&pi=%0.1f&tg=%
 127:andonApi.c    ****     //enQueueANDON_printf(ANDON_SEND_PATTERN_COUNT,"send_pCount&mac=%s&pc=%u&pi=%0.1f&tg=%u&sc=%0.1
 128:andonApi.c    ****     enQueueANDON_printf(ANDON_SEND_PATTERN_COUNT,"send_pCount&mac=%s&pc=%u&pi=%0.1f&sc=%0.1f&design
 129:andonApi.c    ****         g_network.MAC,
 130:andonApi.c    ****         //g_Info.DeviceIdx,
 131:andonApi.c    ****         g_ptrMachineParameter->patternPairCount,                                                   
 389              		.loc 1 131 0
 390 0012 124B     		ldr	r3, .L27
 391 0014 1B68     		ldr	r3, [r3]
 392 0016 9D88     		ldrh	r5, [r3, #4]
 132:andonApi.c    ****         g_ptrMachineParameter->patternPair / 10.,                                                  
 393              		.loc 1 132 0
 394 0018 DE88     		ldrh	r6, [r3, #6]
 133:andonApi.c    ****         //g_ptrMachineParameter->patternTarget,                                                    
 134:andonApi.c    ****         (uint32) CONVERT_TO_4BYTE(ptrCount->patternActualH,ptrCount->patternActualL) / 10.,        
 395              		.loc 1 134 0
 396 001a A08B     		ldrh	r0, [r4, #28]
 397 001c 0004     		lsls	r0, r0, #16
 398 001e E38B     		ldrh	r3, [r4, #30]
 399 0020 1843     		orrs	r0, r3
 135:andonApi.c    ****         ptrCount->patternNo,
 400              		.loc 1 135 0
 401 0022 638C     		ldrh	r3, [r4, #34]
 136:andonApi.c    ****         //ptrCount->patternEmergencyTime,                                                          
 137:andonApi.c    ****         //(uint32) CONVERT_TO_4BYTE(ptrCount->patternEmergencyTimeSumH,ptrCount->patternEmergencyTi
 138:andonApi.c    ****         ptrCount->patternCycleTime                                                                 
 402              		.loc 1 138 0
 403 0024 628D     		ldrh	r2, [r4, #42]
 128:andonApi.c    ****         g_network.MAC,
 404              		.loc 1 128 0
 405 0026 0592     		str	r2, [sp, #20]
 406 0028 0493     		str	r3, [sp, #16]
 407 002a FFF7FEFF 		bl	__aeabi_ui2d
 408              	.LVL28:
 409 002e 0022     		movs	r2, #0
 410 0030 0B4B     		ldr	r3, .L27+4
 411 0032 FFF7FEFF 		bl	__aeabi_ddiv
 412              	.LVL29:
 413 0036 0290     		str	r0, [sp, #8]
 414 0038 0391     		str	r1, [sp, #12]
ARM GAS  C:\Users\luvsd\AppData\Local\Temp\ccehdU1h.s 			page 11


 415 003a 3000     		movs	r0, r6
 416 003c FFF7FEFF 		bl	__aeabi_i2d
 417              	.LVL30:
 418 0040 0022     		movs	r2, #0
 419 0042 074B     		ldr	r3, .L27+4
 420 0044 FFF7FEFF 		bl	__aeabi_ddiv
 421              	.LVL31:
 422 0048 0090     		str	r0, [sp]
 423 004a 0191     		str	r1, [sp, #4]
 424 004c 2B00     		movs	r3, r5
 425 004e 054A     		ldr	r2, .L27+8
 426 0050 0549     		ldr	r1, .L27+12
 427 0052 1120     		movs	r0, #17
 428 0054 FFF7FEFF 		bl	enQueueANDON_printf
 429              	.LVL32:
 139:andonApi.c    ****         //(uint32) CONVERT_TO_4BYTE(ptrCount->patternCycleTimeSumH,ptrCount->patternCycleTimeSumL),
 140:andonApi.c    ****         //ptrCount->patternMotorRunTime,                                                           
 141:andonApi.c    ****         //(uint32) CONVERT_TO_4BYTE(ptrCount->patternMotorRunTimeSumH, ptrCount->patternMotorRunTim
 142:andonApi.c    ****         //ptrCount->patternNoStitch,                                                               
 143:andonApi.c    ****         //(uint32) CONVERT_TO_4BYTE(ptrCount->patternNoStitchSumH, ptrCount->patternNoStitchSumL), 
 144:andonApi.c    ****         //ptrCount->patternStitchLength,                                                           
 145:andonApi.c    ****         //(uint32) CONVERT_TO_4BYTE(ptrCount->patternStitchLengthSumH,ptrCount->patternStitchLength
 146:andonApi.c    ****         //ptrCount->patternTrimCount,                                                              
 147:andonApi.c    ****         //(uint32) CONVERT_TO_4BYTE(ptrCount->patternTrimCountSumH,ptrCount->patternTrimCountSumL),
 148:andonApi.c    ****         //ptrCount->patternSPM,                                                                    
 149:andonApi.c    ****         //pts                                                                                      
 150:andonApi.c    ****         );
 151:andonApi.c    **** }
 430              		.loc 1 151 0
 431 0058 06B0     		add	sp, sp, #24
 432              		@ sp needed
 433              	.LVL33:
 434 005a 70BD     		pop	{r4, r5, r6, pc}
 435              	.L28:
 436              		.align	2
 437              	.L27:
 438 005c 00000000 		.word	g_ptrMachineParameter
 439 0060 00002440 		.word	1076101120
 440 0064 6C000000 		.word	g_network+108
 441 0068 D4000000 		.word	.LC28
 442              		.cfi_endproc
 443              	.LFE69:
 444              		.size	makeAndonPatternCount, .-makeAndonPatternCount
 445              		.section	.text.makeAndonDevice,"ax",%progbits
 446              		.align	2
 447              		.global	makeAndonDevice
 448              		.code	16
 449              		.thumb_func
 450              		.type	makeAndonDevice, %function
 451              	makeAndonDevice:
 452              	.LFB70:
 152:andonApi.c    **** 
 153:andonApi.c    **** /* 현 버전에서 사용하지 않는 함수들 Start. */
 154:andonApi.c    **** void makeAndonDevice()
 155:andonApi.c    **** {
 453              		.loc 1 155 0
 454              		.cfi_startproc
ARM GAS  C:\Users\luvsd\AppData\Local\Temp\ccehdU1h.s 			page 12


 455              		@ args = 0, pretend = 0, frame = 0
 456              		@ frame_needed = 0, uses_anonymous_args = 0
 457 0000 00B5     		push	{lr}
 458              		.cfi_def_cfa_offset 4
 459              		.cfi_offset 14, -4
 460 0002 83B0     		sub	sp, sp, #12
 461              		.cfi_def_cfa_offset 16
 156:andonApi.c    ****     enQueueANDON_printf(ANDON_GET_DEVICE_NAME,"send_device&mac=%s&name=%s&ip=%s&ver=%s",g_network.M
 462              		.loc 1 156 0
 463 0004 074B     		ldr	r3, .L30
 464 0006 1B68     		ldr	r3, [r3]
 465 0008 7033     		adds	r3, r3, #112
 466 000a 074A     		ldr	r2, .L30+4
 467 000c 0749     		ldr	r1, .L30+8
 468 000e 0191     		str	r1, [sp, #4]
 469 0010 1100     		movs	r1, r2
 470 0012 4039     		subs	r1, r1, #64
 471 0014 0091     		str	r1, [sp]
 472 0016 0649     		ldr	r1, .L30+12
 473 0018 0320     		movs	r0, #3
 474 001a FFF7FEFF 		bl	enQueueANDON_printf
 475              	.LVL34:
 157:andonApi.c    **** }
 476              		.loc 1 157 0
 477 001e 03B0     		add	sp, sp, #12
 478              		@ sp needed
 479 0020 00BD     		pop	{pc}
 480              	.L31:
 481 0022 C046     		.align	2
 482              	.L30:
 483 0024 00000000 		.word	g_ptrServer
 484 0028 6C000000 		.word	g_network+108
 485 002c 3C000000 		.word	.LC8
 486 0030 14010000 		.word	.LC32
 487              		.cfi_endproc
 488              	.LFE70:
 489              		.size	makeAndonDevice, .-makeAndonDevice
 490              		.section	.text.makeRequestTarget,"ax",%progbits
 491              		.align	2
 492              		.global	makeRequestTarget
 493              		.code	16
 494              		.thumb_func
 495              		.type	makeRequestTarget, %function
 496              	makeRequestTarget:
 497              	.LFB71:
 158:andonApi.c    **** 
 159:andonApi.c    **** void makeRequestTarget()
 160:andonApi.c    **** {
 498              		.loc 1 160 0
 499              		.cfi_startproc
 500              		@ args = 0, pretend = 0, frame = 0
 501              		@ frame_needed = 0, uses_anonymous_args = 0
 502 0000 10B5     		push	{r4, lr}
 503              		.cfi_def_cfa_offset 8
 504              		.cfi_offset 4, -8
 505              		.cfi_offset 14, -4
 161:andonApi.c    ****     enQueueANDON_printf(ANDON_REQUEST_TARGET,"get_target&device_idx=%d",g_Info.DeviceIdx);
ARM GAS  C:\Users\luvsd\AppData\Local\Temp\ccehdU1h.s 			page 13


 506              		.loc 1 161 0
 507 0002 034B     		ldr	r3, .L33
 508 0004 DA8D     		ldrh	r2, [r3, #46]
 509 0006 0349     		ldr	r1, .L33+4
 510 0008 0720     		movs	r0, #7
 511 000a FFF7FEFF 		bl	enQueueANDON_printf
 512              	.LVL35:
 162:andonApi.c    **** }
 513              		.loc 1 162 0
 514              		@ sp needed
 515 000e 10BD     		pop	{r4, pc}
 516              	.L34:
 517              		.align	2
 518              	.L33:
 519 0010 00000000 		.word	.LANCHOR0
 520 0014 3C010000 		.word	.LC37
 521              		.cfi_endproc
 522              	.LFE71:
 523              		.size	makeRequestTarget, .-makeRequestTarget
 524              		.section	.text.makeAndonTextList,"ax",%progbits
 525              		.align	2
 526              		.global	makeAndonTextList
 527              		.code	16
 528              		.thumb_func
 529              		.type	makeAndonTextList, %function
 530              	makeAndonTextList:
 531              	.LFB72:
 163:andonApi.c    **** 
 164:andonApi.c    **** void makeAndonTextList()
 165:andonApi.c    **** {
 532              		.loc 1 165 0
 533              		.cfi_startproc
 534              		@ args = 0, pretend = 0, frame = 0
 535              		@ frame_needed = 0, uses_anonymous_args = 0
 536 0000 10B5     		push	{r4, lr}
 537              		.cfi_def_cfa_offset 8
 538              		.cfi_offset 4, -8
 539              		.cfi_offset 14, -4
 166:andonApi.c    ****     enQueueANDON_printf(ANDON_REQUEST_TEXT_LIST,"get_textList&device_idx=%d",g_ptrServer->deviceInd
 540              		.loc 1 166 0
 541 0002 044B     		ldr	r3, .L36
 542 0004 1A68     		ldr	r2, [r3]
 543 0006 8423     		movs	r3, #132
 544 0008 D25A     		ldrh	r2, [r2, r3]
 545 000a 0349     		ldr	r1, .L36+4
 546 000c 0620     		movs	r0, #6
 547 000e FFF7FEFF 		bl	enQueueANDON_printf
 548              	.LVL36:
 167:andonApi.c    **** }
 549              		.loc 1 167 0
 550              		@ sp needed
 551 0012 10BD     		pop	{r4, pc}
 552              	.L37:
 553              		.align	2
 554              	.L36:
 555 0014 00000000 		.word	g_ptrServer
 556 0018 58010000 		.word	.LC40
ARM GAS  C:\Users\luvsd\AppData\Local\Temp\ccehdU1h.s 			page 14


 557              		.cfi_endproc
 558              	.LFE72:
 559              		.size	makeAndonTextList, .-makeAndonTextList
 560              		.section	.text.initAndon,"ax",%progbits
 561              		.align	2
 562              		.global	initAndon
 563              		.code	16
 564              		.thumb_func
 565              		.type	initAndon, %function
 566              	initAndon:
 567              	.LFB73:
 168:andonApi.c    **** /* 현 버전에서 사용하지 않는 함수들 End */
 169:andonApi.c    **** 
 170:andonApi.c    **** void initAndon()
 171:andonApi.c    **** {
 568              		.loc 1 171 0
 569              		.cfi_startproc
 570              		@ args = 0, pretend = 0, frame = 0
 571              		@ frame_needed = 0, uses_anonymous_args = 0
 572 0000 10B5     		push	{r4, lr}
 573              		.cfi_def_cfa_offset 8
 574              		.cfi_offset 4, -8
 575              		.cfi_offset 14, -4
 172:andonApi.c    ****     g_index_request_interval = registerCounter_1ms(5000);
 576              		.loc 1 172 0
 577 0002 0848     		ldr	r0, .L39
 578 0004 FFF7FEFF 		bl	registerCounter_1ms
 579              	.LVL37:
 580 0008 074B     		ldr	r3, .L39+4
 581 000a D870     		strb	r0, [r3, #3]
 173:andonApi.c    ****     makeAndonCurrentTimeRequest();
 582              		.loc 1 173 0
 583 000c FFF7FEFF 		bl	makeAndonCurrentTimeRequest
 584              	.LVL38:
 174:andonApi.c    ****     makeAndonStart();
 585              		.loc 1 174 0
 586 0010 FFF7FEFF 		bl	makeAndonStart
 587              	.LVL39:
 175:andonApi.c    ****     makeAndonList();
 588              		.loc 1 175 0
 589 0014 FFF7FEFF 		bl	makeAndonList
 590              	.LVL40:
 176:andonApi.c    ****     makeDownTimeList();
 591              		.loc 1 176 0
 592 0018 FFF7FEFF 		bl	makeDownTimeList
 593              	.LVL41:
 177:andonApi.c    ****     makeDefectiveList();
 594              		.loc 1 177 0
 595 001c FFF7FEFF 		bl	makeDefectiveList
 596              	.LVL42:
 178:andonApi.c    ****     //makeAndonTextList();
 179:andonApi.c    **** }
 597              		.loc 1 179 0
 598              		@ sp needed
 599 0020 10BD     		pop	{r4, pc}
 600              	.L40:
 601 0022 C046     		.align	2
ARM GAS  C:\Users\luvsd\AppData\Local\Temp\ccehdU1h.s 			page 15


 602              	.L39:
 603 0024 88130000 		.word	5000
 604 0028 00000000 		.word	.LANCHOR0
 605              		.cfi_endproc
 606              	.LFE73:
 607              		.size	initAndon, .-initAndon
 608              		.global	g_Info
 609              		.global	g_bReceivedAndonStart
 610              		.global	g_index_request_interval
 611              		.global	g_bTargetReceived
 612              		.global	g_uReplyResult
 613              		.global	g_bDeviceInfoUpdate
 614              		.comm	g_AndonLists,194,4
 615              		.comm	Param,6,4
 616              		.section	.rodata.str1.4,"aMS",%progbits,1
 617              		.align	2
 618              	.LC2:
 619 0000 6765745F 		.ascii	"get_dateTime&mac=%s\000"
 619      64617465 
 619      54696D65 
 619      266D6163 
 619      3D257300 
 620              	.LC6:
 621 0014 73746172 		.ascii	"start&mac=%s&machine_no=%s&ip=%s&ver=%s\000"
 621      74266D61 
 621      633D2573 
 621      266D6163 
 621      68696E65 
 622              	.LC8:
 623 003c 424C4143 		.ascii	"BLACK_CPU V1\000"
 623      4B5F4350 
 623      55205631 
 623      00
 624 0049 000000   		.space	3
 625              	.LC12:
 626 004c 6765745F 		.ascii	"get_andonList&mac=%s\000"
 626      616E646F 
 626      6E4C6973 
 626      74266D61 
 626      633D2573 
 627 0061 000000   		.space	3
 628              	.LC14:
 629 0064 2F617069 		.ascii	"/api/sewing.php\000"
 629      2F736577 
 629      696E672E 
 629      70687000 
 630              	.LC16:
 631 0074 25733F63 		.ascii	"%s?code=%s\000"
 631      6F64653D 
 631      257300
 632 007f 00       		.space	1
 633              	.LC21:
 634 0080 73656E64 		.ascii	"send_andon_warning&mac=%s&andon_idx=%d\000"
 634      5F616E64 
 634      6F6E5F77 
 634      61726E69 
 634      6E67266D 
ARM GAS  C:\Users\luvsd\AppData\Local\Temp\ccehdU1h.s 			page 16


 635 00a7 00       		.space	1
 636              	.LC24:
 637 00a8 73656E64 		.ascii	"send_andon_completed&mac=%s&andon_idx=%d\000"
 637      5F616E64 
 637      6F6E5F63 
 637      6F6D706C 
 637      65746564 
 638 00d1 000000   		.space	3
 639              	.LC28:
 640 00d4 73656E64 		.ascii	"send_pCount&mac=%s&pc=%u&pi=%0.1f&sc=%0.1f&design_n"
 640      5F70436F 
 640      756E7426 
 640      6D61633D 
 640      25732670 
 641 0107 6F3D2575 		.ascii	"o=%u&ct=%u\015\012\000"
 641      2663743D 
 641      25750D0A 
 641      00
 642              	.LC32:
 643 0114 73656E64 		.ascii	"send_device&mac=%s&name=%s&ip=%s&ver=%s\000"
 643      5F646576 
 643      69636526 
 643      6D61633D 
 643      2573266E 
 644              	.LC37:
 645 013c 6765745F 		.ascii	"get_target&device_idx=%d\000"
 645      74617267 
 645      65742664 
 645      65766963 
 645      655F6964 
 646 0155 000000   		.space	3
 647              	.LC40:
 648 0158 6765745F 		.ascii	"get_textList&device_idx=%d\000"
 648      74657874 
 648      4C697374 
 648      26646576 
 648      6963655F 
 649              		.bss
 650              		.align	2
 651              		.set	.LANCHOR0,. + 0
 652              		.type	g_uAndonRequestType, %object
 653              		.size	g_uAndonRequestType, 2
 654              	g_uAndonRequestType:
 655 0000 0000     		.space	2
 656              		.type	g_bReceivedAndonStart, %object
 657              		.size	g_bReceivedAndonStart, 1
 658              	g_bReceivedAndonStart:
 659 0002 00       		.space	1
 660              		.type	g_index_request_interval, %object
 661              		.size	g_index_request_interval, 1
 662              	g_index_request_interval:
 663 0003 00       		.space	1
 664              		.type	g_Info, %object
 665              		.size	g_Info, 392
 666              	g_Info:
 667 0004 00000000 		.space	392
 667      00000000 
ARM GAS  C:\Users\luvsd\AppData\Local\Temp\ccehdU1h.s 			page 17


 667      00000000 
 667      00000000 
 667      00000000 
 668              		.type	g_bTargetReceived, %object
 669              		.size	g_bTargetReceived, 1
 670              	g_bTargetReceived:
 671 018c 00       		.space	1
 672              		.type	g_uReplyResult, %object
 673              		.size	g_uReplyResult, 1
 674              	g_uReplyResult:
 675 018d 00       		.space	1
 676              		.type	g_bDeviceInfoUpdate, %object
 677              		.size	g_bDeviceInfoUpdate, 1
 678              	g_bDeviceInfoUpdate:
 679 018e 00       		.space	1
 680              		.text
 681              	.Letext0:
 682              		.file 2 "c:\\program files (x86)\\cypress\\psoc creator\\4.4\\psoc creator\\import\\gnu\\arm\\5.4.
 683              		.file 3 "c:\\program files (x86)\\cypress\\psoc creator\\4.4\\psoc creator\\import\\gnu\\arm\\5.4.
 684              		.file 4 "Generated_Source\\PSoC4/cytypes.h"
 685              		.file 5 "main.h"
 686              		.file 6 "andonApi.h"
 687              		.file 7 "andonMessageQueue.h"
 688              		.file 8 "lib/WIFI.h"
 689              		.file 9 "lib/server.h"
 690              		.file 10 "userProjectPatternSewing.h"
 691              		.file 11 "count.h"
 692              		.file 12 "Generated_Source\\PSoC4/RTC.h"
 693              		.file 13 "andonJson.h"
 694              		.file 14 "c:\\program files (x86)\\cypress\\psoc creator\\4.4\\psoc creator\\import\\gnu\\arm\\5.4
 695              		.file 15 "lib/sysTick.h"
 696              		.file 16 "WarningLight.h"
 697              		.file 17 "downtime.h"
 698              		.file 18 "defective.h"