ARM GAS  C:\Users\luvsd\AppData\Local\Temp\ccVgSZhb.s 			page 1


   1              		.syntax unified
   2              		.cpu cortex-m0
   3              		.fpu softvfp
   4              		.eabi_attribute 20, 1
   5              		.eabi_attribute 21, 1
   6              		.eabi_attribute 23, 3
   7              		.eabi_attribute 24, 1
   8              		.eabi_attribute 25, 1
   9              		.eabi_attribute 26, 1
  10              		.eabi_attribute 30, 1
  11              		.eabi_attribute 34, 0
  12              		.eabi_attribute 18, 4
  13              		.thumb
  14              		.syntax unified
  15              		.file	"andonMenu.c"
  16              		.text
  17              	.Ltext0:
  18              		.cfi_sections	.debug_frame
  19              		.section	.text.doAndonRequest,"ax",%progbits
  20              		.align	2
  21              		.global	doAndonRequest
  22              		.code	16
  23              		.thumb_func
  24              		.type	doAndonRequest, %function
  25              	doAndonRequest:
  26              	.LFB65:
  27              		.file 1 "andonMenu.c"
   1:andonMenu.c   **** /* ========================================
   2:andonMenu.c   ****  *
   3:andonMenu.c   ****  * Copyright Suntech, 2023.04.01
   4:andonMenu.c   ****  * All Rights Reserved
   5:andonMenu.c   ****  * UNPUBLISHED, LICENSED SOFTWARE.
   6:andonMenu.c   ****  *
   7:andonMenu.c   ****  * CONFIDENTIAL AND PROPRIETARY INFORMATION
   8:andonMenu.c   ****  * WHICH IS THE PROPERTY OF Suntech.
   9:andonMenu.c   ****  *
  10:andonMenu.c   ****  * ========================================
  11:andonMenu.c   **** */
  12:andonMenu.c   **** #include "andonMenu.h"
  13:andonMenu.c   **** #include "userMenu.h"
  14:andonMenu.c   **** #include "lib/widget.h"
  15:andonMenu.c   **** #include "lib/image.h"
  16:andonMenu.c   **** #include "lib/internalFlash.h"
  17:andonMenu.c   **** #include "lib/externalFlash.h"
  18:andonMenu.c   **** #include "menuDesign.h"
  19:andonMenu.c   **** #include "andonApi.h"
  20:andonMenu.c   **** #include "package.h"
  21:andonMenu.c   **** #include "WIFI.h"
  22:andonMenu.c   **** #include "count.h"
  23:andonMenu.c   **** #include "userProjectPatternSewing.h"
  24:andonMenu.c   **** 
  25:andonMenu.c   **** 
  26:andonMenu.c   **** ///////////////////////////////////////////////////////////////////////////////////////////////////
  27:andonMenu.c   **** void SetAndonListButtons(LIST_MENU *menu, char *title, ANDON_LISTS *list)
  28:andonMenu.c   **** ///////////////////////////////////////////////////////////////////////////////////////////////////
  29:andonMenu.c   **** /*
  30:andonMenu.c   ****     indexSelect: selected index, if no used 0xFFFF
ARM GAS  C:\Users\luvsd\AppData\Local\Temp\ccVgSZhb.s 			page 2


  31:andonMenu.c   **** */
  32:andonMenu.c   **** {
  33:andonMenu.c   ****     RECT bodyRect = GetBodyArea();
  34:andonMenu.c   ****     uint16 yPos = bodyRect.top;
  35:andonMenu.c   ****     uint16 yPosTitle;
  36:andonMenu.c   **** 
  37:andonMenu.c   ****     menu->noOfDisplayButton = getMaxNoOfItemInListButton();
  38:andonMenu.c   **** 
  39:andonMenu.c   ****     if(title != NULL) menu->noOfDisplayButton--;
  40:andonMenu.c   ****    
  41:andonMenu.c   ****     menu->sizeOfList = list->noOfList;
  42:andonMenu.c   ****     strcpy(menu->title,title);
  43:andonMenu.c   **** 
  44:andonMenu.c   ****     uint8 withScroll = isExistScroll(menu);
  45:andonMenu.c   ****     
  46:andonMenu.c   ****     if((yPosTitle = DrawTitleButton(title,withScroll)) > 0) yPos = yPosTitle;
  47:andonMenu.c   ****       
  48:andonMenu.c   ****     for(int i=0; i < menu->noOfDisplayButton; i++)
  49:andonMenu.c   ****     {                        
  50:andonMenu.c   ****         BUTTON *btn = &menu->btns[i];
  51:andonMenu.c   ****         SetDefaultButtonStyle(btn);
  52:andonMenu.c   ****         
  53:andonMenu.c   ****         SetButtonSize      (btn, yPos, g_DEFAULT_BUTTON_HEIGHT, BUTTON_X_FULL, BUTTON_Y,withScroll)
  54:andonMenu.c   ****         
  55:andonMenu.c   ****         uint16 textIdx = menu->noOfDisplayButton * menu->curPage + i;
  56:andonMenu.c   ****         if(textIdx >= menu->sizeOfList) break;
  57:andonMenu.c   ****      
  58:andonMenu.c   ****         ANDON_LIST_ITEM *item = &list->item[textIdx];
  59:andonMenu.c   ****         int16 not_completed_qty = item->not_completed_qty;
  60:andonMenu.c   ****         
  61:andonMenu.c   ****         if(not_completed_qty == 0)
  62:andonMenu.c   ****             SetButtonStyleColor(btn, BUTTON_STYLE_LIST); 
  63:andonMenu.c   ****         else
  64:andonMenu.c   ****             ////SetButtonStyleColor(btn, BUTTON_STYLE_R_ORANGE); 
  65:andonMenu.c   ****             SetButtonStyleColor(btn, BUTTON_STYLE_R_RED);
  66:andonMenu.c   ****             
  67:andonMenu.c   ****         btn->align = TEXT_ALIGN_LEFT;
  68:andonMenu.c   ****             
  69:andonMenu.c   ****         if(getMiscConfig()->bDisplayDir == DISPLAY_DIRECTION_PORTRAIT)
  70:andonMenu.c   ****         {
  71:andonMenu.c   ****             sprintf(menu->listText[i],"%-10s %2d",item->text, item->not_completed_qty);
  72:andonMenu.c   ****         }
  73:andonMenu.c   ****         else
  74:andonMenu.c   ****         {
  75:andonMenu.c   ****             sprintf(menu->listText[i],"%-15s %2d",item->text, item->not_completed_qty);
  76:andonMenu.c   ****         }
  77:andonMenu.c   ****                 
  78:andonMenu.c   ****         yPos += g_DEFAULT_BUTTON_HEIGHT;
  79:andonMenu.c   ****     }
  80:andonMenu.c   **** 
  81:andonMenu.c   ****     if(withScroll) SetDrawScrollButton(menu);
  82:andonMenu.c   **** }
  83:andonMenu.c   **** 
  84:andonMenu.c   **** char * updateDateTime(uint8 reflash)
  85:andonMenu.c   **** {
  86:andonMenu.c   ****     static uint32 uOldtSeconds = 0, bToggle=TRUE;
  87:andonMenu.c   ****     static char strTime[10];
ARM GAS  C:\Users\luvsd\AppData\Local\Temp\ccVgSZhb.s 			page 3


  88:andonMenu.c   ****     uint32 time = RTC_GetTime();
  89:andonMenu.c   ****     
  90:andonMenu.c   ****     uint32 uSeconds = RTC_GetSecond(time);
  91:andonMenu.c   ****         
  92:andonMenu.c   ****     if(uOldtSeconds != uSeconds || reflash == TRUE)
  93:andonMenu.c   ****     {    
  94:andonMenu.c   ****         uOldtSeconds = uSeconds;        
  95:andonMenu.c   ****   
  96:andonMenu.c   ****         if(bToggle) 
  97:andonMenu.c   ****         {
  98:andonMenu.c   ****             bToggle = FALSE;
  99:andonMenu.c   ****             sprintf(strTime, "%02lu:%02lu", RTC_GetHours(time), RTC_GetMinutes(time)); 
 100:andonMenu.c   ****         }
 101:andonMenu.c   ****         else
 102:andonMenu.c   ****         {
 103:andonMenu.c   ****             bToggle = TRUE;
 104:andonMenu.c   ****             sprintf(strTime, "%02lu %02lu", RTC_GetHours(time), RTC_GetMinutes(time)); 
 105:andonMenu.c   ****         }
 106:andonMenu.c   ****         return strTime;
 107:andonMenu.c   ****     }
 108:andonMenu.c   ****     return NULL;
 109:andonMenu.c   **** }
 110:andonMenu.c   **** 
 111:andonMenu.c   **** int doAndonMenu(void *this, uint8 reflash)
 112:andonMenu.c   **** {   
 113:andonMenu.c   ****     static uint16 page = 0;
 114:andonMenu.c   ****     char *strTime = updateDateTime(reflash);
 115:andonMenu.c   ****     
 116:andonMenu.c   ****    // static LIST_MENU menu;
 117:andonMenu.c   ****     
 118:andonMenu.c   ****     if(g_AndonLists.bUpdated || reflash == TRUE)
 119:andonMenu.c   ****     {
 120:andonMenu.c   ****         SetAndonListButtons(&g_ListMenu, NULL, &g_AndonLists);
 121:andonMenu.c   ****         UpdateDrawListButtons(&g_ListMenu,NO_SELECT);
 122:andonMenu.c   ****         g_AndonLists.bUpdated = FALSE;
 123:andonMenu.c   ****     }
 124:andonMenu.c   ****     
 125:andonMenu.c   ****     if(strTime != NULL)
 126:andonMenu.c   ****     {
 127:andonMenu.c   ****         BUTTON *rightButton = &g_btnBottom[1];
 128:andonMenu.c   ****         SetButtonText(rightButton,strTime);
 129:andonMenu.c   ****         DrawButton(rightButton);
 130:andonMenu.c   ****     }
 131:andonMenu.c   ****     switch(reflash)
 132:andonMenu.c   ****     {
 133:andonMenu.c   ****         case TRUE: // 화면이 바뀔때 실행
 134:andonMenu.c   ****         {
 135:andonMenu.c   ****            SetDrawBottomButtons("QUIT", strTime, BUTTON_STYLE_R_GREEN, BUTTON_STYLE_WHITE); 
 136:andonMenu.c   ****            getCount()->andonEntry = TRUE;
 137:andonMenu.c   ****            SaveInternalFlash();
 138:andonMenu.c   ****            g_ListMenu.curPage = page;
 139:andonMenu.c   ****          //  SaveInternalFlash();
 140:andonMenu.c   ****         }
 141:andonMenu.c   ****         break;  
 142:andonMenu.c   ****         
 143:andonMenu.c   ****         case FALSE: // Cliking Check
 144:andonMenu.c   ****             {
ARM GAS  C:\Users\luvsd\AppData\Local\Temp\ccVgSZhb.s 			page 4


 145:andonMenu.c   ****                 TOUCH tc = GetTouch();
 146:andonMenu.c   ****                 if(tc.isClick == FALSE) break;
 147:andonMenu.c   ****                 
 148:andonMenu.c   ****                 uint16 idx = getIndexOfClickedListMenu(&tc, &g_ListMenu);
 149:andonMenu.c   **** 
 150:andonMenu.c   ****                 switch(idx)
 151:andonMenu.c   ****                 {
 152:andonMenu.c   ****                     case IDX_SCROLL_UP:   g_ListMenu.curPage--;
 153:andonMenu.c   ****                           UpdateDrawListButtons(&g_ListMenu,NO_SELECT);
 154:andonMenu.c   ****                         break;
 155:andonMenu.c   ****                     case IDX_SCROLL_DOWN: g_ListMenu.curPage++;
 156:andonMenu.c   ****                           UpdateDrawListButtons(&g_ListMenu,NO_SELECT);                   
 157:andonMenu.c   ****                         break;
 158:andonMenu.c   ****                     case NO_CLICK :
 159:andonMenu.c   ****                         {
 160:andonMenu.c   ****                             switch(getIndexOfClickedButton(&tc,g_btnBottom,2))
 161:andonMenu.c   ****                             {
 162:andonMenu.c   ****                                 case BOTTOM_LEFT: 
 163:andonMenu.c   ****                                    getCount()->andonEntry = FALSE;
 164:andonMenu.c   ****                                    SaveInternalFlash();
 165:andonMenu.c   ****                                 page = g_ListMenu.curPage;
 166:andonMenu.c   ****                                 return MENU_RETURN_PARENT;
 167:andonMenu.c   ****                             //  case BOTTOM_RIGHT: return 1;                            
 168:andonMenu.c   ****                             }
 169:andonMenu.c   ****                             break;
 170:andonMenu.c   ****                         }
 171:andonMenu.c   ****                     default: 
 172:andonMenu.c   ****                         if(idx < g_ListMenu.sizeOfList) 
 173:andonMenu.c   ****                         {
 174:andonMenu.c   ****                             g_AndonLists.uSelectIndex = idx;
 175:andonMenu.c   ****                             return 0;
 176:andonMenu.c   ****                         }
 177:andonMenu.c   ****                 }        
 178:andonMenu.c   ****             }
 179:andonMenu.c   ****             break;
 180:andonMenu.c   ****     }
 181:andonMenu.c   ****         
 182:andonMenu.c   ****     return MENU_RETURN_THIS;    
 183:andonMenu.c   **** }
 184:andonMenu.c   **** 
 185:andonMenu.c   **** int doAndonRequest(void *this, uint8 reflash)
 186:andonMenu.c   **** {
  28              		.loc 1 186 0
  29              		.cfi_startproc
  30              		@ args = 0, pretend = 0, frame = 32
  31              		@ frame_needed = 0, uses_anonymous_args = 0
  32              	.LVL0:
  33 0000 70B5     		push	{r4, r5, r6, lr}
  34              		.cfi_def_cfa_offset 16
  35              		.cfi_offset 4, -16
  36              		.cfi_offset 5, -12
  37              		.cfi_offset 6, -8
  38              		.cfi_offset 14, -4
  39 0002 8AB0     		sub	sp, sp, #40
  40              		.cfi_def_cfa_offset 56
  41              	.LVL1:
 187:andonMenu.c   ****     MENUNODE *thisMenu = (MENUNODE *) this;    
ARM GAS  C:\Users\luvsd\AppData\Local\Temp\ccVgSZhb.s 			page 5


 188:andonMenu.c   ****     static LIST_MENU menu;
 189:andonMenu.c   ****     static char *listText[] = {"WARNING", "COMPLETE"};
 190:andonMenu.c   ****     static uint16 indexSelect;
 191:andonMenu.c   ****     uint8 bUpdate = FALSE;
 192:andonMenu.c   ****    
 193:andonMenu.c   ****     ANDON_LIST_ITEM *item = &g_AndonLists.item[g_AndonLists.uSelectIndex];    
  42              		.loc 1 193 0
  43 0004 4348     		ldr	r0, .L25
  44              	.LVL2:
  45 0006 8578     		ldrb	r5, [r0, #2]
  46              	.LVL3:
 194:andonMenu.c   ****     int16 not_completed_qty = item->not_completed_qty;
  47              		.loc 1 194 0
  48 0008 2623     		movs	r3, #38
  49 000a 6B43     		muls	r3, r5
  50 000c C318     		adds	r3, r0, r3
  51 000e 2824     		movs	r4, #40
  52 0010 1C5F     		ldrsh	r4, [r3, r4]
  53              	.LVL4:
 195:andonMenu.c   ****     if(not_completed_qty == 0) indexSelect = 0;
  54              		.loc 1 195 0
  55 0012 002C     		cmp	r4, #0
  56 0014 02D1     		bne	.L2
  57              		.loc 1 195 0 is_stmt 0 discriminator 1
  58 0016 0022     		movs	r2, #0
  59 0018 3F4B     		ldr	r3, .L25+4
  60 001a 1A80     		strh	r2, [r3]
  61              	.L2:
 196:andonMenu.c   ****                 
 197:andonMenu.c   ****     switch(reflash)
  62              		.loc 1 197 0 is_stmt 1
  63 001c 0029     		cmp	r1, #0
  64 001e 08D0     		beq	.L4
  65 0020 0129     		cmp	r1, #1
  66 0022 4DD1     		bne	.L22
 198:andonMenu.c   ****     {
 199:andonMenu.c   ****         case TRUE: // 화면이 바뀔때 실행
 200:andonMenu.c   ****             {
 201:andonMenu.c   ****                 menu.curPage = 0;
  67              		.loc 1 201 0
  68 0024 0021     		movs	r1, #0
  69              	.LVL5:
  70 0026 C223     		movs	r3, #194
  71 0028 9B00     		lsls	r3, r3, #2
  72 002a 3B4A     		ldr	r2, .L25+4
  73 002c D152     		strh	r1, [r2, r3]
  74              	.LVL6:
 202:andonMenu.c   ****                 bUpdate = TRUE;
  75              		.loc 1 202 0
  76 002e 0123     		movs	r3, #1
 203:andonMenu.c   ****             }
 204:andonMenu.c   ****             break;  
  77              		.loc 1 204 0
  78 0030 47E0     		b	.L3
  79              	.LVL7:
  80              	.L4:
  81              	.LBB12:
ARM GAS  C:\Users\luvsd\AppData\Local\Temp\ccVgSZhb.s 			page 6


 205:andonMenu.c   ****         
 206:andonMenu.c   ****         case FALSE: // Cliking Check
 207:andonMenu.c   ****             {
 208:andonMenu.c   ****                 TOUCH tc = GetTouch();
  82              		.loc 1 208 0
  83 0032 02AE     		add	r6, sp, #8
  84 0034 3000     		movs	r0, r6
  85 0036 FFF7FEFF 		bl	GetTouch
  86              	.LVL8:
 209:andonMenu.c   ****                 if(tc.isClick == FALSE) break;
  87              		.loc 1 209 0
  88 003a 3388     		ldrh	r3, [r6]
  89 003c 002B     		cmp	r3, #0
  90 003e 3AD0     		beq	.L6
 210:andonMenu.c   ****                 
 211:andonMenu.c   ****                 uint16 idx = getIndexOfClickedListMenu(&tc, &menu);
  91              		.loc 1 211 0
  92 0040 3549     		ldr	r1, .L25+4
  93 0042 0431     		adds	r1, r1, #4
  94 0044 02A8     		add	r0, sp, #8
  95 0046 FFF7FEFF 		bl	getIndexOfClickedListMenu
  96              	.LVL9:
 212:andonMenu.c   **** 
 213:andonMenu.c   ****                 switch(idx)
  97              		.loc 1 213 0
  98 004a 0128     		cmp	r0, #1
  99 004c 2AD0     		beq	.L8
 100 004e 0028     		cmp	r0, #0
 101 0050 23D0     		beq	.L9
 102 0052 FF28     		cmp	r0, #255
 103 0054 2BD1     		bne	.L23
 214:andonMenu.c   ****                 {
 215:andonMenu.c   ****                     case NO_CLICK :
 216:andonMenu.c   ****                         {
 217:andonMenu.c   ****                             switch(getIndexOfClickedButton(&tc,g_btnBottom,2))
 104              		.loc 1 217 0
 105 0056 0222     		movs	r2, #2
 106 0058 3049     		ldr	r1, .L25+8
 107 005a 02A8     		add	r0, sp, #8
 108              	.LVL10:
 109 005c FFF7FEFF 		bl	getIndexOfClickedButton
 110              	.LVL11:
 111 0060 0028     		cmp	r0, #0
 112 0062 2AD0     		beq	.L11
 113 0064 0128     		cmp	r0, #1
 114 0066 24D1     		bne	.L24
 218:andonMenu.c   ****                             {
 219:andonMenu.c   ****                                 case BOTTOM_LEFT:                        
 220:andonMenu.c   ****                                     return MENU_RETURN_PARENT;
 221:andonMenu.c   ****                                 case BOTTOM_RIGHT: 
 222:andonMenu.c   ****                                 {
 223:andonMenu.c   ****                                     switch(indexSelect)
 115              		.loc 1 223 0
 116 0068 2B4B     		ldr	r3, .L25+4
 117 006a 1B88     		ldrh	r3, [r3]
 118 006c 002B     		cmp	r3, #0
 119 006e 02D0     		beq	.L13
ARM GAS  C:\Users\luvsd\AppData\Local\Temp\ccVgSZhb.s 			page 7


 120 0070 012B     		cmp	r3, #1
 121 0072 09D0     		beq	.L14
 122 0074 21E0     		b	.L11
 123              	.L13:
 224:andonMenu.c   ****                                     {
 225:andonMenu.c   ****                                         case 0: makeAndonWarningRequest(item->idx);
 124              		.loc 1 225 0
 125 0076 2623     		movs	r3, #38
 126 0078 5D43     		muls	r5, r3
 127              	.LVL12:
 128 007a 264B     		ldr	r3, .L25
 129 007c 5D19     		adds	r5, r3, r5
 130 007e 2623     		movs	r3, #38
 131 0080 E85E     		ldrsh	r0, [r5, r3]
 132 0082 FFF7FEFF 		bl	makeAndonWarningRequest
 133              	.LVL13:
 226:andonMenu.c   ****                                         break;
 134              		.loc 1 226 0
 135 0086 18E0     		b	.L11
 136              	.LVL14:
 137              	.L14:
 227:andonMenu.c   ****                                         case 1: makeAndonCompleteRequest(item->idx);
 138              		.loc 1 227 0
 139 0088 2623     		movs	r3, #38
 140 008a 5D43     		muls	r5, r3
 141              	.LVL15:
 142 008c 214B     		ldr	r3, .L25
 143 008e 5D19     		adds	r5, r3, r5
 144 0090 2623     		movs	r3, #38
 145 0092 E85E     		ldrsh	r0, [r5, r3]
 146 0094 FFF7FEFF 		bl	makeAndonCompleteRequest
 147              	.LVL16:
 228:andonMenu.c   ****                                         break;
 148              		.loc 1 228 0
 149 0098 0FE0     		b	.L11
 150              	.LVL17:
 151              	.L9:
 229:andonMenu.c   ****                                     }
 230:andonMenu.c   ****                                     return MENU_RETURN_PARENT;                                
 231:andonMenu.c   ****                                 }                            
 232:andonMenu.c   ****                             }
 233:andonMenu.c   ****                             break;
 234:andonMenu.c   ****                         }
 235:andonMenu.c   ****                     case 0:
 236:andonMenu.c   ****                         indexSelect = 0;
 152              		.loc 1 236 0
 153 009a 0022     		movs	r2, #0
 154 009c 1E4B     		ldr	r3, .L25+4
 155 009e 1A80     		strh	r2, [r3]
 156              	.LVL18:
 237:andonMenu.c   ****                         bUpdate = TRUE;
 157              		.loc 1 237 0
 158 00a0 0123     		movs	r3, #1
 238:andonMenu.c   ****                         break;
 159              		.loc 1 238 0
 160 00a2 0EE0     		b	.L3
 161              	.LVL19:
ARM GAS  C:\Users\luvsd\AppData\Local\Temp\ccVgSZhb.s 			page 8


 162              	.L8:
 239:andonMenu.c   ****                     case 1:
 240:andonMenu.c   ****                         indexSelect = 1;                        
 163              		.loc 1 240 0
 164 00a4 0122     		movs	r2, #1
 165 00a6 1C4B     		ldr	r3, .L25+4
 166 00a8 1A80     		strh	r2, [r3]
 167              	.LVL20:
 241:andonMenu.c   ****                         bUpdate = TRUE;                     
 168              		.loc 1 241 0
 169 00aa 0123     		movs	r3, #1
 242:andonMenu.c   ****                         break;
 170              		.loc 1 242 0
 171 00ac 09E0     		b	.L3
 172              	.LVL21:
 173              	.L23:
 174              	.LBE12:
 191:andonMenu.c   ****    
 175              		.loc 1 191 0
 176 00ae 0023     		movs	r3, #0
 177 00b0 07E0     		b	.L3
 178              	.LVL22:
 179              	.L24:
 180 00b2 0023     		movs	r3, #0
 243:andonMenu.c   ****                 }                
 244:andonMenu.c   ****             }
 245:andonMenu.c   ****             break;
 181              		.loc 1 245 0
 182 00b4 05E0     		b	.L3
 183              	.L6:
 191:andonMenu.c   ****    
 184              		.loc 1 191 0
 185 00b6 0023     		movs	r3, #0
 186 00b8 03E0     		b	.L3
 187              	.LVL23:
 188              	.L11:
 189              	.LBB13:
 220:andonMenu.c   ****                                 case BOTTOM_RIGHT: 
 190              		.loc 1 220 0 discriminator 1
 191 00ba 8020     		movs	r0, #128
 192 00bc 0006     		lsls	r0, r0, #24
 193 00be 27E0     		b	.L15
 194              	.LVL24:
 195              	.L22:
 196              	.LBE13:
 191:andonMenu.c   ****    
 197              		.loc 1 191 0
 198 00c0 0023     		movs	r3, #0
 199              	.LVL25:
 200              	.L3:
 246:andonMenu.c   ****     }
 247:andonMenu.c   ****     if(bUpdate)
 201              		.loc 1 247 0
 202 00c2 002B     		cmp	r3, #0
 203 00c4 23D0     		beq	.L20
 204              	.LBB14:
 248:andonMenu.c   ****     {
ARM GAS  C:\Users\luvsd\AppData\Local\Temp\ccVgSZhb.s 			page 9


 249:andonMenu.c   ****         char msg[MAX_BUTTON_TEXT_SIZE];
 250:andonMenu.c   ****         sprintf(msg,"%s:#%d",item->text,not_completed_qty);
 205              		.loc 1 250 0
 206 00c6 2622     		movs	r2, #38
 207 00c8 6A43     		muls	r2, r5
 208 00ca 124B     		ldr	r3, .L25
 209              	.LVL26:
 210 00cc D218     		adds	r2, r2, r3
 211 00ce 0632     		adds	r2, r2, #6
 212 00d0 2300     		movs	r3, r4
 213 00d2 1349     		ldr	r1, .L25+12
 214 00d4 02A8     		add	r0, sp, #8
 215 00d6 FFF7FEFF 		bl	sprintf
 216              	.LVL27:
 251:andonMenu.c   ****         SetDrawListButtons(&menu,msg,listText,not_completed_qty ==0 ? 1: 2 , BUTTON_STYLE_LIST);   
 217              		.loc 1 251 0
 218 00da 002C     		cmp	r4, #0
 219 00dc 01D1     		bne	.L21
 220 00de 0123     		movs	r3, #1
 221 00e0 00E0     		b	.L16
 222              	.L21:
 223 00e2 0223     		movs	r3, #2
 224              	.L16:
 225              		.loc 1 251 0 is_stmt 0 discriminator 4
 226 00e4 0C4D     		ldr	r5, .L25+4
 227              	.LVL28:
 228 00e6 2C1D     		adds	r4, r5, #4
 229              	.LVL29:
 230 00e8 0022     		movs	r2, #0
 231 00ea 0092     		str	r2, [sp]
 232 00ec 0D4A     		ldr	r2, .L25+16
 233 00ee 02A9     		add	r1, sp, #8
 234 00f0 2000     		movs	r0, r4
 235 00f2 FFF7FEFF 		bl	SetDrawListButtons
 236              	.LVL30:
 252:andonMenu.c   ****         UpdateDrawListButtons(&menu,indexSelect);
 237              		.loc 1 252 0 is_stmt 1 discriminator 4
 238 00f6 2988     		ldrh	r1, [r5]
 239 00f8 2000     		movs	r0, r4
 240 00fa FFF7FEFF 		bl	UpdateDrawListButtons
 241              	.LVL31:
 253:andonMenu.c   ****         SetDrawBottomButtons("QUIT", "SEND", BUTTON_STYLE_R_GREEN, BUTTON_STYLE_R_BLUE);  
 242              		.loc 1 253 0 discriminator 4
 243 00fe 1223     		movs	r3, #18
 244 0100 1122     		movs	r2, #17
 245 0102 0949     		ldr	r1, .L25+20
 246 0104 0948     		ldr	r0, .L25+24
 247 0106 FFF7FEFF 		bl	SetDrawBottomButtons
 248              	.LVL32:
 249              	.LBE14:
 254:andonMenu.c   ****         bUpdate = FALSE;
 255:andonMenu.c   ****     }
 256:andonMenu.c   ****     return MENU_RETURN_THIS;    
 250              		.loc 1 256 0 discriminator 4
 251 010a 0948     		ldr	r0, .L25+28
 252 010c 00E0     		b	.L15
 253              	.LVL33:
ARM GAS  C:\Users\luvsd\AppData\Local\Temp\ccVgSZhb.s 			page 10


 254              	.L20:
 255              		.loc 1 256 0 is_stmt 0
 256 010e 0848     		ldr	r0, .L25+28
 257              	.LVL34:
 258              	.L15:
 257:andonMenu.c   **** }
 259              		.loc 1 257 0 is_stmt 1
 260 0110 0AB0     		add	sp, sp, #40
 261              		@ sp needed
 262 0112 70BD     		pop	{r4, r5, r6, pc}
 263              	.L26:
 264              		.align	2
 265              	.L25:
 266 0114 00000000 		.word	g_AndonLists
 267 0118 00000000 		.word	.LANCHOR0
 268 011c 00000000 		.word	g_btnBottom
 269 0120 00000000 		.word	.LC3
 270 0124 00000000 		.word	.LANCHOR1
 271 0128 08000000 		.word	.LC6
 272 012c 10000000 		.word	.LC8
 273 0130 01000080 		.word	-2147483647
 274              		.cfi_endproc
 275              	.LFE65:
 276              		.size	doAndonRequest, .-doAndonRequest
 277              		.section	.text.SetAndonListButtons,"ax",%progbits
 278              		.align	2
 279              		.global	SetAndonListButtons
 280              		.code	16
 281              		.thumb_func
 282              		.type	SetAndonListButtons, %function
 283              	SetAndonListButtons:
 284              	.LFB62:
  32:andonMenu.c   ****     RECT bodyRect = GetBodyArea();
 285              		.loc 1 32 0
 286              		.cfi_startproc
 287              		@ args = 0, pretend = 0, frame = 8
 288              		@ frame_needed = 0, uses_anonymous_args = 0
 289              	.LVL35:
 290 0000 F0B5     		push	{r4, r5, r6, r7, lr}
 291              		.cfi_def_cfa_offset 20
 292              		.cfi_offset 4, -20
 293              		.cfi_offset 5, -16
 294              		.cfi_offset 6, -12
 295              		.cfi_offset 7, -8
 296              		.cfi_offset 14, -4
 297 0002 5746     		mov	r7, r10
 298 0004 4E46     		mov	r6, r9
 299 0006 4546     		mov	r5, r8
 300 0008 E0B4     		push	{r5, r6, r7}
 301              		.cfi_def_cfa_offset 32
 302              		.cfi_offset 8, -32
 303              		.cfi_offset 9, -28
 304              		.cfi_offset 10, -24
 305 000a 84B0     		sub	sp, sp, #16
 306              		.cfi_def_cfa_offset 48
 307 000c 0700     		movs	r7, r0
 308 000e 0C00     		movs	r4, r1
ARM GAS  C:\Users\luvsd\AppData\Local\Temp\ccVgSZhb.s 			page 11


 309 0010 9146     		mov	r9, r2
  33:andonMenu.c   ****     uint16 yPos = bodyRect.top;
 310              		.loc 1 33 0
 311 0012 02AD     		add	r5, sp, #8
 312 0014 2800     		movs	r0, r5
 313              	.LVL36:
 314 0016 FFF7FEFF 		bl	GetBodyArea
 315              	.LVL37:
  34:andonMenu.c   ****     uint16 yPosTitle;
 316              		.loc 1 34 0
 317 001a AD88     		ldrh	r5, [r5, #4]
 318              	.LVL38:
  37:andonMenu.c   **** 
 319              		.loc 1 37 0
 320 001c FFF7FEFF 		bl	getMaxNoOfItemInListButton
 321              	.LVL39:
 322 0020 A023     		movs	r3, #160
 323 0022 9B00     		lsls	r3, r3, #2
 324 0024 F852     		strh	r0, [r7, r3]
  39:andonMenu.c   ****    
 325              		.loc 1 39 0
 326 0026 002C     		cmp	r4, #0
 327 0028 01D0     		beq	.L28
  39:andonMenu.c   ****    
 328              		.loc 1 39 0 is_stmt 0 discriminator 1
 329 002a 0138     		subs	r0, r0, #1
 330 002c F852     		strh	r0, [r7, r3]
 331              	.L28:
  41:andonMenu.c   ****     strcpy(menu->title,title);
 332              		.loc 1 41 0 is_stmt 1
 333 002e 4B46     		mov	r3, r9
 334 0030 5A78     		ldrb	r2, [r3, #1]
 335 0032 414B     		ldr	r3, .L38
 336 0034 FA52     		strh	r2, [r7, r3]
  42:andonMenu.c   **** 
 337              		.loc 1 42 0
 338 0036 2100     		movs	r1, r4
 339 0038 3800     		movs	r0, r7
 340 003a FFF7FEFF 		bl	strcpy
 341              	.LVL40:
  44:andonMenu.c   ****     
 342              		.loc 1 44 0
 343 003e 3800     		movs	r0, r7
 344 0040 FFF7FEFF 		bl	isExistScroll
 345              	.LVL41:
 346 0044 0100     		movs	r1, r0
 347 0046 8246     		mov	r10, r0
 348              	.LVL42:
  46:andonMenu.c   ****       
 349              		.loc 1 46 0
 350 0048 2000     		movs	r0, r4
 351 004a FFF7FEFF 		bl	DrawTitleButton
 352              	.LVL43:
 353 004e 8046     		mov	r8, r0
 354              	.LVL44:
 355 0050 0028     		cmp	r0, #0
 356 0052 00D1     		bne	.L29
ARM GAS  C:\Users\luvsd\AppData\Local\Temp\ccVgSZhb.s 			page 12


  34:andonMenu.c   ****     uint16 yPosTitle;
 357              		.loc 1 34 0
 358 0054 A846     		mov	r8, r5
 359              	.L29:
  34:andonMenu.c   ****     uint16 yPosTitle;
 360              		.loc 1 34 0 is_stmt 0 discriminator 1
 361 0056 0026     		movs	r6, #0
 362 0058 5CE0     		b	.L30
 363              	.LVL45:
 364              	.L36:
 365              	.LBB15:
 366              	.LBB16:
  50:andonMenu.c   ****         SetDefaultButtonStyle(btn);
 367              		.loc 1 50 0 is_stmt 1
 368 005a 751D     		adds	r5, r6, #5
 369 005c AD01     		lsls	r5, r5, #6
 370 005e 7D19     		adds	r5, r7, r5
 371              	.LVL46:
  51:andonMenu.c   ****         
 372              		.loc 1 51 0
 373 0060 2800     		movs	r0, r5
 374 0062 FFF7FEFF 		bl	SetDefaultButtonStyle
 375              	.LVL47:
  53:andonMenu.c   ****         
 376              		.loc 1 53 0
 377 0066 354B     		ldr	r3, .L38+4
 378 0068 1A88     		ldrh	r2, [r3]
 379 006a 5346     		mov	r3, r10
 380 006c 0193     		str	r3, [sp, #4]
 381 006e 0B23     		movs	r3, #11
 382 0070 0093     		str	r3, [sp]
 383 0072 0A3B     		subs	r3, r3, #10
 384 0074 4146     		mov	r1, r8
 385 0076 2800     		movs	r0, r5
 386 0078 FFF7FEFF 		bl	SetButtonSize
 387              	.LVL48:
  55:andonMenu.c   ****         if(textIdx >= menu->sizeOfList) break;
 388              		.loc 1 55 0
 389 007c A023     		movs	r3, #160
 390 007e 9B00     		lsls	r3, r3, #2
 391 0080 FC5A     		ldrh	r4, [r7, r3]
 392 0082 8433     		adds	r3, r3, #132
 393 0084 FB5A     		ldrh	r3, [r7, r3]
 394 0086 5C43     		muls	r4, r3
 395 0088 A419     		adds	r4, r4, r6
 396 008a A4B2     		uxth	r4, r4
 397              	.LVL49:
  56:andonMenu.c   ****      
 398              		.loc 1 56 0
 399 008c 2A4B     		ldr	r3, .L38
 400 008e FB5A     		ldrh	r3, [r7, r3]
 401 0090 9C42     		cmp	r4, r3
 402 0092 44D2     		bcs	.L31
 403              	.LVL50:
  59:andonMenu.c   ****         
 404              		.loc 1 59 0
 405 0094 2623     		movs	r3, #38
ARM GAS  C:\Users\luvsd\AppData\Local\Temp\ccVgSZhb.s 			page 13


 406 0096 6343     		muls	r3, r4
 407 0098 4B44     		add	r3, r3, r9
 408 009a 2822     		movs	r2, #40
 409 009c 9B5E     		ldrsh	r3, [r3, r2]
 410              	.LVL51:
  61:andonMenu.c   ****             SetButtonStyleColor(btn, BUTTON_STYLE_LIST); 
 411              		.loc 1 61 0
 412 009e 002B     		cmp	r3, #0
 413 00a0 04D1     		bne	.L32
  62:andonMenu.c   ****         else
 414              		.loc 1 62 0
 415 00a2 0021     		movs	r1, #0
 416 00a4 2800     		movs	r0, r5
 417 00a6 FFF7FEFF 		bl	SetButtonStyleColor
 418              	.LVL52:
 419 00aa 03E0     		b	.L33
 420              	.LVL53:
 421              	.L32:
  65:andonMenu.c   ****             
 422              		.loc 1 65 0
 423 00ac 0E21     		movs	r1, #14
 424 00ae 2800     		movs	r0, r5
 425 00b0 FFF7FEFF 		bl	SetButtonStyleColor
 426              	.LVL54:
 427              	.L33:
  67:andonMenu.c   ****             
 428              		.loc 1 67 0
 429 00b4 B301     		lsls	r3, r6, #6
 430 00b6 FB18     		adds	r3, r7, r3
 431 00b8 7B33     		adds	r3, r3, #123
 432 00ba FF33     		adds	r3, r3, #255
 433 00bc 0122     		movs	r2, #1
 434 00be 1A70     		strb	r2, [r3]
  69:andonMenu.c   ****         {
 435              		.loc 1 69 0
 436 00c0 FFF7FEFF 		bl	getMiscConfig
 437              	.LVL55:
 438 00c4 0388     		ldrh	r3, [r0]
 439 00c6 002B     		cmp	r3, #0
 440 00c8 0FD1     		bne	.L34
  71:andonMenu.c   ****         }
 441              		.loc 1 71 0
 442 00ca B300     		lsls	r3, r6, #2
 443 00cc 9B19     		adds	r3, r3, r6
 444 00ce 9800     		lsls	r0, r3, #2
 445 00d0 1030     		adds	r0, r0, #16
 446 00d2 3818     		adds	r0, r7, r0
 447 00d4 0430     		adds	r0, r0, #4
 448 00d6 2623     		movs	r3, #38
 449 00d8 5C43     		muls	r4, r3
 450              	.LVL56:
 451 00da 4C44     		add	r4, r4, r9
 452 00dc A21D     		adds	r2, r4, #6
 453 00de 2821     		movs	r1, #40
 454 00e0 635E     		ldrsh	r3, [r4, r1]
 455 00e2 1749     		ldr	r1, .L38+8
 456 00e4 FFF7FEFF 		bl	sprintf
ARM GAS  C:\Users\luvsd\AppData\Local\Temp\ccVgSZhb.s 			page 14


 457              	.LVL57:
 458 00e8 0EE0     		b	.L35
 459              	.LVL58:
 460              	.L34:
  75:andonMenu.c   ****         }
 461              		.loc 1 75 0
 462 00ea B300     		lsls	r3, r6, #2
 463 00ec 9B19     		adds	r3, r3, r6
 464 00ee 9800     		lsls	r0, r3, #2
 465 00f0 1030     		adds	r0, r0, #16
 466 00f2 3818     		adds	r0, r7, r0
 467 00f4 0430     		adds	r0, r0, #4
 468 00f6 2623     		movs	r3, #38
 469 00f8 5C43     		muls	r4, r3
 470              	.LVL59:
 471 00fa 4C44     		add	r4, r4, r9
 472 00fc A21D     		adds	r2, r4, #6
 473 00fe 2821     		movs	r1, #40
 474 0100 635E     		ldrsh	r3, [r4, r1]
 475 0102 1049     		ldr	r1, .L38+12
 476 0104 FFF7FEFF 		bl	sprintf
 477              	.LVL60:
 478              	.L35:
  78:andonMenu.c   ****     }
 479              		.loc 1 78 0 discriminator 2
 480 0108 0C4B     		ldr	r3, .L38+4
 481 010a 1888     		ldrh	r0, [r3]
 482 010c 4044     		add	r0, r0, r8
 483 010e 83B2     		uxth	r3, r0
 484 0110 9846     		mov	r8, r3
 485              	.LVL61:
 486              	.LBE16:
  48:andonMenu.c   ****     {                        
 487              		.loc 1 48 0 discriminator 2
 488 0112 0136     		adds	r6, r6, #1
 489              	.LVL62:
 490              	.L30:
  48:andonMenu.c   ****     {                        
 491              		.loc 1 48 0 is_stmt 0 discriminator 1
 492 0114 A023     		movs	r3, #160
 493 0116 9B00     		lsls	r3, r3, #2
 494 0118 FB5A     		ldrh	r3, [r7, r3]
 495 011a 9E42     		cmp	r6, r3
 496 011c 9DDB     		blt	.L36
 497              	.L31:
 498              	.LBE15:
  81:andonMenu.c   **** }
 499              		.loc 1 81 0 is_stmt 1
 500 011e 5346     		mov	r3, r10
 501 0120 002B     		cmp	r3, #0
 502 0122 02D0     		beq	.L27
  81:andonMenu.c   **** }
 503              		.loc 1 81 0 is_stmt 0 discriminator 1
 504 0124 3800     		movs	r0, r7
 505 0126 FFF7FEFF 		bl	SetDrawScrollButton
 506              	.LVL63:
 507              	.L27:
ARM GAS  C:\Users\luvsd\AppData\Local\Temp\ccVgSZhb.s 			page 15


  82:andonMenu.c   **** 
 508              		.loc 1 82 0 is_stmt 1
 509 012a 04B0     		add	sp, sp, #16
 510              		@ sp needed
 511              	.LVL64:
 512              	.LVL65:
 513              	.LVL66:
 514              	.LVL67:
 515 012c 1CBC     		pop	{r2, r3, r4}
 516 012e 9046     		mov	r8, r2
 517 0130 9946     		mov	r9, r3
 518 0132 A246     		mov	r10, r4
 519 0134 F0BD     		pop	{r4, r5, r6, r7, pc}
 520              	.L39:
 521 0136 C046     		.align	2
 522              	.L38:
 523 0138 82020000 		.word	642
 524 013c 00000000 		.word	g_DEFAULT_BUTTON_HEIGHT
 525 0140 18000000 		.word	.LC12
 526 0144 24000000 		.word	.LC14
 527              		.cfi_endproc
 528              	.LFE62:
 529              		.size	SetAndonListButtons, .-SetAndonListButtons
 530              		.section	.text.updateDateTime,"ax",%progbits
 531              		.align	2
 532              		.global	updateDateTime
 533              		.code	16
 534              		.thumb_func
 535              		.type	updateDateTime, %function
 536              	updateDateTime:
 537              	.LFB63:
  85:andonMenu.c   ****     static uint32 uOldtSeconds = 0, bToggle=TRUE;
 538              		.loc 1 85 0
 539              		.cfi_startproc
 540              		@ args = 0, pretend = 0, frame = 0
 541              		@ frame_needed = 0, uses_anonymous_args = 0
 542              	.LVL68:
 543 0000 10B5     		push	{r4, lr}
 544              		.cfi_def_cfa_offset 8
 545              		.cfi_offset 4, -8
 546              		.cfi_offset 14, -4
 547 0002 0400     		movs	r4, r0
  88:andonMenu.c   ****     
 548              		.loc 1 88 0
 549 0004 FFF7FEFF 		bl	RTC_GetTime
 550              	.LVL69:
 551              	.LBB17:
 552              	.LBB18:
 553              		.file 2 "Generated_Source\\PSoC4/RTC.h"
   1:Generated_Source\PSoC4/RTC.h **** /***************************************************************************//**
   2:Generated_Source\PSoC4/RTC.h **** * \file Name: RTC.h
   3:Generated_Source\PSoC4/RTC.h **** * \version 1.30
   4:Generated_Source\PSoC4/RTC.h **** *
   5:Generated_Source\PSoC4/RTC.h **** *  This file provides constants and parameter values for the RTC_P4 Component.
   6:Generated_Source\PSoC4/RTC.h **** *
   7:Generated_Source\PSoC4/RTC.h **** ********************************************************************************
   8:Generated_Source\PSoC4/RTC.h **** * Copyright 2015-2017, Cypress Semiconductor Corporation.  All rights reserved.
ARM GAS  C:\Users\luvsd\AppData\Local\Temp\ccVgSZhb.s 			page 16


   9:Generated_Source\PSoC4/RTC.h **** * You may use this file only in accordance with the license, terms, conditions,
  10:Generated_Source\PSoC4/RTC.h **** * disclaimers, and limitations in the end user license agreement accompanying
  11:Generated_Source\PSoC4/RTC.h **** * the software package with which this file was provided.
  12:Generated_Source\PSoC4/RTC.h **** *******************************************************************************/
  13:Generated_Source\PSoC4/RTC.h **** 
  14:Generated_Source\PSoC4/RTC.h **** #if !defined(CY_RTC_P4_RTC_H)
  15:Generated_Source\PSoC4/RTC.h **** #define CY_RTC_P4_RTC_H
  16:Generated_Source\PSoC4/RTC.h **** 
  17:Generated_Source\PSoC4/RTC.h **** #include <cytypes.h>
  18:Generated_Source\PSoC4/RTC.h **** #include <CyLib.h>
  19:Generated_Source\PSoC4/RTC.h **** 
  20:Generated_Source\PSoC4/RTC.h **** 
  21:Generated_Source\PSoC4/RTC.h **** /*******************************************************************************
  22:Generated_Source\PSoC4/RTC.h **** *    Data types definition
  23:Generated_Source\PSoC4/RTC.h **** *******************************************************************************/
  24:Generated_Source\PSoC4/RTC.h **** /**
  25:Generated_Source\PSoC4/RTC.h **** * \addtogroup group_enums
  26:Generated_Source\PSoC4/RTC.h **** * \{
  27:Generated_Source\PSoC4/RTC.h **** */
  28:Generated_Source\PSoC4/RTC.h **** /** Daylight saving Time format enumeration */
  29:Generated_Source\PSoC4/RTC.h **** typedef enum
  30:Generated_Source\PSoC4/RTC.h **** {
  31:Generated_Source\PSoC4/RTC.h ****     RTC_DST_DATE_RELATIVE = 0u,  /**< Relative DST format */
  32:Generated_Source\PSoC4/RTC.h ****     RTC_DST_DATE_FIXED = 1u      /**< Fixed DST format */
  33:Generated_Source\PSoC4/RTC.h **** }RTC_DST_DATETYPE_ENUM;
  34:Generated_Source\PSoC4/RTC.h **** /** \} group_enums */
  35:Generated_Source\PSoC4/RTC.h **** 
  36:Generated_Source\PSoC4/RTC.h **** /**
  37:Generated_Source\PSoC4/RTC.h **** * \addtogroup group_structures
  38:Generated_Source\PSoC4/RTC.h **** * \{
  39:Generated_Source\PSoC4/RTC.h **** */
  40:Generated_Source\PSoC4/RTC.h **** 
  41:Generated_Source\PSoC4/RTC.h **** /** RTC_DATE_TIME structure is the data structure that is used to 
  42:Generated_Source\PSoC4/RTC.h **** * save the current time and date (RTC_currentTimeDate), and Alarm time and date 
  43:Generated_Source\PSoC4/RTC.h **** *(RTC_alarmCfgTimeDate)
  44:Generated_Source\PSoC4/RTC.h **** *
  45:Generated_Source\PSoC4/RTC.h **** */
  46:Generated_Source\PSoC4/RTC.h **** typedef struct
  47:Generated_Source\PSoC4/RTC.h **** {
  48:Generated_Source\PSoC4/RTC.h ****     uint32 time;        /**< Time in the format used in API*/
  49:Generated_Source\PSoC4/RTC.h ****     uint32 date;        /**< Date in the format used in API*/
  50:Generated_Source\PSoC4/RTC.h ****     uint32 dayOfWeek;   /**< Day of the week, see \ref group_rtc_day_of_the_week */
  51:Generated_Source\PSoC4/RTC.h ****     uint32 status;      /**< RTC status, see \ref group_rtc_status */
  52:Generated_Source\PSoC4/RTC.h **** }RTC_DATE_TIME;
  53:Generated_Source\PSoC4/RTC.h **** 
  54:Generated_Source\PSoC4/RTC.h **** /*
  55:Generated_Source\PSoC4/RTC.h **** * RTC_DST_TIME structure is the data structure that is used to 
  56:Generated_Source\PSoC4/RTC.h **** * save time and date values for Daylight Savings Time Start and Stop 
  57:Generated_Source\PSoC4/RTC.h **** * (RTC_dstTimeDateStart and RTC_dstTimeDateStop)
  58:Generated_Source\PSoC4/RTC.h **** */
  59:Generated_Source\PSoC4/RTC.h **** typedef struct
  60:Generated_Source\PSoC4/RTC.h **** {
  61:Generated_Source\PSoC4/RTC.h ****     uint32 hour;          /**< Hour value */
  62:Generated_Source\PSoC4/RTC.h ****     uint32 dayOfWeek;     /**< Day of the week, see \ref group_rtc_day_of_the_week */
  63:Generated_Source\PSoC4/RTC.h ****     uint32 dayOfMonth;    /**< Day of the month */
  64:Generated_Source\PSoC4/RTC.h ****     uint32 weekOfMonth;   /**< Week of the month, see \ref group_rtc_dst_week_of_month */
  65:Generated_Source\PSoC4/RTC.h ****     uint32 month;         /**< Month value, see \ref group_rtc_month */
ARM GAS  C:\Users\luvsd\AppData\Local\Temp\ccVgSZhb.s 			page 17


  66:Generated_Source\PSoC4/RTC.h ****     uint8  timeFormat;    /**< The DST operation mode, see \ref 
  67:Generated_Source\PSoC4/RTC.h ****                                RTC_DST_DATETYPE_ENUM */
  68:Generated_Source\PSoC4/RTC.h **** }RTC_DST_TIME;
  69:Generated_Source\PSoC4/RTC.h **** /** \} group_structures */
  70:Generated_Source\PSoC4/RTC.h **** 
  71:Generated_Source\PSoC4/RTC.h **** /*******************************************************************************
  72:Generated_Source\PSoC4/RTC.h **** *    Enumerated Types and Parameters
  73:Generated_Source\PSoC4/RTC.h **** *******************************************************************************/
  74:Generated_Source\PSoC4/RTC.h **** /* Time Format setting constants */
  75:Generated_Source\PSoC4/RTC.h **** #define RTC__HOUR_12 1
  76:Generated_Source\PSoC4/RTC.h **** #define RTC__HOUR_24 0
  77:Generated_Source\PSoC4/RTC.h **** 
  78:Generated_Source\PSoC4/RTC.h **** /*  Date Format setting constants */
  79:Generated_Source\PSoC4/RTC.h **** #define RTC__MM_DD_YYYY 0
  80:Generated_Source\PSoC4/RTC.h **** #define RTC__DD_MM_YYYY 1
  81:Generated_Source\PSoC4/RTC.h **** #define RTC__YYYY_MM_DD 2
  82:Generated_Source\PSoC4/RTC.h **** 
  83:Generated_Source\PSoC4/RTC.h **** /* Date Type setting constants */
  84:Generated_Source\PSoC4/RTC.h **** #define RTC__RELATIVE 0
  85:Generated_Source\PSoC4/RTC.h **** #define RTC__FIXED 1
  86:Generated_Source\PSoC4/RTC.h **** 
  87:Generated_Source\PSoC4/RTC.h **** /* DST Hour setting constants */
  88:Generated_Source\PSoC4/RTC.h **** #define RTC__H0000 0
  89:Generated_Source\PSoC4/RTC.h **** #define RTC__H0100 1
  90:Generated_Source\PSoC4/RTC.h **** #define RTC__H0200 2
  91:Generated_Source\PSoC4/RTC.h **** #define RTC__H0300 3
  92:Generated_Source\PSoC4/RTC.h **** #define RTC__H0400 4
  93:Generated_Source\PSoC4/RTC.h **** #define RTC__H0500 5
  94:Generated_Source\PSoC4/RTC.h **** #define RTC__H0600 6
  95:Generated_Source\PSoC4/RTC.h **** #define RTC__H0700 7
  96:Generated_Source\PSoC4/RTC.h **** #define RTC__H0800 8
  97:Generated_Source\PSoC4/RTC.h **** #define RTC__H0900 9
  98:Generated_Source\PSoC4/RTC.h **** #define RTC__H1000 10
  99:Generated_Source\PSoC4/RTC.h **** #define RTC__H1100 11
 100:Generated_Source\PSoC4/RTC.h **** #define RTC__H1200 12
 101:Generated_Source\PSoC4/RTC.h **** #define RTC__H1300 13
 102:Generated_Source\PSoC4/RTC.h **** #define RTC__H1400 14
 103:Generated_Source\PSoC4/RTC.h **** #define RTC__H1500 15
 104:Generated_Source\PSoC4/RTC.h **** #define RTC__H1600 16
 105:Generated_Source\PSoC4/RTC.h **** #define RTC__H1700 17
 106:Generated_Source\PSoC4/RTC.h **** #define RTC__H1800 18
 107:Generated_Source\PSoC4/RTC.h **** #define RTC__H1900 19
 108:Generated_Source\PSoC4/RTC.h **** #define RTC__H2000 20
 109:Generated_Source\PSoC4/RTC.h **** #define RTC__H2100 21
 110:Generated_Source\PSoC4/RTC.h **** #define RTC__H2200 22
 111:Generated_Source\PSoC4/RTC.h **** #define RTC__H2300 23
 112:Generated_Source\PSoC4/RTC.h **** 
 113:Generated_Source\PSoC4/RTC.h **** /* DST DayOfWeek setting constants */
 114:Generated_Source\PSoC4/RTC.h **** #define RTC__SUNDAY 1
 115:Generated_Source\PSoC4/RTC.h **** #define RTC__MONDAY 2
 116:Generated_Source\PSoC4/RTC.h **** #define RTC__TUESDAY 3
 117:Generated_Source\PSoC4/RTC.h **** #define RTC__WEDNESDAY 4
 118:Generated_Source\PSoC4/RTC.h **** #define RTC__THURSDAY 5
 119:Generated_Source\PSoC4/RTC.h **** #define RTC__FRIDAY 6
 120:Generated_Source\PSoC4/RTC.h **** #define RTC__SATURDAY 7
 121:Generated_Source\PSoC4/RTC.h **** 
 122:Generated_Source\PSoC4/RTC.h **** /* DST Month setting constants */
ARM GAS  C:\Users\luvsd\AppData\Local\Temp\ccVgSZhb.s 			page 18


 123:Generated_Source\PSoC4/RTC.h **** #define RTC__JAN 1
 124:Generated_Source\PSoC4/RTC.h **** #define RTC__FEB 2
 125:Generated_Source\PSoC4/RTC.h **** #define RTC__MAR 3
 126:Generated_Source\PSoC4/RTC.h **** #define RTC__APR 4
 127:Generated_Source\PSoC4/RTC.h **** #define RTC__MAY 5
 128:Generated_Source\PSoC4/RTC.h **** #define RTC__JUN 6
 129:Generated_Source\PSoC4/RTC.h **** #define RTC__JUL 7
 130:Generated_Source\PSoC4/RTC.h **** #define RTC__AUG 8
 131:Generated_Source\PSoC4/RTC.h **** #define RTC__SEP 9
 132:Generated_Source\PSoC4/RTC.h **** #define RTC__OCT 10
 133:Generated_Source\PSoC4/RTC.h **** #define RTC__NOV 11
 134:Generated_Source\PSoC4/RTC.h **** #define RTC__DEC 12
 135:Generated_Source\PSoC4/RTC.h **** 
 136:Generated_Source\PSoC4/RTC.h **** /* DST WeekOfMonth setting constants */
 137:Generated_Source\PSoC4/RTC.h **** #define RTC__FIRST 1
 138:Generated_Source\PSoC4/RTC.h **** #define RTC__SECOND 2
 139:Generated_Source\PSoC4/RTC.h **** #define RTC__THIRD 3
 140:Generated_Source\PSoC4/RTC.h **** #define RTC__FOURTH 4
 141:Generated_Source\PSoC4/RTC.h **** #define RTC__FIFTH 5
 142:Generated_Source\PSoC4/RTC.h **** #define RTC__LAST 6
 143:Generated_Source\PSoC4/RTC.h **** 
 144:Generated_Source\PSoC4/RTC.h **** 
 145:Generated_Source\PSoC4/RTC.h **** #define RTC_INITIAL_DATA_FORMAT     (0u)
 146:Generated_Source\PSoC4/RTC.h **** #define RTC_INITIAL_TIME_FORMAT     (0u)
 147:Generated_Source\PSoC4/RTC.h **** #define RTC_INITIAL_UPDATE_MODE     (0u)
 148:Generated_Source\PSoC4/RTC.h **** #define RTC_INITIAL_SECOND          (0u)
 149:Generated_Source\PSoC4/RTC.h **** #define RTC_INITIAL_MINUTE          (0u)
 150:Generated_Source\PSoC4/RTC.h **** #define RTC_INITIAL_HOUR            (0u)
 151:Generated_Source\PSoC4/RTC.h **** #define RTC_INITIAL_DAY             (1u)
 152:Generated_Source\PSoC4/RTC.h **** #define RTC_INITIAL_MONTH           (1u)
 153:Generated_Source\PSoC4/RTC.h **** #define RTC_INITIAL_YEAR            (1970u)
 154:Generated_Source\PSoC4/RTC.h **** 
 155:Generated_Source\PSoC4/RTC.h **** #define RTC_INITIAL_ALARM_STATUS    (0u)
 156:Generated_Source\PSoC4/RTC.h **** 
 157:Generated_Source\PSoC4/RTC.h **** #define RTC_INITIAL_DST_STATUS      (0u)
 158:Generated_Source\PSoC4/RTC.h **** #define RTC_INITIAL_DST_DATE_TYPE   (1u)
 159:Generated_Source\PSoC4/RTC.h **** #define RTC_INITIAL_DST_START_MONTH (3uL)
 160:Generated_Source\PSoC4/RTC.h **** #define RTC_INITIAL_DST_START_WOM   (6uL)
 161:Generated_Source\PSoC4/RTC.h **** #define RTC_INITIAL_DST_START_DOM   (22uL)
 162:Generated_Source\PSoC4/RTC.h **** #define RTC_INITIAL_DST_START_DOW   (1uL)
 163:Generated_Source\PSoC4/RTC.h **** #define RTC_INITIAL_DST_START_HRS   (3uL)
 164:Generated_Source\PSoC4/RTC.h **** #define RTC_INITIAL_DST_STOP_MONTH  (10uL)
 165:Generated_Source\PSoC4/RTC.h **** #define RTC_INITIAL_DST_STOP_DOM    (22uL)
 166:Generated_Source\PSoC4/RTC.h **** #define RTC_INITIAL_DST_STOP_DOW    (1uL)
 167:Generated_Source\PSoC4/RTC.h **** #define RTC_INITIAL_DST_STOP_WOM    (6uL)
 168:Generated_Source\PSoC4/RTC.h **** #define RTC_INITIAL_DST_STOP_HRS    (3uL)
 169:Generated_Source\PSoC4/RTC.h **** 
 170:Generated_Source\PSoC4/RTC.h **** /**
 171:Generated_Source\PSoC4/RTC.h **** * \addtogroup group_constants
 172:Generated_Source\PSoC4/RTC.h **** * \{
 173:Generated_Source\PSoC4/RTC.h **** */
 174:Generated_Source\PSoC4/RTC.h **** 
 175:Generated_Source\PSoC4/RTC.h **** /**
 176:Generated_Source\PSoC4/RTC.h **** * \defgroup group_rtc_day_of_the_week Day of the week definitions
 177:Generated_Source\PSoC4/RTC.h **** * \{
 178:Generated_Source\PSoC4/RTC.h **** * Definitions of days in the week
 179:Generated_Source\PSoC4/RTC.h **** */
ARM GAS  C:\Users\luvsd\AppData\Local\Temp\ccVgSZhb.s 			page 19


 180:Generated_Source\PSoC4/RTC.h **** #define RTC_SUNDAY     (RTC__SUNDAY)       /**< Sequential number of Sunday in the week */
 181:Generated_Source\PSoC4/RTC.h **** #define RTC_MONDAY     (RTC__MONDAY)       /**< Sequential number of Monday in the week */
 182:Generated_Source\PSoC4/RTC.h **** #define RTC_TUESDAY    (RTC__TUESDAY)      /**< Sequential number of Tuesday in the week */
 183:Generated_Source\PSoC4/RTC.h **** #define RTC_WEDNESDAY  (RTC__WEDNESDAY)    /**< Sequential number of Wednesday in the week */
 184:Generated_Source\PSoC4/RTC.h **** #define RTC_THURSDAY   (RTC__THURSDAY)     /**< Sequential number of Thursday in the week */
 185:Generated_Source\PSoC4/RTC.h **** #define RTC_FRIDAY     (RTC__FRIDAY)       /**< Sequential number of Friday in the week */
 186:Generated_Source\PSoC4/RTC.h **** #define RTC_SATURDAY   (RTC__SATURDAY)     /**< Sequential number of Saturday in the week */
 187:Generated_Source\PSoC4/RTC.h **** /** \} group_rtc_day_of_the_week */
 188:Generated_Source\PSoC4/RTC.h **** 
 189:Generated_Source\PSoC4/RTC.h **** /**
 190:Generated_Source\PSoC4/RTC.h **** * \defgroup group_rtc_dst_week_of_month DST Week of month setting constants definitions
 191:Generated_Source\PSoC4/RTC.h **** * \{
 192:Generated_Source\PSoC4/RTC.h **** * Week of month setting constants definitions for Daylight Saving Time feature
 193:Generated_Source\PSoC4/RTC.h **** */
 194:Generated_Source\PSoC4/RTC.h **** #define RTC_FIRST      (RTC__FIRST)   /**< First week in the month */
 195:Generated_Source\PSoC4/RTC.h **** #define RTC_SECOND     (RTC__SECOND)  /**< Second week in the month  */
 196:Generated_Source\PSoC4/RTC.h **** #define RTC_THIRD      (RTC__THIRD)   /**< Third week in the month  */
 197:Generated_Source\PSoC4/RTC.h **** #define RTC_FOURTH     (RTC__FOURTH)  /**< Fourth week in the month  */
 198:Generated_Source\PSoC4/RTC.h **** #define RTC_FIFTH      (RTC__FIFTH)   /**< Fifth week in the month  */
 199:Generated_Source\PSoC4/RTC.h **** #define RTC_LAST       (RTC__LAST)    /**< Last week in the month  */
 200:Generated_Source\PSoC4/RTC.h **** /** \} group_rtc_dst_week_of_month */
 201:Generated_Source\PSoC4/RTC.h **** 
 202:Generated_Source\PSoC4/RTC.h **** /**
 203:Generated_Source\PSoC4/RTC.h **** * \defgroup group_rtc_month Month definitions
 204:Generated_Source\PSoC4/RTC.h **** * \{
 205:Generated_Source\PSoC4/RTC.h **** * Constants definition for Months
 206:Generated_Source\PSoC4/RTC.h **** */
 207:Generated_Source\PSoC4/RTC.h **** #define RTC_JANUARY    (RTC__JAN)    /**< Sequential number of January in the year */
 208:Generated_Source\PSoC4/RTC.h **** #define RTC_FEBRUARY   (RTC__FEB)    /**< Sequential number of February in the year */
 209:Generated_Source\PSoC4/RTC.h **** #define RTC_MARCH      (RTC__MAR)    /**< Sequential number of March in the year */
 210:Generated_Source\PSoC4/RTC.h **** #define RTC_APRIL      (RTC__APR)    /**< Sequential number of April in the year */
 211:Generated_Source\PSoC4/RTC.h **** #define RTC_MAY        (RTC__MAY)    /**< Sequential number of May in the year */
 212:Generated_Source\PSoC4/RTC.h **** #define RTC_JUNE       (RTC__JUN)    /**< Sequential number of June in the year */
 213:Generated_Source\PSoC4/RTC.h **** #define RTC_JULY       (RTC__JUL)    /**< Sequential number of July in the year */
 214:Generated_Source\PSoC4/RTC.h **** #define RTC_AUGUST     (RTC__AUG)    /**< Sequential number of August in the year */
 215:Generated_Source\PSoC4/RTC.h **** #define RTC_SEPTEMBER  (RTC__SEP)    /**< Sequential number of September in the year */
 216:Generated_Source\PSoC4/RTC.h **** #define RTC_OCTOBER    (RTC__OCT)    /**< Sequential number of October in the year */
 217:Generated_Source\PSoC4/RTC.h **** #define RTC_NOVEMBER   (RTC__NOV)    /**< Sequential number of November in the year */
 218:Generated_Source\PSoC4/RTC.h **** #define RTC_DECEMBER   (RTC__DEC)    /**< Sequential number of December in the year */
 219:Generated_Source\PSoC4/RTC.h **** /** \} group_rtc_month */
 220:Generated_Source\PSoC4/RTC.h **** 
 221:Generated_Source\PSoC4/RTC.h **** /**
 222:Generated_Source\PSoC4/RTC.h **** * \defgroup group_rtc_am_pm AM/PM status definitions
 223:Generated_Source\PSoC4/RTC.h **** * \{
 224:Generated_Source\PSoC4/RTC.h **** * Definitions for 12 hour format for indicating the AM/PM period of day
 225:Generated_Source\PSoC4/RTC.h **** */
 226:Generated_Source\PSoC4/RTC.h **** #define RTC_AM                 (0u)    /**< AM period of day */
 227:Generated_Source\PSoC4/RTC.h **** #define RTC_PM                 (1u)    /**< PM period of day */
 228:Generated_Source\PSoC4/RTC.h **** /** \} group_rtc_am_pm */
 229:Generated_Source\PSoC4/RTC.h **** 
 230:Generated_Source\PSoC4/RTC.h **** /**
 231:Generated_Source\PSoC4/RTC.h **** * \defgroup group_rtc_hour_format Hour format definitions
 232:Generated_Source\PSoC4/RTC.h **** * \{
 233:Generated_Source\PSoC4/RTC.h **** * Definitions for hour format
 234:Generated_Source\PSoC4/RTC.h **** */
 235:Generated_Source\PSoC4/RTC.h **** #define RTC_12_HOURS_FORMAT    (RTC__HOUR_12) /**< The 12 hour (AM/PM) format */
 236:Generated_Source\PSoC4/RTC.h **** #define RTC_24_HOURS_FORMAT    (RTC__HOUR_24) /**< The 24 hour format */
ARM GAS  C:\Users\luvsd\AppData\Local\Temp\ccVgSZhb.s 			page 20


 237:Generated_Source\PSoC4/RTC.h **** /** \} group_rtc_hour_format */
 238:Generated_Source\PSoC4/RTC.h **** 
 239:Generated_Source\PSoC4/RTC.h **** /**
 240:Generated_Source\PSoC4/RTC.h **** * \defgroup group_rtc_days_in_month Number of days in month definitions
 241:Generated_Source\PSoC4/RTC.h **** * \{
 242:Generated_Source\PSoC4/RTC.h **** * Definition of days in current month
 243:Generated_Source\PSoC4/RTC.h **** */
 244:Generated_Source\PSoC4/RTC.h **** #define RTC_DAYS_IN_JANUARY     (31u)    /**< Number of days in January  */
 245:Generated_Source\PSoC4/RTC.h **** #define RTC_DAYS_IN_FEBRUARY    (28u)    /**< Number of days in February */
 246:Generated_Source\PSoC4/RTC.h **** #define RTC_DAYS_IN_MARCH       (31u)    /**< Number of days in March */
 247:Generated_Source\PSoC4/RTC.h **** #define RTC_DAYS_IN_APRIL       (30u)    /**< Number of days in April */
 248:Generated_Source\PSoC4/RTC.h **** #define RTC_DAYS_IN_MAY         (31u)    /**< Number of days in May */
 249:Generated_Source\PSoC4/RTC.h **** #define RTC_DAYS_IN_JUNE        (30u)    /**< Number of days in June */
 250:Generated_Source\PSoC4/RTC.h **** #define RTC_DAYS_IN_JULY        (31u)    /**< Number of days in July */
 251:Generated_Source\PSoC4/RTC.h **** #define RTC_DAYS_IN_AUGUST      (31u)    /**< Number of days in August */
 252:Generated_Source\PSoC4/RTC.h **** #define RTC_DAYS_IN_SEPTEMBER   (30u)    /**< Number of days in September */
 253:Generated_Source\PSoC4/RTC.h **** #define RTC_DAYS_IN_OCTOBER     (31u)    /**< Number of days in October */
 254:Generated_Source\PSoC4/RTC.h **** #define RTC_DAYS_IN_NOVEMBER    (30u)    /**< Number of days in November */
 255:Generated_Source\PSoC4/RTC.h **** #define RTC_DAYS_IN_DECEMBER    (31u)    /**< Number of days in December */
 256:Generated_Source\PSoC4/RTC.h **** /** \} group_rtc_days_in_month */
 257:Generated_Source\PSoC4/RTC.h **** 
 258:Generated_Source\PSoC4/RTC.h **** /**
 259:Generated_Source\PSoC4/RTC.h **** * \defgroup group_rtc_status Definitions of the RTC status values
 260:Generated_Source\PSoC4/RTC.h **** * \{
 261:Generated_Source\PSoC4/RTC.h **** * Definitions for status software register, which has flags for DST (DST),
 262:Generated_Source\PSoC4/RTC.h **** * Leap Year (LY), AM/PM (AM_PM).
 263:Generated_Source\PSoC4/RTC.h **** */
 264:Generated_Source\PSoC4/RTC.h **** 
 265:Generated_Source\PSoC4/RTC.h **** /** Status of Daylight Saving Time. This bit
 266:Generated_Source\PSoC4/RTC.h **** * goes high when the current time and date match the DST time and date and the 
 267:Generated_Source\PSoC4/RTC.h **** * time is incremented. This bit goes low after the DST interval and the time is 
 268:Generated_Source\PSoC4/RTC.h **** * decremented.
 269:Generated_Source\PSoC4/RTC.h **** */
 270:Generated_Source\PSoC4/RTC.h **** #define RTC_STATUS_DST     (1uL << RTC_STATUS_DST_OFFSET)
 271:Generated_Source\PSoC4/RTC.h **** 
 272:Generated_Source\PSoC4/RTC.h **** /** Status of Leap Year. This bit goes high when the current year is a leap year */
 273:Generated_Source\PSoC4/RTC.h **** #define RTC_STATUS_LY      (1uL << RTC_STATUS_LY_OFFSET)
 274:Generated_Source\PSoC4/RTC.h **** 
 275:Generated_Source\PSoC4/RTC.h **** /** Status of Current Time. This bit is low from midnight to noon and high from 
 276:Generated_Source\PSoC4/RTC.h **** *  noon to midnight. */
 277:Generated_Source\PSoC4/RTC.h **** #define RTC_STATUS_AM_PM   (1uL << RTC_STATUS_AM_PM_OFFSET)
 278:Generated_Source\PSoC4/RTC.h **** /** \} group_rtc_status */
 279:Generated_Source\PSoC4/RTC.h **** 
 280:Generated_Source\PSoC4/RTC.h **** /**
 281:Generated_Source\PSoC4/RTC.h **** * \defgroup group_rtc_alarm_mask Definitions for Alarm Mask software register
 282:Generated_Source\PSoC4/RTC.h **** * \{
 283:Generated_Source\PSoC4/RTC.h **** * Definitions for Alarm Mask software register. These masks allow 
 284:Generated_Source\PSoC4/RTC.h **** * matching the alarm value register with the current value register.
 285:Generated_Source\PSoC4/RTC.h **** */
 286:Generated_Source\PSoC4/RTC.h **** 
 287:Generated_Source\PSoC4/RTC.h **** /** The second alarm mask allows matching the alarm second register with the 
 288:Generated_Source\PSoC4/RTC.h **** *   current second register.
 289:Generated_Source\PSoC4/RTC.h **** */
 290:Generated_Source\PSoC4/RTC.h **** #define RTC_ALARM_SEC_MASK         (0x00000001uL)
 291:Generated_Source\PSoC4/RTC.h **** 
 292:Generated_Source\PSoC4/RTC.h **** /** The minute alarm mask allows matching the alarm minute register with the 
 293:Generated_Source\PSoC4/RTC.h **** *   current minute register.
ARM GAS  C:\Users\luvsd\AppData\Local\Temp\ccVgSZhb.s 			page 21


 294:Generated_Source\PSoC4/RTC.h **** */
 295:Generated_Source\PSoC4/RTC.h **** #define RTC_ALARM_MIN_MASK         (0x00000002uL)
 296:Generated_Source\PSoC4/RTC.h **** 
 297:Generated_Source\PSoC4/RTC.h **** /** The hour alarm mask allows matching the alarm hour register with the 
 298:Generated_Source\PSoC4/RTC.h **** *   current hour register.
 299:Generated_Source\PSoC4/RTC.h **** */
 300:Generated_Source\PSoC4/RTC.h **** #define RTC_ALARM_HOUR_MASK        (0x00000004uL)
 301:Generated_Source\PSoC4/RTC.h **** 
 302:Generated_Source\PSoC4/RTC.h **** /** The day of the week alarm mask allows matching the alarm hour register with 
 303:Generated_Source\PSoC4/RTC.h **** *   the current day of the week register.
 304:Generated_Source\PSoC4/RTC.h **** */
 305:Generated_Source\PSoC4/RTC.h **** #define RTC_ALARM_DAYOFWEEK_MASK   (0x00000008uL)
 306:Generated_Source\PSoC4/RTC.h **** 
 307:Generated_Source\PSoC4/RTC.h **** /** The day of the Month alarm mask allows matching the alarm hour register with 
 308:Generated_Source\PSoC4/RTC.h **** *   the current day of the Month register.
 309:Generated_Source\PSoC4/RTC.h **** */
 310:Generated_Source\PSoC4/RTC.h **** #define RTC_ALARM_DAYOFMONTH_MASK  (0x00000010uL)
 311:Generated_Source\PSoC4/RTC.h **** 
 312:Generated_Source\PSoC4/RTC.h **** /** The month alarm mask allows matching the alarm hour register with the
 313:Generated_Source\PSoC4/RTC.h **** *   current month register.
 314:Generated_Source\PSoC4/RTC.h **** */
 315:Generated_Source\PSoC4/RTC.h **** #define RTC_ALARM_MONTH_MASK       (0x00000020uL)
 316:Generated_Source\PSoC4/RTC.h **** 
 317:Generated_Source\PSoC4/RTC.h **** /** The year alarm mask allows matching the alarm hour register with the
 318:Generated_Source\PSoC4/RTC.h **** *   current year register.
 319:Generated_Source\PSoC4/RTC.h **** */
 320:Generated_Source\PSoC4/RTC.h **** #define RTC_ALARM_YEAR_MASK        (0x00000040uL)
 321:Generated_Source\PSoC4/RTC.h **** 
 322:Generated_Source\PSoC4/RTC.h **** /** \} group_rtc_alarm_mask */
 323:Generated_Source\PSoC4/RTC.h **** /** \} group_constants */
 324:Generated_Source\PSoC4/RTC.h **** 
 325:Generated_Source\PSoC4/RTC.h **** #define RTC_DAYS_PER_WEEK       (7u)
 326:Generated_Source\PSoC4/RTC.h **** 
 327:Generated_Source\PSoC4/RTC.h **** #define RTC_MONTHS_PER_YEAR     (12uL)
 328:Generated_Source\PSoC4/RTC.h **** 
 329:Generated_Source\PSoC4/RTC.h **** #define RTC_HOURS_PER_DAY       (24uL)
 330:Generated_Source\PSoC4/RTC.h **** #define RTC_HOURS_PER_HALF_DAY  (12uL)
 331:Generated_Source\PSoC4/RTC.h **** 
 332:Generated_Source\PSoC4/RTC.h **** #define RTC_SECONDS_PER_MINUTE  (60uL)
 333:Generated_Source\PSoC4/RTC.h **** #define RTC_SECONDS_PER_HOUR    (3600uL)
 334:Generated_Source\PSoC4/RTC.h **** #define RTC_SECONDS_PER_DAY     (24uL * 3600uL)
 335:Generated_Source\PSoC4/RTC.h **** 
 336:Generated_Source\PSoC4/RTC.h **** #define RTC_SECONDS_PER_LEAP_YEAR    (366uL * 24uL * 3600uL)
 337:Generated_Source\PSoC4/RTC.h **** #define RTC_SECONDS_PER_NONLEAP_YEAR (365uL * 24uL * 3600uL)
 338:Generated_Source\PSoC4/RTC.h **** 
 339:Generated_Source\PSoC4/RTC.h **** #define RTC_UNIX_TIME_PM        ((12uL * 3600uL) + 1uL)
 340:Generated_Source\PSoC4/RTC.h **** 
 341:Generated_Source\PSoC4/RTC.h **** /* Unix time begins in 1970 year */
 342:Generated_Source\PSoC4/RTC.h **** #define RTC_YEAR_0             (1970u)
 343:Generated_Source\PSoC4/RTC.h **** 
 344:Generated_Source\PSoC4/RTC.h **** /* Definition of date register fields */
 345:Generated_Source\PSoC4/RTC.h **** #if(RTC_INITIAL_DATA_FORMAT == RTC__MM_DD_YYYY)
 346:Generated_Source\PSoC4/RTC.h ****     #define RTC_10_MONTH_OFFSET   (28u)
 347:Generated_Source\PSoC4/RTC.h ****     #define RTC_MONTH_OFFSET      (24u)
 348:Generated_Source\PSoC4/RTC.h ****     #define RTC_10_DAY_OFFSET     (20u)
 349:Generated_Source\PSoC4/RTC.h ****     #define RTC_DAY_OFFSET        (16u)
 350:Generated_Source\PSoC4/RTC.h ****     #define RTC_1000_YEAR_OFFSET  (12u)
ARM GAS  C:\Users\luvsd\AppData\Local\Temp\ccVgSZhb.s 			page 22


 351:Generated_Source\PSoC4/RTC.h ****     #define RTC_100_YEAR_OFFSET   (8u)
 352:Generated_Source\PSoC4/RTC.h ****     #define RTC_10_YEAR_OFFSET    (4u)
 353:Generated_Source\PSoC4/RTC.h ****     #define RTC_YEAR_OFFSET       (0u)
 354:Generated_Source\PSoC4/RTC.h **** #elif(RTC_INITIAL_DATA_FORMAT == RTC__DD_MM_YYYY)
 355:Generated_Source\PSoC4/RTC.h ****     #define RTC_10_MONTH_OFFSET   (20u)
 356:Generated_Source\PSoC4/RTC.h ****     #define RTC_MONTH_OFFSET      (16u)
 357:Generated_Source\PSoC4/RTC.h ****     #define RTC_10_DAY_OFFSET     (28u)
 358:Generated_Source\PSoC4/RTC.h ****     #define RTC_DAY_OFFSET        (24u)
 359:Generated_Source\PSoC4/RTC.h ****     #define RTC_1000_YEAR_OFFSET  (12u)
 360:Generated_Source\PSoC4/RTC.h ****     #define RTC_100_YEAR_OFFSET   (8u)
 361:Generated_Source\PSoC4/RTC.h ****     #define RTC_10_YEAR_OFFSET    (4u)
 362:Generated_Source\PSoC4/RTC.h ****     #define RTC_YEAR_OFFSET       (0u)
 363:Generated_Source\PSoC4/RTC.h **** #else
 364:Generated_Source\PSoC4/RTC.h ****     #define RTC_10_MONTH_OFFSET   (12u)
 365:Generated_Source\PSoC4/RTC.h ****     #define RTC_MONTH_OFFSET      (8u)
 366:Generated_Source\PSoC4/RTC.h ****     #define RTC_10_DAY_OFFSET     (4u)
 367:Generated_Source\PSoC4/RTC.h ****     #define RTC_DAY_OFFSET        (0u)
 368:Generated_Source\PSoC4/RTC.h ****     #define RTC_1000_YEAR_OFFSET  (28u)
 369:Generated_Source\PSoC4/RTC.h ****     #define RTC_100_YEAR_OFFSET   (24u)
 370:Generated_Source\PSoC4/RTC.h ****     #define RTC_10_YEAR_OFFSET    (20u)
 371:Generated_Source\PSoC4/RTC.h ****     #define RTC_YEAR_OFFSET       (16u)
 372:Generated_Source\PSoC4/RTC.h **** #endif /* (RTC_INITIAL_DATA_FORMAT == RTC__MM_DD_YYYY) */
 373:Generated_Source\PSoC4/RTC.h **** 
 374:Generated_Source\PSoC4/RTC.h **** #define RTC_10_MONTH_MASK          (0x00000001uL << RTC_10_MONTH_OFFSET)
 375:Generated_Source\PSoC4/RTC.h **** #define RTC_MONTH_MASK             (0x0000000FuL << RTC_MONTH_OFFSET)
 376:Generated_Source\PSoC4/RTC.h **** #define RTC_10_DAY_MASK            (0x00000003uL << RTC_10_DAY_OFFSET)
 377:Generated_Source\PSoC4/RTC.h **** #define RTC_DAY_MASK               (0x0000000FuL << RTC_DAY_OFFSET)
 378:Generated_Source\PSoC4/RTC.h **** #define RTC_1000_YEAR_MASK         (0x00000003uL << RTC_1000_YEAR_OFFSET)
 379:Generated_Source\PSoC4/RTC.h **** #define RTC_100_YEAR_MASK          (0x0000000FuL << RTC_100_YEAR_OFFSET)
 380:Generated_Source\PSoC4/RTC.h **** #define RTC_10_YEAR_MASK           (0x0000000FuL << RTC_10_YEAR_OFFSET)
 381:Generated_Source\PSoC4/RTC.h **** #define RTC_YEAR_MASK              (0x0000000FuL << RTC_YEAR_OFFSET)
 382:Generated_Source\PSoC4/RTC.h **** 
 383:Generated_Source\PSoC4/RTC.h **** #define  RTC_MONTH_FULL_MASK       (RTC_10_MONTH_MASK  | RTC_MONTH_MASK)
 384:Generated_Source\PSoC4/RTC.h **** #define  RTC_DAY_FULL_MASK         (RTC_10_DAY_MASK    | RTC_DAY_MASK)
 385:Generated_Source\PSoC4/RTC.h **** #define  RTC_YEAR_FULL_MASK        (RTC_1000_YEAR_MASK | RTC_100_YEAR_MASK |\
 386:Generated_Source\PSoC4/RTC.h ****                                                  RTC_10_YEAR_MASK   | RTC_YEAR_MASK)
 387:Generated_Source\PSoC4/RTC.h **** 
 388:Generated_Source\PSoC4/RTC.h **** /* Definition of time register fields */
 389:Generated_Source\PSoC4/RTC.h **** #define RTC_TIME_FORMAT_OFFSET     (23u)
 390:Generated_Source\PSoC4/RTC.h **** #define RTC_PERIOD_OF_DAY_OFFSET   (22u)
 391:Generated_Source\PSoC4/RTC.h **** #define RTC_10_HOURS_OFFSET        (20u)
 392:Generated_Source\PSoC4/RTC.h **** #define RTC_HOURS_OFFSET           (16u)
 393:Generated_Source\PSoC4/RTC.h **** #define RTC_10_MINUTES_OFFSET      (12u)
 394:Generated_Source\PSoC4/RTC.h **** #define RTC_MINUTES_OFFSET         (8u)
 395:Generated_Source\PSoC4/RTC.h **** #define RTC_10_SECONDS_OFFSET      (4u)
 396:Generated_Source\PSoC4/RTC.h **** #define RTC_SECONDS_OFFSET         (0u)
 397:Generated_Source\PSoC4/RTC.h **** 
 398:Generated_Source\PSoC4/RTC.h **** #define RTC_TIME_FORMAT_MASK       (0x00000001uL << RTC_TIME_FORMAT_OFFSET)
 399:Generated_Source\PSoC4/RTC.h **** #define RTC_PERIOD_OF_DAY_MASK     (0x00000001uL << RTC_PERIOD_OF_DAY_OFFSET)
 400:Generated_Source\PSoC4/RTC.h **** #define RTC_10_HOURS_MASK          (0x00000003uL << RTC_10_HOURS_OFFSET)
 401:Generated_Source\PSoC4/RTC.h **** #define RTC_HOURS_MASK             (0x0000000FuL << RTC_HOURS_OFFSET)
 402:Generated_Source\PSoC4/RTC.h **** #define RTC_10_MINUTES_MASK        (0x00000007uL << RTC_10_MINUTES_OFFSET)
 403:Generated_Source\PSoC4/RTC.h **** #define RTC_MINUTES_MASK           (0x0000000FuL << RTC_MINUTES_OFFSET)
 404:Generated_Source\PSoC4/RTC.h **** #define RTC_10_SECONDS_MASK        (0x00000007uL << RTC_10_SECONDS_OFFSET)
 405:Generated_Source\PSoC4/RTC.h **** #define RTC_SECONDS_MASK           (0x0000000FuL << RTC_SECONDS_OFFSET)
 406:Generated_Source\PSoC4/RTC.h **** 
 407:Generated_Source\PSoC4/RTC.h **** #define RTC_HOURS_FULL_MASK        (RTC_10_HOURS_MASK   | RTC_HOURS_MASK)
ARM GAS  C:\Users\luvsd\AppData\Local\Temp\ccVgSZhb.s 			page 23


 408:Generated_Source\PSoC4/RTC.h **** #define RTC_MINUTES_FULL_MASK      (RTC_10_MINUTES_MASK | RTC_MINUTES_MASK)
 409:Generated_Source\PSoC4/RTC.h **** #define RTC_SECONDS_FULL_MASK      (RTC_10_SECONDS_MASK | RTC_SECONDS_MASK)
 410:Generated_Source\PSoC4/RTC.h **** 
 411:Generated_Source\PSoC4/RTC.h **** #define RTC_STATUS_DST_OFFSET      (1u)
 412:Generated_Source\PSoC4/RTC.h **** #define RTC_STATUS_ALARM_OFFSET    (2u)
 413:Generated_Source\PSoC4/RTC.h **** #define RTC_STATUS_LY_OFFSET       (3u)
 414:Generated_Source\PSoC4/RTC.h **** #define RTC_STATUS_AM_PM_OFFSET    (4u)
 415:Generated_Source\PSoC4/RTC.h **** 
 416:Generated_Source\PSoC4/RTC.h **** /* Number of bits per one BCD digit */
 417:Generated_Source\PSoC4/RTC.h **** #define RTC_BCD_NUMBER_SIZE        (4u)
 418:Generated_Source\PSoC4/RTC.h **** #define RTC_BCD_ONE_DIGIT_MASK     (0x0000000FuL)
 419:Generated_Source\PSoC4/RTC.h **** 
 420:Generated_Source\PSoC4/RTC.h **** 
 421:Generated_Source\PSoC4/RTC.h **** /*******************************************************************************
 422:Generated_Source\PSoC4/RTC.h **** *    External Variables
 423:Generated_Source\PSoC4/RTC.h **** *******************************************************************************/
 424:Generated_Source\PSoC4/RTC.h **** /**
 425:Generated_Source\PSoC4/RTC.h **** * \addtogroup group_globals
 426:Generated_Source\PSoC4/RTC.h **** * \{
 427:Generated_Source\PSoC4/RTC.h **** */
 428:Generated_Source\PSoC4/RTC.h **** 
 429:Generated_Source\PSoC4/RTC.h **** /**
 430:Generated_Source\PSoC4/RTC.h **** * Indicates whether the RTC has been initialized; The variable is initialized to
 431:Generated_Source\PSoC4/RTC.h **** * 0 and set to 1 the first time RTC_Start() is called. This allows the component
 432:Generated_Source\PSoC4/RTC.h **** * to restart without reinitialization after the first call to the RTC_Start() 
 433:Generated_Source\PSoC4/RTC.h **** * routine.
 434:Generated_Source\PSoC4/RTC.h **** */
 435:Generated_Source\PSoC4/RTC.h **** extern uint8  RTC_initVar;
 436:Generated_Source\PSoC4/RTC.h **** 
 437:Generated_Source\PSoC4/RTC.h **** /** The DST start/stop status */
 438:Generated_Source\PSoC4/RTC.h **** extern uint8  RTC_dstStatus;
 439:Generated_Source\PSoC4/RTC.h **** 
 440:Generated_Source\PSoC4/RTC.h **** /**
 441:Generated_Source\PSoC4/RTC.h **** * The uint64 variable represents the standard Unix time (number of seconds 
 442:Generated_Source\PSoC4/RTC.h **** * elapsed from January 1, 1970 00:00 hours UTC) in 64-bit 
 443:Generated_Source\PSoC4/RTC.h **** */
 444:Generated_Source\PSoC4/RTC.h **** extern volatile uint64 RTC_unixTime;
 445:Generated_Source\PSoC4/RTC.h **** 
 446:Generated_Source\PSoC4/RTC.h **** /** The values for the time and date of the DST start */
 447:Generated_Source\PSoC4/RTC.h **** extern RTC_DST_TIME RTC_dstStartTime;
 448:Generated_Source\PSoC4/RTC.h **** 
 449:Generated_Source\PSoC4/RTC.h **** /** The values for the time and date of the DST stop */
 450:Generated_Source\PSoC4/RTC.h **** extern RTC_DST_TIME RTC_dstStopTime;
 451:Generated_Source\PSoC4/RTC.h **** 
 452:Generated_Source\PSoC4/RTC.h **** /**
 453:Generated_Source\PSoC4/RTC.h **** * The last updated time and date values are stored in this structure (update 
 454:Generated_Source\PSoC4/RTC.h **** * happens in Get time/date APIs)
 455:Generated_Source\PSoC4/RTC.h **** */
 456:Generated_Source\PSoC4/RTC.h **** extern RTC_DATE_TIME RTC_currentTimeDate;
 457:Generated_Source\PSoC4/RTC.h **** 
 458:Generated_Source\PSoC4/RTC.h **** /** The alarm time and date values are stored in this variable */
 459:Generated_Source\PSoC4/RTC.h **** extern RTC_DATE_TIME RTC_alarmCfgTimeDate;
 460:Generated_Source\PSoC4/RTC.h **** 
 461:Generated_Source\PSoC4/RTC.h **** /**
 462:Generated_Source\PSoC4/RTC.h **** * This variable is used to mask alarm events; mask seconds alarm, mask minutes 
 463:Generated_Source\PSoC4/RTC.h **** * alarm, and so on. It will have bit masks for each time item masking that item 
 464:Generated_Source\PSoC4/RTC.h **** * for alarm generation
ARM GAS  C:\Users\luvsd\AppData\Local\Temp\ccVgSZhb.s 			page 24


 465:Generated_Source\PSoC4/RTC.h **** */
 466:Generated_Source\PSoC4/RTC.h **** extern uint32  RTC_alarmCfgMask;
 467:Generated_Source\PSoC4/RTC.h **** 
 468:Generated_Source\PSoC4/RTC.h **** /**
 469:Generated_Source\PSoC4/RTC.h **** * This variable is used to indicate current active alarm status per time item 
 470:Generated_Source\PSoC4/RTC.h **** * used in the alarm; whether seconds alarm is active, minute's alarm is active, 
 471:Generated_Source\PSoC4/RTC.h **** * and so on. It will have bit masks for each time item (seconds, minutes, hours,
 472:Generated_Source\PSoC4/RTC.h **** * day, and so on) showing the status
 473:Generated_Source\PSoC4/RTC.h **** */
 474:Generated_Source\PSoC4/RTC.h **** extern uint32 RTC_alarmCurStatus;
 475:Generated_Source\PSoC4/RTC.h **** 
 476:Generated_Source\PSoC4/RTC.h **** /** \} group_globals */
 477:Generated_Source\PSoC4/RTC.h **** 
 478:Generated_Source\PSoC4/RTC.h **** extern void (*RTC_alarmCallbackPtr)(void);
 479:Generated_Source\PSoC4/RTC.h **** 
 480:Generated_Source\PSoC4/RTC.h **** extern const uint16 RTC_daysBeforeMonthTbl[RTC_MONTHS_PER_YEAR];
 481:Generated_Source\PSoC4/RTC.h **** extern const uint8  RTC_daysInMonthTbl[RTC_MONTHS_PER_YEAR];
 482:Generated_Source\PSoC4/RTC.h **** 
 483:Generated_Source\PSoC4/RTC.h **** 
 484:Generated_Source\PSoC4/RTC.h **** /*******************************************************************************
 485:Generated_Source\PSoC4/RTC.h **** *    Function Prototypes
 486:Generated_Source\PSoC4/RTC.h **** *******************************************************************************/
 487:Generated_Source\PSoC4/RTC.h **** /**
 488:Generated_Source\PSoC4/RTC.h **** * \addtogroup group_general
 489:Generated_Source\PSoC4/RTC.h **** * \{
 490:Generated_Source\PSoC4/RTC.h **** */
 491:Generated_Source\PSoC4/RTC.h **** void   RTC_Start(void);
 492:Generated_Source\PSoC4/RTC.h **** void   RTC_Stop(void);
 493:Generated_Source\PSoC4/RTC.h **** void   RTC_Init(void);
 494:Generated_Source\PSoC4/RTC.h **** void   RTC_SetUnixTime(uint64 unixTime);
 495:Generated_Source\PSoC4/RTC.h **** uint64 RTC_GetUnixTime(void);
 496:Generated_Source\PSoC4/RTC.h **** void   RTC_SetPeriod(uint32 ticks, uint32 refOneSecTicks);
 497:Generated_Source\PSoC4/RTC.h **** uint32 RTC_GetPeriod(void);
 498:Generated_Source\PSoC4/RTC.h **** uint32 RTC_GetRefOneSec(void);
 499:Generated_Source\PSoC4/RTC.h **** void   RTC_SetDateAndTime(uint32 inputTime, uint32 inputDate);
 500:Generated_Source\PSoC4/RTC.h **** void   RTC_GetDateAndTime(RTC_DATE_TIME* dateTime);
 501:Generated_Source\PSoC4/RTC.h **** uint32 RTC_GetTime(void);
 502:Generated_Source\PSoC4/RTC.h **** uint32 RTC_GetDate(void);
 503:Generated_Source\PSoC4/RTC.h **** void   RTC_SetAlarmDateAndTime(const RTC_DATE_TIME* alarmTime);
 504:Generated_Source\PSoC4/RTC.h **** void   RTC_GetAlarmDateAndTime(RTC_DATE_TIME* alarmTimeDate);
 505:Generated_Source\PSoC4/RTC.h **** void   RTC_SetAlarmMask(uint32 mask);
 506:Generated_Source\PSoC4/RTC.h **** uint32 RTC_GetAlarmMask(void);
 507:Generated_Source\PSoC4/RTC.h **** uint32 RTC_ReadStatus(void);
 508:Generated_Source\PSoC4/RTC.h **** uint32 RTC_GetAlarmStatus(void);
 509:Generated_Source\PSoC4/RTC.h **** void   RTC_ClearAlarmStatus(void);
 510:Generated_Source\PSoC4/RTC.h **** void   RTC_SetDSTStartTime(const RTC_DST_TIME* dstStartTime,
 511:Generated_Source\PSoC4/RTC.h ****                                               RTC_DST_DATETYPE_ENUM type);
 512:Generated_Source\PSoC4/RTC.h **** void   RTC_SetDSTStopTime(const RTC_DST_TIME* dstStopTime,
 513:Generated_Source\PSoC4/RTC.h ****                                              RTC_DST_DATETYPE_ENUM type);
 514:Generated_Source\PSoC4/RTC.h **** uint32 RTC_ConvertBCDToDec(uint32 bcdNum);
 515:Generated_Source\PSoC4/RTC.h **** uint32 RTC_ConvertDecToBCD(uint32 decNum);
 516:Generated_Source\PSoC4/RTC.h **** void   RTC_Update(void);
 517:Generated_Source\PSoC4/RTC.h **** void*  RTC_SetAlarmHandler(void (*CallbackFunction)(void));
 518:Generated_Source\PSoC4/RTC.h **** 
 519:Generated_Source\PSoC4/RTC.h **** static uint32 RTC_ConstructDate(uint32 month, uint32 day, uint32 year);
 520:Generated_Source\PSoC4/RTC.h **** static uint32 RTC_ConstructTime(uint32 timeFormat, uint32 stateAmPm, uint32 hour, uint32 min, uint3
 521:Generated_Source\PSoC4/RTC.h **** /** \} group_general */
ARM GAS  C:\Users\luvsd\AppData\Local\Temp\ccVgSZhb.s 			page 25


 522:Generated_Source\PSoC4/RTC.h **** 
 523:Generated_Source\PSoC4/RTC.h **** static uint32 RTC_GetTimeFormat(uint32 inputTime);
 524:Generated_Source\PSoC4/RTC.h **** static uint32 RTC_SetTimeFormat(uint32 inputTime, uint32 timeFormat);
 525:Generated_Source\PSoC4/RTC.h **** 
 526:Generated_Source\PSoC4/RTC.h **** /**
 527:Generated_Source\PSoC4/RTC.h **** * \addtogroup group_general
 528:Generated_Source\PSoC4/RTC.h **** * \{
 529:Generated_Source\PSoC4/RTC.h **** */
 530:Generated_Source\PSoC4/RTC.h **** static uint32 RTC_LeapYear(uint32 year);
 531:Generated_Source\PSoC4/RTC.h **** static uint32 RTC_IsBitSet(uint32 var, uint32 mask);
 532:Generated_Source\PSoC4/RTC.h **** static uint32 RTC_GetSecond(uint32 inputTime);
 533:Generated_Source\PSoC4/RTC.h **** static uint32 RTC_GetMinutes(uint32 inputTime);
 534:Generated_Source\PSoC4/RTC.h **** static uint32 RTC_GetHours(uint32 inputTime);
 535:Generated_Source\PSoC4/RTC.h **** static uint32 RTC_GetAmPm(uint32 inputTime);
 536:Generated_Source\PSoC4/RTC.h **** static uint32 RTC_GetDay(uint32 date);
 537:Generated_Source\PSoC4/RTC.h **** static uint32 RTC_GetMonth(uint32 date);
 538:Generated_Source\PSoC4/RTC.h **** static uint32 RTC_GetYear(uint32 date);
 539:Generated_Source\PSoC4/RTC.h **** /** \} group_general */
 540:Generated_Source\PSoC4/RTC.h **** 
 541:Generated_Source\PSoC4/RTC.h **** static uint32 RTC_SetSecond(uint32 inputTime, uint32 inputSecond);
 542:Generated_Source\PSoC4/RTC.h **** static uint32 RTC_SetMinutes(uint32 inputTime, uint32 inputMinute);
 543:Generated_Source\PSoC4/RTC.h **** static uint32 RTC_SetHours(uint32 inputTime, uint32 inputHours);
 544:Generated_Source\PSoC4/RTC.h **** static uint32 RTC_SetAmPm(uint32 inputTime, uint32 periodOfDay);
 545:Generated_Source\PSoC4/RTC.h **** static uint32 RTC_SetDay(uint32 inputDate, uint32 inputDay);
 546:Generated_Source\PSoC4/RTC.h **** static uint32 RTC_SetMonth(uint32 inputDate, uint32 inputMonth);
 547:Generated_Source\PSoC4/RTC.h **** static uint32 RTC_SetYear(uint32 inputDate, uint32 inputYear);
 548:Generated_Source\PSoC4/RTC.h **** 
 549:Generated_Source\PSoC4/RTC.h **** uint64 RTC_ConstructUnixAlarmTime(const RTC_DATE_TIME* alarmTime, uint8 alarmCfgMask);
 550:Generated_Source\PSoC4/RTC.h **** uint64 RTC_GetDstUnixTime(const RTC_DST_TIME* dstTime);
 551:Generated_Source\PSoC4/RTC.h **** uint64 RTC_GetNexAlarmTime(uint64 curUnixTime, uint8 alarmCfgMask);
 552:Generated_Source\PSoC4/RTC.h **** 
 553:Generated_Source\PSoC4/RTC.h **** static uint32 RTC_GetNextMinSec(uint32 curVal);
 554:Generated_Source\PSoC4/RTC.h **** static uint32 RTC_GetNextHour(uint32 curVal);
 555:Generated_Source\PSoC4/RTC.h **** static uint32 RTC_GetNextDay(uint32 curYear, uint32 curMonth, uint32 curDay, uint32 alarmCfgMask);
 556:Generated_Source\PSoC4/RTC.h **** static uint32 RTC_GetNextMonth(uint32 curMonth);
 557:Generated_Source\PSoC4/RTC.h **** static uint32 RTC_GetNextYear(uint32 curYear);
 558:Generated_Source\PSoC4/RTC.h **** static uint32 RTC_GetDayOfWeek(uint32 day, uint32 month, uint32 year);
 559:Generated_Source\PSoC4/RTC.h **** static uint32 RTC_DaysBeforeMonth(uint32 month, uint32 year);
 560:Generated_Source\PSoC4/RTC.h **** 
 561:Generated_Source\PSoC4/RTC.h **** uint32 RTC_DaysInMonth(uint32 month, uint32 year);
 562:Generated_Source\PSoC4/RTC.h **** 
 563:Generated_Source\PSoC4/RTC.h **** /**
 564:Generated_Source\PSoC4/RTC.h **** * \addtogroup group_general
 565:Generated_Source\PSoC4/RTC.h **** * \{
 566:Generated_Source\PSoC4/RTC.h **** */
 567:Generated_Source\PSoC4/RTC.h **** void   RTC_UnixToDateTime(RTC_DATE_TIME* dateTime, uint64 unixTime, uint32 timeFormat);
 568:Generated_Source\PSoC4/RTC.h **** uint64 RTC_DateTimeToUnix(uint32 inputDate, uint32 inputTime);
 569:Generated_Source\PSoC4/RTC.h **** 
 570:Generated_Source\PSoC4/RTC.h **** #if defined(CYDEV_RTC_SOURCE_WDT)
 571:Generated_Source\PSoC4/RTC.h ****     #if((0u != CYDEV_WDT_GENERATE_ISR) && (0u == RTC_INITIAL_UPDATE_MODE))
 572:Generated_Source\PSoC4/RTC.h ****         static void RTC_CySysRtcSetCallback(uint32 wdtNumber);
 573:Generated_Source\PSoC4/RTC.h ****         static void RTC_CySysRtcResetCallback(uint32 wdtNumber);
 574:Generated_Source\PSoC4/RTC.h ****     #endif /* ((0u != CYDEV_WDT_GENERATE_ISR) && (0u == RTC_INITIAL_UPDATE_MODE)) */
 575:Generated_Source\PSoC4/RTC.h **** #endif /* (CYDEV_RTC_SOURCE_WDT) */
 576:Generated_Source\PSoC4/RTC.h **** 
 577:Generated_Source\PSoC4/RTC.h **** /** \} group_general */
 578:Generated_Source\PSoC4/RTC.h **** 
ARM GAS  C:\Users\luvsd\AppData\Local\Temp\ccVgSZhb.s 			page 26


 579:Generated_Source\PSoC4/RTC.h **** uint32 RTC_RelativeToFixed(uint32 dayOfWeek, uint32 weekOfMonth, uint32 month, uint32 year);
 580:Generated_Source\PSoC4/RTC.h **** 
 581:Generated_Source\PSoC4/RTC.h **** 
 582:Generated_Source\PSoC4/RTC.h **** 
 583:Generated_Source\PSoC4/RTC.h **** /*******************************************************************************
 584:Generated_Source\PSoC4/RTC.h **** * Function Name: RTC_IsBitSet
 585:Generated_Source\PSoC4/RTC.h **** ****************************************************************************//**
 586:Generated_Source\PSoC4/RTC.h **** *
 587:Generated_Source\PSoC4/RTC.h **** * Checks the state of a bit passed through parameter.
 588:Generated_Source\PSoC4/RTC.h **** *
 589:Generated_Source\PSoC4/RTC.h **** * \param var
 590:Generated_Source\PSoC4/RTC.h **** * The variable to be checked.
 591:Generated_Source\PSoC4/RTC.h **** *
 592:Generated_Source\PSoC4/RTC.h **** * \param mask
 593:Generated_Source\PSoC4/RTC.h **** * The mask for a bit to be checked.
 594:Generated_Source\PSoC4/RTC.h **** *
 595:Generated_Source\PSoC4/RTC.h **** * \return
 596:Generated_Source\PSoC4/RTC.h **** *  0u - Bit is not set. <br> 1u - Bit is set.
 597:Generated_Source\PSoC4/RTC.h **** *
 598:Generated_Source\PSoC4/RTC.h **** *******************************************************************************/
 599:Generated_Source\PSoC4/RTC.h **** static CY_INLINE uint32 RTC_IsBitSet(uint32 var, uint32 mask)
 600:Generated_Source\PSoC4/RTC.h **** {
 601:Generated_Source\PSoC4/RTC.h ****     return ((mask == (var & mask)) ? 1Lu : 0Lu);
 602:Generated_Source\PSoC4/RTC.h **** }
 603:Generated_Source\PSoC4/RTC.h **** 
 604:Generated_Source\PSoC4/RTC.h **** 
 605:Generated_Source\PSoC4/RTC.h **** /*******************************************************************************
 606:Generated_Source\PSoC4/RTC.h **** * Function Name: RTC_LeapYear
 607:Generated_Source\PSoC4/RTC.h **** ****************************************************************************//**
 608:Generated_Source\PSoC4/RTC.h **** *
 609:Generated_Source\PSoC4/RTC.h **** * Checks whether the year passed through the parameter is leap or no.
 610:Generated_Source\PSoC4/RTC.h **** *
 611:Generated_Source\PSoC4/RTC.h **** * \param year
 612:Generated_Source\PSoC4/RTC.h **** * The year to be checked.
 613:Generated_Source\PSoC4/RTC.h **** *
 614:Generated_Source\PSoC4/RTC.h **** * \return
 615:Generated_Source\PSoC4/RTC.h **** * 0u - The year is not leap <br> 1u - The year is leap.
 616:Generated_Source\PSoC4/RTC.h **** *
 617:Generated_Source\PSoC4/RTC.h **** *******************************************************************************/
 618:Generated_Source\PSoC4/RTC.h **** static CY_INLINE uint32 RTC_LeapYear(uint32 year)
 619:Generated_Source\PSoC4/RTC.h **** {
 620:Generated_Source\PSoC4/RTC.h ****     uint32 retVal;
 621:Generated_Source\PSoC4/RTC.h **** 
 622:Generated_Source\PSoC4/RTC.h ****     if(((0u == (year % 4Lu)) && (0u != (year % 100Lu))) || (0u == (year % 400Lu)))
 623:Generated_Source\PSoC4/RTC.h ****     {
 624:Generated_Source\PSoC4/RTC.h ****         retVal = 1uL;
 625:Generated_Source\PSoC4/RTC.h ****     }
 626:Generated_Source\PSoC4/RTC.h ****     else
 627:Generated_Source\PSoC4/RTC.h ****     {
 628:Generated_Source\PSoC4/RTC.h ****         retVal = 0uL;
 629:Generated_Source\PSoC4/RTC.h ****     }
 630:Generated_Source\PSoC4/RTC.h **** 
 631:Generated_Source\PSoC4/RTC.h ****     return(retVal);
 632:Generated_Source\PSoC4/RTC.h **** }
 633:Generated_Source\PSoC4/RTC.h **** 
 634:Generated_Source\PSoC4/RTC.h **** 
 635:Generated_Source\PSoC4/RTC.h **** /*******************************************************************************
ARM GAS  C:\Users\luvsd\AppData\Local\Temp\ccVgSZhb.s 			page 27


 636:Generated_Source\PSoC4/RTC.h **** * Function Name: RTC_GetSecond
 637:Generated_Source\PSoC4/RTC.h **** ****************************************************************************//**
 638:Generated_Source\PSoC4/RTC.h **** *
 639:Generated_Source\PSoC4/RTC.h **** * Returns the seconds value from the time value that is passed as a/the 
 640:Generated_Source\PSoC4/RTC.h **** * parameter.
 641:Generated_Source\PSoC4/RTC.h **** *
 642:Generated_Source\PSoC4/RTC.h **** * \param inputTime
 643:Generated_Source\PSoC4/RTC.h **** * The time value.
 644:Generated_Source\PSoC4/RTC.h **** *
 645:Generated_Source\PSoC4/RTC.h **** * \return
 646:Generated_Source\PSoC4/RTC.h **** * The seconds value.
 647:Generated_Source\PSoC4/RTC.h **** *
 648:Generated_Source\PSoC4/RTC.h **** *******************************************************************************/
 649:Generated_Source\PSoC4/RTC.h **** static CY_INLINE uint32 RTC_GetSecond(uint32 inputTime)
 650:Generated_Source\PSoC4/RTC.h **** {
 651:Generated_Source\PSoC4/RTC.h ****     uint32 retVal;
 652:Generated_Source\PSoC4/RTC.h **** 
 653:Generated_Source\PSoC4/RTC.h ****     retVal  = ((inputTime & RTC_10_SECONDS_MASK) >> RTC_10_SECONDS_OFFSET) * 10u;
 554              		.loc 2 653 0
 555 0008 0309     		lsrs	r3, r0, #4
 556 000a 0722     		movs	r2, #7
 557 000c 1340     		ands	r3, r2
 558 000e 9A00     		lsls	r2, r3, #2
 559 0010 D318     		adds	r3, r2, r3
 560 0012 5A00     		lsls	r2, r3, #1
 561              	.LVL70:
 654:Generated_Source\PSoC4/RTC.h ****     retVal += (inputTime & RTC_SECONDS_MASK) >> RTC_SECONDS_OFFSET;
 562              		.loc 2 654 0
 563 0014 0F23     		movs	r3, #15
 564 0016 0340     		ands	r3, r0
 565 0018 9A18     		adds	r2, r3, r2
 566              	.LVL71:
 567              	.LBE18:
 568              	.LBE17:
  92:andonMenu.c   ****     {    
 569              		.loc 1 92 0
 570 001a 254B     		ldr	r3, .L45
 571 001c 9B69     		ldr	r3, [r3, #24]
 572 001e 9A42     		cmp	r2, r3
 573 0020 01D1     		bne	.L41
  92:andonMenu.c   ****     {    
 574              		.loc 1 92 0 is_stmt 0 discriminator 1
 575 0022 012C     		cmp	r4, #1
 576 0024 41D1     		bne	.L44
 577              	.L41:
  94:andonMenu.c   ****   
 578              		.loc 1 94 0 is_stmt 1
 579 0026 224B     		ldr	r3, .L45
 580 0028 9A61     		str	r2, [r3, #24]
  96:andonMenu.c   ****         {
 581              		.loc 1 96 0
 582 002a 224B     		ldr	r3, .L45+4
 583 002c 9B68     		ldr	r3, [r3, #8]
 584 002e 002B     		cmp	r3, #0
 585 0030 1DD0     		beq	.L43
  98:andonMenu.c   ****             sprintf(strTime, "%02lu:%02lu", RTC_GetHours(time), RTC_GetMinutes(time)); 
 586              		.loc 1 98 0
ARM GAS  C:\Users\luvsd\AppData\Local\Temp\ccVgSZhb.s 			page 28


 587 0032 0022     		movs	r2, #0
 588 0034 1F4B     		ldr	r3, .L45+4
 589 0036 9A60     		str	r2, [r3, #8]
 590              	.LVL72:
 591              	.LBB19:
 592              	.LBB20:
 655:Generated_Source\PSoC4/RTC.h **** 
 656:Generated_Source\PSoC4/RTC.h ****     return (retVal);
 657:Generated_Source\PSoC4/RTC.h **** }
 658:Generated_Source\PSoC4/RTC.h **** 
 659:Generated_Source\PSoC4/RTC.h **** 
 660:Generated_Source\PSoC4/RTC.h **** /*******************************************************************************
 661:Generated_Source\PSoC4/RTC.h **** * Function Name: RTC_GetMinutes
 662:Generated_Source\PSoC4/RTC.h **** ****************************************************************************//**
 663:Generated_Source\PSoC4/RTC.h **** *
 664:Generated_Source\PSoC4/RTC.h **** * Returns the minutes value from the time value that is passed as a/the 
 665:Generated_Source\PSoC4/RTC.h **** * parameter.
 666:Generated_Source\PSoC4/RTC.h **** *
 667:Generated_Source\PSoC4/RTC.h **** * \param inputTime
 668:Generated_Source\PSoC4/RTC.h **** * The time value.
 669:Generated_Source\PSoC4/RTC.h **** *
 670:Generated_Source\PSoC4/RTC.h **** * \return
 671:Generated_Source\PSoC4/RTC.h **** * The minutes value.
 672:Generated_Source\PSoC4/RTC.h **** *
 673:Generated_Source\PSoC4/RTC.h **** *******************************************************************************/
 674:Generated_Source\PSoC4/RTC.h **** static CY_INLINE uint32 RTC_GetMinutes(uint32 inputTime)
 675:Generated_Source\PSoC4/RTC.h **** {
 676:Generated_Source\PSoC4/RTC.h ****     uint32 retVal;
 677:Generated_Source\PSoC4/RTC.h **** 
 678:Generated_Source\PSoC4/RTC.h ****     retVal  = ((inputTime & RTC_10_MINUTES_MASK) >> RTC_10_MINUTES_OFFSET) * 10u;
 679:Generated_Source\PSoC4/RTC.h ****     retVal += (inputTime & RTC_MINUTES_MASK) >> RTC_MINUTES_OFFSET;
 680:Generated_Source\PSoC4/RTC.h **** 
 681:Generated_Source\PSoC4/RTC.h ****     return (retVal);
 682:Generated_Source\PSoC4/RTC.h **** }
 683:Generated_Source\PSoC4/RTC.h **** 
 684:Generated_Source\PSoC4/RTC.h **** 
 685:Generated_Source\PSoC4/RTC.h **** /*******************************************************************************
 686:Generated_Source\PSoC4/RTC.h **** * Function Name: RTC_GetHours
 687:Generated_Source\PSoC4/RTC.h **** ****************************************************************************//**
 688:Generated_Source\PSoC4/RTC.h **** *
 689:Generated_Source\PSoC4/RTC.h **** * Returns the hours value from the time value that is passed as a/the parameter.
 690:Generated_Source\PSoC4/RTC.h **** *
 691:Generated_Source\PSoC4/RTC.h **** * \param inputTime
 692:Generated_Source\PSoC4/RTC.h **** * The time value.
 693:Generated_Source\PSoC4/RTC.h **** *
 694:Generated_Source\PSoC4/RTC.h **** * \return
 695:Generated_Source\PSoC4/RTC.h **** * The hours value.
 696:Generated_Source\PSoC4/RTC.h **** *
 697:Generated_Source\PSoC4/RTC.h **** *******************************************************************************/
 698:Generated_Source\PSoC4/RTC.h **** static CY_INLINE uint32 RTC_GetHours(uint32 inputTime)
 699:Generated_Source\PSoC4/RTC.h **** {
 700:Generated_Source\PSoC4/RTC.h ****     uint32 retVal;
 701:Generated_Source\PSoC4/RTC.h **** 
 702:Generated_Source\PSoC4/RTC.h ****     retVal  = ((inputTime & RTC_10_HOURS_MASK) >> RTC_10_HOURS_OFFSET) * 10u;
 593              		.loc 2 702 0
 594 0038 030D     		lsrs	r3, r0, #20
 595 003a 0332     		adds	r2, r2, #3
ARM GAS  C:\Users\luvsd\AppData\Local\Temp\ccVgSZhb.s 			page 29


 596 003c 1340     		ands	r3, r2
 597 003e 9A00     		lsls	r2, r3, #2
 598 0040 D318     		adds	r3, r2, r3
 599 0042 5900     		lsls	r1, r3, #1
 600              	.LVL73:
 703:Generated_Source\PSoC4/RTC.h ****     retVal += (inputTime & RTC_HOURS_MASK) >> RTC_HOURS_OFFSET;
 601              		.loc 2 703 0
 602 0044 020C     		lsrs	r2, r0, #16
 603 0046 0F23     		movs	r3, #15
 604 0048 1A40     		ands	r2, r3
 605 004a 8A18     		adds	r2, r1, r2
 606              	.LVL74:
 607              	.LBE20:
 608              	.LBE19:
 609              	.LBB21:
 610              	.LBB22:
 678:Generated_Source\PSoC4/RTC.h ****     retVal += (inputTime & RTC_MINUTES_MASK) >> RTC_MINUTES_OFFSET;
 611              		.loc 2 678 0
 612 004c 010B     		lsrs	r1, r0, #12
 613 004e 0724     		movs	r4, #7
 614 0050 2140     		ands	r1, r4
 615 0052 8C00     		lsls	r4, r1, #2
 616 0054 6118     		adds	r1, r4, r1
 617 0056 4C00     		lsls	r4, r1, #1
 618              	.LVL75:
 679:Generated_Source\PSoC4/RTC.h **** 
 619              		.loc 2 679 0
 620 0058 000A     		lsrs	r0, r0, #8
 621              	.LVL76:
 622 005a 1840     		ands	r0, r3
 623 005c 2318     		adds	r3, r4, r0
 624              	.LVL77:
 625              	.LBE22:
 626              	.LBE21:
  99:andonMenu.c   ****         }
 627              		.loc 1 99 0
 628 005e 144C     		ldr	r4, .L45
 629 0060 0C34     		adds	r4, r4, #12
 630 0062 1549     		ldr	r1, .L45+8
 631 0064 2000     		movs	r0, r4
 632 0066 FFF7FEFF 		bl	sprintf
 633              	.LVL78:
 106:andonMenu.c   ****     }
 634              		.loc 1 106 0
 635 006a 2000     		movs	r0, r4
 636 006c 1EE0     		b	.L42
 637              	.LVL79:
 638              	.L43:
 103:andonMenu.c   ****             sprintf(strTime, "%02lu %02lu", RTC_GetHours(time), RTC_GetMinutes(time)); 
 639              		.loc 1 103 0
 640 006e 0122     		movs	r2, #1
 641 0070 104B     		ldr	r3, .L45+4
 642 0072 9A60     		str	r2, [r3, #8]
 643              	.LVL80:
 644              	.LBB23:
 645              	.LBB24:
 702:Generated_Source\PSoC4/RTC.h ****     retVal += (inputTime & RTC_HOURS_MASK) >> RTC_HOURS_OFFSET;
ARM GAS  C:\Users\luvsd\AppData\Local\Temp\ccVgSZhb.s 			page 30


 646              		.loc 2 702 0
 647 0074 030D     		lsrs	r3, r0, #20
 648 0076 0232     		adds	r2, r2, #2
 649 0078 1340     		ands	r3, r2
 650 007a 9A00     		lsls	r2, r3, #2
 651 007c D318     		adds	r3, r2, r3
 652 007e 5900     		lsls	r1, r3, #1
 653              	.LVL81:
 654              		.loc 2 703 0
 655 0080 020C     		lsrs	r2, r0, #16
 656 0082 0F23     		movs	r3, #15
 657 0084 1A40     		ands	r2, r3
 658 0086 8A18     		adds	r2, r1, r2
 659              	.LVL82:
 660              	.LBE24:
 661              	.LBE23:
 662              	.LBB25:
 663              	.LBB26:
 678:Generated_Source\PSoC4/RTC.h ****     retVal += (inputTime & RTC_MINUTES_MASK) >> RTC_MINUTES_OFFSET;
 664              		.loc 2 678 0
 665 0088 010B     		lsrs	r1, r0, #12
 666 008a 0724     		movs	r4, #7
 667 008c 2140     		ands	r1, r4
 668 008e 8C00     		lsls	r4, r1, #2
 669 0090 6118     		adds	r1, r4, r1
 670 0092 4C00     		lsls	r4, r1, #1
 671              	.LVL83:
 679:Generated_Source\PSoC4/RTC.h **** 
 672              		.loc 2 679 0
 673 0094 000A     		lsrs	r0, r0, #8
 674              	.LVL84:
 675 0096 1840     		ands	r0, r3
 676 0098 2318     		adds	r3, r4, r0
 677              	.LVL85:
 678              	.LBE26:
 679              	.LBE25:
 104:andonMenu.c   ****         }
 680              		.loc 1 104 0
 681 009a 0548     		ldr	r0, .L45
 682 009c 0C30     		adds	r0, r0, #12
 683 009e 0400     		movs	r4, r0
 684 00a0 0649     		ldr	r1, .L45+12
 685 00a2 FFF7FEFF 		bl	sprintf
 686              	.LVL86:
 106:andonMenu.c   ****     }
 687              		.loc 1 106 0
 688 00a6 2000     		movs	r0, r4
 689 00a8 00E0     		b	.L42
 690              	.LVL87:
 691              	.L44:
 108:andonMenu.c   **** }
 692              		.loc 1 108 0
 693 00aa 0020     		movs	r0, #0
 694              	.LVL88:
 695              	.L42:
 109:andonMenu.c   **** 
 696              		.loc 1 109 0
ARM GAS  C:\Users\luvsd\AppData\Local\Temp\ccVgSZhb.s 			page 31


 697              		@ sp needed
 698 00ac 10BD     		pop	{r4, pc}
 699              	.L46:
 700 00ae C046     		.align	2
 701              	.L45:
 702 00b0 00030000 		.word	.LANCHOR2
 703 00b4 00000000 		.word	.LANCHOR1
 704 00b8 30000000 		.word	.LC18
 705 00bc 3C000000 		.word	.LC20
 706              		.cfi_endproc
 707              	.LFE63:
 708              		.size	updateDateTime, .-updateDateTime
 709              		.section	.text.doAndonMenu,"ax",%progbits
 710              		.align	2
 711              		.global	doAndonMenu
 712              		.code	16
 713              		.thumb_func
 714              		.type	doAndonMenu, %function
 715              	doAndonMenu:
 716              	.LFB64:
 112:andonMenu.c   ****     static uint16 page = 0;
 717              		.loc 1 112 0
 718              		.cfi_startproc
 719              		@ args = 0, pretend = 0, frame = 8
 720              		@ frame_needed = 0, uses_anonymous_args = 0
 721              	.LVL89:
 722 0000 F0B5     		push	{r4, r5, r6, r7, lr}
 723              		.cfi_def_cfa_offset 20
 724              		.cfi_offset 4, -20
 725              		.cfi_offset 5, -16
 726              		.cfi_offset 6, -12
 727              		.cfi_offset 7, -8
 728              		.cfi_offset 14, -4
 729 0002 83B0     		sub	sp, sp, #12
 730              		.cfi_def_cfa_offset 32
 731 0004 0C00     		movs	r4, r1
 114:andonMenu.c   ****     
 732              		.loc 1 114 0
 733 0006 0800     		movs	r0, r1
 734              	.LVL90:
 735 0008 FFF7FEFF 		bl	updateDateTime
 736              	.LVL91:
 737 000c 0500     		movs	r5, r0
 738              	.LVL92:
 118:andonMenu.c   ****     {
 739              		.loc 1 118 0
 740 000e 414B     		ldr	r3, .L65
 741 0010 1B78     		ldrb	r3, [r3]
 742 0012 002B     		cmp	r3, #0
 743 0014 01D1     		bne	.L48
 118:andonMenu.c   ****     {
 744              		.loc 1 118 0 is_stmt 0 discriminator 1
 745 0016 012C     		cmp	r4, #1
 746 0018 0CD1     		bne	.L49
 747              	.L48:
 120:andonMenu.c   ****         UpdateDrawListButtons(&g_ListMenu,NO_SELECT);
 748              		.loc 1 120 0 is_stmt 1
ARM GAS  C:\Users\luvsd\AppData\Local\Temp\ccVgSZhb.s 			page 32


 749 001a 3E4E     		ldr	r6, .L65
 750 001c 3E4F     		ldr	r7, .L65+4
 751 001e 3200     		movs	r2, r6
 752 0020 0021     		movs	r1, #0
 753 0022 3800     		movs	r0, r7
 754              	.LVL93:
 755 0024 FFF7FEFF 		bl	SetAndonListButtons
 756              	.LVL94:
 121:andonMenu.c   ****         g_AndonLists.bUpdated = FALSE;
 757              		.loc 1 121 0
 758 0028 3C49     		ldr	r1, .L65+8
 759 002a 3800     		movs	r0, r7
 760 002c FFF7FEFF 		bl	UpdateDrawListButtons
 761              	.LVL95:
 122:andonMenu.c   ****     }
 762              		.loc 1 122 0
 763 0030 0023     		movs	r3, #0
 764 0032 3370     		strb	r3, [r6]
 765              	.L49:
 125:andonMenu.c   ****     {
 766              		.loc 1 125 0
 767 0034 002D     		cmp	r5, #0
 768 0036 07D0     		beq	.L50
 769              	.LVL96:
 770              	.LBB27:
 128:andonMenu.c   ****         DrawButton(rightButton);
 771              		.loc 1 128 0
 772 0038 394E     		ldr	r6, .L65+12
 773              	.LVL97:
 774 003a 2900     		movs	r1, r5
 775 003c 3000     		movs	r0, r6
 776 003e FFF7FEFF 		bl	SetButtonText
 777              	.LVL98:
 129:andonMenu.c   ****     }
 778              		.loc 1 129 0
 779 0042 3000     		movs	r0, r6
 780 0044 FFF7FEFF 		bl	DrawButton
 781              	.LVL99:
 782              	.L50:
 783              	.LBE27:
 131:andonMenu.c   ****     {
 784              		.loc 1 131 0
 785 0048 002C     		cmp	r4, #0
 786 004a 16D0     		beq	.L52
 787 004c 012C     		cmp	r4, #1
 788 004e 5DD1     		bne	.L63
 135:andonMenu.c   ****            getCount()->andonEntry = TRUE;
 789              		.loc 1 135 0
 790 0050 0523     		movs	r3, #5
 791 0052 1122     		movs	r2, #17
 792 0054 2900     		movs	r1, r5
 793 0056 3348     		ldr	r0, .L65+16
 794 0058 FFF7FEFF 		bl	SetDrawBottomButtons
 795              	.LVL100:
 136:andonMenu.c   ****            SaveInternalFlash();
 796              		.loc 1 136 0
 797 005c FFF7FEFF 		bl	getCount
ARM GAS  C:\Users\luvsd\AppData\Local\Temp\ccVgSZhb.s 			page 33


 798              	.LVL101:
 799 0060 0122     		movs	r2, #1
 800 0062 4A23     		movs	r3, #74
 801 0064 C252     		strh	r2, [r0, r3]
 137:andonMenu.c   ****            g_ListMenu.curPage = page;
 802              		.loc 1 137 0
 803 0066 FFF7FEFF 		bl	SaveInternalFlash
 804              	.LVL102:
 138:andonMenu.c   ****          //  SaveInternalFlash();
 805              		.loc 1 138 0
 806 006a 2F4B     		ldr	r3, .L65+20
 807 006c 998B     		ldrh	r1, [r3, #28]
 808 006e C123     		movs	r3, #193
 809 0070 9B00     		lsls	r3, r3, #2
 810 0072 294A     		ldr	r2, .L65+4
 811 0074 D152     		strh	r1, [r2, r3]
 182:andonMenu.c   **** }
 812              		.loc 1 182 0
 813 0076 2D48     		ldr	r0, .L65+24
 141:andonMenu.c   ****         
 814              		.loc 1 141 0
 815 0078 49E0     		b	.L51
 816              	.L52:
 817              	.LBB28:
 145:andonMenu.c   ****                 if(tc.isClick == FALSE) break;
 818              		.loc 1 145 0
 819 007a 6846     		mov	r0, sp
 820 007c FFF7FEFF 		bl	GetTouch
 821              	.LVL103:
 146:andonMenu.c   ****                 
 822              		.loc 1 146 0
 823 0080 6B46     		mov	r3, sp
 824 0082 1B88     		ldrh	r3, [r3]
 825 0084 002B     		cmp	r3, #0
 826 0086 3FD0     		beq	.L54
 148:andonMenu.c   **** 
 827              		.loc 1 148 0
 828 0088 2349     		ldr	r1, .L65+4
 829 008a 6846     		mov	r0, sp
 830 008c FFF7FEFF 		bl	getIndexOfClickedListMenu
 831              	.LVL104:
 150:andonMenu.c   ****                 {
 832              		.loc 1 150 0
 833 0090 1128     		cmp	r0, #17
 834 0092 0DD0     		beq	.L56
 835 0094 FF28     		cmp	r0, #255
 836 0096 15D0     		beq	.L57
 837 0098 1028     		cmp	r0, #16
 838 009a 2AD1     		bne	.L64
 152:andonMenu.c   ****                           UpdateDrawListButtons(&g_ListMenu,NO_SELECT);
 839              		.loc 1 152 0
 840 009c 1E48     		ldr	r0, .L65+4
 841              	.LVL105:
 842 009e C122     		movs	r2, #193
 843 00a0 9200     		lsls	r2, r2, #2
 844 00a2 835A     		ldrh	r3, [r0, r2]
 845 00a4 013B     		subs	r3, r3, #1
ARM GAS  C:\Users\luvsd\AppData\Local\Temp\ccVgSZhb.s 			page 34


 846 00a6 8352     		strh	r3, [r0, r2]
 153:andonMenu.c   ****                         break;
 847              		.loc 1 153 0
 848 00a8 1C49     		ldr	r1, .L65+8
 849 00aa FFF7FEFF 		bl	UpdateDrawListButtons
 850              	.LVL106:
 154:andonMenu.c   ****                     case IDX_SCROLL_DOWN: g_ListMenu.curPage++;
 851              		.loc 1 154 0
 852 00ae 29E0     		b	.L59
 853              	.LVL107:
 854              	.L56:
 155:andonMenu.c   ****                           UpdateDrawListButtons(&g_ListMenu,NO_SELECT);                   
 855              		.loc 1 155 0
 856 00b0 1948     		ldr	r0, .L65+4
 857              	.LVL108:
 858 00b2 C122     		movs	r2, #193
 859 00b4 9200     		lsls	r2, r2, #2
 860 00b6 835A     		ldrh	r3, [r0, r2]
 861 00b8 0133     		adds	r3, r3, #1
 862 00ba 8352     		strh	r3, [r0, r2]
 156:andonMenu.c   ****                         break;
 863              		.loc 1 156 0
 864 00bc 1749     		ldr	r1, .L65+8
 865 00be FFF7FEFF 		bl	UpdateDrawListButtons
 866              	.LVL109:
 157:andonMenu.c   ****                     case NO_CLICK :
 867              		.loc 1 157 0
 868 00c2 1FE0     		b	.L59
 869              	.LVL110:
 870              	.L57:
 160:andonMenu.c   ****                             {
 871              		.loc 1 160 0
 872 00c4 0222     		movs	r2, #2
 873 00c6 1A49     		ldr	r1, .L65+28
 874 00c8 6846     		mov	r0, sp
 875              	.LVL111:
 876 00ca FFF7FEFF 		bl	getIndexOfClickedButton
 877              	.LVL112:
 878 00ce 0028     		cmp	r0, #0
 879 00d0 18D1     		bne	.L59
 163:andonMenu.c   ****                                    SaveInternalFlash();
 880              		.loc 1 163 0
 881 00d2 FFF7FEFF 		bl	getCount
 882              	.LVL113:
 883 00d6 0022     		movs	r2, #0
 884 00d8 4A23     		movs	r3, #74
 885 00da C252     		strh	r2, [r0, r3]
 164:andonMenu.c   ****                                 page = g_ListMenu.curPage;
 886              		.loc 1 164 0
 887 00dc FFF7FEFF 		bl	SaveInternalFlash
 888              	.LVL114:
 165:andonMenu.c   ****                                 return MENU_RETURN_PARENT;
 889              		.loc 1 165 0
 890 00e0 C123     		movs	r3, #193
 891 00e2 9B00     		lsls	r3, r3, #2
 892 00e4 0C4A     		ldr	r2, .L65+4
 893 00e6 D25A     		ldrh	r2, [r2, r3]
ARM GAS  C:\Users\luvsd\AppData\Local\Temp\ccVgSZhb.s 			page 35


 894 00e8 0F4B     		ldr	r3, .L65+20
 895 00ea 9A83     		strh	r2, [r3, #28]
 166:andonMenu.c   ****                             //  case BOTTOM_RIGHT: return 1;                            
 896              		.loc 1 166 0
 897 00ec 8020     		movs	r0, #128
 898 00ee 0006     		lsls	r0, r0, #24
 899 00f0 0DE0     		b	.L51
 900              	.LVL115:
 901              	.L64:
 172:andonMenu.c   ****                         {
 902              		.loc 1 172 0
 903 00f2 104A     		ldr	r2, .L65+32
 904 00f4 0849     		ldr	r1, .L65+4
 905 00f6 8A5A     		ldrh	r2, [r1, r2]
 906 00f8 9042     		cmp	r0, r2
 907 00fa 03D2     		bcs	.L59
 174:andonMenu.c   ****                             return 0;
 908              		.loc 1 174 0
 909 00fc 054B     		ldr	r3, .L65
 910 00fe 9870     		strb	r0, [r3, #2]
 175:andonMenu.c   ****                         }
 911              		.loc 1 175 0
 912 0100 0020     		movs	r0, #0
 913              	.LVL116:
 914 0102 04E0     		b	.L51
 915              	.L59:
 916              	.LBE28:
 182:andonMenu.c   **** }
 917              		.loc 1 182 0 discriminator 1
 918 0104 0948     		ldr	r0, .L65+24
 179:andonMenu.c   ****     }
 919              		.loc 1 179 0 discriminator 1
 920 0106 02E0     		b	.L51
 921              	.L54:
 182:andonMenu.c   **** }
 922              		.loc 1 182 0
 923 0108 0848     		ldr	r0, .L65+24
 924 010a 00E0     		b	.L51
 925              	.L63:
 926 010c 0748     		ldr	r0, .L65+24
 927              	.L51:
 183:andonMenu.c   **** 
 928              		.loc 1 183 0
 929 010e 03B0     		add	sp, sp, #12
 930              		@ sp needed
 931              	.LVL117:
 932 0110 F0BD     		pop	{r4, r5, r6, r7, pc}
 933              	.L66:
 934 0112 C046     		.align	2
 935              	.L65:
 936 0114 00000000 		.word	g_AndonLists
 937 0118 00000000 		.word	g_ListMenu
 938 011c FFFF0000 		.word	65535
 939 0120 40000000 		.word	g_btnBottom+64
 940 0124 10000000 		.word	.LC8
 941 0128 00030000 		.word	.LANCHOR2
 942 012c 01000080 		.word	-2147483647
ARM GAS  C:\Users\luvsd\AppData\Local\Temp\ccVgSZhb.s 			page 36


 943 0130 00000000 		.word	g_btnBottom
 944 0134 82020000 		.word	642
 945              		.cfi_endproc
 946              	.LFE64:
 947              		.size	doAndonMenu, .-doAndonMenu
 948              		.section	.text.andonMenuCreate,"ax",%progbits
 949              		.align	2
 950              		.global	andonMenuCreate
 951              		.code	16
 952              		.thumb_func
 953              		.type	andonMenuCreate, %function
 954              	andonMenuCreate:
 955              	.LFB66:
 258:andonMenu.c   **** 
 259:andonMenu.c   **** MENUNODE * andonMenuCreate(MENUNODE *parent)
 260:andonMenu.c   **** {
 956              		.loc 1 260 0
 957              		.cfi_startproc
 958              		@ args = 0, pretend = 0, frame = 0
 959              		@ frame_needed = 0, uses_anonymous_args = 0
 960              	.LVL118:
 961 0000 10B5     		push	{r4, lr}
 962              		.cfi_def_cfa_offset 8
 963              		.cfi_offset 4, -8
 964              		.cfi_offset 14, -4
 261:andonMenu.c   ****     // Main Menu  ............................................
 262:andonMenu.c   ****    MENUNODE *menuMain                  = createMENUNODE(parent,    "ANDON",     &doAndonMenu);
 965              		.loc 1 262 0
 966 0002 054A     		ldr	r2, .L68
 967 0004 0549     		ldr	r1, .L68+4
 968 0006 FFF7FEFF 		bl	createMENUNODE
 969              	.LVL119:
 970 000a 0400     		movs	r4, r0
 971              	.LVL120:
 263:andonMenu.c   ****              MENUNODE *factoryReset    = createMENUNODE(menuMain,  "REQUEST",   &doAndonRequest);
 972              		.loc 1 263 0
 973 000c 044A     		ldr	r2, .L68+8
 974 000e 0549     		ldr	r1, .L68+12
 975 0010 FFF7FEFF 		bl	createMENUNODE
 976              	.LVL121:
 264:andonMenu.c   ****    return menuMain;
 265:andonMenu.c   **** }
 977              		.loc 1 265 0
 978 0014 2000     		movs	r0, r4
 979              		@ sp needed
 980              	.LVL122:
 981 0016 10BD     		pop	{r4, pc}
 982              	.L69:
 983              		.align	2
 984              	.L68:
 985 0018 00000000 		.word	doAndonMenu
 986 001c 48000000 		.word	.LC30
 987 0020 00000000 		.word	doAndonRequest
 988 0024 50000000 		.word	.LC33
 989              		.cfi_endproc
 990              	.LFE66:
 991              		.size	andonMenuCreate, .-andonMenuCreate
ARM GAS  C:\Users\luvsd\AppData\Local\Temp\ccVgSZhb.s 			page 37


 992              		.section	.text.doAndonSet,"ax",%progbits
 993              		.align	2
 994              		.global	doAndonSet
 995              		.code	16
 996              		.thumb_func
 997              		.type	doAndonSet, %function
 998              	doAndonSet:
 999              	.LFB67:
 266:andonMenu.c   **** 
 267:andonMenu.c   **** 
 268:andonMenu.c   **** int doAndonSet(void *this, uint8 reflash) /////////////////////////////////////////////////////////
 269:andonMenu.c   **** /////////////////////////////////////////////////////////////////////////////////////////////////
 270:andonMenu.c   **** {    
 1000              		.loc 1 270 0
 1001              		.cfi_startproc
 1002              		@ args = 0, pretend = 0, frame = 0
 1003              		@ frame_needed = 0, uses_anonymous_args = 0
 1004              	.LVL123:
 1005 0000 10B5     		push	{r4, lr}
 1006              		.cfi_def_cfa_offset 8
 1007              		.cfi_offset 4, -8
 1008              		.cfi_offset 14, -4
 1009 0002 82B0     		sub	sp, sp, #8
 1010              		.cfi_def_cfa_offset 16
 1011 0004 0400     		movs	r4, r0
 1012              	.LVL124:
 271:andonMenu.c   ****     MENUNODE *thisMenu = (MENUNODE *) this;    
 272:andonMenu.c   **** 
 273:andonMenu.c   ****     static char *listText[] = {"DISABLE", "ENABLE"};
 274:andonMenu.c   ****     static uint16 indexSelect = 0;
 275:andonMenu.c   ****     static uint16 page = 0;
 276:andonMenu.c   ****     
 277:andonMenu.c   ****     if(reflash)
 1013              		.loc 1 277 0
 1014 0006 0029     		cmp	r1, #0
 1015 0008 0BD0     		beq	.L71
 278:andonMenu.c   ****     {
 279:andonMenu.c   ****         if(g_ptrMachineParameter->andon_enable)
 1016              		.loc 1 279 0
 1017 000a 264B     		ldr	r3, .L82
 1018 000c 1B68     		ldr	r3, [r3]
 1019 000e 9B8A     		ldrh	r3, [r3, #20]
 1020 0010 002B     		cmp	r3, #0
 1021 0012 03D0     		beq	.L72
 280:andonMenu.c   ****             indexSelect = 1;
 1022              		.loc 1 280 0
 1023 0014 0122     		movs	r2, #1
 1024 0016 244B     		ldr	r3, .L82+4
 1025 0018 DA83     		strh	r2, [r3, #30]
 1026 001a 02E0     		b	.L71
 1027              	.L72:
 281:andonMenu.c   ****         else                       
 282:andonMenu.c   ****             indexSelect = 0;
 1028              		.loc 1 282 0
 1029 001c 0022     		movs	r2, #0
 1030 001e 224B     		ldr	r3, .L82+4
 1031 0020 DA83     		strh	r2, [r3, #30]
ARM GAS  C:\Users\luvsd\AppData\Local\Temp\ccVgSZhb.s 			page 38


 1032              	.L71:
 283:andonMenu.c   ****     }
 284:andonMenu.c   ****     
 285:andonMenu.c   ****     switch(doSelectList(this, reflash, listText, 2, &indexSelect, &page))
 1033              		.loc 1 285 0
 1034 0022 214B     		ldr	r3, .L82+4
 1035 0024 1A00     		movs	r2, r3
 1036 0026 2032     		adds	r2, r2, #32
 1037 0028 0192     		str	r2, [sp, #4]
 1038 002a 1E33     		adds	r3, r3, #30
 1039 002c 0093     		str	r3, [sp]
 1040 002e 0223     		movs	r3, #2
 1041 0030 1E4A     		ldr	r2, .L82+8
 1042 0032 0C32     		adds	r2, r2, #12
 1043 0034 2000     		movs	r0, r4
 1044              	.LVL125:
 1045 0036 FFF7FEFF 		bl	doSelectList
 1046              	.LVL126:
 1047 003a 1D4B     		ldr	r3, .L82+12
 1048 003c 9842     		cmp	r0, r3
 1049 003e 19D0     		beq	.L74
 1050 0040 03DC     		bgt	.L75
 1051 0042 1C4B     		ldr	r3, .L82+16
 1052 0044 9842     		cmp	r0, r3
 1053 0046 03D0     		beq	.L76
 1054 0048 29E0     		b	.L80
 1055              	.L75:
 1056 004a 0128     		cmp	r0, #1
 1057 004c 03D9     		bls	.L81
 1058 004e 26E0     		b	.L80
 1059              	.L76:
 286:andonMenu.c   ****     {
 287:andonMenu.c   ****         case 0:
 288:andonMenu.c   ****         case 1:
 289:andonMenu.c   ****             doSelectList(this, TRUE, listText, 2, &indexSelect, &page);
 290:andonMenu.c   ****             break; 
 291:andonMenu.c   ****         case MENU_BOTTOM_LEFT: // QUIT
 292:andonMenu.c   ****         {
 293:andonMenu.c   ****             return MENU_RETURN_PARENT;
 1060              		.loc 1 293 0
 1061 0050 8020     		movs	r0, #128
 1062 0052 0006     		lsls	r0, r0, #24
 1063 0054 24E0     		b	.L73
 1064              	.L81:
 289:andonMenu.c   ****             break; 
 1065              		.loc 1 289 0
 1066 0056 144B     		ldr	r3, .L82+4
 1067 0058 1A00     		movs	r2, r3
 1068 005a 2032     		adds	r2, r2, #32
 1069 005c 0192     		str	r2, [sp, #4]
 1070 005e 1E33     		adds	r3, r3, #30
 1071 0060 0093     		str	r3, [sp]
 1072 0062 0223     		movs	r3, #2
 1073 0064 114A     		ldr	r2, .L82+8
 1074 0066 0C32     		adds	r2, r2, #12
 1075 0068 0121     		movs	r1, #1
 1076 006a 2000     		movs	r0, r4
ARM GAS  C:\Users\luvsd\AppData\Local\Temp\ccVgSZhb.s 			page 39


 1077 006c FFF7FEFF 		bl	doSelectList
 1078              	.LVL127:
 294:andonMenu.c   ****         }
 295:andonMenu.c   ****         case MENU_BOTTOM_RIGHT: // SAVE
 296:andonMenu.c   ****         {
 297:andonMenu.c   ****             if(indexSelect == 0)
 298:andonMenu.c   ****                 g_ptrMachineParameter->andon_enable = FALSE;
 299:andonMenu.c   ****             else
 300:andonMenu.c   ****                  g_ptrMachineParameter->andon_enable = TRUE;
 301:andonMenu.c   ****             ShowWaitMessage();                                    
 302:andonMenu.c   ****             SaveExternalFlashConfig();
 303:andonMenu.c   ****             CySoftwareReset();
 304:andonMenu.c   ****         }            
 305:andonMenu.c   ****     }
 306:andonMenu.c   ****     return MENU_RETURN_THIS;    
 1079              		.loc 1 306 0
 1080 0070 1148     		ldr	r0, .L82+20
 290:andonMenu.c   ****         case MENU_BOTTOM_LEFT: // QUIT
 1081              		.loc 1 290 0
 1082 0072 15E0     		b	.L73
 1083              	.L74:
 297:andonMenu.c   ****                 g_ptrMachineParameter->andon_enable = FALSE;
 1084              		.loc 1 297 0
 1085 0074 0C4B     		ldr	r3, .L82+4
 1086 0076 DB8B     		ldrh	r3, [r3, #30]
 1087 0078 002B     		cmp	r3, #0
 1088 007a 04D1     		bne	.L78
 298:andonMenu.c   ****             else
 1089              		.loc 1 298 0
 1090 007c 094B     		ldr	r3, .L82
 1091 007e 1B68     		ldr	r3, [r3]
 1092 0080 0022     		movs	r2, #0
 1093 0082 9A82     		strh	r2, [r3, #20]
 1094 0084 03E0     		b	.L79
 1095              	.L78:
 300:andonMenu.c   ****             ShowWaitMessage();                                    
 1096              		.loc 1 300 0
 1097 0086 074B     		ldr	r3, .L82
 1098 0088 1B68     		ldr	r3, [r3]
 1099 008a 0122     		movs	r2, #1
 1100 008c 9A82     		strh	r2, [r3, #20]
 1101              	.L79:
 301:andonMenu.c   ****             SaveExternalFlashConfig();
 1102              		.loc 1 301 0
 1103 008e FFF7FEFF 		bl	ShowWaitMessage
 1104              	.LVL128:
 302:andonMenu.c   ****             CySoftwareReset();
 1105              		.loc 1 302 0
 1106 0092 FFF7FEFF 		bl	SaveExternalFlashConfig
 1107              	.LVL129:
 303:andonMenu.c   ****         }            
 1108              		.loc 1 303 0
 1109 0096 FFF7FEFF 		bl	CySoftwareReset
 1110              	.LVL130:
 1111              		.loc 1 306 0
 1112 009a 0748     		ldr	r0, .L82+20
 1113 009c 00E0     		b	.L73
ARM GAS  C:\Users\luvsd\AppData\Local\Temp\ccVgSZhb.s 			page 40


 1114              	.L80:
 1115 009e 0648     		ldr	r0, .L82+20
 1116              	.L73:
 307:andonMenu.c   **** }
 1117              		.loc 1 307 0
 1118 00a0 02B0     		add	sp, sp, #8
 1119              		@ sp needed
 1120              	.LVL131:
 1121 00a2 10BD     		pop	{r4, pc}
 1122              	.L83:
 1123              		.align	2
 1124              	.L82:
 1125 00a4 00000000 		.word	g_ptrMachineParameter
 1126 00a8 00030000 		.word	.LANCHOR2
 1127 00ac 00000000 		.word	.LANCHOR1
 1128 00b0 04000080 		.word	-2147483644
 1129 00b4 03000080 		.word	-2147483645
 1130 00b8 01000080 		.word	-2147483647
 1131              		.cfi_endproc
 1132              	.LFE67:
 1133              		.size	doAndonSet, .-doAndonSet
 1134              		.comm	Param,6,4
 1135              		.data
 1136              		.align	2
 1137              		.set	.LANCHOR1,. + 0
 1138              		.type	listText.9590, %object
 1139              		.size	listText.9590, 8
 1140              	listText.9590:
 1141 0000 68000000 		.word	.LC42
 1142 0004 70000000 		.word	.LC43
 1143              		.type	bToggle.9562, %object
 1144              		.size	bToggle.9562, 4
 1145              	bToggle.9562:
 1146 0008 01000000 		.word	1
 1147              		.type	listText.9620, %object
 1148              		.size	listText.9620, 8
 1149              	listText.9620:
 1150 000c 58000000 		.word	.LC40
 1151 0010 60000000 		.word	.LC41
 1152              		.section	.rodata.str1.4,"aMS",%progbits,1
 1153              		.align	2
 1154              	.LC3:
 1155 0000 25733A23 		.ascii	"%s:#%d\000"
 1155      256400
 1156 0007 00       		.space	1
 1157              	.LC6:
 1158 0008 53454E44 		.ascii	"SEND\000"
 1158      00
 1159 000d 000000   		.space	3
 1160              	.LC8:
 1161 0010 51554954 		.ascii	"QUIT\000"
 1161      00
 1162 0015 000000   		.space	3
 1163              	.LC12:
 1164 0018 252D3130 		.ascii	"%-10s %2d\000"
 1164      73202532 
 1164      6400
ARM GAS  C:\Users\luvsd\AppData\Local\Temp\ccVgSZhb.s 			page 41


 1165 0022 0000     		.space	2
 1166              	.LC14:
 1167 0024 252D3135 		.ascii	"%-15s %2d\000"
 1167      73202532 
 1167      6400
 1168 002e 0000     		.space	2
 1169              	.LC18:
 1170 0030 2530326C 		.ascii	"%02lu:%02lu\000"
 1170      753A2530 
 1170      326C7500 
 1171              	.LC20:
 1172 003c 2530326C 		.ascii	"%02lu %02lu\000"
 1172      75202530 
 1172      326C7500 
 1173              	.LC30:
 1174 0048 414E444F 		.ascii	"ANDON\000"
 1174      4E00
 1175 004e 0000     		.space	2
 1176              	.LC33:
 1177 0050 52455155 		.ascii	"REQUEST\000"
 1177      45535400 
 1178              	.LC40:
 1179 0058 44495341 		.ascii	"DISABLE\000"
 1179      424C4500 
 1180              	.LC41:
 1181 0060 454E4142 		.ascii	"ENABLE\000"
 1181      4C4500
 1182 0067 00       		.space	1
 1183              	.LC42:
 1184 0068 5741524E 		.ascii	"WARNING\000"
 1184      494E4700 
 1185              	.LC43:
 1186 0070 434F4D50 		.ascii	"COMPLETE\000"
 1186      4C455445 
 1186      00
 1187              		.bss
 1188              		.align	2
 1189              		.set	.LANCHOR0,. + 0
 1190              		.set	.LANCHOR2,. + 768
 1191              		.type	indexSelect.9591, %object
 1192              		.size	indexSelect.9591, 2
 1193              	indexSelect.9591:
 1194 0000 0000     		.space	2
 1195 0002 0000     		.space	2
 1196              		.type	menu.9589, %object
 1197              		.size	menu.9589, 776
 1198              	menu.9589:
 1199 0004 00000000 		.space	776
 1199      00000000 
 1199      00000000 
 1199      00000000 
 1199      00000000 
 1200              		.type	strTime.9563, %object
 1201              		.size	strTime.9563, 10
 1202              	strTime.9563:
 1203 030c 00000000 		.space	10
 1203      00000000 
ARM GAS  C:\Users\luvsd\AppData\Local\Temp\ccVgSZhb.s 			page 42


 1203      0000
 1204 0316 0000     		.space	2
 1205              		.type	uOldtSeconds.9561, %object
 1206              		.size	uOldtSeconds.9561, 4
 1207              	uOldtSeconds.9561:
 1208 0318 00000000 		.space	4
 1209              		.type	page.9570, %object
 1210              		.size	page.9570, 2
 1211              	page.9570:
 1212 031c 0000     		.space	2
 1213              		.type	indexSelect.9621, %object
 1214              		.size	indexSelect.9621, 2
 1215              	indexSelect.9621:
 1216 031e 0000     		.space	2
 1217              		.type	page.9622, %object
 1218              		.size	page.9622, 2
 1219              	page.9622:
 1220 0320 0000     		.space	2
 1221              		.text
 1222              	.Letext0:
 1223              		.file 3 "c:\\program files (x86)\\cypress\\psoc creator\\4.4\\psoc creator\\import\\gnu\\arm\\5.4.
 1224              		.file 4 "c:\\program files (x86)\\cypress\\psoc creator\\4.4\\psoc creator\\import\\gnu\\arm\\5.4.
 1225              		.file 5 "Generated_Source\\PSoC4/cytypes.h"
 1226              		.file 6 "main.h"
 1227              		.file 7 "lib/menu.h"
 1228              		.file 8 "lib/UI.h"
 1229              		.file 9 "lib/button.h"
 1230              		.file 10 "lib/widget.h"
 1231              		.file 11 "andonApi.h"
 1232              		.file 12 "userProjectPatternSewing.h"
 1233              		.file 13 "lib/fonts.h"
 1234              		.file 14 "lib/image.h"
 1235              		.file 15 "c:\\program files (x86)\\cypress\\psoc creator\\4.4\\psoc creator\\import\\gnu\\arm\\5.4
 1236              		.file 16 "lib/externalFlash.h"
 1237              		.file 17 "c:\\program files (x86)\\cypress\\psoc creator\\4.4\\psoc creator\\import\\gnu\\arm\\5.4
 1238              		.file 18 "count.h"
 1239              		.file 19 "lib/internalFlash.h"
 1240              		.file 20 "Generated_Source\\PSoC4/CyLib.h"