ARM GAS  C:\Users\luvsd\AppData\Local\Temp\ccrs11Tc.s 			page 1


   1              		.syntax unified
   2              		.cpu cortex-m0
   3              		.fpu softvfp
   4              		.eabi_attribute 20, 1
   5              		.eabi_attribute 21, 1
   6              		.eabi_attribute 23, 3
   7              		.eabi_attribute 24, 1
   8              		.eabi_attribute 25, 1
   9              		.eabi_attribute 26, 1
  10              		.eabi_attribute 30, 1
  11              		.eabi_attribute 34, 0
  12              		.eabi_attribute 18, 4
  13              		.thumb
  14              		.syntax unified
  15              		.file	"count.c"
  16              		.text
  17              	.Ltext0:
  18              		.cfi_sections	.debug_frame
  19              		.section	.text.PatternCountLoop,"ax",%progbits
  20              		.align	2
  21              		.global	PatternCountLoop
  22              		.code	16
  23              		.thumb_func
  24              		.type	PatternCountLoop, %function
  25              	PatternCountLoop:
  26              	.LFB64:
  27              		.file 1 "count.c"
   1:count.c       **** /* ========================================
   2:count.c       ****  *
   3:count.c       ****  * Copyright Suntech, 2023.04.13
   4:count.c       ****  * All Rights Reserved
   5:count.c       ****  * UNPUBLISHED, LICENSED SOFTWARE.
   6:count.c       ****  *
   7:count.c       ****  * CONFIDENTIAL AND PROPRIETARY INFORMATION
   8:count.c       ****  * WHICH IS THE PROPERTY OF Suntech.
   9:count.c       ****  *
  10:count.c       ****  * ========================================
  11:count.c       **** */
  12:count.c       **** #include "main.h"
  13:count.c       **** #include "count.h"
  14:count.c       **** #include "lib/internalFlash.h"
  15:count.c       **** #include "userProjectPatternSewing.h"
  16:count.c       **** #include "andonApi.h"
  17:count.c       **** #include "uartJson.h"
  18:count.c       **** 
  19:count.c       **** uint8 g_updateCountMenu=FALSE;
  20:count.c       **** 
  21:count.c       **** COUNT *g_ptrCount = NULL;
  22:count.c       **** 
  23:count.c       **** static uint32 g_uWorkingTimeCount=0;   /* 접근자 함수(Get/Reset)로만 외부 접근 */
  24:count.c       **** 
  25:count.c       **** void PatternCountLoop();
  26:count.c       **** 
  27:count.c       **** void (*CountFunc)() = &PatternCountLoop;
  28:count.c       **** 
  29:count.c       **** void initCount()
  30:count.c       **** {
ARM GAS  C:\Users\luvsd\AppData\Local\Temp\ccrs11Tc.s 			page 2


  31:count.c       ****     if(sizeof(COUNT) > sizeof(g_internalFlash.data))
  32:count.c       ****     {
  33:count.c       ****         printf("Wrong... COUNT size is large than g_internalFlash.data\r\n");
  34:count.c       ****     }
  35:count.c       ****     g_ptrCount = (COUNT *) &g_internalFlash.data;
  36:count.c       **** 
  37:count.c       ****     SetCountLoop();
  38:count.c       **** }
  39:count.c       **** 
  40:count.c       **** void SetCountLoop()
  41:count.c       **** {
  42:count.c       ****     /* BLACK_CPU: PATTERN_MACHINE 고정 */
  43:count.c       ****     CountFunc = &PatternCountLoop;
  44:count.c       ****     trim_Int_Stop();
  45:count.c       **** }
  46:count.c       **** 
  47:count.c       **** void PatternCountLoop()
  48:count.c       **** {
  28              		.loc 1 48 0
  29              		.cfi_startproc
  30              		@ args = 0, pretend = 0, frame = 0
  31              		@ frame_needed = 0, uses_anonymous_args = 0
  32 0000 10B5     		push	{r4, lr}
  33              		.cfi_def_cfa_offset 8
  34              		.cfi_offset 4, -8
  35              		.cfi_offset 14, -4
  49:count.c       ****     if(uartJsonLoop()==TRUE)
  36              		.loc 1 49 0
  37 0002 FFF7FEFF 		bl	uartJsonLoop
  38              	.LVL0:
  39 0006 0128     		cmp	r0, #1
  40 0008 02D1     		bne	.L1
  50:count.c       ****     {
  51:count.c       ****         g_updateCountMenu = TRUE;
  41              		.loc 1 51 0
  42 000a 0122     		movs	r2, #1
  43 000c 014B     		ldr	r3, .L3
  44 000e 1A70     		strb	r2, [r3]
  45              	.L1:
  52:count.c       ****     }
  53:count.c       **** }
  46              		.loc 1 53 0
  47              		@ sp needed
  48 0010 10BD     		pop	{r4, pc}
  49              	.L4:
  50 0012 C046     		.align	2
  51              	.L3:
  52 0014 00000000 		.word	.LANCHOR0
  53              		.cfi_endproc
  54              	.LFE64:
  55              		.size	PatternCountLoop, .-PatternCountLoop
  56              		.section	.text.SetCountLoop,"ax",%progbits
  57              		.align	2
  58              		.global	SetCountLoop
  59              		.code	16
  60              		.thumb_func
  61              		.type	SetCountLoop, %function
ARM GAS  C:\Users\luvsd\AppData\Local\Temp\ccrs11Tc.s 			page 3


  62              	SetCountLoop:
  63              	.LFB63:
  41:count.c       ****     /* BLACK_CPU: PATTERN_MACHINE 고정 */
  64              		.loc 1 41 0
  65              		.cfi_startproc
  66              		@ args = 0, pretend = 0, frame = 0
  67              		@ frame_needed = 0, uses_anonymous_args = 0
  68 0000 10B5     		push	{r4, lr}
  69              		.cfi_def_cfa_offset 8
  70              		.cfi_offset 4, -8
  71              		.cfi_offset 14, -4
  43:count.c       ****     trim_Int_Stop();
  72              		.loc 1 43 0
  73 0002 034A     		ldr	r2, .L6
  74 0004 034B     		ldr	r3, .L6+4
  75 0006 1A60     		str	r2, [r3]
  44:count.c       **** }
  76              		.loc 1 44 0
  77 0008 FFF7FEFF 		bl	trim_Int_Stop
  78              	.LVL1:
  45:count.c       **** 
  79              		.loc 1 45 0
  80              		@ sp needed
  81 000c 10BD     		pop	{r4, pc}
  82              	.L7:
  83 000e C046     		.align	2
  84              	.L6:
  85 0010 00000000 		.word	PatternCountLoop
  86 0014 00000000 		.word	.LANCHOR1
  87              		.cfi_endproc
  88              	.LFE63:
  89              		.size	SetCountLoop, .-SetCountLoop
  90              		.section	.text.initCount,"ax",%progbits
  91              		.align	2
  92              		.global	initCount
  93              		.code	16
  94              		.thumb_func
  95              		.type	initCount, %function
  96              	initCount:
  97              	.LFB62:
  30:count.c       ****     if(sizeof(COUNT) > sizeof(g_internalFlash.data))
  98              		.loc 1 30 0
  99              		.cfi_startproc
 100              		@ args = 0, pretend = 0, frame = 0
 101              		@ frame_needed = 0, uses_anonymous_args = 0
 102 0000 10B5     		push	{r4, lr}
 103              		.cfi_def_cfa_offset 8
 104              		.cfi_offset 4, -8
 105              		.cfi_offset 14, -4
  35:count.c       **** 
 106              		.loc 1 35 0
 107 0002 034A     		ldr	r2, .L9
 108 0004 034B     		ldr	r3, .L9+4
 109 0006 5A60     		str	r2, [r3, #4]
  37:count.c       **** }
 110              		.loc 1 37 0
 111 0008 FFF7FEFF 		bl	SetCountLoop
ARM GAS  C:\Users\luvsd\AppData\Local\Temp\ccrs11Tc.s 			page 4


 112              	.LVL2:
  38:count.c       **** 
 113              		.loc 1 38 0
 114              		@ sp needed
 115 000c 10BD     		pop	{r4, pc}
 116              	.L10:
 117 000e C046     		.align	2
 118              	.L9:
 119 0010 02000000 		.word	g_internalFlash+2
 120 0014 00000000 		.word	.LANCHOR0
 121              		.cfi_endproc
 122              	.LFE62:
 123              		.size	initCount, .-initCount
 124              		.section	.text.getCount,"ax",%progbits
 125              		.align	2
 126              		.global	getCount
 127              		.code	16
 128              		.thumb_func
 129              		.type	getCount, %function
 130              	getCount:
 131              	.LFB65:
  54:count.c       **** 
  55:count.c       **** COUNT *getCount()
  56:count.c       **** {
 132              		.loc 1 56 0
 133              		.cfi_startproc
 134              		@ args = 0, pretend = 0, frame = 0
 135              		@ frame_needed = 0, uses_anonymous_args = 0
 136              		@ link register save eliminated.
  57:count.c       ****     return g_ptrCount;
 137              		.loc 1 57 0
 138 0000 014B     		ldr	r3, .L12
 139 0002 5868     		ldr	r0, [r3, #4]
  58:count.c       **** }
 140              		.loc 1 58 0
 141              		@ sp needed
 142 0004 7047     		bx	lr
 143              	.L13:
 144 0006 C046     		.align	2
 145              	.L12:
 146 0008 00000000 		.word	.LANCHOR0
 147              		.cfi_endproc
 148              	.LFE65:
 149              		.size	getCount, .-getCount
 150              		.section	.text.ResetCount,"ax",%progbits
 151              		.align	2
 152              		.global	ResetCount
 153              		.code	16
 154              		.thumb_func
 155              		.type	ResetCount, %function
 156              	ResetCount:
 157              	.LFB66:
  59:count.c       **** 
  60:count.c       **** void ResetCount()
  61:count.c       **** {
 158              		.loc 1 61 0
 159              		.cfi_startproc
ARM GAS  C:\Users\luvsd\AppData\Local\Temp\ccrs11Tc.s 			page 5


 160              		@ args = 0, pretend = 0, frame = 0
 161              		@ frame_needed = 0, uses_anonymous_args = 0
 162 0000 10B5     		push	{r4, lr}
 163              		.cfi_def_cfa_offset 8
 164              		.cfi_offset 4, -8
 165              		.cfi_offset 14, -4
  62:count.c       ****     g_ptrCount->patternActualH = 0;
 166              		.loc 1 62 0
 167 0002 0D49     		ldr	r1, .L15
 168 0004 4A68     		ldr	r2, [r1, #4]
 169 0006 0023     		movs	r3, #0
 170 0008 9383     		strh	r3, [r2, #28]
  63:count.c       ****     g_ptrCount->patternActualL = 0;
 171              		.loc 1 63 0
 172 000a D383     		strh	r3, [r2, #30]
  64:count.c       ****     g_ptrCount->patternCycleTimeSumH = 0;
 173              		.loc 1 64 0
 174 000c 9385     		strh	r3, [r2, #44]
  65:count.c       ****     g_ptrCount->patternCycleTimeSumL = 0;
 175              		.loc 1 65 0
 176 000e D385     		strh	r3, [r2, #46]
  66:count.c       ****     g_ptrCount->patternMotorRunTimeSumH = 0;
 177              		.loc 1 66 0
 178 0010 5386     		strh	r3, [r2, #50]
  67:count.c       ****     g_ptrCount->patternMotorRunTimeSumL = 0;
 179              		.loc 1 67 0
 180 0012 9386     		strh	r3, [r2, #52]
  68:count.c       ****     g_ptrCount->patternNoStitchSumH = 0;
 181              		.loc 1 68 0
 182 0014 1387     		strh	r3, [r2, #56]
  69:count.c       ****     g_ptrCount->patternNoStitchSumL = 0;
 183              		.loc 1 69 0
 184 0016 5387     		strh	r3, [r2, #58]
  70:count.c       ****     g_ptrCount->patternStitchLengthSumH = 0;
 185              		.loc 1 70 0
 186 0018 D387     		strh	r3, [r2, #62]
  71:count.c       ****     g_ptrCount->patternStitchLengthSumL = 0;
 187              		.loc 1 71 0
 188 001a 4020     		movs	r0, #64
 189 001c 1352     		strh	r3, [r2, r0]
  72:count.c       ****     g_ptrCount->patternTrimCountSumH = 0;
 190              		.loc 1 72 0
 191 001e 0430     		adds	r0, r0, #4
 192 0020 1352     		strh	r3, [r2, r0]
  73:count.c       ****     g_ptrCount->patternTrimCountSumL = 0;
 193              		.loc 1 73 0
 194 0022 0230     		adds	r0, r0, #2
 195 0024 1352     		strh	r3, [r2, r0]
  74:count.c       ****     g_ptrCount->patternEmergencyTimeSumH = 0;
 196              		.loc 1 74 0
 197 0026 D384     		strh	r3, [r2, #38]
  75:count.c       ****     g_ptrCount->patternEmergencyTimeSumL = 0;
 198              		.loc 1 75 0
 199 0028 1385     		strh	r3, [r2, #40]
  76:count.c       ****     g_ptrCount->sewingActualH = 0;
 200              		.loc 1 76 0
 201 002a 1380     		strh	r3, [r2]
ARM GAS  C:\Users\luvsd\AppData\Local\Temp\ccrs11Tc.s 			page 6


  77:count.c       ****     g_ptrCount->sewingActualL = 0;
 202              		.loc 1 77 0
 203 002c 4A68     		ldr	r2, [r1, #4]
 204 002e 5380     		strh	r3, [r2, #2]
  78:count.c       **** 
  79:count.c       ****     SaveInternalFlash();
 205              		.loc 1 79 0
 206 0030 FFF7FEFF 		bl	SaveInternalFlash
 207              	.LVL3:
  80:count.c       **** }
 208              		.loc 1 80 0
 209              		@ sp needed
 210 0034 10BD     		pop	{r4, pc}
 211              	.L16:
 212 0036 C046     		.align	2
 213              	.L15:
 214 0038 00000000 		.word	.LANCHOR0
 215              		.cfi_endproc
 216              	.LFE66:
 217              		.size	ResetCount, .-ResetCount
 218              		.section	.text.WorkingTimeCount,"ax",%progbits
 219              		.align	2
 220              		.global	WorkingTimeCount
 221              		.code	16
 222              		.thumb_func
 223              		.type	WorkingTimeCount, %function
 224              	WorkingTimeCount:
 225              	.LFB67:
  81:count.c       **** 
  82:count.c       **** void WorkingTimeCount()
  83:count.c       **** {
 226              		.loc 1 83 0
 227              		.cfi_startproc
 228              		@ args = 0, pretend = 0, frame = 0
 229              		@ frame_needed = 0, uses_anonymous_args = 0
 230              		@ link register save eliminated.
  84:count.c       ****     g_uWorkingTimeCount++;
 231              		.loc 1 84 0
 232 0000 024A     		ldr	r2, .L18
 233 0002 9368     		ldr	r3, [r2, #8]
 234 0004 0133     		adds	r3, r3, #1
 235 0006 9360     		str	r3, [r2, #8]
  85:count.c       **** }
 236              		.loc 1 85 0
 237              		@ sp needed
 238 0008 7047     		bx	lr
 239              	.L19:
 240 000a C046     		.align	2
 241              	.L18:
 242 000c 00000000 		.word	.LANCHOR0
 243              		.cfi_endproc
 244              	.LFE67:
 245              		.size	WorkingTimeCount, .-WorkingTimeCount
 246              		.section	.text.GetWorkingTimeCount,"ax",%progbits
 247              		.align	2
 248              		.global	GetWorkingTimeCount
 249              		.code	16
ARM GAS  C:\Users\luvsd\AppData\Local\Temp\ccrs11Tc.s 			page 7


 250              		.thumb_func
 251              		.type	GetWorkingTimeCount, %function
 252              	GetWorkingTimeCount:
 253              	.LFB68:
  86:count.c       **** 
  87:count.c       **** uint32 GetWorkingTimeCount()
  88:count.c       **** {
 254              		.loc 1 88 0
 255              		.cfi_startproc
 256              		@ args = 0, pretend = 0, frame = 0
 257              		@ frame_needed = 0, uses_anonymous_args = 0
 258              		@ link register save eliminated.
  89:count.c       ****     return g_uWorkingTimeCount;
 259              		.loc 1 89 0
 260 0000 014B     		ldr	r3, .L21
 261 0002 9868     		ldr	r0, [r3, #8]
  90:count.c       **** }
 262              		.loc 1 90 0
 263              		@ sp needed
 264 0004 7047     		bx	lr
 265              	.L22:
 266 0006 C046     		.align	2
 267              	.L21:
 268 0008 00000000 		.word	.LANCHOR0
 269              		.cfi_endproc
 270              	.LFE68:
 271              		.size	GetWorkingTimeCount, .-GetWorkingTimeCount
 272              		.section	.text.ResetWorkingTimeCount,"ax",%progbits
 273              		.align	2
 274              		.global	ResetWorkingTimeCount
 275              		.code	16
 276              		.thumb_func
 277              		.type	ResetWorkingTimeCount, %function
 278              	ResetWorkingTimeCount:
 279              	.LFB69:
  91:count.c       **** 
  92:count.c       **** void ResetWorkingTimeCount()
  93:count.c       **** {
 280              		.loc 1 93 0
 281              		.cfi_startproc
 282              		@ args = 0, pretend = 0, frame = 0
 283              		@ frame_needed = 0, uses_anonymous_args = 0
 284              		@ link register save eliminated.
  94:count.c       ****     g_uWorkingTimeCount = 0;
 285              		.loc 1 94 0
 286 0000 0022     		movs	r2, #0
 287 0002 014B     		ldr	r3, .L24
 288 0004 9A60     		str	r2, [r3, #8]
  95:count.c       **** }
 289              		.loc 1 95 0
 290              		@ sp needed
 291 0006 7047     		bx	lr
 292              	.L25:
 293              		.align	2
 294              	.L24:
 295 0008 00000000 		.word	.LANCHOR0
 296              		.cfi_endproc
ARM GAS  C:\Users\luvsd\AppData\Local\Temp\ccrs11Tc.s 			page 8


 297              	.LFE69:
 298              		.size	ResetWorkingTimeCount, .-ResetWorkingTimeCount
 299              		.global	CountFunc
 300              		.global	g_ptrCount
 301              		.global	g_updateCountMenu
 302              		.comm	Param,6,4
 303              		.data
 304              		.align	2
 305              		.set	.LANCHOR1,. + 0
 306              		.type	CountFunc, %object
 307              		.size	CountFunc, 4
 308              	CountFunc:
 309 0000 00000000 		.word	PatternCountLoop
 310              		.bss
 311              		.align	2
 312              		.set	.LANCHOR0,. + 0
 313              		.type	g_updateCountMenu, %object
 314              		.size	g_updateCountMenu, 1
 315              	g_updateCountMenu:
 316 0000 00       		.space	1
 317 0001 000000   		.space	3
 318              		.type	g_ptrCount, %object
 319              		.size	g_ptrCount, 4
 320              	g_ptrCount:
 321 0004 00000000 		.space	4
 322              		.type	g_uWorkingTimeCount, %object
 323              		.size	g_uWorkingTimeCount, 4
 324              	g_uWorkingTimeCount:
 325 0008 00000000 		.space	4
 326              		.text
 327              	.Letext0:
 328              		.file 2 "Generated_Source\\PSoC4/cytypes.h"
 329              		.file 3 "main.h"
 330              		.file 4 "count.h"
 331              		.file 5 "lib/internalFlash.h"
 332              		.file 6 "Generated_Source\\PSoC4/RTC.h"
 333              		.file 7 "uartJson.h"
 334              		.file 8 "Generated_Source\\PSoC4/trim_Int.h"