ARM GAS  C:\Users\theGu\AppData\Local\Temp\ccmoAs9N.s 			page 1


   1              		.syntax unified
   2              		.cpu cortex-m0
   3              		.fpu softvfp
   4              		.eabi_attribute 20, 1
   5              		.eabi_attribute 21, 1
   6              		.eabi_attribute 23, 3
   7              		.eabi_attribute 24, 1
   8              		.eabi_attribute 25, 1
   9              		.eabi_attribute 26, 1
  10              		.eabi_attribute 30, 1
  11              		.eabi_attribute 34, 0
  12              		.eabi_attribute 18, 4
  13              		.thumb
  14              		.syntax unified
  15              		.file	"logQueue.c"
  16              		.text
  17              	.Ltext0:
  18              		.cfi_sections	.debug_frame
  19              		.global	__aeabi_idivmod
  20              		.section	.text.isFullQueueLog,"ax",%progbits
  21              		.align	2
  22              		.global	isFullQueueLog
  23              		.code	16
  24              		.thumb_func
  25              		.type	isFullQueueLog, %function
  26              	isFullQueueLog:
  27              	.LFB61:
  28              		.file 1 "logQueue.c"
   1:logQueue.c    **** /* ========================================
   2:logQueue.c    ****  *
   3:logQueue.c    ****  * Copyright YOUR COMPANY, THE YEAR
   4:logQueue.c    ****  * All Rights Reserved
   5:logQueue.c    ****  * UNPUBLISHED, LICENSED SOFTWARE.
   6:logQueue.c    ****  *
   7:logQueue.c    ****  * CONFIDENTIAL AND PROPRIETARY INFORMATION
   8:logQueue.c    ****  * WHICH IS THE PROPERTY OF your company.
   9:logQueue.c    ****  *
  10:logQueue.c    ****  * ========================================
  11:logQueue.c    **** */
  12:logQueue.c    **** #include "logQueue.h"
  13:logQueue.c    **** 
  14:logQueue.c    **** short g_uSizeQueueLog=0;
  15:logQueue.c    **** short g_uFrontQueueLog=0;
  16:logQueue.c    **** short g_uRearQueueLog=0;
  17:logQueue.c    **** char  g_cLogQueue[MAX_LOG_QUEUE][50];
  18:logQueue.c    **** 
  19:logQueue.c    **** uint8 g_bLogQueuUpdated = FALSE;
  20:logQueue.c    **** 
  21:logQueue.c    **** int isFullQueueLog(void)
  22:logQueue.c    **** {
  29              		.loc 1 22 0
  30              		.cfi_startproc
  31              		@ args = 0, pretend = 0, frame = 0
  32              		@ frame_needed = 0, uses_anonymous_args = 0
  33 0000 10B5     		push	{r4, lr}
  34              		.cfi_def_cfa_offset 8
  35              		.cfi_offset 4, -8
ARM GAS  C:\Users\theGu\AppData\Local\Temp\ccmoAs9N.s 			page 2


  36              		.cfi_offset 14, -4
  23:logQueue.c    ****     if( (g_uRearQueueLog + 1) % MAX_LOG_QUEUE == g_uFrontQueueLog)
  37              		.loc 1 23 0
  38 0002 074C     		ldr	r4, .L4
  39 0004 0023     		movs	r3, #0
  40 0006 E05E     		ldrsh	r0, [r4, r3]
  41 0008 0130     		adds	r0, r0, #1
  42 000a 0A21     		movs	r1, #10
  43 000c FFF7FEFF 		bl	__aeabi_idivmod
  44              	.LVL0:
  45 0010 0222     		movs	r2, #2
  46 0012 A35E     		ldrsh	r3, [r4, r2]
  47 0014 9942     		cmp	r1, r3
  48 0016 01D1     		bne	.L3
  24:logQueue.c    ****         return 1;
  49              		.loc 1 24 0
  50 0018 0120     		movs	r0, #1
  51 001a 00E0     		b	.L2
  52              	.L3:
  25:logQueue.c    ****     else
  26:logQueue.c    ****         return 0;
  53              		.loc 1 26 0
  54 001c 0020     		movs	r0, #0
  55              	.L2:
  27:logQueue.c    **** }
  56              		.loc 1 27 0
  57              		@ sp needed
  58 001e 10BD     		pop	{r4, pc}
  59              	.L5:
  60              		.align	2
  61              	.L4:
  62 0020 00000000 		.word	.LANCHOR0
  63              		.cfi_endproc
  64              	.LFE61:
  65              		.size	isFullQueueLog, .-isFullQueueLog
  66              		.section	.text.isEmptyQueueLog,"ax",%progbits
  67              		.align	2
  68              		.global	isEmptyQueueLog
  69              		.code	16
  70              		.thumb_func
  71              		.type	isEmptyQueueLog, %function
  72              	isEmptyQueueLog:
  73              	.LFB62:
  28:logQueue.c    **** 
  29:logQueue.c    **** int isEmptyQueueLog(void)
  30:logQueue.c    **** {
  74              		.loc 1 30 0
  75              		.cfi_startproc
  76              		@ args = 0, pretend = 0, frame = 0
  77              		@ frame_needed = 0, uses_anonymous_args = 0
  78              		@ link register save eliminated.
  31:logQueue.c    ****     if(g_uFrontQueueLog==g_uRearQueueLog)
  79              		.loc 1 31 0
  80 0000 054B     		ldr	r3, .L9
  81 0002 0221     		movs	r1, #2
  82 0004 5A5E     		ldrsh	r2, [r3, r1]
  83 0006 0021     		movs	r1, #0
ARM GAS  C:\Users\theGu\AppData\Local\Temp\ccmoAs9N.s 			page 3


  84 0008 5B5E     		ldrsh	r3, [r3, r1]
  85 000a 9A42     		cmp	r2, r3
  86 000c 01D1     		bne	.L8
  32:logQueue.c    ****             return 1;
  87              		.loc 1 32 0
  88 000e 0120     		movs	r0, #1
  89 0010 00E0     		b	.L7
  90              	.L8:
  33:logQueue.c    ****     else
  34:logQueue.c    ****             return 0;
  91              		.loc 1 34 0
  92 0012 0020     		movs	r0, #0
  93              	.L7:
  35:logQueue.c    **** }
  94              		.loc 1 35 0
  95              		@ sp needed
  96 0014 7047     		bx	lr
  97              	.L10:
  98 0016 C046     		.align	2
  99              	.L9:
 100 0018 00000000 		.word	.LANCHOR0
 101              		.cfi_endproc
 102              	.LFE62:
 103              		.size	isEmptyQueueLog, .-isEmptyQueueLog
 104              		.section	.text.changeLogQueue,"ax",%progbits
 105              		.align	2
 106              		.global	changeLogQueue
 107              		.code	16
 108              		.thumb_func
 109              		.type	changeLogQueue, %function
 110              	changeLogQueue:
 111              	.LFB66:
  36:logQueue.c    **** 
  37:logQueue.c    **** uint8 enQueueLog(char *str)
  38:logQueue.c    **** {
  39:logQueue.c    ****     if(isFullQueueLog()) deQueueLog();
  40:logQueue.c    ****     
  41:logQueue.c    ****     g_uSizeQueueLog++;
  42:logQueue.c    ****     g_uRearQueueLog = (g_uRearQueueLog + 1) % MAX_LOG_QUEUE;
  43:logQueue.c    ****     strcpy(g_cLogQueue[g_uRearQueueLog], str);
  44:logQueue.c    ****     
  45:logQueue.c    ****     g_bLogQueuUpdated = TRUE;
  46:logQueue.c    ****     return TRUE;
  47:logQueue.c    **** }
  48:logQueue.c    **** 
  49:logQueue.c    **** uint8 enQueueLog_printf(const char *fmt, ...)
  50:logQueue.c    **** {
  51:logQueue.c    ****     if(isFullQueueLog()) deQueueLog();
  52:logQueue.c    ****     
  53:logQueue.c    ****     g_uSizeQueueLog++;
  54:logQueue.c    ****     g_uRearQueueLog = (g_uRearQueueLog + 1) % MAX_LOG_QUEUE;
  55:logQueue.c    ****        
  56:logQueue.c    ****     va_list ap;   
  57:logQueue.c    ****     va_start(ap, fmt);
  58:logQueue.c    **** 
  59:logQueue.c    ****     vsprintf(g_cLogQueue[g_uRearQueueLog], fmt, ap);
  60:logQueue.c    ****     va_end(ap);
ARM GAS  C:\Users\theGu\AppData\Local\Temp\ccmoAs9N.s 			page 4


  61:logQueue.c    ****     
  62:logQueue.c    ****     g_bLogQueuUpdated = TRUE;
  63:logQueue.c    ****     return TRUE;    
  64:logQueue.c    **** }
  65:logQueue.c    **** 
  66:logQueue.c    **** // 마지막에 있는 문자열을 찾아 그곳에 새로운 문자열을 추가한다.
  67:logQueue.c    **** void lastAppendLogQueue(char *str)
  68:logQueue.c    **** {
  69:logQueue.c    ****     char msg[50];
  70:logQueue.c    ****     strcpy(msg,getRearQueueLog());
  71:logQueue.c    ****     strcat(msg,str);
  72:logQueue.c    ****     strcpy(getRearQueueLog(),msg);
  73:logQueue.c    ****     g_bLogQueuUpdated = TRUE;    
  74:logQueue.c    **** }
  75:logQueue.c    **** 
  76:logQueue.c    **** 
  77:logQueue.c    **** void changeLogQueue(const char *fmt, ...)
  78:logQueue.c    **** {
 112              		.loc 1 78 0
 113              		.cfi_startproc
 114              		@ args = 4, pretend = 16, frame = 8
 115              		@ frame_needed = 0, uses_anonymous_args = 1
 116              	.LVL1:
 117 0000 0FB4     		push	{r0, r1, r2, r3}
 118              		.cfi_def_cfa_offset 16
 119 0002 00B5     		push	{lr}
 120              		.cfi_def_cfa_offset 20
 121              		.cfi_offset 14, -20
 122 0004 83B0     		sub	sp, sp, #12
 123              		.cfi_def_cfa_offset 32
 124 0006 04AA     		add	r2, sp, #16
 125 0008 02CA     		ldmia	r2!, {r1}
  79:logQueue.c    ****     va_list ap;   
  80:logQueue.c    ****     va_start(ap, fmt);
 126              		.loc 1 80 0
 127 000a 0192     		str	r2, [sp, #4]
  81:logQueue.c    **** 
  82:logQueue.c    ****     vsprintf(g_cLogQueue[g_uRearQueueLog], fmt, ap);
 128              		.loc 1 82 0
 129 000c 064B     		ldr	r3, .L12
 130 000e 0020     		movs	r0, #0
 131 0010 185E     		ldrsh	r0, [r3, r0]
 132 0012 3223     		movs	r3, #50
 133 0014 5843     		muls	r0, r3
 134 0016 054B     		ldr	r3, .L12+4
 135 0018 C018     		adds	r0, r0, r3
 136 001a FFF7FEFF 		bl	vsprintf
 137              	.LVL2:
  83:logQueue.c    ****     va_end(ap);  
  84:logQueue.c    **** }
 138              		.loc 1 84 0
 139 001e 03B0     		add	sp, sp, #12
 140              		@ sp needed
 141 0020 08BC     		pop	{r3}
 142 0022 04B0     		add	sp, sp, #16
 143 0024 1847     		bx	r3
 144              	.L13:
ARM GAS  C:\Users\theGu\AppData\Local\Temp\ccmoAs9N.s 			page 5


 145 0026 C046     		.align	2
 146              	.L12:
 147 0028 00000000 		.word	.LANCHOR0
 148 002c 00000000 		.word	g_cLogQueue
 149              		.cfi_endproc
 150              	.LFE66:
 151              		.size	changeLogQueue, .-changeLogQueue
 152              		.section	.text.deQueueLog,"ax",%progbits
 153              		.align	2
 154              		.global	deQueueLog
 155              		.code	16
 156              		.thumb_func
 157              		.type	deQueueLog, %function
 158              	deQueueLog:
 159              	.LFB67:
  85:logQueue.c    **** 
  86:logQueue.c    **** char *deQueueLog(void)
  87:logQueue.c    **** {
 160              		.loc 1 87 0
 161              		.cfi_startproc
 162              		@ args = 0, pretend = 0, frame = 0
 163              		@ frame_needed = 0, uses_anonymous_args = 0
 164 0000 10B5     		push	{r4, lr}
 165              		.cfi_def_cfa_offset 8
 166              		.cfi_offset 4, -8
 167              		.cfi_offset 14, -4
  88:logQueue.c    ****     g_uSizeQueueLog--;
 168              		.loc 1 88 0
 169 0002 084C     		ldr	r4, .L15
 170 0004 A388     		ldrh	r3, [r4, #4]
 171 0006 013B     		subs	r3, r3, #1
 172 0008 A380     		strh	r3, [r4, #4]
  89:logQueue.c    ****     g_uFrontQueueLog = (g_uFrontQueueLog + 1) % MAX_LOG_QUEUE;
 173              		.loc 1 89 0
 174 000a 0223     		movs	r3, #2
 175 000c E05E     		ldrsh	r0, [r4, r3]
 176 000e 0130     		adds	r0, r0, #1
 177 0010 0A21     		movs	r1, #10
 178 0012 FFF7FEFF 		bl	__aeabi_idivmod
 179              	.LVL3:
 180 0016 09B2     		sxth	r1, r1
 181 0018 6180     		strh	r1, [r4, #2]
  90:logQueue.c    ****     
  91:logQueue.c    ****     return g_cLogQueue[g_uFrontQueueLog];
 182              		.loc 1 91 0
 183 001a 3220     		movs	r0, #50
 184 001c 4143     		muls	r1, r0
 185 001e 024B     		ldr	r3, .L15+4
 186 0020 C818     		adds	r0, r1, r3
  92:logQueue.c    **** }
 187              		.loc 1 92 0
 188              		@ sp needed
 189 0022 10BD     		pop	{r4, pc}
 190              	.L16:
 191              		.align	2
 192              	.L15:
 193 0024 00000000 		.word	.LANCHOR0
ARM GAS  C:\Users\theGu\AppData\Local\Temp\ccmoAs9N.s 			page 6


 194 0028 00000000 		.word	g_cLogQueue
 195              		.cfi_endproc
 196              	.LFE67:
 197              		.size	deQueueLog, .-deQueueLog
 198              		.section	.text.enQueueLog,"ax",%progbits
 199              		.align	2
 200              		.global	enQueueLog
 201              		.code	16
 202              		.thumb_func
 203              		.type	enQueueLog, %function
 204              	enQueueLog:
 205              	.LFB63:
  38:logQueue.c    ****     if(isFullQueueLog()) deQueueLog();
 206              		.loc 1 38 0
 207              		.cfi_startproc
 208              		@ args = 0, pretend = 0, frame = 0
 209              		@ frame_needed = 0, uses_anonymous_args = 0
 210              	.LVL4:
 211 0000 70B5     		push	{r4, r5, r6, lr}
 212              		.cfi_def_cfa_offset 16
 213              		.cfi_offset 4, -16
 214              		.cfi_offset 5, -12
 215              		.cfi_offset 6, -8
 216              		.cfi_offset 14, -4
 217 0002 0500     		movs	r5, r0
  39:logQueue.c    ****     
 218              		.loc 1 39 0
 219 0004 FFF7FEFF 		bl	isFullQueueLog
 220              	.LVL5:
 221 0008 0028     		cmp	r0, #0
 222 000a 01D0     		beq	.L18
  39:logQueue.c    ****     
 223              		.loc 1 39 0 is_stmt 0 discriminator 1
 224 000c FFF7FEFF 		bl	deQueueLog
 225              	.LVL6:
 226              	.L18:
  41:logQueue.c    ****     g_uRearQueueLog = (g_uRearQueueLog + 1) % MAX_LOG_QUEUE;
 227              		.loc 1 41 0 is_stmt 1
 228 0010 0B4C     		ldr	r4, .L19
 229 0012 A388     		ldrh	r3, [r4, #4]
 230 0014 0133     		adds	r3, r3, #1
 231 0016 A380     		strh	r3, [r4, #4]
  42:logQueue.c    ****     strcpy(g_cLogQueue[g_uRearQueueLog], str);
 232              		.loc 1 42 0
 233 0018 0023     		movs	r3, #0
 234 001a E05E     		ldrsh	r0, [r4, r3]
 235 001c 0130     		adds	r0, r0, #1
 236 001e 0A21     		movs	r1, #10
 237 0020 FFF7FEFF 		bl	__aeabi_idivmod
 238              	.LVL7:
 239 0024 09B2     		sxth	r1, r1
 240 0026 2180     		strh	r1, [r4]
  43:logQueue.c    ****     
 241              		.loc 1 43 0
 242 0028 3220     		movs	r0, #50
 243 002a 4143     		muls	r1, r0
 244 002c 054B     		ldr	r3, .L19+4
ARM GAS  C:\Users\theGu\AppData\Local\Temp\ccmoAs9N.s 			page 7


 245 002e C818     		adds	r0, r1, r3
 246 0030 2900     		movs	r1, r5
 247 0032 FFF7FEFF 		bl	strcpy
 248              	.LVL8:
  45:logQueue.c    ****     return TRUE;
 249              		.loc 1 45 0
 250 0036 0123     		movs	r3, #1
 251 0038 A371     		strb	r3, [r4, #6]
  47:logQueue.c    **** 
 252              		.loc 1 47 0
 253 003a 0120     		movs	r0, #1
 254              		@ sp needed
 255              	.LVL9:
 256 003c 70BD     		pop	{r4, r5, r6, pc}
 257              	.L20:
 258 003e C046     		.align	2
 259              	.L19:
 260 0040 00000000 		.word	.LANCHOR0
 261 0044 00000000 		.word	g_cLogQueue
 262              		.cfi_endproc
 263              	.LFE63:
 264              		.size	enQueueLog, .-enQueueLog
 265              		.section	.text.enQueueLog_printf,"ax",%progbits
 266              		.align	2
 267              		.global	enQueueLog_printf
 268              		.code	16
 269              		.thumb_func
 270              		.type	enQueueLog_printf, %function
 271              	enQueueLog_printf:
 272              	.LFB64:
  50:logQueue.c    ****     if(isFullQueueLog()) deQueueLog();
 273              		.loc 1 50 0
 274              		.cfi_startproc
 275              		@ args = 4, pretend = 16, frame = 8
 276              		@ frame_needed = 0, uses_anonymous_args = 1
 277              	.LVL10:
 278 0000 0FB4     		push	{r0, r1, r2, r3}
 279              		.cfi_def_cfa_offset 16
 280 0002 10B5     		push	{r4, lr}
 281              		.cfi_def_cfa_offset 24
 282              		.cfi_offset 4, -24
 283              		.cfi_offset 14, -20
 284 0004 82B0     		sub	sp, sp, #8
 285              		.cfi_def_cfa_offset 32
  51:logQueue.c    ****     
 286              		.loc 1 51 0
 287 0006 FFF7FEFF 		bl	isFullQueueLog
 288              	.LVL11:
 289 000a 0028     		cmp	r0, #0
 290 000c 01D0     		beq	.L22
  51:logQueue.c    ****     
 291              		.loc 1 51 0 is_stmt 0 discriminator 1
 292 000e FFF7FEFF 		bl	deQueueLog
 293              	.LVL12:
 294              	.L22:
  53:logQueue.c    ****     g_uRearQueueLog = (g_uRearQueueLog + 1) % MAX_LOG_QUEUE;
 295              		.loc 1 53 0 is_stmt 1
ARM GAS  C:\Users\theGu\AppData\Local\Temp\ccmoAs9N.s 			page 8


 296 0012 0E4C     		ldr	r4, .L23
 297 0014 A388     		ldrh	r3, [r4, #4]
 298 0016 0133     		adds	r3, r3, #1
 299 0018 A380     		strh	r3, [r4, #4]
  54:logQueue.c    ****        
 300              		.loc 1 54 0
 301 001a 0023     		movs	r3, #0
 302 001c E05E     		ldrsh	r0, [r4, r3]
 303 001e 0130     		adds	r0, r0, #1
 304 0020 0A21     		movs	r1, #10
 305 0022 FFF7FEFF 		bl	__aeabi_idivmod
 306              	.LVL13:
 307 0026 2180     		strh	r1, [r4]
  57:logQueue.c    **** 
 308              		.loc 1 57 0
 309 0028 05AA     		add	r2, sp, #20
 310 002a 0192     		str	r2, [sp, #4]
  59:logQueue.c    ****     va_end(ap);
 311              		.loc 1 59 0
 312 002c 09B2     		sxth	r1, r1
 313 002e 3220     		movs	r0, #50
 314 0030 4143     		muls	r1, r0
 315 0032 074B     		ldr	r3, .L23+4
 316 0034 C818     		adds	r0, r1, r3
 317 0036 0499     		ldr	r1, [sp, #16]
 318 0038 FFF7FEFF 		bl	vsprintf
 319              	.LVL14:
  62:logQueue.c    ****     return TRUE;    
 320              		.loc 1 62 0
 321 003c 0123     		movs	r3, #1
 322 003e A371     		strb	r3, [r4, #6]
  64:logQueue.c    **** 
 323              		.loc 1 64 0
 324 0040 0120     		movs	r0, #1
 325 0042 02B0     		add	sp, sp, #8
 326              		@ sp needed
 327 0044 10BC     		pop	{r4}
 328 0046 08BC     		pop	{r3}
 329 0048 04B0     		add	sp, sp, #16
 330 004a 1847     		bx	r3
 331              	.L24:
 332              		.align	2
 333              	.L23:
 334 004c 00000000 		.word	.LANCHOR0
 335 0050 00000000 		.word	g_cLogQueue
 336              		.cfi_endproc
 337              	.LFE64:
 338              		.size	enQueueLog_printf, .-enQueueLog_printf
 339              		.section	.text.getFrontQueueLog,"ax",%progbits
 340              		.align	2
 341              		.global	getFrontQueueLog
 342              		.code	16
 343              		.thumb_func
 344              		.type	getFrontQueueLog, %function
 345              	getFrontQueueLog:
 346              	.LFB68:
  93:logQueue.c    **** 
ARM GAS  C:\Users\theGu\AppData\Local\Temp\ccmoAs9N.s 			page 9


  94:logQueue.c    **** char *getFrontQueueLog(void)
  95:logQueue.c    **** {
 347              		.loc 1 95 0
 348              		.cfi_startproc
 349              		@ args = 0, pretend = 0, frame = 0
 350              		@ frame_needed = 0, uses_anonymous_args = 0
 351 0000 10B5     		push	{r4, lr}
 352              		.cfi_def_cfa_offset 8
 353              		.cfi_offset 4, -8
 354              		.cfi_offset 14, -4
  96:logQueue.c    ****    return g_cLogQueue[(g_uFrontQueueLog + 1 ) % MAX_LOG_QUEUE ];
 355              		.loc 1 96 0
 356 0002 064B     		ldr	r3, .L26
 357 0004 0220     		movs	r0, #2
 358 0006 185E     		ldrsh	r0, [r3, r0]
 359 0008 0130     		adds	r0, r0, #1
 360 000a 0A21     		movs	r1, #10
 361 000c FFF7FEFF 		bl	__aeabi_idivmod
 362              	.LVL15:
 363 0010 3223     		movs	r3, #50
 364 0012 4B43     		muls	r3, r1
 365 0014 1800     		movs	r0, r3
 366 0016 024B     		ldr	r3, .L26+4
 367 0018 C018     		adds	r0, r0, r3
  97:logQueue.c    **** }
 368              		.loc 1 97 0
 369              		@ sp needed
 370 001a 10BD     		pop	{r4, pc}
 371              	.L27:
 372              		.align	2
 373              	.L26:
 374 001c 00000000 		.word	.LANCHOR0
 375 0020 00000000 		.word	g_cLogQueue
 376              		.cfi_endproc
 377              	.LFE68:
 378              		.size	getFrontQueueLog, .-getFrontQueueLog
 379              		.section	.text.getFrontNextQueueLog,"ax",%progbits
 380              		.align	2
 381              		.global	getFrontNextQueueLog
 382              		.code	16
 383              		.thumb_func
 384              		.type	getFrontNextQueueLog, %function
 385              	getFrontNextQueueLog:
 386              	.LFB69:
  98:logQueue.c    **** 
  99:logQueue.c    **** char *getFrontNextQueueLog(int i)
 100:logQueue.c    **** {
 387              		.loc 1 100 0
 388              		.cfi_startproc
 389              		@ args = 0, pretend = 0, frame = 0
 390              		@ frame_needed = 0, uses_anonymous_args = 0
 391              	.LVL16:
 392 0000 10B5     		push	{r4, lr}
 393              		.cfi_def_cfa_offset 8
 394              		.cfi_offset 4, -8
 395              		.cfi_offset 14, -4
 101:logQueue.c    ****    return g_cLogQueue[(g_uFrontQueueLog + 1 + i) % MAX_LOG_QUEUE];
ARM GAS  C:\Users\theGu\AppData\Local\Temp\ccmoAs9N.s 			page 10


 396              		.loc 1 101 0
 397 0002 074B     		ldr	r3, .L29
 398 0004 0222     		movs	r2, #2
 399 0006 9B5E     		ldrsh	r3, [r3, r2]
 400 0008 0133     		adds	r3, r3, #1
 401 000a 1818     		adds	r0, r3, r0
 402              	.LVL17:
 403 000c 0A21     		movs	r1, #10
 404 000e FFF7FEFF 		bl	__aeabi_idivmod
 405              	.LVL18:
 406 0012 3223     		movs	r3, #50
 407 0014 4B43     		muls	r3, r1
 408 0016 1800     		movs	r0, r3
 409 0018 024B     		ldr	r3, .L29+4
 410 001a C018     		adds	r0, r0, r3
 102:logQueue.c    **** }
 411              		.loc 1 102 0
 412              		@ sp needed
 413 001c 10BD     		pop	{r4, pc}
 414              	.L30:
 415 001e C046     		.align	2
 416              	.L29:
 417 0020 00000000 		.word	.LANCHOR0
 418 0024 00000000 		.word	g_cLogQueue
 419              		.cfi_endproc
 420              	.LFE69:
 421              		.size	getFrontNextQueueLog, .-getFrontNextQueueLog
 422              		.section	.text.getRearQueueLog,"ax",%progbits
 423              		.align	2
 424              		.global	getRearQueueLog
 425              		.code	16
 426              		.thumb_func
 427              		.type	getRearQueueLog, %function
 428              	getRearQueueLog:
 429              	.LFB70:
 103:logQueue.c    **** 
 104:logQueue.c    **** char *getRearQueueLog(void)
 105:logQueue.c    **** {
 430              		.loc 1 105 0
 431              		.cfi_startproc
 432              		@ args = 0, pretend = 0, frame = 0
 433              		@ frame_needed = 0, uses_anonymous_args = 0
 434 0000 10B5     		push	{r4, lr}
 435              		.cfi_def_cfa_offset 8
 436              		.cfi_offset 4, -8
 437              		.cfi_offset 14, -4
 106:logQueue.c    ****    return g_cLogQueue[ g_uRearQueueLog % MAX_LOG_QUEUE];
 438              		.loc 1 106 0
 439 0002 064B     		ldr	r3, .L32
 440 0004 0020     		movs	r0, #0
 441 0006 185E     		ldrsh	r0, [r3, r0]
 442 0008 0A21     		movs	r1, #10
 443 000a FFF7FEFF 		bl	__aeabi_idivmod
 444              	.LVL19:
 445 000e 08B2     		sxth	r0, r1
 446 0010 3223     		movs	r3, #50
 447 0012 5843     		muls	r0, r3
ARM GAS  C:\Users\theGu\AppData\Local\Temp\ccmoAs9N.s 			page 11


 448 0014 024B     		ldr	r3, .L32+4
 449 0016 C018     		adds	r0, r0, r3
 107:logQueue.c    **** }
 450              		.loc 1 107 0
 451              		@ sp needed
 452 0018 10BD     		pop	{r4, pc}
 453              	.L33:
 454 001a C046     		.align	2
 455              	.L32:
 456 001c 00000000 		.word	.LANCHOR0
 457 0020 00000000 		.word	g_cLogQueue
 458              		.cfi_endproc
 459              	.LFE70:
 460              		.size	getRearQueueLog, .-getRearQueueLog
 461              		.section	.text.lastAppendLogQueue,"ax",%progbits
 462              		.align	2
 463              		.global	lastAppendLogQueue
 464              		.code	16
 465              		.thumb_func
 466              		.type	lastAppendLogQueue, %function
 467              	lastAppendLogQueue:
 468              	.LFB65:
  68:logQueue.c    ****     char msg[50];
 469              		.loc 1 68 0
 470              		.cfi_startproc
 471              		@ args = 0, pretend = 0, frame = 56
 472              		@ frame_needed = 0, uses_anonymous_args = 0
 473              	.LVL20:
 474 0000 10B5     		push	{r4, lr}
 475              		.cfi_def_cfa_offset 8
 476              		.cfi_offset 4, -8
 477              		.cfi_offset 14, -4
 478 0002 8EB0     		sub	sp, sp, #56
 479              		.cfi_def_cfa_offset 64
 480 0004 0400     		movs	r4, r0
  70:logQueue.c    ****     strcat(msg,str);
 481              		.loc 1 70 0
 482 0006 FFF7FEFF 		bl	getRearQueueLog
 483              	.LVL21:
 484 000a 0100     		movs	r1, r0
 485 000c 01A8     		add	r0, sp, #4
 486 000e FFF7FEFF 		bl	strcpy
 487              	.LVL22:
  71:logQueue.c    ****     strcpy(getRearQueueLog(),msg);
 488              		.loc 1 71 0
 489 0012 2100     		movs	r1, r4
 490 0014 01A8     		add	r0, sp, #4
 491 0016 FFF7FEFF 		bl	strcat
 492              	.LVL23:
  72:logQueue.c    ****     g_bLogQueuUpdated = TRUE;    
 493              		.loc 1 72 0
 494 001a FFF7FEFF 		bl	getRearQueueLog
 495              	.LVL24:
 496 001e 01A9     		add	r1, sp, #4
 497 0020 FFF7FEFF 		bl	strcpy
 498              	.LVL25:
  73:logQueue.c    **** }
ARM GAS  C:\Users\theGu\AppData\Local\Temp\ccmoAs9N.s 			page 12


 499              		.loc 1 73 0
 500 0024 0122     		movs	r2, #1
 501 0026 024B     		ldr	r3, .L35
 502 0028 9A71     		strb	r2, [r3, #6]
  74:logQueue.c    **** 
 503              		.loc 1 74 0
 504 002a 0EB0     		add	sp, sp, #56
 505              		@ sp needed
 506              	.LVL26:
 507 002c 10BD     		pop	{r4, pc}
 508              	.L36:
 509 002e C046     		.align	2
 510              	.L35:
 511 0030 00000000 		.word	.LANCHOR0
 512              		.cfi_endproc
 513              	.LFE65:
 514              		.size	lastAppendLogQueue, .-lastAppendLogQueue
 515              		.section	.text.getSizeQueueLog,"ax",%progbits
 516              		.align	2
 517              		.global	getSizeQueueLog
 518              		.code	16
 519              		.thumb_func
 520              		.type	getSizeQueueLog, %function
 521              	getSizeQueueLog:
 522              	.LFB71:
 108:logQueue.c    **** 
 109:logQueue.c    **** short getSizeQueueLog(void)
 110:logQueue.c    **** {
 523              		.loc 1 110 0
 524              		.cfi_startproc
 525              		@ args = 0, pretend = 0, frame = 0
 526              		@ frame_needed = 0, uses_anonymous_args = 0
 527              		@ link register save eliminated.
 111:logQueue.c    ****    return g_uSizeQueueLog;
 528              		.loc 1 111 0
 529 0000 014B     		ldr	r3, .L38
 530 0002 0420     		movs	r0, #4
 531 0004 185E     		ldrsh	r0, [r3, r0]
 112:logQueue.c    **** }
 532              		.loc 1 112 0
 533              		@ sp needed
 534 0006 7047     		bx	lr
 535              	.L39:
 536              		.align	2
 537              	.L38:
 538 0008 00000000 		.word	.LANCHOR0
 539              		.cfi_endproc
 540              	.LFE71:
 541              		.size	getSizeQueueLog, .-getSizeQueueLog
 542              		.section	.text.PrintInfoQueueLog,"ax",%progbits
 543              		.align	2
 544              		.global	PrintInfoQueueLog
 545              		.code	16
 546              		.thumb_func
 547              		.type	PrintInfoQueueLog, %function
 548              	PrintInfoQueueLog:
 549              	.LFB72:
ARM GAS  C:\Users\theGu\AppData\Local\Temp\ccmoAs9N.s 			page 13


 113:logQueue.c    **** 
 114:logQueue.c    **** void PrintInfoQueueLog(void)
 115:logQueue.c    **** {
 550              		.loc 1 115 0
 551              		.cfi_startproc
 552              		@ args = 0, pretend = 0, frame = 0
 553              		@ frame_needed = 0, uses_anonymous_args = 0
 554 0000 10B5     		push	{r4, lr}
 555              		.cfi_def_cfa_offset 8
 556              		.cfi_offset 4, -8
 557              		.cfi_offset 14, -4
 558              	.LVL27:
 559              	.LBB2:
 116:logQueue.c    ****     for(int i=0; i < getSizeQueueLog(); i++)
 560              		.loc 1 116 0
 561 0002 0024     		movs	r4, #0
 562 0004 07E0     		b	.L41
 563              	.LVL28:
 564              	.L42:
 117:logQueue.c    ****        DEBUG_printf("%s\r\n",getFrontNextQueueLog(i));
 565              		.loc 1 117 0 discriminator 3
 566 0006 2000     		movs	r0, r4
 567 0008 FFF7FEFF 		bl	getFrontNextQueueLog
 568              	.LVL29:
 569 000c 0100     		movs	r1, r0
 570 000e 0448     		ldr	r0, .L43
 571 0010 FFF7FEFF 		bl	DEBUG_printf
 572              	.LVL30:
 116:logQueue.c    ****     for(int i=0; i < getSizeQueueLog(); i++)
 573              		.loc 1 116 0 discriminator 3
 574 0014 0134     		adds	r4, r4, #1
 575              	.LVL31:
 576              	.L41:
 116:logQueue.c    ****     for(int i=0; i < getSizeQueueLog(); i++)
 577              		.loc 1 116 0 is_stmt 0 discriminator 1
 578 0016 FFF7FEFF 		bl	getSizeQueueLog
 579              	.LVL32:
 580 001a 8442     		cmp	r4, r0
 581 001c F3DB     		blt	.L42
 582              	.LBE2:
 118:logQueue.c    **** 
 119:logQueue.c    **** }
 583              		.loc 1 119 0 is_stmt 1
 584              		@ sp needed
 585              	.LVL33:
 586 001e 10BD     		pop	{r4, pc}
 587              	.L44:
 588              		.align	2
 589              	.L43:
 590 0020 00000000 		.word	.LC18
 591              		.cfi_endproc
 592              	.LFE72:
 593              		.size	PrintInfoQueueLog, .-PrintInfoQueueLog
 594              		.global	g_bLogQueuUpdated
 595              		.comm	g_cLogQueue,500,4
 596              		.global	g_uRearQueueLog
 597              		.global	g_uFrontQueueLog
ARM GAS  C:\Users\theGu\AppData\Local\Temp\ccmoAs9N.s 			page 14


 598              		.global	g_uSizeQueueLog
 599              		.comm	Param,6,4
 600              		.section	.rodata.str1.4,"aMS",%progbits,1
 601              		.align	2
 602              	.LC18:
 603 0000 25730D0A 		.ascii	"%s\015\012\000"
 603      00
 604              		.bss
 605              		.align	1
 606              		.set	.LANCHOR0,. + 0
 607              		.type	g_uRearQueueLog, %object
 608              		.size	g_uRearQueueLog, 2
 609              	g_uRearQueueLog:
 610 0000 0000     		.space	2
 611              		.type	g_uFrontQueueLog, %object
 612              		.size	g_uFrontQueueLog, 2
 613              	g_uFrontQueueLog:
 614 0002 0000     		.space	2
 615              		.type	g_uSizeQueueLog, %object
 616              		.size	g_uSizeQueueLog, 2
 617              	g_uSizeQueueLog:
 618 0004 0000     		.space	2
 619              		.type	g_bLogQueuUpdated, %object
 620              		.size	g_bLogQueuUpdated, 1
 621              	g_bLogQueuUpdated:
 622 0006 00       		.space	1
 623              		.text
 624              	.Letext0:
 625              		.file 2 "Generated_Source\\PSoC4/cytypes.h"
 626              		.file 3 "c:\\program files (x86)\\cypress\\psoc creator\\4.4\\psoc creator\\import\\gnu\\arm\\5.4.
 627              		.file 4 "<built-in>"
 628              		.file 5 "main.h"
 629              		.file 6 "c:\\program files (x86)\\cypress\\psoc creator\\4.4\\psoc creator\\import\\gnu\\arm\\5.4.
 630              		.file 7 "c:\\program files (x86)\\cypress\\psoc creator\\4.4\\psoc creator\\import\\gnu\\arm\\5.4.
 631              		.file 8 "debug.h"