ARM GAS  C:\Users\theGu\AppData\Local\Temp\ccKMZXht.s 			page 1


   1              		.syntax unified
   2              		.cpu cortex-m0
   3              		.fpu softvfp
   4              		.eabi_attribute 20, 1
   5              		.eabi_attribute 21, 1
   6              		.eabi_attribute 23, 3
   7              		.eabi_attribute 24, 1
   8              		.eabi_attribute 25, 1
   9              		.eabi_attribute 26, 1
  10              		.eabi_attribute 30, 1
  11              		.eabi_attribute 34, 0
  12              		.eabi_attribute 18, 4
  13              		.thumb
  14              		.syntax unified
  15              		.file	"timer.c"
  16              		.text
  17              	.Ltext0:
  18              		.cfi_sections	.debug_frame
  19              		.section	.text.OneMilliSecond_ISR,"ax",%progbits
  20              		.align	2
  21              		.global	OneMilliSecond_ISR
  22              		.code	16
  23              		.thumb_func
  24              		.type	OneMilliSecond_ISR, %function
  25              	OneMilliSecond_ISR:
  26              	.LFB61:
  27              		.file 1 "timer.c"
   1:timer.c       **** /* ========================================
   2:timer.c       ****  *
   3:timer.c       ****  * Copyright YOUR COMPANY, THE YEAR
   4:timer.c       ****  * All Rights Reserved
   5:timer.c       ****  * UNPUBLISHED, LICENSED SOFTWARE.
   6:timer.c       ****  *
   7:timer.c       ****  * CONFIDENTIAL AND PROPRIETARY INFORMATION
   8:timer.c       ****  * WHICH IS THE PROPERTY OF your company.
   9:timer.c       ****  *
  10:timer.c       ****  * ========================================
  11:timer.c       **** */
  12:timer.c       **** #include "lib/sysTick.h"
  13:timer.c       **** #include "lib/RealTimeClock.h"
  14:timer.c       **** #include "timer.h"
  15:timer.c       **** #include "main.h"
  16:timer.c       **** 
  17:timer.c       **** ///////////////////////////////////////////////////////////////
  18:timer.c       **** // 1msņŚÉ Ļ┤ĆļĀ©ļÉ£ Ļ▓āļōż  //////////////////////////////////////////////
  19:timer.c       **** ///////////////////////////////////////////////////////////////
  20:timer.c       **** uint8 g_bIsElapsed_1ms = FALSE;
  21:timer.c       **** 
  22:timer.c       **** // sysTick.hņŚÉņä£ ņé¼ņÜ® 1msļ¦łļŗż ņØĖĒä░ļ¤ĮĒŖĖņŚÉņä£ ĒśĖņČ£ļÉ£ļŗż. (ņĀĢĒÖĢĒĢ£ ņŗ£Ļ░ä)
  23:timer.c       **** void OneMilliSecond_ISR() 
  24:timer.c       **** {
  28              		.loc 1 24 0
  29              		.cfi_startproc
  30              		@ args = 0, pretend = 0, frame = 0
  31              		@ frame_needed = 0, uses_anonymous_args = 0
  32              		@ link register save eliminated.
  25:timer.c       ****     g_bIsElapsed_1ms = TRUE;    
ARM GAS  C:\Users\theGu\AppData\Local\Temp\ccKMZXht.s 			page 2


  33              		.loc 1 25 0
  34 0000 0122     		movs	r2, #1
  35 0002 014B     		ldr	r3, .L2
  36 0004 1A70     		strb	r2, [r3]
  26:timer.c       **** }
  37              		.loc 1 26 0
  38              		@ sp needed
  39 0006 7047     		bx	lr
  40              	.L3:
  41              		.align	2
  42              	.L2:
  43 0008 00000000 		.word	.LANCHOR0
  44              		.cfi_endproc
  45              	.LFE61:
  46              		.size	OneMilliSecond_ISR, .-OneMilliSecond_ISR
  47              		.section	.text.isElasped_1ms,"ax",%progbits
  48              		.align	2
  49              		.global	isElasped_1ms
  50              		.code	16
  51              		.thumb_func
  52              		.type	isElasped_1ms, %function
  53              	isElasped_1ms:
  54              	.LFB62:
  27:timer.c       **** 
  28:timer.c       **** uint8 isElasped_1ms()
  29:timer.c       **** {
  55              		.loc 1 29 0
  56              		.cfi_startproc
  57              		@ args = 0, pretend = 0, frame = 0
  58              		@ frame_needed = 0, uses_anonymous_args = 0
  59              		@ link register save eliminated.
  30:timer.c       ****     return g_bIsElapsed_1ms;
  60              		.loc 1 30 0
  61 0000 014B     		ldr	r3, .L5
  62 0002 1878     		ldrb	r0, [r3]
  31:timer.c       **** }
  63              		.loc 1 31 0
  64              		@ sp needed
  65 0004 7047     		bx	lr
  66              	.L6:
  67 0006 C046     		.align	2
  68              	.L5:
  69 0008 00000000 		.word	.LANCHOR0
  70              		.cfi_endproc
  71              	.LFE62:
  72              		.size	isElasped_1ms, .-isElasped_1ms
  73              		.section	.text.OneMilliSecond_MainLoop,"ax",%progbits
  74              		.align	2
  75              		.global	OneMilliSecond_MainLoop
  76              		.code	16
  77              		.thumb_func
  78              		.type	OneMilliSecond_MainLoop, %function
  79              	OneMilliSecond_MainLoop:
  80              	.LFB63:
  32:timer.c       **** 
  33:timer.c       **** 
  34:timer.c       **** // main loopņŚÉņä£ 1ms ļ¦łļŗż ņ×æļÅÖĒĢśļŖö ĒĢ©ņłś (delay ļ░£ņāØĒĢĀ ņłś ņ×łņØī, ņĀĢĒÖĢĒĢ£ ņŗ£Ļ░äņØ┤ 
ARM GAS  C:\Users\theGu\AppData\Local\Temp\ccKMZXht.s 			page 3


  35:timer.c       **** void OneMilliSecond_MainLoop() 
  36:timer.c       **** {
  81              		.loc 1 36 0
  82              		.cfi_startproc
  83              		@ args = 0, pretend = 0, frame = 0
  84              		@ frame_needed = 0, uses_anonymous_args = 0
  85              		@ link register save eliminated.
  37:timer.c       ****     if(g_bIsElapsed_1ms)
  86              		.loc 1 37 0
  87 0000 034B     		ldr	r3, .L9
  88 0002 1B78     		ldrb	r3, [r3]
  89 0004 002B     		cmp	r3, #0
  90 0006 02D0     		beq	.L7
  38:timer.c       ****     {
  39:timer.c       ****         g_bIsElapsed_1ms = FALSE;    
  91              		.loc 1 39 0
  92 0008 0022     		movs	r2, #0
  93 000a 014B     		ldr	r3, .L9
  94 000c 1A70     		strb	r2, [r3]
  95              	.L7:
  40:timer.c       ****     }
  41:timer.c       **** }
  96              		.loc 1 41 0
  97              		@ sp needed
  98 000e 7047     		bx	lr
  99              	.L10:
 100              		.align	2
 101              	.L9:
 102 0010 00000000 		.word	.LANCHOR0
 103              		.cfi_endproc
 104              	.LFE63:
 105              		.size	OneMilliSecond_MainLoop, .-OneMilliSecond_MainLoop
 106              		.section	.text.OneSecond_ISR,"ax",%progbits
 107              		.align	2
 108              		.global	OneSecond_ISR
 109              		.code	16
 110              		.thumb_func
 111              		.type	OneSecond_ISR, %function
 112              	OneSecond_ISR:
 113              	.LFB64:
  42:timer.c       **** 
  43:timer.c       **** ///////////////////////////////////////////////////////////////
  44:timer.c       **** // 1sņŚÉ Ļ┤ĆļĀ©ļÉ£ Ļ▓āļōż  ///////////////////////////////////////////////
  45:timer.c       **** ///////////////////////////////////////////////////////////////
  46:timer.c       **** uint8 g_bIsElapsed_1s  = FALSE;
  47:timer.c       **** void OneSecond_ISR() 
  48:timer.c       **** {
 114              		.loc 1 48 0
 115              		.cfi_startproc
 116              		@ args = 0, pretend = 0, frame = 0
 117              		@ frame_needed = 0, uses_anonymous_args = 0
 118              		@ link register save eliminated.
  49:timer.c       ****     g_bIsElapsed_1s = TRUE;    
 119              		.loc 1 49 0
 120 0000 0122     		movs	r2, #1
 121 0002 014B     		ldr	r3, .L12
 122 0004 5A70     		strb	r2, [r3, #1]
ARM GAS  C:\Users\theGu\AppData\Local\Temp\ccKMZXht.s 			page 4


  50:timer.c       **** }
 123              		.loc 1 50 0
 124              		@ sp needed
 125 0006 7047     		bx	lr
 126              	.L13:
 127              		.align	2
 128              	.L12:
 129 0008 00000000 		.word	.LANCHOR0
 130              		.cfi_endproc
 131              	.LFE64:
 132              		.size	OneSecond_ISR, .-OneSecond_ISR
 133              		.section	.text.isElasped_1s,"ax",%progbits
 134              		.align	2
 135              		.global	isElasped_1s
 136              		.code	16
 137              		.thumb_func
 138              		.type	isElasped_1s, %function
 139              	isElasped_1s:
 140              	.LFB65:
  51:timer.c       **** 
  52:timer.c       **** uint8 isElasped_1s()
  53:timer.c       **** {
 141              		.loc 1 53 0
 142              		.cfi_startproc
 143              		@ args = 0, pretend = 0, frame = 0
 144              		@ frame_needed = 0, uses_anonymous_args = 0
 145              		@ link register save eliminated.
  54:timer.c       ****     return g_bIsElapsed_1s;
 146              		.loc 1 54 0
 147 0000 014B     		ldr	r3, .L15
 148 0002 5878     		ldrb	r0, [r3, #1]
  55:timer.c       **** }
 149              		.loc 1 55 0
 150              		@ sp needed
 151 0004 7047     		bx	lr
 152              	.L16:
 153 0006 C046     		.align	2
 154              	.L15:
 155 0008 00000000 		.word	.LANCHOR0
 156              		.cfi_endproc
 157              	.LFE65:
 158              		.size	isElasped_1s, .-isElasped_1s
 159              		.section	.text.OneSecond_MainLoop,"ax",%progbits
 160              		.align	2
 161              		.global	OneSecond_MainLoop
 162              		.code	16
 163              		.thumb_func
 164              		.type	OneSecond_MainLoop, %function
 165              	OneSecond_MainLoop:
 166              	.LFB66:
  56:timer.c       **** 
  57:timer.c       **** // main loopņŚÉņä£ 1s ļ¦łļŗż ņ×æļÅÖĒĢśļŖö ĒĢ©ņłś (delay ļ░£ņāØĒĢĀ ņłś ņ×łņØī, ņĀĢĒÖĢĒĢ£ ņŗ£Ļ░äņØ┤ ņ
  58:timer.c       **** void OneSecond_MainLoop() 
  59:timer.c       **** {
 167              		.loc 1 59 0
 168              		.cfi_startproc
 169              		@ args = 0, pretend = 0, frame = 0
ARM GAS  C:\Users\theGu\AppData\Local\Temp\ccKMZXht.s 			page 5


 170              		@ frame_needed = 0, uses_anonymous_args = 0
 171 0000 10B5     		push	{r4, lr}
 172              		.cfi_def_cfa_offset 8
 173              		.cfi_offset 4, -8
 174              		.cfi_offset 14, -4
  60:timer.c       ****     if(g_bIsElapsed_1s)
 175              		.loc 1 60 0
 176 0002 054B     		ldr	r3, .L19
 177 0004 5B78     		ldrb	r3, [r3, #1]
 178 0006 002B     		cmp	r3, #0
 179 0008 04D0     		beq	.L17
  61:timer.c       ****     {
  62:timer.c       ****         g_bIsElapsed_1s = FALSE;
 180              		.loc 1 62 0
 181 000a 0022     		movs	r2, #0
 182 000c 024B     		ldr	r3, .L19
 183 000e 5A70     		strb	r2, [r3, #1]
  63:timer.c       ****         
  64:timer.c       ****         RTC_Update();
 184              		.loc 1 64 0
 185 0010 FFF7FEFF 		bl	RTC_Update
 186              	.LVL0:
 187              	.L17:
  65:timer.c       ****     }    
  66:timer.c       **** }
 188              		.loc 1 66 0
 189              		@ sp needed
 190 0014 10BD     		pop	{r4, pc}
 191              	.L20:
 192 0016 C046     		.align	2
 193              	.L19:
 194 0018 00000000 		.word	.LANCHOR0
 195              		.cfi_endproc
 196              	.LFE66:
 197              		.size	OneSecond_MainLoop, .-OneSecond_MainLoop
 198              		.section	.text.initTimer,"ax",%progbits
 199              		.align	2
 200              		.global	initTimer
 201              		.code	16
 202              		.thumb_func
 203              		.type	initTimer, %function
 204              	initTimer:
 205              	.LFB67:
  67:timer.c       **** ///////////////////////////////////////////////////////////////
  68:timer.c       **** // ņ┤łĻĖ░ĒÖö  ///////////////////////////////////////////////
  69:timer.c       **** ///////////////////////////////////////////////////////////////
  70:timer.c       **** void initTimer()
  71:timer.c       **** {
 206              		.loc 1 71 0
 207              		.cfi_startproc
 208              		@ args = 0, pretend = 0, frame = 0
 209              		@ frame_needed = 0, uses_anonymous_args = 0
 210 0000 10B5     		push	{r4, lr}
 211              		.cfi_def_cfa_offset 8
 212              		.cfi_offset 4, -8
 213              		.cfi_offset 14, -4
  72:timer.c       ****     setSysTick();
ARM GAS  C:\Users\theGu\AppData\Local\Temp\ccKMZXht.s 			page 6


 214              		.loc 1 72 0
 215 0002 FFF7FEFF 		bl	setSysTick
 216              	.LVL1:
  73:timer.c       ****     initRealTimeClock();    
 217              		.loc 1 73 0
 218 0006 FFF7FEFF 		bl	initRealTimeClock
 219              	.LVL2:
  74:timer.c       **** }
 220              		.loc 1 74 0
 221              		@ sp needed
 222 000a 10BD     		pop	{r4, pc}
 223              		.cfi_endproc
 224              	.LFE67:
 225              		.size	initTimer, .-initTimer
 226              		.global	g_bIsElapsed_1s
 227              		.global	g_bIsElapsed_1ms
 228              		.comm	Param,6,4
 229              		.bss
 230              		.set	.LANCHOR0,. + 0
 231              		.type	g_bIsElapsed_1ms, %object
 232              		.size	g_bIsElapsed_1ms, 1
 233              	g_bIsElapsed_1ms:
 234 0000 00       		.space	1
 235              		.type	g_bIsElapsed_1s, %object
 236              		.size	g_bIsElapsed_1s, 1
 237              	g_bIsElapsed_1s:
 238 0001 00       		.space	1
 239              		.text
 240              	.Letext0:
 241              		.file 2 "Generated_Source\\PSoC4/cytypes.h"
 242              		.file 3 "./main.h"
 243              		.file 4 "Generated_Source\\PSoC4/RTC.h"
 244              		.file 5 "lib/sysTick.h"
 245              		.file 6 "lib/RealTimeClock.h"