ARM GAS  C:\Users\theGu\AppData\Local\Temp\ccROUg1T.s 			page 1


   1              		.syntax unified
   2              		.cpu cortex-m0
   3              		.fpu softvfp
   4              		.eabi_attribute 20, 1
   5              		.eabi_attribute 21, 1
   6              		.eabi_attribute 23, 3
   7              		.eabi_attribute 24, 1
   8              		.eabi_attribute 25, 1
   9              		.eabi_attribute 26, 1
  10              		.eabi_attribute 30, 1
  11              		.eabi_attribute 34, 0
  12              		.eabi_attribute 18, 4
  13              		.thumb
  14              		.syntax unified
  15              		.file	"trimCount.c"
  16              		.text
  17              	.Ltext0:
  18              		.cfi_sections	.debug_frame
  19              		.section	.text.Trim_Interrupt_Routine,"ax",%progbits
  20              		.align	2
  21              		.global	Trim_Interrupt_Routine
  22              		.code	16
  23              		.thumb_func
  24              		.type	Trim_Interrupt_Routine, %function
  25              	Trim_Interrupt_Routine:
  26              	.LFB61:
  27              		.file 1 "trimCount.c"
   1:trimCount.c   **** /* ========================================
   2:trimCount.c   ****  *
   3:trimCount.c   ****  * Copyright Suntech, 2023.04.13
   4:trimCount.c   ****  * All Rights Reserved
   5:trimCount.c   ****  * UNPUBLISHED, LICENSED SOFTWARE.
   6:trimCount.c   ****  *
   7:trimCount.c   ****  * CONFIDENTIAL AND PROPRIETARY INFORMATION
   8:trimCount.c   ****  * WHICH IS THE PROPERTY OF Suntech.
   9:trimCount.c   ****  *
  10:trimCount.c   ****  * ========================================
  11:trimCount.c   **** */
  12:trimCount.c   **** #include "main.h"
  13:trimCount.c   **** #include "trimCount.h"
  14:trimCount.c   **** 
  15:trimCount.c   **** uint8 g_updateTrimCount=FALSE;
  16:trimCount.c   **** 
  17:trimCount.c   **** CY_ISR(Trim_Interrupt_Routine)
  18:trimCount.c   **** {
  28              		.loc 1 18 0
  29              		.cfi_startproc
  30              		@ args = 0, pretend = 0, frame = 0
  31              		@ frame_needed = 0, uses_anonymous_args = 0
  32              		@ link register save eliminated.
  19:trimCount.c   ****     g_updateTrimCount = TRUE;
  33              		.loc 1 19 0
  34 0000 0122     		movs	r2, #1
  35 0002 014B     		ldr	r3, .L2
  36 0004 1A70     		strb	r2, [r3]
  20:trimCount.c   **** }
  37              		.loc 1 20 0
ARM GAS  C:\Users\theGu\AppData\Local\Temp\ccROUg1T.s 			page 2


  38              		@ sp needed
  39 0006 7047     		bx	lr
  40              	.L3:
  41              		.align	2
  42              	.L2:
  43 0008 00000000 		.word	.LANCHOR0
  44              		.cfi_endproc
  45              	.LFE61:
  46              		.size	Trim_Interrupt_Routine, .-Trim_Interrupt_Routine
  47              		.section	.text.initTrimCount,"ax",%progbits
  48              		.align	2
  49              		.global	initTrimCount
  50              		.code	16
  51              		.thumb_func
  52              		.type	initTrimCount, %function
  53              	initTrimCount:
  54              	.LFB62:
  21:trimCount.c   **** 
  22:trimCount.c   **** void initTrimCount()
  23:trimCount.c   **** {
  55              		.loc 1 23 0
  56              		.cfi_startproc
  57              		@ args = 0, pretend = 0, frame = 0
  58              		@ frame_needed = 0, uses_anonymous_args = 0
  59 0000 10B5     		push	{r4, lr}
  60              		.cfi_def_cfa_offset 8
  61              		.cfi_offset 4, -8
  62              		.cfi_offset 14, -4
  24:trimCount.c   ****     trim_Int_StartEx(&Trim_Interrupt_Routine); 
  63              		.loc 1 24 0
  64 0002 0248     		ldr	r0, .L5
  65 0004 FFF7FEFF 		bl	trim_Int_StartEx
  66              	.LVL0:
  25:trimCount.c   **** }
  67              		.loc 1 25 0
  68              		@ sp needed
  69 0008 10BD     		pop	{r4, pc}
  70              	.L6:
  71 000a C046     		.align	2
  72              	.L5:
  73 000c 00000000 		.word	Trim_Interrupt_Routine
  74              		.cfi_endproc
  75              	.LFE62:
  76              		.size	initTrimCount, .-initTrimCount
  77              		.section	.text.trimCountLoop,"ax",%progbits
  78              		.align	2
  79              		.global	trimCountLoop
  80              		.code	16
  81              		.thumb_func
  82              		.type	trimCountLoop, %function
  83              	trimCountLoop:
  84              	.LFB63:
  26:trimCount.c   **** 
  27:trimCount.c   **** void trimCountLoop()
  28:trimCount.c   **** {
  85              		.loc 1 28 0
  86              		.cfi_startproc
ARM GAS  C:\Users\theGu\AppData\Local\Temp\ccROUg1T.s 			page 3


  87              		@ args = 0, pretend = 0, frame = 0
  88              		@ frame_needed = 0, uses_anonymous_args = 0
  89              		@ link register save eliminated.
  29:trimCount.c   ****     if(g_updateTrimCount == FALSE) return;
  30:trimCount.c   **** }
  90              		.loc 1 30 0
  91              		@ sp needed
  92 0000 7047     		bx	lr
  93              		.cfi_endproc
  94              	.LFE63:
  95              		.size	trimCountLoop, .-trimCountLoop
  96              		.global	g_updateTrimCount
  97              		.comm	Param,6,4
  98 0002 C046     		.bss
  99              		.set	.LANCHOR0,. + 0
 100              		.type	g_updateTrimCount, %object
 101              		.size	g_updateTrimCount, 1
 102              	g_updateTrimCount:
 103 0000 00       		.space	1
 104              		.text
 105              	.Letext0:
 106              		.file 2 "Generated_Source\\PSoC4/cytypes.h"
 107              		.file 3 "main.h"
 108              		.file 4 "Generated_Source\\PSoC4/trim_Int.h"