ARM GAS  C:\Users\luvsd\AppData\Local\Temp\ccQsFX20.s 			page 1


   1              		.syntax unified
   2              		.cpu cortex-m0
   3              		.fpu softvfp
   4              		.eabi_attribute 20, 1
   5              		.eabi_attribute 21, 1
   6              		.eabi_attribute 23, 3
   7              		.eabi_attribute 24, 1
   8              		.eabi_attribute 25, 1
   9              		.eabi_attribute 26, 1
  10              		.eabi_attribute 30, 1
  11              		.eabi_attribute 34, 0
  12              		.eabi_attribute 18, 4
  13              		.thumb
  14              		.syntax unified
  15              		.file	"uartJson.c"
  16              		.text
  17              	.Ltext0:
  18              		.cfi_sections	.debug_frame
  19              		.section	.text.uartJsonParsor,"ax",%progbits
  20              		.align	2
  21              		.global	uartJsonParsor
  22              		.code	16
  23              		.thumb_func
  24              		.type	uartJsonParsor, %function
  25              	uartJsonParsor:
  26              	.LFB63:
  27              		.file 1 "uartJson.c"
   1:uartJson.c    **** /* ========================================
   2:uartJson.c    ****  *
   3:uartJson.c    ****  * Copyright Suntech, 2023.04.16
   4:uartJson.c    ****  * All Rights Reserved
   5:uartJson.c    ****  * UNPUBLISHED, LICENSED SOFTWARE.
   6:uartJson.c    ****  *
   7:uartJson.c    ****  * CONFIDENTIAL AND PROPRIETARY INFORMATION
   8:uartJson.c    ****  * WHICH IS THE PROPERTY OF Suntech.
   9:uartJson.c    ****  *
  10:uartJson.c    ****  * ========================================
  11:uartJson.c    **** */
  12:uartJson.c    **** #include "uartJson.h"
  13:uartJson.c    **** #include "jsonUtil.h"
  14:uartJson.c    **** #include "count.h"
  15:uartJson.c    **** #include "andonApi.h"
  16:uartJson.c    **** #include "userProjectPatternSewing.h"
  17:uartJson.c    **** #include "lib/internalFlash.h"
  18:uartJson.c    **** #include "lib/widget.h"
  19:uartJson.c    **** #include "downtime.h"
  20:uartJson.c    **** 
  21:uartJson.c    **** #define UART_BUFFER_SIZE 512
  22:uartJson.c    **** 
  23:uartJson.c    **** static char g_UART_buff[UART_BUFFER_SIZE];  /* uartJson.c 내부 전용 */
  24:uartJson.c    **** static int  g_UART_buff_index = 0;
  25:uartJson.c    **** 
  26:uartJson.c    **** char uartJsonParsor();
  27:uartJson.c    **** 
  28:uartJson.c    **** uint8 uartJsonLoop()
  29:uartJson.c    **** {    
  30:uartJson.c    ****    COUNT *ptrCount = getCount();   
ARM GAS  C:\Users\luvsd\AppData\Local\Temp\ccQsFX20.s 			page 2


  31:uartJson.c    ****     while(UART_SpiUartGetRxBufferSize() > 0 )
  32:uartJson.c    ****     {
  33:uartJson.c    ****         char c = UART_UartGetChar();
  34:uartJson.c    **** 
  35:uartJson.c    ****         if(c == '\0') continue;
  36:uartJson.c    ****         
  37:uartJson.c    ****         if(g_UART_buff_index==0)
  38:uartJson.c    ****         {
  39:uartJson.c    ****             if(!(c == '{' || c == '[')) continue;
  40:uartJson.c    ****         }
  41:uartJson.c    ****         
  42:uartJson.c    ****         if(g_UART_buff_index >= UART_BUFFER_SIZE - 1) { g_UART_buff_index = 0; continue; }
  43:uartJson.c    ****         g_UART_buff[g_UART_buff_index++] = c;
  44:uartJson.c    ****         if(c == '}')
  45:uartJson.c    ****         {
  46:uartJson.c    ****             g_UART_buff[g_UART_buff_index] = '\0';
  47:uartJson.c    ****                 
  48:uartJson.c    ****             if(uartJsonParsor())
  49:uartJson.c    ****             {                        
  50:uartJson.c    ****                 while(ptrCount->patternCount >= g_ptrMachineParameter->patternPairCount)
  51:uartJson.c    ****                 {
  52:uartJson.c    ****                     ptrCount->patternCount -= g_ptrMachineParameter->patternPairCount;
  53:uartJson.c    ****                     
  54:uartJson.c    ****                     ADD_CONVERT_TO_4BYTE(ptrCount->patternActualH,ptrCount->patternActualL,g_ptrMac
  55:uartJson.c    ****                     uint32 tmp = CONVERT_TO_4BYTE(ptrCount->patternActualH, ptrCount->patternActual
  56:uartJson.c    ****                 }
  57:uartJson.c    ****     
  58:uartJson.c    ****                 Reg_Pattern_Write(1);
  59:uartJson.c    ****                 
  60:uartJson.c    ****                 g_updateCountMenu = TRUE;     
  61:uartJson.c    ****                 makeAndonPatternCount();
  62:uartJson.c    ****                
  63:uartJson.c    ****                 ForcefullyMarkDowntimeAsComplete();
  64:uartJson.c    ****                
  65:uartJson.c    ****                 SaveInternalFlash();
  66:uartJson.c    ****                 
  67:uartJson.c    ****                 CyDelay(50);
  68:uartJson.c    ****                 Reg_Pattern_Write(0);
  69:uartJson.c    ****                 
  70:uartJson.c    ****                 g_UART_buff_index = 0;
  71:uartJson.c    ****                 return TRUE;
  72:uartJson.c    ****             }
  73:uartJson.c    ****                         
  74:uartJson.c    ****             g_UART_buff_index = 0;
  75:uartJson.c    ****             memset(g_UART_buff,0,UART_BUFFER_SIZE);            
  76:uartJson.c    ****         }        
  77:uartJson.c    ****     }
  78:uartJson.c    ****     return FALSE;
  79:uartJson.c    **** }
  80:uartJson.c    **** 
  81:uartJson.c    **** char uartJsonParsor()
  82:uartJson.c    **** {
  28              		.loc 1 82 0
  29              		.cfi_startproc
  30              		@ args = 0, pretend = 0, frame = 1392
  31              		@ frame_needed = 0, uses_anonymous_args = 0
  32 0000 F0B5     		push	{r4, r5, r6, r7, lr}
ARM GAS  C:\Users\luvsd\AppData\Local\Temp\ccQsFX20.s 			page 3


  33              		.cfi_def_cfa_offset 20
  34              		.cfi_offset 4, -20
  35              		.cfi_offset 5, -16
  36              		.cfi_offset 6, -12
  37              		.cfi_offset 7, -8
  38              		.cfi_offset 14, -4
  39 0002 BD4C     		ldr	r4, .L19
  40 0004 A544     		add	sp, sp, r4
  41              		.cfi_def_cfa_offset 1424
  83:uartJson.c    ****     int i;
  84:uartJson.c    ****     int r;
  85:uartJson.c    ****     jsmn_parser p;
  86:uartJson.c    ****     jsmntok_t t[80]; /* 최대 토큰 수: 80 (10개 항목 JSON = 73 tokens, 여유 7) */
  87:uartJson.c    ****     
  88:uartJson.c    ****     jsmn_init(&p);
  42              		.loc 1 88 0
  43 0006 BD4B     		ldr	r3, .L19+4
  44 0008 6B44     		add	r3, r3, sp
  45 000a 1800     		movs	r0, r3
  46 000c FFF7FEFF 		bl	jsmn_init
  47              	.LVL0:
  89:uartJson.c    ****     r = jsmn_parse(&p, g_UART_buff, strlen(g_UART_buff), t, sizeof(t) / sizeof(t[0]));
  48              		.loc 1 89 0
  49 0010 BB4C     		ldr	r4, .L19+8
  50 0012 2000     		movs	r0, r4
  51 0014 FFF7FEFF 		bl	strlen
  52              	.LVL1:
  53 0018 0200     		movs	r2, r0
  54 001a 5023     		movs	r3, #80
  55 001c 0093     		str	r3, [sp]
  56 001e 1BAB     		add	r3, sp, #108
  57 0020 2100     		movs	r1, r4
  58 0022 B648     		ldr	r0, .L19+4
  59 0024 6844     		add	r0, r0, sp
  60 0026 FFF7FEFF 		bl	jsmn_parse
  61              	.LVL2:
  62 002a 061E     		subs	r6, r0, #0
  63              	.LVL3:
  90:uartJson.c    ****     
  91:uartJson.c    ****     if (r < 0) {
  64              		.loc 1 91 0
  65 002c 00DA     		bge	.LCB36
  66 002e 59E1     		b	.L15	@long jump
  67              	.LCB36:
  92:uartJson.c    ****     //    DEBUG_printf("Failed to parse JSON: %d\r\n", r);
  93:uartJson.c    ****         return FALSE;
  94:uartJson.c    ****     }
  95:uartJson.c    ****     
  96:uartJson.c    ****     /* Assume the top-level element is an object */
  97:uartJson.c    ****     if (r < 1 || t[0].type != JSMN_OBJECT) {
  68              		.loc 1 97 0
  69 0030 0028     		cmp	r0, #0
  70 0032 00DC     		bgt	.LCB38
  71 0034 58E1     		b	.L16	@long jump
  72              	.LCB38:
  73              		.loc 1 97 0 is_stmt 0 discriminator 1
  74 0036 1BAB     		add	r3, sp, #108
ARM GAS  C:\Users\luvsd\AppData\Local\Temp\ccQsFX20.s 			page 4


  75 0038 1B78     		ldrb	r3, [r3]
  76 003a 012B     		cmp	r3, #1
  77 003c 00D0     		beq	.LCB42
  78 003e 55E1     		b	.L17	@long jump
  79              	.LCB42:
  98:uartJson.c    ****     //    DEBUG_printf("Object expected type: %d\r\n", t[0].type);
  99:uartJson.c    ****         return FALSE;
 100:uartJson.c    ****     }
 101:uartJson.c    **** 
 102:uartJson.c    **** //    uint16 len = strlen(g_UART_buff);
 103:uartJson.c    **** //
 104:uartJson.c    **** //    int16 x = 0;
 105:uartJson.c    **** //    int16 y = GetBodyArea().top+ 40;
 106:uartJson.c    **** //    
 107:uartJson.c    **** //    for(uint16 i=0; i < len; i++)
 108:uartJson.c    **** //    {
 109:uartJson.c    **** //        char c =  g_UART_buff[i];
 110:uartJson.c    **** //        printf("%c",c);
 111:uartJson.c    **** //        if(c == ' ' || c == '\r' || c == '\n') continue;
 112:uartJson.c    **** //
 113:uartJson.c    **** //        if(x >= g_SCREEN_WIDTH - 10)
 114:uartJson.c    **** //        {
 115:uartJson.c    **** //            x = 0;
 116:uartJson.c    **** //            y += 20;
 117:uartJson.c    **** //        }
 118:uartJson.c    **** //        if(y > GetBodyArea().bottom + 20) y = GetBodyArea().top;
 119:uartJson.c    **** //        
 120:uartJson.c    **** //        LCD_DrawFont(x,y,WHITE,BLACK,SmallFont8x12,c);
 121:uartJson.c    **** //        x += 10;
 122:uartJson.c    **** //    }
 123:uartJson.c    ****     COUNT *ptrCount = getCount();   
  80              		.loc 1 123 0 is_stmt 1
  81 0040 FFF7FEFF 		bl	getCount
  82              	.LVL4:
  83 0044 0700     		movs	r7, r0
  84              	.LVL5:
 124:uartJson.c    ****     char buff[100];
 125:uartJson.c    ****     
 126:uartJson.c    ****     for (i = 1; i < r; i++)
  85              		.loc 1 126 0
  86 0046 0125     		movs	r5, #1
  87 0048 47E1     		b	.L3
  88              	.LVL6:
  89              	.L14:
 127:uartJson.c    ****     {   
 128:uartJson.c    ****         if     (jsoneq(g_UART_buff, &t[i], "cmd") == 0)
  90              		.loc 1 128 0
  91 004a 2C01     		lsls	r4, r5, #4
  92 004c 1BAB     		add	r3, sp, #108
  93 004e 9C46     		mov	ip, r3
  94 0050 6444     		add	r4, r4, ip
  95 0052 AC4A     		ldr	r2, .L19+12
  96 0054 2100     		movs	r1, r4
  97 0056 AA48     		ldr	r0, .L19+8
  98 0058 FFF7FEFF 		bl	jsoneq
  99              	.LVL7:
 100 005c 0028     		cmp	r0, #0
ARM GAS  C:\Users\luvsd\AppData\Local\Temp\ccQsFX20.s 			page 5


 101 005e 15D1     		bne	.L4
 129:uartJson.c    ****         {
 130:uartJson.c    ****             sprintf(buff,"%.*s",t[i + 1].end - t[i + 1].start,g_UART_buff + t[i + 1].start);
 102              		.loc 1 130 0
 103 0060 6B1C     		adds	r3, r5, #1
 104 0062 1B01     		lsls	r3, r3, #4
 105 0064 1BAA     		add	r2, sp, #108
 106 0066 9446     		mov	ip, r2
 107 0068 6344     		add	r3, r3, ip
 108 006a 9A68     		ldr	r2, [r3, #8]
 109 006c 5968     		ldr	r1, [r3, #4]
 110 006e A44B     		ldr	r3, .L19+8
 111 0070 5B18     		adds	r3, r3, r1
 112 0072 521A     		subs	r2, r2, r1
 113 0074 A449     		ldr	r1, .L19+16
 114 0076 02A8     		add	r0, sp, #8
 115 0078 FFF7FEFF 		bl	sprintf
 116              	.LVL8:
 131:uartJson.c    **** 
 132:uartJson.c    ****             if     (strcmp(buff,"count") != 0) return FALSE;
 117              		.loc 1 132 0
 118 007c A349     		ldr	r1, .L19+20
 119 007e 02A8     		add	r0, sp, #8
 120 0080 FFF7FEFF 		bl	strcmp
 121              	.LVL9:
 122 0084 0028     		cmp	r0, #0
 123 0086 00D1     		bne	.LCB90
 124 0088 26E1     		b	.L5	@long jump
 125              	.LCB90:
 126 008a 31E1     		b	.L18
 127              	.L4:
 133:uartJson.c    ****         }    
 134:uartJson.c    ****         else if     (jsoneq(g_UART_buff, &t[i], "value") == 0)
 128              		.loc 1 134 0
 129 008c A04A     		ldr	r2, .L19+24
 130 008e 2100     		movs	r1, r4
 131 0090 9B48     		ldr	r0, .L19+8
 132 0092 FFF7FEFF 		bl	jsoneq
 133              	.LVL10:
 134 0096 0028     		cmp	r0, #0
 135 0098 14D1     		bne	.L6
 135:uartJson.c    ****         {      
 136:uartJson.c    ****             sprintf(buff,"%.*s",t[i + 1].end - t[i + 1].start,g_UART_buff + t[i + 1].start);
 136              		.loc 1 136 0
 137 009a 6B1C     		adds	r3, r5, #1
 138 009c 1B01     		lsls	r3, r3, #4
 139 009e 1BAA     		add	r2, sp, #108
 140 00a0 9446     		mov	ip, r2
 141 00a2 6344     		add	r3, r3, ip
 142 00a4 9A68     		ldr	r2, [r3, #8]
 143 00a6 5968     		ldr	r1, [r3, #4]
 144 00a8 954B     		ldr	r3, .L19+8
 145 00aa 5B18     		adds	r3, r3, r1
 146 00ac 521A     		subs	r2, r2, r1
 147 00ae 9649     		ldr	r1, .L19+16
 148 00b0 02A8     		add	r0, sp, #8
 149 00b2 FFF7FEFF 		bl	sprintf
ARM GAS  C:\Users\luvsd\AppData\Local\Temp\ccQsFX20.s 			page 6


 150              	.LVL11:
 137:uartJson.c    ****             
 138:uartJson.c    ****             ptrCount->patternCount += atoi(buff);
 151              		.loc 1 138 0
 152 00b6 02A8     		add	r0, sp, #8
 153 00b8 FFF7FEFF 		bl	atoi
 154              	.LVL12:
 155 00bc 3B8C     		ldrh	r3, [r7, #32]
 156 00be 1818     		adds	r0, r3, r0
 157 00c0 3884     		strh	r0, [r7, #32]
 158 00c2 09E1     		b	.L5
 159              	.L6:
 139:uartJson.c    ****         }         
 140:uartJson.c    ****         else if     (jsoneq(g_UART_buff, &t[i], "no") == 0)
 160              		.loc 1 140 0
 161 00c4 934A     		ldr	r2, .L19+28
 162 00c6 2100     		movs	r1, r4
 163 00c8 8D48     		ldr	r0, .L19+8
 164 00ca FFF7FEFF 		bl	jsoneq
 165              	.LVL13:
 166 00ce 0028     		cmp	r0, #0
 167 00d0 12D1     		bne	.L7
 141:uartJson.c    ****         {      
 142:uartJson.c    ****             sprintf(buff,"%.*s",t[i + 1].end - t[i + 1].start,g_UART_buff + t[i + 1].start);
 168              		.loc 1 142 0
 169 00d2 6B1C     		adds	r3, r5, #1
 170 00d4 1B01     		lsls	r3, r3, #4
 171 00d6 1BAA     		add	r2, sp, #108
 172 00d8 9446     		mov	ip, r2
 173 00da 6344     		add	r3, r3, ip
 174 00dc 9A68     		ldr	r2, [r3, #8]
 175 00de 5968     		ldr	r1, [r3, #4]
 176 00e0 874B     		ldr	r3, .L19+8
 177 00e2 5B18     		adds	r3, r3, r1
 178 00e4 521A     		subs	r2, r2, r1
 179 00e6 8849     		ldr	r1, .L19+16
 180 00e8 02A8     		add	r0, sp, #8
 181 00ea FFF7FEFF 		bl	sprintf
 182              	.LVL14:
 143:uartJson.c    ****             
 144:uartJson.c    ****             ptrCount->patternNo = atoi(buff);
 183              		.loc 1 144 0
 184 00ee 02A8     		add	r0, sp, #8
 185 00f0 FFF7FEFF 		bl	atoi
 186              	.LVL15:
 187 00f4 7884     		strh	r0, [r7, #34]
 188 00f6 EFE0     		b	.L5
 189              	.L7:
 145:uartJson.c    ****         }           
 146:uartJson.c    ****         else if     (jsoneq(g_UART_buff, &t[i], "ct") == 0)
 190              		.loc 1 146 0
 191 00f8 874A     		ldr	r2, .L19+32
 192 00fa 2100     		movs	r1, r4
 193 00fc 8048     		ldr	r0, .L19+8
 194 00fe FFF7FEFF 		bl	jsoneq
 195              	.LVL16:
 196 0102 0028     		cmp	r0, #0
ARM GAS  C:\Users\luvsd\AppData\Local\Temp\ccQsFX20.s 			page 7


 197 0104 1BD1     		bne	.L8
 147:uartJson.c    ****         {      
 148:uartJson.c    ****             sprintf(buff,"%.*s",t[i + 1].end - t[i + 1].start,g_UART_buff + t[i + 1].start);
 198              		.loc 1 148 0
 199 0106 6B1C     		adds	r3, r5, #1
 200 0108 1B01     		lsls	r3, r3, #4
 201 010a 1BAA     		add	r2, sp, #108
 202 010c 9446     		mov	ip, r2
 203 010e 6344     		add	r3, r3, ip
 204 0110 9A68     		ldr	r2, [r3, #8]
 205 0112 5968     		ldr	r1, [r3, #4]
 206 0114 7A4B     		ldr	r3, .L19+8
 207 0116 5B18     		adds	r3, r3, r1
 208 0118 521A     		subs	r2, r2, r1
 209 011a 7B49     		ldr	r1, .L19+16
 210 011c 02A8     		add	r0, sp, #8
 211 011e FFF7FEFF 		bl	sprintf
 212              	.LVL17:
 149:uartJson.c    ****             
 150:uartJson.c    ****             ptrCount->patternCycleTime = atoi(buff);
 213              		.loc 1 150 0
 214 0122 02A8     		add	r0, sp, #8
 215 0124 FFF7FEFF 		bl	atoi
 216              	.LVL18:
 217 0128 83B2     		uxth	r3, r0
 218 012a 7B85     		strh	r3, [r7, #42]
 219              	.LBB2:
 151:uartJson.c    ****             
 152:uartJson.c    **** //       LCD_printf(0,50, WHITE, BLACK, Grotesk16x32, "CT:%u", g_ptrCount->patternCycleTime);   
 153:uartJson.c    **** //        LCD_printf(0,80, WHITE, BLACK, Grotesk16x32, "%s", buff);   
 154:uartJson.c    ****         
 155:uartJson.c    ****             ADD_CONVERT_TO_4BYTE(ptrCount->patternCycleTimeSumH,ptrCount->patternCycleTimeSumL,ptrC
 220              		.loc 1 155 0
 221 012c B88D     		ldrh	r0, [r7, #44]
 222 012e 0004     		lsls	r0, r0, #16
 223 0130 FA8D     		ldrh	r2, [r7, #46]
 224 0132 1043     		orrs	r0, r2
 225 0134 C018     		adds	r0, r0, r3
 226              	.LVL19:
 227 0136 030C     		lsrs	r3, r0, #16
 228 0138 BB85     		strh	r3, [r7, #44]
 229 013a F885     		strh	r0, [r7, #46]
 230              	.LBE2:
 231 013c CCE0     		b	.L5
 232              	.LVL20:
 233              	.L8:
 156:uartJson.c    ****         }
 157:uartJson.c    ****         else if     (jsoneq(g_UART_buff, &t[i], "et") == 0)
 234              		.loc 1 157 0
 235 013e 774A     		ldr	r2, .L19+36
 236 0140 2100     		movs	r1, r4
 237 0142 6F48     		ldr	r0, .L19+8
 238 0144 FFF7FEFF 		bl	jsoneq
 239              	.LVL21:
 240 0148 0028     		cmp	r0, #0
 241 014a 1BD1     		bne	.L9
 158:uartJson.c    ****         {     
ARM GAS  C:\Users\luvsd\AppData\Local\Temp\ccQsFX20.s 			page 8


 159:uartJson.c    ****             sprintf(buff,"%.*s",t[i + 1].end - t[i + 1].start,g_UART_buff + t[i + 1].start);
 242              		.loc 1 159 0
 243 014c 6B1C     		adds	r3, r5, #1
 244 014e 1B01     		lsls	r3, r3, #4
 245 0150 1BAA     		add	r2, sp, #108
 246 0152 9446     		mov	ip, r2
 247 0154 6344     		add	r3, r3, ip
 248 0156 9A68     		ldr	r2, [r3, #8]
 249 0158 5968     		ldr	r1, [r3, #4]
 250 015a 694B     		ldr	r3, .L19+8
 251 015c 5B18     		adds	r3, r3, r1
 252 015e 521A     		subs	r2, r2, r1
 253 0160 6949     		ldr	r1, .L19+16
 254 0162 02A8     		add	r0, sp, #8
 255 0164 FFF7FEFF 		bl	sprintf
 256              	.LVL22:
 160:uartJson.c    ****             
 161:uartJson.c    ****             ptrCount->patternEmergencyTime = atoi(buff);
 257              		.loc 1 161 0
 258 0168 02A8     		add	r0, sp, #8
 259 016a FFF7FEFF 		bl	atoi
 260              	.LVL23:
 261 016e 83B2     		uxth	r3, r0
 262 0170 BB84     		strh	r3, [r7, #36]
 263              	.LBB3:
 162:uartJson.c    ****             ADD_CONVERT_TO_4BYTE(ptrCount->patternEmergencyTimeSumH,ptrCount->patternEmergencyTimeS
 264              		.loc 1 162 0
 265 0172 F88C     		ldrh	r0, [r7, #38]
 266 0174 0004     		lsls	r0, r0, #16
 267 0176 3A8D     		ldrh	r2, [r7, #40]
 268 0178 1043     		orrs	r0, r2
 269 017a C018     		adds	r0, r0, r3
 270              	.LVL24:
 271 017c 030C     		lsrs	r3, r0, #16
 272 017e FB84     		strh	r3, [r7, #38]
 273 0180 3885     		strh	r0, [r7, #40]
 274              	.LBE3:
 275 0182 A9E0     		b	.L5
 276              	.LVL25:
 277              	.L9:
 163:uartJson.c    ****         }            
 164:uartJson.c    ****         else if     (jsoneq(g_UART_buff, &t[i], "mrt") == 0)
 278              		.loc 1 164 0
 279 0184 664A     		ldr	r2, .L19+40
 280 0186 2100     		movs	r1, r4
 281 0188 5D48     		ldr	r0, .L19+8
 282 018a FFF7FEFF 		bl	jsoneq
 283              	.LVL26:
 284 018e 0028     		cmp	r0, #0
 285 0190 1BD1     		bne	.L10
 165:uartJson.c    ****         {     
 166:uartJson.c    ****             sprintf(buff,"%.*s",t[i + 1].end - t[i + 1].start,g_UART_buff + t[i + 1].start);
 286              		.loc 1 166 0
 287 0192 6B1C     		adds	r3, r5, #1
 288 0194 1B01     		lsls	r3, r3, #4
 289 0196 1BAA     		add	r2, sp, #108
 290 0198 9446     		mov	ip, r2
ARM GAS  C:\Users\luvsd\AppData\Local\Temp\ccQsFX20.s 			page 9


 291 019a 6344     		add	r3, r3, ip
 292 019c 9A68     		ldr	r2, [r3, #8]
 293 019e 5968     		ldr	r1, [r3, #4]
 294 01a0 574B     		ldr	r3, .L19+8
 295 01a2 5B18     		adds	r3, r3, r1
 296 01a4 521A     		subs	r2, r2, r1
 297 01a6 5849     		ldr	r1, .L19+16
 298 01a8 02A8     		add	r0, sp, #8
 299 01aa FFF7FEFF 		bl	sprintf
 300              	.LVL27:
 167:uartJson.c    ****             
 168:uartJson.c    ****             ptrCount->patternMotorRunTime = atoi(buff);
 301              		.loc 1 168 0
 302 01ae 02A8     		add	r0, sp, #8
 303 01b0 FFF7FEFF 		bl	atoi
 304              	.LVL28:
 305 01b4 83B2     		uxth	r3, r0
 306 01b6 3B86     		strh	r3, [r7, #48]
 307              	.LBB4:
 169:uartJson.c    ****             ADD_CONVERT_TO_4BYTE(ptrCount->patternMotorRunTimeSumH,ptrCount->patternMotorRunTimeSum
 308              		.loc 1 169 0
 309 01b8 788E     		ldrh	r0, [r7, #50]
 310 01ba 0004     		lsls	r0, r0, #16
 311 01bc BA8E     		ldrh	r2, [r7, #52]
 312 01be 1043     		orrs	r0, r2
 313 01c0 C018     		adds	r0, r0, r3
 314              	.LVL29:
 315 01c2 030C     		lsrs	r3, r0, #16
 316 01c4 7B86     		strh	r3, [r7, #50]
 317 01c6 B886     		strh	r0, [r7, #52]
 318              	.LBE4:
 319 01c8 86E0     		b	.L5
 320              	.LVL30:
 321              	.L10:
 170:uartJson.c    ****         }        
 171:uartJson.c    ****         else if     (jsoneq(g_UART_buff, &t[i], "sq") == 0)
 322              		.loc 1 171 0
 323 01ca 564A     		ldr	r2, .L19+44
 324 01cc 2100     		movs	r1, r4
 325 01ce 4C48     		ldr	r0, .L19+8
 326 01d0 FFF7FEFF 		bl	jsoneq
 327              	.LVL31:
 328 01d4 0028     		cmp	r0, #0
 329 01d6 1BD1     		bne	.L11
 172:uartJson.c    ****         {     
 173:uartJson.c    ****             sprintf(buff,"%.*s",t[i + 1].end - t[i + 1].start,g_UART_buff + t[i + 1].start);
 330              		.loc 1 173 0
 331 01d8 6B1C     		adds	r3, r5, #1
 332 01da 1B01     		lsls	r3, r3, #4
 333 01dc 1BAA     		add	r2, sp, #108
 334 01de 9446     		mov	ip, r2
 335 01e0 6344     		add	r3, r3, ip
 336 01e2 9A68     		ldr	r2, [r3, #8]
 337 01e4 5968     		ldr	r1, [r3, #4]
 338 01e6 464B     		ldr	r3, .L19+8
 339 01e8 5B18     		adds	r3, r3, r1
 340 01ea 521A     		subs	r2, r2, r1
ARM GAS  C:\Users\luvsd\AppData\Local\Temp\ccQsFX20.s 			page 10


 341 01ec 4649     		ldr	r1, .L19+16
 342 01ee 02A8     		add	r0, sp, #8
 343 01f0 FFF7FEFF 		bl	sprintf
 344              	.LVL32:
 174:uartJson.c    ****             
 175:uartJson.c    ****             ptrCount->patternNoStitch = atoi(buff);
 345              		.loc 1 175 0
 346 01f4 02A8     		add	r0, sp, #8
 347 01f6 FFF7FEFF 		bl	atoi
 348              	.LVL33:
 349 01fa 83B2     		uxth	r3, r0
 350 01fc FB86     		strh	r3, [r7, #54]
 351              	.LBB5:
 176:uartJson.c    ****             ADD_CONVERT_TO_4BYTE(ptrCount->patternNoStitchSumH,ptrCount->patternNoStitchSumL,ptrCou
 352              		.loc 1 176 0
 353 01fe 388F     		ldrh	r0, [r7, #56]
 354 0200 0004     		lsls	r0, r0, #16
 355 0202 7A8F     		ldrh	r2, [r7, #58]
 356 0204 1043     		orrs	r0, r2
 357 0206 C018     		adds	r0, r0, r3
 358              	.LVL34:
 359 0208 030C     		lsrs	r3, r0, #16
 360 020a 3B87     		strh	r3, [r7, #56]
 361 020c 7887     		strh	r0, [r7, #58]
 362              	.LBE5:
 363 020e 63E0     		b	.L5
 364              	.LVL35:
 365              	.L11:
 177:uartJson.c    ****         }
 178:uartJson.c    ****         else if     (jsoneq(g_UART_buff, &t[i], "sl") == 0)
 366              		.loc 1 178 0
 367 0210 454A     		ldr	r2, .L19+48
 368 0212 2100     		movs	r1, r4
 369 0214 3A48     		ldr	r0, .L19+8
 370 0216 FFF7FEFF 		bl	jsoneq
 371              	.LVL36:
 372 021a 0028     		cmp	r0, #0
 373 021c 1CD1     		bne	.L12
 179:uartJson.c    ****         {     
 180:uartJson.c    ****             sprintf(buff,"%.*s",t[i + 1].end - t[i + 1].start,g_UART_buff + t[i + 1].start);
 374              		.loc 1 180 0
 375 021e 6B1C     		adds	r3, r5, #1
 376 0220 1B01     		lsls	r3, r3, #4
 377 0222 1BAA     		add	r2, sp, #108
 378 0224 9446     		mov	ip, r2
 379 0226 6344     		add	r3, r3, ip
 380 0228 9A68     		ldr	r2, [r3, #8]
 381 022a 5968     		ldr	r1, [r3, #4]
 382 022c 344B     		ldr	r3, .L19+8
 383 022e 5B18     		adds	r3, r3, r1
 384 0230 521A     		subs	r2, r2, r1
 385 0232 3549     		ldr	r1, .L19+16
 386 0234 02A8     		add	r0, sp, #8
 387 0236 FFF7FEFF 		bl	sprintf
 388              	.LVL37:
 181:uartJson.c    ****             
 182:uartJson.c    ****             ptrCount->patternStitchLength = atoi(buff);
ARM GAS  C:\Users\luvsd\AppData\Local\Temp\ccQsFX20.s 			page 11


 389              		.loc 1 182 0
 390 023a 02A8     		add	r0, sp, #8
 391 023c FFF7FEFF 		bl	atoi
 392              	.LVL38:
 393 0240 80B2     		uxth	r0, r0
 394 0242 B887     		strh	r0, [r7, #60]
 395              	.LBB6:
 183:uartJson.c    ****             
 184:uartJson.c    **** //        LCD_printf(0,150, WHITE, BLACK, Grotesk16x32, "SL:%u", g_ptrCount->patternStitchLength); 
 185:uartJson.c    **** //        LCD_printf(0,180, WHITE, BLACK, Grotesk16x32, "%s", buff);   
 186:uartJson.c    ****         
 187:uartJson.c    ****                       //  printf("--->%s : %u\r\n",buff,g_ptrCount->patternStitchLength);
 188:uartJson.c    ****             ADD_CONVERT_TO_4BYTE(ptrCount->patternStitchLengthSumH,ptrCount->patternStitchLengthSum
 396              		.loc 1 188 0
 397 0244 FB8F     		ldrh	r3, [r7, #62]
 398 0246 1B04     		lsls	r3, r3, #16
 399 0248 4022     		movs	r2, #64
 400 024a B95A     		ldrh	r1, [r7, r2]
 401 024c 0B43     		orrs	r3, r1
 402 024e 1B18     		adds	r3, r3, r0
 403              	.LVL39:
 404 0250 190C     		lsrs	r1, r3, #16
 405 0252 F987     		strh	r1, [r7, #62]
 406 0254 BB52     		strh	r3, [r7, r2]
 407              	.LBE6:
 408 0256 3FE0     		b	.L5
 409              	.LVL40:
 410              	.L12:
 189:uartJson.c    ****         }
 190:uartJson.c    ****         else if     (jsoneq(g_UART_buff, &t[i], "tc") == 0)
 411              		.loc 1 190 0
 412 0258 344A     		ldr	r2, .L19+52
 413 025a 2100     		movs	r1, r4
 414 025c 2848     		ldr	r0, .L19+8
 415 025e FFF7FEFF 		bl	jsoneq
 416              	.LVL41:
 417 0262 0028     		cmp	r0, #0
 418 0264 1ED1     		bne	.L13
 191:uartJson.c    ****         {     
 192:uartJson.c    ****             sprintf(buff,"%.*s",t[i + 1].end - t[i + 1].start,g_UART_buff + t[i + 1].start);
 419              		.loc 1 192 0
 420 0266 6B1C     		adds	r3, r5, #1
 421 0268 1B01     		lsls	r3, r3, #4
 422 026a 1BAA     		add	r2, sp, #108
 423 026c 9446     		mov	ip, r2
 424 026e 6344     		add	r3, r3, ip
 425 0270 9A68     		ldr	r2, [r3, #8]
 426 0272 5968     		ldr	r1, [r3, #4]
 427 0274 224B     		ldr	r3, .L19+8
 428 0276 5B18     		adds	r3, r3, r1
 429 0278 521A     		subs	r2, r2, r1
 430 027a 2349     		ldr	r1, .L19+16
 431 027c 02A8     		add	r0, sp, #8
 432 027e FFF7FEFF 		bl	sprintf
 433              	.LVL42:
 193:uartJson.c    ****             
 194:uartJson.c    ****             ptrCount->patternTrimCount = atoi(buff);
ARM GAS  C:\Users\luvsd\AppData\Local\Temp\ccQsFX20.s 			page 12


 434              		.loc 1 194 0
 435 0282 02A8     		add	r0, sp, #8
 436 0284 FFF7FEFF 		bl	atoi
 437              	.LVL43:
 438 0288 80B2     		uxth	r0, r0
 439 028a 4223     		movs	r3, #66
 440 028c F852     		strh	r0, [r7, r3]
 441              	.LBB7:
 195:uartJson.c    ****             
 196:uartJson.c    ****             ADD_CONVERT_TO_4BYTE(ptrCount->patternTrimCountSumH,ptrCount->patternTrimCountSumL,ptrC
 442              		.loc 1 196 0
 443 028e 4421     		movs	r1, #68
 444 0290 7B5A     		ldrh	r3, [r7, r1]
 445 0292 1B04     		lsls	r3, r3, #16
 446 0294 4622     		movs	r2, #70
 447 0296 BC5A     		ldrh	r4, [r7, r2]
 448 0298 2343     		orrs	r3, r4
 449 029a 1B18     		adds	r3, r3, r0
 450              	.LVL44:
 451 029c 180C     		lsrs	r0, r3, #16
 452 029e 7852     		strh	r0, [r7, r1]
 453 02a0 BB52     		strh	r3, [r7, r2]
 454              	.LBE7:
 455 02a2 19E0     		b	.L5
 456              	.LVL45:
 457              	.L13:
 197:uartJson.c    ****         }           
 198:uartJson.c    ****         else if     (jsoneq(g_UART_buff, &t[i], "spm") == 0)
 458              		.loc 1 198 0
 459 02a4 224A     		ldr	r2, .L19+56
 460 02a6 2100     		movs	r1, r4
 461 02a8 1548     		ldr	r0, .L19+8
 462 02aa FFF7FEFF 		bl	jsoneq
 463              	.LVL46:
 464 02ae 0028     		cmp	r0, #0
 465 02b0 12D1     		bne	.L5
 199:uartJson.c    ****         {     
 200:uartJson.c    ****             sprintf(buff,"%.*s",t[i + 1].end - t[i + 1].start,g_UART_buff + t[i + 1].start);
 466              		.loc 1 200 0
 467 02b2 6B1C     		adds	r3, r5, #1
 468 02b4 1B01     		lsls	r3, r3, #4
 469 02b6 1BAA     		add	r2, sp, #108
 470 02b8 9446     		mov	ip, r2
 471 02ba 6344     		add	r3, r3, ip
 472 02bc 9A68     		ldr	r2, [r3, #8]
 473 02be 5968     		ldr	r1, [r3, #4]
 474 02c0 0F4B     		ldr	r3, .L19+8
 475 02c2 5B18     		adds	r3, r3, r1
 476 02c4 521A     		subs	r2, r2, r1
 477 02c6 1049     		ldr	r1, .L19+16
 478 02c8 02A8     		add	r0, sp, #8
 479 02ca FFF7FEFF 		bl	sprintf
 480              	.LVL47:
 201:uartJson.c    ****             ptrCount->patternSPM = atoi(buff);
 481              		.loc 1 201 0
 482 02ce 02A8     		add	r0, sp, #8
 483 02d0 FFF7FEFF 		bl	atoi
ARM GAS  C:\Users\luvsd\AppData\Local\Temp\ccQsFX20.s 			page 13


 484              	.LVL48:
 485 02d4 4823     		movs	r3, #72
 486 02d6 F852     		strh	r0, [r7, r3]
 487              	.L5:
 126:uartJson.c    ****     {   
 488              		.loc 1 126 0 discriminator 2
 489 02d8 0135     		adds	r5, r5, #1
 490              	.LVL49:
 491              	.L3:
 126:uartJson.c    ****     {   
 492              		.loc 1 126 0 is_stmt 0 discriminator 1
 493 02da B542     		cmp	r5, r6
 494 02dc 00DA     		bge	.LCB495
 495 02de B4E6     		b	.L14	@long jump
 496              	.LCB495:
 202:uartJson.c    ****         }
 203:uartJson.c    **** 
 204:uartJson.c    ****     }
 205:uartJson.c    ****     return TRUE;
 497              		.loc 1 205 0 is_stmt 1
 498 02e0 0120     		movs	r0, #1
 499 02e2 06E0     		b	.L2
 500              	.LVL50:
 501              	.L15:
  93:uartJson.c    ****     }
 502              		.loc 1 93 0
 503 02e4 0020     		movs	r0, #0
 504              	.LVL51:
 505 02e6 04E0     		b	.L2
 506              	.LVL52:
 507              	.L16:
  99:uartJson.c    ****     }
 508              		.loc 1 99 0
 509 02e8 0020     		movs	r0, #0
 510              	.LVL53:
 511 02ea 02E0     		b	.L2
 512              	.LVL54:
 513              	.L17:
 514 02ec 0020     		movs	r0, #0
 515              	.LVL55:
 516 02ee 00E0     		b	.L2
 517              	.LVL56:
 518              	.L18:
 132:uartJson.c    ****         }    
 519              		.loc 1 132 0
 520 02f0 0020     		movs	r0, #0
 521              	.LVL57:
 522              	.L2:
 206:uartJson.c    **** }
 523              		.loc 1 206 0
 524 02f2 104B     		ldr	r3, .L19+60
 525 02f4 9D44     		add	sp, sp, r3
 526              		@ sp needed
 527              	.LVL58:
 528 02f6 F0BD     		pop	{r4, r5, r6, r7, pc}
 529              	.L20:
 530              		.align	2
ARM GAS  C:\Users\luvsd\AppData\Local\Temp\ccQsFX20.s 			page 14


 531              	.L19:
 532 02f8 84FAFFFF 		.word	-1404
 533 02fc 6C050000 		.word	1388
 534 0300 00000000 		.word	.LANCHOR0
 535 0304 00000000 		.word	.LC1
 536 0308 04000000 		.word	.LC3
 537 030c 0C000000 		.word	.LC5
 538 0310 14000000 		.word	.LC7
 539 0314 1C000000 		.word	.LC9
 540 0318 20000000 		.word	.LC11
 541 031c 24000000 		.word	.LC13
 542 0320 28000000 		.word	.LC15
 543 0324 2C000000 		.word	.LC17
 544 0328 30000000 		.word	.LC19
 545 032c 34000000 		.word	.LC21
 546 0330 38000000 		.word	.LC23
 547 0334 7C050000 		.word	1404
 548              		.cfi_endproc
 549              	.LFE63:
 550              		.size	uartJsonParsor, .-uartJsonParsor
 551              		.section	.text.uartJsonLoop,"ax",%progbits
 552              		.align	2
 553              		.global	uartJsonLoop
 554              		.code	16
 555              		.thumb_func
 556              		.type	uartJsonLoop, %function
 557              	uartJsonLoop:
 558              	.LFB62:
  29:uartJson.c    ****    COUNT *ptrCount = getCount();   
 559              		.loc 1 29 0
 560              		.cfi_startproc
 561              		@ args = 0, pretend = 0, frame = 0
 562              		@ frame_needed = 0, uses_anonymous_args = 0
 563 0000 10B5     		push	{r4, lr}
 564              		.cfi_def_cfa_offset 8
 565              		.cfi_offset 4, -8
 566              		.cfi_offset 14, -4
  30:uartJson.c    ****     while(UART_SpiUartGetRxBufferSize() > 0 )
 567              		.loc 1 30 0
 568 0002 FFF7FEFF 		bl	getCount
 569              	.LVL59:
 570 0006 0400     		movs	r4, r0
 571              	.LVL60:
  31:uartJson.c    ****     {
 572              		.loc 1 31 0
 573 0008 54E0     		b	.L22
 574              	.LVL61:
 575              	.L30:
 576              	.LBB8:
  33:uartJson.c    **** 
 577              		.loc 1 33 0
 578 000a FFF7FEFF 		bl	UART_UartGetChar
 579              	.LVL62:
 580 000e C0B2     		uxtb	r0, r0
 581              	.LVL63:
  35:uartJson.c    ****         
 582              		.loc 1 35 0
ARM GAS  C:\Users\luvsd\AppData\Local\Temp\ccQsFX20.s 			page 15


 583 0010 0028     		cmp	r0, #0
 584 0012 4FD0     		beq	.L22
  37:uartJson.c    ****         {
 585              		.loc 1 37 0
 586 0014 2A4B     		ldr	r3, .L32
 587 0016 1B68     		ldr	r3, [r3]
 588 0018 002B     		cmp	r3, #0
 589 001a 03D1     		bne	.L24
  39:uartJson.c    ****         }
 590              		.loc 1 39 0
 591 001c 7B28     		cmp	r0, #123
 592 001e 01D0     		beq	.L24
  39:uartJson.c    ****         }
 593              		.loc 1 39 0 is_stmt 0 discriminator 1
 594 0020 5B28     		cmp	r0, #91
 595 0022 47D1     		bne	.L22
 596              	.L24:
  42:uartJson.c    ****         g_UART_buff[g_UART_buff_index++] = c;
 597              		.loc 1 42 0 is_stmt 1
 598 0024 FF22     		movs	r2, #255
 599 0026 5200     		lsls	r2, r2, #1
 600 0028 9342     		cmp	r3, r2
 601 002a 03DD     		ble	.L25
  42:uartJson.c    ****         g_UART_buff[g_UART_buff_index++] = c;
 602              		.loc 1 42 0 is_stmt 0 discriminator 1
 603 002c 0022     		movs	r2, #0
 604 002e 244B     		ldr	r3, .L32
 605 0030 1A60     		str	r2, [r3]
 606 0032 3FE0     		b	.L22
 607              	.L25:
  43:uartJson.c    ****         if(c == '}')
 608              		.loc 1 43 0 is_stmt 1
 609 0034 5A1C     		adds	r2, r3, #1
 610 0036 2249     		ldr	r1, .L32
 611 0038 0A60     		str	r2, [r1]
 612 003a 2249     		ldr	r1, .L32+4
 613 003c C854     		strb	r0, [r1, r3]
  44:uartJson.c    ****         {
 614              		.loc 1 44 0
 615 003e 7D28     		cmp	r0, #125
 616 0040 38D1     		bne	.L22
  46:uartJson.c    ****                 
 617              		.loc 1 46 0
 618 0042 0021     		movs	r1, #0
 619 0044 1F4B     		ldr	r3, .L32+4
 620 0046 9954     		strb	r1, [r3, r2]
  48:uartJson.c    ****             {                        
 621              		.loc 1 48 0
 622 0048 FFF7FEFF 		bl	uartJsonParsor
 623              	.LVL64:
 624 004c 0028     		cmp	r0, #0
 625 004e 28D0     		beq	.L31
 626 0050 0AE0     		b	.L26
 627              	.L28:
 628              	.LBB9:
  52:uartJson.c    ****                     
 629              		.loc 1 52 0
ARM GAS  C:\Users\luvsd\AppData\Local\Temp\ccQsFX20.s 			page 16


 630 0052 9B1A     		subs	r3, r3, r2
 631 0054 2384     		strh	r3, [r4, #32]
 632              	.LBB10:
  54:uartJson.c    ****                     uint32 tmp = CONVERT_TO_4BYTE(ptrCount->patternActualH, ptrCount->patternActual
 633              		.loc 1 54 0
 634 0056 A38B     		ldrh	r3, [r4, #28]
 635 0058 1B04     		lsls	r3, r3, #16
 636 005a E28B     		ldrh	r2, [r4, #30]
 637 005c 1343     		orrs	r3, r2
 638 005e CA88     		ldrh	r2, [r1, #6]
 639 0060 9B18     		adds	r3, r3, r2
 640              	.LVL65:
 641 0062 1A0C     		lsrs	r2, r3, #16
 642 0064 A283     		strh	r2, [r4, #28]
 643 0066 E383     		strh	r3, [r4, #30]
 644              	.LVL66:
 645              	.L26:
 646              	.LBE10:
 647              	.LBE9:
  50:uartJson.c    ****                 {
 648              		.loc 1 50 0
 649 0068 238C     		ldrh	r3, [r4, #32]
 650 006a 174A     		ldr	r2, .L32+8
 651 006c 1168     		ldr	r1, [r2]
 652 006e 8A88     		ldrh	r2, [r1, #4]
 653 0070 9342     		cmp	r3, r2
 654 0072 EED2     		bcs	.L28
  58:uartJson.c    ****                 
 655              		.loc 1 58 0
 656 0074 0120     		movs	r0, #1
 657 0076 FFF7FEFF 		bl	Reg_Pattern_Write
 658              	.LVL67:
  60:uartJson.c    ****                 makeAndonPatternCount();
 659              		.loc 1 60 0
 660 007a 0122     		movs	r2, #1
 661 007c 134B     		ldr	r3, .L32+12
 662 007e 1A70     		strb	r2, [r3]
  61:uartJson.c    ****                
 663              		.loc 1 61 0
 664 0080 FFF7FEFF 		bl	makeAndonPatternCount
 665              	.LVL68:
  63:uartJson.c    ****                
 666              		.loc 1 63 0
 667 0084 FFF7FEFF 		bl	ForcefullyMarkDowntimeAsComplete
 668              	.LVL69:
  65:uartJson.c    ****                 
 669              		.loc 1 65 0
 670 0088 FFF7FEFF 		bl	SaveInternalFlash
 671              	.LVL70:
  67:uartJson.c    ****                 Reg_Pattern_Write(0);
 672              		.loc 1 67 0
 673 008c 3220     		movs	r0, #50
 674 008e FFF7FEFF 		bl	CyDelay
 675              	.LVL71:
  68:uartJson.c    ****                 
 676              		.loc 1 68 0
 677 0092 0020     		movs	r0, #0
ARM GAS  C:\Users\luvsd\AppData\Local\Temp\ccQsFX20.s 			page 17


 678 0094 FFF7FEFF 		bl	Reg_Pattern_Write
 679              	.LVL72:
  70:uartJson.c    ****                 return TRUE;
 680              		.loc 1 70 0
 681 0098 0022     		movs	r2, #0
 682 009a 094B     		ldr	r3, .L32
 683 009c 1A60     		str	r2, [r3]
  71:uartJson.c    ****             }
 684              		.loc 1 71 0
 685 009e 0120     		movs	r0, #1
 686 00a0 0CE0     		b	.L29
 687              	.L31:
  74:uartJson.c    ****             memset(g_UART_buff,0,UART_BUFFER_SIZE);            
 688              		.loc 1 74 0
 689 00a2 0022     		movs	r2, #0
 690 00a4 064B     		ldr	r3, .L32
 691 00a6 1A60     		str	r2, [r3]
  75:uartJson.c    ****         }        
 692              		.loc 1 75 0
 693 00a8 8022     		movs	r2, #128
 694 00aa 9200     		lsls	r2, r2, #2
 695 00ac 0021     		movs	r1, #0
 696 00ae 0548     		ldr	r0, .L32+4
 697 00b0 FFF7FEFF 		bl	memset
 698              	.LVL73:
 699              	.L22:
 700              	.LBE8:
  31:uartJson.c    ****     {
 701              		.loc 1 31 0
 702 00b4 FFF7FEFF 		bl	UART_SpiUartGetRxBufferSize
 703              	.LVL74:
 704 00b8 0028     		cmp	r0, #0
 705 00ba A6D1     		bne	.L30
 706              	.L29:
  79:uartJson.c    **** 
 707              		.loc 1 79 0
 708              		@ sp needed
 709              	.LVL75:
 710 00bc 10BD     		pop	{r4, pc}
 711              	.L33:
 712 00be C046     		.align	2
 713              	.L32:
 714 00c0 00020000 		.word	.LANCHOR1
 715 00c4 00000000 		.word	.LANCHOR0
 716 00c8 00000000 		.word	g_ptrMachineParameter
 717 00cc 00000000 		.word	g_updateCountMenu
 718              		.cfi_endproc
 719              	.LFE62:
 720              		.size	uartJsonLoop, .-uartJsonLoop
 721              		.comm	Param,6,4
 722              		.section	.rodata.str1.4,"aMS",%progbits,1
 723              		.align	2
 724              	.LC1:
 725 0000 636D6400 		.ascii	"cmd\000"
 726              	.LC3:
 727 0004 252E2A73 		.ascii	"%.*s\000"
 727      00
ARM GAS  C:\Users\luvsd\AppData\Local\Temp\ccQsFX20.s 			page 18


 728 0009 000000   		.space	3
 729              	.LC5:
 730 000c 636F756E 		.ascii	"count\000"
 730      7400
 731 0012 0000     		.space	2
 732              	.LC7:
 733 0014 76616C75 		.ascii	"value\000"
 733      6500
 734 001a 0000     		.space	2
 735              	.LC9:
 736 001c 6E6F00   		.ascii	"no\000"
 737 001f 00       		.space	1
 738              	.LC11:
 739 0020 637400   		.ascii	"ct\000"
 740 0023 00       		.space	1
 741              	.LC13:
 742 0024 657400   		.ascii	"et\000"
 743 0027 00       		.space	1
 744              	.LC15:
 745 0028 6D727400 		.ascii	"mrt\000"
 746              	.LC17:
 747 002c 737100   		.ascii	"sq\000"
 748 002f 00       		.space	1
 749              	.LC19:
 750 0030 736C00   		.ascii	"sl\000"
 751 0033 00       		.space	1
 752              	.LC21:
 753 0034 746300   		.ascii	"tc\000"
 754 0037 00       		.space	1
 755              	.LC23:
 756 0038 73706D00 		.ascii	"spm\000"
 757              		.bss
 758              		.align	2
 759              		.set	.LANCHOR0,. + 0
 760              		.set	.LANCHOR1,. + 512
 761              		.type	g_UART_buff, %object
 762              		.size	g_UART_buff, 512
 763              	g_UART_buff:
 764 0000 00000000 		.space	512
 764      00000000 
 764      00000000 
 764      00000000 
 764      00000000 
 765              		.type	g_UART_buff_index, %object
 766              		.size	g_UART_buff_index, 4
 767              	g_UART_buff_index:
 768 0200 00000000 		.space	4
 769              		.text
 770              	.Letext0:
 771              		.file 2 "c:\\program files (x86)\\cypress\\psoc creator\\4.4\\psoc creator\\import\\gnu\\arm\\5.4.
 772              		.file 3 "c:\\program files (x86)\\cypress\\psoc creator\\4.4\\psoc creator\\import\\gnu\\arm\\5.4.
 773              		.file 4 "Generated_Source\\PSoC4/cytypes.h"
 774              		.file 5 "main.h"
 775              		.file 6 "lib/jsmn.h"
 776              		.file 7 "count.h"
 777              		.file 8 "userProjectPatternSewing.h"
 778              		.file 9 "lib/fonts.h"
ARM GAS  C:\Users\luvsd\AppData\Local\Temp\ccQsFX20.s 			page 19


 779              		.file 10 "Generated_Source\\PSoC4/RTC.h"
 780              		.file 11 "c:\\program files (x86)\\cypress\\psoc creator\\4.4\\psoc creator\\import\\gnu\\arm\\5.4
 781              		.file 12 "c:\\program files (x86)\\cypress\\psoc creator\\4.4\\psoc creator\\import\\gnu\\arm\\5.4
 782              		.file 13 "c:\\program files (x86)\\cypress\\psoc creator\\4.4\\psoc creator\\import\\gnu\\arm\\5.4
 783              		.file 14 "Generated_Source\\PSoC4/UART_SPI_UART.h"
 784              		.file 15 "Generated_Source\\PSoC4/Reg_Pattern.h"
 785              		.file 16 "andonApi.h"
 786              		.file 17 "downtime.h"
 787              		.file 18 "lib/internalFlash.h"
 788              		.file 19 "Generated_Source\\PSoC4/CyLib.h"