ARM GAS  C:\Users\luvsd\AppData\Local\Temp\cc6I0wR6.s 			page 1


   1              		.syntax unified
   2              		.cpu cortex-m0
   3              		.fpu softvfp
   4              		.eabi_attribute 20, 1
   5              		.eabi_attribute 21, 1
   6              		.eabi_attribute 23, 3
   7              		.eabi_attribute 24, 1
   8              		.eabi_attribute 25, 1
   9              		.eabi_attribute 26, 1
  10              		.eabi_attribute 30, 1
  11              		.eabi_attribute 34, 0
  12              		.eabi_attribute 18, 4
  13              		.thumb
  14              		.syntax unified
  15              		.file	"UI.c"
  16              		.text
  17              	.Ltext0:
  18              		.cfi_sections	.debug_frame
  19              		.section	.text.setDisplayDirection,"ax",%progbits
  20              		.align	2
  21              		.global	setDisplayDirection
  22              		.code	16
  23              		.thumb_func
  24              		.type	setDisplayDirection, %function
  25              	setDisplayDirection:
  26              	.LFB62:
  27              		.file 1 "lib\\UI.c"
   1:lib/UI.c      **** /* ========================================
   2:lib/UI.c      ****  *
   3:lib/UI.c      ****  * Copyright Suntech, 2023.02.01
   4:lib/UI.c      ****  * All Rights Reserved
   5:lib/UI.c      ****  * UNPUBLISHED, LICENSED SOFTWARE.
   6:lib/UI.c      ****  *
   7:lib/UI.c      ****  * CONFIDENTIAL AND PROPRIETARY INFORMATION
   8:lib/UI.c      ****  * WHICH IS THE PROPERTY OF Suntech.
   9:lib/UI.c      ****  *
  10:lib/UI.c      ****  * ========================================
  11:lib/UI.c      **** */
  12:lib/UI.c      **** #include "UI.h"
  13:lib/UI.c      **** #include "FT5x46.h"
  14:lib/UI.c      **** #include "widget.h"
  15:lib/UI.c      **** #include "sysTick.h"
  16:lib/UI.c      **** #include "userTimer.h"
  17:lib/UI.c      **** #include "externalFlash.h"
  18:lib/UI.c      **** 
  19:lib/UI.c      **** //uint8 g_displayDirection = DISPLAY_DIRECTION_PORTRAIT;
  20:lib/UI.c      **** uint16 g_DEFAULT_BUTTON_HEIGHT = DEFAULT_BUTTON_HEIGHT_PORTRAIT;
  21:lib/UI.c      **** 
  22:lib/UI.c      **** uint16 g_SCREEN_WIDTH  = LCD_WIDTH;
  23:lib/UI.c      **** uint16 g_SCREEN_HEIGHT = LCD_HEIGHT;
  24:lib/UI.c      **** 
  25:lib/UI.c      **** uint8 g_index_touch_counter;
  26:lib/UI.c      **** 
  27:lib/UI.c      **** void setDisplayDirection(uint8 dir)
  28:lib/UI.c      **** {
  28              		.loc 1 28 0
  29              		.cfi_startproc
ARM GAS  C:\Users\luvsd\AppData\Local\Temp\cc6I0wR6.s 			page 2


  30              		@ args = 0, pretend = 0, frame = 0
  31              		@ frame_needed = 0, uses_anonymous_args = 0
  32              	.LVL0:
  33 0000 10B5     		push	{r4, lr}
  34              		.cfi_def_cfa_offset 8
  35              		.cfi_offset 4, -8
  36              		.cfi_offset 14, -4
  37 0002 0400     		movs	r4, r0
  29:lib/UI.c      ****     getMiscConfig()->bDisplayDir = dir;
  38              		.loc 1 29 0
  39 0004 FFF7FEFF 		bl	getMiscConfig
  40              	.LVL1:
  41 0008 0480     		strh	r4, [r0]
  30:lib/UI.c      ****     
  31:lib/UI.c      ****     if(dir == DISPLAY_DIRECTION_PORTRAIT)
  42              		.loc 1 31 0
  43 000a 002C     		cmp	r4, #0
  44 000c 08D1     		bne	.L2
  32:lib/UI.c      ****     {
  33:lib/UI.c      ****         g_SCREEN_WIDTH  = LCD_WIDTH;
  45              		.loc 1 33 0
  46 000e 0A4B     		ldr	r3, .L4
  47 0010 F022     		movs	r2, #240
  48 0012 1A80     		strh	r2, [r3]
  34:lib/UI.c      ****         g_SCREEN_HEIGHT = LCD_HEIGHT;
  49              		.loc 1 34 0
  50 0014 5032     		adds	r2, r2, #80
  51 0016 5A80     		strh	r2, [r3, #2]
  35:lib/UI.c      ****         g_DEFAULT_BUTTON_HEIGHT = DEFAULT_BUTTON_HEIGHT_PORTRAIT;
  52              		.loc 1 35 0
  53 0018 133A     		subs	r2, r2, #19
  54 001a FF3A     		subs	r2, r2, #255
  55 001c 9A80     		strh	r2, [r3, #4]
  56 001e 07E0     		b	.L3
  57              	.L2:
  36:lib/UI.c      ****     }
  37:lib/UI.c      ****     else
  38:lib/UI.c      ****     {
  39:lib/UI.c      ****         g_SCREEN_WIDTH  = LCD_HEIGHT;
  58              		.loc 1 39 0
  59 0020 054B     		ldr	r3, .L4
  60 0022 A022     		movs	r2, #160
  61 0024 5200     		lsls	r2, r2, #1
  62 0026 1A80     		strh	r2, [r3]
  40:lib/UI.c      ****         g_SCREEN_HEIGHT = LCD_WIDTH;
  63              		.loc 1 40 0
  64 0028 503A     		subs	r2, r2, #80
  65 002a 5A80     		strh	r2, [r3, #2]
  41:lib/UI.c      ****         g_DEFAULT_BUTTON_HEIGHT = DEFAULT_BUTTON_HEIGHT_LANDSCAPE;        
  66              		.loc 1 41 0
  67 002c C83A     		subs	r2, r2, #200
  68 002e 9A80     		strh	r2, [r3, #4]
  69              	.L3:
  42:lib/UI.c      ****     }
  43:lib/UI.c      ****     
  44:lib/UI.c      ****     initWidget();
  70              		.loc 1 44 0
ARM GAS  C:\Users\luvsd\AppData\Local\Temp\cc6I0wR6.s 			page 3


  71 0030 FFF7FEFF 		bl	initWidget
  72              	.LVL2:
  45:lib/UI.c      **** }
  73              		.loc 1 45 0
  74              		@ sp needed
  75 0034 10BD     		pop	{r4, pc}
  76              	.L5:
  77 0036 C046     		.align	2
  78              	.L4:
  79 0038 00000000 		.word	.LANCHOR0
  80              		.cfi_endproc
  81              	.LFE62:
  82              		.size	setDisplayDirection, .-setDisplayDirection
  83              		.section	.text.MapToDeviceCoordinate,"ax",%progbits
  84              		.align	2
  85              		.global	MapToDeviceCoordinate
  86              		.code	16
  87              		.thumb_func
  88              		.type	MapToDeviceCoordinate, %function
  89              	MapToDeviceCoordinate:
  90              	.LFB63:
  46:lib/UI.c      **** 
  47:lib/UI.c      **** POINT MapToDeviceCoordinate(uint16 x, uint16 y)
  48:lib/UI.c      **** {
  91              		.loc 1 48 0
  92              		.cfi_startproc
  93              		@ args = 0, pretend = 0, frame = 8
  94              		@ frame_needed = 0, uses_anonymous_args = 0
  95              	.LVL3:
  96 0000 30B5     		push	{r4, r5, lr}
  97              		.cfi_def_cfa_offset 12
  98              		.cfi_offset 4, -12
  99              		.cfi_offset 5, -8
 100              		.cfi_offset 14, -4
 101 0002 83B0     		sub	sp, sp, #12
 102              		.cfi_def_cfa_offset 24
 103 0004 0400     		movs	r4, r0
 104 0006 0D00     		movs	r5, r1
  49:lib/UI.c      ****     static POINT point;
  50:lib/UI.c      **** 
  51:lib/UI.c      ****     if(getMiscConfig()->bDisplayDir == DISPLAY_DIRECTION_PORTRAIT)
 105              		.loc 1 51 0
 106 0008 FFF7FEFF 		bl	getMiscConfig
 107              	.LVL4:
 108 000c 0388     		ldrh	r3, [r0]
 109 000e 002B     		cmp	r3, #0
 110 0010 03D1     		bne	.L7
  52:lib/UI.c      ****     {
  53:lib/UI.c      ****         point.x = x;
 111              		.loc 1 53 0
 112 0012 094B     		ldr	r3, .L9
 113 0014 1C80     		strh	r4, [r3]
  54:lib/UI.c      ****         point.y = y;
 114              		.loc 1 54 0
 115 0016 5D80     		strh	r5, [r3, #2]
 116 0018 04E0     		b	.L8
 117              	.L7:
ARM GAS  C:\Users\luvsd\AppData\Local\Temp\cc6I0wR6.s 			page 4


  55:lib/UI.c      ****     }
  56:lib/UI.c      ****     else 
  57:lib/UI.c      ****     {
  58:lib/UI.c      ****         point.x = LCD_WIDTH - y - 1;
 118              		.loc 1 58 0
 119 001a 074B     		ldr	r3, .L9
 120 001c EF21     		movs	r1, #239
 121 001e 491B     		subs	r1, r1, r5
 122 0020 1980     		strh	r1, [r3]
  59:lib/UI.c      ****         point.y = x;        
 123              		.loc 1 59 0
 124 0022 5C80     		strh	r4, [r3, #2]
 125              	.L8:
  60:lib/UI.c      ****     }
  61:lib/UI.c      **** 
  62:lib/UI.c      ****     return point;
 126              		.loc 1 62 0
 127 0024 044B     		ldr	r3, .L9
 128 0026 1B68     		ldr	r3, [r3]
 129 0028 180C     		lsrs	r0, r3, #16
 130 002a 0004     		lsls	r0, r0, #16
 131 002c 1B04     		lsls	r3, r3, #16
 132 002e 1B0C     		lsrs	r3, r3, #16
 133 0030 1843     		orrs	r0, r3
  63:lib/UI.c      **** }
 134              		.loc 1 63 0
 135 0032 03B0     		add	sp, sp, #12
 136              		@ sp needed
 137 0034 30BD     		pop	{r4, r5, pc}
 138              	.L10:
 139 0036 C046     		.align	2
 140              	.L9:
 141 0038 00000000 		.word	.LANCHOR1
 142              		.cfi_endproc
 143              	.LFE63:
 144              		.size	MapToDeviceCoordinate, .-MapToDeviceCoordinate
 145              		.section	.text.MapToScreenCoordinate,"ax",%progbits
 146              		.align	2
 147              		.global	MapToScreenCoordinate
 148              		.code	16
 149              		.thumb_func
 150              		.type	MapToScreenCoordinate, %function
 151              	MapToScreenCoordinate:
 152              	.LFB64:
  64:lib/UI.c      **** 
  65:lib/UI.c      **** POINT MapToScreenCoordinate(uint16 x, uint16 y)
  66:lib/UI.c      **** {
 153              		.loc 1 66 0
 154              		.cfi_startproc
 155              		@ args = 0, pretend = 0, frame = 8
 156              		@ frame_needed = 0, uses_anonymous_args = 0
 157              	.LVL5:
 158 0000 30B5     		push	{r4, r5, lr}
 159              		.cfi_def_cfa_offset 12
 160              		.cfi_offset 4, -12
 161              		.cfi_offset 5, -8
 162              		.cfi_offset 14, -4
ARM GAS  C:\Users\luvsd\AppData\Local\Temp\cc6I0wR6.s 			page 5


 163 0002 83B0     		sub	sp, sp, #12
 164              		.cfi_def_cfa_offset 24
 165 0004 0400     		movs	r4, r0
 166 0006 0D00     		movs	r5, r1
  67:lib/UI.c      ****     static POINT point;
  68:lib/UI.c      **** 
  69:lib/UI.c      ****     if(getMiscConfig()->bDisplayDir == DISPLAY_DIRECTION_PORTRAIT)
 167              		.loc 1 69 0
 168 0008 FFF7FEFF 		bl	getMiscConfig
 169              	.LVL6:
 170 000c 0388     		ldrh	r3, [r0]
 171 000e 002B     		cmp	r3, #0
 172 0010 03D1     		bne	.L12
  70:lib/UI.c      ****     {
  71:lib/UI.c      ****         point.x = x;
 173              		.loc 1 71 0
 174 0012 094B     		ldr	r3, .L14
 175 0014 9C80     		strh	r4, [r3, #4]
  72:lib/UI.c      ****         point.y = y;
 176              		.loc 1 72 0
 177 0016 DD80     		strh	r5, [r3, #6]
 178 0018 04E0     		b	.L13
 179              	.L12:
  73:lib/UI.c      ****     }
  74:lib/UI.c      ****     else 
  75:lib/UI.c      ****     {
  76:lib/UI.c      ****         point.x = y;
 180              		.loc 1 76 0
 181 001a 074B     		ldr	r3, .L14
 182 001c 9D80     		strh	r5, [r3, #4]
  77:lib/UI.c      ****         point.y = LCD_WIDTH - x - 1; 
 183              		.loc 1 77 0
 184 001e EF20     		movs	r0, #239
 185 0020 001B     		subs	r0, r0, r4
 186 0022 D880     		strh	r0, [r3, #6]
 187              	.L13:
  78:lib/UI.c      ****     }
  79:lib/UI.c      ****     
  80:lib/UI.c      ****     return point;
 188              		.loc 1 80 0
 189 0024 044B     		ldr	r3, .L14
 190 0026 5B68     		ldr	r3, [r3, #4]
 191 0028 180C     		lsrs	r0, r3, #16
 192 002a 0004     		lsls	r0, r0, #16
 193 002c 1B04     		lsls	r3, r3, #16
 194 002e 1B0C     		lsrs	r3, r3, #16
 195 0030 1843     		orrs	r0, r3
  81:lib/UI.c      **** }
 196              		.loc 1 81 0
 197 0032 03B0     		add	sp, sp, #12
 198              		@ sp needed
 199 0034 30BD     		pop	{r4, r5, pc}
 200              	.L15:
 201 0036 C046     		.align	2
 202              	.L14:
 203 0038 00000000 		.word	.LANCHOR1
 204              		.cfi_endproc
ARM GAS  C:\Users\luvsd\AppData\Local\Temp\cc6I0wR6.s 			page 6


 205              	.LFE64:
 206              		.size	MapToScreenCoordinate, .-MapToScreenCoordinate
 207              		.section	.text.ST7789V_setaddress_MapScreenCoordinate,"ax",%progbits
 208              		.align	2
 209              		.global	ST7789V_setaddress_MapScreenCoordinate
 210              		.code	16
 211              		.thumb_func
 212              		.type	ST7789V_setaddress_MapScreenCoordinate, %function
 213              	ST7789V_setaddress_MapScreenCoordinate:
 214              	.LFB65:
  82:lib/UI.c      **** 
  83:lib/UI.c      **** RECT ST7789V_setaddress_MapScreenCoordinate(uint16 x1,uint16 y1,uint16 x2,uint16 y2)
  84:lib/UI.c      **** {    
 215              		.loc 1 84 0
 216              		.cfi_startproc
 217              		@ args = 4, pretend = 0, frame = 8
 218              		@ frame_needed = 0, uses_anonymous_args = 0
 219              	.LVL7:
 220 0000 F0B5     		push	{r4, r5, r6, r7, lr}
 221              		.cfi_def_cfa_offset 20
 222              		.cfi_offset 4, -20
 223              		.cfi_offset 5, -16
 224              		.cfi_offset 6, -12
 225              		.cfi_offset 7, -8
 226              		.cfi_offset 14, -4
 227 0002 83B0     		sub	sp, sp, #12
 228              		.cfi_def_cfa_offset 32
 229 0004 0500     		movs	r5, r0
 230 0006 0800     		movs	r0, r1
 231              	.LVL8:
 232 0008 1C00     		movs	r4, r3
 233 000a 08AB     		add	r3, sp, #32
 234              	.LVL9:
 235 000c 1E88     		ldrh	r6, [r3]
  85:lib/UI.c      ****     POINT p1 = MapToDeviceCoordinate(x1, y1);
 236              		.loc 1 85 0
 237 000e 1100     		movs	r1, r2
 238              	.LVL10:
 239 0010 FFF7FEFF 		bl	MapToDeviceCoordinate
 240              	.LVL11:
 241 0014 0190     		str	r0, [sp, #4]
  86:lib/UI.c      ****     POINT p2 = MapToDeviceCoordinate(x2, y2);
 242              		.loc 1 86 0
 243 0016 3100     		movs	r1, r6
 244 0018 2000     		movs	r0, r4
 245 001a FFF7FEFF 		bl	MapToDeviceCoordinate
 246              	.LVL12:
 247 001e 0090     		str	r0, [sp]
  87:lib/UI.c      ****     
  88:lib/UI.c      ****     static RECT rect;
  89:lib/UI.c      ****     rect.left   = MIN(p1.x,p2.x);
 248              		.loc 1 89 0
 249 0020 83B2     		uxth	r3, r0
 250 0022 01AA     		add	r2, sp, #4
 251 0024 1288     		ldrh	r2, [r2]
 252 0026 191C     		adds	r1, r3, #0
 253 0028 9342     		cmp	r3, r2
ARM GAS  C:\Users\luvsd\AppData\Local\Temp\cc6I0wR6.s 			page 7


 254 002a 00D9     		bls	.L17
 255 002c 111C     		adds	r1, r2, #0
 256              	.L17:
 257 002e 88B2     		uxth	r0, r1
 258 0030 124C     		ldr	r4, .L21
 259 0032 2181     		strh	r1, [r4, #8]
  90:lib/UI.c      ****     rect.right  = MAX(p1.x,p2.x); 
 260              		.loc 1 90 0
 261 0034 191C     		adds	r1, r3, #0
 262 0036 9342     		cmp	r3, r2
 263 0038 00D2     		bcs	.L18
 264 003a 111C     		adds	r1, r2, #0
 265              	.L18:
 266 003c 8AB2     		uxth	r2, r1
 267 003e 0F4B     		ldr	r3, .L21
 268 0040 5981     		strh	r1, [r3, #10]
  91:lib/UI.c      ****     rect.top    = MIN(p1.y,p2.y);
 269              		.loc 1 91 0
 270 0042 6B46     		mov	r3, sp
 271 0044 5B88     		ldrh	r3, [r3, #2]
 272 0046 01A9     		add	r1, sp, #4
 273 0048 4C88     		ldrh	r4, [r1, #2]
 274 004a 1E1C     		adds	r6, r3, #0
 275 004c A342     		cmp	r3, r4
 276 004e 00D9     		bls	.L19
 277 0050 261C     		adds	r6, r4, #0
 278              	.L19:
 279 0052 B1B2     		uxth	r1, r6
 280 0054 094F     		ldr	r7, .L21
 281 0056 BE81     		strh	r6, [r7, #12]
  92:lib/UI.c      ****     rect.bottom = MAX(p1.y,p2.y); 
 282              		.loc 1 92 0
 283 0058 1E1C     		adds	r6, r3, #0
 284 005a A342     		cmp	r3, r4
 285 005c 00D2     		bcs	.L20
 286 005e 261C     		adds	r6, r4, #0
 287              	.L20:
 288 0060 B3B2     		uxth	r3, r6
 289 0062 064C     		ldr	r4, .L21
 290 0064 E681     		strh	r6, [r4, #14]
  93:lib/UI.c      ****   
  94:lib/UI.c      ****     ST7789V_setaddress(rect.left, rect.top, rect.right, rect.bottom); 
 291              		.loc 1 94 0
 292 0066 FFF7FEFF 		bl	ST7789V_setaddress
 293              	.LVL13:
  95:lib/UI.c      ****     return rect;
 294              		.loc 1 95 0
 295 006a 2100     		movs	r1, r4
 296 006c 0831     		adds	r1, r1, #8
 297 006e 0822     		movs	r2, #8
 298 0070 2800     		movs	r0, r5
 299 0072 FFF7FEFF 		bl	memcpy
 300              	.LVL14:
  96:lib/UI.c      **** }
 301              		.loc 1 96 0
 302 0076 2800     		movs	r0, r5
 303 0078 03B0     		add	sp, sp, #12
ARM GAS  C:\Users\luvsd\AppData\Local\Temp\cc6I0wR6.s 			page 8


 304              		@ sp needed
 305              	.LVL15:
 306 007a F0BD     		pop	{r4, r5, r6, r7, pc}
 307              	.L22:
 308              		.align	2
 309              	.L21:
 310 007c 00000000 		.word	.LANCHOR1
 311              		.cfi_endproc
 312              	.LFE65:
 313              		.size	ST7789V_setaddress_MapScreenCoordinate, .-ST7789V_setaddress_MapScreenCoordinate
 314              		.section	.text.FillRectangle,"ax",%progbits
 315              		.align	2
 316              		.global	FillRectangle
 317              		.code	16
 318              		.thumb_func
 319              		.type	FillRectangle, %function
 320              	FillRectangle:
 321              	.LFB67:
  97:lib/UI.c      **** 
  98:lib/UI.c      **** void FillAllArea(COLOR color)
  99:lib/UI.c      **** {
 100:lib/UI.c      ****     FillRectangle(0, 0, g_SCREEN_WIDTH-1, g_SCREEN_HEIGHT-1, color);
 101:lib/UI.c      **** }
 102:lib/UI.c      **** 
 103:lib/UI.c      **** void FillRectangle(uint16 x1, uint16 y1, uint16 x2, uint16 y2, COLOR color)
 104:lib/UI.c      **** {        
 322              		.loc 1 104 0
 323              		.cfi_startproc
 324              		@ args = 4, pretend = 0, frame = 16
 325              		@ frame_needed = 0, uses_anonymous_args = 0
 326              	.LVL16:
 327 0000 F0B5     		push	{r4, r5, r6, r7, lr}
 328              		.cfi_def_cfa_offset 20
 329              		.cfi_offset 4, -20
 330              		.cfi_offset 5, -16
 331              		.cfi_offset 6, -12
 332              		.cfi_offset 7, -8
 333              		.cfi_offset 14, -4
 334 0002 4F46     		mov	r7, r9
 335 0004 80B4     		push	{r7}
 336              		.cfi_def_cfa_offset 24
 337              		.cfi_offset 9, -24
 338 0006 86B0     		sub	sp, sp, #24
 339              		.cfi_def_cfa_offset 48
 340 0008 0400     		movs	r4, r0
 341 000a 0391     		str	r1, [sp, #12]
 342 000c 9146     		mov	r9, r2
 343 000e 1D00     		movs	r5, r3
 344 0010 0CAB     		add	r3, sp, #48
 345              	.LVL17:
 346 0012 1E88     		ldrh	r6, [r3]
 105:lib/UI.c      ****     RECT rect = ST7789V_setaddress_MapScreenCoordinate(x1, y1, x2, y2);
 347              		.loc 1 105 0
 348 0014 0095     		str	r5, [sp]
 349 0016 1300     		movs	r3, r2
 350              	.LVL18:
 351 0018 0A00     		movs	r2, r1
ARM GAS  C:\Users\luvsd\AppData\Local\Temp\cc6I0wR6.s 			page 9


 352              	.LVL19:
 353 001a 0100     		movs	r1, r0
 354              	.LVL20:
 355 001c 04A8     		add	r0, sp, #16
 356              	.LVL21:
 357 001e FFF7FEFF 		bl	ST7789V_setaddress_MapScreenCoordinate
 358              	.LVL22:
 359              	.LBB2:
 106:lib/UI.c      ****     
 107:lib/UI.c      ****     for(int i=x1; i <= x2; i++)
 360              		.loc 1 107 0
 361 0022 2700     		movs	r7, r4
 362              	.LVL23:
 363 0024 08E0     		b	.L24
 364              	.LVL24:
 365              	.L27:
 366              	.LBB3:
 108:lib/UI.c      ****        for(int j=y1; j<= y2; j++)
 367              		.loc 1 108 0
 368 0026 039C     		ldr	r4, [sp, #12]
 369              	.LVL25:
 370 0028 03E0     		b	.L25
 371              	.L26:
 109:lib/UI.c      ****           ST7789V_pushcolour(color); 
 372              		.loc 1 109 0 discriminator 3
 373 002a 3000     		movs	r0, r6
 374 002c FFF7FEFF 		bl	ST7789V_pushcolour
 375              	.LVL26:
 108:lib/UI.c      ****        for(int j=y1; j<= y2; j++)
 376              		.loc 1 108 0 discriminator 3
 377 0030 0134     		adds	r4, r4, #1
 378              	.LVL27:
 379              	.L25:
 108:lib/UI.c      ****        for(int j=y1; j<= y2; j++)
 380              		.loc 1 108 0 is_stmt 0 discriminator 1
 381 0032 AC42     		cmp	r4, r5
 382 0034 F9DD     		ble	.L26
 383              	.LBE3:
 107:lib/UI.c      ****        for(int j=y1; j<= y2; j++)
 384              		.loc 1 107 0 is_stmt 1 discriminator 2
 385 0036 0137     		adds	r7, r7, #1
 386              	.LVL28:
 387              	.L24:
 107:lib/UI.c      ****        for(int j=y1; j<= y2; j++)
 388              		.loc 1 107 0 is_stmt 0 discriminator 1
 389 0038 4F45     		cmp	r7, r9
 390 003a F4DD     		ble	.L27
 391              	.LBE2:
 110:lib/UI.c      **** }
 392              		.loc 1 110 0 is_stmt 1
 393 003c 06B0     		add	sp, sp, #24
 394              		@ sp needed
 395              	.LVL29:
 396 003e 04BC     		pop	{r2}
 397 0040 9146     		mov	r9, r2
 398 0042 F0BD     		pop	{r4, r5, r6, r7, pc}
 399              		.cfi_endproc
ARM GAS  C:\Users\luvsd\AppData\Local\Temp\cc6I0wR6.s 			page 10


 400              	.LFE67:
 401              		.size	FillRectangle, .-FillRectangle
 402              		.section	.text.FillAllArea,"ax",%progbits
 403              		.align	2
 404              		.global	FillAllArea
 405              		.code	16
 406              		.thumb_func
 407              		.type	FillAllArea, %function
 408              	FillAllArea:
 409              	.LFB66:
  99:lib/UI.c      ****     FillRectangle(0, 0, g_SCREEN_WIDTH-1, g_SCREEN_HEIGHT-1, color);
 410              		.loc 1 99 0
 411              		.cfi_startproc
 412              		@ args = 0, pretend = 0, frame = 0
 413              		@ frame_needed = 0, uses_anonymous_args = 0
 414              	.LVL30:
 415 0000 00B5     		push	{lr}
 416              		.cfi_def_cfa_offset 4
 417              		.cfi_offset 14, -4
 418 0002 83B0     		sub	sp, sp, #12
 419              		.cfi_def_cfa_offset 16
 100:lib/UI.c      **** }
 420              		.loc 1 100 0
 421 0004 064A     		ldr	r2, .L29
 422 0006 5388     		ldrh	r3, [r2, #2]
 423 0008 013B     		subs	r3, r3, #1
 424 000a 9BB2     		uxth	r3, r3
 425 000c 1288     		ldrh	r2, [r2]
 426 000e 013A     		subs	r2, r2, #1
 427 0010 92B2     		uxth	r2, r2
 428 0012 0090     		str	r0, [sp]
 429 0014 0021     		movs	r1, #0
 430 0016 0020     		movs	r0, #0
 431              	.LVL31:
 432 0018 FFF7FEFF 		bl	FillRectangle
 433              	.LVL32:
 101:lib/UI.c      **** 
 434              		.loc 1 101 0
 435 001c 03B0     		add	sp, sp, #12
 436              		@ sp needed
 437 001e 00BD     		pop	{pc}
 438              	.L30:
 439              		.align	2
 440              	.L29:
 441 0020 00000000 		.word	.LANCHOR0
 442              		.cfi_endproc
 443              	.LFE66:
 444              		.size	FillAllArea, .-FillAllArea
 445              		.section	.text.FillRect,"ax",%progbits
 446              		.align	2
 447              		.global	FillRect
 448              		.code	16
 449              		.thumb_func
 450              		.type	FillRect, %function
 451              	FillRect:
 452              	.LFB68:
 111:lib/UI.c      **** 
ARM GAS  C:\Users\luvsd\AppData\Local\Temp\cc6I0wR6.s 			page 11


 112:lib/UI.c      **** void FillRect(RECT *r, COLOR color)
 113:lib/UI.c      **** {        
 453              		.loc 1 113 0
 454              		.cfi_startproc
 455              		@ args = 0, pretend = 0, frame = 0
 456              		@ frame_needed = 0, uses_anonymous_args = 0
 457              	.LVL33:
 458 0000 10B5     		push	{r4, lr}
 459              		.cfi_def_cfa_offset 8
 460              		.cfi_offset 4, -8
 461              		.cfi_offset 14, -4
 462 0002 82B0     		sub	sp, sp, #8
 463              		.cfi_def_cfa_offset 16
 464 0004 0C00     		movs	r4, r1
 114:lib/UI.c      ****     FillRectangle(r->left, r->top, r->right, r->bottom, color);
 465              		.loc 1 114 0
 466 0006 C388     		ldrh	r3, [r0, #6]
 467 0008 4288     		ldrh	r2, [r0, #2]
 468 000a 8188     		ldrh	r1, [r0, #4]
 469              	.LVL34:
 470 000c 0088     		ldrh	r0, [r0]
 471              	.LVL35:
 472 000e 0094     		str	r4, [sp]
 473 0010 FFF7FEFF 		bl	FillRectangle
 474              	.LVL36:
 115:lib/UI.c      **** }
 475              		.loc 1 115 0
 476 0014 02B0     		add	sp, sp, #8
 477              		@ sp needed
 478 0016 10BD     		pop	{r4, pc}
 479              		.cfi_endproc
 480              	.LFE68:
 481              		.size	FillRect, .-FillRect
 482              		.section	.text.DrawHorizontalLine,"ax",%progbits
 483              		.align	2
 484              		.global	DrawHorizontalLine
 485              		.code	16
 486              		.thumb_func
 487              		.type	DrawHorizontalLine, %function
 488              	DrawHorizontalLine:
 489              	.LFB69:
 116:lib/UI.c      **** 
 117:lib/UI.c      **** 
 118:lib/UI.c      **** void DrawHorizontalLine(uint16 x1, uint16 x2, uint16 y, COLOR color)
 119:lib/UI.c      **** {
 490              		.loc 1 119 0
 491              		.cfi_startproc
 492              		@ args = 0, pretend = 0, frame = 8
 493              		@ frame_needed = 0, uses_anonymous_args = 0
 494              	.LVL37:
 495 0000 70B5     		push	{r4, r5, r6, lr}
 496              		.cfi_def_cfa_offset 16
 497              		.cfi_offset 4, -16
 498              		.cfi_offset 5, -12
 499              		.cfi_offset 6, -8
 500              		.cfi_offset 14, -4
 501 0002 84B0     		sub	sp, sp, #16
ARM GAS  C:\Users\luvsd\AppData\Local\Temp\cc6I0wR6.s 			page 12


 502              		.cfi_def_cfa_offset 32
 503 0004 1D00     		movs	r5, r3
 120:lib/UI.c      ****     uint16 minX = MIN(x1,x2);
 504              		.loc 1 120 0
 505 0006 0C1C     		adds	r4, r1, #0
 506 0008 8142     		cmp	r1, r0
 507 000a 00D9     		bls	.L33
 508 000c 041C     		adds	r4, r0, #0
 509              	.L33:
 510 000e A4B2     		uxth	r4, r4
 511              	.LVL38:
 121:lib/UI.c      ****     uint16 maxX = MAX(x1,x2);
 512              		.loc 1 121 0
 513 0010 0E1C     		adds	r6, r1, #0
 514 0012 8142     		cmp	r1, r0
 515 0014 00D2     		bcs	.L34
 516 0016 061C     		adds	r6, r0, #0
 517              	.L34:
 518 0018 B6B2     		uxth	r6, r6
 519              	.LVL39:
 122:lib/UI.c      ****     
 123:lib/UI.c      ****     ST7789V_setaddress_MapScreenCoordinate(x1, y, x2, y);
 520              		.loc 1 123 0
 521 001a 0092     		str	r2, [sp]
 522 001c 0B00     		movs	r3, r1
 523              	.LVL40:
 524 001e 0100     		movs	r1, r0
 525              	.LVL41:
 526 0020 02A8     		add	r0, sp, #8
 527              	.LVL42:
 528 0022 FFF7FEFF 		bl	ST7789V_setaddress_MapScreenCoordinate
 529              	.LVL43:
 530              	.LBB4:
 124:lib/UI.c      ****     
 125:lib/UI.c      ****     for(uint16 i=minX; i <= maxX; i++)
 531              		.loc 1 125 0
 532 0026 04E0     		b	.L35
 533              	.LVL44:
 534              	.L36:
 126:lib/UI.c      ****         ST7789V_pushcolour(color);    
 535              		.loc 1 126 0 discriminator 3
 536 0028 2800     		movs	r0, r5
 537 002a FFF7FEFF 		bl	ST7789V_pushcolour
 538              	.LVL45:
 125:lib/UI.c      ****         ST7789V_pushcolour(color);    
 539              		.loc 1 125 0 discriminator 3
 540 002e 0134     		adds	r4, r4, #1
 541              	.LVL46:
 542 0030 A4B2     		uxth	r4, r4
 543              	.LVL47:
 544              	.L35:
 125:lib/UI.c      ****         ST7789V_pushcolour(color);    
 545              		.loc 1 125 0 is_stmt 0 discriminator 1
 546 0032 B442     		cmp	r4, r6
 547 0034 F8D9     		bls	.L36
 548              	.LBE4:
 127:lib/UI.c      **** }
ARM GAS  C:\Users\luvsd\AppData\Local\Temp\cc6I0wR6.s 			page 13


 549              		.loc 1 127 0 is_stmt 1
 550 0036 04B0     		add	sp, sp, #16
 551              		@ sp needed
 552              	.LVL48:
 553              	.LVL49:
 554 0038 70BD     		pop	{r4, r5, r6, pc}
 555              		.cfi_endproc
 556              	.LFE69:
 557              		.size	DrawHorizontalLine, .-DrawHorizontalLine
 558 003a C046     		.section	.text.DrawVerticalLine,"ax",%progbits
 559              		.align	2
 560              		.global	DrawVerticalLine
 561              		.code	16
 562              		.thumb_func
 563              		.type	DrawVerticalLine, %function
 564              	DrawVerticalLine:
 565              	.LFB72:
 128:lib/UI.c      **** 
 129:lib/UI.c      **** void DrawRectangle     (uint16 x1, uint16 y1, uint16 x2, uint16 y2, COLOR color)
 130:lib/UI.c      **** {
 131:lib/UI.c      ****     DrawVerticalLine(x1,y1,y2,color);    
 132:lib/UI.c      ****     DrawHorizontalLine(x1+1, x2-1, y1, color);
 133:lib/UI.c      ****     DrawVerticalLine(x2,y1,y2,color);        
 134:lib/UI.c      ****     DrawHorizontalLine(x1+1, x2-1, y2, color);
 135:lib/UI.c      **** 
 136:lib/UI.c      **** }
 137:lib/UI.c      **** void DrawRect          (RECT rect, COLOR color)
 138:lib/UI.c      **** {
 139:lib/UI.c      ****     DrawRectangle(rect.left, rect.top, rect.right, rect.bottom, color);
 140:lib/UI.c      **** }
 141:lib/UI.c      **** 
 142:lib/UI.c      **** void DrawVerticalLine(uint16 x, uint16 y1, uint16 y2, COLOR color)
 143:lib/UI.c      **** {    
 566              		.loc 1 143 0
 567              		.cfi_startproc
 568              		@ args = 0, pretend = 0, frame = 8
 569              		@ frame_needed = 0, uses_anonymous_args = 0
 570              	.LVL50:
 571 0000 70B5     		push	{r4, r5, r6, lr}
 572              		.cfi_def_cfa_offset 16
 573              		.cfi_offset 4, -16
 574              		.cfi_offset 5, -12
 575              		.cfi_offset 6, -8
 576              		.cfi_offset 14, -4
 577 0002 84B0     		sub	sp, sp, #16
 578              		.cfi_def_cfa_offset 32
 579 0004 1D00     		movs	r5, r3
 144:lib/UI.c      ****     uint16 minY = MIN(y1,y2);
 580              		.loc 1 144 0
 581 0006 141C     		adds	r4, r2, #0
 582 0008 8A42     		cmp	r2, r1
 583 000a 00D9     		bls	.L38
 584 000c 0C1C     		adds	r4, r1, #0
 585              	.L38:
 586 000e A4B2     		uxth	r4, r4
 587              	.LVL51:
 145:lib/UI.c      ****     uint16 maxY = MAX(y1,y2);
ARM GAS  C:\Users\luvsd\AppData\Local\Temp\cc6I0wR6.s 			page 14


 588              		.loc 1 145 0
 589 0010 161C     		adds	r6, r2, #0
 590 0012 8A42     		cmp	r2, r1
 591 0014 00D2     		bcs	.L39
 592 0016 0E1C     		adds	r6, r1, #0
 593              	.L39:
 594 0018 B6B2     		uxth	r6, r6
 595              	.LVL52:
 146:lib/UI.c      ****     
 147:lib/UI.c      ****     ST7789V_setaddress_MapScreenCoordinate(x, minY, x, maxY);
 596              		.loc 1 147 0
 597 001a 0096     		str	r6, [sp]
 598 001c 0300     		movs	r3, r0
 599              	.LVL53:
 600 001e 2200     		movs	r2, r4
 601              	.LVL54:
 602 0020 0100     		movs	r1, r0
 603              	.LVL55:
 604 0022 02A8     		add	r0, sp, #8
 605              	.LVL56:
 606 0024 FFF7FEFF 		bl	ST7789V_setaddress_MapScreenCoordinate
 607              	.LVL57:
 608              	.LBB5:
 148:lib/UI.c      ****     
 149:lib/UI.c      ****     for(uint16 i=minY; i <= maxY; i++)
 609              		.loc 1 149 0
 610 0028 04E0     		b	.L40
 611              	.LVL58:
 612              	.L41:
 150:lib/UI.c      ****         ST7789V_pushcolour(color);
 613              		.loc 1 150 0 discriminator 3
 614 002a 2800     		movs	r0, r5
 615 002c FFF7FEFF 		bl	ST7789V_pushcolour
 616              	.LVL59:
 149:lib/UI.c      ****         ST7789V_pushcolour(color);
 617              		.loc 1 149 0 discriminator 3
 618 0030 0134     		adds	r4, r4, #1
 619              	.LVL60:
 620 0032 A4B2     		uxth	r4, r4
 621              	.LVL61:
 622              	.L40:
 149:lib/UI.c      ****         ST7789V_pushcolour(color);
 623              		.loc 1 149 0 is_stmt 0 discriminator 1
 624 0034 B442     		cmp	r4, r6
 625 0036 F8D9     		bls	.L41
 626              	.LBE5:
 151:lib/UI.c      **** }
 627              		.loc 1 151 0 is_stmt 1
 628 0038 04B0     		add	sp, sp, #16
 629              		@ sp needed
 630              	.LVL62:
 631              	.LVL63:
 632 003a 70BD     		pop	{r4, r5, r6, pc}
 633              		.cfi_endproc
 634              	.LFE72:
 635              		.size	DrawVerticalLine, .-DrawVerticalLine
 636              		.section	.text.DrawRectangle,"ax",%progbits
ARM GAS  C:\Users\luvsd\AppData\Local\Temp\cc6I0wR6.s 			page 15


 637              		.align	2
 638              		.global	DrawRectangle
 639              		.code	16
 640              		.thumb_func
 641              		.type	DrawRectangle, %function
 642              	DrawRectangle:
 643              	.LFB70:
 130:lib/UI.c      ****     DrawVerticalLine(x1,y1,y2,color);    
 644              		.loc 1 130 0
 645              		.cfi_startproc
 646              		@ args = 4, pretend = 0, frame = 8
 647              		@ frame_needed = 0, uses_anonymous_args = 0
 648              	.LVL64:
 649 0000 F0B5     		push	{r4, r5, r6, r7, lr}
 650              		.cfi_def_cfa_offset 20
 651              		.cfi_offset 4, -20
 652              		.cfi_offset 5, -16
 653              		.cfi_offset 6, -12
 654              		.cfi_offset 7, -8
 655              		.cfi_offset 14, -4
 656 0002 83B0     		sub	sp, sp, #12
 657              		.cfi_def_cfa_offset 32
 658 0004 0400     		movs	r4, r0
 659 0006 0091     		str	r1, [sp]
 660 0008 1700     		movs	r7, r2
 661 000a 0193     		str	r3, [sp, #4]
 662 000c 08AB     		add	r3, sp, #32
 663              	.LVL65:
 664 000e 1E88     		ldrh	r6, [r3]
 131:lib/UI.c      ****     DrawHorizontalLine(x1+1, x2-1, y1, color);
 665              		.loc 1 131 0
 666 0010 3300     		movs	r3, r6
 667              	.LVL66:
 668 0012 019A     		ldr	r2, [sp, #4]
 669              	.LVL67:
 670 0014 FFF7FEFF 		bl	DrawVerticalLine
 671              	.LVL68:
 132:lib/UI.c      ****     DrawVerticalLine(x2,y1,y2,color);        
 672              		.loc 1 132 0
 673 0018 0134     		adds	r4, r4, #1
 674 001a A4B2     		uxth	r4, r4
 675 001c 7D1E     		subs	r5, r7, #1
 676 001e ADB2     		uxth	r5, r5
 677 0020 3300     		movs	r3, r6
 678 0022 009A     		ldr	r2, [sp]
 679 0024 2900     		movs	r1, r5
 680 0026 2000     		movs	r0, r4
 681 0028 FFF7FEFF 		bl	DrawHorizontalLine
 682              	.LVL69:
 133:lib/UI.c      ****     DrawHorizontalLine(x1+1, x2-1, y2, color);
 683              		.loc 1 133 0
 684 002c 3300     		movs	r3, r6
 685 002e 019A     		ldr	r2, [sp, #4]
 686 0030 0099     		ldr	r1, [sp]
 687 0032 3800     		movs	r0, r7
 688 0034 FFF7FEFF 		bl	DrawVerticalLine
 689              	.LVL70:
ARM GAS  C:\Users\luvsd\AppData\Local\Temp\cc6I0wR6.s 			page 16


 134:lib/UI.c      **** 
 690              		.loc 1 134 0
 691 0038 3300     		movs	r3, r6
 692 003a 019A     		ldr	r2, [sp, #4]
 693 003c 2900     		movs	r1, r5
 694 003e 2000     		movs	r0, r4
 695 0040 FFF7FEFF 		bl	DrawHorizontalLine
 696              	.LVL71:
 136:lib/UI.c      **** void DrawRect          (RECT rect, COLOR color)
 697              		.loc 1 136 0
 698 0044 03B0     		add	sp, sp, #12
 699              		@ sp needed
 700 0046 F0BD     		pop	{r4, r5, r6, r7, pc}
 701              		.cfi_endproc
 702              	.LFE70:
 703              		.size	DrawRectangle, .-DrawRectangle
 704              		.section	.text.DrawRect,"ax",%progbits
 705              		.align	2
 706              		.global	DrawRect
 707              		.code	16
 708              		.thumb_func
 709              		.type	DrawRect, %function
 710              	DrawRect:
 711              	.LFB71:
 138:lib/UI.c      ****     DrawRectangle(rect.left, rect.top, rect.right, rect.bottom, color);
 712              		.loc 1 138 0
 713              		.cfi_startproc
 714              		@ args = 0, pretend = 0, frame = 8
 715              		@ frame_needed = 0, uses_anonymous_args = 0
 716              	.LVL72:
 717 0000 10B5     		push	{r4, lr}
 718              		.cfi_def_cfa_offset 8
 719              		.cfi_offset 4, -8
 720              		.cfi_offset 14, -4
 721 0002 84B0     		sub	sp, sp, #16
 722              		.cfi_def_cfa_offset 24
 139:lib/UI.c      **** }
 723              		.loc 1 139 0
 724 0004 0B0C     		lsrs	r3, r1, #16
 725 0006 040C     		lsrs	r4, r0, #16
 726 0008 89B2     		uxth	r1, r1
 727 000a 80B2     		uxth	r0, r0
 728 000c 0092     		str	r2, [sp]
 729 000e 2200     		movs	r2, r4
 730              	.LVL73:
 731 0010 FFF7FEFF 		bl	DrawRectangle
 732              	.LVL74:
 140:lib/UI.c      **** 
 733              		.loc 1 140 0
 734 0014 04B0     		add	sp, sp, #16
 735              		@ sp needed
 736 0016 10BD     		pop	{r4, pc}
 737              		.cfi_endproc
 738              	.LFE71:
 739              		.size	DrawRect, .-DrawRect
 740              		.section	.text.DrawImage,"ax",%progbits
 741              		.align	2
ARM GAS  C:\Users\luvsd\AppData\Local\Temp\cc6I0wR6.s 			page 17


 742              		.global	DrawImage
 743              		.code	16
 744              		.thumb_func
 745              		.type	DrawImage, %function
 746              	DrawImage:
 747              	.LFB73:
 152:lib/UI.c      **** 
 153:lib/UI.c      **** void DrawImage(uint16 xPos, uint16 yPos, uint16 width, uint16 height, uint16 *image)
 154:lib/UI.c      **** {
 748              		.loc 1 154 0
 749              		.cfi_startproc
 750              		@ args = 4, pretend = 0, frame = 16
 751              		@ frame_needed = 0, uses_anonymous_args = 0
 752              	.LVL75:
 753 0000 F0B5     		push	{r4, r5, r6, r7, lr}
 754              		.cfi_def_cfa_offset 20
 755              		.cfi_offset 4, -20
 756              		.cfi_offset 5, -16
 757              		.cfi_offset 6, -12
 758              		.cfi_offset 7, -8
 759              		.cfi_offset 14, -4
 760 0002 5F46     		mov	r7, fp
 761 0004 5646     		mov	r6, r10
 762 0006 4D46     		mov	r5, r9
 763 0008 4446     		mov	r4, r8
 764 000a F0B4     		push	{r4, r5, r6, r7}
 765              		.cfi_def_cfa_offset 36
 766              		.cfi_offset 8, -36
 767              		.cfi_offset 9, -32
 768              		.cfi_offset 10, -28
 769              		.cfi_offset 11, -24
 770 000c 87B0     		sub	sp, sp, #28
 771              		.cfi_def_cfa_offset 64
 772 000e 0390     		str	r0, [sp, #12]
 773 0010 8A46     		mov	r10, r1
 774 0012 1700     		movs	r7, r2
 775 0014 9B46     		mov	fp, r3
 776 0016 109B     		ldr	r3, [sp, #64]
 777              	.LVL76:
 778 0018 9846     		mov	r8, r3
 779              	.LVL77:
 155:lib/UI.c      ****     uint32_t index = 0, i = 0, j=0;
 156:lib/UI.c      ****  
 157:lib/UI.c      ****     ST7789V_setaddress_MapScreenCoordinate(xPos, yPos, xPos+width-1, yPos);
 780              		.loc 1 157 0
 781 001a 8318     		adds	r3, r0, r2
 782 001c 013B     		subs	r3, r3, #1
 783 001e 9BB2     		uxth	r3, r3
 784 0020 0293     		str	r3, [sp, #8]
 785 0022 0A00     		movs	r2, r1
 786              	.LVL78:
 787 0024 0091     		str	r1, [sp]
 788 0026 0100     		movs	r1, r0
 789              	.LVL79:
 790 0028 04A8     		add	r0, sp, #16
 791              	.LVL80:
 792 002a FFF7FEFF 		bl	ST7789V_setaddress_MapScreenCoordinate
ARM GAS  C:\Users\luvsd\AppData\Local\Temp\cc6I0wR6.s 			page 18


 793              	.LVL81:
 155:lib/UI.c      ****     uint32_t index = 0, i = 0, j=0;
 794              		.loc 1 155 0
 795 002e 0024     		movs	r4, #0
 158:lib/UI.c      ****     
 159:lib/UI.c      ****     for( index = 0; index < height  ; index++)
 796              		.loc 1 159 0
 797 0030 0023     		movs	r3, #0
 798 0032 9946     		mov	r9, r3
 799 0034 18E0     		b	.L45
 800              	.LVL82:
 801              	.L46:
 160:lib/UI.c      ****     {
 161:lib/UI.c      ****         for(i = 0; i < width ; i++)
 162:lib/UI.c      ****         {
 163:lib/UI.c      ****             ST7789V_pushcolour(image[j++]);
 802              		.loc 1 163 0 discriminator 3
 803 0036 661C     		adds	r6, r4, #1
 804              	.LVL83:
 805 0038 6400     		lsls	r4, r4, #1
 806 003a 4346     		mov	r3, r8
 807 003c 185B     		ldrh	r0, [r3, r4]
 808 003e FFF7FEFF 		bl	ST7789V_pushcolour
 809              	.LVL84:
 161:lib/UI.c      ****         {
 810              		.loc 1 161 0 discriminator 3
 811 0042 0135     		adds	r5, r5, #1
 812              	.LVL85:
 813              		.loc 1 163 0 discriminator 3
 814 0044 3400     		movs	r4, r6
 815 0046 00E0     		b	.L47
 816              	.LVL86:
 817              	.L48:
 818 0048 0025     		movs	r5, #0
 819              	.L47:
 820              	.LVL87:
 161:lib/UI.c      ****         {
 821              		.loc 1 161 0 discriminator 1
 822 004a BD42     		cmp	r5, r7
 823 004c F3D3     		bcc	.L46
 164:lib/UI.c      ****         }
 165:lib/UI.c      ****         ST7789V_setaddress_MapScreenCoordinate(xPos, yPos+index+1, xPos+width-1, yPos+index+1);    
 824              		.loc 1 165 0 discriminator 2
 825 004e 5246     		mov	r2, r10
 826 0050 4A44     		add	r2, r2, r9
 827 0052 0132     		adds	r2, r2, #1
 828 0054 92B2     		uxth	r2, r2
 829 0056 0092     		str	r2, [sp]
 830 0058 029B     		ldr	r3, [sp, #8]
 831 005a 0399     		ldr	r1, [sp, #12]
 832 005c 04A8     		add	r0, sp, #16
 833 005e FFF7FEFF 		bl	ST7789V_setaddress_MapScreenCoordinate
 834              	.LVL88:
 159:lib/UI.c      ****     {
 835              		.loc 1 159 0 discriminator 2
 836 0062 0123     		movs	r3, #1
 837 0064 9C46     		mov	ip, r3
ARM GAS  C:\Users\luvsd\AppData\Local\Temp\cc6I0wR6.s 			page 19


 838 0066 E144     		add	r9, r9, ip
 839              	.LVL89:
 840              	.L45:
 159:lib/UI.c      ****     {
 841              		.loc 1 159 0 is_stmt 0 discriminator 1
 842 0068 D945     		cmp	r9, fp
 843 006a EDD3     		bcc	.L48
 166:lib/UI.c      ****     }    
 167:lib/UI.c      **** }
 844              		.loc 1 167 0 is_stmt 1
 845 006c 07B0     		add	sp, sp, #28
 846              		@ sp needed
 847              	.LVL90:
 848              	.LVL91:
 849 006e 3CBC     		pop	{r2, r3, r4, r5}
 850 0070 9046     		mov	r8, r2
 851 0072 9946     		mov	r9, r3
 852 0074 A246     		mov	r10, r4
 853 0076 AB46     		mov	fp, r5
 854 0078 F0BD     		pop	{r4, r5, r6, r7, pc}
 855              		.cfi_endproc
 856              	.LFE73:
 857              		.size	DrawImage, .-DrawImage
 858 007a C046     		.section	.text.DrawImageBackColorReplace,"ax",%progbits
 859              		.align	2
 860              		.global	DrawImageBackColorReplace
 861              		.code	16
 862              		.thumb_func
 863              		.type	DrawImageBackColorReplace, %function
 864              	DrawImageBackColorReplace:
 865              	.LFB74:
 168:lib/UI.c      **** 
 169:lib/UI.c      **** void DrawImageBackColorReplace(uint16 xPos, uint16 yPos, uint16 width, uint16 height, uint16 *image
 170:lib/UI.c      **** {
 866              		.loc 1 170 0
 867              		.cfi_startproc
 868              		@ args = 8, pretend = 0, frame = 24
 869              		@ frame_needed = 0, uses_anonymous_args = 0
 870              	.LVL92:
 871 0000 F0B5     		push	{r4, r5, r6, r7, lr}
 872              		.cfi_def_cfa_offset 20
 873              		.cfi_offset 4, -20
 874              		.cfi_offset 5, -16
 875              		.cfi_offset 6, -12
 876              		.cfi_offset 7, -8
 877              		.cfi_offset 14, -4
 878 0002 5F46     		mov	r7, fp
 879 0004 5646     		mov	r6, r10
 880 0006 4D46     		mov	r5, r9
 881 0008 4446     		mov	r4, r8
 882 000a F0B4     		push	{r4, r5, r6, r7}
 883              		.cfi_def_cfa_offset 36
 884              		.cfi_offset 8, -36
 885              		.cfi_offset 9, -32
 886              		.cfi_offset 10, -28
 887              		.cfi_offset 11, -24
 888 000c 89B0     		sub	sp, sp, #36
ARM GAS  C:\Users\luvsd\AppData\Local\Temp\cc6I0wR6.s 			page 20


 889              		.cfi_def_cfa_offset 72
 890 000e 0590     		str	r0, [sp, #20]
 891 0010 8A46     		mov	r10, r1
 892 0012 1700     		movs	r7, r2
 893 0014 9B46     		mov	fp, r3
 894 0016 12AB     		add	r3, sp, #72
 895              	.LVL93:
 896 0018 04CB     		ldmia	r3!, {r2}
 897              	.LVL94:
 898 001a 9046     		mov	r8, r2
 899 001c 1B88     		ldrh	r3, [r3]
 900              	.LVL95:
 901 001e 0393     		str	r3, [sp, #12]
 902              	.LVL96:
 171:lib/UI.c      ****     uint32_t index = 0, i = 0, j=0;
 172:lib/UI.c      ****  
 173:lib/UI.c      ****     ST7789V_setaddress_MapScreenCoordinate(xPos, yPos, xPos+width-1, yPos);
 903              		.loc 1 173 0
 904 0020 C319     		adds	r3, r0, r7
 905 0022 013B     		subs	r3, r3, #1
 906 0024 9BB2     		uxth	r3, r3
 907 0026 0493     		str	r3, [sp, #16]
 908 0028 0A00     		movs	r2, r1
 909 002a 0091     		str	r1, [sp]
 910 002c 0100     		movs	r1, r0
 911              	.LVL97:
 912 002e 06A8     		add	r0, sp, #24
 913              	.LVL98:
 914 0030 FFF7FEFF 		bl	ST7789V_setaddress_MapScreenCoordinate
 915              	.LVL99:
 171:lib/UI.c      ****     uint32_t index = 0, i = 0, j=0;
 916              		.loc 1 171 0
 917 0034 0024     		movs	r4, #0
 174:lib/UI.c      ****     
 175:lib/UI.c      ****     for( index = 0; index < height  ; index++)
 918              		.loc 1 175 0
 919 0036 0023     		movs	r3, #0
 920 0038 9946     		mov	r9, r3
 921 003a 1BE0     		b	.L50
 922              	.LVL100:
 923              	.L52:
 924              	.LBB6:
 176:lib/UI.c      ****     {
 177:lib/UI.c      ****         for(i = 0; i < width ; i++)
 178:lib/UI.c      ****         {
 179:lib/UI.c      ****             uint16 c = image[j++];
 925              		.loc 1 179 0
 926 003c 661C     		adds	r6, r4, #1
 927              	.LVL101:
 928 003e 6400     		lsls	r4, r4, #1
 929 0040 4346     		mov	r3, r8
 930 0042 185B     		ldrh	r0, [r3, r4]
 931              	.LVL102:
 180:lib/UI.c      ****             
 181:lib/UI.c      ****             if(c == 0) c = blackReplaceColor;
 932              		.loc 1 181 0
 933 0044 0028     		cmp	r0, #0
ARM GAS  C:\Users\luvsd\AppData\Local\Temp\cc6I0wR6.s 			page 21


 934 0046 00D1     		bne	.L51
 935 0048 0398     		ldr	r0, [sp, #12]
 936              	.LVL103:
 937              	.L51:
 182:lib/UI.c      ****             ST7789V_pushcolour(c);
 938              		.loc 1 182 0 discriminator 2
 939 004a FFF7FEFF 		bl	ST7789V_pushcolour
 940              	.LVL104:
 941              	.LBE6:
 177:lib/UI.c      ****         {
 942              		.loc 1 177 0 discriminator 2
 943 004e 0135     		adds	r5, r5, #1
 944              	.LVL105:
 945              	.LBB7:
 179:lib/UI.c      ****             
 946              		.loc 1 179 0 discriminator 2
 947 0050 3400     		movs	r4, r6
 948 0052 00E0     		b	.L53
 949              	.LVL106:
 950              	.L55:
 951              	.LBE7:
 952 0054 0025     		movs	r5, #0
 953              	.L53:
 954              	.LVL107:
 177:lib/UI.c      ****         {
 955              		.loc 1 177 0 discriminator 1
 956 0056 BD42     		cmp	r5, r7
 957 0058 F0D3     		bcc	.L52
 183:lib/UI.c      ****         }
 184:lib/UI.c      ****         ST7789V_setaddress_MapScreenCoordinate(xPos, yPos+index+1, xPos+width-1, yPos+index+1);    
 958              		.loc 1 184 0 discriminator 2
 959 005a 5246     		mov	r2, r10
 960 005c 4A44     		add	r2, r2, r9
 961 005e 0132     		adds	r2, r2, #1
 962 0060 92B2     		uxth	r2, r2
 963 0062 0092     		str	r2, [sp]
 964 0064 049B     		ldr	r3, [sp, #16]
 965 0066 0599     		ldr	r1, [sp, #20]
 966 0068 06A8     		add	r0, sp, #24
 967 006a FFF7FEFF 		bl	ST7789V_setaddress_MapScreenCoordinate
 968              	.LVL108:
 175:lib/UI.c      ****     {
 969              		.loc 1 175 0 discriminator 2
 970 006e 0123     		movs	r3, #1
 971 0070 9C46     		mov	ip, r3
 972 0072 E144     		add	r9, r9, ip
 973              	.LVL109:
 974              	.L50:
 175:lib/UI.c      ****     {
 975              		.loc 1 175 0 is_stmt 0 discriminator 1
 976 0074 D945     		cmp	r9, fp
 977 0076 EDD3     		bcc	.L55
 185:lib/UI.c      ****     }    
 186:lib/UI.c      **** }
 978              		.loc 1 186 0 is_stmt 1
 979 0078 09B0     		add	sp, sp, #36
 980              		@ sp needed
ARM GAS  C:\Users\luvsd\AppData\Local\Temp\cc6I0wR6.s 			page 22


 981              	.LVL110:
 982              	.LVL111:
 983 007a 3CBC     		pop	{r2, r3, r4, r5}
 984 007c 9046     		mov	r8, r2
 985 007e 9946     		mov	r9, r3
 986 0080 A246     		mov	r10, r4
 987 0082 AB46     		mov	fp, r5
 988 0084 F0BD     		pop	{r4, r5, r6, r7, pc}
 989              		.cfi_endproc
 990              	.LFE74:
 991              		.size	DrawImageBackColorReplace, .-DrawImageBackColorReplace
 992              		.global	__aeabi_i2d
 993              		.global	__aeabi_dmul
 994              		.global	__aeabi_d2f
 995              		.global	__aeabi_f2uiz
 996              		.global	__aeabi_ui2f
 997              		.global	__aeabi_fcmpeq
 998 0086 C046     		.section	.text.LCD_DrawFont,"ax",%progbits
 999              		.align	2
 1000              		.global	LCD_DrawFont
 1001              		.code	16
 1002              		.thumb_func
 1003              		.type	LCD_DrawFont, %function
 1004              	LCD_DrawFont:
 1005              	.LFB75:
 187:lib/UI.c      **** 
 188:lib/UI.c      **** void LCD_DrawFont(uint16 xPos, uint16 yPos, uint16 foregroundColor, uint16 backgroundColor, fontdat
 189:lib/UI.c      **** {
 1006              		.loc 1 189 0
 1007              		.cfi_startproc
 1008              		@ args = 8, pretend = 0, frame = 32
 1009              		@ frame_needed = 0, uses_anonymous_args = 0
 1010              	.LVL112:
 1011 0000 F0B5     		push	{r4, r5, r6, r7, lr}
 1012              		.cfi_def_cfa_offset 20
 1013              		.cfi_offset 4, -20
 1014              		.cfi_offset 5, -16
 1015              		.cfi_offset 6, -12
 1016              		.cfi_offset 7, -8
 1017              		.cfi_offset 14, -4
 1018 0002 5F46     		mov	r7, fp
 1019 0004 5646     		mov	r6, r10
 1020 0006 4D46     		mov	r5, r9
 1021 0008 4446     		mov	r4, r8
 1022 000a F0B4     		push	{r4, r5, r6, r7}
 1023              		.cfi_def_cfa_offset 36
 1024              		.cfi_offset 8, -36
 1025              		.cfi_offset 9, -32
 1026              		.cfi_offset 10, -28
 1027              		.cfi_offset 11, -24
 1028 000c 8BB0     		sub	sp, sp, #44
 1029              		.cfi_def_cfa_offset 80
 1030 000e 0690     		str	r0, [sp, #24]
 1031 0010 0791     		str	r1, [sp, #28]
 1032 0012 0292     		str	r2, [sp, #8]
 1033 0014 0393     		str	r3, [sp, #12]
 1034 0016 14AB     		add	r3, sp, #80
ARM GAS  C:\Users\luvsd\AppData\Local\Temp\cc6I0wR6.s 			page 23


 1035              	.LVL113:
 1036 0018 04CB     		ldmia	r3!, {r2}
 1037              	.LVL114:
 1038 001a 9246     		mov	r10, r2
 1039 001c 1D78     		ldrb	r5, [r3]
 190:lib/UI.c      ****     uint16 width = font[0];
 1040              		.loc 1 190 0
 1041 001e 1078     		ldrb	r0, [r2]
 1042              	.LVL115:
 1043 0020 83B2     		uxth	r3, r0
 1044              	.LVL116:
 1045 0022 0593     		str	r3, [sp, #20]
 1046              	.LVL117:
 191:lib/UI.c      ****     uint16 height = font[1];
 1047              		.loc 1 191 0
 1048 0024 5378     		ldrb	r3, [r2, #1]
 1049 0026 0493     		str	r3, [sp, #16]
 1050              	.LVL118:
 192:lib/UI.c      ****     uint16 ascii_start = font[2];
 1051              		.loc 1 192 0
 1052 0028 9678     		ldrb	r6, [r2, #2]
 1053              	.LVL119:
 193:lib/UI.c      ****     uint16 noFont = font[3];
 194:lib/UI.c      **** 
 195:lib/UI.c      ****     float n = width / 8.0;
 1054              		.loc 1 195 0
 1055 002a 0700     		movs	r7, r0
 1056 002c FFF7FEFF 		bl	__aeabi_i2d
 1057              	.LVL120:
 1058 0030 0022     		movs	r2, #0
 1059 0032 FF23     		movs	r3, #255
 1060 0034 9B05     		lsls	r3, r3, #22
 1061 0036 FFF7FEFF 		bl	__aeabi_dmul
 1062              	.LVL121:
 1063 003a FFF7FEFF 		bl	__aeabi_d2f
 1064              	.LVL122:
 1065 003e 041C     		adds	r4, r0, #0
 1066              	.LVL123:
 196:lib/UI.c      ****     uint16 r = (uint16) n;
 1067              		.loc 1 196 0
 1068 0040 FFF7FEFF 		bl	__aeabi_f2uiz
 1069              	.LVL124:
 1070 0044 83B2     		uxth	r3, r0
 1071 0046 9946     		mov	r9, r3
 1072              	.LVL125:
 197:lib/UI.c      ****     if(n != (float) r) r++;
 1073              		.loc 1 197 0
 1074 0048 1800     		movs	r0, r3
 1075 004a FFF7FEFF 		bl	__aeabi_ui2f
 1076              	.LVL126:
 1077 004e 011C     		adds	r1, r0, #0
 1078 0050 201C     		adds	r0, r4, #0
 1079 0052 FFF7FEFF 		bl	__aeabi_fcmpeq
 1080              	.LVL127:
 1081 0056 0028     		cmp	r0, #0
 1082 0058 03D1     		bne	.L57
 1083              		.loc 1 197 0 is_stmt 0 discriminator 1
ARM GAS  C:\Users\luvsd\AppData\Local\Temp\cc6I0wR6.s 			page 24


 1084 005a 4846     		mov	r0, r9
 1085 005c 0130     		adds	r0, r0, #1
 1086 005e 83B2     		uxth	r3, r0
 1087 0060 9946     		mov	r9, r3
 1088              	.LVL128:
 1089              	.L57:
 198:lib/UI.c      **** 
 199:lib/UI.c      ****     uint16 DataSize = r * height;  /* bytes/char = ceil(width/8) * height ŌĆö non-8-aligned ĒÅ░ĒŖĖ 
 1090              		.loc 1 199 0 is_stmt 1
 1091 0062 049B     		ldr	r3, [sp, #16]
 1092 0064 4A46     		mov	r2, r9
 1093 0066 5343     		muls	r3, r2
 1094 0068 9BB2     		uxth	r3, r3
 1095              	.LVL129:
 200:lib/UI.c      ****     uint32 p = DataSize * (st-ascii_start) + 4;
 1096              		.loc 1 200 0
 1097 006a AD1B     		subs	r5, r5, r6
 1098 006c 5D43     		muls	r5, r3
 1099 006e 2B1D     		adds	r3, r5, #4
 1100              	.LVL130:
 1101 0070 9846     		mov	r8, r3
 1102              	.LVL131:
 1103              	.LBB8:
 201:lib/UI.c      ****     
 202:lib/UI.c      **** //  printf("width  = %d \r\n",width);
 203:lib/UI.c      **** //  printf("height = %d \r\n",height);
 204:lib/UI.c      **** //  printf("start  = %c \r\n",ascii_start);
 205:lib/UI.c      **** //  printf("No     = %d \r\n",noFont);
 206:lib/UI.c      **** 
 207:lib/UI.c      ****     for(uint16 index = 0; index < height  ; index++)
 1104              		.loc 1 207 0
 1105 0072 0023     		movs	r3, #0
 1106              	.LVL132:
 1107 0074 9B46     		mov	fp, r3
 1108 0076 2FE0     		b	.L59
 1109              	.LVL133:
 1110              	.L67:
 1111              	.LBB9:
 208:lib/UI.c      ****     {
 209:lib/UI.c      ****         uint16 y = yPos+index;
 1112              		.loc 1 209 0
 1113 0078 079B     		ldr	r3, [sp, #28]
 1114 007a 5B44     		add	r3, r3, fp
 1115 007c 9AB2     		uxth	r2, r3
 1116              	.LVL134:
 210:lib/UI.c      ****            
 211:lib/UI.c      ****         ST7789V_setaddress_MapScreenCoordinate(xPos, y, xPos+width-1, y);   
 1117              		.loc 1 211 0
 1118 007e 059B     		ldr	r3, [sp, #20]
 1119 0080 0699     		ldr	r1, [sp, #24]
 1120 0082 8C46     		mov	ip, r1
 1121 0084 6344     		add	r3, r3, ip
 1122 0086 013B     		subs	r3, r3, #1
 1123 0088 9BB2     		uxth	r3, r3
 1124 008a 0092     		str	r2, [sp]
 1125 008c 08A8     		add	r0, sp, #32
 1126 008e FFF7FEFF 		bl	ST7789V_setaddress_MapScreenCoordinate
ARM GAS  C:\Users\luvsd\AppData\Local\Temp\cc6I0wR6.s 			page 25


 1127              	.LVL135:
 1128              	.LBB10:
 212:lib/UI.c      **** 
 213:lib/UI.c      ****         for(int j=0; j < r; j++)
 1129              		.loc 1 213 0
 1130 0092 0025     		movs	r5, #0
 1131 0094 1AE0     		b	.L60
 1132              	.LVL136:
 1133              	.L66:
 1134              	.LBB11:
 214:lib/UI.c      ****         {
 215:lib/UI.c      ****              uint8 data = font[p];
 1135              		.loc 1 215 0
 1136 0096 5346     		mov	r3, r10
 1137 0098 4246     		mov	r2, r8
 1138 009a 9E5C     		ldrb	r6, [r3, r2]
 1139              	.LVL137:
 1140              	.LBB12:
 216:lib/UI.c      **** 
 217:lib/UI.c      ****             for(int i = 0; i < 8; i++)
 1141              		.loc 1 217 0
 1142 009c 0024     		movs	r4, #0
 1143 009e 0FE0     		b	.L61
 1144              	.LVL138:
 1145              	.L65:
 218:lib/UI.c      ****             {
 219:lib/UI.c      ****                 if(j * 8 + i >= width) break;  /* Ēī©ļö® ļ╣äĒŖĖ ņĀ£ņÖĖ (non-8-aligned ĒÅ░ĒŖĖ ņ¦ĆņøÉ
 1146              		.loc 1 219 0
 1147 00a0 EB00     		lsls	r3, r5, #3
 1148 00a2 E318     		adds	r3, r4, r3
 1149 00a4 9F42     		cmp	r7, r3
 1150 00a6 0DDD     		ble	.L62
 220:lib/UI.c      ****                 if((data  & (0x80 >> i)) == 0)
 1151              		.loc 1 220 0
 1152 00a8 8023     		movs	r3, #128
 1153 00aa 2341     		asrs	r3, r3, r4
 1154 00ac 3342     		tst	r3, r6
 1155 00ae 03D1     		bne	.L63
 221:lib/UI.c      ****                 {
 222:lib/UI.c      ****                     ST7789V_pushcolour(backgroundColor);
 1156              		.loc 1 222 0
 1157 00b0 0398     		ldr	r0, [sp, #12]
 1158 00b2 FFF7FEFF 		bl	ST7789V_pushcolour
 1159              	.LVL139:
 1160 00b6 02E0     		b	.L64
 1161              	.L63:
 223:lib/UI.c      ****                 }else{
 224:lib/UI.c      ****                     ST7789V_pushcolour(foregroundColor);
 1162              		.loc 1 224 0
 1163 00b8 0298     		ldr	r0, [sp, #8]
 1164 00ba FFF7FEFF 		bl	ST7789V_pushcolour
 1165              	.LVL140:
 1166              	.L64:
 217:lib/UI.c      ****             {
 1167              		.loc 1 217 0 discriminator 2
 1168 00be 0134     		adds	r4, r4, #1
 1169              	.LVL141:
ARM GAS  C:\Users\luvsd\AppData\Local\Temp\cc6I0wR6.s 			page 26


 1170              	.L61:
 217:lib/UI.c      ****             {
 1171              		.loc 1 217 0 is_stmt 0 discriminator 1
 1172 00c0 072C     		cmp	r4, #7
 1173 00c2 EDDD     		ble	.L65
 1174              	.L62:
 1175              	.LBE12:
 225:lib/UI.c      ****                 }
 226:lib/UI.c      ****             }
 227:lib/UI.c      ****             p++;
 1176              		.loc 1 227 0 is_stmt 1 discriminator 2
 1177 00c4 0123     		movs	r3, #1
 1178 00c6 9C46     		mov	ip, r3
 1179 00c8 E044     		add	r8, r8, ip
 1180              	.LVL142:
 1181              	.LBE11:
 213:lib/UI.c      ****         {
 1182              		.loc 1 213 0 discriminator 2
 1183 00ca 0135     		adds	r5, r5, #1
 1184              	.LVL143:
 1185              	.L60:
 213:lib/UI.c      ****         {
 1186              		.loc 1 213 0 is_stmt 0 discriminator 1
 1187 00cc 4D45     		cmp	r5, r9
 1188 00ce E2DB     		blt	.L66
 1189              	.LBE10:
 1190              	.LBE9:
 207:lib/UI.c      ****     {
 1191              		.loc 1 207 0 is_stmt 1 discriminator 2
 1192 00d0 5B46     		mov	r3, fp
 1193 00d2 0133     		adds	r3, r3, #1
 1194 00d4 9BB2     		uxth	r3, r3
 1195 00d6 9B46     		mov	fp, r3
 1196              	.LVL144:
 1197              	.L59:
 207:lib/UI.c      ****     {
 1198              		.loc 1 207 0 is_stmt 0 discriminator 1
 1199 00d8 049B     		ldr	r3, [sp, #16]
 1200 00da 9B45     		cmp	fp, r3
 1201 00dc CCD3     		bcc	.L67
 1202              	.LBE8:
 228:lib/UI.c      ****         }        
 229:lib/UI.c      ****     }
 230:lib/UI.c      **** }
 1203              		.loc 1 230 0 is_stmt 1
 1204 00de 0BB0     		add	sp, sp, #44
 1205              		@ sp needed
 1206              	.LVL145:
 1207              	.LVL146:
 1208              	.LVL147:
 1209 00e0 3CBC     		pop	{r2, r3, r4, r5}
 1210 00e2 9046     		mov	r8, r2
 1211 00e4 9946     		mov	r9, r3
 1212 00e6 A246     		mov	r10, r4
 1213 00e8 AB46     		mov	fp, r5
 1214 00ea F0BD     		pop	{r4, r5, r6, r7, pc}
 1215              		.cfi_endproc
ARM GAS  C:\Users\luvsd\AppData\Local\Temp\cc6I0wR6.s 			page 27


 1216              	.LFE75:
 1217              		.size	LCD_DrawFont, .-LCD_DrawFont
 1218              		.section	.text.LCD_printf,"ax",%progbits
 1219              		.align	2
 1220              		.global	LCD_printf
 1221              		.code	16
 1222              		.thumb_func
 1223              		.type	LCD_printf, %function
 1224              	LCD_printf:
 1225              	.LFB76:
 231:lib/UI.c      **** 
 232:lib/UI.c      **** void LCD_printf(uint16 xPos, uint16 yPos, uint16 foregroundColor, uint16 backgroundColor, fontdatat
 233:lib/UI.c      **** {
 1226              		.loc 1 233 0
 1227              		.cfi_startproc
 1228              		@ args = 8, pretend = 0, frame = 152
 1229              		@ frame_needed = 0, uses_anonymous_args = 1
 1230              	.LVL148:
 1231 0000 F0B5     		push	{r4, r5, r6, r7, lr}
 1232              		.cfi_def_cfa_offset 20
 1233              		.cfi_offset 4, -20
 1234              		.cfi_offset 5, -16
 1235              		.cfi_offset 6, -12
 1236              		.cfi_offset 7, -8
 1237              		.cfi_offset 14, -4
 1238 0002 5F46     		mov	r7, fp
 1239 0004 80B4     		push	{r7}
 1240              		.cfi_def_cfa_offset 24
 1241              		.cfi_offset 11, -24
 1242 0006 A8B0     		sub	sp, sp, #160
 1243              		.cfi_def_cfa_offset 184
 1244 0008 8346     		mov	fp, r0
 1245 000a 0391     		str	r1, [sp, #12]
 1246 000c 0492     		str	r2, [sp, #16]
 1247 000e 0593     		str	r3, [sp, #20]
 1248 0010 2E9F     		ldr	r7, [sp, #184]
 234:lib/UI.c      ****     va_list ap;
 235:lib/UI.c      ****     char buff[128];
 236:lib/UI.c      ****     
 237:lib/UI.c      ****     va_start(ap, fmt);
 1249              		.loc 1 237 0
 1250 0012 30AA     		add	r2, sp, #192
 1251              	.LVL149:
 1252 0014 2792     		str	r2, [sp, #156]
 238:lib/UI.c      **** 
 239:lib/UI.c      ****     vsprintf(buff, fmt, ap);
 1253              		.loc 1 239 0
 1254 0016 2F99     		ldr	r1, [sp, #188]
 1255              	.LVL150:
 1256 0018 07A8     		add	r0, sp, #28
 1257              	.LVL151:
 1258 001a FFF7FEFF 		bl	vsprintf
 1259              	.LVL152:
 240:lib/UI.c      ****     va_end(ap);
 241:lib/UI.c      ****         
 242:lib/UI.c      ****     uint16 xInterval = font[FONT_WIDTH];
 1260              		.loc 1 242 0
ARM GAS  C:\Users\luvsd\AppData\Local\Temp\cc6I0wR6.s 			page 28


 1261 001e 3E78     		ldrb	r6, [r7]
 1262              	.LVL153:
 243:lib/UI.c      ****     uint16 nLength = strlen(buff);
 1263              		.loc 1 243 0
 1264 0020 07A8     		add	r0, sp, #28
 1265 0022 FFF7FEFF 		bl	strlen
 1266              	.LVL154:
 1267 0026 85B2     		uxth	r5, r0
 1268              	.LVL155:
 1269              	.LBB13:
 244:lib/UI.c      **** 
 245:lib/UI.c      ****     for(uint16 i=0; i < nLength; i++)
 1270              		.loc 1 245 0
 1271 0028 0024     		movs	r4, #0
 1272 002a 0EE0     		b	.L70
 1273              	.LVL156:
 1274              	.L71:
 246:lib/UI.c      ****     {
 247:lib/UI.c      ****         LCD_DrawFont(xPos + xInterval * i, yPos, foregroundColor, backgroundColor, font, buff[i]);
 1275              		.loc 1 247 0 discriminator 3
 1276 002c 3000     		movs	r0, r6
 1277 002e 6043     		muls	r0, r4
 1278 0030 5844     		add	r0, r0, fp
 1279 0032 80B2     		uxth	r0, r0
 1280 0034 07AB     		add	r3, sp, #28
 1281 0036 1B5D     		ldrb	r3, [r3, r4]
 1282 0038 0193     		str	r3, [sp, #4]
 1283 003a 0097     		str	r7, [sp]
 1284 003c 059B     		ldr	r3, [sp, #20]
 1285 003e 049A     		ldr	r2, [sp, #16]
 1286 0040 0399     		ldr	r1, [sp, #12]
 1287 0042 FFF7FEFF 		bl	LCD_DrawFont
 1288              	.LVL157:
 245:lib/UI.c      ****     {
 1289              		.loc 1 245 0 discriminator 3
 1290 0046 0134     		adds	r4, r4, #1
 1291              	.LVL158:
 1292 0048 A4B2     		uxth	r4, r4
 1293              	.LVL159:
 1294              	.L70:
 245:lib/UI.c      ****     {
 1295              		.loc 1 245 0 is_stmt 0 discriminator 1
 1296 004a AC42     		cmp	r4, r5
 1297 004c EED3     		bcc	.L71
 1298              	.LBE13:
 248:lib/UI.c      ****     }     
 249:lib/UI.c      **** }
 1299              		.loc 1 249 0 is_stmt 1
 1300 004e 28B0     		add	sp, sp, #160
 1301              		@ sp needed
 1302              	.LVL160:
 1303              	.LVL161:
 1304              	.LVL162:
 1305 0050 04BC     		pop	{r2}
 1306 0052 9346     		mov	fp, r2
 1307 0054 F0BD     		pop	{r4, r5, r6, r7, pc}
 1308              		.cfi_endproc
ARM GAS  C:\Users\luvsd\AppData\Local\Temp\cc6I0wR6.s 			page 29


 1309              	.LFE76:
 1310              		.size	LCD_printf, .-LCD_printf
 1311              		.global	__aeabi_d2uiz
 1312 0056 C046     		.section	.text.CalculationOfLocationForString,"ax",%progbits
 1313              		.align	2
 1314              		.global	CalculationOfLocationForString
 1315              		.code	16
 1316              		.thumb_func
 1317              		.type	CalculationOfLocationForString, %function
 1318              	CalculationOfLocationForString:
 1319              	.LFB77:
 250:lib/UI.c      **** 
 251:lib/UI.c      **** POINT CalculationOfLocationForString(RECT boundingBox, uint16 font_width, uint16 font_height, uint1
 252:lib/UI.c      **** {
 1320              		.loc 1 252 0
 1321              		.cfi_startproc
 1322              		@ args = 20, pretend = 0, frame = 16
 1323              		@ frame_needed = 0, uses_anonymous_args = 0
 1324              	.LVL163:
 1325 0000 70B5     		push	{r4, r5, r6, lr}
 1326              		.cfi_def_cfa_offset 16
 1327              		.cfi_offset 4, -16
 1328              		.cfi_offset 5, -12
 1329              		.cfi_offset 6, -8
 1330              		.cfi_offset 14, -4
 1331 0002 84B0     		sub	sp, sp, #16
 1332              		.cfi_def_cfa_offset 32
 1333 0004 0090     		str	r0, [sp]
 1334 0006 0191     		str	r1, [sp, #4]
 1335 0008 1D00     		movs	r5, r3
 1336 000a 08AB     		add	r3, sp, #32
 1337              	.LVL164:
 1338 000c 1888     		ldrh	r0, [r3]
 1339 000e 09AB     		add	r3, sp, #36
 1340              	.LVL165:
 1341 0010 1E88     		ldrh	r6, [r3]
 1342 0012 0AAB     		add	r3, sp, #40
 1343              	.LVL166:
 1344 0014 1988     		ldrh	r1, [r3]
 1345 0016 0BAB     		add	r3, sp, #44
 1346              	.LVL167:
 1347 0018 1B78     		ldrb	r3, [r3]
 1348              	.LVL168:
 1349 001a 0CAC     		add	r4, sp, #48
 1350              	.LVL169:
 1351 001c 2478     		ldrb	r4, [r4]
 1352              	.LVL170:
 253:lib/UI.c      ****     POINT startPos;
 254:lib/UI.c      ****     switch(horizontalAlign)
 1353              		.loc 1 254 0
 1354 001e 012B     		cmp	r3, #1
 1355 0020 04D0     		beq	.L74
 1356 0022 002B     		cmp	r3, #0
 1357 0024 10D0     		beq	.L75
 1358 0026 022B     		cmp	r3, #2
 1359 0028 06D0     		beq	.L76
 1360 002a 1DE0     		b	.L73
ARM GAS  C:\Users\luvsd\AppData\Local\Temp\cc6I0wR6.s 			page 30


 1361              	.L74:
 255:lib/UI.c      ****     {
 256:lib/UI.c      ****         case TEXT_ALIGN_LEFT:   startPos.x = boundingBox.left + marginLeftRight;                   
 1362              		.loc 1 256 0
 1363 002c 6B46     		mov	r3, sp
 1364 002e 1988     		ldrh	r1, [r3]
 1365 0030 0918     		adds	r1, r1, r0
 1366 0032 02AB     		add	r3, sp, #8
 1367 0034 1980     		strh	r1, [r3]
 1368 0036 17E0     		b	.L73
 1369              	.L76:
 257:lib/UI.c      ****         case TEXT_ALIGN_RIGHT:  startPos.x = boundingBox.right - font_width*strlength - marginLeftR
 1370              		.loc 1 257 0
 1371 0038 6B46     		mov	r3, sp
 1372 003a 5B88     		ldrh	r3, [r3, #2]
 1373 003c 5143     		muls	r1, r2
 1374 003e 591A     		subs	r1, r3, r1
 1375 0040 091A     		subs	r1, r1, r0
 1376 0042 02AB     		add	r3, sp, #8
 1377 0044 1980     		strh	r1, [r3]
 1378 0046 0FE0     		b	.L73
 1379              	.L75:
 258:lib/UI.c      ****         case TEXT_ALIGN_CENTER: startPos.x = ((boundingBox.right + boundingBox.left) - font_width*s
 1380              		.loc 1 258 0
 1381 0048 6B46     		mov	r3, sp
 1382 004a 5888     		ldrh	r0, [r3, #2]
 1383 004c 1B88     		ldrh	r3, [r3]
 1384 004e C018     		adds	r0, r0, r3
 1385 0050 5143     		muls	r1, r2
 1386 0052 401A     		subs	r0, r0, r1
 1387 0054 FFF7FEFF 		bl	__aeabi_i2d
 1388              	.LVL171:
 1389 0058 0022     		movs	r2, #0
 1390 005a 184B     		ldr	r3, .L81
 1391 005c FFF7FEFF 		bl	__aeabi_dmul
 1392              	.LVL172:
 1393 0060 FFF7FEFF 		bl	__aeabi_d2uiz
 1394              	.LVL173:
 1395 0064 02AB     		add	r3, sp, #8
 1396 0066 1880     		strh	r0, [r3]
 1397              	.L73:
 259:lib/UI.c      ****     }
 260:lib/UI.c      ****     switch(verticallAlign)
 1398              		.loc 1 260 0
 1399 0068 052C     		cmp	r4, #5
 1400 006a 10D0     		beq	.L78
 1401 006c 062C     		cmp	r4, #6
 1402 006e 07D0     		beq	.L79
 1403 0070 042C     		cmp	r4, #4
 1404 0072 1BD1     		bne	.L77
 261:lib/UI.c      ****     {
 262:lib/UI.c      ****         case TEXT_ALIGN_TOP:     startPos.y = boundingBox.top + marginTopBottom;                  b
 1405              		.loc 1 262 0
 1406 0074 6B46     		mov	r3, sp
 1407 0076 9D88     		ldrh	r5, [r3, #4]
 1408 0078 AE19     		adds	r6, r5, r6
 1409 007a 02AB     		add	r3, sp, #8
ARM GAS  C:\Users\luvsd\AppData\Local\Temp\cc6I0wR6.s 			page 31


 1410 007c 5E80     		strh	r6, [r3, #2]
 1411 007e 15E0     		b	.L77
 1412              	.L79:
 263:lib/UI.c      ****         case TEXT_ALIGN_BOTTOM:  startPos.y = boundingBox.bottom - font_height - marginTopBottom; b
 1413              		.loc 1 263 0
 1414 0080 6B46     		mov	r3, sp
 1415 0082 D888     		ldrh	r0, [r3, #6]
 1416 0084 451B     		subs	r5, r0, r5
 1417 0086 AE1B     		subs	r6, r5, r6
 1418 0088 02AB     		add	r3, sp, #8
 1419 008a 5E80     		strh	r6, [r3, #2]
 1420 008c 0EE0     		b	.L77
 1421              	.L78:
 264:lib/UI.c      ****         case TEXT_ALIGN_MIDDLE:  startPos.y = ((boundingBox.bottom + boundingBox.top) - font_height
 1422              		.loc 1 264 0
 1423 008e 6B46     		mov	r3, sp
 1424 0090 D888     		ldrh	r0, [r3, #6]
 1425 0092 9B88     		ldrh	r3, [r3, #4]
 1426 0094 C018     		adds	r0, r0, r3
 1427 0096 401B     		subs	r0, r0, r5
 1428 0098 FFF7FEFF 		bl	__aeabi_i2d
 1429              	.LVL174:
 1430 009c 0022     		movs	r2, #0
 1431 009e 074B     		ldr	r3, .L81
 1432 00a0 FFF7FEFF 		bl	__aeabi_dmul
 1433              	.LVL175:
 1434 00a4 FFF7FEFF 		bl	__aeabi_d2uiz
 1435              	.LVL176:
 1436 00a8 02AB     		add	r3, sp, #8
 1437 00aa 5880     		strh	r0, [r3, #2]
 1438              	.L77:
 265:lib/UI.c      ****     }
 266:lib/UI.c      ****     return startPos;
 1439              		.loc 1 266 0
 1440 00ac 029B     		ldr	r3, [sp, #8]
 1441 00ae 180C     		lsrs	r0, r3, #16
 1442 00b0 0004     		lsls	r0, r0, #16
 1443 00b2 1B04     		lsls	r3, r3, #16
 1444 00b4 1B0C     		lsrs	r3, r3, #16
 1445 00b6 1843     		orrs	r0, r3
 267:lib/UI.c      **** }
 1446              		.loc 1 267 0
 1447 00b8 04B0     		add	sp, sp, #16
 1448              		@ sp needed
 1449 00ba 70BD     		pop	{r4, r5, r6, pc}
 1450              	.L82:
 1451              		.align	2
 1452              	.L81:
 1453 00bc 0000E03F 		.word	1071644672
 1454              		.cfi_endproc
 1455              	.LFE77:
 1456              		.size	CalculationOfLocationForString, .-CalculationOfLocationForString
 1457              		.section	.text.GetTouch,"ax",%progbits
 1458              		.align	2
 1459              		.global	GetTouch
 1460              		.code	16
 1461              		.thumb_func
ARM GAS  C:\Users\luvsd\AppData\Local\Temp\cc6I0wR6.s 			page 32


 1462              		.type	GetTouch, %function
 1463              	GetTouch:
 1464              	.LFB78:
 268:lib/UI.c      **** 
 269:lib/UI.c      **** 
 270:lib/UI.c      **** TOUCH GetTouch()
 271:lib/UI.c      **** {
 1465              		.loc 1 271 0
 1466              		.cfi_startproc
 1467              		@ args = 0, pretend = 0, frame = 0
 1468              		@ frame_needed = 0, uses_anonymous_args = 0
 1469              	.LVL177:
 1470 0000 10B5     		push	{r4, lr}
 1471              		.cfi_def_cfa_offset 8
 1472              		.cfi_offset 4, -8
 1473              		.cfi_offset 14, -4
 1474 0002 0400     		movs	r4, r0
 272:lib/UI.c      ****     TOUCH touch = {
 1475              		.loc 1 272 0
 1476 0004 0023     		movs	r3, #0
 1477 0006 0380     		strh	r3, [r0]
 1478 0008 4380     		strh	r3, [r0, #2]
 1479 000a 8380     		strh	r3, [r0, #4]
 273:lib/UI.c      ****         .isClick = FALSE,
 274:lib/UI.c      ****         .point.x       = 0,
 275:lib/UI.c      ****         .point.y       = 0,
 276:lib/UI.c      ****     };
 277:lib/UI.c      ****     
 278:lib/UI.c      ****     static uint8 isUpStat = TRUE;
 279:lib/UI.c      ****     static uint8 oldRead = 0, read;
 280:lib/UI.c      **** 
 281:lib/UI.c      ****     read = ~TC_INT_Read() & 0x01;
 1480              		.loc 1 281 0
 1481 000c FFF7FEFF 		bl	TC_INT_Read
 1482              	.LVL178:
 1483 0010 0123     		movs	r3, #1
 1484 0012 5840     		eors	r0, r3
 1485 0014 0123     		movs	r3, #1
 1486 0016 1840     		ands	r0, r3
 1487 0018 194B     		ldr	r3, .L86
 1488 001a 1874     		strb	r0, [r3, #16]
 282:lib/UI.c      ****     
 283:lib/UI.c      ****     if(oldRead == 0 && read == 1)
 1489              		.loc 1 283 0
 1490 001c 5B7C     		ldrb	r3, [r3, #17]
 1491 001e 002B     		cmp	r3, #0
 1492 0020 1FD1     		bne	.L84
 1493              		.loc 1 283 0 is_stmt 0 discriminator 1
 1494 0022 0128     		cmp	r0, #1
 1495 0024 1DD1     		bne	.L84
 284:lib/UI.c      ****     {
 285:lib/UI.c      ****         resetCounter_1ms(g_index_touch_counter);
 1496              		.loc 1 285 0 is_stmt 1
 1497 0026 174B     		ldr	r3, .L86+4
 1498 0028 1878     		ldrb	r0, [r3]
 1499 002a FFF7FEFF 		bl	resetCounter_1ms
 1500              	.LVL179:
ARM GAS  C:\Users\luvsd\AppData\Local\Temp\cc6I0wR6.s 			page 33


 286:lib/UI.c      ****         //tc_no_touch_count = 100;
 287:lib/UI.c      ****         
 288:lib/UI.c      ****         if(isUpStat)
 1501              		.loc 1 288 0
 1502 002e 164B     		ldr	r3, .L86+8
 1503 0030 9B79     		ldrb	r3, [r3, #6]
 1504 0032 002B     		cmp	r3, #0
 1505 0034 1ED0     		beq	.L85
 289:lib/UI.c      ****         {
 290:lib/UI.c      ****             TouchGetPosition();
 1506              		.loc 1 290 0
 1507 0036 FFF7FEFF 		bl	TouchGetPosition
 1508              	.LVL180:
 291:lib/UI.c      ****             if(touchActive)
 1509              		.loc 1 291 0
 1510 003a 144B     		ldr	r3, .L86+12
 1511 003c 1B78     		ldrb	r3, [r3]
 1512 003e 002B     		cmp	r3, #0
 1513 0040 18D0     		beq	.L85
 292:lib/UI.c      ****             {
 293:lib/UI.c      ****                 touch.point = MapToScreenCoordinate(ParamTouch.x[0], ParamTouch.y[0]);
 1514              		.loc 1 293 0
 1515 0042 134B     		ldr	r3, .L86+16
 1516 0044 5888     		ldrh	r0, [r3, #2]
 1517 0046 9989     		ldrh	r1, [r3, #12]
 1518 0048 FFF7FEFF 		bl	MapToScreenCoordinate
 1519              	.LVL181:
 1520 004c 6080     		strh	r0, [r4, #2]
 1521 004e 000C     		lsrs	r0, r0, #16
 1522 0050 A080     		strh	r0, [r4, #4]
 294:lib/UI.c      ****                 
 295:lib/UI.c      ****                 touch.isClick = TRUE;
 1523              		.loc 1 295 0
 1524 0052 0123     		movs	r3, #1
 1525 0054 2380     		strh	r3, [r4]
 296:lib/UI.c      ****                 isUpStat = FALSE;  
 1526              		.loc 1 296 0
 1527 0056 0023     		movs	r3, #0
 1528 0058 0B4A     		ldr	r2, .L86+8
 1529 005a 9371     		strb	r3, [r2, #6]
 297:lib/UI.c      ****                 
 298:lib/UI.c      ****                 touchActive = 0;                
 1530              		.loc 1 298 0
 1531 005c 0B4A     		ldr	r2, .L86+12
 1532 005e 1370     		strb	r3, [r2]
 1533 0060 08E0     		b	.L85
 1534              	.L84:
 299:lib/UI.c      ****             }
 300:lib/UI.c      ****         }
 301:lib/UI.c      ****         
 302:lib/UI.c      ****     }
 303:lib/UI.c      ****     else
 304:lib/UI.c      ****     {
 305:lib/UI.c      ****         if(isFinishCounter_1ms(g_index_touch_counter))
 1535              		.loc 1 305 0
 1536 0062 084B     		ldr	r3, .L86+4
 1537 0064 1878     		ldrb	r0, [r3]
ARM GAS  C:\Users\luvsd\AppData\Local\Temp\cc6I0wR6.s 			page 34


 1538 0066 FFF7FEFF 		bl	isFinishCounter_1ms
 1539              	.LVL182:
 1540 006a 0028     		cmp	r0, #0
 1541 006c 02D0     		beq	.L85
 306:lib/UI.c      ****         {
 307:lib/UI.c      ****             //tc_no_touch_count = 0;
 308:lib/UI.c      ****             isUpStat = TRUE;
 1542              		.loc 1 308 0
 1543 006e 0122     		movs	r2, #1
 1544 0070 054B     		ldr	r3, .L86+8
 1545 0072 9A71     		strb	r2, [r3, #6]
 1546              	.L85:
 309:lib/UI.c      ****         }   
 310:lib/UI.c      ****     }
 311:lib/UI.c      ****         
 312:lib/UI.c      ****     oldRead = read;
 1547              		.loc 1 312 0
 1548 0074 024B     		ldr	r3, .L86
 1549 0076 1A7C     		ldrb	r2, [r3, #16]
 1550 0078 5A74     		strb	r2, [r3, #17]
 313:lib/UI.c      ****     return touch;
 314:lib/UI.c      **** }
 1551              		.loc 1 314 0
 1552 007a 2000     		movs	r0, r4
 1553              		@ sp needed
 1554              	.LVL183:
 1555 007c 10BD     		pop	{r4, pc}
 1556              	.L87:
 1557 007e C046     		.align	2
 1558              	.L86:
 1559 0080 00000000 		.word	.LANCHOR1
 1560 0084 00000000 		.word	g_index_touch_counter
 1561 0088 00000000 		.word	.LANCHOR0
 1562 008c 00000000 		.word	touchActive
 1563 0090 00000000 		.word	ParamTouch
 1564              		.cfi_endproc
 1565              	.LFE78:
 1566              		.size	GetTouch, .-GetTouch
 1567              		.section	.text.isPointInRect,"ax",%progbits
 1568              		.align	2
 1569              		.global	isPointInRect
 1570              		.code	16
 1571              		.thumb_func
 1572              		.type	isPointInRect, %function
 1573              	isPointInRect:
 1574              	.LFB79:
 315:lib/UI.c      **** 
 316:lib/UI.c      **** 
 317:lib/UI.c      **** uint8 isPointInRect(RECT *r, POINT pt)
 318:lib/UI.c      **** {
 1575              		.loc 1 318 0
 1576              		.cfi_startproc
 1577              		@ args = 0, pretend = 0, frame = 8
 1578              		@ frame_needed = 0, uses_anonymous_args = 0
 1579              		@ link register save eliminated.
 1580              	.LVL184:
 1581 0000 82B0     		sub	sp, sp, #8
ARM GAS  C:\Users\luvsd\AppData\Local\Temp\cc6I0wR6.s 			page 35


 1582              		.cfi_def_cfa_offset 8
 1583 0002 0191     		str	r1, [sp, #4]
 319:lib/UI.c      ****     if(pt.x < r->left)   return FALSE;
 1584              		.loc 1 319 0
 1585 0004 89B2     		uxth	r1, r1
 1586 0006 0388     		ldrh	r3, [r0]
 1587 0008 9942     		cmp	r1, r3
 1588 000a 0CD3     		bcc	.L90
 320:lib/UI.c      ****     if(pt.x > r->right)  return FALSE;
 1589              		.loc 1 320 0
 1590 000c 4388     		ldrh	r3, [r0, #2]
 1591 000e 9942     		cmp	r1, r3
 1592 0010 0BD8     		bhi	.L91
 321:lib/UI.c      ****     if(pt.y < r->top)    return FALSE;
 1593              		.loc 1 321 0
 1594 0012 01AB     		add	r3, sp, #4
 1595 0014 5B88     		ldrh	r3, [r3, #2]
 1596 0016 8288     		ldrh	r2, [r0, #4]
 1597 0018 9342     		cmp	r3, r2
 1598 001a 08D3     		bcc	.L92
 322:lib/UI.c      ****     if(pt.y > r->bottom) return FALSE;
 1599              		.loc 1 322 0
 1600 001c C288     		ldrh	r2, [r0, #6]
 1601 001e 9342     		cmp	r3, r2
 1602 0020 07D9     		bls	.L93
 1603 0022 0020     		movs	r0, #0
 1604              	.LVL185:
 1605 0024 06E0     		b	.L89
 1606              	.LVL186:
 1607              	.L90:
 319:lib/UI.c      ****     if(pt.x > r->right)  return FALSE;
 1608              		.loc 1 319 0
 1609 0026 0020     		movs	r0, #0
 1610              	.LVL187:
 1611 0028 04E0     		b	.L89
 1612              	.LVL188:
 1613              	.L91:
 320:lib/UI.c      ****     if(pt.y < r->top)    return FALSE;
 1614              		.loc 1 320 0
 1615 002a 0020     		movs	r0, #0
 1616              	.LVL189:
 1617 002c 02E0     		b	.L89
 1618              	.LVL190:
 1619              	.L92:
 321:lib/UI.c      ****     if(pt.y > r->bottom) return FALSE;
 1620              		.loc 1 321 0
 1621 002e 0020     		movs	r0, #0
 1622              	.LVL191:
 1623 0030 00E0     		b	.L89
 1624              	.LVL192:
 1625              	.L93:
 323:lib/UI.c      ****     return TRUE;
 1626              		.loc 1 323 0
 1627 0032 0120     		movs	r0, #1
 1628              	.LVL193:
 1629              	.L89:
 324:lib/UI.c      **** }
ARM GAS  C:\Users\luvsd\AppData\Local\Temp\cc6I0wR6.s 			page 36


 1630              		.loc 1 324 0
 1631 0034 02B0     		add	sp, sp, #8
 1632              		@ sp needed
 1633 0036 7047     		bx	lr
 1634              		.cfi_endproc
 1635              	.LFE79:
 1636              		.size	isPointInRect, .-isPointInRect
 1637              		.section	.text.Buzzer,"ax",%progbits
 1638              		.align	2
 1639              		.global	Buzzer
 1640              		.code	16
 1641              		.thumb_func
 1642              		.type	Buzzer, %function
 1643              	Buzzer:
 1644              	.LFB80:
 325:lib/UI.c      **** 
 326:lib/UI.c      **** 
 327:lib/UI.c      **** 
 328:lib/UI.c      **** BUZZER_CONTROL g_BuzzerControl = {
 329:lib/UI.c      ****     .uDownCount = 0,
 330:lib/UI.c      ****     .uUpCount   = 0,
 331:lib/UI.c      ****     .uInterate  = 0,
 332:lib/UI.c      ****     .type       = BUZZER_STOP,
 333:lib/UI.c      **** };
 334:lib/UI.c      **** 
 335:lib/UI.c      **** void Buzzer(uint8 type, uint16 noOfInterate)
 336:lib/UI.c      **** {
 1645              		.loc 1 336 0
 1646              		.cfi_startproc
 1647              		@ args = 0, pretend = 0, frame = 0
 1648              		@ frame_needed = 0, uses_anonymous_args = 0
 1649              	.LVL194:
 1650 0000 10B5     		push	{r4, lr}
 1651              		.cfi_def_cfa_offset 8
 1652              		.cfi_offset 4, -8
 1653              		.cfi_offset 14, -4
 337:lib/UI.c      ****     switch(g_BuzzerControl.type = type)
 1654              		.loc 1 337 0
 1655 0002 80B2     		uxth	r0, r0
 1656              	.LVL195:
 1657 0004 194B     		ldr	r3, .L104
 1658 0006 5883     		strh	r0, [r3, #26]
 1659 0008 0628     		cmp	r0, #6
 1660 000a 2DD8     		bhi	.L94
 1661 000c 8000     		lsls	r0, r0, #2
 1662 000e 184B     		ldr	r3, .L104+4
 1663 0010 1B58     		ldr	r3, [r3, r0]
 1664 0012 9F46     		mov	pc, r3
 1665              		.section	.rodata
 1666              		.align	2
 1667              	.L97:
 1668 0000 14000000 		.word	.L96
 1669 0004 26000000 		.word	.L98
 1670 0008 2E000000 		.word	.L99
 1671 000c 38000000 		.word	.L100
 1672 0010 48000000 		.word	.L101
 1673 0014 52000000 		.word	.L102
ARM GAS  C:\Users\luvsd\AppData\Local\Temp\cc6I0wR6.s 			page 37


 1674 0018 62000000 		.word	.L103
 1675              		.section	.text.Buzzer
 1676              	.L96:
 338:lib/UI.c      ****     {
 339:lib/UI.c      ****         case BUZZER_STOP:        
 340:lib/UI.c      ****             g_BuzzerControl.uDownCount = 0;
 1677              		.loc 1 340 0
 1678 0014 154B     		ldr	r3, .L104
 1679 0016 0022     		movs	r2, #0
 1680 0018 9A82     		strh	r2, [r3, #20]
 341:lib/UI.c      ****             g_BuzzerControl.uUpCount = 0;
 1681              		.loc 1 341 0
 1682 001a DA82     		strh	r2, [r3, #22]
 342:lib/UI.c      ****             g_BuzzerControl.uInterate = 0;
 1683              		.loc 1 342 0
 1684 001c 1A83     		strh	r2, [r3, #24]
 343:lib/UI.c      ****             BUZZER_Write(FALSE);
 1685              		.loc 1 343 0
 1686 001e 0020     		movs	r0, #0
 1687 0020 FFF7FEFF 		bl	BUZZER_Write
 1688              	.LVL196:
 344:lib/UI.c      ****             break;
 1689              		.loc 1 344 0
 1690 0024 20E0     		b	.L94
 1691              	.LVL197:
 1692              	.L98:
 345:lib/UI.c      ****         case BUZZER_CLICK:
 346:lib/UI.c      ****             g_BuzzerControl.uDownCount = 50;
 1693              		.loc 1 346 0
 1694 0026 3222     		movs	r2, #50
 1695 0028 104B     		ldr	r3, .L104
 1696 002a 9A82     		strh	r2, [r3, #20]
 347:lib/UI.c      ****             break;
 1697              		.loc 1 347 0
 1698 002c 1CE0     		b	.L94
 1699              	.L99:
 348:lib/UI.c      ****         case BUZZER_WARNING:
 349:lib/UI.c      ****             g_BuzzerControl.uUpCount = 0;
 1700              		.loc 1 349 0
 1701 002e 0F4B     		ldr	r3, .L104
 1702 0030 0022     		movs	r2, #0
 1703 0032 DA82     		strh	r2, [r3, #22]
 350:lib/UI.c      ****             g_BuzzerControl.uInterate = noOfInterate;
 1704              		.loc 1 350 0
 1705 0034 1983     		strh	r1, [r3, #24]
 351:lib/UI.c      ****             break;
 1706              		.loc 1 351 0
 1707 0036 17E0     		b	.L94
 1708              	.L100:
 352:lib/UI.c      ****         case BUZZER_WARNING_CONTINUOUS:
 353:lib/UI.c      ****             g_BuzzerControl.uUpCount = 0;
 1709              		.loc 1 353 0
 1710 0038 0C4B     		ldr	r3, .L104
 1711 003a 0022     		movs	r2, #0
 1712 003c DA82     		strh	r2, [r3, #22]
 354:lib/UI.c      ****             g_BuzzerControl.uInterate = UINT16_MAX;
 1713              		.loc 1 354 0
ARM GAS  C:\Users\luvsd\AppData\Local\Temp\cc6I0wR6.s 			page 38


 1714 003e 013A     		subs	r2, r2, #1
 1715 0040 1A83     		strh	r2, [r3, #24]
 355:lib/UI.c      ****             g_BuzzerControl.type = BUZZER_WARNING;
 1716              		.loc 1 355 0
 1717 0042 0332     		adds	r2, r2, #3
 1718 0044 5A83     		strh	r2, [r3, #26]
 356:lib/UI.c      ****             break;            
 1719              		.loc 1 356 0
 1720 0046 0FE0     		b	.L94
 1721              	.L101:
 357:lib/UI.c      ****         case BUZZER_SHORT_WARNING:
 358:lib/UI.c      ****             g_BuzzerControl.uUpCount = 0;
 1722              		.loc 1 358 0
 1723 0048 084B     		ldr	r3, .L104
 1724 004a 0022     		movs	r2, #0
 1725 004c DA82     		strh	r2, [r3, #22]
 359:lib/UI.c      ****             g_BuzzerControl.uInterate = noOfInterate;              
 1726              		.loc 1 359 0
 1727 004e 1983     		strh	r1, [r3, #24]
 360:lib/UI.c      ****             break;
 1728              		.loc 1 360 0
 1729 0050 0AE0     		b	.L94
 1730              	.L102:
 361:lib/UI.c      ****         case BUZZER_SHORT_WARNING_CONTINUOUS:
 362:lib/UI.c      ****             g_BuzzerControl.uUpCount = 0;
 1731              		.loc 1 362 0
 1732 0052 064B     		ldr	r3, .L104
 1733 0054 0022     		movs	r2, #0
 1734 0056 DA82     		strh	r2, [r3, #22]
 363:lib/UI.c      ****             g_BuzzerControl.uInterate = UINT16_MAX;  
 1735              		.loc 1 363 0
 1736 0058 013A     		subs	r2, r2, #1
 1737 005a 1A83     		strh	r2, [r3, #24]
 364:lib/UI.c      ****             g_BuzzerControl.type = BUZZER_SHORT_WARNING;            
 1738              		.loc 1 364 0
 1739 005c 0532     		adds	r2, r2, #5
 1740 005e 5A83     		strh	r2, [r3, #26]
 365:lib/UI.c      ****             break;   
 1741              		.loc 1 365 0
 1742 0060 02E0     		b	.L94
 1743              	.L103:
 366:lib/UI.c      ****         case BUZZER_CONTINUOUS_BEEP:
 367:lib/UI.c      ****             BUZZER_Write(TRUE);            
 1744              		.loc 1 367 0
 1745 0062 0120     		movs	r0, #1
 1746 0064 FFF7FEFF 		bl	BUZZER_Write
 1747              	.LVL198:
 1748              	.L94:
 368:lib/UI.c      ****             break;
 369:lib/UI.c      ****     }
 370:lib/UI.c      **** }
 1749              		.loc 1 370 0
 1750              		@ sp needed
 1751 0068 10BD     		pop	{r4, pc}
 1752              	.L105:
 1753 006a C046     		.align	2
 1754              	.L104:
ARM GAS  C:\Users\luvsd\AppData\Local\Temp\cc6I0wR6.s 			page 39


 1755 006c 00000000 		.word	.LANCHOR1
 1756 0070 00000000 		.word	.L97
 1757              		.cfi_endproc
 1758              	.LFE80:
 1759              		.size	Buzzer, .-Buzzer
 1760              		.section	.text.BuzzerTimer,"ax",%progbits
 1761              		.align	2
 1762              		.global	BuzzerTimer
 1763              		.code	16
 1764              		.thumb_func
 1765              		.type	BuzzerTimer, %function
 1766              	BuzzerTimer:
 1767              	.LFB81:
 371:lib/UI.c      **** 
 372:lib/UI.c      **** void BuzzerTimer()
 373:lib/UI.c      **** {
 1768              		.loc 1 373 0
 1769              		.cfi_startproc
 1770              		@ args = 0, pretend = 0, frame = 0
 1771              		@ frame_needed = 0, uses_anonymous_args = 0
 1772 0000 10B5     		push	{r4, lr}
 1773              		.cfi_def_cfa_offset 8
 1774              		.cfi_offset 4, -8
 1775              		.cfi_offset 14, -4
 374:lib/UI.c      ****     switch(g_BuzzerControl.type)
 1776              		.loc 1 374 0
 1777 0002 314B     		ldr	r3, .L122
 1778 0004 5B8B     		ldrh	r3, [r3, #26]
 1779 0006 022B     		cmp	r3, #2
 1780 0008 08D0     		beq	.L108
 1781 000a 02D8     		bhi	.L109
 1782 000c 002B     		cmp	r3, #0
 1783 000e 5AD0     		beq	.L106
 1784 0010 4AE0     		b	.L107
 1785              	.L109:
 1786 0012 042B     		cmp	r3, #4
 1787 0014 20D0     		beq	.L111
 1788 0016 062B     		cmp	r3, #6
 1789 0018 55D0     		beq	.L106
 1790 001a 45E0     		b	.L107
 1791              	.L108:
 375:lib/UI.c      ****     {
 376:lib/UI.c      ****         case BUZZER_STOP:
 377:lib/UI.c      ****         case BUZZER_CONTINUOUS_BEEP:
 378:lib/UI.c      ****             return;
 379:lib/UI.c      ****         case BUZZER_WARNING:
 380:lib/UI.c      ****             if(g_BuzzerControl.uInterate==0)
 1792              		.loc 1 380 0
 1793 001c 2A4B     		ldr	r3, .L122
 1794 001e 1B8B     		ldrh	r3, [r3, #24]
 1795 0020 002B     		cmp	r3, #0
 1796 0022 03D1     		bne	.L112
 381:lib/UI.c      ****             {
 382:lib/UI.c      ****                 g_BuzzerControl.type = BUZZER_STOP;
 1797              		.loc 1 382 0
 1798 0024 0022     		movs	r2, #0
 1799 0026 284B     		ldr	r3, .L122
ARM GAS  C:\Users\luvsd\AppData\Local\Temp\cc6I0wR6.s 			page 40


 1800 0028 5A83     		strh	r2, [r3, #26]
 1801 002a 3DE0     		b	.L107
 1802              	.L112:
 383:lib/UI.c      ****             } else {
 384:lib/UI.c      ****                 switch(g_BuzzerControl.uUpCount++)
 1803              		.loc 1 384 0
 1804 002c 2649     		ldr	r1, .L122
 1805 002e CA8A     		ldrh	r2, [r1, #22]
 1806 0030 501C     		adds	r0, r2, #1
 1807 0032 C882     		strh	r0, [r1, #22]
 1808 0034 002A     		cmp	r2, #0
 1809 0036 04D0     		beq	.L113
 1810 0038 FA21     		movs	r1, #250
 1811 003a 8900     		lsls	r1, r1, #2
 1812 003c 8A42     		cmp	r2, r1
 1813 003e 05D0     		beq	.L114
 1814 0040 32E0     		b	.L107
 1815              	.L113:
 385:lib/UI.c      ****                 {
 386:lib/UI.c      ****                     case    0: g_BuzzerControl.uDownCount = 500; break;                 
 1816              		.loc 1 386 0
 1817 0042 FA22     		movs	r2, #250
 1818 0044 5200     		lsls	r2, r2, #1
 1819 0046 204B     		ldr	r3, .L122
 1820 0048 9A82     		strh	r2, [r3, #20]
 1821 004a 2DE0     		b	.L107
 1822              	.L114:
 387:lib/UI.c      ****                     case 1000: g_BuzzerControl.uUpCount = 0;
 1823              		.loc 1 387 0
 1824 004c 1E4A     		ldr	r2, .L122
 1825 004e 0021     		movs	r1, #0
 1826 0050 D182     		strh	r1, [r2, #22]
 388:lib/UI.c      ****                                g_BuzzerControl.uInterate--;  
 1827              		.loc 1 388 0
 1828 0052 013B     		subs	r3, r3, #1
 1829 0054 1383     		strh	r3, [r2, #24]
 1830 0056 27E0     		b	.L107
 1831              	.L111:
 389:lib/UI.c      ****                 }                
 390:lib/UI.c      ****             }
 391:lib/UI.c      ****             break;    
 392:lib/UI.c      ****         case BUZZER_SHORT_WARNING:
 393:lib/UI.c      ****             if(g_BuzzerControl.uInterate==0)
 1832              		.loc 1 393 0
 1833 0058 1B4B     		ldr	r3, .L122
 1834 005a 1A8B     		ldrh	r2, [r3, #24]
 1835 005c 002A     		cmp	r2, #0
 1836 005e 01D1     		bne	.L115
 394:lib/UI.c      ****             {
 395:lib/UI.c      ****                 g_BuzzerControl.type = BUZZER_STOP;
 1837              		.loc 1 395 0
 1838 0060 5A83     		strh	r2, [r3, #26]
 1839 0062 21E0     		b	.L107
 1840              	.L115:
 396:lib/UI.c      ****             } else {
 397:lib/UI.c      ****                 switch(g_BuzzerControl.uUpCount++)
 1841              		.loc 1 397 0
ARM GAS  C:\Users\luvsd\AppData\Local\Temp\cc6I0wR6.s 			page 41


 1842 0064 1849     		ldr	r1, .L122
 1843 0066 CB8A     		ldrh	r3, [r1, #22]
 1844 0068 581C     		adds	r0, r3, #1
 1845 006a C882     		strh	r0, [r1, #22]
 1846 006c 642B     		cmp	r3, #100
 1847 006e 0ED0     		beq	.L116
 1848 0070 02D8     		bhi	.L117
 1849 0072 002B     		cmp	r3, #0
 1850 0074 07D0     		beq	.L118
 1851 0076 17E0     		b	.L107
 1852              	.L117:
 1853 0078 C82B     		cmp	r3, #200
 1854 007a 0CD0     		beq	.L119
 1855 007c FA21     		movs	r1, #250
 1856 007e 8900     		lsls	r1, r1, #2
 1857 0080 8B42     		cmp	r3, r1
 1858 0082 0CD0     		beq	.L120
 1859 0084 10E0     		b	.L107
 1860              	.L118:
 398:lib/UI.c      ****                 {
 399:lib/UI.c      ****                     case    0: g_BuzzerControl.uDownCount = 50; break;
 1861              		.loc 1 399 0
 1862 0086 3222     		movs	r2, #50
 1863 0088 0F4B     		ldr	r3, .L122
 1864 008a 9A82     		strh	r2, [r3, #20]
 1865 008c 0CE0     		b	.L107
 1866              	.L116:
 400:lib/UI.c      ****                     case  100: g_BuzzerControl.uDownCount = 50; break;
 1867              		.loc 1 400 0
 1868 008e 3222     		movs	r2, #50
 1869 0090 0D4B     		ldr	r3, .L122
 1870 0092 9A82     		strh	r2, [r3, #20]
 1871 0094 08E0     		b	.L107
 1872              	.L119:
 401:lib/UI.c      ****                     case  200: g_BuzzerControl.uDownCount = 50; break;                         
 1873              		.loc 1 401 0
 1874 0096 3222     		movs	r2, #50
 1875 0098 0B4B     		ldr	r3, .L122
 1876 009a 9A82     		strh	r2, [r3, #20]
 1877 009c 04E0     		b	.L107
 1878              	.L120:
 402:lib/UI.c      ****                     case 1000: g_BuzzerControl.uUpCount = 0;
 1879              		.loc 1 402 0
 1880 009e 0A4B     		ldr	r3, .L122
 1881 00a0 0021     		movs	r1, #0
 1882 00a2 D982     		strh	r1, [r3, #22]
 403:lib/UI.c      ****                                g_BuzzerControl.uInterate--;                    
 1883              		.loc 1 403 0
 1884 00a4 013A     		subs	r2, r2, #1
 1885 00a6 1A83     		strh	r2, [r3, #24]
 1886              	.L107:
 404:lib/UI.c      ****                     break;
 405:lib/UI.c      ****                 }                
 406:lib/UI.c      ****             }
 407:lib/UI.c      ****             break;              
 408:lib/UI.c      ****     }
 409:lib/UI.c      ****     
ARM GAS  C:\Users\luvsd\AppData\Local\Temp\cc6I0wR6.s 			page 42


 410:lib/UI.c      ****     if(g_BuzzerControl.uDownCount)
 1887              		.loc 1 410 0
 1888 00a8 074B     		ldr	r3, .L122
 1889 00aa 9B8A     		ldrh	r3, [r3, #20]
 1890 00ac 002B     		cmp	r3, #0
 1891 00ae 07D0     		beq	.L121
 411:lib/UI.c      ****     {
 412:lib/UI.c      ****         BUZZER_Write(TRUE);
 1892              		.loc 1 412 0
 1893 00b0 0120     		movs	r0, #1
 1894 00b2 FFF7FEFF 		bl	BUZZER_Write
 1895              	.LVL199:
 413:lib/UI.c      ****         g_BuzzerControl.uDownCount--;
 1896              		.loc 1 413 0
 1897 00b6 044A     		ldr	r2, .L122
 1898 00b8 938A     		ldrh	r3, [r2, #20]
 1899 00ba 013B     		subs	r3, r3, #1
 1900 00bc 9382     		strh	r3, [r2, #20]
 1901 00be 02E0     		b	.L106
 1902              	.L121:
 414:lib/UI.c      ****     } else {
 415:lib/UI.c      ****         BUZZER_Write(FALSE);
 1903              		.loc 1 415 0
 1904 00c0 0020     		movs	r0, #0
 1905 00c2 FFF7FEFF 		bl	BUZZER_Write
 1906              	.LVL200:
 1907              	.L106:
 416:lib/UI.c      ****     }        
 417:lib/UI.c      **** }
 1908              		.loc 1 417 0
 1909              		@ sp needed
 1910 00c6 10BD     		pop	{r4, pc}
 1911              	.L123:
 1912              		.align	2
 1913              	.L122:
 1914 00c8 00000000 		.word	.LANCHOR1
 1915              		.cfi_endproc
 1916              	.LFE81:
 1917              		.size	BuzzerTimer, .-BuzzerTimer
 1918              		.section	.text.GetBodyArea,"ax",%progbits
 1919              		.align	2
 1920              		.global	GetBodyArea
 1921              		.code	16
 1922              		.thumb_func
 1923              		.type	GetBodyArea, %function
 1924              	GetBodyArea:
 1925              	.LFB82:
 418:lib/UI.c      **** 
 419:lib/UI.c      **** //void SetIconButton(ICON_BUTTON *btn, uint16 x, uint16 y, uint16 width, uint16 height, uint16 *ima
 420:lib/UI.c      **** //{
 421:lib/UI.c      **** //    btn->image = image;
 422:lib/UI.c      **** //    btn->rect.left = x;
 423:lib/UI.c      **** //    btn->rect.top = y;
 424:lib/UI.c      **** //    btn->rect.right = x + width - 1;
 425:lib/UI.c      **** //    btn->rect.bottom = y + height - 1;
 426:lib/UI.c      **** //}
 427:lib/UI.c      **** 
ARM GAS  C:\Users\luvsd\AppData\Local\Temp\cc6I0wR6.s 			page 43


 428:lib/UI.c      **** RECT GetBodyArea()
 429:lib/UI.c      **** {
 1926              		.loc 1 429 0
 1927              		.cfi_startproc
 1928              		@ args = 0, pretend = 0, frame = 0
 1929              		@ frame_needed = 0, uses_anonymous_args = 0
 1930              		@ link register save eliminated.
 1931              	.LVL201:
 430:lib/UI.c      ****     RECT body;
 431:lib/UI.c      ****     body.top = (DEFAULT_TOP_TITLE_HEIGHT + 1);
 1932              		.loc 1 431 0
 1933 0000 2923     		movs	r3, #41
 1934 0002 8380     		strh	r3, [r0, #4]
 432:lib/UI.c      ****     body.left = 0;
 1935              		.loc 1 432 0
 1936 0004 0023     		movs	r3, #0
 1937 0006 0380     		strh	r3, [r0]
 433:lib/UI.c      ****     body.right = g_SCREEN_WIDTH;
 1938              		.loc 1 433 0
 1939 0008 044A     		ldr	r2, .L125
 1940 000a 1388     		ldrh	r3, [r2]
 1941 000c 4380     		strh	r3, [r0, #2]
 434:lib/UI.c      ****     body.bottom = g_SCREEN_HEIGHT-g_DEFAULT_BUTTON_HEIGHT-1;
 1942              		.loc 1 434 0
 1943 000e 5388     		ldrh	r3, [r2, #2]
 1944 0010 9288     		ldrh	r2, [r2, #4]
 1945 0012 9B1A     		subs	r3, r3, r2
 1946 0014 013B     		subs	r3, r3, #1
 1947 0016 C380     		strh	r3, [r0, #6]
 435:lib/UI.c      ****     return body;
 436:lib/UI.c      **** }
 1948              		.loc 1 436 0
 1949              		@ sp needed
 1950 0018 7047     		bx	lr
 1951              	.L126:
 1952 001a C046     		.align	2
 1953              	.L125:
 1954 001c 00000000 		.word	.LANCHOR0
 1955              		.cfi_endproc
 1956              	.LFE82:
 1957              		.size	GetBodyArea, .-GetBodyArea
 1958              		.section	.text.RectangleSizeShrink,"ax",%progbits
 1959              		.align	2
 1960              		.global	RectangleSizeShrink
 1961              		.code	16
 1962              		.thumb_func
 1963              		.type	RectangleSizeShrink, %function
 1964              	RectangleSizeShrink:
 1965              	.LFB83:
 437:lib/UI.c      **** 
 438:lib/UI.c      **** void RectangleSizeShrink(RECT *r, int16 left, int16 right, int16 up, int16 down) // width, heightņØ
 439:lib/UI.c      **** {
 1966              		.loc 1 439 0
 1967              		.cfi_startproc
 1968              		@ args = 4, pretend = 0, frame = 0
 1969              		@ frame_needed = 0, uses_anonymous_args = 0
 1970              	.LVL202:
ARM GAS  C:\Users\luvsd\AppData\Local\Temp\cc6I0wR6.s 			page 44


 1971 0000 30B5     		push	{r4, r5, lr}
 1972              		.cfi_def_cfa_offset 12
 1973              		.cfi_offset 4, -12
 1974              		.cfi_offset 5, -8
 1975              		.cfi_offset 14, -4
 1976 0002 03AC     		add	r4, sp, #12
 1977              	.LVL203:
 1978 0004 0025     		movs	r5, #0
 1979 0006 645F     		ldrsh	r4, [r4, r5]
 1980              	.LVL204:
 440:lib/UI.c      ****     r->left   +=  left;
 1981              		.loc 1 440 0
 1982 0008 0588     		ldrh	r5, [r0]
 1983 000a 6918     		adds	r1, r5, r1
 1984              	.LVL205:
 1985 000c 0180     		strh	r1, [r0]
 441:lib/UI.c      ****     r->right  += right;
 1986              		.loc 1 441 0
 1987 000e 4188     		ldrh	r1, [r0, #2]
 1988 0010 8A18     		adds	r2, r1, r2
 1989              	.LVL206:
 1990 0012 4280     		strh	r2, [r0, #2]
 442:lib/UI.c      ****     r->top    +=    up;
 1991              		.loc 1 442 0
 1992 0014 8288     		ldrh	r2, [r0, #4]
 1993 0016 D318     		adds	r3, r2, r3
 1994              	.LVL207:
 1995 0018 8380     		strh	r3, [r0, #4]
 443:lib/UI.c      ****     r->bottom +=  down;    
 1996              		.loc 1 443 0
 1997 001a C388     		ldrh	r3, [r0, #6]
 1998 001c 1B19     		adds	r3, r3, r4
 1999 001e C380     		strh	r3, [r0, #6]
 444:lib/UI.c      **** }
 2000              		.loc 1 444 0
 2001              		@ sp needed
 2002 0020 30BD     		pop	{r4, r5, pc}
 2003              		.cfi_endproc
 2004              	.LFE83:
 2005              		.size	RectangleSizeShrink, .-RectangleSizeShrink
 2006 0022 C046     		.section	.text.initUI,"ax",%progbits
 2007              		.align	2
 2008              		.global	initUI
 2009              		.code	16
 2010              		.thumb_func
 2011              		.type	initUI, %function
 2012              	initUI:
 2013              	.LFB84:
 445:lib/UI.c      **** void initUI()
 446:lib/UI.c      **** {
 2014              		.loc 1 446 0
 2015              		.cfi_startproc
 2016              		@ args = 0, pretend = 0, frame = 0
 2017              		@ frame_needed = 0, uses_anonymous_args = 0
 2018 0000 10B5     		push	{r4, lr}
 2019              		.cfi_def_cfa_offset 8
 2020              		.cfi_offset 4, -8
ARM GAS  C:\Users\luvsd\AppData\Local\Temp\cc6I0wR6.s 			page 45


 2021              		.cfi_offset 14, -4
 447:lib/UI.c      ****     g_index_touch_counter = registerCounter_1ms(50); // 50msļÅÖņĢł ņŚ░ņåŹņĀüņ£╝ļĪ£  touchĻ░Ć ļÉśņ¢┤
 2022              		.loc 1 447 0
 2023 0002 3220     		movs	r0, #50
 2024 0004 FFF7FEFF 		bl	registerCounter_1ms
 2025              	.LVL208:
 2026 0008 014B     		ldr	r3, .L129
 2027 000a 1870     		strb	r0, [r3]
 448:lib/UI.c      **** }
 2028              		.loc 1 448 0
 2029              		@ sp needed
 2030 000c 10BD     		pop	{r4, pc}
 2031              	.L130:
 2032 000e C046     		.align	2
 2033              	.L129:
 2034 0010 00000000 		.word	g_index_touch_counter
 2035              		.cfi_endproc
 2036              	.LFE84:
 2037              		.size	initUI, .-initUI
 2038              		.global	g_BuzzerControl
 2039              		.comm	g_index_touch_counter,1,1
 2040              		.global	g_SCREEN_HEIGHT
 2041              		.global	g_SCREEN_WIDTH
 2042              		.global	g_DEFAULT_BUTTON_HEIGHT
 2043              		.comm	Param,6,4
 2044              		.data
 2045              		.align	1
 2046              		.set	.LANCHOR0,. + 0
 2047              		.type	g_SCREEN_WIDTH, %object
 2048              		.size	g_SCREEN_WIDTH, 2
 2049              	g_SCREEN_WIDTH:
 2050 0000 F000     		.short	240
 2051              		.type	g_SCREEN_HEIGHT, %object
 2052              		.size	g_SCREEN_HEIGHT, 2
 2053              	g_SCREEN_HEIGHT:
 2054 0002 4001     		.short	320
 2055              		.type	g_DEFAULT_BUTTON_HEIGHT, %object
 2056              		.size	g_DEFAULT_BUTTON_HEIGHT, 2
 2057              	g_DEFAULT_BUTTON_HEIGHT:
 2058 0004 2E00     		.short	46
 2059              		.type	isUpStat.9525, %object
 2060              		.size	isUpStat.9525, 1
 2061              	isUpStat.9525:
 2062 0006 01       		.byte	1
 2063              		.bss
 2064              		.align	2
 2065              		.set	.LANCHOR1,. + 0
 2066              		.type	point.9350, %object
 2067              		.size	point.9350, 4
 2068              	point.9350:
 2069 0000 00000000 		.space	4
 2070              		.type	point.9355, %object
 2071              		.size	point.9355, 4
 2072              	point.9355:
 2073 0004 00000000 		.space	4
 2074              		.type	rect.9364, %object
 2075              		.size	rect.9364, 8
ARM GAS  C:\Users\luvsd\AppData\Local\Temp\cc6I0wR6.s 			page 46


 2076              	rect.9364:
 2077 0008 00000000 		.space	8
 2077      00000000 
 2078              		.type	read.9527, %object
 2079              		.size	read.9527, 1
 2080              	read.9527:
 2081 0010 00       		.space	1
 2082              		.type	oldRead.9526, %object
 2083              		.size	oldRead.9526, 1
 2084              	oldRead.9526:
 2085 0011 00       		.space	1
 2086 0012 0000     		.space	2
 2087              		.type	g_BuzzerControl, %object
 2088              		.size	g_BuzzerControl, 8
 2089              	g_BuzzerControl:
 2090 0014 00000000 		.space	8
 2090      00000000 
 2091              		.text
 2092              	.Letext0:
 2093              		.file 2 "c:\\program files (x86)\\cypress\\psoc creator\\4.4\\psoc creator\\import\\gnu\\arm\\5.4.
 2094              		.file 3 "c:\\program files (x86)\\cypress\\psoc creator\\4.4\\psoc creator\\import\\gnu\\arm\\5.4.
 2095              		.file 4 "Generated_Source\\PSoC4/cytypes.h"
 2096              		.file 5 "c:\\program files (x86)\\cypress\\psoc creator\\4.4\\psoc creator\\import\\gnu\\arm\\5.4.
 2097              		.file 6 "<built-in>"
 2098              		.file 7 "./main.h"
 2099              		.file 8 "lib\\UI.h"
 2100              		.file 9 "lib\\FT5x46.h"
 2101              		.file 10 "lib\\fonts.h"
 2102              		.file 11 "Generated_Source\\PSoC4/RTC.h"
 2103              		.file 12 "lib\\externalFlash.h"
 2104              		.file 13 "lib\\widget.h"
 2105              		.file 14 "lib\\ST7789V.h"
 2106              		.file 15 "c:\\program files (x86)\\cypress\\psoc creator\\4.4\\psoc creator\\import\\gnu\\arm\\5.4
 2107              		.file 16 "c:\\program files (x86)\\cypress\\psoc creator\\4.4\\psoc creator\\import\\gnu\\arm\\5.4
 2108              		.file 17 "Generated_Source\\PSoC4/TC_INT.h"
 2109              		.file 18 "lib\\sysTick.h"
 2110              		.file 19 "Generated_Source\\PSoC4/BUZZER.h"