ARM GAS  C:\Users\theGu\AppData\Local\Temp\ccmaUpyb.s 			page 1


   1              		.syntax unified
   2              		.cpu cortex-m0
   3              		.fpu softvfp
   4              		.eabi_attribute 20, 1
   5              		.eabi_attribute 21, 1
   6              		.eabi_attribute 23, 3
   7              		.eabi_attribute 24, 1
   8              		.eabi_attribute 25, 1
   9              		.eabi_attribute 26, 1
  10              		.eabi_attribute 30, 1
  11              		.eabi_attribute 34, 0
  12              		.eabi_attribute 18, 4
  13              		.thumb
  14              		.syntax unified
  15              		.file	"USBBuffer.c"
  16              		.text
  17              	.Ltext0:
  18              		.cfi_sections	.debug_frame
  19              		.section	.text.getUSB_ReceiveBuffer,"ax",%progbits
  20              		.align	2
  21              		.global	getUSB_ReceiveBuffer
  22              		.code	16
  23              		.thumb_func
  24              		.type	getUSB_ReceiveBuffer, %function
  25              	getUSB_ReceiveBuffer:
  26              	.LFB61:
  27              		.file 1 "USBBuffer.c"
   1:USBBuffer.c   **** /* ========================================
   2:USBBuffer.c   ****  *
   3:USBBuffer.c   ****  * Copyright YOUR COMPANY, THE YEAR
   4:USBBuffer.c   ****  * All Rights Reserved
   5:USBBuffer.c   ****  * UNPUBLISHED, LICENSED SOFTWARE.
   6:USBBuffer.c   ****  *
   7:USBBuffer.c   ****  * CONFIDENTIAL AND PROPRIETARY INFORMATION
   8:USBBuffer.c   ****  * WHICH IS THE PROPERTY OF your company.
   9:USBBuffer.c   ****  *
  10:USBBuffer.c   ****  * ========================================
  11:USBBuffer.c   **** */
  12:USBBuffer.c   **** 
  13:USBBuffer.c   **** /* [] END OF FILE */
  14:USBBuffer.c   **** #include "USBBuffer.h"
  15:USBBuffer.c   **** 
  16:USBBuffer.c   **** uint8 g_USB_ReceiveBuffer[MAX_USB_RECEIVE_BUFFER+1];
  17:USBBuffer.c   **** uint16 g_size_USB_ReceiveBuffer=0;
  18:USBBuffer.c   **** 
  19:USBBuffer.c   **** uint8 g_USB_TransmitBuffer[MAX_USB_TRANSMIT_BUFFER+1];
  20:USBBuffer.c   **** uint16 g_size_TransmitBuffer=0;
  21:USBBuffer.c   **** 
  22:USBBuffer.c   **** uint8 *getUSB_ReceiveBuffer() {return g_USB_ReceiveBuffer;};
  28              		.loc 1 22 0
  29              		.cfi_startproc
  30              		@ args = 0, pretend = 0, frame = 0
  31              		@ frame_needed = 0, uses_anonymous_args = 0
  32              		@ link register save eliminated.
  33              		.loc 1 22 0
  34 0000 0048     		ldr	r0, .L2
  35              		@ sp needed
ARM GAS  C:\Users\theGu\AppData\Local\Temp\ccmaUpyb.s 			page 2


  36 0002 7047     		bx	lr
  37              	.L3:
  38              		.align	2
  39              	.L2:
  40 0004 00000000 		.word	g_USB_ReceiveBuffer
  41              		.cfi_endproc
  42              	.LFE61:
  43              		.size	getUSB_ReceiveBuffer, .-getUSB_ReceiveBuffer
  44              		.section	.text.getUSB_TransmitBuffer,"ax",%progbits
  45              		.align	2
  46              		.global	getUSB_TransmitBuffer
  47              		.code	16
  48              		.thumb_func
  49              		.type	getUSB_TransmitBuffer, %function
  50              	getUSB_TransmitBuffer:
  51              	.LFB62:
  23:USBBuffer.c   **** uint8 *getUSB_TransmitBuffer(){return g_USB_TransmitBuffer;};
  52              		.loc 1 23 0
  53              		.cfi_startproc
  54              		@ args = 0, pretend = 0, frame = 0
  55              		@ frame_needed = 0, uses_anonymous_args = 0
  56              		@ link register save eliminated.
  57              		.loc 1 23 0
  58 0000 0048     		ldr	r0, .L5
  59              		@ sp needed
  60 0002 7047     		bx	lr
  61              	.L6:
  62              		.align	2
  63              	.L5:
  64 0004 00000000 		.word	g_USB_TransmitBuffer
  65              		.cfi_endproc
  66              	.LFE62:
  67              		.size	getUSB_TransmitBuffer, .-getUSB_TransmitBuffer
  68              		.section	.text.USB_ReceiveData,"ax",%progbits
  69              		.align	2
  70              		.global	USB_ReceiveData
  71              		.code	16
  72              		.thumb_func
  73              		.type	USB_ReceiveData, %function
  74              	USB_ReceiveData:
  75              	.LFB63:
  24:USBBuffer.c   **** 
  25:USBBuffer.c   **** void USB_ReceiveData(uint8 *buffer, int size)
  26:USBBuffer.c   **** {
  76              		.loc 1 26 0
  77              		.cfi_startproc
  78              		@ args = 0, pretend = 0, frame = 0
  79              		@ frame_needed = 0, uses_anonymous_args = 0
  80              	.LVL0:
  81 0000 F8B5     		push	{r3, r4, r5, r6, r7, lr}
  82              		.cfi_def_cfa_offset 24
  83              		.cfi_offset 3, -24
  84              		.cfi_offset 4, -20
  85              		.cfi_offset 5, -16
  86              		.cfi_offset 6, -12
  87              		.cfi_offset 7, -8
  88              		.cfi_offset 14, -4
ARM GAS  C:\Users\theGu\AppData\Local\Temp\ccmaUpyb.s 			page 3


  89 0002 0600     		movs	r6, r0
  90 0004 0C00     		movs	r4, r1
  27:USBBuffer.c   ****     if(MAX_USB_RECEIVE_BUFFER < g_size_USB_ReceiveBuffer+size)
  91              		.loc 1 27 0
  92 0006 0C4B     		ldr	r3, .L10
  93 0008 1D88     		ldrh	r5, [r3]
  94 000a 6A18     		adds	r2, r5, r1
  95 000c FA23     		movs	r3, #250
  96 000e 5B00     		lsls	r3, r3, #1
  97 0010 9A42     		cmp	r2, r3
  98 0012 03DD     		ble	.L8
  28:USBBuffer.c   ****     {
  29:USBBuffer.c   ****         printf("Error : Overflow in USB_ReceiveData()\r\n");
  99              		.loc 1 29 0
 100 0014 0948     		ldr	r0, .L10+4
 101              	.LVL1:
 102 0016 FFF7FEFF 		bl	puts
 103              	.LVL2:
  30:USBBuffer.c   ****         return;
 104              		.loc 1 30 0
 105 001a 0BE0     		b	.L7
 106              	.LVL3:
 107              	.L8:
  31:USBBuffer.c   ****     }
  32:USBBuffer.c   ****     
  33:USBBuffer.c   ****     memcpy(&g_USB_ReceiveBuffer[g_size_USB_ReceiveBuffer], buffer, size);
 108              		.loc 1 33 0
 109 001c 084F     		ldr	r7, .L10+8
 110 001e 7819     		adds	r0, r7, r5
 111              	.LVL4:
 112 0020 0A00     		movs	r2, r1
 113 0022 3100     		movs	r1, r6
 114              	.LVL5:
 115 0024 FFF7FEFF 		bl	memcpy
 116              	.LVL6:
  34:USBBuffer.c   ****     g_size_USB_ReceiveBuffer += size;
 117              		.loc 1 34 0
 118 0028 2C19     		adds	r4, r5, r4
 119              	.LVL7:
 120 002a A4B2     		uxth	r4, r4
 121 002c 024B     		ldr	r3, .L10
 122 002e 1C80     		strh	r4, [r3]
  35:USBBuffer.c   ****     g_USB_ReceiveBuffer[g_size_USB_ReceiveBuffer] = 0;
 123              		.loc 1 35 0
 124 0030 0023     		movs	r3, #0
 125 0032 3B55     		strb	r3, [r7, r4]
 126              	.L7:
  36:USBBuffer.c   **** }
 127              		.loc 1 36 0
 128              		@ sp needed
 129              	.LVL8:
 130 0034 F8BD     		pop	{r3, r4, r5, r6, r7, pc}
 131              	.L11:
 132 0036 C046     		.align	2
 133              	.L10:
 134 0038 00000000 		.word	.LANCHOR0
 135 003c 00000000 		.word	.LC3
ARM GAS  C:\Users\theGu\AppData\Local\Temp\ccmaUpyb.s 			page 4


 136 0040 00000000 		.word	g_USB_ReceiveBuffer
 137              		.cfi_endproc
 138              	.LFE63:
 139              		.size	USB_ReceiveData, .-USB_ReceiveData
 140              		.global	g_size_TransmitBuffer
 141              		.comm	g_USB_TransmitBuffer,501,4
 142              		.global	g_size_USB_ReceiveBuffer
 143              		.comm	g_USB_ReceiveBuffer,501,4
 144              		.comm	Param,6,4
 145              		.section	.rodata.str1.4,"aMS",%progbits,1
 146              		.align	2
 147              	.LC3:
 148 0000 4572726F 		.ascii	"Error : Overflow in USB_ReceiveData()\015\000"
 148      72203A20 
 148      4F766572 
 148      666C6F77 
 148      20696E20 
 149              		.bss
 150              		.align	1
 151              		.set	.LANCHOR0,. + 0
 152              		.type	g_size_USB_ReceiveBuffer, %object
 153              		.size	g_size_USB_ReceiveBuffer, 2
 154              	g_size_USB_ReceiveBuffer:
 155 0000 0000     		.space	2
 156              		.type	g_size_TransmitBuffer, %object
 157              		.size	g_size_TransmitBuffer, 2
 158              	g_size_TransmitBuffer:
 159 0002 0000     		.space	2
 160              		.text
 161              	.Letext0:
 162              		.file 2 "Generated_Source\\PSoC4/cytypes.h"
 163              		.file 3 "./main.h"
 164              		.file 4 "<built-in>"