ARM GAS  C:\Users\luvsd\AppData\Local\Temp\ccQgKjek.s 			page 1


   1              		.syntax unified
   2              		.cpu cortex-m0
   3              		.fpu softvfp
   4              		.eabi_attribute 20, 1
   5              		.eabi_attribute 21, 1
   6              		.eabi_attribute 23, 3
   7              		.eabi_attribute 24, 1
   8              		.eabi_attribute 25, 1
   9              		.eabi_attribute 26, 1
  10              		.eabi_attribute 30, 1
  11              		.eabi_attribute 34, 0
  12              		.eabi_attribute 18, 4
  13              		.thumb
  14              		.syntax unified
  15              		.file	"userMenuPatternSewingMachine.c"
  16              		.text
  17              	.Ltext0:
  18              		.cfi_sections	.debug_frame
  19              		.section	.text.doTargetInfoMenu,"ax",%progbits
  20              		.align	2
  21              		.global	doTargetInfoMenu
  22              		.code	16
  23              		.thumb_func
  24              		.type	doTargetInfoMenu, %function
  25              	doTargetInfoMenu:
  26              	.LFB71:
  27              		.file 1 "userMenuPatternSewingMachine.c"
   1:userMenuPatternSewingMachine.c **** /* ========================================
   2:userMenuPatternSewingMachine.c ****  *
   3:userMenuPatternSewingMachine.c ****  * Copyright Suntech, 2023.02.01
   4:userMenuPatternSewingMachine.c ****  * All Rights Reserved
   5:userMenuPatternSewingMachine.c ****  * UNPUBLISHED, LICENSED SOFTWARE.
   6:userMenuPatternSewingMachine.c ****  *
   7:userMenuPatternSewingMachine.c ****  * CONFIDENTIAL AND PROPRIETARY INFORMATION
   8:userMenuPatternSewingMachine.c ****  * WHICH IS THE PROPERTY OF Suntech.
   9:userMenuPatternSewingMachine.c ****  *
  10:userMenuPatternSewingMachine.c ****  * ========================================
  11:userMenuPatternSewingMachine.c **** */
  12:userMenuPatternSewingMachine.c **** //#include "userMenu.h"
  13:userMenuPatternSewingMachine.c **** #include "lib/widget.h"
  14:userMenuPatternSewingMachine.c **** #include "lib/image.h"
  15:userMenuPatternSewingMachine.c **** #include "lib/externalFlash.h"
  16:userMenuPatternSewingMachine.c **** #include "lib/internalFlash.h"
  17:userMenuPatternSewingMachine.c **** #include "menuDesign.h"
  18:userMenuPatternSewingMachine.c **** #include "package.h"
  19:userMenuPatternSewingMachine.c **** ///#include "WIFI.h"
  20:userMenuPatternSewingMachine.c **** #include "count.h"
  21:userMenuPatternSewingMachine.c **** 
  22:userMenuPatternSewingMachine.c **** #ifdef USER_PROJECT_PATTERN_SEWING_MACHINE
  23:userMenuPatternSewingMachine.c **** 
  24:userMenuPatternSewingMachine.c **** #include "userProjectPatternSewing.h"
  25:userMenuPatternSewingMachine.c **** #include "lib/manageMenu.h"
  26:userMenuPatternSewingMachine.c **** #include "andonMenu.h"
  27:userMenuPatternSewingMachine.c ****     
  28:userMenuPatternSewingMachine.c **** char *g_patternString[] = {"Target", "Actual", "Rate", "CT", "RT", "SQ", "SL", "SPI"};
  29:userMenuPatternSewingMachine.c **** uint8 g_noPatternString = 8;
  30:userMenuPatternSewingMachine.c **** 
ARM GAS  C:\Users\luvsd\AppData\Local\Temp\ccQgKjek.s 			page 2


  31:userMenuPatternSewingMachine.c **** //////////////////////
  32:userMenuPatternSewingMachine.c **** //// doTopMenu    ////
  33:userMenuPatternSewingMachine.c **** //////////////////////
  34:userMenuPatternSewingMachine.c **** void DisplayDoTopMenu(MONITORING_MENU *menu);
  35:userMenuPatternSewingMachine.c **** void TopMenuPageUpdate(MONITORING_MENU *menu, uint8 page);
  36:userMenuPatternSewingMachine.c **** void TopMenuPageUpdateValue(MONITORING_MENU *menu, uint8 page);
  37:userMenuPatternSewingMachine.c **** 
  38:userMenuPatternSewingMachine.c **** int doTopMenu(void *this, uint8 reflash)
  39:userMenuPatternSewingMachine.c **** {    
  40:userMenuPatternSewingMachine.c ****     MENUNODE *thisMenu = (MENUNODE *) this;    
  41:userMenuPatternSewingMachine.c ****     static MONITORING_MENU menu;
  42:userMenuPatternSewingMachine.c ****     static uint8 patternPage = 0;
  43:userMenuPatternSewingMachine.c ****     static uint8 sewingPage = 0;
  44:userMenuPatternSewingMachine.c ****     static uint8 page = 0, oldPage = 0xFF;
  45:userMenuPatternSewingMachine.c **** 
  46:userMenuPatternSewingMachine.c ****     switch(reflash)
  47:userMenuPatternSewingMachine.c ****     {
  48:userMenuPatternSewingMachine.c ****         case TRUE: // ĒÖöļ®┤ņØ┤ ļ░öļĆöļĢī ņŗżĒ¢ē
  49:userMenuPatternSewingMachine.c ****             {
  50:userMenuPatternSewingMachine.c ****                 switch(g_ptrMachineParameter->machineType)
  51:userMenuPatternSewingMachine.c ****                 {
  52:userMenuPatternSewingMachine.c ****                     case PATTERN_MACHINE:  page = patternPage; break;
  53:userMenuPatternSewingMachine.c ****                     // case SEWING_MACHINE :  page = sewingPage;  break;
  54:userMenuPatternSewingMachine.c ****                 }
  55:userMenuPatternSewingMachine.c ****                 
  56:userMenuPatternSewingMachine.c ****                 oldPage = 0xFF;
  57:userMenuPatternSewingMachine.c ****                 g_updateCountMenu = TRUE;                
  58:userMenuPatternSewingMachine.c ****                 DisplayDoTopMenu(&menu);                
  59:userMenuPatternSewingMachine.c ****             }
  60:userMenuPatternSewingMachine.c ****             break;  
  61:userMenuPatternSewingMachine.c ****         
  62:userMenuPatternSewingMachine.c ****         case FALSE: // Cliking Check
  63:userMenuPatternSewingMachine.c ****             {
  64:userMenuPatternSewingMachine.c ****                 TOUCH tc = GetTouch();
  65:userMenuPatternSewingMachine.c ****                 if(tc.isClick == FALSE) break;
  66:userMenuPatternSewingMachine.c ****                 
  67:userMenuPatternSewingMachine.c ****                 switch(getIndexOfClickedButton(&tc, menu.btn,7))
  68:userMenuPatternSewingMachine.c ****                 {
  69:userMenuPatternSewingMachine.c ****                     case 0: return 2; break;
  70:userMenuPatternSewingMachine.c ****                     
  71:userMenuPatternSewingMachine.c ****                     case 1:
  72:userMenuPatternSewingMachine.c ****                     case 2:
  73:userMenuPatternSewingMachine.c ****                         switch(g_ptrMachineParameter->machineType)
  74:userMenuPatternSewingMachine.c ****                         {
  75:userMenuPatternSewingMachine.c ****                             case PATTERN_MACHINE:
  76:userMenuPatternSewingMachine.c ****                                 if     (page == 0) return 3;
  77:userMenuPatternSewingMachine.c ****                                 else if(page > 0 ) page--;
  78:userMenuPatternSewingMachine.c ****                                 break;
  79:userMenuPatternSewingMachine.c ****                             /* case SEWING_MACHINE :
  80:userMenuPatternSewingMachine.c ****                                 if     (page == 0) return 3;
  81:userMenuPatternSewingMachine.c ****                                 else if(page > 0 ) page--;
  82:userMenuPatternSewingMachine.c ****                                 break;  */                               
  83:userMenuPatternSewingMachine.c ****                         }
  84:userMenuPatternSewingMachine.c ****                         break;
  85:userMenuPatternSewingMachine.c ****                         
  86:userMenuPatternSewingMachine.c ****                     case 3:                        
  87:userMenuPatternSewingMachine.c ****                     case 4:
ARM GAS  C:\Users\luvsd\AppData\Local\Temp\ccQgKjek.s 			page 3


  88:userMenuPatternSewingMachine.c ****                         switch(g_ptrMachineParameter->machineType)
  89:userMenuPatternSewingMachine.c ****                         {
  90:userMenuPatternSewingMachine.c ****                             case PATTERN_MACHINE:
  91:userMenuPatternSewingMachine.c ****                                 if (page == 0) return 4;
  92:userMenuPatternSewingMachine.c ****                                 //else if(page > 0 ) page--;
  93:userMenuPatternSewingMachine.c ****                                 break;
  94:userMenuPatternSewingMachine.c ****                             /* case SEWING_MACHINE :
  95:userMenuPatternSewingMachine.c ****                                 if (page == 0) return 4;
  96:userMenuPatternSewingMachine.c ****                                 //else if(page > 0 ) page--;
  97:userMenuPatternSewingMachine.c ****                                 break; */                                
  98:userMenuPatternSewingMachine.c ****                         }                       
  99:userMenuPatternSewingMachine.c ****                         break;
 100:userMenuPatternSewingMachine.c ****                         
 101:userMenuPatternSewingMachine.c ****                     case 5:
 102:userMenuPatternSewingMachine.c ****                     case 6:
 103:userMenuPatternSewingMachine.c ****                         switch(g_ptrMachineParameter->machineType)
 104:userMenuPatternSewingMachine.c ****                         {
 105:userMenuPatternSewingMachine.c ****                             case PATTERN_MACHINE:
 106:userMenuPatternSewingMachine.c ****                                 if (page < 2)  page++;
 107:userMenuPatternSewingMachine.c ****                                 break;
 108:userMenuPatternSewingMachine.c ****                             /*case SEWING_MACHINE : // ņØ╝ļ░śņ×¼ļ┤ēĻĖ░ 1ĒÄśņØ┤ņ¦Ćļ¦ī ņé¼ņÜ®ņŗ£ ņŻ╝ņ
 109:userMenuPatternSewingMachine.c ****                                 if     (page < 1)  page++;
 110:userMenuPatternSewingMachine.c ****                                 break;*/                            
 111:userMenuPatternSewingMachine.c ****                         }
 112:userMenuPatternSewingMachine.c ****                         break;             
 113:userMenuPatternSewingMachine.c ****                     default:
 114:userMenuPatternSewingMachine.c ****                         switch(getIndexOfClickedButton(&tc,g_btnBottom,2))
 115:userMenuPatternSewingMachine.c ****                         {
 116:userMenuPatternSewingMachine.c ****                             case BOTTOM_LEFT:  return 0;
 117:userMenuPatternSewingMachine.c ****                             case BOTTOM_RIGHT: return 1;                            
 118:userMenuPatternSewingMachine.c ****                         }
 119:userMenuPatternSewingMachine.c ****                     break;
 120:userMenuPatternSewingMachine.c ****                 }
 121:userMenuPatternSewingMachine.c ****                 
 122:userMenuPatternSewingMachine.c ****             }
 123:userMenuPatternSewingMachine.c ****             break;
 124:userMenuPatternSewingMachine.c ****         default:
 125:userMenuPatternSewingMachine.c ****             g_updateCountMenu = TRUE;
 126:userMenuPatternSewingMachine.c ****             break;
 127:userMenuPatternSewingMachine.c ****     }
 128:userMenuPatternSewingMachine.c ****     
 129:userMenuPatternSewingMachine.c ****    if(oldPage != page || g_updateCountMenu == TRUE) TopMenuPageUpdate(&menu, page);
 130:userMenuPatternSewingMachine.c ****     
 131:userMenuPatternSewingMachine.c ****     oldPage = page;
 132:userMenuPatternSewingMachine.c ****     g_updateCountMenu = FALSE;
 133:userMenuPatternSewingMachine.c ****     return MENU_RETURN_THIS;    
 134:userMenuPatternSewingMachine.c **** }
 135:userMenuPatternSewingMachine.c **** 
 136:userMenuPatternSewingMachine.c **** void TopMenuPageUpdate(MONITORING_MENU *menu, uint8 page)
 137:userMenuPatternSewingMachine.c **** {
 138:userMenuPatternSewingMachine.c ****     switch(g_ptrMachineParameter->machineType)
 139:userMenuPatternSewingMachine.c ****     {
 140:userMenuPatternSewingMachine.c ****         case PATTERN_MACHINE:
 141:userMenuPatternSewingMachine.c ****         {
 142:userMenuPatternSewingMachine.c ****             switch(page)
 143:userMenuPatternSewingMachine.c ****             {
 144:userMenuPatternSewingMachine.c ****                 case 0:
ARM GAS  C:\Users\luvsd\AppData\Local\Temp\ccQgKjek.s 			page 4


 145:userMenuPatternSewingMachine.c ****                     SetButtonText(&menu->btn[1],g_patternString[0]);
 146:userMenuPatternSewingMachine.c ****                     SetButtonText(&menu->btn[3],g_patternString[1]);
 147:userMenuPatternSewingMachine.c ****                     SetButtonText(&menu->btn[5],g_patternString[2]);
 148:userMenuPatternSewingMachine.c ****                     break;
 149:userMenuPatternSewingMachine.c ****                 case 1:
 150:userMenuPatternSewingMachine.c ****                     SetButtonText(&menu->btn[1],g_patternString[3]);
 151:userMenuPatternSewingMachine.c ****                     SetButtonText(&menu->btn[3],g_patternString[4]);
 152:userMenuPatternSewingMachine.c ****                     SetButtonText(&menu->btn[5],g_patternString[2]);                    
 153:userMenuPatternSewingMachine.c ****                     break;
 154:userMenuPatternSewingMachine.c ****                 case 2:
 155:userMenuPatternSewingMachine.c ****                     SetButtonText(&menu->btn[1],g_patternString[5]);
 156:userMenuPatternSewingMachine.c ****                     SetButtonText(&menu->btn[3],g_patternString[6]);
 157:userMenuPatternSewingMachine.c ****                     SetButtonText(&menu->btn[5],g_patternString[7]);                      
 158:userMenuPatternSewingMachine.c ****                     break;
 159:userMenuPatternSewingMachine.c ****             }
 160:userMenuPatternSewingMachine.c ****         }
 161:userMenuPatternSewingMachine.c ****         break;
 162:userMenuPatternSewingMachine.c ****         /* case SEWING_MACHINE:
 163:userMenuPatternSewingMachine.c ****         {
 164:userMenuPatternSewingMachine.c ****             switch(page)
 165:userMenuPatternSewingMachine.c ****             {
 166:userMenuPatternSewingMachine.c ****                 case 0:
 167:userMenuPatternSewingMachine.c ****                     SetButtonText(&menu->btn[1],g_patternString[0]);
 168:userMenuPatternSewingMachine.c ****                     SetButtonText(&menu->btn[3],g_patternString[1]);
 169:userMenuPatternSewingMachine.c ****                     SetButtonText(&menu->btn[5],g_patternString[2]);
 170:userMenuPatternSewingMachine.c ****                     break;
 171:userMenuPatternSewingMachine.c ****                 case 1:   // ņØ╝ļ░śņ×¼ļ┤ēĻĖ░ 1ĒÄśņØ┤ņ¦Ćļ¦ī ņé¼ņÜ®ņŗ£ ņŻ╝ņäØ ņ▓śļ”¼.
 172:userMenuPatternSewingMachine.c ****                     SetButtonText(&menu->btn[1],g_patternString[3]);
 173:userMenuPatternSewingMachine.c ****                     SetButtonText(&menu->btn[3],g_patternString[4]);
 174:userMenuPatternSewingMachine.c ****                     SetButtonText(&menu->btn[5],g_patternString[5]);                    
 175:userMenuPatternSewingMachine.c ****                     break;     
 176:userMenuPatternSewingMachine.c ****             }
 177:userMenuPatternSewingMachine.c ****         }
 178:userMenuPatternSewingMachine.c ****         break; */        
 179:userMenuPatternSewingMachine.c ****     }
 180:userMenuPatternSewingMachine.c **** 
 181:userMenuPatternSewingMachine.c ****     //menu->btn[3].disable = TRUE; // for no click second line
 182:userMenuPatternSewingMachine.c ****     //menu->btn[4].disable = TRUE; // for no click second line 
 183:userMenuPatternSewingMachine.c ****         
 184:userMenuPatternSewingMachine.c ****     DrawButton(&menu->btn[1]);
 185:userMenuPatternSewingMachine.c ****     DrawButton(&menu->btn[3]);
 186:userMenuPatternSewingMachine.c ****     DrawButton(&menu->btn[5]); 
 187:userMenuPatternSewingMachine.c **** 
 188:userMenuPatternSewingMachine.c ****     TopMenuPageUpdateValue(menu,page);
 189:userMenuPatternSewingMachine.c ****     
 190:userMenuPatternSewingMachine.c **** }
 191:userMenuPatternSewingMachine.c **** 
 192:userMenuPatternSewingMachine.c **** void DisplayDoTopMenu(MONITORING_MENU *menu)
 193:userMenuPatternSewingMachine.c **** {
 194:userMenuPatternSewingMachine.c ****     /* BLACK_CPU: PATTERN_MACHINE Ļ│ĀņĀĢ */
 195:userMenuPatternSewingMachine.c ****     SetDrawMonitoringMenu(menu, "%d : %3.1f-Pair",
 196:userMenuPatternSewingMachine.c ****         g_ptrMachineParameter->patternPairCount, g_ptrMachineParameter->patternPair/10.);
 197:userMenuPatternSewingMachine.c **** 
 198:userMenuPatternSewingMachine.c ****     SetDrawBottomButtons("MENU", (g_ptrMachineParameter->andon_enable==TRUE ) ? "ANDON" : "RESET", 
 199:userMenuPatternSewingMachine.c **** }
 200:userMenuPatternSewingMachine.c **** 
 201:userMenuPatternSewingMachine.c **** void TopMenuPageUpdateValue(MONITORING_MENU *menu, uint8 page)
ARM GAS  C:\Users\luvsd\AppData\Local\Temp\ccQgKjek.s 			page 5


 202:userMenuPatternSewingMachine.c **** {
 203:userMenuPatternSewingMachine.c ****     BUTTON *btn;
 204:userMenuPatternSewingMachine.c ****     uint8 persent = FALSE;
 205:userMenuPatternSewingMachine.c ****     uint8 rate100 = FALSE;
 206:userMenuPatternSewingMachine.c ****     float spi = 0.0;
 207:userMenuPatternSewingMachine.c ****     COUNT *ptrCount = getCount();
 208:userMenuPatternSewingMachine.c ****     if((uint32) CONVERT_TO_4BYTE(ptrCount->patternNoStitchSumH,ptrCount->patternNoStitchSumL) > 0 &
 209:userMenuPatternSewingMachine.c ****        (uint32) CONVERT_TO_4BYTE(ptrCount->patternStitchLengthSumH,ptrCount->patternStitchLengthSum
 210:userMenuPatternSewingMachine.c ****     {
 211:userMenuPatternSewingMachine.c ****         spi = 25.4 / (((float) ((uint32) CONVERT_TO_4BYTE(ptrCount->patternStitchLengthSumH,ptrCoun
 212:userMenuPatternSewingMachine.c ****                       ((float) ((uint32) CONVERT_TO_4BYTE(ptrCount->patternNoStitchSumH,ptrCount->p
 213:userMenuPatternSewingMachine.c ****         
 214:userMenuPatternSewingMachine.c ****     }
 215:userMenuPatternSewingMachine.c ****     //printf("%lu, %lu\r\n", (uint32) CONVERT_TO_4BYTE(g_ptrCount->patternStitchLengthSumH,g_ptrCou
 216:userMenuPatternSewingMachine.c ****     
 217:userMenuPatternSewingMachine.c ****     /* BLACK_CPU: PATTERN_MACHINE Ļ│ĀņĀĢ */
 218:userMenuPatternSewingMachine.c ****     switch(page)
 219:userMenuPatternSewingMachine.c ****     {
 220:userMenuPatternSewingMachine.c ****         case 0:
 221:userMenuPatternSewingMachine.c ****             SetButtonText(&menu->btn[2],"%u",g_ptrMachineParameter->patternTarget);
 222:userMenuPatternSewingMachine.c ****             SetButtonText(&menu->btn[4],"%lu",   ((uint32) CONVERT_TO_4BYTE(ptrCount->patternActual
 223:userMenuPatternSewingMachine.c ****             SetButtonText(&menu->btn[6],"%4.1f",((uint32) CONVERT_TO_4BYTE(ptrCount->patternActualH
 224:userMenuPatternSewingMachine.c ****             if(strcmp("100.0",menu->btn[6].text)==0) rate100 = TRUE;
 225:userMenuPatternSewingMachine.c ****             persent = TRUE;
 226:userMenuPatternSewingMachine.c ****             break;
 227:userMenuPatternSewingMachine.c ****         case 1:
 228:userMenuPatternSewingMachine.c ****             SetButtonText(&menu->btn[2],"%0.1f",(uint32) CONVERT_TO_4BYTE(ptrCount->patternCycleTim
 229:userMenuPatternSewingMachine.c ****             SetButtonText(&menu->btn[4],"%0.1f",(uint32) CONVERT_TO_4BYTE(ptrCount->patternMotorRun
 230:userMenuPatternSewingMachine.c ****             SetButtonText(&menu->btn[6],"%4.1f",((uint32) CONVERT_TO_4BYTE(ptrCount->patternMotorRu
 231:userMenuPatternSewingMachine.c ****             persent = TRUE;
 232:userMenuPatternSewingMachine.c ****             break;
 233:userMenuPatternSewingMachine.c ****         case 2:
 234:userMenuPatternSewingMachine.c ****             SetButtonText(&menu->btn[2],"%lu",(uint32) CONVERT_TO_4BYTE(ptrCount->patternNoStitchSu
 235:userMenuPatternSewingMachine.c ****             SetButtonText(&menu->btn[4],"%lu",(uint32) CONVERT_TO_4BYTE(ptrCount->patternStitchLeng
 236:userMenuPatternSewingMachine.c ****             SetButtonText(&menu->btn[6],"%4.1f",spi);
 237:userMenuPatternSewingMachine.c ****             break;
 238:userMenuPatternSewingMachine.c ****     }
 239:userMenuPatternSewingMachine.c ****     
 240:userMenuPatternSewingMachine.c ****     DrawButton(&menu->btn[2]);
 241:userMenuPatternSewingMachine.c ****     DrawButton(&menu->btn[4]);
 242:userMenuPatternSewingMachine.c ****     DrawButton(&menu->btn[6]);
 243:userMenuPatternSewingMachine.c ****     
 244:userMenuPatternSewingMachine.c ****     ///if(rate100) Buzzer(BUZZER_WARNING_CONTINUOUS,0);
 245:userMenuPatternSewingMachine.c ****     
 246:userMenuPatternSewingMachine.c ****     if( persent)
 247:userMenuPatternSewingMachine.c ****     {
 248:userMenuPatternSewingMachine.c ****         BUTTON *b = &menu->btn[6];
 249:userMenuPatternSewingMachine.c ****         LCD_DrawFont(b->rect.right-16,(b->rect.top+b->rect.bottom)*.5-10,b->foregroundColor,b->back
 250:userMenuPatternSewingMachine.c ****     }
 251:userMenuPatternSewingMachine.c **** }
 252:userMenuPatternSewingMachine.c **** 
 253:userMenuPatternSewingMachine.c **** /////////////////////////
 254:userMenuPatternSewingMachine.c **** //// doPairsInfoMenu ////
 255:userMenuPatternSewingMachine.c **** /////////////////////////
 256:userMenuPatternSewingMachine.c **** void DisplayDoPairsInfoMenu(UP_DOWN_TWO_MENU *menu);
 257:userMenuPatternSewingMachine.c **** void DisplayDoPairsInfoMenuSelectValue(UP_DOWN_TWO_MENU *menu, uint8 selectValue, uint16 leftValue,
 258:userMenuPatternSewingMachine.c **** void DisplayDoPairsInfoMenuLeftValueChange(UP_DOWN_TWO_MENU *menu, uint16 leftValue);
ARM GAS  C:\Users\luvsd\AppData\Local\Temp\ccQgKjek.s 			page 6


 259:userMenuPatternSewingMachine.c **** void DisplayDoPairsInfoMenuRightValueChange(UP_DOWN_TWO_MENU *menu, uint16 rightValue); // rightVal
 260:userMenuPatternSewingMachine.c **** 
 261:userMenuPatternSewingMachine.c **** int doPairsInfoMenu(void *this, uint8 reflash)
 262:userMenuPatternSewingMachine.c **** {    
 263:userMenuPatternSewingMachine.c ****     MENUNODE *thisMenu = (MENUNODE *) this;    
 264:userMenuPatternSewingMachine.c ****     static UP_DOWN_TWO_MENU menu;    
 265:userMenuPatternSewingMachine.c ****     static uint16 selectValue = 0;
 266:userMenuPatternSewingMachine.c ****     static uint16 leftValue = 2;
 267:userMenuPatternSewingMachine.c ****     static uint16  rightValue = 25;
 268:userMenuPatternSewingMachine.c **** 
 269:userMenuPatternSewingMachine.c ****     switch(reflash)
 270:userMenuPatternSewingMachine.c ****     {
 271:userMenuPatternSewingMachine.c ****         case TRUE: // ĒÖöļ®┤ņØ┤ ļ░öļĆöļĢī ņŗżĒ¢ē
 272:userMenuPatternSewingMachine.c ****             {
 273:userMenuPatternSewingMachine.c ****                 DisplayDoPairsInfoMenu(&menu);
 274:userMenuPatternSewingMachine.c ****                 
 275:userMenuPatternSewingMachine.c ****                 /* BLACK_CPU: PATTERN_MACHINE Ļ│ĀņĀĢ */
 276:userMenuPatternSewingMachine.c ****                 leftValue  = g_ptrMachineParameter->patternPairCount;
 277:userMenuPatternSewingMachine.c ****                 rightValue = g_ptrMachineParameter->patternPair;
 278:userMenuPatternSewingMachine.c ****     
 279:userMenuPatternSewingMachine.c ****                 DisplayDoPairsInfoMenuSelectValue(&menu, selectValue, leftValue, rightValue);
 280:userMenuPatternSewingMachine.c ****             }
 281:userMenuPatternSewingMachine.c ****             break;  
 282:userMenuPatternSewingMachine.c **** 
 283:userMenuPatternSewingMachine.c ****         case FALSE: // Cliking Check
 284:userMenuPatternSewingMachine.c ****             {
 285:userMenuPatternSewingMachine.c ****                 TOUCH tc = GetTouch();
 286:userMenuPatternSewingMachine.c ****                 if(tc.isClick == FALSE) break;
 287:userMenuPatternSewingMachine.c ****                 uint16 indexClick = getIndexOfClickedButton(&tc, menu.btn,7);
 288:userMenuPatternSewingMachine.c ****                 switch(indexClick)
 289:userMenuPatternSewingMachine.c ****                 {
 290:userMenuPatternSewingMachine.c ****                     case UPDOWNTWO_FIRST_TEXT:  // left
 291:userMenuPatternSewingMachine.c ****                     case UPDOWNTWO_FIRST_VALUE:
 292:userMenuPatternSewingMachine.c ****                         selectValue = 0;
 293:userMenuPatternSewingMachine.c ****                         DisplayDoPairsInfoMenuSelectValue(&menu,selectValue, leftValue, rightValue)
 294:userMenuPatternSewingMachine.c ****                         break;
 295:userMenuPatternSewingMachine.c ****                     case UPDOWNTWO_SECOND_TEXT:  // right
 296:userMenuPatternSewingMachine.c ****                     case UPDOWNTWO_SECOND_VALUE:
 297:userMenuPatternSewingMachine.c ****                         selectValue = 1;
 298:userMenuPatternSewingMachine.c ****                         DisplayDoPairsInfoMenuSelectValue(&menu,selectValue, leftValue, rightValue)
 299:userMenuPatternSewingMachine.c ****                         break;                    
 300:userMenuPatternSewingMachine.c ****                     case UPDOWNTWO_UP_BUTTON: // for up
 301:userMenuPatternSewingMachine.c ****                         if      (selectValue==0 && leftValue < 10000)
 302:userMenuPatternSewingMachine.c ****                         {
 303:userMenuPatternSewingMachine.c ****                             leftValue++;
 304:userMenuPatternSewingMachine.c ****                             DisplayDoPairsInfoMenuLeftValueChange(&menu,leftValue);
 305:userMenuPatternSewingMachine.c ****                         }
 306:userMenuPatternSewingMachine.c ****                         else if (selectValue==1 && rightValue < 10000)
 307:userMenuPatternSewingMachine.c ****                         {
 308:userMenuPatternSewingMachine.c ****                             rightValue++;
 309:userMenuPatternSewingMachine.c ****                             DisplayDoPairsInfoMenuRightValueChange(&menu,rightValue);
 310:userMenuPatternSewingMachine.c ****                         }
 311:userMenuPatternSewingMachine.c ****                         break;                       
 312:userMenuPatternSewingMachine.c ****                     case UPDOWNTWO_DOWN_BUTTON: // for down
 313:userMenuPatternSewingMachine.c ****                         if      (selectValue==0 && leftValue > 1)
 314:userMenuPatternSewingMachine.c ****                         {
 315:userMenuPatternSewingMachine.c ****                             leftValue--;
ARM GAS  C:\Users\luvsd\AppData\Local\Temp\ccQgKjek.s 			page 7


 316:userMenuPatternSewingMachine.c ****                             DisplayDoPairsInfoMenuLeftValueChange(&menu,leftValue);
 317:userMenuPatternSewingMachine.c ****                         }                        
 318:userMenuPatternSewingMachine.c ****                         else if (selectValue==1 && rightValue > 1) 
 319:userMenuPatternSewingMachine.c ****                         {
 320:userMenuPatternSewingMachine.c ****                             rightValue--;
 321:userMenuPatternSewingMachine.c ****                             DisplayDoPairsInfoMenuRightValueChange(&menu,rightValue);
 322:userMenuPatternSewingMachine.c ****                         }                 
 323:userMenuPatternSewingMachine.c ****                         break;                    
 324:userMenuPatternSewingMachine.c ****                     default:
 325:userMenuPatternSewingMachine.c ****                         switch(getIndexOfClickedButton(&tc,g_btnBottom,2))
 326:userMenuPatternSewingMachine.c ****                         {
 327:userMenuPatternSewingMachine.c ****                             case BOTTOM_LEFT:  return MENU_RETURN_PARENT;
 328:userMenuPatternSewingMachine.c ****                             case BOTTOM_RIGHT:
 329:userMenuPatternSewingMachine.c ****                             {
 330:userMenuPatternSewingMachine.c ****                                 /* BLACK_CPU: PATTERN_MACHINE Ļ│ĀņĀĢ */
 331:userMenuPatternSewingMachine.c ****                                 g_ptrMachineParameter->patternPairCount = leftValue;
 332:userMenuPatternSewingMachine.c ****                                 g_ptrMachineParameter->patternPair      = rightValue;
 333:userMenuPatternSewingMachine.c ****                                 ShowWaitMessage();
 334:userMenuPatternSewingMachine.c ****                                 SaveExternalFlashConfig();
 335:userMenuPatternSewingMachine.c ****                                 return MENU_RETURN_PARENT;
 336:userMenuPatternSewingMachine.c ****                             }
 337:userMenuPatternSewingMachine.c ****                         }
 338:userMenuPatternSewingMachine.c ****                     break;
 339:userMenuPatternSewingMachine.c ****                 }                                  
 340:userMenuPatternSewingMachine.c ****             }
 341:userMenuPatternSewingMachine.c ****             break;
 342:userMenuPatternSewingMachine.c ****     }
 343:userMenuPatternSewingMachine.c ****     return MENU_RETURN_THIS;    
 344:userMenuPatternSewingMachine.c **** }
 345:userMenuPatternSewingMachine.c **** 
 346:userMenuPatternSewingMachine.c **** void DisplayDoPairsInfoMenu(UP_DOWN_TWO_MENU *menu)
 347:userMenuPatternSewingMachine.c **** {
 348:userMenuPatternSewingMachine.c ****     /* BLACK_CPU: PATTERN_MACHINE Ļ│ĀņĀĢ */
 349:userMenuPatternSewingMachine.c ****     SetDrawUpDownTwoMenu(menu, "Count", "Pair(s)", "Pairs info.");
 350:userMenuPatternSewingMachine.c **** 
 351:userMenuPatternSewingMachine.c ****     menu->btn[0].disable = TRUE; // for no click title
 352:userMenuPatternSewingMachine.c **** 
 353:userMenuPatternSewingMachine.c ****     SetDrawBottomButtons("QUIT", "SAVE", BUTTON_STYLE_R_GREEN, BUTTON_STYLE_R_BLUE);
 354:userMenuPatternSewingMachine.c **** }
 355:userMenuPatternSewingMachine.c **** 
 356:userMenuPatternSewingMachine.c **** void DisplayDoPairsInfoMenuSelectValue(UP_DOWN_TWO_MENU *menu, uint8 selectValue, uint16 firstValue
 357:userMenuPatternSewingMachine.c **** {
 358:userMenuPatternSewingMachine.c ****     SetButtonStyleColor(&menu->btn[UPDOWNTWO_FIRST_TEXT],  (selectValue==0) ? BUTTON_STYLE_WHITE : 
 359:userMenuPatternSewingMachine.c ****     SetButtonStyleColor(&menu->btn[UPDOWNTWO_FIRST_VALUE], (selectValue==0) ? BUTTON_STYLE_YELLOW: 
 360:userMenuPatternSewingMachine.c ****     SetButtonStyleColor(&menu->btn[UPDOWNTWO_SECOND_TEXT], (selectValue==1) ? BUTTON_STYLE_WHITE : 
 361:userMenuPatternSewingMachine.c ****     SetButtonStyleColor(&menu->btn[UPDOWNTWO_SECOND_VALUE],(selectValue==1) ? BUTTON_STYLE_YELLOW: 
 362:userMenuPatternSewingMachine.c ****     
 363:userMenuPatternSewingMachine.c ****     DrawButton(&menu->btn[UPDOWNTWO_FIRST_TEXT]);
 364:userMenuPatternSewingMachine.c ****     DrawButton(&menu->btn[UPDOWNTWO_SECOND_TEXT]);
 365:userMenuPatternSewingMachine.c ****     
 366:userMenuPatternSewingMachine.c ****     DisplayDoPairsInfoMenuLeftValueChange(menu,firstValue);
 367:userMenuPatternSewingMachine.c ****     DisplayDoPairsInfoMenuRightValueChange(menu,secondValue);    
 368:userMenuPatternSewingMachine.c **** }
 369:userMenuPatternSewingMachine.c **** void DisplayDoPairsInfoMenuLeftValueChange(UP_DOWN_TWO_MENU *menu, uint16 value)
 370:userMenuPatternSewingMachine.c **** {  
 371:userMenuPatternSewingMachine.c ****     SetButtonText(&menu->btn[UPDOWNTWO_FIRST_VALUE],"%d",value);    // left value   
 372:userMenuPatternSewingMachine.c ****     DrawButton(&menu->btn[UPDOWNTWO_FIRST_VALUE]);
ARM GAS  C:\Users\luvsd\AppData\Local\Temp\ccQgKjek.s 			page 8


 373:userMenuPatternSewingMachine.c **** }
 374:userMenuPatternSewingMachine.c **** void DisplayDoPairsInfoMenuRightValueChange(UP_DOWN_TWO_MENU *menu, uint16 value)
 375:userMenuPatternSewingMachine.c **** {
 376:userMenuPatternSewingMachine.c ****     SetButtonText(&menu->btn[UPDOWNTWO_SECOND_VALUE],"%3.1f",value/10.); // right value   
 377:userMenuPatternSewingMachine.c ****     DrawButton(&menu->btn[UPDOWNTWO_SECOND_VALUE]);     
 378:userMenuPatternSewingMachine.c **** }
 379:userMenuPatternSewingMachine.c **** int doTargetInfoMenu(void *this, uint8 reflash)
 380:userMenuPatternSewingMachine.c **** {
  28              		.loc 1 380 0
  29              		.cfi_startproc
  30              		@ args = 0, pretend = 0, frame = 0
  31              		@ frame_needed = 0, uses_anonymous_args = 0
  32              	.LVL0:
  33 0000 00B5     		push	{lr}
  34              		.cfi_def_cfa_offset 4
  35              		.cfi_offset 14, -4
  36 0002 85B0     		sub	sp, sp, #20
  37              		.cfi_def_cfa_offset 24
  38 0004 0800     		movs	r0, r1
  39              	.LVL1:
 381:userMenuPatternSewingMachine.c ****     MENUNODE *thisMenu = (MENUNODE *) this;
 382:userMenuPatternSewingMachine.c ****     static char *strTitle = "Target info.";
 383:userMenuPatternSewingMachine.c ****     static char *strValue = "Target";
 384:userMenuPatternSewingMachine.c ****     static int32 minValue = 0, maxValue = 99999;
 385:userMenuPatternSewingMachine.c ****     static int32 incr[] = {1, 100, 500};
 386:userMenuPatternSewingMachine.c ****     static uint16 selectIncre = 0;
 387:userMenuPatternSewingMachine.c ****     static int32 value = 0;
 388:userMenuPatternSewingMachine.c **** 
 389:userMenuPatternSewingMachine.c ****     switch(doIncreseNumberMenu(reflash, strTitle, strValue, incr, &value, minValue, maxValue, &sele
  40              		.loc 1 389 0
  41 0006 104B     		ldr	r3, .L7
  42 0008 0393     		str	r3, [sp, #12]
  43 000a 104A     		ldr	r2, .L7+4
  44 000c 0292     		str	r2, [sp, #8]
  45 000e 0022     		movs	r2, #0
  46 0010 0192     		str	r2, [sp, #4]
  47 0012 0433     		adds	r3, r3, #4
  48 0014 0093     		str	r3, [sp]
  49 0016 0E4B     		ldr	r3, .L7+8
  50 0018 0E4A     		ldr	r2, .L7+12
  51 001a 0F49     		ldr	r1, .L7+16
  52              	.LVL2:
  53 001c FFF7FEFF 		bl	doIncreseNumberMenu
  54              	.LVL3:
  55 0020 0E4B     		ldr	r3, .L7+20
  56 0022 9842     		cmp	r0, r3
  57 0024 03D0     		beq	.L3
  58 0026 0E4B     		ldr	r3, .L7+24
  59 0028 9842     		cmp	r0, r3
  60 002a 03D0     		beq	.L4
  61 002c 09E0     		b	.L6
  62              	.L3:
 390:userMenuPatternSewingMachine.c ****     {
 391:userMenuPatternSewingMachine.c ****         case MENU_BOTTOM_LEFT:
 392:userMenuPatternSewingMachine.c ****             return MENU_RETURN_PARENT;
  63              		.loc 1 392 0
  64 002e 8020     		movs	r0, #128
ARM GAS  C:\Users\luvsd\AppData\Local\Temp\ccQgKjek.s 			page 9


  65 0030 0006     		lsls	r0, r0, #24
  66 0032 07E0     		b	.L2
  67              	.L4:
 393:userMenuPatternSewingMachine.c ****         case MENU_BOTTOM_RIGHT:
 394:userMenuPatternSewingMachine.c ****             ShowWaitMessage();
  68              		.loc 1 394 0
  69 0034 FFF7FEFF 		bl	ShowWaitMessage
  70              	.LVL4:
 395:userMenuPatternSewingMachine.c ****             SaveExternalFlashConfig();
  71              		.loc 1 395 0
  72 0038 FFF7FEFF 		bl	SaveExternalFlashConfig
  73              	.LVL5:
 396:userMenuPatternSewingMachine.c ****             return MENU_RETURN_PARENT;
  74              		.loc 1 396 0
  75 003c 8020     		movs	r0, #128
  76 003e 0006     		lsls	r0, r0, #24
  77 0040 00E0     		b	.L2
  78              	.L6:
 397:userMenuPatternSewingMachine.c ****     }
 398:userMenuPatternSewingMachine.c ****     return MENU_RETURN_THIS;
  79              		.loc 1 398 0
  80 0042 0848     		ldr	r0, .L7+28
  81              	.L2:
 399:userMenuPatternSewingMachine.c **** }
  82              		.loc 1 399 0
  83 0044 05B0     		add	sp, sp, #20
  84              		@ sp needed
  85 0046 00BD     		pop	{pc}
  86              	.L8:
  87              		.align	2
  88              	.L7:
  89 0048 00000000 		.word	.LANCHOR1
  90 004c 9F860100 		.word	99999
  91 0050 00000000 		.word	.LANCHOR0
  92 0054 00000000 		.word	.LC1
  93 0058 08000000 		.word	.LC3
  94 005c 03000080 		.word	-2147483645
  95 0060 04000080 		.word	-2147483644
  96 0064 01000080 		.word	-2147483647
  97              		.cfi_endproc
  98              	.LFE71:
  99              		.size	doTargetInfoMenu, .-doTargetInfoMenu
 100              		.global	__aeabi_uidiv
 101              		.section	.text.doActualInfoMenu,"ax",%progbits
 102              		.align	2
 103              		.global	doActualInfoMenu
 104              		.code	16
 105              		.thumb_func
 106              		.type	doActualInfoMenu, %function
 107              	doActualInfoMenu:
 108              	.LFB72:
 400:userMenuPatternSewingMachine.c **** 
 401:userMenuPatternSewingMachine.c **** //////////////////////////
 402:userMenuPatternSewingMachine.c **** //// doActualInfoMenu ////
 403:userMenuPatternSewingMachine.c **** //////////////////////////
 404:userMenuPatternSewingMachine.c **** int doActualInfoMenu(void *this, uint8 reflash)
 405:userMenuPatternSewingMachine.c **** {
ARM GAS  C:\Users\luvsd\AppData\Local\Temp\ccQgKjek.s 			page 10


 109              		.loc 1 405 0
 110              		.cfi_startproc
 111              		@ args = 0, pretend = 0, frame = 0
 112              		@ frame_needed = 0, uses_anonymous_args = 0
 113              	.LVL6:
 114 0000 30B5     		push	{r4, r5, lr}
 115              		.cfi_def_cfa_offset 12
 116              		.cfi_offset 4, -12
 117              		.cfi_offset 5, -8
 118              		.cfi_offset 14, -4
 119 0002 85B0     		sub	sp, sp, #20
 120              		.cfi_def_cfa_offset 32
 121 0004 0C00     		movs	r4, r1
 122              	.LVL7:
 406:userMenuPatternSewingMachine.c ****     MENUNODE *thisMenu = (MENUNODE *) this;
 407:userMenuPatternSewingMachine.c ****     static char *strTitle = "Actual Q'ty";
 408:userMenuPatternSewingMachine.c ****     static char *strValue = "Value";
 409:userMenuPatternSewingMachine.c ****     static int32 minValue = 0, maxValue = 99999;
 410:userMenuPatternSewingMachine.c ****     static int32 incr[] ={1, 10, 100};
 411:userMenuPatternSewingMachine.c ****     
 412:userMenuPatternSewingMachine.c ****     static uint16 selectIncre = 0;
 413:userMenuPatternSewingMachine.c ****     static int32 value = 0;
 414:userMenuPatternSewingMachine.c ****     COUNT *ptrCount = getCount();
 123              		.loc 1 414 0
 124 0006 FFF7FEFF 		bl	getCount
 125              	.LVL8:
 126 000a 0500     		movs	r5, r0
 127              	.LVL9:
 415:userMenuPatternSewingMachine.c ****     
 416:userMenuPatternSewingMachine.c ****     switch(reflash)
 128              		.loc 1 416 0
 129 000c 012C     		cmp	r4, #1
 130 000e 08D1     		bne	.L10
 417:userMenuPatternSewingMachine.c ****     {
 418:userMenuPatternSewingMachine.c ****         case TRUE: // ĒÖöļ®┤ņØ┤ ļ░öļĆöļĢī ņŗżĒ¢ē
 419:userMenuPatternSewingMachine.c ****             {
 420:userMenuPatternSewingMachine.c ****                 /* BLACK_CPU: PATTERN_MACHINE Ļ│ĀņĀĢ */
 421:userMenuPatternSewingMachine.c ****                 value = (uint32) CONVERT_TO_4BYTE(ptrCount->patternActualH, ptrCount->patternActual
 131              		.loc 1 421 0
 132 0010 808B     		ldrh	r0, [r0, #28]
 133              	.LVL10:
 134 0012 0004     		lsls	r0, r0, #16
 135 0014 EB8B     		ldrh	r3, [r5, #30]
 136 0016 1843     		orrs	r0, r3
 137 0018 0A21     		movs	r1, #10
 138 001a FFF7FEFF 		bl	__aeabi_uidiv
 139              	.LVL11:
 140 001e 174B     		ldr	r3, .L17
 141 0020 9860     		str	r0, [r3, #8]
 142              	.L10:
 422:userMenuPatternSewingMachine.c ****             }
 423:userMenuPatternSewingMachine.c ****             break;
 424:userMenuPatternSewingMachine.c ****     }
 425:userMenuPatternSewingMachine.c **** 
 426:userMenuPatternSewingMachine.c ****     switch(doIncreseNumberMenu(reflash, strTitle, strValue, incr, &value, minValue, maxValue, &sele
 143              		.loc 1 426 0
 144 0022 164B     		ldr	r3, .L17
ARM GAS  C:\Users\luvsd\AppData\Local\Temp\ccQgKjek.s 			page 11


 145 0024 1A00     		movs	r2, r3
 146 0026 0C32     		adds	r2, r2, #12
 147 0028 0392     		str	r2, [sp, #12]
 148 002a 154A     		ldr	r2, .L17+4
 149 002c 0292     		str	r2, [sp, #8]
 150 002e 0022     		movs	r2, #0
 151 0030 0192     		str	r2, [sp, #4]
 152 0032 0833     		adds	r3, r3, #8
 153 0034 0093     		str	r3, [sp]
 154 0036 134B     		ldr	r3, .L17+8
 155 0038 0C33     		adds	r3, r3, #12
 156 003a 134A     		ldr	r2, .L17+12
 157 003c 1349     		ldr	r1, .L17+16
 158 003e 2000     		movs	r0, r4
 159 0040 FFF7FEFF 		bl	doIncreseNumberMenu
 160              	.LVL12:
 161 0044 124B     		ldr	r3, .L17+20
 162 0046 9842     		cmp	r0, r3
 163 0048 03D0     		beq	.L13
 164 004a 124B     		ldr	r3, .L17+24
 165 004c 9842     		cmp	r0, r3
 166 004e 03D0     		beq	.L14
 167 0050 10E0     		b	.L16
 168              	.L13:
 427:userMenuPatternSewingMachine.c ****     {
 428:userMenuPatternSewingMachine.c ****     case MENU_BOTTOM_LEFT:
 429:userMenuPatternSewingMachine.c ****         return MENU_RETURN_PARENT;
 169              		.loc 1 429 0
 170 0052 8020     		movs	r0, #128
 171 0054 0006     		lsls	r0, r0, #24
 172 0056 0EE0     		b	.L12
 173              	.L14:
 430:userMenuPatternSewingMachine.c ****         break;
 431:userMenuPatternSewingMachine.c ****     case MENU_BOTTOM_RIGHT:
 432:userMenuPatternSewingMachine.c ****         {
 433:userMenuPatternSewingMachine.c ****             /* BLACK_CPU: PATTERN_MACHINE Ļ│ĀņĀĢ */
 434:userMenuPatternSewingMachine.c ****             ptrCount->patternActualH = CONVERT_TO_HIGH(value*10);
 174              		.loc 1 434 0
 175 0058 084B     		ldr	r3, .L17
 176 005a 9A68     		ldr	r2, [r3, #8]
 177 005c 9100     		lsls	r1, r2, #2
 178 005e 8918     		adds	r1, r1, r2
 179 0060 4B00     		lsls	r3, r1, #1
 180 0062 1900     		movs	r1, r3
 181 0064 1B0C     		lsrs	r3, r3, #16
 182 0066 AB83     		strh	r3, [r5, #28]
 435:userMenuPatternSewingMachine.c ****             ptrCount->patternActualL = CONVERT_TO_LOW(value*10);
 183              		.loc 1 435 0
 184 0068 E983     		strh	r1, [r5, #30]
 436:userMenuPatternSewingMachine.c ****             SaveInternalFlash();
 185              		.loc 1 436 0
 186 006a FFF7FEFF 		bl	SaveInternalFlash
 187              	.LVL13:
 437:userMenuPatternSewingMachine.c ****             return MENU_RETURN_PARENT;
 188              		.loc 1 437 0
 189 006e 8020     		movs	r0, #128
 190 0070 0006     		lsls	r0, r0, #24
ARM GAS  C:\Users\luvsd\AppData\Local\Temp\ccQgKjek.s 			page 12


 191 0072 00E0     		b	.L12
 192              	.L16:
 438:userMenuPatternSewingMachine.c ****         }
 439:userMenuPatternSewingMachine.c ****         break;
 440:userMenuPatternSewingMachine.c ****     }
 441:userMenuPatternSewingMachine.c ****     return MENU_RETURN_THIS;    
 193              		.loc 1 441 0
 194 0074 0848     		ldr	r0, .L17+28
 195              	.L12:
 442:userMenuPatternSewingMachine.c **** }
 196              		.loc 1 442 0
 197 0076 05B0     		add	sp, sp, #20
 198              		@ sp needed
 199              	.LVL14:
 200 0078 30BD     		pop	{r4, r5, pc}
 201              	.L18:
 202 007a C046     		.align	2
 203              	.L17:
 204 007c 00000000 		.word	.LANCHOR1
 205 0080 9F860100 		.word	99999
 206 0084 00000000 		.word	.LANCHOR0
 207 0088 18000000 		.word	.LC9
 208 008c 20000000 		.word	.LC11
 209 0090 03000080 		.word	-2147483645
 210 0094 04000080 		.word	-2147483644
 211 0098 01000080 		.word	-2147483647
 212              		.cfi_endproc
 213              	.LFE72:
 214              		.size	doActualInfoMenu, .-doActualInfoMenu
 215              		.section	.text.doResetData,"ax",%progbits
 216              		.align	2
 217              		.global	doResetData
 218              		.code	16
 219              		.thumb_func
 220              		.type	doResetData, %function
 221              	doResetData:
 222              	.LFB74:
 443:userMenuPatternSewingMachine.c **** 
 444:userMenuPatternSewingMachine.c **** ///////////////////
 445:userMenuPatternSewingMachine.c **** //// doMachine ////
 446:userMenuPatternSewingMachine.c **** ///////////////////
 447:userMenuPatternSewingMachine.c **** int doMachine(void *this, uint8 reflash)
 448:userMenuPatternSewingMachine.c **** {    
 449:userMenuPatternSewingMachine.c ****     MENUNODE *thisMenu = (MENUNODE *) this;    
 450:userMenuPatternSewingMachine.c ****     //static LIST_MENU menu;
 451:userMenuPatternSewingMachine.c ****     static char *listText[] = {"PATTERN", "SEWING"};
 452:userMenuPatternSewingMachine.c ****     static uint16 indexSelect = 0;
 453:userMenuPatternSewingMachine.c ****     static uint16 displayDir;
 454:userMenuPatternSewingMachine.c ****     static uint16 page = 0;
 455:userMenuPatternSewingMachine.c ****     
 456:userMenuPatternSewingMachine.c ****     if(reflash)
 457:userMenuPatternSewingMachine.c ****     {
 458:userMenuPatternSewingMachine.c ****         indexSelect = g_ptrMachineParameter->machineType;
 459:userMenuPatternSewingMachine.c ****         displayDir  = getMiscConfig()->bDisplayDir;  
 460:userMenuPatternSewingMachine.c ****     }
 461:userMenuPatternSewingMachine.c ****     
 462:userMenuPatternSewingMachine.c ****     switch(doSelectList(this, reflash, listText, 2, &indexSelect, &page))
ARM GAS  C:\Users\luvsd\AppData\Local\Temp\ccQgKjek.s 			page 13


 463:userMenuPatternSewingMachine.c ****     {
 464:userMenuPatternSewingMachine.c ****         case 0:
 465:userMenuPatternSewingMachine.c ****             setDisplayDirection(DISPLAY_DIRECTION_PORTRAIT);         
 466:userMenuPatternSewingMachine.c ****             doSelectList(this, TRUE, listText, 2, &indexSelect, &page);
 467:userMenuPatternSewingMachine.c ****             break;
 468:userMenuPatternSewingMachine.c ****         case 1:
 469:userMenuPatternSewingMachine.c ****             setDisplayDirection(DISPLAY_DIRECTION_LANDSCAPE);
 470:userMenuPatternSewingMachine.c ****             doSelectList(this, TRUE, listText, 2, &indexSelect, &page);
 471:userMenuPatternSewingMachine.c ****             break; 
 472:userMenuPatternSewingMachine.c ****         case MENU_BOTTOM_LEFT:
 473:userMenuPatternSewingMachine.c ****         {
 474:userMenuPatternSewingMachine.c ****             switch(g_ptrMachineParameter->machineType)
 475:userMenuPatternSewingMachine.c ****             {
 476:userMenuPatternSewingMachine.c ****                 case 0: setDisplayDirection(DISPLAY_DIRECTION_PORTRAIT);  break;
 477:userMenuPatternSewingMachine.c ****                 case 1: setDisplayDirection(DISPLAY_DIRECTION_LANDSCAPE); break;
 478:userMenuPatternSewingMachine.c ****             }      
 479:userMenuPatternSewingMachine.c ****             return MENU_RETURN_PARENT;
 480:userMenuPatternSewingMachine.c ****         }
 481:userMenuPatternSewingMachine.c ****         case MENU_BOTTOM_RIGHT:
 482:userMenuPatternSewingMachine.c ****         {
 483:userMenuPatternSewingMachine.c ****             g_ptrMachineParameter->machineType = indexSelect;
 484:userMenuPatternSewingMachine.c ****             switch(g_ptrMachineParameter->machineType)
 485:userMenuPatternSewingMachine.c ****             {
 486:userMenuPatternSewingMachine.c ****                 case 0: setDisplayDirection(DISPLAY_DIRECTION_PORTRAIT);  break;
 487:userMenuPatternSewingMachine.c ****                 case 1: setDisplayDirection(DISPLAY_DIRECTION_LANDSCAPE); break;
 488:userMenuPatternSewingMachine.c ****             }  
 489:userMenuPatternSewingMachine.c ****             
 490:userMenuPatternSewingMachine.c ****             SetCountLoop();
 491:userMenuPatternSewingMachine.c ****             ShowWaitMessage();                                    
 492:userMenuPatternSewingMachine.c ****             SaveExternalFlashConfig();
 493:userMenuPatternSewingMachine.c **** 
 494:userMenuPatternSewingMachine.c ****             return MENU_RETURN_PARENT;
 495:userMenuPatternSewingMachine.c ****         }            
 496:userMenuPatternSewingMachine.c ****     }
 497:userMenuPatternSewingMachine.c ****     return MENU_RETURN_THIS;    
 498:userMenuPatternSewingMachine.c **** }
 499:userMenuPatternSewingMachine.c **** 
 500:userMenuPatternSewingMachine.c **** /////////////////////
 501:userMenuPatternSewingMachine.c **** //// doResetData ////
 502:userMenuPatternSewingMachine.c **** /////////////////////
 503:userMenuPatternSewingMachine.c **** int doResetData(void *this, uint8 reflash)
 504:userMenuPatternSewingMachine.c **** {
 223              		.loc 1 504 0
 224              		.cfi_startproc
 225              		@ args = 0, pretend = 0, frame = 8
 226              		@ frame_needed = 0, uses_anonymous_args = 0
 227              	.LVL15:
 228 0000 10B5     		push	{r4, lr}
 229              		.cfi_def_cfa_offset 8
 230              		.cfi_offset 4, -8
 231              		.cfi_offset 14, -4
 232 0002 82B0     		sub	sp, sp, #8
 233              		.cfi_def_cfa_offset 16
 234              	.LVL16:
 505:userMenuPatternSewingMachine.c ****     MENUNODE *thisMenu = (MENUNODE *) this;
 506:userMenuPatternSewingMachine.c ****  
 507:userMenuPatternSewingMachine.c ****     switch(reflash)
ARM GAS  C:\Users\luvsd\AppData\Local\Temp\ccQgKjek.s 			page 14


 235              		.loc 1 507 0
 236 0004 0029     		cmp	r1, #0
 237 0006 13D0     		beq	.L21
 238 0008 0129     		cmp	r1, #1
 239 000a 2FD1     		bne	.L28
 508:userMenuPatternSewingMachine.c ****     {
 509:userMenuPatternSewingMachine.c ****         case TRUE: // ĒÖöļ®┤ņØ┤ ļ░öļĆöļĢī ņŗżĒ¢ē
 510:userMenuPatternSewingMachine.c ****             {                
 511:userMenuPatternSewingMachine.c ****                 strcpy(g_YesNoMenu.title,thisMenu->nodeName);
 240              		.loc 1 511 0
 241 000c 0100     		movs	r1, r0
 242              	.LVL17:
 243 000e 1031     		adds	r1, r1, #16
 244 0010 184C     		ldr	r4, .L30
 245 0012 2000     		movs	r0, r4
 246              	.LVL18:
 247 0014 FFF7FEFF 		bl	strcpy
 248              	.LVL19:
 512:userMenuPatternSewingMachine.c ****                 SetDrawYesNoButtons(&g_YesNoMenu, "Do you want ?");
 249              		.loc 1 512 0
 250 0018 1749     		ldr	r1, .L30+4
 251 001a 2000     		movs	r0, r4
 252 001c FFF7FEFF 		bl	SetDrawYesNoButtons
 253              	.LVL20:
 513:userMenuPatternSewingMachine.c ****                 
 514:userMenuPatternSewingMachine.c ****                 SetDrawBottomButtons("QUIT", "YES", BUTTON_STYLE_R_GREEN, BUTTON_STYLE_R_BLUE);  
 254              		.loc 1 514 0
 255 0020 1223     		movs	r3, #18
 256 0022 1122     		movs	r2, #17
 257 0024 1549     		ldr	r1, .L30+8
 258 0026 1648     		ldr	r0, .L30+12
 259 0028 FFF7FEFF 		bl	SetDrawBottomButtons
 260              	.LVL21:
 515:userMenuPatternSewingMachine.c ****             }
 516:userMenuPatternSewingMachine.c ****             break;  
 517:userMenuPatternSewingMachine.c ****         
 518:userMenuPatternSewingMachine.c ****         case FALSE: // Cliking Check
 519:userMenuPatternSewingMachine.c ****             {
 520:userMenuPatternSewingMachine.c ****                 TOUCH tc = GetTouch();
 521:userMenuPatternSewingMachine.c ****                 if(tc.isClick == FALSE) break;
 522:userMenuPatternSewingMachine.c **** 
 523:userMenuPatternSewingMachine.c ****                 switch(getIndexOfClickedButton(&tc,g_btnBottom,2))
 524:userMenuPatternSewingMachine.c ****                 {
 525:userMenuPatternSewingMachine.c ****                     case BOTTOM_LEFT:
 526:userMenuPatternSewingMachine.c ****                     {
 527:userMenuPatternSewingMachine.c ****                         return MENU_RETURN_PARENT;
 528:userMenuPatternSewingMachine.c ****                     }
 529:userMenuPatternSewingMachine.c ****                     case BOTTOM_RIGHT: 
 530:userMenuPatternSewingMachine.c ****                     {
 531:userMenuPatternSewingMachine.c ****                         Buzzer(BUZZER_STOP,0);
 532:userMenuPatternSewingMachine.c ****                         ResetInternalFlash();                        
 533:userMenuPatternSewingMachine.c ****                         return MENU_RETURN_PARENT;                                
 534:userMenuPatternSewingMachine.c ****                     }                            
 535:userMenuPatternSewingMachine.c ****                 }                               
 536:userMenuPatternSewingMachine.c ****             }
 537:userMenuPatternSewingMachine.c ****             break;
 538:userMenuPatternSewingMachine.c ****     }
ARM GAS  C:\Users\luvsd\AppData\Local\Temp\ccQgKjek.s 			page 15


 539:userMenuPatternSewingMachine.c ****     return MENU_RETURN_THIS;    
 261              		.loc 1 539 0
 262 002c 1548     		ldr	r0, .L30+16
 516:userMenuPatternSewingMachine.c ****         
 263              		.loc 1 516 0
 264 002e 1EE0     		b	.L20
 265              	.LVL22:
 266              	.L21:
 267              	.LBB2:
 520:userMenuPatternSewingMachine.c ****                 if(tc.isClick == FALSE) break;
 268              		.loc 1 520 0
 269 0030 6846     		mov	r0, sp
 270              	.LVL23:
 271 0032 FFF7FEFF 		bl	GetTouch
 272              	.LVL24:
 521:userMenuPatternSewingMachine.c **** 
 273              		.loc 1 521 0
 274 0036 6B46     		mov	r3, sp
 275 0038 1B88     		ldrh	r3, [r3]
 276 003a 002B     		cmp	r3, #0
 277 003c 11D0     		beq	.L23
 523:userMenuPatternSewingMachine.c ****                 {
 278              		.loc 1 523 0
 279 003e 0222     		movs	r2, #2
 280 0040 1149     		ldr	r1, .L30+20
 281 0042 6846     		mov	r0, sp
 282 0044 FFF7FEFF 		bl	getIndexOfClickedButton
 283              	.LVL25:
 284 0048 0028     		cmp	r0, #0
 285 004a 0CD0     		beq	.L25
 286 004c 0128     		cmp	r0, #1
 287 004e 06D1     		bne	.L29
 531:userMenuPatternSewingMachine.c ****                         ResetInternalFlash();                        
 288              		.loc 1 531 0
 289 0050 0021     		movs	r1, #0
 290 0052 0020     		movs	r0, #0
 291 0054 FFF7FEFF 		bl	Buzzer
 292              	.LVL26:
 532:userMenuPatternSewingMachine.c ****                         return MENU_RETURN_PARENT;                                
 293              		.loc 1 532 0
 294 0058 FFF7FEFF 		bl	ResetInternalFlash
 295              	.LVL27:
 533:userMenuPatternSewingMachine.c ****                     }                            
 296              		.loc 1 533 0
 297 005c 03E0     		b	.L25
 298              	.L29:
 299              	.LBE2:
 300              		.loc 1 539 0
 301 005e 0948     		ldr	r0, .L30+16
 537:userMenuPatternSewingMachine.c ****     }
 302              		.loc 1 537 0
 303 0060 05E0     		b	.L20
 304              	.L23:
 305              		.loc 1 539 0
 306 0062 0848     		ldr	r0, .L30+16
 307 0064 03E0     		b	.L20
 308              	.L25:
ARM GAS  C:\Users\luvsd\AppData\Local\Temp\ccQgKjek.s 			page 16


 309              	.LBB3:
 527:userMenuPatternSewingMachine.c ****                     }
 310              		.loc 1 527 0 discriminator 1
 311 0066 8020     		movs	r0, #128
 312 0068 0006     		lsls	r0, r0, #24
 313 006a 00E0     		b	.L20
 314              	.LVL28:
 315              	.L28:
 316              	.LBE3:
 317              		.loc 1 539 0
 318 006c 0548     		ldr	r0, .L30+16
 319              	.LVL29:
 320              	.L20:
 540:userMenuPatternSewingMachine.c **** }
 321              		.loc 1 540 0
 322 006e 02B0     		add	sp, sp, #8
 323              		@ sp needed
 324 0070 10BD     		pop	{r4, pc}
 325              	.L31:
 326 0072 C046     		.align	2
 327              	.L30:
 328 0074 00000000 		.word	g_YesNoMenu
 329 0078 2C000000 		.word	.LC16
 330 007c 3C000000 		.word	.LC18
 331 0080 40000000 		.word	.LC20
 332 0084 01000080 		.word	-2147483647
 333 0088 00000000 		.word	g_btnBottom
 334              		.cfi_endproc
 335              	.LFE74:
 336              		.size	doResetData, .-doResetData
 337              		.section	.text.doAutoReset,"ax",%progbits
 338              		.align	2
 339              		.global	doAutoReset
 340              		.code	16
 341              		.thumb_func
 342              		.type	doAutoReset, %function
 343              	doAutoReset:
 344              	.LFB79:
 541:userMenuPatternSewingMachine.c **** 
 542:userMenuPatternSewingMachine.c **** uint32 getTarget()
 543:userMenuPatternSewingMachine.c **** {
 544:userMenuPatternSewingMachine.c ****     /* BLACK_CPU: PATTERN_MACHINE Ļ│ĀņĀĢ */
 545:userMenuPatternSewingMachine.c ****     return g_ptrMachineParameter->patternTarget;
 546:userMenuPatternSewingMachine.c **** }
 547:userMenuPatternSewingMachine.c **** 
 548:userMenuPatternSewingMachine.c **** void setTarget(uint32 value)
 549:userMenuPatternSewingMachine.c **** {
 550:userMenuPatternSewingMachine.c ****     /* BLACK_CPU: PATTERN_MACHINE Ļ│ĀņĀĢ */
 551:userMenuPatternSewingMachine.c ****     g_ptrMachineParameter->patternTarget = value;
 552:userMenuPatternSewingMachine.c **** }
 553:userMenuPatternSewingMachine.c **** 
 554:userMenuPatternSewingMachine.c **** uint32 getActual()
 555:userMenuPatternSewingMachine.c **** {
 556:userMenuPatternSewingMachine.c ****     COUNT *ptrCount = getCount();
 557:userMenuPatternSewingMachine.c ****     /* BLACK_CPU: PATTERN_MACHINE Ļ│ĀņĀĢ */
 558:userMenuPatternSewingMachine.c ****     return (uint32) CONVERT_TO_4BYTE(ptrCount->patternActualH, ptrCount->patternActualL)/10;
 559:userMenuPatternSewingMachine.c **** }
ARM GAS  C:\Users\luvsd\AppData\Local\Temp\ccQgKjek.s 			page 17


 560:userMenuPatternSewingMachine.c **** 
 561:userMenuPatternSewingMachine.c **** void setActual(uint32 value)
 562:userMenuPatternSewingMachine.c **** {
 563:userMenuPatternSewingMachine.c ****     COUNT *ptrCount = getCount();
 564:userMenuPatternSewingMachine.c ****     /* BLACK_CPU: PATTERN_MACHINE Ļ│ĀņĀĢ */
 565:userMenuPatternSewingMachine.c ****     ptrCount->patternActualH = CONVERT_TO_HIGH(value*10);
 566:userMenuPatternSewingMachine.c ****     ptrCount->patternActualL = CONVERT_TO_LOW(value*10);
 567:userMenuPatternSewingMachine.c **** }
 568:userMenuPatternSewingMachine.c **** 
 569:userMenuPatternSewingMachine.c **** int doAutoReset(void *this, uint8 reflash) ////////////////////////////////////////////////////////
 570:userMenuPatternSewingMachine.c **** /////////////////////////////////////////////////////////////////////////////////////////////////
 571:userMenuPatternSewingMachine.c **** {    
 345              		.loc 1 571 0
 346              		.cfi_startproc
 347              		@ args = 0, pretend = 0, frame = 0
 348              		@ frame_needed = 0, uses_anonymous_args = 0
 349              	.LVL30:
 350 0000 10B5     		push	{r4, lr}
 351              		.cfi_def_cfa_offset 8
 352              		.cfi_offset 4, -8
 353              		.cfi_offset 14, -4
 354 0002 82B0     		sub	sp, sp, #8
 355              		.cfi_def_cfa_offset 16
 356 0004 0400     		movs	r4, r0
 357              	.LVL31:
 572:userMenuPatternSewingMachine.c ****     MENUNODE *thisMenu = (MENUNODE *) this;    
 573:userMenuPatternSewingMachine.c **** 
 574:userMenuPatternSewingMachine.c ****     static char *listText[] = {"ON", "OFF"};
 575:userMenuPatternSewingMachine.c ****     static uint16 indexSelect = 0;
 576:userMenuPatternSewingMachine.c ****     static uint16 page = 0;
 577:userMenuPatternSewingMachine.c ****     
 578:userMenuPatternSewingMachine.c ****     if(reflash)
 358              		.loc 1 578 0
 359 0006 0029     		cmp	r1, #0
 360 0008 0BD0     		beq	.L33
 579:userMenuPatternSewingMachine.c ****     {
 580:userMenuPatternSewingMachine.c ****         if(g_ptrMachineParameter->bAutoReset)
 361              		.loc 1 580 0
 362 000a 264B     		ldr	r3, .L44
 363 000c 1B68     		ldr	r3, [r3]
 364 000e 9B7E     		ldrb	r3, [r3, #26]
 365 0010 002B     		cmp	r3, #0
 366 0012 03D0     		beq	.L34
 581:userMenuPatternSewingMachine.c ****             indexSelect = 0;
 367              		.loc 1 581 0
 368 0014 0022     		movs	r2, #0
 369 0016 244B     		ldr	r3, .L44+4
 370 0018 DA81     		strh	r2, [r3, #14]
 371 001a 02E0     		b	.L33
 372              	.L34:
 582:userMenuPatternSewingMachine.c ****         else                       
 583:userMenuPatternSewingMachine.c ****             indexSelect = 1;
 373              		.loc 1 583 0
 374 001c 0122     		movs	r2, #1
 375 001e 224B     		ldr	r3, .L44+4
 376 0020 DA81     		strh	r2, [r3, #14]
 377              	.L33:
ARM GAS  C:\Users\luvsd\AppData\Local\Temp\ccQgKjek.s 			page 18


 584:userMenuPatternSewingMachine.c ****     }
 585:userMenuPatternSewingMachine.c ****     
 586:userMenuPatternSewingMachine.c ****     switch(doSelectList(this, reflash, listText, 2, &indexSelect, &page))
 378              		.loc 1 586 0
 379 0022 214B     		ldr	r3, .L44+4
 380 0024 1A00     		movs	r2, r3
 381 0026 1032     		adds	r2, r2, #16
 382 0028 0192     		str	r2, [sp, #4]
 383 002a 0E33     		adds	r3, r3, #14
 384 002c 0093     		str	r3, [sp]
 385 002e 0223     		movs	r3, #2
 386 0030 1E4A     		ldr	r2, .L44+8
 387 0032 1832     		adds	r2, r2, #24
 388 0034 2000     		movs	r0, r4
 389              	.LVL32:
 390 0036 FFF7FEFF 		bl	doSelectList
 391              	.LVL33:
 392 003a 1D4B     		ldr	r3, .L44+12
 393 003c 9842     		cmp	r0, r3
 394 003e 19D0     		beq	.L36
 395 0040 03DC     		bgt	.L37
 396 0042 1C4B     		ldr	r3, .L44+16
 397 0044 9842     		cmp	r0, r3
 398 0046 03D0     		beq	.L38
 399 0048 29E0     		b	.L42
 400              	.L37:
 401 004a 0128     		cmp	r0, #1
 402 004c 03D9     		bls	.L43
 403 004e 26E0     		b	.L42
 404              	.L38:
 587:userMenuPatternSewingMachine.c ****     {
 588:userMenuPatternSewingMachine.c ****         case 0:
 589:userMenuPatternSewingMachine.c ****         case 1:
 590:userMenuPatternSewingMachine.c ****             doSelectList(this, TRUE, listText, 2, &indexSelect, &page);
 591:userMenuPatternSewingMachine.c ****             break; 
 592:userMenuPatternSewingMachine.c ****         case MENU_BOTTOM_LEFT: // QUIT
 593:userMenuPatternSewingMachine.c ****         {
 594:userMenuPatternSewingMachine.c ****             return MENU_RETURN_PARENT;
 405              		.loc 1 594 0
 406 0050 8020     		movs	r0, #128
 407 0052 0006     		lsls	r0, r0, #24
 408 0054 24E0     		b	.L35
 409              	.L43:
 590:userMenuPatternSewingMachine.c ****             break; 
 410              		.loc 1 590 0
 411 0056 144B     		ldr	r3, .L44+4
 412 0058 1A00     		movs	r2, r3
 413 005a 1032     		adds	r2, r2, #16
 414 005c 0192     		str	r2, [sp, #4]
 415 005e 0E33     		adds	r3, r3, #14
 416 0060 0093     		str	r3, [sp]
 417 0062 0223     		movs	r3, #2
 418 0064 114A     		ldr	r2, .L44+8
 419 0066 1832     		adds	r2, r2, #24
 420 0068 0121     		movs	r1, #1
 421 006a 2000     		movs	r0, r4
 422 006c FFF7FEFF 		bl	doSelectList
ARM GAS  C:\Users\luvsd\AppData\Local\Temp\ccQgKjek.s 			page 19


 423              	.LVL34:
 595:userMenuPatternSewingMachine.c ****         }
 596:userMenuPatternSewingMachine.c ****         case MENU_BOTTOM_RIGHT: // SAVE
 597:userMenuPatternSewingMachine.c ****         {
 598:userMenuPatternSewingMachine.c ****             if(indexSelect == 0)
 599:userMenuPatternSewingMachine.c ****                 g_ptrMachineParameter->bAutoReset = TRUE;
 600:userMenuPatternSewingMachine.c ****             else
 601:userMenuPatternSewingMachine.c ****                  g_ptrMachineParameter->bAutoReset = FALSE;
 602:userMenuPatternSewingMachine.c ****             ShowWaitMessage();                                    
 603:userMenuPatternSewingMachine.c ****             SaveExternalFlashConfig();
 604:userMenuPatternSewingMachine.c ****             CySoftwareReset();
 605:userMenuPatternSewingMachine.c ****         }            
 606:userMenuPatternSewingMachine.c ****     }
 607:userMenuPatternSewingMachine.c ****     return MENU_RETURN_THIS;    
 424              		.loc 1 607 0
 425 0070 1148     		ldr	r0, .L44+20
 591:userMenuPatternSewingMachine.c ****         case MENU_BOTTOM_LEFT: // QUIT
 426              		.loc 1 591 0
 427 0072 15E0     		b	.L35
 428              	.L36:
 598:userMenuPatternSewingMachine.c ****                 g_ptrMachineParameter->bAutoReset = TRUE;
 429              		.loc 1 598 0
 430 0074 0C4B     		ldr	r3, .L44+4
 431 0076 DB89     		ldrh	r3, [r3, #14]
 432 0078 002B     		cmp	r3, #0
 433 007a 04D1     		bne	.L40
 599:userMenuPatternSewingMachine.c ****             else
 434              		.loc 1 599 0
 435 007c 094B     		ldr	r3, .L44
 436 007e 1B68     		ldr	r3, [r3]
 437 0080 0122     		movs	r2, #1
 438 0082 9A76     		strb	r2, [r3, #26]
 439 0084 03E0     		b	.L41
 440              	.L40:
 601:userMenuPatternSewingMachine.c ****             ShowWaitMessage();                                    
 441              		.loc 1 601 0
 442 0086 074B     		ldr	r3, .L44
 443 0088 1B68     		ldr	r3, [r3]
 444 008a 0022     		movs	r2, #0
 445 008c 9A76     		strb	r2, [r3, #26]
 446              	.L41:
 602:userMenuPatternSewingMachine.c ****             SaveExternalFlashConfig();
 447              		.loc 1 602 0
 448 008e FFF7FEFF 		bl	ShowWaitMessage
 449              	.LVL35:
 603:userMenuPatternSewingMachine.c ****             CySoftwareReset();
 450              		.loc 1 603 0
 451 0092 FFF7FEFF 		bl	SaveExternalFlashConfig
 452              	.LVL36:
 604:userMenuPatternSewingMachine.c ****         }            
 453              		.loc 1 604 0
 454 0096 FFF7FEFF 		bl	CySoftwareReset
 455              	.LVL37:
 456              		.loc 1 607 0
 457 009a 0748     		ldr	r0, .L44+20
 458 009c 00E0     		b	.L35
 459              	.L42:
ARM GAS  C:\Users\luvsd\AppData\Local\Temp\ccQgKjek.s 			page 20


 460 009e 0648     		ldr	r0, .L44+20
 461              	.L35:
 608:userMenuPatternSewingMachine.c **** }
 462              		.loc 1 608 0
 463 00a0 02B0     		add	sp, sp, #8
 464              		@ sp needed
 465              	.LVL38:
 466 00a2 10BD     		pop	{r4, pc}
 467              	.L45:
 468              		.align	2
 469              	.L44:
 470 00a4 00000000 		.word	g_ptrMachineParameter
 471 00a8 00000000 		.word	.LANCHOR1
 472 00ac 00000000 		.word	.LANCHOR0
 473 00b0 04000080 		.word	-2147483644
 474 00b4 03000080 		.word	-2147483645
 475 00b8 01000080 		.word	-2147483647
 476              		.cfi_endproc
 477              	.LFE79:
 478              		.size	doAutoReset, .-doAutoReset
 479              		.global	__aeabi_i2d
 480              		.global	__aeabi_ddiv
 481              		.section	.text.DisplayDoTopMenu,"ax",%progbits
 482              		.align	2
 483              		.global	DisplayDoTopMenu
 484              		.code	16
 485              		.thumb_func
 486              		.type	DisplayDoTopMenu, %function
 487              	DisplayDoTopMenu:
 488              	.LFB64:
 193:userMenuPatternSewingMachine.c ****     /* BLACK_CPU: PATTERN_MACHINE Ļ│ĀņĀĢ */
 489              		.loc 1 193 0
 490              		.cfi_startproc
 491              		@ args = 0, pretend = 0, frame = 0
 492              		@ frame_needed = 0, uses_anonymous_args = 0
 493              	.LVL39:
 494 0000 70B5     		push	{r4, r5, r6, lr}
 495              		.cfi_def_cfa_offset 16
 496              		.cfi_offset 4, -16
 497              		.cfi_offset 5, -12
 498              		.cfi_offset 6, -8
 499              		.cfi_offset 14, -4
 500 0002 82B0     		sub	sp, sp, #8
 501              		.cfi_def_cfa_offset 24
 502 0004 0500     		movs	r5, r0
 196:userMenuPatternSewingMachine.c **** 
 503              		.loc 1 196 0
 504 0006 0F4C     		ldr	r4, .L49
 505 0008 2368     		ldr	r3, [r4]
 506 000a 9E88     		ldrh	r6, [r3, #4]
 507 000c D888     		ldrh	r0, [r3, #6]
 508              	.LVL40:
 195:userMenuPatternSewingMachine.c ****         g_ptrMachineParameter->patternPairCount, g_ptrMachineParameter->patternPair/10.);
 509              		.loc 1 195 0
 510 000e FFF7FEFF 		bl	__aeabi_i2d
 511              	.LVL41:
 512 0012 0022     		movs	r2, #0
ARM GAS  C:\Users\luvsd\AppData\Local\Temp\ccQgKjek.s 			page 21


 513 0014 0C4B     		ldr	r3, .L49+4
 514 0016 FFF7FEFF 		bl	__aeabi_ddiv
 515              	.LVL42:
 516 001a 0090     		str	r0, [sp]
 517 001c 0191     		str	r1, [sp, #4]
 518 001e 3200     		movs	r2, r6
 519 0020 0A49     		ldr	r1, .L49+8
 520 0022 2800     		movs	r0, r5
 521 0024 FFF7FEFF 		bl	SetDrawMonitoringMenu
 522              	.LVL43:
 198:userMenuPatternSewingMachine.c **** }
 523              		.loc 1 198 0
 524 0028 2368     		ldr	r3, [r4]
 525 002a 9B8A     		ldrh	r3, [r3, #20]
 526 002c 012B     		cmp	r3, #1
 527 002e 01D1     		bne	.L48
 528 0030 0749     		ldr	r1, .L49+12
 529 0032 00E0     		b	.L47
 530              	.L48:
 531 0034 0749     		ldr	r1, .L49+16
 532              	.L47:
 198:userMenuPatternSewingMachine.c **** }
 533              		.loc 1 198 0 is_stmt 0 discriminator 4
 534 0036 0E23     		movs	r3, #14
 535 0038 1222     		movs	r2, #18
 536 003a 0748     		ldr	r0, .L49+20
 537 003c FFF7FEFF 		bl	SetDrawBottomButtons
 538              	.LVL44:
 199:userMenuPatternSewingMachine.c **** 
 539              		.loc 1 199 0 is_stmt 1 discriminator 4
 540 0040 02B0     		add	sp, sp, #8
 541              		@ sp needed
 542              	.LVL45:
 543 0042 70BD     		pop	{r4, r5, r6, pc}
 544              	.L50:
 545              		.align	2
 546              	.L49:
 547 0044 00000000 		.word	g_ptrMachineParameter
 548 0048 00002440 		.word	1076101120
 549 004c 58000000 		.word	.LC33
 550 0050 48000000 		.word	.LC28
 551 0054 50000000 		.word	.LC30
 552 0058 68000000 		.word	.LC35
 553              		.cfi_endproc
 554              	.LFE64:
 555              		.size	DisplayDoTopMenu, .-DisplayDoTopMenu
 556              		.global	__aeabi_ui2f
 557              		.global	__aeabi_fdiv
 558              		.global	__aeabi_f2d
 559              		.global	__aeabi_d2f
 560              		.global	__aeabi_ui2d
 561              		.global	__aeabi_dmul
 562              		.global	__aeabi_dsub
 563              		.global	__aeabi_d2uiz
 564              		.section	.text.TopMenuPageUpdateValue,"ax",%progbits
 565              		.align	2
 566              		.global	TopMenuPageUpdateValue
ARM GAS  C:\Users\luvsd\AppData\Local\Temp\ccQgKjek.s 			page 22


 567              		.code	16
 568              		.thumb_func
 569              		.type	TopMenuPageUpdateValue, %function
 570              	TopMenuPageUpdateValue:
 571              	.LFB65:
 202:userMenuPatternSewingMachine.c ****     BUTTON *btn;
 572              		.loc 1 202 0
 573              		.cfi_startproc
 574              		@ args = 0, pretend = 0, frame = 8
 575              		@ frame_needed = 0, uses_anonymous_args = 0
 576              	.LVL46:
 577 0000 F0B5     		push	{r4, r5, r6, r7, lr}
 578              		.cfi_def_cfa_offset 20
 579              		.cfi_offset 4, -20
 580              		.cfi_offset 5, -16
 581              		.cfi_offset 6, -12
 582              		.cfi_offset 7, -8
 583              		.cfi_offset 14, -4
 584 0002 85B0     		sub	sp, sp, #20
 585              		.cfi_def_cfa_offset 40
 586 0004 0400     		movs	r4, r0
 587 0006 0F00     		movs	r7, r1
 588              	.LVL47:
 207:userMenuPatternSewingMachine.c ****     if((uint32) CONVERT_TO_4BYTE(ptrCount->patternNoStitchSumH,ptrCount->patternNoStitchSumL) > 0 &
 589              		.loc 1 207 0
 590 0008 FFF7FEFF 		bl	getCount
 591              	.LVL48:
 592 000c 0500     		movs	r5, r0
 593              	.LVL49:
 208:userMenuPatternSewingMachine.c ****        (uint32) CONVERT_TO_4BYTE(ptrCount->patternStitchLengthSumH,ptrCount->patternStitchLengthSum
 594              		.loc 1 208 0
 595 000e 038F     		ldrh	r3, [r0, #56]
 596 0010 1B04     		lsls	r3, r3, #16
 597 0012 428F     		ldrh	r2, [r0, #58]
 598 0014 1A43     		orrs	r2, r3
 599 0016 161E     		subs	r6, r2, #0
 600 0018 1BD0     		beq	.L58
 209:userMenuPatternSewingMachine.c ****     {
 601              		.loc 1 209 0 discriminator 1
 602 001a C08F     		ldrh	r0, [r0, #62]
 603              	.LVL50:
 604 001c 0004     		lsls	r0, r0, #16
 605 001e 4023     		movs	r3, #64
 606 0020 EB5A     		ldrh	r3, [r5, r3]
 607 0022 1843     		orrs	r0, r3
 208:userMenuPatternSewingMachine.c ****        (uint32) CONVERT_TO_4BYTE(ptrCount->patternStitchLengthSumH,ptrCount->patternStitchLengthSum
 608              		.loc 1 208 0 discriminator 1
 609 0024 18D0     		beq	.L59
 211:userMenuPatternSewingMachine.c ****                       ((float) ((uint32) CONVERT_TO_4BYTE(ptrCount->patternNoStitchSumH,ptrCount->p
 610              		.loc 1 211 0
 611 0026 FFF7FEFF 		bl	__aeabi_ui2f
 612              	.LVL51:
 613 002a 0290     		str	r0, [sp, #8]
 212:userMenuPatternSewingMachine.c ****         
 614              		.loc 1 212 0
 615 002c 3000     		movs	r0, r6
 616 002e FFF7FEFF 		bl	__aeabi_ui2f
ARM GAS  C:\Users\luvsd\AppData\Local\Temp\ccQgKjek.s 			page 23


 617              	.LVL52:
 618 0032 011C     		adds	r1, r0, #0
 211:userMenuPatternSewingMachine.c ****                       ((float) ((uint32) CONVERT_TO_4BYTE(ptrCount->patternNoStitchSumH,ptrCount->p
 619              		.loc 1 211 0
 620 0034 0298     		ldr	r0, [sp, #8]
 621 0036 FFF7FEFF 		bl	__aeabi_fdiv
 622              	.LVL53:
 623 003a FFF7FEFF 		bl	__aeabi_f2d
 624              	.LVL54:
 625 003e 0200     		movs	r2, r0
 626 0040 0B00     		movs	r3, r1
 627 0042 7248     		ldr	r0, .L62
 628 0044 7249     		ldr	r1, .L62+4
 629 0046 FFF7FEFF 		bl	__aeabi_ddiv
 630              	.LVL55:
 631 004a FFF7FEFF 		bl	__aeabi_d2f
 632              	.LVL56:
 633 004e 0290     		str	r0, [sp, #8]
 634              	.LVL57:
 635 0050 04E0     		b	.L52
 636              	.LVL58:
 637              	.L58:
 206:userMenuPatternSewingMachine.c ****     COUNT *ptrCount = getCount();
 638              		.loc 1 206 0
 639 0052 0023     		movs	r3, #0
 640 0054 0293     		str	r3, [sp, #8]
 641 0056 01E0     		b	.L52
 642              	.LVL59:
 643              	.L59:
 644 0058 0023     		movs	r3, #0
 645 005a 0293     		str	r3, [sp, #8]
 646              	.LVL60:
 647              	.L52:
 218:userMenuPatternSewingMachine.c ****     {
 648              		.loc 1 218 0
 649 005c 012F     		cmp	r7, #1
 650 005e 3CD0     		beq	.L54
 651 0060 002F     		cmp	r7, #0
 652 0062 03D0     		beq	.L55
 653 0064 022F     		cmp	r7, #2
 654 0066 00D1     		bne	.LCB623
 655 0068 7FE0     		b	.L56	@long jump
 656              	.LCB623:
 657 006a 9DE0     		b	.L61
 658              	.L55:
 221:userMenuPatternSewingMachine.c ****             SetButtonText(&menu->btn[4],"%lu",   ((uint32) CONVERT_TO_4BYTE(ptrCount->patternActual
 659              		.loc 1 221 0
 660 006c 694E     		ldr	r6, .L62+8
 661 006e 3368     		ldr	r3, [r6]
 662 0070 5A88     		ldrh	r2, [r3, #2]
 663 0072 2000     		movs	r0, r4
 664 0074 8030     		adds	r0, r0, #128
 665 0076 6849     		ldr	r1, .L62+12
 666 0078 FFF7FEFF 		bl	SetButtonText
 667              	.LVL61:
 222:userMenuPatternSewingMachine.c ****             SetButtonText(&menu->btn[6],"%4.1f",((uint32) CONVERT_TO_4BYTE(ptrCount->patternActualH
 668              		.loc 1 222 0
ARM GAS  C:\Users\luvsd\AppData\Local\Temp\ccQgKjek.s 			page 24


 669 007c A88B     		ldrh	r0, [r5, #28]
 670 007e 0004     		lsls	r0, r0, #16
 671 0080 EB8B     		ldrh	r3, [r5, #30]
 672 0082 1843     		orrs	r0, r3
 673 0084 0A21     		movs	r1, #10
 674 0086 FFF7FEFF 		bl	__aeabi_uidiv
 675              	.LVL62:
 676 008a 0200     		movs	r2, r0
 677 008c 631C     		adds	r3, r4, #1
 678 008e FF33     		adds	r3, r3, #255
 679 0090 6249     		ldr	r1, .L62+16
 680 0092 1800     		movs	r0, r3
 681 0094 FFF7FEFF 		bl	SetButtonText
 682              	.LVL63:
 223:userMenuPatternSewingMachine.c ****             if(strcmp("100.0",menu->btn[6].text)==0) rate100 = TRUE;
 683              		.loc 1 223 0
 684 0098 A88B     		ldrh	r0, [r5, #28]
 685 009a 0004     		lsls	r0, r0, #16
 686 009c EB8B     		ldrh	r3, [r5, #30]
 687 009e 1843     		orrs	r0, r3
 688 00a0 FFF7FEFF 		bl	__aeabi_ui2d
 689              	.LVL64:
 690 00a4 0022     		movs	r2, #0
 691 00a6 5E4B     		ldr	r3, .L62+20
 692 00a8 FFF7FEFF 		bl	__aeabi_dmul
 693              	.LVL65:
 694 00ac 0290     		str	r0, [sp, #8]
 695 00ae 0391     		str	r1, [sp, #12]
 696              	.LVL66:
 697 00b0 3368     		ldr	r3, [r6]
 698 00b2 5888     		ldrh	r0, [r3, #2]
 699 00b4 FFF7FEFF 		bl	__aeabi_i2d
 700              	.LVL67:
 701 00b8 0200     		movs	r2, r0
 702 00ba 0B00     		movs	r3, r1
 703 00bc 0298     		ldr	r0, [sp, #8]
 704 00be 0399     		ldr	r1, [sp, #12]
 705 00c0 FFF7FEFF 		bl	__aeabi_ddiv
 706              	.LVL68:
 707 00c4 0200     		movs	r2, r0
 708 00c6 0B00     		movs	r3, r1
 709 00c8 2500     		movs	r5, r4
 710              	.LVL69:
 711 00ca 8135     		adds	r5, r5, #129
 712 00cc FF35     		adds	r5, r5, #255
 713 00ce 5549     		ldr	r1, .L62+24
 714 00d0 2800     		movs	r0, r5
 715 00d2 FFF7FEFF 		bl	SetButtonText
 716              	.LVL70:
 225:userMenuPatternSewingMachine.c ****             break;
 717              		.loc 1 225 0
 718 00d6 0125     		movs	r5, #1
 719 00d8 67E0     		b	.L53
 720              	.LVL71:
 721              	.L54:
 228:userMenuPatternSewingMachine.c ****             SetButtonText(&menu->btn[4],"%0.1f",(uint32) CONVERT_TO_4BYTE(ptrCount->patternMotorRun
 722              		.loc 1 228 0
ARM GAS  C:\Users\luvsd\AppData\Local\Temp\ccQgKjek.s 			page 25


 723 00da A88D     		ldrh	r0, [r5, #44]
 724 00dc 0004     		lsls	r0, r0, #16
 725 00de EB8D     		ldrh	r3, [r5, #46]
 726 00e0 1843     		orrs	r0, r3
 727 00e2 FFF7FEFF 		bl	__aeabi_ui2d
 728              	.LVL72:
 729 00e6 0022     		movs	r2, #0
 730 00e8 4F4B     		ldr	r3, .L62+28
 731 00ea FFF7FEFF 		bl	__aeabi_ddiv
 732              	.LVL73:
 733 00ee 0200     		movs	r2, r0
 734 00f0 0B00     		movs	r3, r1
 735 00f2 4E4E     		ldr	r6, .L62+32
 736 00f4 2700     		movs	r7, r4
 737 00f6 8037     		adds	r7, r7, #128
 738 00f8 3100     		movs	r1, r6
 739 00fa 3800     		movs	r0, r7
 740 00fc FFF7FEFF 		bl	SetButtonText
 741              	.LVL74:
 229:userMenuPatternSewingMachine.c ****             SetButtonText(&menu->btn[6],"%4.1f",((uint32) CONVERT_TO_4BYTE(ptrCount->patternMotorRu
 742              		.loc 1 229 0
 743 0100 688E     		ldrh	r0, [r5, #50]
 744 0102 0004     		lsls	r0, r0, #16
 745 0104 AB8E     		ldrh	r3, [r5, #52]
 746 0106 1843     		orrs	r0, r3
 747 0108 FFF7FEFF 		bl	__aeabi_ui2d
 748              	.LVL75:
 749 010c 0022     		movs	r2, #0
 750 010e 464B     		ldr	r3, .L62+28
 751 0110 FFF7FEFF 		bl	__aeabi_ddiv
 752              	.LVL76:
 753 0114 0200     		movs	r2, r0
 754 0116 0B00     		movs	r3, r1
 755 0118 671C     		adds	r7, r4, #1
 756 011a FF37     		adds	r7, r7, #255
 757 011c 3100     		movs	r1, r6
 758 011e 3800     		movs	r0, r7
 759 0120 FFF7FEFF 		bl	SetButtonText
 760              	.LVL77:
 230:userMenuPatternSewingMachine.c ****             persent = TRUE;
 761              		.loc 1 230 0
 762 0124 688E     		ldrh	r0, [r5, #50]
 763 0126 0004     		lsls	r0, r0, #16
 764 0128 AB8E     		ldrh	r3, [r5, #52]
 765 012a 1843     		orrs	r0, r3
 766 012c FFF7FEFF 		bl	__aeabi_ui2d
 767              	.LVL78:
 768 0130 0022     		movs	r2, #0
 769 0132 3F4B     		ldr	r3, .L62+36
 770 0134 FFF7FEFF 		bl	__aeabi_dmul
 771              	.LVL79:
 772 0138 0600     		movs	r6, r0
 773 013a 0F00     		movs	r7, r1
 774 013c A88D     		ldrh	r0, [r5, #44]
 775 013e 0004     		lsls	r0, r0, #16
 776 0140 EB8D     		ldrh	r3, [r5, #46]
 777 0142 1843     		orrs	r0, r3
ARM GAS  C:\Users\luvsd\AppData\Local\Temp\ccQgKjek.s 			page 26


 778 0144 FFF7FEFF 		bl	__aeabi_ui2d
 779              	.LVL80:
 780 0148 0200     		movs	r2, r0
 781 014a 0B00     		movs	r3, r1
 782 014c 3000     		movs	r0, r6
 783 014e 3900     		movs	r1, r7
 784 0150 FFF7FEFF 		bl	__aeabi_ddiv
 785              	.LVL81:
 786 0154 0200     		movs	r2, r0
 787 0156 0B00     		movs	r3, r1
 788 0158 2500     		movs	r5, r4
 789              	.LVL82:
 790 015a 8135     		adds	r5, r5, #129
 791 015c FF35     		adds	r5, r5, #255
 792 015e 3149     		ldr	r1, .L62+24
 793 0160 2800     		movs	r0, r5
 794 0162 FFF7FEFF 		bl	SetButtonText
 795              	.LVL83:
 231:userMenuPatternSewingMachine.c ****             break;
 796              		.loc 1 231 0
 797 0166 0125     		movs	r5, #1
 232:userMenuPatternSewingMachine.c ****         case 2:
 798              		.loc 1 232 0
 799 0168 1FE0     		b	.L53
 800              	.LVL84:
 801              	.L56:
 234:userMenuPatternSewingMachine.c ****             SetButtonText(&menu->btn[4],"%lu",(uint32) CONVERT_TO_4BYTE(ptrCount->patternStitchLeng
 802              		.loc 1 234 0
 803 016a 2C4F     		ldr	r7, .L62+16
 804 016c 2000     		movs	r0, r4
 805 016e 8030     		adds	r0, r0, #128
 806 0170 3200     		movs	r2, r6
 807 0172 3900     		movs	r1, r7
 808 0174 FFF7FEFF 		bl	SetButtonText
 809              	.LVL85:
 235:userMenuPatternSewingMachine.c ****             SetButtonText(&menu->btn[6],"%4.1f",spi);
 810              		.loc 1 235 0
 811 0178 EA8F     		ldrh	r2, [r5, #62]
 812 017a 1204     		lsls	r2, r2, #16
 813 017c 4023     		movs	r3, #64
 814 017e EB5A     		ldrh	r3, [r5, r3]
 815 0180 1A43     		orrs	r2, r3
 816 0182 601C     		adds	r0, r4, #1
 817 0184 FF30     		adds	r0, r0, #255
 818 0186 3900     		movs	r1, r7
 819 0188 FFF7FEFF 		bl	SetButtonText
 820              	.LVL86:
 236:userMenuPatternSewingMachine.c ****             break;
 821              		.loc 1 236 0
 822 018c 0298     		ldr	r0, [sp, #8]
 823 018e FFF7FEFF 		bl	__aeabi_f2d
 824              	.LVL87:
 825 0192 0200     		movs	r2, r0
 826 0194 0B00     		movs	r3, r1
 827 0196 2500     		movs	r5, r4
 828              	.LVL88:
 829 0198 8135     		adds	r5, r5, #129
ARM GAS  C:\Users\luvsd\AppData\Local\Temp\ccQgKjek.s 			page 27


 830 019a FF35     		adds	r5, r5, #255
 831 019c 2149     		ldr	r1, .L62+24
 832 019e 2800     		movs	r0, r5
 833 01a0 FFF7FEFF 		bl	SetButtonText
 834              	.LVL89:
 204:userMenuPatternSewingMachine.c ****     uint8 rate100 = FALSE;
 835              		.loc 1 204 0
 836 01a4 0025     		movs	r5, #0
 237:userMenuPatternSewingMachine.c ****     }
 837              		.loc 1 237 0
 838 01a6 00E0     		b	.L53
 839              	.LVL90:
 840              	.L61:
 204:userMenuPatternSewingMachine.c ****     uint8 rate100 = FALSE;
 841              		.loc 1 204 0
 842 01a8 0025     		movs	r5, #0
 843              	.LVL91:
 844              	.L53:
 240:userMenuPatternSewingMachine.c ****     DrawButton(&menu->btn[4]);
 845              		.loc 1 240 0
 846 01aa 2000     		movs	r0, r4
 847 01ac 8030     		adds	r0, r0, #128
 848 01ae FFF7FEFF 		bl	DrawButton
 849              	.LVL92:
 241:userMenuPatternSewingMachine.c ****     DrawButton(&menu->btn[6]);
 850              		.loc 1 241 0
 851 01b2 601C     		adds	r0, r4, #1
 852 01b4 FF30     		adds	r0, r0, #255
 853 01b6 FFF7FEFF 		bl	DrawButton
 854              	.LVL93:
 242:userMenuPatternSewingMachine.c ****     
 855              		.loc 1 242 0
 856 01ba 2000     		movs	r0, r4
 857 01bc 8130     		adds	r0, r0, #129
 858 01be FF30     		adds	r0, r0, #255
 859 01c0 FFF7FEFF 		bl	DrawButton
 860              	.LVL94:
 246:userMenuPatternSewingMachine.c ****     {
 861              		.loc 1 246 0
 862 01c4 002D     		cmp	r5, #0
 863 01c6 1ED0     		beq	.L51
 864              	.LVL95:
 865              	.LBB4:
 249:userMenuPatternSewingMachine.c ****     }
 866              		.loc 1 249 0
 867 01c8 8134     		adds	r4, r4, #129
 868              	.LVL96:
 869 01ca FF34     		adds	r4, r4, #255
 870              	.LVL97:
 871 01cc E588     		ldrh	r5, [r4, #6]
 872              	.LVL98:
 873 01ce 2089     		ldrh	r0, [r4, #8]
 874 01d0 6389     		ldrh	r3, [r4, #10]
 875 01d2 C018     		adds	r0, r0, r3
 876 01d4 FFF7FEFF 		bl	__aeabi_i2d
 877              	.LVL99:
 878 01d8 0022     		movs	r2, #0
ARM GAS  C:\Users\luvsd\AppData\Local\Temp\ccQgKjek.s 			page 28


 879 01da 164B     		ldr	r3, .L62+40
 880 01dc FFF7FEFF 		bl	__aeabi_dmul
 881              	.LVL100:
 882 01e0 0022     		movs	r2, #0
 883 01e2 0F4B     		ldr	r3, .L62+20
 884 01e4 FFF7FEFF 		bl	__aeabi_dsub
 885              	.LVL101:
 886 01e8 678E     		ldrh	r7, [r4, #50]
 887 01ea 268E     		ldrh	r6, [r4, #48]
 888 01ec FFF7FEFF 		bl	__aeabi_d2uiz
 889              	.LVL102:
 890 01f0 81B2     		uxth	r1, r0
 891 01f2 103D     		subs	r5, r5, #16
 892 01f4 A8B2     		uxth	r0, r5
 893 01f6 2523     		movs	r3, #37
 894 01f8 0193     		str	r3, [sp, #4]
 895 01fa E36A     		ldr	r3, [r4, #44]
 896 01fc 0093     		str	r3, [sp]
 897 01fe 3B00     		movs	r3, r7
 898 0200 3200     		movs	r2, r6
 899 0202 FFF7FEFF 		bl	LCD_DrawFont
 900              	.LVL103:
 901              	.L51:
 902              	.LBE4:
 251:userMenuPatternSewingMachine.c **** 
 903              		.loc 1 251 0
 904 0206 05B0     		add	sp, sp, #20
 905              		@ sp needed
 906 0208 F0BD     		pop	{r4, r5, r6, r7, pc}
 907              	.L63:
 908 020a C046     		.align	2
 909              	.L62:
 910 020c 66666666 		.word	1717986918
 911 0210 66663940 		.word	1077503590
 912 0214 00000000 		.word	g_ptrMachineParameter
 913 0218 70000000 		.word	.LC38
 914 021c 74000000 		.word	.LC40
 915 0220 00002440 		.word	1076101120
 916 0224 78000000 		.word	.LC42
 917 0228 00408F40 		.word	1083129856
 918 022c 80000000 		.word	.LC44
 919 0230 00005940 		.word	1079574528
 920 0234 0000E03F 		.word	1071644672
 921              		.cfi_endproc
 922              	.LFE65:
 923              		.size	TopMenuPageUpdateValue, .-TopMenuPageUpdateValue
 924              		.section	.text.TopMenuPageUpdate,"ax",%progbits
 925              		.align	2
 926              		.global	TopMenuPageUpdate
 927              		.code	16
 928              		.thumb_func
 929              		.type	TopMenuPageUpdate, %function
 930              	TopMenuPageUpdate:
 931              	.LFB63:
 137:userMenuPatternSewingMachine.c ****     switch(g_ptrMachineParameter->machineType)
 932              		.loc 1 137 0
 933              		.cfi_startproc
ARM GAS  C:\Users\luvsd\AppData\Local\Temp\ccQgKjek.s 			page 29


 934              		@ args = 0, pretend = 0, frame = 0
 935              		@ frame_needed = 0, uses_anonymous_args = 0
 936              	.LVL104:
 937 0000 70B5     		push	{r4, r5, r6, lr}
 938              		.cfi_def_cfa_offset 16
 939              		.cfi_offset 4, -16
 940              		.cfi_offset 5, -12
 941              		.cfi_offset 6, -8
 942              		.cfi_offset 14, -4
 943 0002 0400     		movs	r4, r0
 944 0004 0D00     		movs	r5, r1
 138:userMenuPatternSewingMachine.c ****     {
 945              		.loc 1 138 0
 946 0006 284B     		ldr	r3, .L70
 947 0008 1B68     		ldr	r3, [r3]
 948 000a 1B78     		ldrb	r3, [r3]
 949 000c 002B     		cmp	r3, #0
 950 000e 38D1     		bne	.L65
 142:userMenuPatternSewingMachine.c ****             {
 951              		.loc 1 142 0
 952 0010 0129     		cmp	r1, #1
 953 0012 15D0     		beq	.L67
 954 0014 0029     		cmp	r1, #0
 955 0016 02D0     		beq	.L68
 956 0018 0229     		cmp	r1, #2
 957 001a 22D0     		beq	.L69
 958 001c 31E0     		b	.L65
 959              	.L68:
 145:userMenuPatternSewingMachine.c ****                     SetButtonText(&menu->btn[3],g_patternString[1]);
 960              		.loc 1 145 0
 961 001e 234E     		ldr	r6, .L70+4
 962 0020 4030     		adds	r0, r0, #64
 963              	.LVL105:
 964 0022 316A     		ldr	r1, [r6, #32]
 965              	.LVL106:
 966 0024 FFF7FEFF 		bl	SetButtonText
 967              	.LVL107:
 146:userMenuPatternSewingMachine.c ****                     SetButtonText(&menu->btn[5],g_patternString[2]);
 968              		.loc 1 146 0
 969 0028 2000     		movs	r0, r4
 970 002a C030     		adds	r0, r0, #192
 971 002c 716A     		ldr	r1, [r6, #36]
 972 002e FFF7FEFF 		bl	SetButtonText
 973              	.LVL108:
 147:userMenuPatternSewingMachine.c ****                     break;
 974              		.loc 1 147 0
 975 0032 B16A     		ldr	r1, [r6, #40]
 976 0034 2000     		movs	r0, r4
 977 0036 4130     		adds	r0, r0, #65
 978 0038 FF30     		adds	r0, r0, #255
 979 003a FFF7FEFF 		bl	SetButtonText
 980              	.LVL109:
 148:userMenuPatternSewingMachine.c ****                 case 1:
 981              		.loc 1 148 0
 982 003e 20E0     		b	.L65
 983              	.LVL110:
 984              	.L67:
ARM GAS  C:\Users\luvsd\AppData\Local\Temp\ccQgKjek.s 			page 30


 150:userMenuPatternSewingMachine.c ****                     SetButtonText(&menu->btn[3],g_patternString[4]);
 985              		.loc 1 150 0
 986 0040 1A4E     		ldr	r6, .L70+4
 987 0042 4030     		adds	r0, r0, #64
 988              	.LVL111:
 989 0044 F16A     		ldr	r1, [r6, #44]
 990              	.LVL112:
 991 0046 FFF7FEFF 		bl	SetButtonText
 992              	.LVL113:
 151:userMenuPatternSewingMachine.c ****                     SetButtonText(&menu->btn[5],g_patternString[2]);                    
 993              		.loc 1 151 0
 994 004a 2000     		movs	r0, r4
 995 004c C030     		adds	r0, r0, #192
 996 004e 316B     		ldr	r1, [r6, #48]
 997 0050 FFF7FEFF 		bl	SetButtonText
 998              	.LVL114:
 152:userMenuPatternSewingMachine.c ****                     break;
 999              		.loc 1 152 0
 1000 0054 B16A     		ldr	r1, [r6, #40]
 1001 0056 2000     		movs	r0, r4
 1002 0058 4130     		adds	r0, r0, #65
 1003 005a FF30     		adds	r0, r0, #255
 1004 005c FFF7FEFF 		bl	SetButtonText
 1005              	.LVL115:
 153:userMenuPatternSewingMachine.c ****                 case 2:
 1006              		.loc 1 153 0
 1007 0060 0FE0     		b	.L65
 1008              	.LVL116:
 1009              	.L69:
 155:userMenuPatternSewingMachine.c ****                     SetButtonText(&menu->btn[3],g_patternString[6]);
 1010              		.loc 1 155 0
 1011 0062 124E     		ldr	r6, .L70+4
 1012 0064 4030     		adds	r0, r0, #64
 1013              	.LVL117:
 1014 0066 716B     		ldr	r1, [r6, #52]
 1015              	.LVL118:
 1016 0068 FFF7FEFF 		bl	SetButtonText
 1017              	.LVL119:
 156:userMenuPatternSewingMachine.c ****                     SetButtonText(&menu->btn[5],g_patternString[7]);                      
 1018              		.loc 1 156 0
 1019 006c 2000     		movs	r0, r4
 1020 006e C030     		adds	r0, r0, #192
 1021 0070 B16B     		ldr	r1, [r6, #56]
 1022 0072 FFF7FEFF 		bl	SetButtonText
 1023              	.LVL120:
 157:userMenuPatternSewingMachine.c ****                     break;
 1024              		.loc 1 157 0
 1025 0076 F16B     		ldr	r1, [r6, #60]
 1026 0078 2000     		movs	r0, r4
 1027 007a 4130     		adds	r0, r0, #65
 1028 007c FF30     		adds	r0, r0, #255
 1029 007e FFF7FEFF 		bl	SetButtonText
 1030              	.LVL121:
 1031              	.L65:
 184:userMenuPatternSewingMachine.c ****     DrawButton(&menu->btn[3]);
 1032              		.loc 1 184 0
 1033 0082 2000     		movs	r0, r4
ARM GAS  C:\Users\luvsd\AppData\Local\Temp\ccQgKjek.s 			page 31


 1034 0084 4030     		adds	r0, r0, #64
 1035 0086 FFF7FEFF 		bl	DrawButton
 1036              	.LVL122:
 185:userMenuPatternSewingMachine.c ****     DrawButton(&menu->btn[5]); 
 1037              		.loc 1 185 0
 1038 008a 2000     		movs	r0, r4
 1039 008c C030     		adds	r0, r0, #192
 1040 008e FFF7FEFF 		bl	DrawButton
 1041              	.LVL123:
 186:userMenuPatternSewingMachine.c **** 
 1042              		.loc 1 186 0
 1043 0092 2000     		movs	r0, r4
 1044 0094 4130     		adds	r0, r0, #65
 1045 0096 FF30     		adds	r0, r0, #255
 1046 0098 FFF7FEFF 		bl	DrawButton
 1047              	.LVL124:
 188:userMenuPatternSewingMachine.c ****     
 1048              		.loc 1 188 0
 1049 009c 2900     		movs	r1, r5
 1050 009e 2000     		movs	r0, r4
 1051 00a0 FFF7FEFF 		bl	TopMenuPageUpdateValue
 1052              	.LVL125:
 190:userMenuPatternSewingMachine.c **** 
 1053              		.loc 1 190 0
 1054              		@ sp needed
 1055              	.LVL126:
 1056 00a4 70BD     		pop	{r4, r5, r6, pc}
 1057              	.L71:
 1058 00a6 C046     		.align	2
 1059              	.L70:
 1060 00a8 00000000 		.word	g_ptrMachineParameter
 1061 00ac 00000000 		.word	.LANCHOR0
 1062              		.cfi_endproc
 1063              	.LFE63:
 1064              		.size	TopMenuPageUpdate, .-TopMenuPageUpdate
 1065              		.section	.text.doTopMenu,"ax",%progbits
 1066              		.align	2
 1067              		.global	doTopMenu
 1068              		.code	16
 1069              		.thumb_func
 1070              		.type	doTopMenu, %function
 1071              	doTopMenu:
 1072              	.LFB62:
  39:userMenuPatternSewingMachine.c ****     MENUNODE *thisMenu = (MENUNODE *) this;    
 1073              		.loc 1 39 0
 1074              		.cfi_startproc
 1075              		@ args = 0, pretend = 0, frame = 8
 1076              		@ frame_needed = 0, uses_anonymous_args = 0
 1077              	.LVL127:
 1078 0000 00B5     		push	{lr}
 1079              		.cfi_def_cfa_offset 4
 1080              		.cfi_offset 14, -4
 1081 0002 83B0     		sub	sp, sp, #12
 1082              		.cfi_def_cfa_offset 16
 1083              	.LVL128:
  46:userMenuPatternSewingMachine.c ****     {
 1084              		.loc 1 46 0
ARM GAS  C:\Users\luvsd\AppData\Local\Temp\ccQgKjek.s 			page 32


 1085 0004 0029     		cmp	r1, #0
 1086 0006 15D0     		beq	.L74
 1087 0008 0129     		cmp	r1, #1
 1088 000a 5FD1     		bne	.L98
  50:userMenuPatternSewingMachine.c ****                 {
 1089              		.loc 1 50 0
 1090 000c 3E4B     		ldr	r3, .L99
 1091 000e 1B68     		ldr	r3, [r3]
 1092 0010 1B78     		ldrb	r3, [r3]
 1093 0012 002B     		cmp	r3, #0
 1094 0014 02D1     		bne	.L76
  52:userMenuPatternSewingMachine.c ****                     // case SEWING_MACHINE :  page = sewingPage;  break;
 1095              		.loc 1 52 0
 1096 0016 0022     		movs	r2, #0
 1097 0018 3C4B     		ldr	r3, .L99+4
 1098 001a 9A74     		strb	r2, [r3, #18]
 1099              	.L76:
  56:userMenuPatternSewingMachine.c ****                 g_updateCountMenu = TRUE;                
 1100              		.loc 1 56 0
 1101 001c FF21     		movs	r1, #255
 1102              	.LVL129:
 1103 001e 4023     		movs	r3, #64
 1104 0020 3B4A     		ldr	r2, .L99+8
 1105 0022 D154     		strb	r1, [r2, r3]
  57:userMenuPatternSewingMachine.c ****                 DisplayDoTopMenu(&menu);                
 1106              		.loc 1 57 0
 1107 0024 0122     		movs	r2, #1
 1108 0026 3B4B     		ldr	r3, .L99+12
 1109 0028 1A70     		strb	r2, [r3]
  58:userMenuPatternSewingMachine.c ****             }
 1110              		.loc 1 58 0
 1111 002a 3848     		ldr	r0, .L99+4
 1112              	.LVL130:
 1113 002c 1430     		adds	r0, r0, #20
 1114 002e FFF7FEFF 		bl	DisplayDoTopMenu
 1115              	.LVL131:
  60:userMenuPatternSewingMachine.c ****         
 1116              		.loc 1 60 0
 1117 0032 4EE0     		b	.L78
 1118              	.LVL132:
 1119              	.L74:
 1120              	.LBB5:
  64:userMenuPatternSewingMachine.c ****                 if(tc.isClick == FALSE) break;
 1121              		.loc 1 64 0
 1122 0034 6846     		mov	r0, sp
 1123              	.LVL133:
 1124 0036 FFF7FEFF 		bl	GetTouch
 1125              	.LVL134:
  65:userMenuPatternSewingMachine.c ****                 
 1126              		.loc 1 65 0
 1127 003a 6B46     		mov	r3, sp
 1128 003c 1B88     		ldrh	r3, [r3]
 1129 003e 002B     		cmp	r3, #0
 1130 0040 47D0     		beq	.L78
  67:userMenuPatternSewingMachine.c ****                 {
 1131              		.loc 1 67 0
 1132 0042 0722     		movs	r2, #7
ARM GAS  C:\Users\luvsd\AppData\Local\Temp\ccQgKjek.s 			page 33


 1133 0044 3149     		ldr	r1, .L99+4
 1134 0046 1431     		adds	r1, r1, #20
 1135 0048 6846     		mov	r0, sp
 1136 004a FFF7FEFF 		bl	getIndexOfClickedButton
 1137              	.LVL135:
 1138 004e 0628     		cmp	r0, #6
 1139 0050 28D8     		bhi	.L80
 1140 0052 8000     		lsls	r0, r0, #2
 1141 0054 304B     		ldr	r3, .L99+16
 1142 0056 1B58     		ldr	r3, [r3, r0]
 1143 0058 9F46     		mov	pc, r3
 1144              		.section	.rodata
 1145              		.align	2
 1146              	.L82:
 1147 0000 BC000000 		.word	.L94
 1148 0004 5A000000 		.word	.L83
 1149 0008 5A000000 		.word	.L83
 1150 000c 76000000 		.word	.L84
 1151 0010 76000000 		.word	.L84
 1152 0014 8A000000 		.word	.L85
 1153 0018 8A000000 		.word	.L85
 1154              		.section	.text.doTopMenu
 1155              	.L83:
  73:userMenuPatternSewingMachine.c ****                         {
 1156              		.loc 1 73 0
 1157 005a 2B4B     		ldr	r3, .L99
 1158 005c 1B68     		ldr	r3, [r3]
 1159 005e 1B78     		ldrb	r3, [r3]
 1160 0060 002B     		cmp	r3, #0
 1161 0062 36D1     		bne	.L78
  76:userMenuPatternSewingMachine.c ****                                 else if(page > 0 ) page--;
 1162              		.loc 1 76 0
 1163 0064 294B     		ldr	r3, .L99+4
 1164 0066 9B7C     		ldrb	r3, [r3, #18]
 1165 0068 002B     		cmp	r3, #0
 1166 006a 29D0     		beq	.L95
  77:userMenuPatternSewingMachine.c ****                                 break;
 1167              		.loc 1 77 0
 1168 006c 31D0     		beq	.L78
  77:userMenuPatternSewingMachine.c ****                                 break;
 1169              		.loc 1 77 0 is_stmt 0 discriminator 1
 1170 006e 013B     		subs	r3, r3, #1
 1171 0070 264A     		ldr	r2, .L99+4
 1172 0072 9374     		strb	r3, [r2, #18]
 1173 0074 2DE0     		b	.L78
 1174              	.L84:
  88:userMenuPatternSewingMachine.c ****                         {
 1175              		.loc 1 88 0 is_stmt 1
 1176 0076 244B     		ldr	r3, .L99
 1177 0078 1B68     		ldr	r3, [r3]
 1178 007a 1B78     		ldrb	r3, [r3]
 1179 007c 002B     		cmp	r3, #0
 1180 007e 28D1     		bne	.L78
  91:userMenuPatternSewingMachine.c ****                                 //else if(page > 0 ) page--;
 1181              		.loc 1 91 0
 1182 0080 224B     		ldr	r3, .L99+4
 1183 0082 9B7C     		ldrb	r3, [r3, #18]
ARM GAS  C:\Users\luvsd\AppData\Local\Temp\ccQgKjek.s 			page 34


 1184 0084 002B     		cmp	r3, #0
 1185 0086 1DD0     		beq	.L96
 1186 0088 23E0     		b	.L78
 1187              	.L85:
 103:userMenuPatternSewingMachine.c ****                         {
 1188              		.loc 1 103 0
 1189 008a 1F4B     		ldr	r3, .L99
 1190 008c 1B68     		ldr	r3, [r3]
 1191 008e 1B78     		ldrb	r3, [r3]
 1192 0090 002B     		cmp	r3, #0
 1193 0092 1ED1     		bne	.L78
 106:userMenuPatternSewingMachine.c ****                                 break;
 1194              		.loc 1 106 0
 1195 0094 1D4B     		ldr	r3, .L99+4
 1196 0096 9B7C     		ldrb	r3, [r3, #18]
 1197 0098 012B     		cmp	r3, #1
 1198 009a 1AD8     		bhi	.L78
 106:userMenuPatternSewingMachine.c ****                                 break;
 1199              		.loc 1 106 0 is_stmt 0 discriminator 1
 1200 009c 0133     		adds	r3, r3, #1
 1201 009e 1B4A     		ldr	r2, .L99+4
 1202 00a0 9374     		strb	r3, [r2, #18]
 1203 00a2 16E0     		b	.L78
 1204              	.L80:
 114:userMenuPatternSewingMachine.c ****                         {
 1205              		.loc 1 114 0 is_stmt 1
 1206 00a4 0222     		movs	r2, #2
 1207 00a6 1D49     		ldr	r1, .L99+20
 1208 00a8 6846     		mov	r0, sp
 1209 00aa FFF7FEFF 		bl	getIndexOfClickedButton
 1210              	.LVL136:
 1211 00ae 0028     		cmp	r0, #0
 1212 00b0 02D0     		beq	.L90
 1213 00b2 0128     		cmp	r0, #1
 1214 00b4 08D0     		beq	.L97
 1215 00b6 0CE0     		b	.L78
 1216              	.L90:
 116:userMenuPatternSewingMachine.c ****                             case BOTTOM_RIGHT: return 1;                            
 1217              		.loc 1 116 0
 1218 00b8 0020     		movs	r0, #0
 1219 00ba 22E0     		b	.L91
 1220              	.L94:
  69:userMenuPatternSewingMachine.c ****                     
 1221              		.loc 1 69 0
 1222 00bc 0220     		movs	r0, #2
 1223 00be 20E0     		b	.L91
 1224              	.L95:
  76:userMenuPatternSewingMachine.c ****                                 else if(page > 0 ) page--;
 1225              		.loc 1 76 0
 1226 00c0 0320     		movs	r0, #3
 1227 00c2 1EE0     		b	.L91
 1228              	.L96:
  91:userMenuPatternSewingMachine.c ****                                 //else if(page > 0 ) page--;
 1229              		.loc 1 91 0
 1230 00c4 0420     		movs	r0, #4
 1231 00c6 1CE0     		b	.L91
 1232              	.L97:
ARM GAS  C:\Users\luvsd\AppData\Local\Temp\ccQgKjek.s 			page 35


 117:userMenuPatternSewingMachine.c ****                         }
 1233              		.loc 1 117 0
 1234 00c8 0120     		movs	r0, #1
 1235 00ca 1AE0     		b	.L91
 1236              	.LVL137:
 1237              	.L98:
 1238              	.LBE5:
 125:userMenuPatternSewingMachine.c ****             break;
 1239              		.loc 1 125 0
 1240 00cc 0122     		movs	r2, #1
 1241 00ce 114B     		ldr	r3, .L99+12
 1242 00d0 1A70     		strb	r2, [r3]
 1243              	.LVL138:
 1244              	.L78:
 129:userMenuPatternSewingMachine.c ****     
 1245              		.loc 1 129 0
 1246 00d2 4023     		movs	r3, #64
 1247 00d4 0E4A     		ldr	r2, .L99+8
 1248 00d6 D35C     		ldrb	r3, [r2, r3]
 1249 00d8 0C4A     		ldr	r2, .L99+4
 1250 00da 917C     		ldrb	r1, [r2, #18]
 1251 00dc 8B42     		cmp	r3, r1
 1252 00de 03D1     		bne	.L92
 129:userMenuPatternSewingMachine.c ****     
 1253              		.loc 1 129 0 is_stmt 0 discriminator 2
 1254 00e0 0C4B     		ldr	r3, .L99+12
 1255 00e2 1B78     		ldrb	r3, [r3]
 1256 00e4 012B     		cmp	r3, #1
 1257 00e6 03D1     		bne	.L93
 1258              	.L92:
 129:userMenuPatternSewingMachine.c ****     
 1259              		.loc 1 129 0 discriminator 3
 1260 00e8 0848     		ldr	r0, .L99+4
 1261 00ea 1430     		adds	r0, r0, #20
 1262 00ec FFF7FEFF 		bl	TopMenuPageUpdate
 1263              	.LVL139:
 1264              	.L93:
 131:userMenuPatternSewingMachine.c ****     g_updateCountMenu = FALSE;
 1265              		.loc 1 131 0 is_stmt 1
 1266 00f0 064B     		ldr	r3, .L99+4
 1267 00f2 997C     		ldrb	r1, [r3, #18]
 1268 00f4 4023     		movs	r3, #64
 1269 00f6 064A     		ldr	r2, .L99+8
 1270 00f8 D154     		strb	r1, [r2, r3]
 132:userMenuPatternSewingMachine.c ****     return MENU_RETURN_THIS;    
 1271              		.loc 1 132 0
 1272 00fa 0022     		movs	r2, #0
 1273 00fc 054B     		ldr	r3, .L99+12
 1274 00fe 1A70     		strb	r2, [r3]
 133:userMenuPatternSewingMachine.c **** }
 1275              		.loc 1 133 0
 1276 0100 0748     		ldr	r0, .L99+24
 1277              	.L91:
 134:userMenuPatternSewingMachine.c **** 
 1278              		.loc 1 134 0
 1279 0102 03B0     		add	sp, sp, #12
 1280              		@ sp needed
ARM GAS  C:\Users\luvsd\AppData\Local\Temp\ccQgKjek.s 			page 36


 1281 0104 00BD     		pop	{pc}
 1282              	.L100:
 1283 0106 C046     		.align	2
 1284              	.L99:
 1285 0108 00000000 		.word	g_ptrMachineParameter
 1286 010c 00000000 		.word	.LANCHOR1
 1287 0110 00000000 		.word	.LANCHOR0
 1288 0114 00000000 		.word	g_updateCountMenu
 1289 0118 00000000 		.word	.L82
 1290 011c 00000000 		.word	g_btnBottom
 1291 0120 01000080 		.word	-2147483647
 1292              		.cfi_endproc
 1293              	.LFE62:
 1294              		.size	doTopMenu, .-doTopMenu
 1295              		.section	.text.DisplayDoPairsInfoMenu,"ax",%progbits
 1296              		.align	2
 1297              		.global	DisplayDoPairsInfoMenu
 1298              		.code	16
 1299              		.thumb_func
 1300              		.type	DisplayDoPairsInfoMenu, %function
 1301              	DisplayDoPairsInfoMenu:
 1302              	.LFB67:
 347:userMenuPatternSewingMachine.c ****     /* BLACK_CPU: PATTERN_MACHINE Ļ│ĀņĀĢ */
 1303              		.loc 1 347 0
 1304              		.cfi_startproc
 1305              		@ args = 0, pretend = 0, frame = 0
 1306              		@ frame_needed = 0, uses_anonymous_args = 0
 1307              	.LVL140:
 1308 0000 10B5     		push	{r4, lr}
 1309              		.cfi_def_cfa_offset 8
 1310              		.cfi_offset 4, -8
 1311              		.cfi_offset 14, -4
 1312 0002 0400     		movs	r4, r0
 349:userMenuPatternSewingMachine.c **** 
 1313              		.loc 1 349 0
 1314 0004 074B     		ldr	r3, .L102
 1315 0006 084A     		ldr	r2, .L102+4
 1316 0008 0849     		ldr	r1, .L102+8
 1317 000a FFF7FEFF 		bl	SetDrawUpDownTwoMenu
 1318              	.LVL141:
 351:userMenuPatternSewingMachine.c **** 
 1319              		.loc 1 351 0
 1320 000e 0122     		movs	r2, #1
 1321 0010 3B23     		movs	r3, #59
 1322 0012 E254     		strb	r2, [r4, r3]
 353:userMenuPatternSewingMachine.c **** }
 1323              		.loc 1 353 0
 1324 0014 293B     		subs	r3, r3, #41
 1325 0016 1032     		adds	r2, r2, #16
 1326 0018 0549     		ldr	r1, .L102+12
 1327 001a 0648     		ldr	r0, .L102+16
 1328 001c FFF7FEFF 		bl	SetDrawBottomButtons
 1329              	.LVL142:
 354:userMenuPatternSewingMachine.c **** 
 1330              		.loc 1 354 0
 1331              		@ sp needed
 1332              	.LVL143:
ARM GAS  C:\Users\luvsd\AppData\Local\Temp\ccQgKjek.s 			page 37


 1333 0020 10BD     		pop	{r4, pc}
 1334              	.L103:
 1335 0022 C046     		.align	2
 1336              	.L102:
 1337 0024 88000000 		.word	.LC54
 1338 0028 94000000 		.word	.LC56
 1339 002c 9C000000 		.word	.LC58
 1340 0030 A4000000 		.word	.LC60
 1341 0034 40000000 		.word	.LC20
 1342              		.cfi_endproc
 1343              	.LFE67:
 1344              		.size	DisplayDoPairsInfoMenu, .-DisplayDoPairsInfoMenu
 1345              		.section	.text.DisplayDoPairsInfoMenuLeftValueChange,"ax",%progbits
 1346              		.align	2
 1347              		.global	DisplayDoPairsInfoMenuLeftValueChange
 1348              		.code	16
 1349              		.thumb_func
 1350              		.type	DisplayDoPairsInfoMenuLeftValueChange, %function
 1351              	DisplayDoPairsInfoMenuLeftValueChange:
 1352              	.LFB69:
 370:userMenuPatternSewingMachine.c ****     SetButtonText(&menu->btn[UPDOWNTWO_FIRST_VALUE],"%d",value);    // left value   
 1353              		.loc 1 370 0
 1354              		.cfi_startproc
 1355              		@ args = 0, pretend = 0, frame = 0
 1356              		@ frame_needed = 0, uses_anonymous_args = 0
 1357              	.LVL144:
 1358 0000 10B5     		push	{r4, lr}
 1359              		.cfi_def_cfa_offset 8
 1360              		.cfi_offset 4, -8
 1361              		.cfi_offset 14, -4
 1362 0002 0A00     		movs	r2, r1
 371:userMenuPatternSewingMachine.c ****     DrawButton(&menu->btn[UPDOWNTWO_FIRST_VALUE]);
 1363              		.loc 1 371 0
 1364 0004 C030     		adds	r0, r0, #192
 1365              	.LVL145:
 1366 0006 0400     		movs	r4, r0
 1367 0008 0349     		ldr	r1, .L105
 1368              	.LVL146:
 1369 000a FFF7FEFF 		bl	SetButtonText
 1370              	.LVL147:
 372:userMenuPatternSewingMachine.c **** }
 1371              		.loc 1 372 0
 1372 000e 2000     		movs	r0, r4
 1373 0010 FFF7FEFF 		bl	DrawButton
 1374              	.LVL148:
 373:userMenuPatternSewingMachine.c **** void DisplayDoPairsInfoMenuRightValueChange(UP_DOWN_TWO_MENU *menu, uint16 value)
 1375              		.loc 1 373 0
 1376              		@ sp needed
 1377              	.LVL149:
 1378 0014 10BD     		pop	{r4, pc}
 1379              	.L106:
 1380 0016 C046     		.align	2
 1381              	.L105:
 1382 0018 AC000000 		.word	.LC63
 1383              		.cfi_endproc
 1384              	.LFE69:
 1385              		.size	DisplayDoPairsInfoMenuLeftValueChange, .-DisplayDoPairsInfoMenuLeftValueChange
ARM GAS  C:\Users\luvsd\AppData\Local\Temp\ccQgKjek.s 			page 38


 1386              		.section	.text.DisplayDoPairsInfoMenuRightValueChange,"ax",%progbits
 1387              		.align	2
 1388              		.global	DisplayDoPairsInfoMenuRightValueChange
 1389              		.code	16
 1390              		.thumb_func
 1391              		.type	DisplayDoPairsInfoMenuRightValueChange, %function
 1392              	DisplayDoPairsInfoMenuRightValueChange:
 1393              	.LFB70:
 375:userMenuPatternSewingMachine.c ****     SetButtonText(&menu->btn[UPDOWNTWO_SECOND_VALUE],"%3.1f",value/10.); // right value   
 1394              		.loc 1 375 0
 1395              		.cfi_startproc
 1396              		@ args = 0, pretend = 0, frame = 0
 1397              		@ frame_needed = 0, uses_anonymous_args = 0
 1398              	.LVL150:
 1399 0000 10B5     		push	{r4, lr}
 1400              		.cfi_def_cfa_offset 8
 1401              		.cfi_offset 4, -8
 1402              		.cfi_offset 14, -4
 376:userMenuPatternSewingMachine.c ****     DrawButton(&menu->btn[UPDOWNTWO_SECOND_VALUE]);     
 1403              		.loc 1 376 0
 1404 0002 441C     		adds	r4, r0, #1
 1405 0004 FF34     		adds	r4, r4, #255
 1406 0006 0800     		movs	r0, r1
 1407              	.LVL151:
 1408 0008 FFF7FEFF 		bl	__aeabi_i2d
 1409              	.LVL152:
 1410 000c 0022     		movs	r2, #0
 1411 000e 064B     		ldr	r3, .L108
 1412 0010 FFF7FEFF 		bl	__aeabi_ddiv
 1413              	.LVL153:
 1414 0014 0200     		movs	r2, r0
 1415 0016 0B00     		movs	r3, r1
 1416 0018 0449     		ldr	r1, .L108+4
 1417 001a 2000     		movs	r0, r4
 1418 001c FFF7FEFF 		bl	SetButtonText
 1419              	.LVL154:
 377:userMenuPatternSewingMachine.c **** }
 1420              		.loc 1 377 0
 1421 0020 2000     		movs	r0, r4
 1422 0022 FFF7FEFF 		bl	DrawButton
 1423              	.LVL155:
 378:userMenuPatternSewingMachine.c **** int doTargetInfoMenu(void *this, uint8 reflash)
 1424              		.loc 1 378 0
 1425              		@ sp needed
 1426              	.LVL156:
 1427 0026 10BD     		pop	{r4, pc}
 1428              	.L109:
 1429              		.align	2
 1430              	.L108:
 1431 0028 00002440 		.word	1076101120
 1432 002c B0000000 		.word	.LC65
 1433              		.cfi_endproc
 1434              	.LFE70:
 1435              		.size	DisplayDoPairsInfoMenuRightValueChange, .-DisplayDoPairsInfoMenuRightValueChange
 1436              		.global	__aeabi_f2uiz
 1437              		.section	.text.DisplayDoPairsInfoMenuSelectValue,"ax",%progbits
 1438              		.align	2
ARM GAS  C:\Users\luvsd\AppData\Local\Temp\ccQgKjek.s 			page 39


 1439              		.global	DisplayDoPairsInfoMenuSelectValue
 1440              		.code	16
 1441              		.thumb_func
 1442              		.type	DisplayDoPairsInfoMenuSelectValue, %function
 1443              	DisplayDoPairsInfoMenuSelectValue:
 1444              	.LFB68:
 357:userMenuPatternSewingMachine.c ****     SetButtonStyleColor(&menu->btn[UPDOWNTWO_FIRST_TEXT],  (selectValue==0) ? BUTTON_STYLE_WHITE : 
 1445              		.loc 1 357 0
 1446              		.cfi_startproc
 1447              		@ args = 0, pretend = 0, frame = 8
 1448              		@ frame_needed = 0, uses_anonymous_args = 0
 1449              	.LVL157:
 1450 0000 F0B5     		push	{r4, r5, r6, r7, lr}
 1451              		.cfi_def_cfa_offset 20
 1452              		.cfi_offset 4, -20
 1453              		.cfi_offset 5, -16
 1454              		.cfi_offset 6, -12
 1455              		.cfi_offset 7, -8
 1456              		.cfi_offset 14, -4
 1457 0002 83B0     		sub	sp, sp, #12
 1458              		.cfi_def_cfa_offset 32
 1459 0004 0600     		movs	r6, r0
 1460 0006 0F00     		movs	r7, r1
 1461 0008 0092     		str	r2, [sp]
 1462 000a 0193     		str	r3, [sp, #4]
 358:userMenuPatternSewingMachine.c ****     SetButtonStyleColor(&menu->btn[UPDOWNTWO_FIRST_VALUE], (selectValue==0) ? BUTTON_STYLE_YELLOW: 
 1463              		.loc 1 358 0
 1464 000c 0500     		movs	r5, r0
 1465 000e 4035     		adds	r5, r5, #64
 1466 0010 0029     		cmp	r1, #0
 1467 0012 01D1     		bne	.L115
 1468 0014 0521     		movs	r1, #5
 1469              	.LVL158:
 1470 0016 00E0     		b	.L111
 1471              	.LVL159:
 1472              	.L115:
 1473 0018 0C21     		movs	r1, #12
 1474              	.LVL160:
 1475              	.L111:
 358:userMenuPatternSewingMachine.c ****     SetButtonStyleColor(&menu->btn[UPDOWNTWO_FIRST_VALUE], (selectValue==0) ? BUTTON_STYLE_YELLOW: 
 1476              		.loc 1 358 0 is_stmt 0 discriminator 4
 1477 001a 2800     		movs	r0, r5
 1478              	.LVL161:
 1479 001c FFF7FEFF 		bl	SetButtonStyleColor
 1480              	.LVL162:
 359:userMenuPatternSewingMachine.c ****     SetButtonStyleColor(&menu->btn[UPDOWNTWO_SECOND_TEXT], (selectValue==1) ? BUTTON_STYLE_WHITE : 
 1481              		.loc 1 359 0 is_stmt 1 discriminator 4
 1482 0020 3000     		movs	r0, r6
 1483 0022 C030     		adds	r0, r0, #192
 1484 0024 002F     		cmp	r7, #0
 1485 0026 01D1     		bne	.L116
 359:userMenuPatternSewingMachine.c ****     SetButtonStyleColor(&menu->btn[UPDOWNTWO_SECOND_TEXT], (selectValue==1) ? BUTTON_STYLE_WHITE : 
 1486              		.loc 1 359 0 is_stmt 0
 1487 0028 0821     		movs	r1, #8
 1488 002a 00E0     		b	.L112
 1489              	.L116:
 1490 002c 0C21     		movs	r1, #12
ARM GAS  C:\Users\luvsd\AppData\Local\Temp\ccQgKjek.s 			page 40


 1491              	.L112:
 359:userMenuPatternSewingMachine.c ****     SetButtonStyleColor(&menu->btn[UPDOWNTWO_SECOND_TEXT], (selectValue==1) ? BUTTON_STYLE_WHITE : 
 1492              		.loc 1 359 0 discriminator 4
 1493 002e FFF7FEFF 		bl	SetButtonStyleColor
 1494              	.LVL163:
 360:userMenuPatternSewingMachine.c ****     SetButtonStyleColor(&menu->btn[UPDOWNTWO_SECOND_VALUE],(selectValue==1) ? BUTTON_STYLE_YELLOW: 
 1495              		.loc 1 360 0 is_stmt 1 discriminator 4
 1496 0032 3400     		movs	r4, r6
 1497 0034 8034     		adds	r4, r4, #128
 1498 0036 012F     		cmp	r7, #1
 1499 0038 01D1     		bne	.L117
 360:userMenuPatternSewingMachine.c ****     SetButtonStyleColor(&menu->btn[UPDOWNTWO_SECOND_VALUE],(selectValue==1) ? BUTTON_STYLE_YELLOW: 
 1500              		.loc 1 360 0 is_stmt 0
 1501 003a 0521     		movs	r1, #5
 1502 003c 00E0     		b	.L113
 1503              	.L117:
 1504 003e 0C21     		movs	r1, #12
 1505              	.L113:
 360:userMenuPatternSewingMachine.c ****     SetButtonStyleColor(&menu->btn[UPDOWNTWO_SECOND_VALUE],(selectValue==1) ? BUTTON_STYLE_YELLOW: 
 1506              		.loc 1 360 0 discriminator 4
 1507 0040 2000     		movs	r0, r4
 1508 0042 FFF7FEFF 		bl	SetButtonStyleColor
 1509              	.LVL164:
 361:userMenuPatternSewingMachine.c ****     
 1510              		.loc 1 361 0 is_stmt 1 discriminator 4
 1511 0046 701C     		adds	r0, r6, #1
 1512 0048 FF30     		adds	r0, r0, #255
 1513 004a 012F     		cmp	r7, #1
 1514 004c 01D1     		bne	.L118
 361:userMenuPatternSewingMachine.c ****     
 1515              		.loc 1 361 0 is_stmt 0
 1516 004e 0821     		movs	r1, #8
 1517 0050 00E0     		b	.L114
 1518              	.L118:
 1519 0052 0C21     		movs	r1, #12
 1520              	.L114:
 361:userMenuPatternSewingMachine.c ****     
 1521              		.loc 1 361 0 discriminator 4
 1522 0054 FFF7FEFF 		bl	SetButtonStyleColor
 1523              	.LVL165:
 363:userMenuPatternSewingMachine.c ****     DrawButton(&menu->btn[UPDOWNTWO_SECOND_TEXT]);
 1524              		.loc 1 363 0 is_stmt 1 discriminator 4
 1525 0058 2800     		movs	r0, r5
 1526 005a FFF7FEFF 		bl	DrawButton
 1527              	.LVL166:
 364:userMenuPatternSewingMachine.c ****     
 1528              		.loc 1 364 0 discriminator 4
 1529 005e 2000     		movs	r0, r4
 1530 0060 FFF7FEFF 		bl	DrawButton
 1531              	.LVL167:
 366:userMenuPatternSewingMachine.c ****     DisplayDoPairsInfoMenuRightValueChange(menu,secondValue);    
 1532              		.loc 1 366 0 discriminator 4
 1533 0064 0099     		ldr	r1, [sp]
 1534 0066 3000     		movs	r0, r6
 1535 0068 FFF7FEFF 		bl	DisplayDoPairsInfoMenuLeftValueChange
 1536              	.LVL168:
 367:userMenuPatternSewingMachine.c **** }
ARM GAS  C:\Users\luvsd\AppData\Local\Temp\ccQgKjek.s 			page 41


 1537              		.loc 1 367 0 discriminator 4
 1538 006c 0198     		ldr	r0, [sp, #4]
 1539 006e FFF7FEFF 		bl	__aeabi_f2uiz
 1540              	.LVL169:
 1541 0072 81B2     		uxth	r1, r0
 1542 0074 3000     		movs	r0, r6
 1543 0076 FFF7FEFF 		bl	DisplayDoPairsInfoMenuRightValueChange
 1544              	.LVL170:
 368:userMenuPatternSewingMachine.c **** void DisplayDoPairsInfoMenuLeftValueChange(UP_DOWN_TWO_MENU *menu, uint16 value)
 1545              		.loc 1 368 0 discriminator 4
 1546 007a 03B0     		add	sp, sp, #12
 1547              		@ sp needed
 1548              	.LVL171:
 1549 007c F0BD     		pop	{r4, r5, r6, r7, pc}
 1550              		.cfi_endproc
 1551              	.LFE68:
 1552              		.size	DisplayDoPairsInfoMenuSelectValue, .-DisplayDoPairsInfoMenuSelectValue
 1553 007e C046     		.section	.text.doPairsInfoMenu,"ax",%progbits
 1554              		.align	2
 1555              		.global	doPairsInfoMenu
 1556              		.code	16
 1557              		.thumb_func
 1558              		.type	doPairsInfoMenu, %function
 1559              	doPairsInfoMenu:
 1560              	.LFB66:
 262:userMenuPatternSewingMachine.c ****     MENUNODE *thisMenu = (MENUNODE *) this;    
 1561              		.loc 1 262 0
 1562              		.cfi_startproc
 1563              		@ args = 0, pretend = 0, frame = 8
 1564              		@ frame_needed = 0, uses_anonymous_args = 0
 1565              	.LVL172:
 1566 0000 30B5     		push	{r4, r5, lr}
 1567              		.cfi_def_cfa_offset 12
 1568              		.cfi_offset 4, -12
 1569              		.cfi_offset 5, -8
 1570              		.cfi_offset 14, -4
 1571 0002 83B0     		sub	sp, sp, #12
 1572              		.cfi_def_cfa_offset 24
 1573              	.LVL173:
 269:userMenuPatternSewingMachine.c ****     {
 1574              		.loc 1 269 0
 1575 0004 0029     		cmp	r1, #0
 1576 0006 1BD0     		beq	.L121
 1577 0008 0129     		cmp	r1, #1
 1578 000a 00D0     		beq	.LCB1513
 1579 000c B4E0     		b	.L136	@long jump
 1580              	.LCB1513:
 273:userMenuPatternSewingMachine.c ****                 
 1581              		.loc 1 273 0
 1582 000e 5C4C     		ldr	r4, .L137
 1583 0010 5434     		adds	r4, r4, #84
 1584 0012 2000     		movs	r0, r4
 1585              	.LVL174:
 1586 0014 FFF7FEFF 		bl	DisplayDoPairsInfoMenu
 1587              	.LVL175:
 276:userMenuPatternSewingMachine.c ****                 rightValue = g_ptrMachineParameter->patternPair;
 1588              		.loc 1 276 0
ARM GAS  C:\Users\luvsd\AppData\Local\Temp\ccQgKjek.s 			page 42


 1589 0018 5A4B     		ldr	r3, .L137+4
 1590 001a 1A68     		ldr	r2, [r3]
 1591 001c 9588     		ldrh	r5, [r2, #4]
 1592 001e 5A4B     		ldr	r3, .L137+8
 1593 0020 4221     		movs	r1, #66
 1594 0022 5D52     		strh	r5, [r3, r1]
 277:userMenuPatternSewingMachine.c ****     
 1595              		.loc 1 277 0
 1596 0024 D088     		ldrh	r0, [r2, #6]
 1597 0026 4422     		movs	r2, #68
 1598 0028 9852     		strh	r0, [r3, r2]
 279:userMenuPatternSewingMachine.c ****             }
 1599              		.loc 1 279 0
 1600 002a FFF7FEFF 		bl	__aeabi_ui2f
 1601              	.LVL176:
 1602 002e 031C     		adds	r3, r0, #0
 1603 0030 564A     		ldr	r2, .L137+12
 1604 0032 117D     		ldrb	r1, [r2, #20]
 1605 0034 2A00     		movs	r2, r5
 1606 0036 2000     		movs	r0, r4
 1607 0038 FFF7FEFF 		bl	DisplayDoPairsInfoMenuSelectValue
 1608              	.LVL177:
 343:userMenuPatternSewingMachine.c **** }
 1609              		.loc 1 343 0
 1610 003c 5448     		ldr	r0, .L137+16
 281:userMenuPatternSewingMachine.c **** 
 1611              		.loc 1 281 0
 1612 003e 9CE0     		b	.L120
 1613              	.LVL178:
 1614              	.L121:
 1615              	.LBB6:
 285:userMenuPatternSewingMachine.c ****                 if(tc.isClick == FALSE) break;
 1616              		.loc 1 285 0
 1617 0040 6846     		mov	r0, sp
 1618              	.LVL179:
 1619 0042 FFF7FEFF 		bl	GetTouch
 1620              	.LVL180:
 286:userMenuPatternSewingMachine.c ****                 uint16 indexClick = getIndexOfClickedButton(&tc, menu.btn,7);
 1621              		.loc 1 286 0
 1622 0046 6B46     		mov	r3, sp
 1623 0048 1B88     		ldrh	r3, [r3]
 1624 004a 002B     		cmp	r3, #0
 1625 004c 00D1     		bne	.LCB1560
 1626 004e 8EE0     		b	.L123	@long jump
 1627              	.LCB1560:
 287:userMenuPatternSewingMachine.c ****                 switch(indexClick)
 1628              		.loc 1 287 0
 1629 0050 0722     		movs	r2, #7
 1630 0052 4B49     		ldr	r1, .L137
 1631 0054 5431     		adds	r1, r1, #84
 1632 0056 6846     		mov	r0, sp
 1633 0058 FFF7FEFF 		bl	getIndexOfClickedButton
 1634              	.LVL181:
 288:userMenuPatternSewingMachine.c ****                 {
 1635              		.loc 1 288 0
 1636 005c 0628     		cmp	r0, #6
 1637 005e 6DD8     		bhi	.L124
ARM GAS  C:\Users\luvsd\AppData\Local\Temp\ccQgKjek.s 			page 43


 1638 0060 8000     		lsls	r0, r0, #2
 1639              	.LVL182:
 1640 0062 4C4B     		ldr	r3, .L137+20
 1641 0064 1B58     		ldr	r3, [r3, r0]
 1642 0066 9F46     		mov	pc, r3
 1643              		.section	.rodata
 1644              		.align	2
 1645              	.L126:
 1646 001c 3C010000 		.word	.L124
 1647 0020 68000000 		.word	.L125
 1648 0024 8A000000 		.word	.L127
 1649 0028 68000000 		.word	.L125
 1650 002c 8A000000 		.word	.L127
 1651 0030 AC000000 		.word	.L128
 1652 0034 F8000000 		.word	.L129
 1653              		.section	.text.doPairsInfoMenu
 1654              	.L125:
 292:userMenuPatternSewingMachine.c ****                         DisplayDoPairsInfoMenuSelectValue(&menu,selectValue, leftValue, rightValue)
 1655              		.loc 1 292 0
 1656 0068 0022     		movs	r2, #0
 1657 006a 484B     		ldr	r3, .L137+12
 1658 006c 9A82     		strh	r2, [r3, #20]
 293:userMenuPatternSewingMachine.c ****                         break;
 1659              		.loc 1 293 0
 1660 006e 464C     		ldr	r4, .L137+8
 1661 0070 4423     		movs	r3, #68
 1662 0072 E05A     		ldrh	r0, [r4, r3]
 1663 0074 FFF7FEFF 		bl	__aeabi_ui2f
 1664              	.LVL183:
 1665 0078 031C     		adds	r3, r0, #0
 1666 007a 4222     		movs	r2, #66
 1667 007c A25A     		ldrh	r2, [r4, r2]
 1668 007e 0021     		movs	r1, #0
 1669 0080 3F48     		ldr	r0, .L137
 1670 0082 5430     		adds	r0, r0, #84
 1671 0084 FFF7FEFF 		bl	DisplayDoPairsInfoMenuSelectValue
 1672              	.LVL184:
 294:userMenuPatternSewingMachine.c ****                     case UPDOWNTWO_SECOND_TEXT:  // right
 1673              		.loc 1 294 0
 1674 0088 6FE0     		b	.L130
 1675              	.L127:
 297:userMenuPatternSewingMachine.c ****                         DisplayDoPairsInfoMenuSelectValue(&menu,selectValue, leftValue, rightValue)
 1676              		.loc 1 297 0
 1677 008a 0122     		movs	r2, #1
 1678 008c 3F4B     		ldr	r3, .L137+12
 1679 008e 9A82     		strh	r2, [r3, #20]
 298:userMenuPatternSewingMachine.c ****                         break;                    
 1680              		.loc 1 298 0
 1681 0090 3D4C     		ldr	r4, .L137+8
 1682 0092 4423     		movs	r3, #68
 1683 0094 E05A     		ldrh	r0, [r4, r3]
 1684 0096 FFF7FEFF 		bl	__aeabi_ui2f
 1685              	.LVL185:
 1686 009a 031C     		adds	r3, r0, #0
 1687 009c 4222     		movs	r2, #66
 1688 009e A25A     		ldrh	r2, [r4, r2]
 1689 00a0 0121     		movs	r1, #1
ARM GAS  C:\Users\luvsd\AppData\Local\Temp\ccQgKjek.s 			page 44


 1690 00a2 3748     		ldr	r0, .L137
 1691 00a4 5430     		adds	r0, r0, #84
 1692 00a6 FFF7FEFF 		bl	DisplayDoPairsInfoMenuSelectValue
 1693              	.LVL186:
 299:userMenuPatternSewingMachine.c ****                     case UPDOWNTWO_UP_BUTTON: // for up
 1694              		.loc 1 299 0
 1695 00aa 5EE0     		b	.L130
 1696              	.L128:
 301:userMenuPatternSewingMachine.c ****                         {
 1697              		.loc 1 301 0
 1698 00ac 374B     		ldr	r3, .L137+12
 1699 00ae 9B8A     		ldrh	r3, [r3, #20]
 1700 00b0 002B     		cmp	r3, #0
 1701 00b2 0FD1     		bne	.L131
 301:userMenuPatternSewingMachine.c ****                         {
 1702              		.loc 1 301 0 is_stmt 0 discriminator 1
 1703 00b4 4222     		movs	r2, #66
 1704 00b6 3449     		ldr	r1, .L137+8
 1705 00b8 8A5A     		ldrh	r2, [r1, r2]
 1706 00ba 3749     		ldr	r1, .L137+24
 1707 00bc 8A42     		cmp	r2, r1
 1708 00be 09D8     		bhi	.L131
 303:userMenuPatternSewingMachine.c ****                             DisplayDoPairsInfoMenuLeftValueChange(&menu,leftValue);
 1709              		.loc 1 303 0 is_stmt 1
 1710 00c0 0132     		adds	r2, r2, #1
 1711 00c2 91B2     		uxth	r1, r2
 1712 00c4 4233     		adds	r3, r3, #66
 1713 00c6 304A     		ldr	r2, .L137+8
 1714 00c8 D152     		strh	r1, [r2, r3]
 304:userMenuPatternSewingMachine.c ****                         }
 1715              		.loc 1 304 0
 1716 00ca 2D48     		ldr	r0, .L137
 1717 00cc 5430     		adds	r0, r0, #84
 1718 00ce FFF7FEFF 		bl	DisplayDoPairsInfoMenuLeftValueChange
 1719              	.LVL187:
 1720 00d2 4AE0     		b	.L130
 1721              	.L131:
 306:userMenuPatternSewingMachine.c ****                         {
 1722              		.loc 1 306 0
 1723 00d4 012B     		cmp	r3, #1
 1724 00d6 48D1     		bne	.L130
 306:userMenuPatternSewingMachine.c ****                         {
 1725              		.loc 1 306 0 is_stmt 0 discriminator 1
 1726 00d8 4333     		adds	r3, r3, #67
 1727 00da 2B4A     		ldr	r2, .L137+8
 1728 00dc D35A     		ldrh	r3, [r2, r3]
 1729 00de 2E4A     		ldr	r2, .L137+24
 1730 00e0 9342     		cmp	r3, r2
 1731 00e2 42D8     		bhi	.L130
 308:userMenuPatternSewingMachine.c ****                             DisplayDoPairsInfoMenuRightValueChange(&menu,rightValue);
 1732              		.loc 1 308 0 is_stmt 1
 1733 00e4 0133     		adds	r3, r3, #1
 1734 00e6 99B2     		uxth	r1, r3
 1735 00e8 4423     		movs	r3, #68
 1736 00ea 274A     		ldr	r2, .L137+8
 1737 00ec D152     		strh	r1, [r2, r3]
 309:userMenuPatternSewingMachine.c ****                         }
ARM GAS  C:\Users\luvsd\AppData\Local\Temp\ccQgKjek.s 			page 45


 1738              		.loc 1 309 0
 1739 00ee 2448     		ldr	r0, .L137
 1740 00f0 5430     		adds	r0, r0, #84
 1741 00f2 FFF7FEFF 		bl	DisplayDoPairsInfoMenuRightValueChange
 1742              	.LVL188:
 1743 00f6 38E0     		b	.L130
 1744              	.L129:
 313:userMenuPatternSewingMachine.c ****                         {
 1745              		.loc 1 313 0
 1746 00f8 244B     		ldr	r3, .L137+12
 1747 00fa 9B8A     		ldrh	r3, [r3, #20]
 1748 00fc 002B     		cmp	r3, #0
 1749 00fe 0ED1     		bne	.L132
 313:userMenuPatternSewingMachine.c ****                         {
 1750              		.loc 1 313 0 is_stmt 0 discriminator 1
 1751 0100 4222     		movs	r2, #66
 1752 0102 2149     		ldr	r1, .L137+8
 1753 0104 895A     		ldrh	r1, [r1, r2]
 1754 0106 0129     		cmp	r1, #1
 1755 0108 09D9     		bls	.L132
 315:userMenuPatternSewingMachine.c ****                             DisplayDoPairsInfoMenuLeftValueChange(&menu,leftValue);
 1756              		.loc 1 315 0 is_stmt 1
 1757 010a 0139     		subs	r1, r1, #1
 1758 010c 89B2     		uxth	r1, r1
 1759 010e 4233     		adds	r3, r3, #66
 1760 0110 1D4A     		ldr	r2, .L137+8
 1761 0112 D152     		strh	r1, [r2, r3]
 316:userMenuPatternSewingMachine.c ****                         }                        
 1762              		.loc 1 316 0
 1763 0114 1A48     		ldr	r0, .L137
 1764 0116 5430     		adds	r0, r0, #84
 1765 0118 FFF7FEFF 		bl	DisplayDoPairsInfoMenuLeftValueChange
 1766              	.LVL189:
 1767 011c 25E0     		b	.L130
 1768              	.L132:
 318:userMenuPatternSewingMachine.c ****                         {
 1769              		.loc 1 318 0
 1770 011e 012B     		cmp	r3, #1
 1771 0120 23D1     		bne	.L130
 318:userMenuPatternSewingMachine.c ****                         {
 1772              		.loc 1 318 0 is_stmt 0 discriminator 1
 1773 0122 4333     		adds	r3, r3, #67
 1774 0124 184A     		ldr	r2, .L137+8
 1775 0126 D15A     		ldrh	r1, [r2, r3]
 1776 0128 0129     		cmp	r1, #1
 1777 012a 1ED9     		bls	.L130
 320:userMenuPatternSewingMachine.c ****                             DisplayDoPairsInfoMenuRightValueChange(&menu,rightValue);
 1778              		.loc 1 320 0 is_stmt 1
 1779 012c 0139     		subs	r1, r1, #1
 1780 012e 89B2     		uxth	r1, r1
 1781 0130 D152     		strh	r1, [r2, r3]
 321:userMenuPatternSewingMachine.c ****                         }                 
 1782              		.loc 1 321 0
 1783 0132 1348     		ldr	r0, .L137
 1784 0134 5430     		adds	r0, r0, #84
 1785 0136 FFF7FEFF 		bl	DisplayDoPairsInfoMenuRightValueChange
 1786              	.LVL190:
ARM GAS  C:\Users\luvsd\AppData\Local\Temp\ccQgKjek.s 			page 46


 1787 013a 16E0     		b	.L130
 1788              	.L124:
 325:userMenuPatternSewingMachine.c ****                         {
 1789              		.loc 1 325 0
 1790 013c 0222     		movs	r2, #2
 1791 013e 1749     		ldr	r1, .L137+28
 1792 0140 6846     		mov	r0, sp
 1793 0142 FFF7FEFF 		bl	getIndexOfClickedButton
 1794              	.LVL191:
 1795 0146 0028     		cmp	r0, #0
 1796 0148 13D0     		beq	.L133
 1797 014a 0128     		cmp	r0, #1
 1798 014c 0DD1     		bne	.L130
 331:userMenuPatternSewingMachine.c ****                                 g_ptrMachineParameter->patternPair      = rightValue;
 1799              		.loc 1 331 0
 1800 014e 0D4B     		ldr	r3, .L137+4
 1801 0150 1B68     		ldr	r3, [r3]
 1802 0152 0D4A     		ldr	r2, .L137+8
 1803 0154 4221     		movs	r1, #66
 1804 0156 515A     		ldrh	r1, [r2, r1]
 1805 0158 9980     		strh	r1, [r3, #4]
 332:userMenuPatternSewingMachine.c ****                                 ShowWaitMessage();
 1806              		.loc 1 332 0
 1807 015a 4421     		movs	r1, #68
 1808 015c 525A     		ldrh	r2, [r2, r1]
 1809 015e DA80     		strh	r2, [r3, #6]
 333:userMenuPatternSewingMachine.c ****                                 SaveExternalFlashConfig();
 1810              		.loc 1 333 0
 1811 0160 FFF7FEFF 		bl	ShowWaitMessage
 1812              	.LVL192:
 334:userMenuPatternSewingMachine.c ****                                 return MENU_RETURN_PARENT;
 1813              		.loc 1 334 0
 1814 0164 FFF7FEFF 		bl	SaveExternalFlashConfig
 1815              	.LVL193:
 335:userMenuPatternSewingMachine.c ****                             }
 1816              		.loc 1 335 0
 1817 0168 03E0     		b	.L133
 1818              	.L130:
 1819              	.LBE6:
 343:userMenuPatternSewingMachine.c **** }
 1820              		.loc 1 343 0 discriminator 1
 1821 016a 0948     		ldr	r0, .L137+16
 341:userMenuPatternSewingMachine.c ****     }
 1822              		.loc 1 341 0 discriminator 1
 1823 016c 05E0     		b	.L120
 1824              	.L123:
 343:userMenuPatternSewingMachine.c **** }
 1825              		.loc 1 343 0
 1826 016e 0848     		ldr	r0, .L137+16
 1827 0170 03E0     		b	.L120
 1828              	.L133:
 1829              	.LBB7:
 327:userMenuPatternSewingMachine.c ****                             case BOTTOM_RIGHT:
 1830              		.loc 1 327 0 discriminator 1
 1831 0172 8020     		movs	r0, #128
 1832 0174 0006     		lsls	r0, r0, #24
 1833 0176 00E0     		b	.L120
ARM GAS  C:\Users\luvsd\AppData\Local\Temp\ccQgKjek.s 			page 47


 1834              	.LVL194:
 1835              	.L136:
 1836              	.LBE7:
 343:userMenuPatternSewingMachine.c **** }
 1837              		.loc 1 343 0
 1838 0178 0548     		ldr	r0, .L137+16
 1839              	.LVL195:
 1840              	.L120:
 344:userMenuPatternSewingMachine.c **** 
 1841              		.loc 1 344 0
 1842 017a 03B0     		add	sp, sp, #12
 1843              		@ sp needed
 1844 017c 30BD     		pop	{r4, r5, pc}
 1845              	.L138:
 1846 017e C046     		.align	2
 1847              	.L137:
 1848 0180 80010000 		.word	.LANCHOR2
 1849 0184 00000000 		.word	g_ptrMachineParameter
 1850 0188 00000000 		.word	.LANCHOR0
 1851 018c 80030000 		.word	.LANCHOR3
 1852 0190 01000080 		.word	-2147483647
 1853 0194 1C000000 		.word	.L126
 1854 0198 0F270000 		.word	9999
 1855 019c 00000000 		.word	g_btnBottom
 1856              		.cfi_endproc
 1857              	.LFE66:
 1858              		.size	doPairsInfoMenu, .-doPairsInfoMenu
 1859              		.section	.text.doMachine,"ax",%progbits
 1860              		.align	2
 1861              		.global	doMachine
 1862              		.code	16
 1863              		.thumb_func
 1864              		.type	doMachine, %function
 1865              	doMachine:
 1866              	.LFB73:
 448:userMenuPatternSewingMachine.c ****     MENUNODE *thisMenu = (MENUNODE *) this;    
 1867              		.loc 1 448 0
 1868              		.cfi_startproc
 1869              		@ args = 0, pretend = 0, frame = 0
 1870              		@ frame_needed = 0, uses_anonymous_args = 0
 1871              	.LVL196:
 1872 0000 30B5     		push	{r4, r5, lr}
 1873              		.cfi_def_cfa_offset 12
 1874              		.cfi_offset 4, -12
 1875              		.cfi_offset 5, -8
 1876              		.cfi_offset 14, -4
 1877 0002 83B0     		sub	sp, sp, #12
 1878              		.cfi_def_cfa_offset 24
 1879 0004 0400     		movs	r4, r0
 1880 0006 0D1E     		subs	r5, r1, #0
 1881              	.LVL197:
 456:userMenuPatternSewingMachine.c ****     {
 1882              		.loc 1 456 0
 1883 0008 06D0     		beq	.L140
 458:userMenuPatternSewingMachine.c ****         displayDir  = getMiscConfig()->bDisplayDir;  
 1884              		.loc 1 458 0
 1885 000a 3D4B     		ldr	r3, .L155
ARM GAS  C:\Users\luvsd\AppData\Local\Temp\ccQgKjek.s 			page 48


 1886 000c 1B68     		ldr	r3, [r3]
 1887 000e 1A78     		ldrb	r2, [r3]
 1888 0010 3C4B     		ldr	r3, .L155+4
 1889 0012 DA82     		strh	r2, [r3, #22]
 459:userMenuPatternSewingMachine.c ****     }
 1890              		.loc 1 459 0
 1891 0014 FFF7FEFF 		bl	getMiscConfig
 1892              	.LVL198:
 1893              	.L140:
 462:userMenuPatternSewingMachine.c ****     {
 1894              		.loc 1 462 0
 1895 0018 3A4B     		ldr	r3, .L155+4
 1896 001a 1A00     		movs	r2, r3
 1897 001c 1832     		adds	r2, r2, #24
 1898 001e 0192     		str	r2, [sp, #4]
 1899 0020 1633     		adds	r3, r3, #22
 1900 0022 0093     		str	r3, [sp]
 1901 0024 0223     		movs	r3, #2
 1902 0026 384A     		ldr	r2, .L155+8
 1903 0028 4832     		adds	r2, r2, #72
 1904 002a 2900     		movs	r1, r5
 1905 002c 2000     		movs	r0, r4
 1906 002e FFF7FEFF 		bl	doSelectList
 1907              	.LVL199:
 1908 0032 364B     		ldr	r3, .L155+12
 1909 0034 9842     		cmp	r0, r3
 1910 0036 41D0     		beq	.L142
 1911 0038 03DC     		bgt	.L143
 1912 003a 354B     		ldr	r3, .L155+16
 1913 003c 9842     		cmp	r0, r3
 1914 003e 29D0     		beq	.L144
 1915 0040 58E0     		b	.L152
 1916              	.L143:
 1917 0042 0028     		cmp	r0, #0
 1918 0044 02D0     		beq	.L145
 1919 0046 0128     		cmp	r0, #1
 1920 0048 12D0     		beq	.L146
 1921 004a 53E0     		b	.L152
 1922              	.L145:
 465:userMenuPatternSewingMachine.c ****             doSelectList(this, TRUE, listText, 2, &indexSelect, &page);
 1923              		.loc 1 465 0
 1924 004c 0020     		movs	r0, #0
 1925 004e FFF7FEFF 		bl	setDisplayDirection
 1926              	.LVL200:
 466:userMenuPatternSewingMachine.c ****             break;
 1927              		.loc 1 466 0
 1928 0052 2C4B     		ldr	r3, .L155+4
 1929 0054 1A00     		movs	r2, r3
 1930 0056 1832     		adds	r2, r2, #24
 1931 0058 0192     		str	r2, [sp, #4]
 1932 005a 1633     		adds	r3, r3, #22
 1933 005c 0093     		str	r3, [sp]
 1934 005e 0223     		movs	r3, #2
 1935 0060 294A     		ldr	r2, .L155+8
 1936 0062 4832     		adds	r2, r2, #72
 1937 0064 0121     		movs	r1, #1
 1938 0066 2000     		movs	r0, r4
ARM GAS  C:\Users\luvsd\AppData\Local\Temp\ccQgKjek.s 			page 49


 1939 0068 FFF7FEFF 		bl	doSelectList
 1940              	.LVL201:
 497:userMenuPatternSewingMachine.c **** }
 1941              		.loc 1 497 0
 1942 006c 2948     		ldr	r0, .L155+20
 467:userMenuPatternSewingMachine.c ****         case 1:
 1943              		.loc 1 467 0
 1944 006e 45E0     		b	.L141
 1945              	.L146:
 469:userMenuPatternSewingMachine.c ****             doSelectList(this, TRUE, listText, 2, &indexSelect, &page);
 1946              		.loc 1 469 0
 1947 0070 0120     		movs	r0, #1
 1948 0072 FFF7FEFF 		bl	setDisplayDirection
 1949              	.LVL202:
 470:userMenuPatternSewingMachine.c ****             break; 
 1950              		.loc 1 470 0
 1951 0076 234B     		ldr	r3, .L155+4
 1952 0078 1A00     		movs	r2, r3
 1953 007a 1832     		adds	r2, r2, #24
 1954 007c 0192     		str	r2, [sp, #4]
 1955 007e 1633     		adds	r3, r3, #22
 1956 0080 0093     		str	r3, [sp]
 1957 0082 0223     		movs	r3, #2
 1958 0084 204A     		ldr	r2, .L155+8
 1959 0086 4832     		adds	r2, r2, #72
 1960 0088 0121     		movs	r1, #1
 1961 008a 2000     		movs	r0, r4
 1962 008c FFF7FEFF 		bl	doSelectList
 1963              	.LVL203:
 497:userMenuPatternSewingMachine.c **** }
 1964              		.loc 1 497 0
 1965 0090 2048     		ldr	r0, .L155+20
 471:userMenuPatternSewingMachine.c ****         case MENU_BOTTOM_LEFT:
 1966              		.loc 1 471 0
 1967 0092 33E0     		b	.L141
 1968              	.L144:
 474:userMenuPatternSewingMachine.c ****             {
 1969              		.loc 1 474 0
 1970 0094 1A4B     		ldr	r3, .L155
 1971 0096 1B68     		ldr	r3, [r3]
 1972 0098 1B78     		ldrb	r3, [r3]
 1973 009a 002B     		cmp	r3, #0
 1974 009c 02D0     		beq	.L147
 1975 009e 012B     		cmp	r3, #1
 1976 00a0 06D0     		beq	.L148
 1977 00a2 29E0     		b	.L154
 1978              	.L147:
 476:userMenuPatternSewingMachine.c ****                 case 1: setDisplayDirection(DISPLAY_DIRECTION_LANDSCAPE); break;
 1979              		.loc 1 476 0
 1980 00a4 0020     		movs	r0, #0
 1981 00a6 FFF7FEFF 		bl	setDisplayDirection
 1982              	.LVL204:
 479:userMenuPatternSewingMachine.c ****         }
 1983              		.loc 1 479 0
 1984 00aa 8020     		movs	r0, #128
 1985 00ac 0006     		lsls	r0, r0, #24
 476:userMenuPatternSewingMachine.c ****                 case 1: setDisplayDirection(DISPLAY_DIRECTION_LANDSCAPE); break;
ARM GAS  C:\Users\luvsd\AppData\Local\Temp\ccQgKjek.s 			page 50


 1986              		.loc 1 476 0
 1987 00ae 25E0     		b	.L141
 1988              	.L148:
 477:userMenuPatternSewingMachine.c ****             }      
 1989              		.loc 1 477 0
 1990 00b0 0120     		movs	r0, #1
 1991 00b2 FFF7FEFF 		bl	setDisplayDirection
 1992              	.LVL205:
 479:userMenuPatternSewingMachine.c ****         }
 1993              		.loc 1 479 0
 1994 00b6 8020     		movs	r0, #128
 1995 00b8 0006     		lsls	r0, r0, #24
 477:userMenuPatternSewingMachine.c ****             }      
 1996              		.loc 1 477 0
 1997 00ba 1FE0     		b	.L141
 1998              	.L142:
 483:userMenuPatternSewingMachine.c ****             switch(g_ptrMachineParameter->machineType)
 1999              		.loc 1 483 0
 2000 00bc 104B     		ldr	r3, .L155
 2001 00be 114A     		ldr	r2, .L155+4
 2002 00c0 D28A     		ldrh	r2, [r2, #22]
 2003 00c2 1968     		ldr	r1, [r3]
 2004 00c4 0A70     		strb	r2, [r1]
 484:userMenuPatternSewingMachine.c ****             {
 2005              		.loc 1 484 0
 2006 00c6 1B68     		ldr	r3, [r3]
 2007 00c8 1B78     		ldrb	r3, [r3]
 2008 00ca 002B     		cmp	r3, #0
 2009 00cc 02D0     		beq	.L150
 2010 00ce 012B     		cmp	r3, #1
 2011 00d0 04D0     		beq	.L151
 2012 00d2 06E0     		b	.L149
 2013              	.L150:
 486:userMenuPatternSewingMachine.c ****                 case 1: setDisplayDirection(DISPLAY_DIRECTION_LANDSCAPE); break;
 2014              		.loc 1 486 0
 2015 00d4 0020     		movs	r0, #0
 2016 00d6 FFF7FEFF 		bl	setDisplayDirection
 2017              	.LVL206:
 2018 00da 02E0     		b	.L149
 2019              	.L151:
 487:userMenuPatternSewingMachine.c ****             }  
 2020              		.loc 1 487 0
 2021 00dc 0120     		movs	r0, #1
 2022 00de FFF7FEFF 		bl	setDisplayDirection
 2023              	.LVL207:
 2024              	.L149:
 490:userMenuPatternSewingMachine.c ****             ShowWaitMessage();                                    
 2025              		.loc 1 490 0
 2026 00e2 FFF7FEFF 		bl	SetCountLoop
 2027              	.LVL208:
 491:userMenuPatternSewingMachine.c ****             SaveExternalFlashConfig();
 2028              		.loc 1 491 0
 2029 00e6 FFF7FEFF 		bl	ShowWaitMessage
 2030              	.LVL209:
 492:userMenuPatternSewingMachine.c **** 
 2031              		.loc 1 492 0
 2032 00ea FFF7FEFF 		bl	SaveExternalFlashConfig
ARM GAS  C:\Users\luvsd\AppData\Local\Temp\ccQgKjek.s 			page 51


 2033              	.LVL210:
 494:userMenuPatternSewingMachine.c ****         }            
 2034              		.loc 1 494 0
 2035 00ee 8020     		movs	r0, #128
 2036 00f0 0006     		lsls	r0, r0, #24
 2037 00f2 03E0     		b	.L141
 2038              	.L152:
 497:userMenuPatternSewingMachine.c **** }
 2039              		.loc 1 497 0
 2040 00f4 0748     		ldr	r0, .L155+20
 2041 00f6 01E0     		b	.L141
 2042              	.L154:
 479:userMenuPatternSewingMachine.c ****         }
 2043              		.loc 1 479 0
 2044 00f8 8020     		movs	r0, #128
 2045 00fa 0006     		lsls	r0, r0, #24
 2046              	.L141:
 498:userMenuPatternSewingMachine.c **** 
 2047              		.loc 1 498 0
 2048 00fc 03B0     		add	sp, sp, #12
 2049              		@ sp needed
 2050              	.LVL211:
 2051 00fe 30BD     		pop	{r4, r5, pc}
 2052              	.L156:
 2053              		.align	2
 2054              	.L155:
 2055 0100 00000000 		.word	g_ptrMachineParameter
 2056 0104 80030000 		.word	.LANCHOR3
 2057 0108 00000000 		.word	.LANCHOR0
 2058 010c 04000080 		.word	-2147483644
 2059 0110 03000080 		.word	-2147483645
 2060 0114 01000080 		.word	-2147483647
 2061              		.cfi_endproc
 2062              	.LFE73:
 2063              		.size	doMachine, .-doMachine
 2064              		.section	.text.getTarget,"ax",%progbits
 2065              		.align	2
 2066              		.global	getTarget
 2067              		.code	16
 2068              		.thumb_func
 2069              		.type	getTarget, %function
 2070              	getTarget:
 2071              	.LFB75:
 543:userMenuPatternSewingMachine.c ****     /* BLACK_CPU: PATTERN_MACHINE Ļ│ĀņĀĢ */
 2072              		.loc 1 543 0
 2073              		.cfi_startproc
 2074              		@ args = 0, pretend = 0, frame = 0
 2075              		@ frame_needed = 0, uses_anonymous_args = 0
 2076              		@ link register save eliminated.
 545:userMenuPatternSewingMachine.c **** }
 2077              		.loc 1 545 0
 2078 0000 014B     		ldr	r3, .L158
 2079 0002 1B68     		ldr	r3, [r3]
 2080 0004 5888     		ldrh	r0, [r3, #2]
 546:userMenuPatternSewingMachine.c **** 
 2081              		.loc 1 546 0
 2082              		@ sp needed
ARM GAS  C:\Users\luvsd\AppData\Local\Temp\ccQgKjek.s 			page 52


 2083 0006 7047     		bx	lr
 2084              	.L159:
 2085              		.align	2
 2086              	.L158:
 2087 0008 00000000 		.word	g_ptrMachineParameter
 2088              		.cfi_endproc
 2089              	.LFE75:
 2090              		.size	getTarget, .-getTarget
 2091              		.section	.text.setTarget,"ax",%progbits
 2092              		.align	2
 2093              		.global	setTarget
 2094              		.code	16
 2095              		.thumb_func
 2096              		.type	setTarget, %function
 2097              	setTarget:
 2098              	.LFB76:
 549:userMenuPatternSewingMachine.c ****     /* BLACK_CPU: PATTERN_MACHINE Ļ│ĀņĀĢ */
 2099              		.loc 1 549 0
 2100              		.cfi_startproc
 2101              		@ args = 0, pretend = 0, frame = 0
 2102              		@ frame_needed = 0, uses_anonymous_args = 0
 2103              		@ link register save eliminated.
 2104              	.LVL212:
 551:userMenuPatternSewingMachine.c **** }
 2105              		.loc 1 551 0
 2106 0000 014B     		ldr	r3, .L161
 2107 0002 1B68     		ldr	r3, [r3]
 2108 0004 5880     		strh	r0, [r3, #2]
 552:userMenuPatternSewingMachine.c **** 
 2109              		.loc 1 552 0
 2110              		@ sp needed
 2111 0006 7047     		bx	lr
 2112              	.L162:
 2113              		.align	2
 2114              	.L161:
 2115 0008 00000000 		.word	g_ptrMachineParameter
 2116              		.cfi_endproc
 2117              	.LFE76:
 2118              		.size	setTarget, .-setTarget
 2119              		.section	.text.getActual,"ax",%progbits
 2120              		.align	2
 2121              		.global	getActual
 2122              		.code	16
 2123              		.thumb_func
 2124              		.type	getActual, %function
 2125              	getActual:
 2126              	.LFB77:
 555:userMenuPatternSewingMachine.c ****     COUNT *ptrCount = getCount();
 2127              		.loc 1 555 0
 2128              		.cfi_startproc
 2129              		@ args = 0, pretend = 0, frame = 0
 2130              		@ frame_needed = 0, uses_anonymous_args = 0
 2131 0000 10B5     		push	{r4, lr}
 2132              		.cfi_def_cfa_offset 8
 2133              		.cfi_offset 4, -8
 2134              		.cfi_offset 14, -4
 556:userMenuPatternSewingMachine.c ****     /* BLACK_CPU: PATTERN_MACHINE Ļ│ĀņĀĢ */
ARM GAS  C:\Users\luvsd\AppData\Local\Temp\ccQgKjek.s 			page 53


 2135              		.loc 1 556 0
 2136 0002 FFF7FEFF 		bl	getCount
 2137              	.LVL213:
 558:userMenuPatternSewingMachine.c **** }
 2138              		.loc 1 558 0
 2139 0006 838B     		ldrh	r3, [r0, #28]
 2140 0008 1B04     		lsls	r3, r3, #16
 2141 000a C08B     		ldrh	r0, [r0, #30]
 2142              	.LVL214:
 2143 000c 1843     		orrs	r0, r3
 2144 000e 0A21     		movs	r1, #10
 2145 0010 FFF7FEFF 		bl	__aeabi_uidiv
 2146              	.LVL215:
 559:userMenuPatternSewingMachine.c **** 
 2147              		.loc 1 559 0
 2148              		@ sp needed
 2149 0014 10BD     		pop	{r4, pc}
 2150              		.cfi_endproc
 2151              	.LFE77:
 2152              		.size	getActual, .-getActual
 2153 0016 C046     		.section	.text.setActual,"ax",%progbits
 2154              		.align	2
 2155              		.global	setActual
 2156              		.code	16
 2157              		.thumb_func
 2158              		.type	setActual, %function
 2159              	setActual:
 2160              	.LFB78:
 562:userMenuPatternSewingMachine.c ****     COUNT *ptrCount = getCount();
 2161              		.loc 1 562 0
 2162              		.cfi_startproc
 2163              		@ args = 0, pretend = 0, frame = 0
 2164              		@ frame_needed = 0, uses_anonymous_args = 0
 2165              	.LVL216:
 2166 0000 10B5     		push	{r4, lr}
 2167              		.cfi_def_cfa_offset 8
 2168              		.cfi_offset 4, -8
 2169              		.cfi_offset 14, -4
 2170 0002 0400     		movs	r4, r0
 563:userMenuPatternSewingMachine.c ****     /* BLACK_CPU: PATTERN_MACHINE Ļ│ĀņĀĢ */
 2171              		.loc 1 563 0
 2172 0004 FFF7FEFF 		bl	getCount
 2173              	.LVL217:
 565:userMenuPatternSewingMachine.c ****     ptrCount->patternActualL = CONVERT_TO_LOW(value*10);
 2174              		.loc 1 565 0
 2175 0008 A200     		lsls	r2, r4, #2
 2176 000a 1219     		adds	r2, r2, r4
 2177 000c 5300     		lsls	r3, r2, #1
 2178 000e 1B0C     		lsrs	r3, r3, #16
 2179 0010 8383     		strh	r3, [r0, #28]
 566:userMenuPatternSewingMachine.c **** }
 2180              		.loc 1 566 0
 2181 0012 5200     		lsls	r2, r2, #1
 2182 0014 C283     		strh	r2, [r0, #30]
 567:userMenuPatternSewingMachine.c **** 
 2183              		.loc 1 567 0
 2184              		@ sp needed
ARM GAS  C:\Users\luvsd\AppData\Local\Temp\ccQgKjek.s 			page 54


 2185              	.LVL218:
 2186 0016 10BD     		pop	{r4, pc}
 2187              		.cfi_endproc
 2188              	.LFE78:
 2189              		.size	setActual, .-setActual
 2190              		.section	.text.menuCreate,"ax",%progbits
 2191              		.align	2
 2192              		.global	menuCreate
 2193              		.code	16
 2194              		.thumb_func
 2195              		.type	menuCreate, %function
 2196              	menuCreate:
 2197              	.LFB80:
 609:userMenuPatternSewingMachine.c **** 
 610:userMenuPatternSewingMachine.c **** MENUNODE * menuCreate()
 611:userMenuPatternSewingMachine.c **** {
 2198              		.loc 1 611 0
 2199              		.cfi_startproc
 2200              		@ args = 0, pretend = 0, frame = 0
 2201              		@ frame_needed = 0, uses_anonymous_args = 0
 2202 0000 F8B5     		push	{r3, r4, r5, r6, r7, lr}
 2203              		.cfi_def_cfa_offset 24
 2204              		.cfi_offset 3, -24
 2205              		.cfi_offset 4, -20
 2206              		.cfi_offset 5, -16
 2207              		.cfi_offset 6, -12
 2208              		.cfi_offset 7, -8
 2209              		.cfi_offset 14, -4
 2210              	.LVL219:
 612:userMenuPatternSewingMachine.c ****     MENUNODE *g_ptrAndonMenuNode = NULL;
 613:userMenuPatternSewingMachine.c ****     
 614:userMenuPatternSewingMachine.c ****     setDisplayDirection(getMiscConfig()->bDisplayDir);
 2211              		.loc 1 614 0
 2212 0002 FFF7FEFF 		bl	getMiscConfig
 2213              	.LVL220:
 2214 0006 0078     		ldrb	r0, [r0]
 2215 0008 FFF7FEFF 		bl	setDisplayDirection
 2216              	.LVL221:
 615:userMenuPatternSewingMachine.c **** 
 616:userMenuPatternSewingMachine.c ****     // Main Menu  ............................................
 617:userMenuPatternSewingMachine.c ****     MENUNODE *root                        = createMENUNODE(NULL,      "TOP MENU",     &doTopMenu);
 2217              		.loc 1 617 0
 2218 000c 224A     		ldr	r2, .L172
 2219 000e 2349     		ldr	r1, .L172+4
 2220 0010 0020     		movs	r0, #0
 2221 0012 FFF7FEFF 		bl	createMENUNODE
 2222              	.LVL222:
 2223 0016 0600     		movs	r6, r0
 2224              	.LVL223:
 618:userMenuPatternSewingMachine.c ****     MENUNODE    *manage                   = manageMenuCreate(root);
 2225              		.loc 1 618 0
 2226 0018 FFF7FEFF 		bl	manageMenuCreate
 2227              	.LVL224:
 2228 001c 0500     		movs	r5, r0
 2229              	.LVL225:
 2230              	.LBB8:
 619:userMenuPatternSewingMachine.c ****     for(int i=0; i < getNoOfChild(manage); i++) 
ARM GAS  C:\Users\luvsd\AppData\Local\Temp\ccQgKjek.s 			page 55


 2231              		.loc 1 619 0
 2232 001e 0024     		movs	r4, #0
 2233 0020 16E0     		b	.L166
 2234              	.LVL226:
 2235              	.L169:
 2236              	.LBB9:
 620:userMenuPatternSewingMachine.c ****     {
 621:userMenuPatternSewingMachine.c ****         MENUNODE *node = getNthChild(manage,i);
 2237              		.loc 1 621 0
 2238 0022 2100     		movs	r1, r4
 2239 0024 2800     		movs	r0, r5
 2240 0026 FFF7FEFF 		bl	getNthChild
 2241              	.LVL227:
 2242 002a 0700     		movs	r7, r0
 2243              	.LVL228:
 622:userMenuPatternSewingMachine.c ****         if(strcmp(node->nodeName,"SETTINGS") == 0)
 2244              		.loc 1 622 0
 2245 002c 1030     		adds	r0, r0, #16
 2246              	.LVL229:
 2247 002e 1C49     		ldr	r1, .L172+8
 2248 0030 FFF7FEFF 		bl	strcmp
 2249              	.LVL230:
 2250 0034 0028     		cmp	r0, #0
 2251 0036 0AD1     		bne	.L167
 2252              	.LBB10:
 623:userMenuPatternSewingMachine.c ****         {
 624:userMenuPatternSewingMachine.c ****             // MENUNODE        *machine              = createMENUNODE  (node,  "MACHINE",      &doM
 625:userMenuPatternSewingMachine.c ****             MENUNODE        *andonSetting         = createMENUNODE  (node,  "ANDON",        &doAndo
 2253              		.loc 1 625 0
 2254 0038 1A4A     		ldr	r2, .L172+12
 2255 003a 1B49     		ldr	r1, .L172+16
 2256 003c 3800     		movs	r0, r7
 2257 003e FFF7FEFF 		bl	createMENUNODE
 2258              	.LVL231:
 626:userMenuPatternSewingMachine.c ****             // MENUNODE        *curSet               = currentSensorMenuCreate(node);  
 627:userMenuPatternSewingMachine.c ****             MENUNODE        *autoReset            = createMENUNODE  (node,  "AUTO RESET",   &doAuto
 2259              		.loc 1 627 0
 2260 0042 1A4A     		ldr	r2, .L172+20
 2261 0044 1A49     		ldr	r1, .L172+24
 2262 0046 3800     		movs	r0, r7
 2263 0048 FFF7FEFF 		bl	createMENUNODE
 2264              	.LVL232:
 628:userMenuPatternSewingMachine.c ****             break;
 2265              		.loc 1 628 0
 2266 004c 05E0     		b	.L168
 2267              	.L167:
 2268              	.LBE10:
 2269              	.LBE9:
 619:userMenuPatternSewingMachine.c ****     {
 2270              		.loc 1 619 0 discriminator 2
 2271 004e 0134     		adds	r4, r4, #1
 2272              	.LVL233:
 2273              	.L166:
 619:userMenuPatternSewingMachine.c ****     {
 2274              		.loc 1 619 0 is_stmt 0 discriminator 1
 2275 0050 2800     		movs	r0, r5
 2276 0052 FFF7FEFF 		bl	getNoOfChild
ARM GAS  C:\Users\luvsd\AppData\Local\Temp\ccQgKjek.s 			page 56


 2277              	.LVL234:
 2278 0056 8442     		cmp	r4, r0
 2279 0058 E3DB     		blt	.L169
 2280              	.L168:
 2281              	.LBE8:
 629:userMenuPatternSewingMachine.c ****         }
 630:userMenuPatternSewingMachine.c ****     }
 631:userMenuPatternSewingMachine.c ****                        
 632:userMenuPatternSewingMachine.c ****     if(g_ptrMachineParameter->andon_enable==TRUE)
 2282              		.loc 1 632 0 is_stmt 1
 2283 005a 164B     		ldr	r3, .L172+28
 2284 005c 1B68     		ldr	r3, [r3]
 2285 005e 9B8A     		ldrh	r3, [r3, #20]
 2286 0060 012B     		cmp	r3, #1
 2287 0062 03D1     		bne	.L170
 633:userMenuPatternSewingMachine.c ****     {
 634:userMenuPatternSewingMachine.c ****         g_ptrAndonMenuNode = andonMenuCreate (root); 
 2288              		.loc 1 634 0
 2289 0064 3000     		movs	r0, r6
 2290 0066 FFF7FEFF 		bl	andonMenuCreate
 2291              	.LVL235:
 2292 006a 04E0     		b	.L171
 2293              	.LVL236:
 2294              	.L170:
 635:userMenuPatternSewingMachine.c ****     }
 636:userMenuPatternSewingMachine.c ****     else 
 637:userMenuPatternSewingMachine.c ****     {
 638:userMenuPatternSewingMachine.c ****         createMENUNODE  (root,    "RESET",        &doResetData);
 2295              		.loc 1 638 0
 2296 006c 124A     		ldr	r2, .L172+32
 2297 006e 1349     		ldr	r1, .L172+36
 2298 0070 3000     		movs	r0, r6
 2299 0072 FFF7FEFF 		bl	createMENUNODE
 2300              	.LVL237:
 2301              	.L171:
 639:userMenuPatternSewingMachine.c ****     }
 640:userMenuPatternSewingMachine.c ****         
 641:userMenuPatternSewingMachine.c ****     MENUNODE    *pairsInfoMenuNode        = createMENUNODE  (root,    "PAIR(S) INFO", &doPairsInfoM
 2302              		.loc 1 641 0
 2303 0076 124A     		ldr	r2, .L172+40
 2304 0078 1249     		ldr	r1, .L172+44
 2305 007a 3000     		movs	r0, r6
 2306 007c FFF7FEFF 		bl	createMENUNODE
 2307              	.LVL238:
 642:userMenuPatternSewingMachine.c ****     MENUNODE    *targetInfoMenuNode       = createMENUNODE  (root,    "TARGET",       &doTargetInfo
 2308              		.loc 1 642 0
 2309 0080 114A     		ldr	r2, .L172+48
 2310 0082 1249     		ldr	r1, .L172+52
 2311 0084 3000     		movs	r0, r6
 2312 0086 FFF7FEFF 		bl	createMENUNODE
 2313              	.LVL239:
 643:userMenuPatternSewingMachine.c ****     MENUNODE    *actualtInfoMenuNode      = createMENUNODE  (root,    "ACTUAL",       &doActualInfo
 2314              		.loc 1 643 0
 2315 008a 114A     		ldr	r2, .L172+56
 2316 008c 1149     		ldr	r1, .L172+60
 2317 008e 3000     		movs	r0, r6
 2318 0090 FFF7FEFF 		bl	createMENUNODE
ARM GAS  C:\Users\luvsd\AppData\Local\Temp\ccQgKjek.s 			page 57


 2319              	.LVL240:
 644:userMenuPatternSewingMachine.c ****     
 645:userMenuPatternSewingMachine.c ****     /*
 646:userMenuPatternSewingMachine.c ****     printf("---%d\r\n",getCount()->andonEntry==TRUE);
 647:userMenuPatternSewingMachine.c ****     
 648:userMenuPatternSewingMachine.c ****     if(getCount()->andonEntry==TRUE && g_ptrAndonMenuNode != NULL)
 649:userMenuPatternSewingMachine.c ****     {
 650:userMenuPatternSewingMachine.c ****         //printf("ANNNNNN\r\n");
 651:userMenuPatternSewingMachine.c ****         return g_ptrAndonMenuNode;
 652:userMenuPatternSewingMachine.c ****     }
 653:userMenuPatternSewingMachine.c ****     */
 654:userMenuPatternSewingMachine.c ****     
 655:userMenuPatternSewingMachine.c ****    return root;
 656:userMenuPatternSewingMachine.c **** }
 2320              		.loc 1 656 0
 2321 0094 3000     		movs	r0, r6
 2322              		@ sp needed
 2323              	.LVL241:
 2324              	.LVL242:
 2325              	.LVL243:
 2326 0096 F8BD     		pop	{r3, r4, r5, r6, r7, pc}
 2327              	.L173:
 2328              		.align	2
 2329              	.L172:
 2330 0098 00000000 		.word	doTopMenu
 2331 009c B8000000 		.word	.LC82
 2332 00a0 C4000000 		.word	.LC84
 2333 00a4 00000000 		.word	doAndonSet
 2334 00a8 48000000 		.word	.LC28
 2335 00ac 00000000 		.word	doAutoReset
 2336 00b0 D0000000 		.word	.LC89
 2337 00b4 00000000 		.word	g_ptrMachineParameter
 2338 00b8 00000000 		.word	doResetData
 2339 00bc 50000000 		.word	.LC30
 2340 00c0 00000000 		.word	doPairsInfoMenu
 2341 00c4 DC000000 		.word	.LC95
 2342 00c8 00000000 		.word	doTargetInfoMenu
 2343 00cc EC000000 		.word	.LC98
 2344 00d0 00000000 		.word	doActualInfoMenu
 2345 00d4 F4000000 		.word	.LC101
 2346              		.cfi_endproc
 2347              	.LFE80:
 2348              		.size	menuCreate, .-menuCreate
 2349              		.global	g_noPatternString
 2350              		.global	g_patternString
 2351              		.comm	Param,6,4
 2352              		.data
 2353              		.align	2
 2354              		.set	.LANCHOR0,. + 0
 2355              		.type	incr.9520, %object
 2356              		.size	incr.9520, 12
 2357              	incr.9520:
 2358 0000 01000000 		.word	1
 2359 0004 64000000 		.word	100
 2360 0008 F4010000 		.word	500
 2361              		.type	incr.9534, %object
 2362              		.size	incr.9534, 12
ARM GAS  C:\Users\luvsd\AppData\Local\Temp\ccQgKjek.s 			page 58


 2363              	incr.9534:
 2364 000c 01000000 		.word	1
 2365 0010 0A000000 		.word	10
 2366 0014 64000000 		.word	100
 2367              		.type	listText.9590, %object
 2368              		.size	listText.9590, 8
 2369              	listText.9590:
 2370 0018 FC000000 		.word	.LC103
 2371 001c 00010000 		.word	.LC104
 2372              		.type	g_patternString, %object
 2373              		.size	g_patternString, 32
 2374              	g_patternString:
 2375 0020 00000000 		.word	.LC1
 2376 0024 14010000 		.word	.LC107
 2377 0028 1C010000 		.word	.LC108
 2378 002c 24010000 		.word	.LC109
 2379 0030 28010000 		.word	.LC110
 2380 0034 2C010000 		.word	.LC111
 2381 0038 30010000 		.word	.LC112
 2382 003c 34010000 		.word	.LC113
 2383              		.type	oldPage.9405, %object
 2384              		.size	oldPage.9405, 1
 2385              	oldPage.9405:
 2386 0040 FF       		.byte	-1
 2387 0041 00       		.space	1
 2388              		.type	leftValue.9477, %object
 2389              		.size	leftValue.9477, 2
 2390              	leftValue.9477:
 2391 0042 0200     		.short	2
 2392              		.type	rightValue.9478, %object
 2393              		.size	rightValue.9478, 2
 2394              	rightValue.9478:
 2395 0044 1900     		.short	25
 2396 0046 0000     		.space	2
 2397              		.type	listText.9547, %object
 2398              		.size	listText.9547, 8
 2399              	listText.9547:
 2400 0048 04010000 		.word	.LC105
 2401 004c 0C010000 		.word	.LC106
 2402              		.type	g_noPatternString, %object
 2403              		.size	g_noPatternString, 1
 2404              	g_noPatternString:
 2405 0050 08       		.byte	8
 2406              		.section	.rodata.str1.4,"aMS",%progbits,1
 2407              		.align	2
 2408              	.LC1:
 2409 0000 54617267 		.ascii	"Target\000"
 2409      657400
 2410 0007 00       		.space	1
 2411              	.LC3:
 2412 0008 54617267 		.ascii	"Target info.\000"
 2412      65742069 
 2412      6E666F2E 
 2412      00
 2413 0015 000000   		.space	3
 2414              	.LC9:
 2415 0018 56616C75 		.ascii	"Value\000"
ARM GAS  C:\Users\luvsd\AppData\Local\Temp\ccQgKjek.s 			page 59


 2415      6500
 2416 001e 0000     		.space	2
 2417              	.LC11:
 2418 0020 41637475 		.ascii	"Actual Q'ty\000"
 2418      616C2051 
 2418      27747900 
 2419              	.LC16:
 2420 002c 446F2079 		.ascii	"Do you want ?\000"
 2420      6F752077 
 2420      616E7420 
 2420      3F00
 2421 003a 0000     		.space	2
 2422              	.LC18:
 2423 003c 59455300 		.ascii	"YES\000"
 2424              	.LC20:
 2425 0040 51554954 		.ascii	"QUIT\000"
 2425      00
 2426 0045 000000   		.space	3
 2427              	.LC28:
 2428 0048 414E444F 		.ascii	"ANDON\000"
 2428      4E00
 2429 004e 0000     		.space	2
 2430              	.LC30:
 2431 0050 52455345 		.ascii	"RESET\000"
 2431      5400
 2432 0056 0000     		.space	2
 2433              	.LC33:
 2434 0058 2564203A 		.ascii	"%d : %3.1f-Pair\000"
 2434      2025332E 
 2434      31662D50 
 2434      61697200 
 2435              	.LC35:
 2436 0068 4D454E55 		.ascii	"MENU\000"
 2436      00
 2437 006d 000000   		.space	3
 2438              	.LC38:
 2439 0070 257500   		.ascii	"%u\000"
 2440 0073 00       		.space	1
 2441              	.LC40:
 2442 0074 256C7500 		.ascii	"%lu\000"
 2443              	.LC42:
 2444 0078 25342E31 		.ascii	"%4.1f\000"
 2444      6600
 2445 007e 0000     		.space	2
 2446              	.LC44:
 2447 0080 25302E31 		.ascii	"%0.1f\000"
 2447      6600
 2448 0086 0000     		.space	2
 2449              	.LC54:
 2450 0088 50616972 		.ascii	"Pairs info.\000"
 2450      7320696E 
 2450      666F2E00 
 2451              	.LC56:
 2452 0094 50616972 		.ascii	"Pair(s)\000"
 2452      28732900 
 2453              	.LC58:
 2454 009c 436F756E 		.ascii	"Count\000"
ARM GAS  C:\Users\luvsd\AppData\Local\Temp\ccQgKjek.s 			page 60


 2454      7400
 2455 00a2 0000     		.space	2
 2456              	.LC60:
 2457 00a4 53415645 		.ascii	"SAVE\000"
 2457      00
 2458 00a9 000000   		.space	3
 2459              	.LC63:
 2460 00ac 256400   		.ascii	"%d\000"
 2461 00af 00       		.space	1
 2462              	.LC65:
 2463 00b0 25332E31 		.ascii	"%3.1f\000"
 2463      6600
 2464 00b6 0000     		.space	2
 2465              	.LC82:
 2466 00b8 544F5020 		.ascii	"TOP MENU\000"
 2466      4D454E55 
 2466      00
 2467 00c1 000000   		.space	3
 2468              	.LC84:
 2469 00c4 53455454 		.ascii	"SETTINGS\000"
 2469      494E4753 
 2469      00
 2470 00cd 000000   		.space	3
 2471              	.LC89:
 2472 00d0 4155544F 		.ascii	"AUTO RESET\000"
 2472      20524553 
 2472      455400
 2473 00db 00       		.space	1
 2474              	.LC95:
 2475 00dc 50414952 		.ascii	"PAIR(S) INFO\000"
 2475      28532920 
 2475      494E464F 
 2475      00
 2476 00e9 000000   		.space	3
 2477              	.LC98:
 2478 00ec 54415247 		.ascii	"TARGET\000"
 2478      455400
 2479 00f3 00       		.space	1
 2480              	.LC101:
 2481 00f4 41435455 		.ascii	"ACTUAL\000"
 2481      414C00
 2482 00fb 00       		.space	1
 2483              	.LC103:
 2484 00fc 4F4E00   		.ascii	"ON\000"
 2485 00ff 00       		.space	1
 2486              	.LC104:
 2487 0100 4F464600 		.ascii	"OFF\000"
 2488              	.LC105:
 2489 0104 50415454 		.ascii	"PATTERN\000"
 2489      45524E00 
 2490              	.LC106:
 2491 010c 53455749 		.ascii	"SEWING\000"
 2491      4E4700
 2492 0113 00       		.space	1
 2493              	.LC107:
 2494 0114 41637475 		.ascii	"Actual\000"
 2494      616C00
ARM GAS  C:\Users\luvsd\AppData\Local\Temp\ccQgKjek.s 			page 61


 2495 011b 00       		.space	1
 2496              	.LC108:
 2497 011c 52617465 		.ascii	"Rate\000"
 2497      00
 2498 0121 000000   		.space	3
 2499              	.LC109:
 2500 0124 435400   		.ascii	"CT\000"
 2501 0127 00       		.space	1
 2502              	.LC110:
 2503 0128 525400   		.ascii	"RT\000"
 2504 012b 00       		.space	1
 2505              	.LC111:
 2506 012c 535100   		.ascii	"SQ\000"
 2507 012f 00       		.space	1
 2508              	.LC112:
 2509 0130 534C00   		.ascii	"SL\000"
 2510 0133 00       		.space	1
 2511              	.LC113:
 2512 0134 53504900 		.ascii	"SPI\000"
 2513              		.bss
 2514              		.align	2
 2515              		.set	.LANCHOR1,. + 0
 2516              		.set	.LANCHOR2,. + 384
 2517              		.set	.LANCHOR3,. + 896
 2518              		.type	selectIncre.9521, %object
 2519              		.size	selectIncre.9521, 2
 2520              	selectIncre.9521:
 2521 0000 0000     		.space	2
 2522 0002 0000     		.space	2
 2523              		.type	value.9522, %object
 2524              		.size	value.9522, 4
 2525              	value.9522:
 2526 0004 00000000 		.space	4
 2527              		.type	value.9536, %object
 2528              		.size	value.9536, 4
 2529              	value.9536:
 2530 0008 00000000 		.space	4
 2531              		.type	selectIncre.9535, %object
 2532              		.size	selectIncre.9535, 2
 2533              	selectIncre.9535:
 2534 000c 0000     		.space	2
 2535              		.type	indexSelect.9591, %object
 2536              		.size	indexSelect.9591, 2
 2537              	indexSelect.9591:
 2538 000e 0000     		.space	2
 2539              		.type	page.9592, %object
 2540              		.size	page.9592, 2
 2541              	page.9592:
 2542 0010 0000     		.space	2
 2543              		.type	page.9404, %object
 2544              		.size	page.9404, 1
 2545              	page.9404:
 2546 0012 00       		.space	1
 2547 0013 00       		.space	1
 2548              		.type	menu.9401, %object
 2549              		.size	menu.9401, 448
 2550              	menu.9401:
ARM GAS  C:\Users\luvsd\AppData\Local\Temp\ccQgKjek.s 			page 62


 2551 0014 00000000 		.space	448
 2551      00000000 
 2551      00000000 
 2551      00000000 
 2551      00000000 
 2552              		.type	menu.9475, %object
 2553              		.size	menu.9475, 448
 2554              	menu.9475:
 2555 01d4 00000000 		.space	448
 2555      00000000 
 2555      00000000 
 2555      00000000 
 2555      00000000 
 2556              		.type	selectValue.9476, %object
 2557              		.size	selectValue.9476, 2
 2558              	selectValue.9476:
 2559 0394 0000     		.space	2
 2560              		.type	indexSelect.9548, %object
 2561              		.size	indexSelect.9548, 2
 2562              	indexSelect.9548:
 2563 0396 0000     		.space	2
 2564              		.type	page.9550, %object
 2565              		.size	page.9550, 2
 2566              	page.9550:
 2567 0398 0000     		.space	2
 2568              		.text
 2569              	.Letext0:
 2570              		.file 2 "c:\\program files (x86)\\cypress\\psoc creator\\4.4\\psoc creator\\import\\gnu\\arm\\5.4.
 2571              		.file 3 "c:\\program files (x86)\\cypress\\psoc creator\\4.4\\psoc creator\\import\\gnu\\arm\\5.4.
 2572              		.file 4 "Generated_Source\\PSoC4/cytypes.h"
 2573              		.file 5 "./main.h"
 2574              		.file 6 "lib/menu.h"
 2575              		.file 7 "lib/UI.h"
 2576              		.file 8 "lib/button.h"
 2577              		.file 9 "lib/widget.h"
 2578              		.file 10 "count.h"
 2579              		.file 11 "userProjectPatternSewing.h"
 2580              		.file 12 "lib/fonts.h"
 2581              		.file 13 "lib/image.h"
 2582              		.file 14 "Generated_Source\\PSoC4/RTC.h"
 2583              		.file 15 "lib/externalFlash.h"
 2584              		.file 16 "lib/internalFlash.h"
 2585              		.file 17 "c:\\program files (x86)\\cypress\\psoc creator\\4.4\\psoc creator\\import\\gnu\\arm\\5.4
 2586              		.file 18 "Generated_Source\\PSoC4/CyLib.h"
 2587              		.file 19 "lib/manageMenu.h"
 2588              		.file 20 "andonMenu.h"