ARM GAS  C:\Users\luvsd\AppData\Local\Temp\cce3HNxK.s 			page 1


   1              		.syntax unified
   2              		.cpu cortex-m0
   3              		.fpu softvfp
   4              		.eabi_attribute 20, 1
   5              		.eabi_attribute 21, 1
   6              		.eabi_attribute 23, 3
   7              		.eabi_attribute 24, 1
   8              		.eabi_attribute 25, 1
   9              		.eabi_attribute 26, 1
  10              		.eabi_attribute 30, 1
  11              		.eabi_attribute 34, 0
  12              		.eabi_attribute 18, 4
  13              		.thumb
  14              		.syntax unified
  15              		.file	"utility.c"
  16              		.text
  17              	.Ltext0:
  18              		.cfi_sections	.debug_frame
  19              		.section	.text.HexToDec,"ax",%progbits
  20              		.align	2
  21              		.global	HexToDec
  22              		.code	16
  23              		.thumb_func
  24              		.type	HexToDec, %function
  25              	HexToDec:
  26              	.LFB62:
  27              		.file 1 "lib\\utility.c"
   1:lib/utility.c **** /* ========================================
   2:lib/utility.c ****  *
   3:lib/utility.c ****  * Copyright Suntech, 2023.02.01
   4:lib/utility.c ****  * All Rights Reserved
   5:lib/utility.c ****  * UNPUBLISHED, LICENSED SOFTWARE.
   6:lib/utility.c ****  *
   7:lib/utility.c ****  * CONFIDENTIAL AND PROPRIETARY INFORMATION
   8:lib/utility.c ****  * WHICH IS THE PROPERTY OF Suntech.
   9:lib/utility.c ****  *
  10:lib/utility.c ****  * ========================================
  11:lib/utility.c **** */
  12:lib/utility.c **** #include "utility.h"
  13:lib/utility.c **** #include  <ctype.h>
  14:lib/utility.c **** 
  15:lib/utility.c **** int HexToDec(char c)
  16:lib/utility.c **** {
  28              		.loc 1 16 0
  29              		.cfi_startproc
  30              		@ args = 0, pretend = 0, frame = 0
  31              		@ frame_needed = 0, uses_anonymous_args = 0
  32              		@ link register save eliminated.
  33              	.LVL0:
  34              	.LBB2:
  17:lib/utility.c ****     int u = toupper ((int) c);
  35              		.loc 1 17 0
  36 0000 074B     		ldr	r3, .L6
  37 0002 1B68     		ldr	r3, [r3]
  38 0004 1B18     		adds	r3, r3, r0
  39 0006 5B78     		ldrb	r3, [r3, #1]
  40 0008 0322     		movs	r2, #3
ARM GAS  C:\Users\luvsd\AppData\Local\Temp\cce3HNxK.s 			page 2


  41 000a 1340     		ands	r3, r2
  42 000c 022B     		cmp	r3, #2
  43 000e 00D1     		bne	.L2
  44              		.loc 1 17 0 is_stmt 0 discriminator 1
  45 0010 2038     		subs	r0, r0, #32
  46              	.LVL1:
  47              	.L2:
  48              	.LBE2:
  18:lib/utility.c ****     if(u < 'A') return u-'0';
  49              		.loc 1 18 0 is_stmt 1 discriminator 4
  50 0012 4028     		cmp	r0, #64
  51 0014 01DC     		bgt	.L3
  52              		.loc 1 18 0 is_stmt 0 discriminator 1
  53 0016 3038     		subs	r0, r0, #48
  54              	.LVL2:
  55 0018 00E0     		b	.L4
  56              	.LVL3:
  57              	.L3:
  19:lib/utility.c ****     return u-'A' + 10;
  58              		.loc 1 19 0 is_stmt 1
  59 001a 3738     		subs	r0, r0, #55
  60              	.LVL4:
  61              	.L4:
  20:lib/utility.c **** }
  62              		.loc 1 20 0
  63              		@ sp needed
  64 001c 7047     		bx	lr
  65              	.L7:
  66 001e C046     		.align	2
  67              	.L6:
  68 0020 00000000 		.word	__ctype_ptr__
  69              		.cfi_endproc
  70              	.LFE62:
  71              		.size	HexToDec, .-HexToDec
  72              		.section	.text.hexToChar,"ax",%progbits
  73              		.align	2
  74              		.global	hexToChar
  75              		.code	16
  76              		.thumb_func
  77              		.type	hexToChar, %function
  78              	hexToChar:
  79              	.LFB63:
  21:lib/utility.c **** 
  22:lib/utility.c **** char hexToChar(char *str)
  23:lib/utility.c **** {
  80              		.loc 1 23 0
  81              		.cfi_startproc
  82              		@ args = 0, pretend = 0, frame = 0
  83              		@ frame_needed = 0, uses_anonymous_args = 0
  84              	.LVL5:
  85 0000 70B5     		push	{r4, r5, r6, lr}
  86              		.cfi_def_cfa_offset 16
  87              		.cfi_offset 4, -16
  88              		.cfi_offset 5, -12
  89              		.cfi_offset 6, -8
  90              		.cfi_offset 14, -4
  91 0002 0500     		movs	r5, r0
ARM GAS  C:\Users\luvsd\AppData\Local\Temp\cce3HNxK.s 			page 3


  24:lib/utility.c ****     int a = HexToDec(str[0]);
  92              		.loc 1 24 0
  93 0004 0078     		ldrb	r0, [r0]
  94              	.LVL6:
  95 0006 FFF7FEFF 		bl	HexToDec
  96              	.LVL7:
  97 000a 0400     		movs	r4, r0
  98              	.LVL8:
  25:lib/utility.c ****     int b = HexToDec(str[1]);
  99              		.loc 1 25 0
 100 000c 6878     		ldrb	r0, [r5, #1]
 101              	.LVL9:
 102 000e FFF7FEFF 		bl	HexToDec
 103              	.LVL10:
  26:lib/utility.c ****     int c = a << 4 | b;
 104              		.loc 1 26 0
 105 0012 2401     		lsls	r4, r4, #4
 106              	.LVL11:
 107 0014 2043     		orrs	r0, r4
 108              	.LVL12:
  27:lib/utility.c ****     
  28:lib/utility.c ****     return (char) c;
 109              		.loc 1 28 0
 110 0016 C0B2     		uxtb	r0, r0
 111              	.LVL13:
  29:lib/utility.c **** }
 112              		.loc 1 29 0
 113              		@ sp needed
 114              	.LVL14:
 115 0018 70BD     		pop	{r4, r5, r6, pc}
 116              		.cfi_endproc
 117              	.LFE63:
 118              		.size	hexToChar, .-hexToChar
 119 001a C046     		.section	.text.convertHexToDecimal,"ax",%progbits
 120              		.align	2
 121              		.global	convertHexToDecimal
 122              		.code	16
 123              		.thumb_func
 124              		.type	convertHexToDecimal, %function
 125              	convertHexToDecimal:
 126              	.LFB64:
  30:lib/utility.c **** 
  31:lib/utility.c **** uint8 convertHexToDecimal(uint8 hex)
  32:lib/utility.c **** {
 127              		.loc 1 32 0
 128              		.cfi_startproc
 129              		@ args = 0, pretend = 0, frame = 0
 130              		@ frame_needed = 0, uses_anonymous_args = 0
 131              		@ link register save eliminated.
 132              	.LVL15:
  33:lib/utility.c ****     if     (hex  <= '9') return hex-'0';
 133              		.loc 1 33 0
 134 0000 3928     		cmp	r0, #57
 135 0002 02D8     		bhi	.L10
 136              		.loc 1 33 0 is_stmt 0 discriminator 1
 137 0004 3038     		subs	r0, r0, #48
 138              	.LVL16:
ARM GAS  C:\Users\luvsd\AppData\Local\Temp\cce3HNxK.s 			page 4


 139 0006 C0B2     		uxtb	r0, r0
 140 0008 0AE0     		b	.L11
 141              	.LVL17:
 142              	.L10:
  34:lib/utility.c ****     else if(hex  <= 'F') return (hex-'A') + 10;    
 143              		.loc 1 34 0 is_stmt 1
 144 000a 4628     		cmp	r0, #70
 145 000c 02D8     		bhi	.L12
 146              		.loc 1 34 0 is_stmt 0 discriminator 1
 147 000e 3738     		subs	r0, r0, #55
 148              	.LVL18:
 149 0010 C0B2     		uxtb	r0, r0
 150 0012 05E0     		b	.L11
 151              	.LVL19:
 152              	.L12:
  35:lib/utility.c ****     else if(hex  <= 'f') return (hex-'a') + 10;
 153              		.loc 1 35 0 is_stmt 1
 154 0014 6628     		cmp	r0, #102
 155 0016 02D8     		bhi	.L13
 156              		.loc 1 35 0 is_stmt 0 discriminator 1
 157 0018 5738     		subs	r0, r0, #87
 158              	.LVL20:
 159 001a C0B2     		uxtb	r0, r0
 160 001c 00E0     		b	.L11
 161              	.LVL21:
 162              	.L13:
  36:lib/utility.c ****     return 0;
 163              		.loc 1 36 0 is_stmt 1
 164 001e 0020     		movs	r0, #0
 165              	.LVL22:
 166              	.L11:
  37:lib/utility.c **** }
 167              		.loc 1 37 0
 168              		@ sp needed
 169 0020 7047     		bx	lr
 170              		.cfi_endproc
 171              	.LFE64:
 172              		.size	convertHexToDecimal, .-convertHexToDecimal
 173 0022 C046     		.section	.text.url_encode,"ax",%progbits
 174              		.align	2
 175              		.global	url_encode
 176              		.code	16
 177              		.thumb_func
 178              		.type	url_encode, %function
 179              	url_encode:
 180              	.LFB65:
  38:lib/utility.c **** 
  39:lib/utility.c **** char *url_encode(const char *src) {
 181              		.loc 1 39 0
 182              		.cfi_startproc
 183              		@ args = 0, pretend = 0, frame = 0
 184              		@ frame_needed = 0, uses_anonymous_args = 0
 185              	.LVL23:
 186 0000 F8B5     		push	{r3, r4, r5, r6, r7, lr}
 187              		.cfi_def_cfa_offset 24
 188              		.cfi_offset 3, -24
 189              		.cfi_offset 4, -20
ARM GAS  C:\Users\luvsd\AppData\Local\Temp\cce3HNxK.s 			page 5


 190              		.cfi_offset 5, -16
 191              		.cfi_offset 6, -12
 192              		.cfi_offset 7, -8
 193              		.cfi_offset 14, -4
 194 0002 0500     		movs	r5, r0
  40:lib/utility.c ****     static char ret[512];
  41:lib/utility.c ****     int len = strlen(src);
 195              		.loc 1 41 0
 196 0004 FFF7FEFF 		bl	strlen
 197              	.LVL24:
 198              	.LBB3:
  42:lib/utility.c ****     int idx=0;
  43:lib/utility.c ****     for(int i=0; i < len; i++)
 199              		.loc 1 43 0
 200 0008 0023     		movs	r3, #0
 201              	.LBE3:
  42:lib/utility.c ****     int idx=0;
 202              		.loc 1 42 0
 203 000a 0022     		movs	r2, #0
 204              	.LBB5:
 205              		.loc 1 43 0
 206 000c 13E0     		b	.L15
 207              	.LVL25:
 208              	.L19:
 209              	.LBB4:
  44:lib/utility.c ****     {
  45:lib/utility.c ****         char c =src[i];
 210              		.loc 1 45 0
 211 000e E95C     		ldrb	r1, [r5, r3]
 212              	.LVL26:
  46:lib/utility.c ****         if(c==' ' || c == '#')
 213              		.loc 1 46 0
 214 0010 2029     		cmp	r1, #32
 215 0012 01D0     		beq	.L16
 216              		.loc 1 46 0 is_stmt 0 discriminator 1
 217 0014 2329     		cmp	r1, #35
 218 0016 0AD1     		bne	.L17
 219              	.L16:
  47:lib/utility.c ****         {
  48:lib/utility.c ****             ret[idx++]='%';
 220              		.loc 1 48 0 is_stmt 1
 221 0018 561C     		adds	r6, r2, #1
 222              	.LVL27:
 223 001a 0A4C     		ldr	r4, .L20
 224 001c 2521     		movs	r1, #37
 225              	.LVL28:
 226 001e A154     		strb	r1, [r4, r2]
 227              	.LVL29:
  49:lib/utility.c ****             ret[idx++]='2';
 228              		.loc 1 49 0
 229 0020 911C     		adds	r1, r2, #2
 230              	.LVL30:
 231 0022 3227     		movs	r7, #50
 232 0024 A755     		strb	r7, [r4, r6]
 233              	.LVL31:
  50:lib/utility.c ****             ret[idx++]='0';             
 234              		.loc 1 50 0
ARM GAS  C:\Users\luvsd\AppData\Local\Temp\cce3HNxK.s 			page 6


 235 0026 3026     		movs	r6, #48
 236 0028 6654     		strb	r6, [r4, r1]
 237 002a 0332     		adds	r2, r2, #3
 238              	.LVL32:
 239 002c 02E0     		b	.L18
 240              	.LVL33:
 241              	.L17:
  51:lib/utility.c ****         }
  52:lib/utility.c ****         else
  53:lib/utility.c ****             ret[idx++] = c;
 242              		.loc 1 53 0
 243 002e 054C     		ldr	r4, .L20
 244 0030 A154     		strb	r1, [r4, r2]
 245 0032 0132     		adds	r2, r2, #1
 246              	.LVL34:
 247              	.L18:
 248              	.LBE4:
  43:lib/utility.c ****     {
 249              		.loc 1 43 0 discriminator 2
 250 0034 0133     		adds	r3, r3, #1
 251              	.LVL35:
 252              	.L15:
  43:lib/utility.c ****     {
 253              		.loc 1 43 0 is_stmt 0 discriminator 1
 254 0036 8342     		cmp	r3, r0
 255 0038 E9DB     		blt	.L19
 256              	.LBE5:
  54:lib/utility.c ****     }
  55:lib/utility.c ****     ret[idx] = 0;
 257              		.loc 1 55 0 is_stmt 1
 258 003a 0248     		ldr	r0, .L20
 259              	.LVL36:
 260 003c 0023     		movs	r3, #0
 261              	.LVL37:
 262 003e 8354     		strb	r3, [r0, r2]
  56:lib/utility.c ****     return ret;
  57:lib/utility.c **** }
 263              		.loc 1 57 0
 264              		@ sp needed
 265              	.LVL38:
 266 0040 F8BD     		pop	{r3, r4, r5, r6, r7, pc}
 267              	.L21:
 268 0042 C046     		.align	2
 269              	.L20:
 270 0044 00000000 		.word	.LANCHOR0
 271              		.cfi_endproc
 272              	.LFE65:
 273              		.size	url_encode, .-url_encode
 274              		.comm	Param,6,4
 275              		.bss
 276              		.align	2
 277              		.set	.LANCHOR0,. + 0
 278              		.type	ret.8817, %object
 279              		.size	ret.8817, 512
 280              	ret.8817:
 281 0000 00000000 		.space	512
 281      00000000 
ARM GAS  C:\Users\luvsd\AppData\Local\Temp\cce3HNxK.s 			page 7


 281      00000000 
 281      00000000 
 281      00000000 
 282              		.text
 283              	.Letext0:
 284              		.file 2 "Generated_Source\\PSoC4/cytypes.h"
 285              		.file 3 "./main.h"
 286              		.file 4 "c:\\program files (x86)\\cypress\\psoc creator\\4.4\\psoc creator\\import\\gnu\\arm\\5.4.
 287              		.file 5 "Generated_Source\\PSoC4/RTC.h"
 288              		.file 6 "c:\\program files (x86)\\cypress\\psoc creator\\4.4\\psoc creator\\import\\gnu\\arm\\5.4.