ARM GAS  C:\Users\luvsd\AppData\Local\Temp\cc4sXGfc.s 			page 1


   1              		.syntax unified
   2              		.cpu cortex-m0
   3              		.fpu softvfp
   4              		.eabi_attribute 20, 1
   5              		.eabi_attribute 21, 1
   6              		.eabi_attribute 23, 3
   7              		.eabi_attribute 24, 1
   8              		.eabi_attribute 25, 1
   9              		.eabi_attribute 26, 1
  10              		.eabi_attribute 30, 1
  11              		.eabi_attribute 34, 0
  12              		.eabi_attribute 18, 4
  13              		.thumb
  14              		.syntax unified
  15              		.file	"WIFI.c"
  16              		.text
  17              	.Ltext0:
  18              		.cfi_sections	.debug_frame
  19              		.section	.text.initWIFI,"ax",%progbits
  20              		.align	2
  21              		.global	initWIFI
  22              		.code	16
  23              		.thumb_func
  24              		.type	initWIFI, %function
  25              	initWIFI:
  26              	.LFB62:
  27              		.file 1 "lib\\WIFI.c"
   1:lib/WIFI.c    **** 
   2:lib/WIFI.c    **** #include "WIFI.h"
   3:lib/WIFI.c    **** #include "andonApi.h"
   4:lib/WIFI.c    **** #include "sysTick.h"
   5:lib/WIFI.c    **** #include "widget.h"
   6:lib/WIFI.c    **** #include "server.h"
   7:lib/WIFI.c    **** #include "utility.h"
   8:lib/WIFI.c    **** #include "LEDControl.h"
   9:lib/WIFI.c    **** 
  10:lib/WIFI.c    **** 
  11:lib/WIFI.c    **** NETWORK  g_network;
  12:lib/WIFI.c    **** 
  13:lib/WIFI.c    **** uint8 g_WIFI_ReceiveBuffer[MAX_WIFI_RECEIVE_BUFFER+1];
  14:lib/WIFI.c    **** uint16 g_size_WIFI_ReceiveBuffer=0;
  15:lib/WIFI.c    **** 
  16:lib/WIFI.c    **** ACCESS_POINT g_APs[MAX_NO_OF_ACCESS_POINT];
  17:lib/WIFI.c    **** uint16 g_SizeOfAPs;
  18:lib/WIFI.c    **** 
  19:lib/WIFI.c    **** char *g_ptrHttpReceivedText=NULL;
  20:lib/WIFI.c    **** uint16 g_sizeOfHttpText;
  21:lib/WIFI.c    **** 
  22:lib/WIFI.c    **** uint8 g_wifi_cmd = WIFI_CMD_IDLE;
  23:lib/WIFI.c    **** 
  24:lib/WIFI.c    **** uint8 g_index_WifiStrength;
  25:lib/WIFI.c    **** uint8 g_index_Wifi_Test;
  26:lib/WIFI.c    **** #define WIFI_CMD(str) wifi_printf("%s\r\n",str)
  27:lib/WIFI.c    **** 
  28:lib/WIFI.c    **** void initWIFI()
  29:lib/WIFI.c    **** {  
  28              		.loc 1 29 0
ARM GAS  C:\Users\luvsd\AppData\Local\Temp\cc4sXGfc.s 			page 2


  29              		.cfi_startproc
  30              		@ args = 0, pretend = 0, frame = 0
  31              		@ frame_needed = 0, uses_anonymous_args = 0
  32 0000 10B5     		push	{r4, lr}
  33              		.cfi_def_cfa_offset 8
  34              		.cfi_offset 4, -8
  35              		.cfi_offset 14, -4
  30:lib/WIFI.c    ****     //////////////////////////////////////////////////////////////
  31:lib/WIFI.c    ****     memset(&g_network,0,sizeof(g_network));       
  36              		.loc 1 31 0
  37 0002 0F4C     		ldr	r4, .L2
  38 0004 8022     		movs	r2, #128
  39 0006 0021     		movs	r1, #0
  40 0008 2000     		movs	r0, r4
  41 000a FFF7FEFF 		bl	memset
  42              	.LVL0:
  32:lib/WIFI.c    ****     g_network.RSSI = INT16_MIN;
  43              		.loc 1 32 0
  44 000e 0D4B     		ldr	r3, .L2+4
  45 0010 6380     		strh	r3, [r4, #2]
  33:lib/WIFI.c    ****     g_network.bWifiReady = FALSE;
  34:lib/WIFI.c    ****     
  35:lib/WIFI.c    ****     UART_WIFI_Start();    
  46              		.loc 1 35 0
  47 0012 FFF7FEFF 		bl	UART_WIFI_Start
  48              	.LVL1:
  36:lib/WIFI.c    ****     WIFI_EN_Write(1);
  49              		.loc 1 36 0
  50 0016 0120     		movs	r0, #1
  51 0018 FFF7FEFF 		bl	WIFI_EN_Write
  52              	.LVL2:
  37:lib/WIFI.c    ****     CyDelay(20); // Minimum 10ms
  53              		.loc 1 37 0
  54 001c 1420     		movs	r0, #20
  55 001e FFF7FEFF 		bl	CyDelay
  56              	.LVL3:
  38:lib/WIFI.c    ****     WIFI_RESET_Write(1);
  57              		.loc 1 38 0
  58 0022 0120     		movs	r0, #1
  59 0024 FFF7FEFF 		bl	WIFI_RESET_Write
  60              	.LVL4:
  39:lib/WIFI.c    **** 
  40:lib/WIFI.c    ****     g_index_WifiStrength = registerCounter_1ms(WIFI_STRENGTH_CHECK_TIME);
  61              		.loc 1 40 0
  62 0028 0748     		ldr	r0, .L2+8
  63 002a FFF7FEFF 		bl	registerCounter_1ms
  64              	.LVL5:
  65 002e 074B     		ldr	r3, .L2+12
  66 0030 1870     		strb	r0, [r3]
  41:lib/WIFI.c    ****     g_index_Wifi_Test    = registerCounter_1ms(5000);
  67              		.loc 1 41 0
  68 0032 0748     		ldr	r0, .L2+16
  69 0034 FFF7FEFF 		bl	registerCounter_1ms
  70              	.LVL6:
  71 0038 064B     		ldr	r3, .L2+20
  72 003a 1870     		strb	r0, [r3]
  42:lib/WIFI.c    **** }
ARM GAS  C:\Users\luvsd\AppData\Local\Temp\cc4sXGfc.s 			page 3


  73              		.loc 1 42 0
  74              		@ sp needed
  75 003c 10BD     		pop	{r4, pc}
  76              	.L3:
  77 003e C046     		.align	2
  78              	.L2:
  79 0040 00000000 		.word	g_network
  80 0044 0080FFFF 		.word	-32768
  81 0048 60EA0000 		.word	60000
  82 004c 00000000 		.word	g_index_WifiStrength
  83 0050 88130000 		.word	5000
  84 0054 00000000 		.word	g_index_Wifi_Test
  85              		.cfi_endproc
  86              	.LFE62:
  87              		.size	initWIFI, .-initWIFI
  88              		.section	.text.wifi_receive_data,"ax",%progbits
  89              		.align	2
  90              		.global	wifi_receive_data
  91              		.code	16
  92              		.thumb_func
  93              		.type	wifi_receive_data, %function
  94              	wifi_receive_data:
  95              	.LFB65:
  43:lib/WIFI.c    **** 
  44:lib/WIFI.c    **** void wifiLoop()
  45:lib/WIFI.c    **** {
  46:lib/WIFI.c    ****    // static uint8 bReset = TRUE;
  47:lib/WIFI.c    ****     
  48:lib/WIFI.c    ****     if(g_network.RSSI == INT16_MIN || g_network.RSSI == 0)
  49:lib/WIFI.c    ****     {
  50:lib/WIFI.c    ****         ///g_bLED1_Flickering = TRUE;
  51:lib/WIFI.c    ****         g_bLED1_Flickering = FALSE;
  52:lib/WIFI.c    ****     } else {
  53:lib/WIFI.c    ****         
  54:lib/WIFI.c    ****         g_bLED1_Flickering = FALSE;        
  55:lib/WIFI.c    ****     }
  56:lib/WIFI.c    ****     
  57:lib/WIFI.c    ****     // APņŚÉņä£ IPļź╝ ļ░øņĢśĻ│Ā, WIFI ModuleņŚÉ CMDņ▓śļ”¼Ļ░Ć ņŚåĻ│Ā, ņĢłļÅł cmdĻ░Ć ņ×łļŗżļ®┤ ņ▓śļ”¼
  58:lib/WIFI.c    ****     /* ļ╣ä-HTTP ļ¬ģļĀ╣ ĒāĆņ×äņĢäņøā Ļ░Éņŗ£: 3ņ┤ł ļé┤ ņØæļŗĄ ņŚåņ£╝ļ®┤ Ļ░ĢņĀ£ IDLE ļ│ĄĻĄ¼ */
  59:lib/WIFI.c    ****     if(g_wifi_cmd != WIFI_CMD_IDLE && g_wifi_cmd != WIFI_CMD_HTTP)
  60:lib/WIFI.c    ****     {
  61:lib/WIFI.c    ****         if(isFinishCounter_1ms(g_index_Wifi_Test))
  62:lib/WIFI.c    ****         {
  63:lib/WIFI.c    ****             printf("[WIFI] CMD %d timeout -> IDLE\r\n", g_wifi_cmd);
  64:lib/WIFI.c    ****             /* [ņłśņĀĢ 1] MIB ĒāĆņ×äņĢäņøā ņŗ£ WifiStrength ĒāĆņØ┤ļ©Ė ļ”¼ņģŗ (2026-03-10)
  65:lib/WIFI.c    ****              * ĻĖ░ņĪ┤ ņĮöļō£: g_wifi_cmd = WIFI_CMD_IDLE; ļ¦ī ņŗżĒ¢ē
  66:lib/WIFI.c    ****              * ļ¼ĖņĀ£: ĒāĆņ×äņĢäņøā Ēøä ņ”ēņŗ£ ļŗżņØī ļŻ©ĒöäņŚÉņä£ MIB ņ×¼ņĀäņåĪ ŌåÆ CMD 2 timeout 
  67:lib/WIFI.c    ****              * ĒĢ┤Ļ▓░: MIB ļ¬ģļĀ╣ ĒāĆņ×äņĢäņøā ņŗ£ WifiStrength ĒāĆņØ┤ļ©ĖļÅä ļ”¼ņģŗĒĢśņŚ¼ ļŗżņØī ņ▓
  68:lib/WIFI.c    ****              * ļĪżļ░▒: ņĢäļ×ś if ļĖöļĪØ 2ņżäņØä ņĀ£Ļ▒░ĒĢśļ®┤ ņøÉļ│ĄļÉ© */
  69:lib/WIFI.c    ****             if(g_wifi_cmd == WIFI_CMD_RECEIVED_STRENGTH)
  70:lib/WIFI.c    ****                 resetCounter_1ms(g_index_WifiStrength);
  71:lib/WIFI.c    ****             g_wifi_cmd = WIFI_CMD_IDLE;
  72:lib/WIFI.c    ****         }
  73:lib/WIFI.c    ****     }
  74:lib/WIFI.c    **** 
  75:lib/WIFI.c    ****     if(g_network.isConnectAP && g_wifi_cmd == WIFI_CMD_IDLE)
  76:lib/WIFI.c    ****     {
ARM GAS  C:\Users\luvsd\AppData\Local\Temp\cc4sXGfc.s 			page 4


  77:lib/WIFI.c    ****         if(andonLoop() == FALSE) // ņĢłļÅłņŚÉņä£ ņ▓śļ”¼ĒĢĀ Ļ▓āņØ┤ ņŚåļŗżļ®┤
  78:lib/WIFI.c    ****         {
  79:lib/WIFI.c    ****             if(isFinishCounter_1ms(g_index_WifiStrength)) // Wifi Strength ņ▓┤Ēü¼ļź╝ 5secļ¦łļŗż ņłś
  80:lib/WIFI.c    ****             {
  81:lib/WIFI.c    ****                 resetCounter_1ms(g_index_WifiStrength);
  82:lib/WIFI.c    ****                 wifi_cmd(WIFI_CMD_RECEIVED_STRENGTH);
  83:lib/WIFI.c    ****             }
  84:lib/WIFI.c    ****         }
  85:lib/WIFI.c    ****     }
  86:lib/WIFI.c    ****     
  87:lib/WIFI.c    ****     if(wifi_receive_data())
  88:lib/WIFI.c    ****     {
  89:lib/WIFI.c    ****         if(g_network.isConnectAP)  // IDLE
  90:lib/WIFI.c    ****         {
  91:lib/WIFI.c    ****             wifi_get_response();
  92:lib/WIFI.c    ****             if(g_sizeOfHttpText > 0)
  93:lib/WIFI.c    ****             {
  94:lib/WIFI.c    ****                 andonResponse(g_ptrHttpReceivedText,g_sizeOfHttpText);
  95:lib/WIFI.c    ****                 
  96:lib/WIFI.c    ****                 g_sizeOfHttpText = 0;
  97:lib/WIFI.c    ****                 g_ptrHttpReceivedText=NULL;
  98:lib/WIFI.c    ****             }
  99:lib/WIFI.c    ****         }
 100:lib/WIFI.c    ****         else
 101:lib/WIFI.c    ****         {
 102:lib/WIFI.c    ****             wifiConnectAP(); // ???
 103:lib/WIFI.c    ****         }
 104:lib/WIFI.c    ****         
 105:lib/WIFI.c    ****         clearWifiBuffer();
 106:lib/WIFI.c    ****     }
 107:lib/WIFI.c    **** }
 108:lib/WIFI.c    **** 
 109:lib/WIFI.c    **** #define STRSTR_WIFI_BUFFER(str) strstr((char*) g_WIFI_ReceiveBuffer,str)
 110:lib/WIFI.c    ****     
 111:lib/WIFI.c    **** // ĒĢĀļŗ╣ļÉ£ IPļź╝ ņ░ŠļŖöļŗż.
 112:lib/WIFI.c    **** uint8 wifiConnectAP()
 113:lib/WIFI.c    **** {    
 114:lib/WIFI.c    ****     int i=0;    
 115:lib/WIFI.c    ****     static uint8 nLoop = 0;
 116:lib/WIFI.c    **** 
 117:lib/WIFI.c    ****     if(nLoop == 0) printf("\r\n");
 118:lib/WIFI.c    ****     
 119:lib/WIFI.c    ****     printf("LOOP[%d]:%s]", nLoop, g_WIFI_ReceiveBuffer);
 120:lib/WIFI.c    ****     switch(nLoop)
 121:lib/WIFI.c    ****     {
 122:lib/WIFI.c    ****         case 0: // Wifi Ready Check
 123:lib/WIFI.c    ****             if(STRSTR_WIFI_BUFFER("ICT*DEVICEREADY") != NULL)            
 124:lib/WIFI.c    ****             {
 125:lib/WIFI.c    ****                 printf("\r\n[WIFI] Ready Wifi\r\n");
 126:lib/WIFI.c    ****                 g_network.isConnectAP = FALSE;
 127:lib/WIFI.c    ****                 wifi_cmd(WIFI_CMD_GET_MAC); // request MAC                
 128:lib/WIFI.c    ****                 nLoop++;
 129:lib/WIFI.c    ****             }
 130:lib/WIFI.c    ****             break;
 131:lib/WIFI.c    ****         case 1: // get Mac
 132:lib/WIFI.c    ****             if(STRSTR_WIFI_BUFFER("ICT*MAC:OK") != NULL)            
 133:lib/WIFI.c    ****             {
ARM GAS  C:\Users\luvsd\AppData\Local\Temp\cc4sXGfc.s 			page 5


 134:lib/WIFI.c    ****                  printf("\r\n[WIFI] GET MAC\r\n");
 135:lib/WIFI.c    ****                 char *p = STRSTR_WIFI_BUFFER(" "); p++;
 136:lib/WIFI.c    ****                 while(*p != '\0')  g_network.MAC[i++]  = *p++;                  
 137:lib/WIFI.c    ****                // printNetworkInfo();   
 138:lib/WIFI.c    ****                 g_network.bWifiReady = TRUE;       
 139:lib/WIFI.c    ****                 resetCounter_1ms(g_index_Wifi_Test);
 140:lib/WIFI.c    ****             } else 
 141:lib/WIFI.c    ****                 printf("WIFI_RESP_GET_MAC ERROR\r\n");   
 142:lib/WIFI.c    ****                               
 143:lib/WIFI.c    ****             nLoop++;
 144:lib/WIFI.c    ****             break;            
 145:lib/WIFI.c    ****         case 2: // get IP
 146:lib/WIFI.c    ****             if(STRSTR_WIFI_BUFFER("ICT*IPALLOCATED:") != NULL)            
 147:lib/WIFI.c    ****             {
 148:lib/WIFI.c    ****                  printf("\r\n[WIFI] GET IP\r\n");
 149:lib/WIFI.c    ****                 char *p = STRSTR_WIFI_BUFFER(":"); p++;
 150:lib/WIFI.c    ****                 
 151:lib/WIFI.c    ****                 while(*p != ' ') g_network.IPv4[i++]       = *p++; p++; i=0; // IPv4
 152:lib/WIFI.c    ****                 while(*p != ' ') g_network.SubnetMask[i++] = *p++; p++; i=0; // Subnet Mask        
 153:lib/WIFI.c    ****                 while(*p != ' ') g_network.Gateway[i++]    = *p++; p++; i=0; // Gateway
 154:lib/WIFI.c    ****                 while(*p != '\0')  g_network.DNSServer[i++]  = *p++; p++; i=0; // DNS Server       
 155:lib/WIFI.c    ****                 // printNetworkInfo();                   
 156:lib/WIFI.c    **** 
 157:lib/WIFI.c    ****                 nLoop++;
 158:lib/WIFI.c    ****                 WIFI_CMD("AT*ICT*MIB=0"); break;
 159:lib/WIFI.c    ****             }
 160:lib/WIFI.c    ****             else if(STRSTR_WIFI_BUFFER("ICT*ASSOCIATED:") != NULL)            
 161:lib/WIFI.c    ****             {
 162:lib/WIFI.c    ****                 char *p = STRSTR_WIFI_BUFFER(":"); p++;
 163:lib/WIFI.c    ****                 printf("AP Stat :");
 164:lib/WIFI.c    ****                 switch(atoi(p))
 165:lib/WIFI.c    ****                 {
 166:lib/WIFI.c    ****                     case 0: printf("Success\r\n"); break;
 167:lib/WIFI.c    ****                     case 1: printf("Fail\r\n"); break; 
 168:lib/WIFI.c    ****                     case 2: printf("AP is not found\r\n"); 
 169:lib/WIFI.c    ****                     break;   
 170:lib/WIFI.c    ****                     case 3: printf("Connecttion is restricted"); break;
 171:lib/WIFI.c    ****                 }               
 172:lib/WIFI.c    ****             }
 173:lib/WIFI.c    ****             break;
 174:lib/WIFI.c    ****             case 3:
 175:lib/WIFI.c    ****                 if(STRSTR_WIFI_BUFFER("ICT*MIB:OK") != NULL)
 176:lib/WIFI.c    ****                 {
 177:lib/WIFI.c    ****                     printf("\r\n[WIFI] GET STRENGTH\r\n");
 178:lib/WIFI.c    ****                     char * p = STRSTR_WIFI_BUFFER(" "); p++;
 179:lib/WIFI.c    ****                     strcpy(g_network.SSID,p);
 180:lib/WIFI.c    ****                 } else
 181:lib/WIFI.c    ****                     printf("WIFI_CMD_RECEIVED_STRENGTH ERROR\r\n");
 182:lib/WIFI.c    ****                            
 183:lib/WIFI.c    ****                 g_network.isConnectAP = TRUE;  
 184:lib/WIFI.c    ****                 
 185:lib/WIFI.c    ****                 wifi_cmd(WIFI_CMD_RECEIVED_STRENGTH);
 186:lib/WIFI.c    ****                 resetCounter_1ms(g_index_WifiStrength);
 187:lib/WIFI.c    ****                 
 188:lib/WIFI.c    ****                 initAndon();
 189:lib/WIFI.c    ****                 nLoop = 0;
 190:lib/WIFI.c    ****                     
ARM GAS  C:\Users\luvsd\AppData\Local\Temp\cc4sXGfc.s 			page 6


 191:lib/WIFI.c    ****             break;
 192:lib/WIFI.c    **** 
 193:lib/WIFI.c    ****     }    
 194:lib/WIFI.c    ****     return nLoop;
 195:lib/WIFI.c    **** }
 196:lib/WIFI.c    **** 
 197:lib/WIFI.c    **** uint8 wifi_receive_data()
 198:lib/WIFI.c    **** {
  96              		.loc 1 198 0
  97              		.cfi_startproc
  98              		@ args = 0, pretend = 0, frame = 0
  99              		@ frame_needed = 0, uses_anonymous_args = 0
 100 0000 10B5     		push	{r4, lr}
 101              		.cfi_def_cfa_offset 8
 102              		.cfi_offset 4, -8
 103              		.cfi_offset 14, -4
 199:lib/WIFI.c    ****     uint8 c;   
 200:lib/WIFI.c    ****     while(UART_WIFI_SpiUartGetRxBufferSize() > 0 )
 104              		.loc 1 200 0
 105 0002 2BE0     		b	.L6
 106              	.L9:
 201:lib/WIFI.c    ****     {
 202:lib/WIFI.c    ****         if((c = UART_WIFI_UartGetChar()) > 0)
 107              		.loc 1 202 0
 108 0004 FFF7FEFF 		bl	UART_WIFI_UartGetChar
 109              	.LVL7:
 110 0008 C4B2     		uxtb	r4, r0
 111              	.LVL8:
 112 000a 002C     		cmp	r4, #0
 113 000c 26D0     		beq	.L6
 203:lib/WIFI.c    ****         {
 204:lib/WIFI.c    ****             g_WIFI_ReceiveBuffer[g_size_WIFI_ReceiveBuffer++] = c;
 114              		.loc 1 204 0
 115 000e 174B     		ldr	r3, .L11
 116 0010 1A88     		ldrh	r2, [r3]
 117 0012 511C     		adds	r1, r2, #1
 118 0014 89B2     		uxth	r1, r1
 119 0016 1980     		strh	r1, [r3]
 120 0018 154B     		ldr	r3, .L11+4
 121 001a 9C54     		strb	r4, [r3, r2]
 205:lib/WIFI.c    ****             g_WIFI_ReceiveBuffer[g_size_WIFI_ReceiveBuffer] = 0;
 122              		.loc 1 205 0
 123 001c 0022     		movs	r2, #0
 124 001e 5A54     		strb	r2, [r3, r1]
 206:lib/WIFI.c    ****          //   printf("%c",c);
 207:lib/WIFI.c    ****             
 208:lib/WIFI.c    ****             if(g_size_WIFI_ReceiveBuffer >= MAX_WIFI_RECEIVE_BUFFER)
 125              		.loc 1 208 0
 126 0020 144B     		ldr	r3, .L11+8
 127 0022 9942     		cmp	r1, r3
 128 0024 05D9     		bls	.L7
 209:lib/WIFI.c    ****             {
 210:lib/WIFI.c    ****                 printf("Out of Memory :%d\r\n", g_size_WIFI_ReceiveBuffer);
 129              		.loc 1 210 0
 130 0026 1448     		ldr	r0, .L11+12
 131 0028 FFF7FEFF 		bl	printf
 132              	.LVL9:
ARM GAS  C:\Users\luvsd\AppData\Local\Temp\cc4sXGfc.s 			page 7


 211:lib/WIFI.c    ****                 g_size_WIFI_ReceiveBuffer = 0;
 133              		.loc 1 211 0
 134 002c 0022     		movs	r2, #0
 135 002e 0F4B     		ldr	r3, .L11
 136 0030 1A80     		strh	r2, [r3]
 137              	.L7:
 212:lib/WIFI.c    ****             }
 213:lib/WIFI.c    ****             if(c == LF)
 138              		.loc 1 213 0
 139 0032 0A2C     		cmp	r4, #10
 140 0034 12D1     		bne	.L6
 214:lib/WIFI.c    ****             {
 215:lib/WIFI.c    ****                 g_WIFI_ReceiveBuffer[g_size_WIFI_ReceiveBuffer-1] = '\0';
 141              		.loc 1 215 0
 142 0036 0D4A     		ldr	r2, .L11
 143 0038 1388     		ldrh	r3, [r2]
 144 003a 013B     		subs	r3, r3, #1
 145 003c 0C49     		ldr	r1, .L11+4
 146 003e 0020     		movs	r0, #0
 147 0040 C854     		strb	r0, [r1, r3]
 216:lib/WIFI.c    ****                 g_size_WIFI_ReceiveBuffer--;
 148              		.loc 1 216 0
 149 0042 9BB2     		uxth	r3, r3
 150 0044 1380     		strh	r3, [r2]
 217:lib/WIFI.c    **** 
 218:lib/WIFI.c    ****                 if(g_WIFI_ReceiveBuffer[g_size_WIFI_ReceiveBuffer-1] == CR)
 151              		.loc 1 218 0
 152 0046 5A1E     		subs	r2, r3, #1
 153 0048 895C     		ldrb	r1, [r1, r2]
 154 004a 0D29     		cmp	r1, #13
 155 004c 0BD1     		bne	.L10
 219:lib/WIFI.c    ****                 {
 220:lib/WIFI.c    ****                     g_WIFI_ReceiveBuffer[g_size_WIFI_ReceiveBuffer-1] = '\0';
 156              		.loc 1 220 0
 157 004e 0849     		ldr	r1, .L11+4
 158 0050 8854     		strb	r0, [r1, r2]
 221:lib/WIFI.c    ****                     g_size_WIFI_ReceiveBuffer--;                    
 159              		.loc 1 221 0
 160 0052 1300     		movs	r3, r2
 161 0054 054A     		ldr	r2, .L11
 162 0056 1380     		strh	r3, [r2]
 222:lib/WIFI.c    ****                 }
 223:lib/WIFI.c    ****                 
 224:lib/WIFI.c    ****                 return TRUE;
 163              		.loc 1 224 0
 164 0058 0130     		adds	r0, r0, #1
 165 005a 05E0     		b	.L8
 166              	.LVL10:
 167              	.L6:
 200:lib/WIFI.c    ****     {
 168              		.loc 1 200 0
 169 005c FFF7FEFF 		bl	UART_WIFI_SpiUartGetRxBufferSize
 170              	.LVL11:
 171 0060 0028     		cmp	r0, #0
 172 0062 CFD1     		bne	.L9
 173 0064 00E0     		b	.L8
 174              	.LVL12:
ARM GAS  C:\Users\luvsd\AppData\Local\Temp\cc4sXGfc.s 			page 8


 175              	.L10:
 176              		.loc 1 224 0
 177 0066 0120     		movs	r0, #1
 178              	.LVL13:
 179              	.L8:
 225:lib/WIFI.c    ****             }
 226:lib/WIFI.c    ****         }
 227:lib/WIFI.c    ****     }
 228:lib/WIFI.c    ****     return FALSE;
 229:lib/WIFI.c    **** }
 180              		.loc 1 229 0
 181              		@ sp needed
 182 0068 10BD     		pop	{r4, pc}
 183              	.L12:
 184 006a C046     		.align	2
 185              	.L11:
 186 006c 00000000 		.word	.LANCHOR0
 187 0070 00000000 		.word	g_WIFI_ReceiveBuffer
 188 0074 FF070000 		.word	2047
 189 0078 00000000 		.word	.LC5
 190              		.cfi_endproc
 191              	.LFE65:
 192              		.size	wifi_receive_data, .-wifi_receive_data
 193              		.section	.text.getWifiBuffer,"ax",%progbits
 194              		.align	2
 195              		.global	getWifiBuffer
 196              		.code	16
 197              		.thumb_func
 198              		.type	getWifiBuffer, %function
 199              	getWifiBuffer:
 200              	.LFB66:
 230:lib/WIFI.c    **** 
 231:lib/WIFI.c    **** uint8 *getWifiBuffer() {return g_WIFI_ReceiveBuffer;};
 201              		.loc 1 231 0
 202              		.cfi_startproc
 203              		@ args = 0, pretend = 0, frame = 0
 204              		@ frame_needed = 0, uses_anonymous_args = 0
 205              		@ link register save eliminated.
 206              		.loc 1 231 0
 207 0000 0048     		ldr	r0, .L14
 208              		@ sp needed
 209 0002 7047     		bx	lr
 210              	.L15:
 211              		.align	2
 212              	.L14:
 213 0004 00000000 		.word	g_WIFI_ReceiveBuffer
 214              		.cfi_endproc
 215              	.LFE66:
 216              		.size	getWifiBuffer, .-getWifiBuffer
 217              		.section	.text.wifi_printf,"ax",%progbits
 218              		.align	2
 219              		.global	wifi_printf
 220              		.code	16
 221              		.thumb_func
 222              		.type	wifi_printf, %function
 223              	wifi_printf:
 224              	.LFB70:
ARM GAS  C:\Users\luvsd\AppData\Local\Temp\cc4sXGfc.s 			page 9


 232:lib/WIFI.c    **** 
 233:lib/WIFI.c    **** void wifi_cmd(uint16 cmd)
 234:lib/WIFI.c    **** {    
 235:lib/WIFI.c    ****     switch(cmd)
 236:lib/WIFI.c    ****     {
 237:lib/WIFI.c    ****         case WIFI_CMD_GET_MAC:           WIFI_CMD("AT*ICT*MAC=?");      break;
 238:lib/WIFI.c    ****         case WIFI_CMD_RECEIVED_STRENGTH: WIFI_CMD("AT*ICT*MIB=112");    break;
 239:lib/WIFI.c    ****         case WIFI_CMD_AP_SCAN:           WIFI_CMD("AT*ICT*SCAN");       break;
 240:lib/WIFI.c    ****         case WIFI_CMD_IPCONFIG:          WIFI_CMD("AT*ICT*IPCONFIG=1"); break;
 241:lib/WIFI.c    ****         case WIFI_CMD_CONNECT_AP:        WIFI_CMD("AT*ICT*IPCONFIG=1"); break;
 242:lib/WIFI.c    ****         case WIFI_CMD_FACTORY_RESET:     WIFI_CMD("AT*ICT*FACRESET=0"); break;
 243:lib/WIFI.c    ****         case WIFI_CMD_NETWORK_STATUS:    WIFI_CMD("AT*ICT*NWSTATUS=?"); break;
 244:lib/WIFI.c    ****     }
 245:lib/WIFI.c    ****     g_wifi_cmd = cmd;
 246:lib/WIFI.c    ****     setCountMax_1ms(g_index_Wifi_Test, 3000); /* ļ¬©ļōĀ ļ¬ģļĀ╣ņŚÉ 3ņ┤ł ĒāĆņ×äņĢäņøā ņäżņĀĢ */
 247:lib/WIFI.c    ****    // if(g_wifi_cmd == cmd) printf("WIFI_CMD_FACTORY_RESET\n");
 248:lib/WIFI.c    **** }
 249:lib/WIFI.c    **** 
 250:lib/WIFI.c    **** void wifi_cmd_http(char *url)
 251:lib/WIFI.c    **** {
 252:lib/WIFI.c    ****     /* host = "192.168.38.72/2025/sci/new" ĒśĢņŗØ
 253:lib/WIFI.c    ****      * AT ļ¬ģļĀ╣ņØĆ http://{IP}:{port}/{path}{api} ĻĄ¼ņĪ░ņØ┤ļ»ĆļĪ£
 254:lib/WIFI.c    ****      * hostņŚÉņä£ ņ▓½ '/'ļź╝ ĻĖ░ņżĆņ£╝ļĪ£ IP ļČĆļČäĻ│╝ path ļČĆļČäņØä ļČäļ”¼ĒĢ£ļŗż. */
 255:lib/WIFI.c    ****     char ipPart[50];
 256:lib/WIFI.c    ****     const char *pathPart = "";
 257:lib/WIFI.c    ****     char *slash = strchr(g_ptrServer->host, '/');
 258:lib/WIFI.c    ****     if(slash != NULL) {
 259:lib/WIFI.c    ****         int ipLen = (int)(slash - g_ptrServer->host);
 260:lib/WIFI.c    ****         strncpy(ipPart, g_ptrServer->host, ipLen);
 261:lib/WIFI.c    ****         ipPart[ipLen] = '\0';
 262:lib/WIFI.c    ****         pathPart = slash;
 263:lib/WIFI.c    ****     } else {
 264:lib/WIFI.c    ****         strncpy(ipPart, g_ptrServer->host, sizeof(ipPart) - 1);
 265:lib/WIFI.c    ****         ipPart[sizeof(ipPart) - 1] = '\0';
 266:lib/WIFI.c    ****     }
 267:lib/WIFI.c    **** 
 268:lib/WIFI.c    ****     wifi_printf("AT*ICT*HTTPGET=http://%s:%d%s%s\r\n", ipPart, g_ptrServer->port, pathPart, url_enc
 269:lib/WIFI.c    ****     printf("AT*ICT*HTTPGET=http://%s:%d%s%s\r\n",      ipPart, g_ptrServer->port, pathPart, url_enc
 270:lib/WIFI.c    **** 
 271:lib/WIFI.c    ****     g_wifi_cmd = WIFI_CMD_HTTP;
 272:lib/WIFI.c    **** 
 273:lib/WIFI.c    ****     setCountMax_1ms(g_index_Wifi_Test, 5000);
 274:lib/WIFI.c    **** }
 275:lib/WIFI.c    **** 
 276:lib/WIFI.c    **** void wifi_get_response()
 277:lib/WIFI.c    **** {
 278:lib/WIFI.c    ****     int i=0;
 279:lib/WIFI.c    ****     char *p = NULL;
 280:lib/WIFI.c    **** 
 281:lib/WIFI.c    ****     printf("%s - %d\r\n",g_WIFI_ReceiveBuffer, g_wifi_cmd);
 282:lib/WIFI.c    **** 
 283:lib/WIFI.c    ****     /* [ņłśņĀĢ 2] IDLE/HTTP ņāüĒā£ņŚÉņä£ ļŖ”Ļ▓ī ļÅäņ░®ĒĢ£ MIB ņØæļŗĄ ņ▓śļ”¼ (2026-03-10, 2026-03-23
 284:lib/WIFI.c    ****      * ĻĖ░ņĪ┤ ļ¼ĖņĀ£(2026-03-10): MIB ĒāĆņ×äņĢäņøā Ēøä IDLE ņāüĒā£ņŚÉņä£ ņØæļŗĄ ļÅäņ░® ŌåÆ ļ¼┤ņŗ£ļÉ
 285:lib/WIFI.c    ****      * ņČöĻ░Ć ļ¼ĖņĀ£(2026-03-23): ļČĆĒīģ ņŗ£ case3ņŚÉņä£ wifi_cmd(RECEIVED_STRENGTH) ņ¦üĒøä initAnd
 286:lib/WIFI.c    ****      *            wifi_cmd_http()ļź╝ ĒśĖņČ£ ŌåÆ g_wifi_cmd = WIFI_CMD_HTTP ļĪ£ ļŹ«ņ¢┤ņöĆ
 287:lib/WIFI.c    ****      *            ŌåÆ MIB ņŗĀĒśĖĻ░ĢļÅä ņØæļŗĄņØ┤ ļÅäņ░®ĒĢ┤ļÅä switch case WIFI_CMD_HTTPļŖö ICT*MIB:
 288:lib/WIFI.c    ****      *            ŌåÆ RSSI ļ»ĖĻ░▒ņŗĀ ŌåÆ ņŗĀĒśĖĻ░ĢļÅä 0 Ēæ£ĻĖ░ (5ĒÜī ļČĆĒīģ ņżæ ņĢĮ 2ĒÜī ļ░£ņāØ)
ARM GAS  C:\Users\luvsd\AppData\Local\Temp\cc4sXGfc.s 			page 10


 289:lib/WIFI.c    ****      * ĒĢ┤Ļ▓░: IDLE ņÖĖņŚÉ WIFI_CMD_HTTP ņāüĒā£ļÅä MIB ņØæļŗĄ ņäĀņ▓śļ”¼ ļīĆņāüņŚÉ ņČöĻ░Ć
 290:lib/WIFI.c    ****      * ļĪżļ░▒: ņĢäļ×ś if ņĪ░Ļ▒┤ņØä (g_wifi_cmd == WIFI_CMD_IDLE) ņ£╝ļĪ£ ļÉśļÅīļ”¼ļ®┤ ņøÉļ│ĄļÉ© */
 291:lib/WIFI.c    ****     if((g_wifi_cmd == WIFI_CMD_IDLE || g_wifi_cmd == WIFI_CMD_HTTP) && STRSTR_WIFI_BUFFER("ICT*MIB:
 292:lib/WIFI.c    ****     {
 293:lib/WIFI.c    ****         p = STRSTR_WIFI_BUFFER(" "); p++;
 294:lib/WIFI.c    ****         g_network.RSSI = atoi(p);
 295:lib/WIFI.c    ****         DrawWifi();
 296:lib/WIFI.c    ****         return;
 297:lib/WIFI.c    ****     }
 298:lib/WIFI.c    **** 
 299:lib/WIFI.c    ****     switch(g_wifi_cmd)
 300:lib/WIFI.c    ****     {
 301:lib/WIFI.c    ****         
 302:lib/WIFI.c    ****         /* Get Mac Address */
 303:lib/WIFI.c    ****         case WIFI_CMD_GET_MAC:
 304:lib/WIFI.c    ****         {
 305:lib/WIFI.c    ****             if(STRSTR_WIFI_BUFFER("ICT*MAC:OK") != NULL)            
 306:lib/WIFI.c    ****             {
 307:lib/WIFI.c    ****                 p = STRSTR_WIFI_BUFFER(" "); p++;
 308:lib/WIFI.c    ****                 while(*p != '\0')  g_network.MAC[i++]  = *p++;   
 309:lib/WIFI.c    ****                 
 310:lib/WIFI.c    ****                  //printNetworkInfo();                
 311:lib/WIFI.c    ****             } else 
 312:lib/WIFI.c    ****                 printf("WIFI_RESP_GET_MAC ERROR\r\n");
 313:lib/WIFI.c    ****             
 314:lib/WIFI.c    ****             g_wifi_cmd = WIFI_CMD_IDLE;
 315:lib/WIFI.c    ****         }
 316:lib/WIFI.c    ****         break;   
 317:lib/WIFI.c    ****         
 318:lib/WIFI.c    ****         /* get Received signal strength indication */
 319:lib/WIFI.c    ****         case WIFI_CMD_RECEIVED_STRENGTH:
 320:lib/WIFI.c    ****             if(STRSTR_WIFI_BUFFER("ICT*MIB:OK") != NULL)
 321:lib/WIFI.c    ****             {
 322:lib/WIFI.c    ****                 p = STRSTR_WIFI_BUFFER(" "); p++;
 323:lib/WIFI.c    ****                 g_network.RSSI = atoi(p);
 324:lib/WIFI.c    ****                 DrawWifi();
 325:lib/WIFI.c    ****             } else
 326:lib/WIFI.c    ****                 printf("WIFI_CMD_RECEIVED_STRENGTH ERROR\r\n");
 327:lib/WIFI.c    **** 
 328:lib/WIFI.c    ****             g_wifi_cmd = WIFI_CMD_IDLE;    
 329:lib/WIFI.c    ****         break;
 330:lib/WIFI.c    ****                     
 331:lib/WIFI.c    ****         /* get AP Scan list */
 332:lib/WIFI.c    ****         case WIFI_CMD_AP_SCAN:
 333:lib/WIFI.c    ****                 printWifiBuffer();                
 334:lib/WIFI.c    ****             if(STRSTR_WIFI_BUFFER("ICT*SCAN:OK") != NULL)
 335:lib/WIFI.c    ****             {
 336:lib/WIFI.c    ****                 g_SizeOfAPs = 0;
 337:lib/WIFI.c    ****             }
 338:lib/WIFI.c    ****             else if(STRSTR_WIFI_BUFFER("ICT*SCANIND:") != NULL)
 339:lib/WIFI.c    ****             {
 340:lib/WIFI.c    ****                 p = STRSTR_WIFI_BUFFER(" "); p++;
 341:lib/WIFI.c    ****                 appendAP(p);
 342:lib/WIFI.c    ****             }
 343:lib/WIFI.c    ****             else if(STRSTR_WIFI_BUFFER("ICT*SCANRESULT") != NULL)
 344:lib/WIFI.c    ****             {
 345:lib/WIFI.c    ****                 g_wifi_cmd = WIFI_CMD_IDLE;
ARM GAS  C:\Users\luvsd\AppData\Local\Temp\cc4sXGfc.s 			page 11


 346:lib/WIFI.c    ****             } else
 347:lib/WIFI.c    ****                 printf("WIFI_CMD_AP_SCAN ERROR\r\n");
 348:lib/WIFI.c    ****         break;
 349:lib/WIFI.c    ****                 
 350:lib/WIFI.c    ****         /* Set IP Config */
 351:lib/WIFI.c    ****         case WIFI_CMD_FACTORY_RESET:
 352:lib/WIFI.c    ****             {
 353:lib/WIFI.c    ****                 printWifiBuffer();   
 354:lib/WIFI.c    ****                 //printf(".");
 355:lib/WIFI.c    ****                 if(STRSTR_WIFI_BUFFER("ICT*FACRESET:OK") != NULL)
 356:lib/WIFI.c    ****                 {
 357:lib/WIFI.c    ****                     wifi_cmd(WIFI_CMD_IPCONFIG);                    
 358:lib/WIFI.c    ****                     
 359:lib/WIFI.c    ****                     printf("WIFI_CMD_IPCONFIG----\r\n");
 360:lib/WIFI.c    ****                     break;
 361:lib/WIFI.c    ****                 }
 362:lib/WIFI.c    ****             }
 363:lib/WIFI.c    ****             break;
 364:lib/WIFI.c    ****             
 365:lib/WIFI.c    ****         /* Set IP Config */
 366:lib/WIFI.c    ****         case WIFI_CMD_IPCONFIG:
 367:lib/WIFI.c    ****             // printWifiBuffer();  
 368:lib/WIFI.c    ****      
 369:lib/WIFI.c    ****             if(STRSTR_WIFI_BUFFER("ICT*IPCONFIG:OK") != NULL)
 370:lib/WIFI.c    ****             {                
 371:lib/WIFI.c    ****                 wifi_printf("AT*ICT*SCONN=%s %s\r\n",g_ptrServer->SSID, g_ptrServer->password);    
 372:lib/WIFI.c    ****             }
 373:lib/WIFI.c    ****             else if(STRSTR_WIFI_BUFFER("ICT*SCONN:OK") != NULL)
 374:lib/WIFI.c    ****             {
 375:lib/WIFI.c    ****                 wifi_cmd(WIFI_CMD_NETWORK_STATUS);
 376:lib/WIFI.c    ****             }               
 377:lib/WIFI.c    ****             else if(STRSTR_WIFI_BUFFER("ICT*IPRELEASED") != NULL)
 378:lib/WIFI.c    ****             {
 379:lib/WIFI.c    ****             }            
 380:lib/WIFI.c    ****             else if(STRSTR_WIFI_BUFFER("ICT*SSL_CLOSED:OK") != NULL)
 381:lib/WIFI.c    ****             {
 382:lib/WIFI.c    ****             }
 383:lib/WIFI.c    ****             else if(STRSTR_WIFI_BUFFER("ICT*DISASSOCIATED") != NULL)
 384:lib/WIFI.c    ****             {
 385:lib/WIFI.c    ****             }    
 386:lib/WIFI.c    ****             else if(STRSTR_WIFI_BUFFER("ICT*ASSOCIATED:") != NULL)
 387:lib/WIFI.c    ****             {
 388:lib/WIFI.c    **** 
 389:lib/WIFI.c    ****             }               
 390:lib/WIFI.c    ****             else if(STRSTR_WIFI_BUFFER("ICT*IPALLOCATED:") != NULL)
 391:lib/WIFI.c    ****             {
 392:lib/WIFI.c    ****                 g_wifi_cmd = WIFI_CMD_IDLE;
 393:lib/WIFI.c    ****             }  
 394:lib/WIFI.c    ****             else
 395:lib/WIFI.c    ****             {
 396:lib/WIFI.c    ****             //    ShowMessage("ACCESS FAILUE");
 397:lib/WIFI.c    ****                 printf("WIFI_CMD_IPCONFIG ERROR\r\n");
 398:lib/WIFI.c    ****             }
 399:lib/WIFI.c    ****         break;
 400:lib/WIFI.c    ****         case WIFI_CMD_NETWORK_STATUS:
 401:lib/WIFI.c    ****             if(STRSTR_WIFI_BUFFER("ICT*NWSTATUS") != NULL)
 402:lib/WIFI.c    ****             {
ARM GAS  C:\Users\luvsd\AppData\Local\Temp\cc4sXGfc.s 			page 12


 403:lib/WIFI.c    ****                 CyDelay(500);
 404:lib/WIFI.c    ****                 WIFI_RESET_Write(0);                
 405:lib/WIFI.c    ****                 CyDelay(20);
 406:lib/WIFI.c    ****                 WIFI_RESET_Write(1);   
 407:lib/WIFI.c    ****                 CyDelay(20);   
 408:lib/WIFI.c    ****                CySoftwareReset();                
 409:lib/WIFI.c    ****             }
 410:lib/WIFI.c    ****             break;
 411:lib/WIFI.c    ****             /*
 412:lib/WIFI.c    ****                        if(isFinishCounter_1ms(g_index_WifiStrength)) // Wifi Strength ņ▓┤Ēü¼ļź╝ 5se
 413:lib/WIFI.c    ****             {
 414:lib/WIFI.c    ****                 resetCounter_1ms(g_index_WifiStrength);
 415:lib/WIFI.c    ****                 wifi_cmd(WIFI_CMD_RECEIVED_STRENGTH);               
 416:lib/WIFI.c    ****             } */
 417:lib/WIFI.c    ****         /* request HTTP */
 418:lib/WIFI.c    ****         case WIFI_CMD_HTTP:
 419:lib/WIFI.c    ****             if(isFinishCounter_1ms(g_index_Wifi_Test))
 420:lib/WIFI.c    ****             {
 421:lib/WIFI.c    ****                 g_wifi_cmd = WIFI_CMD_IDLE; 
 422:lib/WIFI.c    ****                 printf("WIFI_CMD_HTTP\r\n");
 423:lib/WIFI.c    ****             }
 424:lib/WIFI.c    ****             
 425:lib/WIFI.c    ****             if     (STRSTR_WIFI_BUFFER("ICT*HTTPGET:OK") != NULL)
 426:lib/WIFI.c    ****             {
 427:lib/WIFI.c    ****                 resetCounter_1ms(g_index_Wifi_Test);
 428:lib/WIFI.c    ****                // printf(">>>>>>>OK\r\n");
 429:lib/WIFI.c    ****             }
 430:lib/WIFI.c    ****             else if(STRSTR_WIFI_BUFFER("ICT*HTTPGET:ERROR") != NULL)
 431:lib/WIFI.c    ****             {
 432:lib/WIFI.c    ****                 printf("ICT*HTTPGET:ERROR\r\n");
 433:lib/WIFI.c    ****                 g_wifi_cmd = WIFI_CMD_IDLE;
 434:lib/WIFI.c    ****             }
 435:lib/WIFI.c    ****             else if(STRSTR_WIFI_BUFFER("ICT*HTTPBODY:") != NULL)
 436:lib/WIFI.c    ****             {
 437:lib/WIFI.c    ****                printf(">BODY>%s\r\n",g_WIFI_ReceiveBuffer);
 438:lib/WIFI.c    ****                 p = STRSTR_WIFI_BUFFER(":"); p++;
 439:lib/WIFI.c    ****                 g_sizeOfHttpText = atoi(p); // No. of Received Data
 440:lib/WIFI.c    ****             
 441:lib/WIFI.c    ****                 p = STRSTR_WIFI_BUFFER(" "); p++;
 442:lib/WIFI.c    **** 
 443:lib/WIFI.c    ****                 g_ptrHttpReceivedText=p;    // pointer of Received Data
 444:lib/WIFI.c    ****             }
 445:lib/WIFI.c    ****             else if(STRSTR_WIFI_BUFFER("ICT*HTTPCLOSE:OK") != NULL)
 446:lib/WIFI.c    ****             {
 447:lib/WIFI.c    ****                 g_wifi_cmd = WIFI_CMD_IDLE;     
 448:lib/WIFI.c    ****             }            
 449:lib/WIFI.c    ****     }
 450:lib/WIFI.c    **** }
 451:lib/WIFI.c    **** 
 452:lib/WIFI.c    **** void wifi_printf(const char *fmt, ...)
 453:lib/WIFI.c    **** {
 225              		.loc 1 453 0
 226              		.cfi_startproc
 227              		@ args = 4, pretend = 16, frame = 1032
 228              		@ frame_needed = 0, uses_anonymous_args = 1
 229              	.LVL14:
 230 0000 0FB4     		push	{r0, r1, r2, r3}
ARM GAS  C:\Users\luvsd\AppData\Local\Temp\cc4sXGfc.s 			page 13


 231              		.cfi_def_cfa_offset 16
 232 0002 70B5     		push	{r4, r5, r6, lr}
 233              		.cfi_def_cfa_offset 32
 234              		.cfi_offset 4, -32
 235              		.cfi_offset 5, -28
 236              		.cfi_offset 6, -24
 237              		.cfi_offset 14, -20
 238 0004 154C     		ldr	r4, .L22
 239 0006 A544     		add	sp, sp, r4
 240              		.cfi_def_cfa_offset 1064
 241 0008 FFAA     		add	r2, sp, #1020
 242 000a 1C32     		adds	r2, r2, #28
 243 000c 02CA     		ldmia	r2!, {r1}
 454:lib/WIFI.c    ****     va_list ap;
 455:lib/WIFI.c    ****     char buff[1024];
 456:lib/WIFI.c    ****     
 457:lib/WIFI.c    ****     va_start(ap, fmt);
 244              		.loc 1 457 0
 245 000e FFAB     		add	r3, sp, #1020
 246 0010 0833     		adds	r3, r3, #8
 247 0012 1A60     		str	r2, [r3]
 458:lib/WIFI.c    **** 
 459:lib/WIFI.c    ****     vsprintf(buff, fmt, ap);
 248              		.loc 1 459 0
 249 0014 01A8     		add	r0, sp, #4
 250 0016 FFF7FEFF 		bl	vsprintf
 251              	.LVL15:
 460:lib/WIFI.c    ****     va_end(ap);
 461:lib/WIFI.c    ****     
 462:lib/WIFI.c    ****     uint16 nLength = strlen(buff);
 252              		.loc 1 462 0
 253 001a 01A8     		add	r0, sp, #4
 254 001c FFF7FEFF 		bl	strlen
 255              	.LVL16:
 256 0020 0600     		movs	r6, r0
 257              	.LVL17:
 258              	.LBB2:
 463:lib/WIFI.c    ****     for(int i=0; i < nLength; i++)
 259              		.loc 1 463 0
 260 0022 0025     		movs	r5, #0
 261 0024 0FE0     		b	.L17
 262              	.LVL18:
 263              	.L19:
 264              	.LBB3:
 464:lib/WIFI.c    ****     {
 465:lib/WIFI.c    ****         uint16 retries = 0;
 466:lib/WIFI.c    ****         while(UART_WIFI_SpiUartGetTxBufferSize() && retries < 10000) retries++;
 265              		.loc 1 466 0 discriminator 3
 266 0026 0134     		adds	r4, r4, #1
 267              	.LVL19:
 268 0028 A4B2     		uxth	r4, r4
 269              	.LVL20:
 270 002a 00E0     		b	.L20
 271              	.LVL21:
 272              	.L21:
 273              	.LBE3:
 274 002c 0024     		movs	r4, #0
ARM GAS  C:\Users\luvsd\AppData\Local\Temp\cc4sXGfc.s 			page 14


 275              	.L20:
 276              	.LVL22:
 277              	.LBB4:
 278              		.loc 1 466 0 is_stmt 0 discriminator 1
 279 002e FFF7FEFF 		bl	UART_WIFI_SpiUartGetTxBufferSize
 280              	.LVL23:
 281 0032 0028     		cmp	r0, #0
 282 0034 02D0     		beq	.L18
 283              		.loc 1 466 0 discriminator 2
 284 0036 0A4B     		ldr	r3, .L22+4
 285 0038 9C42     		cmp	r4, r3
 286 003a F4D9     		bls	.L19
 287              	.L18:
 467:lib/WIFI.c    ****         UART_WIFI_UartPutChar(buff[i]);
 288              		.loc 1 467 0 is_stmt 1 discriminator 2
 289 003c 01AB     		add	r3, sp, #4
 290 003e 585D     		ldrb	r0, [r3, r5]
 291 0040 FFF7FEFF 		bl	UART_WIFI_SpiUartWriteTxData
 292              	.LVL24:
 293              	.LBE4:
 463:lib/WIFI.c    ****     for(int i=0; i < nLength; i++)
 294              		.loc 1 463 0 discriminator 2
 295 0044 0135     		adds	r5, r5, #1
 296              	.LVL25:
 297              	.L17:
 463:lib/WIFI.c    ****     for(int i=0; i < nLength; i++)
 298              		.loc 1 463 0 is_stmt 0 discriminator 1
 299 0046 3304     		lsls	r3, r6, #16
 300 0048 1B0C     		lsrs	r3, r3, #16
 301 004a 9D42     		cmp	r5, r3
 302 004c EEDB     		blt	.L21
 303              	.LBE2:
 468:lib/WIFI.c    ****     }
 469:lib/WIFI.c    **** }
 304              		.loc 1 469 0 is_stmt 1
 305 004e 8123     		movs	r3, #129
 306 0050 DB00     		lsls	r3, r3, #3
 307 0052 9D44     		add	sp, sp, r3
 308              		@ sp needed
 309              	.LVL26:
 310              	.LVL27:
 311 0054 70BC     		pop	{r4, r5, r6}
 312 0056 08BC     		pop	{r3}
 313 0058 04B0     		add	sp, sp, #16
 314 005a 1847     		bx	r3
 315              	.L23:
 316              		.align	2
 317              	.L22:
 318 005c F8FBFFFF 		.word	-1032
 319 0060 0F270000 		.word	9999
 320              		.cfi_endproc
 321              	.LFE70:
 322              		.size	wifi_printf, .-wifi_printf
 323              		.section	.text.wifi_cmd,"ax",%progbits
 324              		.align	2
 325              		.global	wifi_cmd
 326              		.code	16
ARM GAS  C:\Users\luvsd\AppData\Local\Temp\cc4sXGfc.s 			page 15


 327              		.thumb_func
 328              		.type	wifi_cmd, %function
 329              	wifi_cmd:
 330              	.LFB67:
 234:lib/WIFI.c    ****     switch(cmd)
 331              		.loc 1 234 0
 332              		.cfi_startproc
 333              		@ args = 0, pretend = 0, frame = 0
 334              		@ frame_needed = 0, uses_anonymous_args = 0
 335              	.LVL28:
 336 0000 10B5     		push	{r4, lr}
 337              		.cfi_def_cfa_offset 8
 338              		.cfi_offset 4, -8
 339              		.cfi_offset 14, -4
 340 0002 0400     		movs	r4, r0
 235:lib/WIFI.c    ****     {
 341              		.loc 1 235 0
 342 0004 0828     		cmp	r0, #8
 343 0006 25D8     		bhi	.L25
 344 0008 8300     		lsls	r3, r0, #2
 345 000a 164A     		ldr	r2, .L34
 346 000c D358     		ldr	r3, [r2, r3]
 347 000e 9F46     		mov	pc, r3
 348              		.section	.rodata
 349              		.align	2
 350              	.L27:
 351 0000 54000000 		.word	.L25
 352 0004 10000000 		.word	.L26
 353 0008 1A000000 		.word	.L28
 354 000c 24000000 		.word	.L29
 355 0010 2E000000 		.word	.L30
 356 0014 54000000 		.word	.L25
 357 0018 38000000 		.word	.L31
 358 001c 42000000 		.word	.L32
 359 0020 4C000000 		.word	.L33
 360              		.section	.text.wifi_cmd
 361              	.L26:
 237:lib/WIFI.c    ****         case WIFI_CMD_RECEIVED_STRENGTH: WIFI_CMD("AT*ICT*MIB=112");    break;
 362              		.loc 1 237 0
 363 0010 1549     		ldr	r1, .L34+4
 364 0012 1648     		ldr	r0, .L34+8
 365              	.LVL29:
 366 0014 FFF7FEFF 		bl	wifi_printf
 367              	.LVL30:
 368 0018 1CE0     		b	.L25
 369              	.LVL31:
 370              	.L28:
 238:lib/WIFI.c    ****         case WIFI_CMD_AP_SCAN:           WIFI_CMD("AT*ICT*SCAN");       break;
 371              		.loc 1 238 0
 372 001a 1549     		ldr	r1, .L34+12
 373 001c 1348     		ldr	r0, .L34+8
 374              	.LVL32:
 375 001e FFF7FEFF 		bl	wifi_printf
 376              	.LVL33:
 377 0022 17E0     		b	.L25
 378              	.LVL34:
 379              	.L29:
ARM GAS  C:\Users\luvsd\AppData\Local\Temp\cc4sXGfc.s 			page 16


 239:lib/WIFI.c    ****         case WIFI_CMD_IPCONFIG:          WIFI_CMD("AT*ICT*IPCONFIG=1"); break;
 380              		.loc 1 239 0
 381 0024 1349     		ldr	r1, .L34+16
 382 0026 1148     		ldr	r0, .L34+8
 383              	.LVL35:
 384 0028 FFF7FEFF 		bl	wifi_printf
 385              	.LVL36:
 386 002c 12E0     		b	.L25
 387              	.LVL37:
 388              	.L30:
 240:lib/WIFI.c    ****         case WIFI_CMD_CONNECT_AP:        WIFI_CMD("AT*ICT*IPCONFIG=1"); break;
 389              		.loc 1 240 0
 390 002e 1249     		ldr	r1, .L34+20
 391 0030 0E48     		ldr	r0, .L34+8
 392              	.LVL38:
 393 0032 FFF7FEFF 		bl	wifi_printf
 394              	.LVL39:
 395 0036 0DE0     		b	.L25
 396              	.LVL40:
 397              	.L31:
 241:lib/WIFI.c    ****         case WIFI_CMD_FACTORY_RESET:     WIFI_CMD("AT*ICT*FACRESET=0"); break;
 398              		.loc 1 241 0
 399 0038 0F49     		ldr	r1, .L34+20
 400 003a 0C48     		ldr	r0, .L34+8
 401              	.LVL41:
 402 003c FFF7FEFF 		bl	wifi_printf
 403              	.LVL42:
 404 0040 08E0     		b	.L25
 405              	.LVL43:
 406              	.L32:
 242:lib/WIFI.c    ****         case WIFI_CMD_NETWORK_STATUS:    WIFI_CMD("AT*ICT*NWSTATUS=?"); break;
 407              		.loc 1 242 0
 408 0042 0E49     		ldr	r1, .L34+24
 409 0044 0948     		ldr	r0, .L34+8
 410              	.LVL44:
 411 0046 FFF7FEFF 		bl	wifi_printf
 412              	.LVL45:
 413 004a 03E0     		b	.L25
 414              	.LVL46:
 415              	.L33:
 243:lib/WIFI.c    ****     }
 416              		.loc 1 243 0
 417 004c 0C49     		ldr	r1, .L34+28
 418 004e 0748     		ldr	r0, .L34+8
 419              	.LVL47:
 420 0050 FFF7FEFF 		bl	wifi_printf
 421              	.LVL48:
 422              	.L25:
 245:lib/WIFI.c    ****     setCountMax_1ms(g_index_Wifi_Test, 3000); /* ļ¬©ļōĀ ļ¬ģļĀ╣ņŚÉ 3ņ┤ł ĒāĆņ×äņĢäņøā ņäżņĀĢ */
 423              		.loc 1 245 0
 424 0054 0B4B     		ldr	r3, .L34+32
 425 0056 9C70     		strb	r4, [r3, #2]
 246:lib/WIFI.c    ****    // if(g_wifi_cmd == cmd) printf("WIFI_CMD_FACTORY_RESET\n");
 426              		.loc 1 246 0
 427 0058 0B4B     		ldr	r3, .L34+36
 428 005a 1878     		ldrb	r0, [r3]
 429 005c 0B49     		ldr	r1, .L34+40
ARM GAS  C:\Users\luvsd\AppData\Local\Temp\cc4sXGfc.s 			page 17


 430 005e FFF7FEFF 		bl	setCountMax_1ms
 431              	.LVL49:
 248:lib/WIFI.c    **** 
 432              		.loc 1 248 0
 433              		@ sp needed
 434 0062 10BD     		pop	{r4, pc}
 435              	.L35:
 436              		.align	2
 437              	.L34:
 438 0064 00000000 		.word	.L27
 439 0068 14000000 		.word	.LC9
 440 006c 24000000 		.word	.LC11
 441 0070 2C000000 		.word	.LC13
 442 0074 3C000000 		.word	.LC15
 443 0078 48000000 		.word	.LC17
 444 007c 5C000000 		.word	.LC19
 445 0080 70000000 		.word	.LC21
 446 0084 00000000 		.word	.LANCHOR0
 447 0088 00000000 		.word	g_index_Wifi_Test
 448 008c B80B0000 		.word	3000
 449              		.cfi_endproc
 450              	.LFE67:
 451              		.size	wifi_cmd, .-wifi_cmd
 452              		.section	.text.wifiConnectAP,"ax",%progbits
 453              		.align	2
 454              		.global	wifiConnectAP
 455              		.code	16
 456              		.thumb_func
 457              		.type	wifiConnectAP, %function
 458              	wifiConnectAP:
 459              	.LFB64:
 113:lib/WIFI.c    ****     int i=0;    
 460              		.loc 1 113 0
 461              		.cfi_startproc
 462              		@ args = 0, pretend = 0, frame = 0
 463              		@ frame_needed = 0, uses_anonymous_args = 0
 464 0000 10B5     		push	{r4, lr}
 465              		.cfi_def_cfa_offset 8
 466              		.cfi_offset 4, -8
 467              		.cfi_offset 14, -4
 468              	.LVL50:
 117:lib/WIFI.c    ****     
 469              		.loc 1 117 0
 470 0002 784B     		ldr	r3, .L63
 471 0004 DB78     		ldrb	r3, [r3, #3]
 472 0006 002B     		cmp	r3, #0
 473 0008 02D1     		bne	.L37
 117:lib/WIFI.c    ****     
 474              		.loc 1 117 0 is_stmt 0 discriminator 1
 475 000a 7748     		ldr	r0, .L63+4
 476 000c FFF7FEFF 		bl	puts
 477              	.LVL51:
 478              	.L37:
 119:lib/WIFI.c    ****     switch(nLoop)
 479              		.loc 1 119 0 is_stmt 1
 480 0010 744C     		ldr	r4, .L63
 481 0012 E178     		ldrb	r1, [r4, #3]
ARM GAS  C:\Users\luvsd\AppData\Local\Temp\cc4sXGfc.s 			page 18


 482 0014 754A     		ldr	r2, .L63+8
 483 0016 7648     		ldr	r0, .L63+12
 484 0018 FFF7FEFF 		bl	printf
 485              	.LVL52:
 120:lib/WIFI.c    ****     {
 486              		.loc 1 120 0
 487 001c E378     		ldrb	r3, [r4, #3]
 488 001e 012B     		cmp	r3, #1
 489 0020 1CD0     		beq	.L39
 490 0022 002B     		cmp	r3, #0
 491 0024 05D0     		beq	.L40
 492 0026 022B     		cmp	r3, #2
 493 0028 42D0     		beq	.L41
 494 002a 032B     		cmp	r3, #3
 495 002c 00D1     		bne	.LCB426
 496 002e B1E0     		b	.L42	@long jump
 497              	.LCB426:
 498 0030 D4E0     		b	.L38
 499              	.L40:
 123:lib/WIFI.c    ****             {
 500              		.loc 1 123 0
 501 0032 7049     		ldr	r1, .L63+16
 502 0034 6D48     		ldr	r0, .L63+8
 503 0036 FFF7FEFF 		bl	strstr
 504              	.LVL53:
 505 003a 0028     		cmp	r0, #0
 506 003c 00D1     		bne	.LCB436
 507 003e CDE0     		b	.L38	@long jump
 508              	.LCB436:
 125:lib/WIFI.c    ****                 g_network.isConnectAP = FALSE;
 509              		.loc 1 125 0
 510 0040 6D48     		ldr	r0, .L63+20
 511 0042 FFF7FEFF 		bl	puts
 512              	.LVL54:
 126:lib/WIFI.c    ****                 wifi_cmd(WIFI_CMD_GET_MAC); // request MAC                
 513              		.loc 1 126 0
 514 0046 0022     		movs	r2, #0
 515 0048 6C4B     		ldr	r3, .L63+24
 516 004a 1A70     		strb	r2, [r3]
 127:lib/WIFI.c    ****                 nLoop++;
 517              		.loc 1 127 0
 518 004c 0120     		movs	r0, #1
 519 004e FFF7FEFF 		bl	wifi_cmd
 520              	.LVL55:
 128:lib/WIFI.c    ****             }
 521              		.loc 1 128 0
 522 0052 644A     		ldr	r2, .L63
 523 0054 D378     		ldrb	r3, [r2, #3]
 524 0056 0133     		adds	r3, r3, #1
 525 0058 D370     		strb	r3, [r2, #3]
 526 005a BFE0     		b	.L38
 527              	.L39:
 132:lib/WIFI.c    ****             {
 528              		.loc 1 132 0
 529 005c 6849     		ldr	r1, .L63+28
 530 005e 6348     		ldr	r0, .L63+8
 531 0060 FFF7FEFF 		bl	strstr
ARM GAS  C:\Users\luvsd\AppData\Local\Temp\cc4sXGfc.s 			page 19


 532              	.LVL56:
 533 0064 0028     		cmp	r0, #0
 534 0066 1BD0     		beq	.L43
 535              	.LBB5:
 134:lib/WIFI.c    ****                 char *p = STRSTR_WIFI_BUFFER(" "); p++;
 536              		.loc 1 134 0
 537 0068 6648     		ldr	r0, .L63+32
 538 006a FFF7FEFF 		bl	puts
 539              	.LVL57:
 135:lib/WIFI.c    ****                 while(*p != '\0')  g_network.MAC[i++]  = *p++;                  
 540              		.loc 1 135 0
 541 006e 2021     		movs	r1, #32
 542 0070 5E48     		ldr	r0, .L63+8
 543 0072 FFF7FEFF 		bl	strchr
 544              	.LVL58:
 545 0076 0130     		adds	r0, r0, #1
 546              	.LVL59:
 547              	.LBE5:
 114:lib/WIFI.c    ****     static uint8 nLoop = 0;
 548              		.loc 1 114 0
 549 0078 0021     		movs	r1, #0
 550              	.LBB6:
 136:lib/WIFI.c    ****                // printNetworkInfo();   
 551              		.loc 1 136 0
 552 007a 05E0     		b	.L44
 553              	.LVL60:
 554              	.L45:
 136:lib/WIFI.c    ****                // printNetworkInfo();   
 555              		.loc 1 136 0 is_stmt 0 discriminator 2
 556 007c 0130     		adds	r0, r0, #1
 557              	.LVL61:
 558 007e 5F4B     		ldr	r3, .L63+24
 559 0080 5B18     		adds	r3, r3, r1
 560 0082 6C33     		adds	r3, r3, #108
 561 0084 1A70     		strb	r2, [r3]
 562 0086 0131     		adds	r1, r1, #1
 563              	.LVL62:
 564              	.L44:
 136:lib/WIFI.c    ****                // printNetworkInfo();   
 565              		.loc 1 136 0 discriminator 1
 566 0088 0278     		ldrb	r2, [r0]
 567 008a 002A     		cmp	r2, #0
 568 008c F6D1     		bne	.L45
 138:lib/WIFI.c    ****                 resetCounter_1ms(g_index_Wifi_Test);
 569              		.loc 1 138 0 is_stmt 1
 570 008e 0121     		movs	r1, #1
 571              	.LVL63:
 572 0090 7E23     		movs	r3, #126
 573 0092 5A4A     		ldr	r2, .L63+24
 574 0094 D154     		strb	r1, [r2, r3]
 139:lib/WIFI.c    ****             } else 
 575              		.loc 1 139 0
 576 0096 5C4B     		ldr	r3, .L63+36
 577 0098 1878     		ldrb	r0, [r3]
 578              	.LVL64:
 579 009a FFF7FEFF 		bl	resetCounter_1ms
 580              	.LVL65:
ARM GAS  C:\Users\luvsd\AppData\Local\Temp\cc4sXGfc.s 			page 20


 581              	.LBE6:
 582 009e 02E0     		b	.L46
 583              	.LVL66:
 584              	.L43:
 141:lib/WIFI.c    ****                               
 585              		.loc 1 141 0
 586 00a0 5A48     		ldr	r0, .L63+40
 587 00a2 FFF7FEFF 		bl	puts
 588              	.LVL67:
 589              	.L46:
 143:lib/WIFI.c    ****             break;            
 590              		.loc 1 143 0
 591 00a6 4F4A     		ldr	r2, .L63
 592 00a8 D378     		ldrb	r3, [r2, #3]
 593 00aa 0133     		adds	r3, r3, #1
 594 00ac D370     		strb	r3, [r2, #3]
 144:lib/WIFI.c    ****         case 2: // get IP
 595              		.loc 1 144 0
 596 00ae 95E0     		b	.L38
 597              	.LVL68:
 598              	.L41:
 146:lib/WIFI.c    ****             {
 599              		.loc 1 146 0
 600 00b0 5749     		ldr	r1, .L63+44
 601 00b2 4E48     		ldr	r0, .L63+8
 602 00b4 FFF7FEFF 		bl	strstr
 603              	.LVL69:
 604 00b8 0028     		cmp	r0, #0
 605 00ba 3FD0     		beq	.L47
 606              	.LBB7:
 148:lib/WIFI.c    ****                 char *p = STRSTR_WIFI_BUFFER(":"); p++;
 607              		.loc 1 148 0
 608 00bc 5548     		ldr	r0, .L63+48
 609 00be FFF7FEFF 		bl	puts
 610              	.LVL70:
 149:lib/WIFI.c    ****                 
 611              		.loc 1 149 0
 612 00c2 3A21     		movs	r1, #58
 613 00c4 4948     		ldr	r0, .L63+8
 614 00c6 FFF7FEFF 		bl	strchr
 615              	.LVL71:
 616 00ca 0130     		adds	r0, r0, #1
 617              	.LVL72:
 618              	.LBE7:
 114:lib/WIFI.c    ****     static uint8 nLoop = 0;
 619              		.loc 1 114 0
 620 00cc 0021     		movs	r1, #0
 621              	.LBB8:
 151:lib/WIFI.c    ****                 while(*p != ' ') g_network.SubnetMask[i++] = *p++; p++; i=0; // Subnet Mask        
 622              		.loc 1 151 0
 623 00ce 05E0     		b	.L48
 624              	.LVL73:
 625              	.L49:
 151:lib/WIFI.c    ****                 while(*p != ' ') g_network.SubnetMask[i++] = *p++; p++; i=0; // Subnet Mask        
 626              		.loc 1 151 0 is_stmt 0 discriminator 2
 627 00d0 0130     		adds	r0, r0, #1
 628              	.LVL74:
ARM GAS  C:\Users\luvsd\AppData\Local\Temp\cc4sXGfc.s 			page 21


 629 00d2 4A4B     		ldr	r3, .L63+24
 630 00d4 5B18     		adds	r3, r3, r1
 631 00d6 2C33     		adds	r3, r3, #44
 632 00d8 1A70     		strb	r2, [r3]
 633 00da 0131     		adds	r1, r1, #1
 634              	.LVL75:
 635              	.L48:
 151:lib/WIFI.c    ****                 while(*p != ' ') g_network.SubnetMask[i++] = *p++; p++; i=0; // Subnet Mask        
 636              		.loc 1 151 0 discriminator 1
 637 00dc 0278     		ldrb	r2, [r0]
 638 00de 202A     		cmp	r2, #32
 639 00e0 F6D1     		bne	.L49
 151:lib/WIFI.c    ****                 while(*p != ' ') g_network.SubnetMask[i++] = *p++; p++; i=0; // Subnet Mask        
 640              		.loc 1 151 0 discriminator 3
 641 00e2 0130     		adds	r0, r0, #1
 642              	.LVL76:
 643 00e4 0021     		movs	r1, #0
 152:lib/WIFI.c    ****                 while(*p != ' ') g_network.Gateway[i++]    = *p++; p++; i=0; // Gateway
 644              		.loc 1 152 0 is_stmt 1 discriminator 3
 645 00e6 05E0     		b	.L50
 646              	.LVL77:
 647              	.L51:
 152:lib/WIFI.c    ****                 while(*p != ' ') g_network.Gateway[i++]    = *p++; p++; i=0; // Gateway
 648              		.loc 1 152 0 is_stmt 0 discriminator 2
 649 00e8 0130     		adds	r0, r0, #1
 650              	.LVL78:
 651 00ea 444B     		ldr	r3, .L63+24
 652 00ec 5B18     		adds	r3, r3, r1
 653 00ee 3C33     		adds	r3, r3, #60
 654 00f0 1A70     		strb	r2, [r3]
 655 00f2 0131     		adds	r1, r1, #1
 656              	.LVL79:
 657              	.L50:
 152:lib/WIFI.c    ****                 while(*p != ' ') g_network.Gateway[i++]    = *p++; p++; i=0; // Gateway
 658              		.loc 1 152 0 discriminator 1
 659 00f4 0278     		ldrb	r2, [r0]
 660 00f6 202A     		cmp	r2, #32
 661 00f8 F6D1     		bne	.L51
 152:lib/WIFI.c    ****                 while(*p != ' ') g_network.Gateway[i++]    = *p++; p++; i=0; // Gateway
 662              		.loc 1 152 0 discriminator 3
 663 00fa 0130     		adds	r0, r0, #1
 664              	.LVL80:
 665 00fc 0021     		movs	r1, #0
 153:lib/WIFI.c    ****                 while(*p != '\0')  g_network.DNSServer[i++]  = *p++; p++; i=0; // DNS Server       
 666              		.loc 1 153 0 is_stmt 1 discriminator 3
 667 00fe 05E0     		b	.L52
 668              	.LVL81:
 669              	.L53:
 153:lib/WIFI.c    ****                 while(*p != '\0')  g_network.DNSServer[i++]  = *p++; p++; i=0; // DNS Server       
 670              		.loc 1 153 0 is_stmt 0 discriminator 2
 671 0100 0130     		adds	r0, r0, #1
 672              	.LVL82:
 673 0102 3E4B     		ldr	r3, .L63+24
 674 0104 5B18     		adds	r3, r3, r1
 675 0106 4C33     		adds	r3, r3, #76
 676 0108 1A70     		strb	r2, [r3]
 677 010a 0131     		adds	r1, r1, #1
ARM GAS  C:\Users\luvsd\AppData\Local\Temp\cc4sXGfc.s 			page 22


 678              	.LVL83:
 679              	.L52:
 153:lib/WIFI.c    ****                 while(*p != '\0')  g_network.DNSServer[i++]  = *p++; p++; i=0; // DNS Server       
 680              		.loc 1 153 0 discriminator 1
 681 010c 0278     		ldrb	r2, [r0]
 682 010e 202A     		cmp	r2, #32
 683 0110 F6D1     		bne	.L53
 153:lib/WIFI.c    ****                 while(*p != '\0')  g_network.DNSServer[i++]  = *p++; p++; i=0; // DNS Server       
 684              		.loc 1 153 0 discriminator 3
 685 0112 0130     		adds	r0, r0, #1
 686              	.LVL84:
 687 0114 0021     		movs	r1, #0
 154:lib/WIFI.c    ****                 // printNetworkInfo();                   
 688              		.loc 1 154 0 is_stmt 1 discriminator 3
 689 0116 05E0     		b	.L54
 690              	.LVL85:
 691              	.L55:
 154:lib/WIFI.c    ****                 // printNetworkInfo();                   
 692              		.loc 1 154 0 is_stmt 0 discriminator 2
 693 0118 0130     		adds	r0, r0, #1
 694              	.LVL86:
 695 011a 384B     		ldr	r3, .L63+24
 696 011c 5B18     		adds	r3, r3, r1
 697 011e 5C33     		adds	r3, r3, #92
 698 0120 1A70     		strb	r2, [r3]
 699 0122 0131     		adds	r1, r1, #1
 700              	.LVL87:
 701              	.L54:
 154:lib/WIFI.c    ****                 // printNetworkInfo();                   
 702              		.loc 1 154 0 discriminator 1
 703 0124 0278     		ldrb	r2, [r0]
 704 0126 002A     		cmp	r2, #0
 705 0128 F6D1     		bne	.L55
 706              	.LVL88:
 157:lib/WIFI.c    ****                 WIFI_CMD("AT*ICT*MIB=0"); break;
 707              		.loc 1 157 0 is_stmt 1 discriminator 3
 708 012a 2E4A     		ldr	r2, .L63
 709 012c D378     		ldrb	r3, [r2, #3]
 710 012e 0133     		adds	r3, r3, #1
 711 0130 D370     		strb	r3, [r2, #3]
 158:lib/WIFI.c    ****             }
 712              		.loc 1 158 0 discriminator 3
 713 0132 3949     		ldr	r1, .L63+52
 714 0134 3948     		ldr	r0, .L63+56
 715              	.LVL89:
 716 0136 FFF7FEFF 		bl	wifi_printf
 717              	.LVL90:
 718 013a 4FE0     		b	.L38
 719              	.L47:
 720              	.LBE8:
 160:lib/WIFI.c    ****             {
 721              		.loc 1 160 0
 722 013c 3849     		ldr	r1, .L63+60
 723 013e 2B48     		ldr	r0, .L63+8
 724 0140 FFF7FEFF 		bl	strstr
 725              	.LVL91:
 726 0144 0028     		cmp	r0, #0
ARM GAS  C:\Users\luvsd\AppData\Local\Temp\cc4sXGfc.s 			page 23


 727 0146 49D0     		beq	.L38
 728              	.LBB9:
 162:lib/WIFI.c    ****                 printf("AP Stat :");
 729              		.loc 1 162 0
 730 0148 3A21     		movs	r1, #58
 731 014a 2848     		ldr	r0, .L63+8
 732 014c FFF7FEFF 		bl	strchr
 733              	.LVL92:
 734 0150 441C     		adds	r4, r0, #1
 735              	.LVL93:
 163:lib/WIFI.c    ****                 switch(atoi(p))
 736              		.loc 1 163 0
 737 0152 3448     		ldr	r0, .L63+64
 738 0154 FFF7FEFF 		bl	printf
 739              	.LVL94:
 164:lib/WIFI.c    ****                 {
 740              		.loc 1 164 0
 741 0158 2000     		movs	r0, r4
 742 015a FFF7FEFF 		bl	atoi
 743              	.LVL95:
 744 015e 0128     		cmp	r0, #1
 745 0160 0CD0     		beq	.L56
 746 0162 02DC     		bgt	.L57
 747 0164 0028     		cmp	r0, #0
 748 0166 05D0     		beq	.L58
 749 0168 38E0     		b	.L38
 750              	.L57:
 751 016a 0228     		cmp	r0, #2
 752 016c 0AD0     		beq	.L59
 753 016e 0328     		cmp	r0, #3
 754 0170 0CD0     		beq	.L60
 755 0172 33E0     		b	.L38
 756              	.L58:
 166:lib/WIFI.c    ****                     case 1: printf("Fail\r\n"); break; 
 757              		.loc 1 166 0
 758 0174 2C48     		ldr	r0, .L63+68
 759 0176 FFF7FEFF 		bl	puts
 760              	.LVL96:
 761 017a 2FE0     		b	.L38
 762              	.L56:
 167:lib/WIFI.c    ****                     case 2: printf("AP is not found\r\n"); 
 763              		.loc 1 167 0
 764 017c 2B48     		ldr	r0, .L63+72
 765 017e FFF7FEFF 		bl	puts
 766              	.LVL97:
 767 0182 2BE0     		b	.L38
 768              	.L59:
 168:lib/WIFI.c    ****                     break;   
 769              		.loc 1 168 0
 770 0184 2A48     		ldr	r0, .L63+76
 771 0186 FFF7FEFF 		bl	puts
 772              	.LVL98:
 169:lib/WIFI.c    ****                     case 3: printf("Connecttion is restricted"); break;
 773              		.loc 1 169 0
 774 018a 27E0     		b	.L38
 775              	.L60:
 170:lib/WIFI.c    ****                 }               
ARM GAS  C:\Users\luvsd\AppData\Local\Temp\cc4sXGfc.s 			page 24


 776              		.loc 1 170 0
 777 018c 2948     		ldr	r0, .L63+80
 778 018e FFF7FEFF 		bl	printf
 779              	.LVL99:
 780 0192 23E0     		b	.L38
 781              	.LVL100:
 782              	.L42:
 783              	.LBE9:
 175:lib/WIFI.c    ****                 {
 784              		.loc 1 175 0
 785 0194 2849     		ldr	r1, .L63+84
 786 0196 1548     		ldr	r0, .L63+8
 787 0198 FFF7FEFF 		bl	strstr
 788              	.LVL101:
 789 019c 0028     		cmp	r0, #0
 790 019e 0BD0     		beq	.L61
 791              	.LBB10:
 177:lib/WIFI.c    ****                     char * p = STRSTR_WIFI_BUFFER(" "); p++;
 792              		.loc 1 177 0
 793 01a0 2648     		ldr	r0, .L63+88
 794 01a2 FFF7FEFF 		bl	puts
 795              	.LVL102:
 178:lib/WIFI.c    ****                     strcpy(g_network.SSID,p);
 796              		.loc 1 178 0
 797 01a6 2021     		movs	r1, #32
 798 01a8 1048     		ldr	r0, .L63+8
 799 01aa FFF7FEFF 		bl	strchr
 800              	.LVL103:
 801 01ae 411C     		adds	r1, r0, #1
 802              	.LVL104:
 179:lib/WIFI.c    ****                 } else
 803              		.loc 1 179 0
 804 01b0 2348     		ldr	r0, .L63+92
 805 01b2 FFF7FEFF 		bl	strcpy
 806              	.LVL105:
 807              	.LBE10:
 808 01b6 02E0     		b	.L62
 809              	.L61:
 181:lib/WIFI.c    ****                            
 810              		.loc 1 181 0
 811 01b8 2248     		ldr	r0, .L63+96
 812 01ba FFF7FEFF 		bl	puts
 813              	.LVL106:
 814              	.L62:
 183:lib/WIFI.c    ****                 
 815              		.loc 1 183 0
 816 01be 0122     		movs	r2, #1
 817 01c0 0E4B     		ldr	r3, .L63+24
 818 01c2 1A70     		strb	r2, [r3]
 185:lib/WIFI.c    ****                 resetCounter_1ms(g_index_WifiStrength);
 819              		.loc 1 185 0
 820 01c4 0220     		movs	r0, #2
 821 01c6 FFF7FEFF 		bl	wifi_cmd
 822              	.LVL107:
 186:lib/WIFI.c    ****                 
 823              		.loc 1 186 0
 824 01ca 1F4B     		ldr	r3, .L63+100
ARM GAS  C:\Users\luvsd\AppData\Local\Temp\cc4sXGfc.s 			page 25


 825 01cc 1878     		ldrb	r0, [r3]
 826 01ce FFF7FEFF 		bl	resetCounter_1ms
 827              	.LVL108:
 188:lib/WIFI.c    ****                 nLoop = 0;
 828              		.loc 1 188 0
 829 01d2 FFF7FEFF 		bl	initAndon
 830              	.LVL109:
 189:lib/WIFI.c    ****                     
 831              		.loc 1 189 0
 832 01d6 0022     		movs	r2, #0
 833 01d8 024B     		ldr	r3, .L63
 834 01da DA70     		strb	r2, [r3, #3]
 835              	.LVL110:
 836              	.L38:
 194:lib/WIFI.c    **** }
 837              		.loc 1 194 0
 838 01dc 014B     		ldr	r3, .L63
 839 01de D878     		ldrb	r0, [r3, #3]
 195:lib/WIFI.c    **** 
 840              		.loc 1 195 0
 841              		@ sp needed
 842 01e0 10BD     		pop	{r4, pc}
 843              	.L64:
 844 01e2 C046     		.align	2
 845              	.L63:
 846 01e4 00000000 		.word	.LANCHOR0
 847 01e8 84000000 		.word	.LC26
 848 01ec 00000000 		.word	g_WIFI_ReceiveBuffer
 849 01f0 88000000 		.word	.LC29
 850 01f4 98000000 		.word	.LC31
 851 01f8 A8000000 		.word	.LC33
 852 01fc 00000000 		.word	g_network
 853 0200 C0000000 		.word	.LC36
 854 0204 CC000000 		.word	.LC38
 855 0208 00000000 		.word	g_index_Wifi_Test
 856 020c E0000000 		.word	.LC41
 857 0210 FC000000 		.word	.LC43
 858 0214 10010000 		.word	.LC45
 859 0218 24010000 		.word	.LC47
 860 021c 24000000 		.word	.LC11
 861 0220 34010000 		.word	.LC50
 862 0224 44010000 		.word	.LC52
 863 0228 50010000 		.word	.LC54
 864 022c 5C010000 		.word	.LC56
 865 0230 64010000 		.word	.LC58
 866 0234 78010000 		.word	.LC60
 867 0238 94010000 		.word	.LC62
 868 023c A0010000 		.word	.LC64
 869 0240 04000000 		.word	g_network+4
 870 0244 B8010000 		.word	.LC67
 871 0248 00000000 		.word	g_index_WifiStrength
 872              		.cfi_endproc
 873              	.LFE64:
 874              		.size	wifiConnectAP, .-wifiConnectAP
 875              		.section	.text.wifi_cmd_http,"ax",%progbits
 876              		.align	2
 877              		.global	wifi_cmd_http
ARM GAS  C:\Users\luvsd\AppData\Local\Temp\cc4sXGfc.s 			page 26


 878              		.code	16
 879              		.thumb_func
 880              		.type	wifi_cmd_http, %function
 881              	wifi_cmd_http:
 882              	.LFB68:
 251:lib/WIFI.c    ****     /* host = "192.168.38.72/2025/sci/new" ĒśĢņŗØ
 883              		.loc 1 251 0
 884              		.cfi_startproc
 885              		@ args = 0, pretend = 0, frame = 64
 886              		@ frame_needed = 0, uses_anonymous_args = 0
 887              	.LVL111:
 888 0000 F0B5     		push	{r4, r5, r6, r7, lr}
 889              		.cfi_def_cfa_offset 20
 890              		.cfi_offset 4, -20
 891              		.cfi_offset 5, -16
 892              		.cfi_offset 6, -12
 893              		.cfi_offset 7, -8
 894              		.cfi_offset 14, -4
 895 0002 93B0     		sub	sp, sp, #76
 896              		.cfi_def_cfa_offset 96
 897 0004 0390     		str	r0, [sp, #12]
 898              	.LVL112:
 257:lib/WIFI.c    ****     if(slash != NULL) {
 899              		.loc 1 257 0
 900 0006 204B     		ldr	r3, .L68
 901 0008 1D68     		ldr	r5, [r3]
 902 000a 2F21     		movs	r1, #47
 903 000c 2800     		movs	r0, r5
 904              	.LVL113:
 905 000e FFF7FEFF 		bl	strchr
 906              	.LVL114:
 907 0012 041E     		subs	r4, r0, #0
 908              	.LVL115:
 258:lib/WIFI.c    ****         int ipLen = (int)(slash - g_ptrServer->host);
 909              		.loc 1 258 0
 910 0014 09D0     		beq	.L66
 911              	.LBB11:
 259:lib/WIFI.c    ****         strncpy(ipPart, g_ptrServer->host, ipLen);
 912              		.loc 1 259 0
 913 0016 471B     		subs	r7, r0, r5
 914              	.LVL116:
 260:lib/WIFI.c    ****         ipPart[ipLen] = '\0';
 915              		.loc 1 260 0
 916 0018 05AE     		add	r6, sp, #20
 917 001a 3A00     		movs	r2, r7
 918 001c 2900     		movs	r1, r5
 919 001e 3000     		movs	r0, r6
 920              	.LVL117:
 921 0020 FFF7FEFF 		bl	strncpy
 922              	.LVL118:
 261:lib/WIFI.c    ****         pathPart = slash;
 923              		.loc 1 261 0
 924 0024 0023     		movs	r3, #0
 925 0026 F355     		strb	r3, [r6, r7]
 926              	.LVL119:
 927              	.LBE11:
 928 0028 09E0     		b	.L67
ARM GAS  C:\Users\luvsd\AppData\Local\Temp\cc4sXGfc.s 			page 27


 929              	.LVL120:
 930              	.L66:
 264:lib/WIFI.c    ****         ipPart[sizeof(ipPart) - 1] = '\0';
 931              		.loc 1 264 0
 932 002a 05AC     		add	r4, sp, #20
 933 002c 3122     		movs	r2, #49
 934 002e 2900     		movs	r1, r5
 935 0030 2000     		movs	r0, r4
 936              	.LVL121:
 937 0032 FFF7FEFF 		bl	strncpy
 938              	.LVL122:
 265:lib/WIFI.c    ****     }
 939              		.loc 1 265 0
 940 0036 0022     		movs	r2, #0
 941 0038 3123     		movs	r3, #49
 942 003a E254     		strb	r2, [r4, r3]
 256:lib/WIFI.c    ****     char *slash = strchr(g_ptrServer->host, '/');
 943              		.loc 1 256 0
 944 003c 134C     		ldr	r4, .L68+4
 945              	.LVL123:
 946              	.L67:
 268:lib/WIFI.c    ****     printf("AT*ICT*HTTPGET=http://%s:%d%s%s\r\n",      ipPart, g_ptrServer->port, pathPart, url_enc
 947              		.loc 1 268 0
 948 003e 124F     		ldr	r7, .L68
 949 0040 3B68     		ldr	r3, [r7]
 950 0042 5E8E     		ldrh	r6, [r3, #50]
 951 0044 0398     		ldr	r0, [sp, #12]
 952 0046 FFF7FEFF 		bl	url_encode
 953              	.LVL124:
 954 004a 114D     		ldr	r5, .L68+8
 955 004c 0090     		str	r0, [sp]
 956 004e 2300     		movs	r3, r4
 957 0050 3200     		movs	r2, r6
 958 0052 05A9     		add	r1, sp, #20
 959 0054 2800     		movs	r0, r5
 960 0056 FFF7FEFF 		bl	wifi_printf
 961              	.LVL125:
 269:lib/WIFI.c    **** 
 962              		.loc 1 269 0
 963 005a 3B68     		ldr	r3, [r7]
 964 005c 5F8E     		ldrh	r7, [r3, #50]
 965 005e 0398     		ldr	r0, [sp, #12]
 966 0060 FFF7FEFF 		bl	url_encode
 967              	.LVL126:
 968 0064 0090     		str	r0, [sp]
 969 0066 2300     		movs	r3, r4
 970 0068 3A00     		movs	r2, r7
 971 006a 05A9     		add	r1, sp, #20
 972 006c 2800     		movs	r0, r5
 973 006e FFF7FEFF 		bl	printf
 974              	.LVL127:
 271:lib/WIFI.c    **** 
 975              		.loc 1 271 0
 976 0072 0522     		movs	r2, #5
 977 0074 074B     		ldr	r3, .L68+12
 978 0076 9A70     		strb	r2, [r3, #2]
 273:lib/WIFI.c    **** }
ARM GAS  C:\Users\luvsd\AppData\Local\Temp\cc4sXGfc.s 			page 28


 979              		.loc 1 273 0
 980 0078 074B     		ldr	r3, .L68+16
 981 007a 1878     		ldrb	r0, [r3]
 982 007c 0749     		ldr	r1, .L68+20
 983 007e FFF7FEFF 		bl	setCountMax_1ms
 984              	.LVL128:
 274:lib/WIFI.c    **** 
 985              		.loc 1 274 0
 986 0082 13B0     		add	sp, sp, #76
 987              		@ sp needed
 988              	.LVL129:
 989 0084 F0BD     		pop	{r4, r5, r6, r7, pc}
 990              	.L69:
 991 0086 C046     		.align	2
 992              	.L68:
 993 0088 00000000 		.word	g_ptrServer
 994 008c DC010000 		.word	.LC70
 995 0090 E0010000 		.word	.LC73
 996 0094 00000000 		.word	.LANCHOR0
 997 0098 00000000 		.word	g_index_Wifi_Test
 998 009c 88130000 		.word	5000
 999              		.cfi_endproc
 1000              	.LFE68:
 1001              		.size	wifi_cmd_http, .-wifi_cmd_http
 1002              		.section	.text.clearWifiBuffer,"ax",%progbits
 1003              		.align	2
 1004              		.global	clearWifiBuffer
 1005              		.code	16
 1006              		.thumb_func
 1007              		.type	clearWifiBuffer, %function
 1008              	clearWifiBuffer:
 1009              	.LFB71:
 470:lib/WIFI.c    **** 
 471:lib/WIFI.c    **** void clearWifiBuffer() { g_size_WIFI_ReceiveBuffer = 0; }
 1010              		.loc 1 471 0
 1011              		.cfi_startproc
 1012              		@ args = 0, pretend = 0, frame = 0
 1013              		@ frame_needed = 0, uses_anonymous_args = 0
 1014              		@ link register save eliminated.
 1015              		.loc 1 471 0
 1016 0000 0022     		movs	r2, #0
 1017 0002 014B     		ldr	r3, .L71
 1018 0004 1A80     		strh	r2, [r3]
 1019              		@ sp needed
 1020 0006 7047     		bx	lr
 1021              	.L72:
 1022              		.align	2
 1023              	.L71:
 1024 0008 00000000 		.word	.LANCHOR0
 1025              		.cfi_endproc
 1026              	.LFE71:
 1027              		.size	clearWifiBuffer, .-clearWifiBuffer
 1028              		.section	.text.printWifiBuffer,"ax",%progbits
 1029              		.align	2
 1030              		.global	printWifiBuffer
 1031              		.code	16
 1032              		.thumb_func
ARM GAS  C:\Users\luvsd\AppData\Local\Temp\cc4sXGfc.s 			page 29


 1033              		.type	printWifiBuffer, %function
 1034              	printWifiBuffer:
 1035              	.LFB72:
 472:lib/WIFI.c    **** 
 473:lib/WIFI.c    **** 
 474:lib/WIFI.c    **** void printWifiBuffer()
 475:lib/WIFI.c    **** {
 1036              		.loc 1 475 0
 1037              		.cfi_startproc
 1038              		@ args = 0, pretend = 0, frame = 0
 1039              		@ frame_needed = 0, uses_anonymous_args = 0
 1040 0000 10B5     		push	{r4, lr}
 1041              		.cfi_def_cfa_offset 8
 1042              		.cfi_offset 4, -8
 1043              		.cfi_offset 14, -4
 476:lib/WIFI.c    ****     if(g_size_WIFI_ReceiveBuffer >0 ) printf("[->]%s[<-]\r\n",g_WIFI_ReceiveBuffer);
 1044              		.loc 1 476 0
 1045 0002 044B     		ldr	r3, .L75
 1046 0004 1B88     		ldrh	r3, [r3]
 1047 0006 002B     		cmp	r3, #0
 1048 0008 03D0     		beq	.L73
 1049              		.loc 1 476 0 is_stmt 0 discriminator 1
 1050 000a 0349     		ldr	r1, .L75+4
 1051 000c 0348     		ldr	r0, .L75+8
 1052 000e FFF7FEFF 		bl	printf
 1053              	.LVL130:
 1054              	.L73:
 477:lib/WIFI.c    **** }
 1055              		.loc 1 477 0 is_stmt 1
 1056              		@ sp needed
 1057 0012 10BD     		pop	{r4, pc}
 1058              	.L76:
 1059              		.align	2
 1060              	.L75:
 1061 0014 00000000 		.word	.LANCHOR0
 1062 0018 00000000 		.word	g_WIFI_ReceiveBuffer
 1063 001c 04020000 		.word	.LC80
 1064              		.cfi_endproc
 1065              	.LFE72:
 1066              		.size	printWifiBuffer, .-printWifiBuffer
 1067              		.section	.text.printNetworkInfo,"ax",%progbits
 1068              		.align	2
 1069              		.global	printNetworkInfo
 1070              		.code	16
 1071              		.thumb_func
 1072              		.type	printNetworkInfo, %function
 1073              	printNetworkInfo:
 1074              	.LFB73:
 478:lib/WIFI.c    **** 
 479:lib/WIFI.c    **** void printNetworkInfo()
 480:lib/WIFI.c    **** {                                
 1075              		.loc 1 480 0
 1076              		.cfi_startproc
 1077              		@ args = 0, pretend = 0, frame = 0
 1078              		@ frame_needed = 0, uses_anonymous_args = 0
 1079 0000 10B5     		push	{r4, lr}
 1080              		.cfi_def_cfa_offset 8
ARM GAS  C:\Users\luvsd\AppData\Local\Temp\cc4sXGfc.s 			page 30


 1081              		.cfi_offset 4, -8
 1082              		.cfi_offset 14, -4
 481:lib/WIFI.c    ****     printf("IPv4        : %s\r\n",g_network.IPv4);
 1083              		.loc 1 481 0
 1084 0002 0D4C     		ldr	r4, .L78
 1085 0004 2100     		movs	r1, r4
 1086 0006 0D48     		ldr	r0, .L78+4
 1087 0008 FFF7FEFF 		bl	printf
 1088              	.LVL131:
 482:lib/WIFI.c    ****     printf("Subnet Mask : %s\r\n",g_network.SubnetMask);
 1089              		.loc 1 482 0
 1090 000c 2100     		movs	r1, r4
 1091 000e 1031     		adds	r1, r1, #16
 1092 0010 0B48     		ldr	r0, .L78+8
 1093 0012 FFF7FEFF 		bl	printf
 1094              	.LVL132:
 483:lib/WIFI.c    ****     printf("Gateway     : %s\r\n",g_network.Gateway);
 1095              		.loc 1 483 0
 1096 0016 2100     		movs	r1, r4
 1097 0018 2031     		adds	r1, r1, #32
 1098 001a 0A48     		ldr	r0, .L78+12
 1099 001c FFF7FEFF 		bl	printf
 1100              	.LVL133:
 484:lib/WIFI.c    ****     printf("DNS Server  : %s\r\n",g_network.DNSServer);
 1101              		.loc 1 484 0
 1102 0020 2100     		movs	r1, r4
 1103 0022 3031     		adds	r1, r1, #48
 1104 0024 0848     		ldr	r0, .L78+16
 1105 0026 FFF7FEFF 		bl	printf
 1106              	.LVL134:
 485:lib/WIFI.c    ****     printf("MAC Address : %s\r\n",g_network.MAC); 
 1107              		.loc 1 485 0
 1108 002a 2100     		movs	r1, r4
 1109 002c 4031     		adds	r1, r1, #64
 1110 002e 0748     		ldr	r0, .L78+20
 1111 0030 FFF7FEFF 		bl	printf
 1112              	.LVL135:
 486:lib/WIFI.c    **** }
 1113              		.loc 1 486 0
 1114              		@ sp needed
 1115 0034 10BD     		pop	{r4, pc}
 1116              	.L79:
 1117 0036 C046     		.align	2
 1118              	.L78:
 1119 0038 2C000000 		.word	g_network+44
 1120 003c 14020000 		.word	.LC83
 1121 0040 28020000 		.word	.LC86
 1122 0044 3C020000 		.word	.LC89
 1123 0048 50020000 		.word	.LC92
 1124 004c 64020000 		.word	.LC95
 1125              		.cfi_endproc
 1126              	.LFE73:
 1127              		.size	printNetworkInfo, .-printNetworkInfo
 1128              		.section	.text.appendAP,"ax",%progbits
 1129              		.align	2
 1130              		.global	appendAP
 1131              		.code	16
ARM GAS  C:\Users\luvsd\AppData\Local\Temp\cc4sXGfc.s 			page 31


 1132              		.thumb_func
 1133              		.type	appendAP, %function
 1134              	appendAP:
 1135              	.LFB74:
 487:lib/WIFI.c    **** 
 488:lib/WIFI.c    **** void appendAP(char *str)
 489:lib/WIFI.c    **** {
 1136              		.loc 1 489 0
 1137              		.cfi_startproc
 1138              		@ args = 0, pretend = 0, frame = 0
 1139              		@ frame_needed = 0, uses_anonymous_args = 0
 1140              	.LVL136:
 1141 0000 70B5     		push	{r4, r5, r6, lr}
 1142              		.cfi_def_cfa_offset 16
 1143              		.cfi_offset 4, -16
 1144              		.cfi_offset 5, -12
 1145              		.cfi_offset 6, -8
 1146              		.cfi_offset 14, -4
 1147              	.LVL137:
 490:lib/WIFI.c    ****     char *ptr = str;
 491:lib/WIFI.c    ****     
 492:lib/WIFI.c    ****     if(ptr[0] == ' ') return; // SSIDĻ░Ć ņŚåļŖö Ļ▓ĮņÜ░Ļ░Ć ņ×łļŗż.
 1148              		.loc 1 492 0
 1149 0002 0378     		ldrb	r3, [r0]
 1150 0004 202B     		cmp	r3, #32
 1151 0006 58D0     		beq	.L80
 493:lib/WIFI.c    ****  
 494:lib/WIFI.c    ****     if(g_SizeOfAPs > MAX_NO_OF_ACCESS_POINT - 2) return;
 1152              		.loc 1 494 0
 1153 0008 2C4B     		ldr	r3, .L94
 1154 000a 1C88     		ldrh	r4, [r3]
 1155 000c 082C     		cmp	r4, #8
 1156 000e 54D8     		bhi	.L80
 1157              	.LVL138:
 495:lib/WIFI.c    ****     
 496:lib/WIFI.c    ****     int i=0;
 497:lib/WIFI.c    ****     ACCESS_POINT *ptrAP = &g_APs[g_SizeOfAPs++];
 1158              		.loc 1 497 0
 1159 0010 631C     		adds	r3, r4, #1
 1160 0012 2A4A     		ldr	r2, .L94
 1161 0014 1380     		strh	r3, [r2]
 1162 0016 2100     		movs	r1, r4
 1163              	.LVL139:
 496:lib/WIFI.c    ****     ACCESS_POINT *ptrAP = &g_APs[g_SizeOfAPs++];
 1164              		.loc 1 496 0
 1165 0018 0025     		movs	r5, #0
 498:lib/WIFI.c    **** 
 499:lib/WIFI.c    ****     // get SSID /////////////////////////////////
 500:lib/WIFI.c    ****     //while(*ptr != ' ') ptrAP->SSID[i++] = *ptr++;
 501:lib/WIFI.c    ****     //ptrAP->SSID[i] = 0;
 502:lib/WIFI.c    ****     while(*ptr != ':') ptrAP->SSID[i++] = *ptr++;
 1166              		.loc 1 502 0
 1167 001a 08E0     		b	.L82
 1168              	.LVL140:
 1169              	.L83:
 1170              		.loc 1 502 0 is_stmt 0 discriminator 2
 1171 001c 0130     		adds	r0, r0, #1
ARM GAS  C:\Users\luvsd\AppData\Local\Temp\cc4sXGfc.s 			page 32


 1172              	.LVL141:
 1173 001e 0A01     		lsls	r2, r1, #4
 1174 0020 521A     		subs	r2, r2, r1
 1175 0022 9300     		lsls	r3, r2, #2
 1176 0024 264A     		ldr	r2, .L94+4
 1177 0026 D318     		adds	r3, r2, r3
 1178 0028 5B19     		adds	r3, r3, r5
 1179 002a 9E70     		strb	r6, [r3, #2]
 1180 002c 0135     		adds	r5, r5, #1
 1181              	.LVL142:
 1182              	.L82:
 1183              		.loc 1 502 0 discriminator 1
 1184 002e 0678     		ldrb	r6, [r0]
 1185 0030 3A2E     		cmp	r6, #58
 1186 0032 F3D1     		bne	.L83
 503:lib/WIFI.c    ****     ptrAP->SSID[i-3] = 0;
 1187              		.loc 1 503 0 is_stmt 1
 1188 0034 033D     		subs	r5, r5, #3
 1189              	.LVL143:
 1190 0036 2201     		lsls	r2, r4, #4
 1191 0038 121B     		subs	r2, r2, r4
 1192 003a 9300     		lsls	r3, r2, #2
 1193 003c 204A     		ldr	r2, .L94+4
 1194 003e D318     		adds	r3, r2, r3
 1195 0040 5D19     		adds	r5, r3, r5
 1196              	.LVL144:
 1197 0042 0022     		movs	r2, #0
 1198 0044 AA70     		strb	r2, [r5, #2]
 504:lib/WIFI.c    ****     ptrAP->SSID[MAX_STRING_SSID-1] = 0;
 1199              		.loc 1 504 0
 1200 0046 2933     		adds	r3, r3, #41
 1201 0048 1A70     		strb	r2, [r3]
 505:lib/WIFI.c    ****  
 506:lib/WIFI.c    ****     // get MAC Address /////////////////////////
 507:lib/WIFI.c    ****     while(*ptr != ':') ptr++; // ':'ņØä ļ©╝ņĀĆ ņ░ŠĻ│Ā ņĢ×ņ£╝ļĪ£ 2ņ×É ņØ┤ļÅÖĒĢ£ļŗż.
 1202              		.loc 1 507 0
 1203 004a 00E0     		b	.L84
 1204              	.L85:
 1205              		.loc 1 507 0 is_stmt 0 discriminator 2
 1206 004c 0130     		adds	r0, r0, #1
 1207              	.LVL145:
 1208              	.L84:
 1209              		.loc 1 507 0 discriminator 1
 1210 004e 0378     		ldrb	r3, [r0]
 1211 0050 3A2B     		cmp	r3, #58
 1212 0052 FBD1     		bne	.L85
 1213              	.LVL146:
 508:lib/WIFI.c    ****     ptr--;
 509:lib/WIFI.c    ****     ptr--;    
 1214              		.loc 1 509 0 is_stmt 1
 1215 0054 0238     		subs	r0, r0, #2
 1216              	.LVL147:
 510:lib/WIFI.c    ****  
 511:lib/WIFI.c    ****     i=0;   
 1217              		.loc 1 511 0
 1218 0056 0025     		movs	r5, #0
 512:lib/WIFI.c    ****     while(*ptr != ' ') ptrAP->MAC[i++] = *ptr++;
ARM GAS  C:\Users\luvsd\AppData\Local\Temp\cc4sXGfc.s 			page 33


 1219              		.loc 1 512 0
 1220 0058 09E0     		b	.L86
 1221              	.LVL148:
 1222              	.L87:
 1223              		.loc 1 512 0 is_stmt 0 discriminator 2
 1224 005a 0130     		adds	r0, r0, #1
 1225              	.LVL149:
 1226 005c 0A01     		lsls	r2, r1, #4
 1227 005e 521A     		subs	r2, r2, r1
 1228 0060 9300     		lsls	r3, r2, #2
 1229 0062 174A     		ldr	r2, .L94+4
 1230 0064 D318     		adds	r3, r2, r3
 1231 0066 5B19     		adds	r3, r3, r5
 1232 0068 2A33     		adds	r3, r3, #42
 1233 006a 1E70     		strb	r6, [r3]
 1234 006c 0135     		adds	r5, r5, #1
 1235              	.LVL150:
 1236              	.L86:
 1237              		.loc 1 512 0 discriminator 1
 1238 006e 0678     		ldrb	r6, [r0]
 1239 0070 202E     		cmp	r6, #32
 1240 0072 F2D1     		bne	.L87
 513:lib/WIFI.c    ****     ptrAP->MAC[i] = 0;
 1241              		.loc 1 513 0 is_stmt 1
 1242 0074 2201     		lsls	r2, r4, #4
 1243 0076 121B     		subs	r2, r2, r4
 1244 0078 9300     		lsls	r3, r2, #2
 1245 007a 114A     		ldr	r2, .L94+4
 1246 007c D318     		adds	r3, r2, r3
 1247 007e 5D19     		adds	r5, r3, r5
 1248              	.LVL151:
 1249 0080 2A35     		adds	r5, r5, #42
 1250 0082 0023     		movs	r3, #0
 1251 0084 2B70     		strb	r3, [r5]
 514:lib/WIFI.c    ****     
 515:lib/WIFI.c    ****     // Skip 
 516:lib/WIFI.c    ****     ptr++;    
 1252              		.loc 1 516 0
 1253 0086 0130     		adds	r0, r0, #1
 1254              	.LVL152:
 517:lib/WIFI.c    ****     while(*ptr != ' ') ptr++;
 1255              		.loc 1 517 0
 1256 0088 00E0     		b	.L88
 1257              	.L89:
 1258              		.loc 1 517 0 is_stmt 0 discriminator 2
 1259 008a 0130     		adds	r0, r0, #1
 1260              	.LVL153:
 1261              	.L88:
 1262              		.loc 1 517 0 discriminator 1
 1263 008c 0378     		ldrb	r3, [r0]
 1264 008e 202B     		cmp	r3, #32
 1265 0090 FBD1     		bne	.L89
 518:lib/WIFI.c    ****     // Skip  
 519:lib/WIFI.c    ****     ptr++;    
 1266              		.loc 1 519 0 is_stmt 1
 1267 0092 0130     		adds	r0, r0, #1
 1268              	.LVL154:
ARM GAS  C:\Users\luvsd\AppData\Local\Temp\cc4sXGfc.s 			page 34


 520:lib/WIFI.c    ****     while(*ptr != ' ') ptr++;
 1269              		.loc 1 520 0
 1270 0094 00E0     		b	.L90
 1271              	.L91:
 1272              		.loc 1 520 0 is_stmt 0 discriminator 2
 1273 0096 0130     		adds	r0, r0, #1
 1274              	.LVL155:
 1275              	.L90:
 1276              		.loc 1 520 0 discriminator 1
 1277 0098 0378     		ldrb	r3, [r0]
 1278 009a 202B     		cmp	r3, #32
 1279 009c FBD1     		bne	.L91
 521:lib/WIFI.c    ****     // Skip     
 522:lib/WIFI.c    ****     ptr++;    
 1280              		.loc 1 522 0 is_stmt 1
 1281 009e 0130     		adds	r0, r0, #1
 1282              	.LVL156:
 523:lib/WIFI.c    ****     while(*ptr != ' ') ptr++;
 1283              		.loc 1 523 0
 1284 00a0 00E0     		b	.L92
 1285              	.L93:
 1286              		.loc 1 523 0 is_stmt 0 discriminator 2
 1287 00a2 0130     		adds	r0, r0, #1
 1288              	.LVL157:
 1289              	.L92:
 1290              		.loc 1 523 0 discriminator 1
 1291 00a4 0378     		ldrb	r3, [r0]
 1292 00a6 202B     		cmp	r3, #32
 1293 00a8 FBD1     		bne	.L93
 524:lib/WIFI.c    ****  
 525:lib/WIFI.c    ****     // get MAC Address /////////////////////////    
 526:lib/WIFI.c    ****     ptr++;
 1294              		.loc 1 526 0 is_stmt 1
 1295 00aa 0130     		adds	r0, r0, #1
 1296              	.LVL158:
 527:lib/WIFI.c    ****     ptrAP->RSSI = atoi(ptr);    
 1297              		.loc 1 527 0
 1298 00ac FFF7FEFF 		bl	atoi
 1299              	.LVL159:
 1300 00b0 2301     		lsls	r3, r4, #4
 1301 00b2 1C1B     		subs	r4, r3, r4
 1302              	.LVL160:
 1303 00b4 A300     		lsls	r3, r4, #2
 1304 00b6 024A     		ldr	r2, .L94+4
 1305 00b8 9852     		strh	r0, [r3, r2]
 1306              	.L80:
 528:lib/WIFI.c    ****     
 529:lib/WIFI.c    ****     // printf(">%s %s %d\r\n",ptrAP->SSID, ptrAP->MAC, ptrAP->RSSI);
 530:lib/WIFI.c    **** }
 1307              		.loc 1 530 0
 1308              		@ sp needed
 1309 00ba 70BD     		pop	{r4, r5, r6, pc}
 1310              	.L95:
 1311              		.align	2
 1312              	.L94:
 1313 00bc 00000000 		.word	g_SizeOfAPs
 1314 00c0 00000000 		.word	g_APs
ARM GAS  C:\Users\luvsd\AppData\Local\Temp\cc4sXGfc.s 			page 35


 1315              		.cfi_endproc
 1316              	.LFE74:
 1317              		.size	appendAP, .-appendAP
 1318              		.section	.text.wifi_get_response,"ax",%progbits
 1319              		.align	2
 1320              		.global	wifi_get_response
 1321              		.code	16
 1322              		.thumb_func
 1323              		.type	wifi_get_response, %function
 1324              	wifi_get_response:
 1325              	.LFB69:
 277:lib/WIFI.c    ****     int i=0;
 1326              		.loc 1 277 0
 1327              		.cfi_startproc
 1328              		@ args = 0, pretend = 0, frame = 0
 1329              		@ frame_needed = 0, uses_anonymous_args = 0
 1330 0000 10B5     		push	{r4, lr}
 1331              		.cfi_def_cfa_offset 8
 1332              		.cfi_offset 4, -8
 1333              		.cfi_offset 14, -4
 1334              	.LVL161:
 281:lib/WIFI.c    **** 
 1335              		.loc 1 281 0
 1336 0002 9B4C     		ldr	r4, .L124
 1337 0004 A278     		ldrb	r2, [r4, #2]
 1338 0006 9B49     		ldr	r1, .L124+4
 1339 0008 9B48     		ldr	r0, .L124+8
 1340 000a FFF7FEFF 		bl	printf
 1341              	.LVL162:
 291:lib/WIFI.c    ****     {
 1342              		.loc 1 291 0
 1343 000e A478     		ldrb	r4, [r4, #2]
 1344 0010 002C     		cmp	r4, #0
 1345 0012 01D0     		beq	.L97
 291:lib/WIFI.c    ****     {
 1346              		.loc 1 291 0 is_stmt 0 discriminator 2
 1347 0014 052C     		cmp	r4, #5
 1348 0016 11D1     		bne	.L98
 1349              	.L97:
 291:lib/WIFI.c    ****     {
 1350              		.loc 1 291 0 discriminator 3
 1351 0018 9849     		ldr	r1, .L124+12
 1352 001a 9648     		ldr	r0, .L124+4
 1353 001c FFF7FEFF 		bl	strstr
 1354              	.LVL163:
 1355 0020 0028     		cmp	r0, #0
 1356 0022 0BD0     		beq	.L98
 293:lib/WIFI.c    ****         g_network.RSSI = atoi(p);
 1357              		.loc 1 293 0 is_stmt 1
 1358 0024 2021     		movs	r1, #32
 1359 0026 9348     		ldr	r0, .L124+4
 1360 0028 FFF7FEFF 		bl	strchr
 1361              	.LVL164:
 1362 002c 0130     		adds	r0, r0, #1
 1363              	.LVL165:
 294:lib/WIFI.c    ****         DrawWifi();
 1364              		.loc 1 294 0
ARM GAS  C:\Users\luvsd\AppData\Local\Temp\cc4sXGfc.s 			page 36


 1365 002e FFF7FEFF 		bl	atoi
 1366              	.LVL166:
 1367 0032 934B     		ldr	r3, .L124+16
 1368 0034 5880     		strh	r0, [r3, #2]
 295:lib/WIFI.c    ****         return;
 1369              		.loc 1 295 0
 1370 0036 FFF7FEFF 		bl	DrawWifi
 1371              	.LVL167:
 296:lib/WIFI.c    ****     }
 1372              		.loc 1 296 0
 1373 003a 17E1     		b	.L96
 1374              	.LVL168:
 1375              	.L98:
 299:lib/WIFI.c    ****     {
 1376              		.loc 1 299 0
 1377 003c 082C     		cmp	r4, #8
 1378 003e 00D9     		bls	.LCB1361
 1379 0040 14E1     		b	.L96	@long jump
 1380              	.LCB1361:
 1381 0042 A400     		lsls	r4, r4, #2
 1382 0044 8F4B     		ldr	r3, .L124+20
 1383 0046 1B59     		ldr	r3, [r3, r4]
 1384 0048 9F46     		mov	pc, r3
 1385              		.section	.rodata
 1386              		.align	2
 1387              	.L101:
 1388 0024 6C020000 		.word	.L96
 1389 0028 4A000000 		.word	.L100
 1390 002c 86000000 		.word	.L102
 1391 0030 B8000000 		.word	.L103
 1392 0034 28010000 		.word	.L104
 1393 0038 DA010000 		.word	.L105
 1394 003c 6C020000 		.word	.L96
 1395 0040 08010000 		.word	.L106
 1396 0044 A8010000 		.word	.L107
 1397              		.section	.text.wifi_get_response
 1398              	.L100:
 305:lib/WIFI.c    ****             {
 1399              		.loc 1 305 0
 1400 004a 8F49     		ldr	r1, .L124+24
 1401 004c 8948     		ldr	r0, .L124+4
 1402 004e FFF7FEFF 		bl	strstr
 1403              	.LVL169:
 1404 0052 0028     		cmp	r0, #0
 1405 0054 10D0     		beq	.L108
 307:lib/WIFI.c    ****                 while(*p != '\0')  g_network.MAC[i++]  = *p++;   
 1406              		.loc 1 307 0
 1407 0056 2021     		movs	r1, #32
 1408 0058 8648     		ldr	r0, .L124+4
 1409 005a FFF7FEFF 		bl	strchr
 1410              	.LVL170:
 1411 005e 0130     		adds	r0, r0, #1
 1412              	.LVL171:
 278:lib/WIFI.c    ****     char *p = NULL;
 1413              		.loc 1 278 0
 1414 0060 0021     		movs	r1, #0
 308:lib/WIFI.c    ****                 
ARM GAS  C:\Users\luvsd\AppData\Local\Temp\cc4sXGfc.s 			page 37


 1415              		.loc 1 308 0
 1416 0062 05E0     		b	.L109
 1417              	.LVL172:
 1418              	.L110:
 308:lib/WIFI.c    ****                 
 1419              		.loc 1 308 0 is_stmt 0 discriminator 2
 1420 0064 0130     		adds	r0, r0, #1
 1421              	.LVL173:
 1422 0066 864B     		ldr	r3, .L124+16
 1423 0068 5B18     		adds	r3, r3, r1
 1424 006a 6C33     		adds	r3, r3, #108
 1425 006c 1A70     		strb	r2, [r3]
 1426 006e 0131     		adds	r1, r1, #1
 1427              	.LVL174:
 1428              	.L109:
 308:lib/WIFI.c    ****                 
 1429              		.loc 1 308 0 discriminator 1
 1430 0070 0278     		ldrb	r2, [r0]
 1431 0072 002A     		cmp	r2, #0
 1432 0074 F6D1     		bne	.L110
 1433 0076 02E0     		b	.L111
 1434              	.LVL175:
 1435              	.L108:
 312:lib/WIFI.c    ****             
 1436              		.loc 1 312 0 is_stmt 1
 1437 0078 8448     		ldr	r0, .L124+28
 1438 007a FFF7FEFF 		bl	puts
 1439              	.LVL176:
 1440              	.L111:
 314:lib/WIFI.c    ****         }
 1441              		.loc 1 314 0
 1442 007e 0022     		movs	r2, #0
 1443 0080 7B4B     		ldr	r3, .L124
 1444 0082 9A70     		strb	r2, [r3, #2]
 316:lib/WIFI.c    ****         
 1445              		.loc 1 316 0
 1446 0084 F2E0     		b	.L96
 1447              	.LVL177:
 1448              	.L102:
 320:lib/WIFI.c    ****             {
 1449              		.loc 1 320 0
 1450 0086 7D49     		ldr	r1, .L124+12
 1451 0088 7A48     		ldr	r0, .L124+4
 1452 008a FFF7FEFF 		bl	strstr
 1453              	.LVL178:
 1454 008e 0028     		cmp	r0, #0
 1455 0090 0BD0     		beq	.L112
 322:lib/WIFI.c    ****                 g_network.RSSI = atoi(p);
 1456              		.loc 1 322 0
 1457 0092 2021     		movs	r1, #32
 1458 0094 7748     		ldr	r0, .L124+4
 1459 0096 FFF7FEFF 		bl	strchr
 1460              	.LVL179:
 1461 009a 0130     		adds	r0, r0, #1
 1462              	.LVL180:
 323:lib/WIFI.c    ****                 DrawWifi();
 1463              		.loc 1 323 0
ARM GAS  C:\Users\luvsd\AppData\Local\Temp\cc4sXGfc.s 			page 38


 1464 009c FFF7FEFF 		bl	atoi
 1465              	.LVL181:
 1466 00a0 774B     		ldr	r3, .L124+16
 1467 00a2 5880     		strh	r0, [r3, #2]
 324:lib/WIFI.c    ****             } else
 1468              		.loc 1 324 0
 1469 00a4 FFF7FEFF 		bl	DrawWifi
 1470              	.LVL182:
 1471 00a8 02E0     		b	.L113
 1472              	.LVL183:
 1473              	.L112:
 326:lib/WIFI.c    **** 
 1474              		.loc 1 326 0
 1475 00aa 7948     		ldr	r0, .L124+32
 1476 00ac FFF7FEFF 		bl	puts
 1477              	.LVL184:
 1478              	.L113:
 328:lib/WIFI.c    ****         break;
 1479              		.loc 1 328 0
 1480 00b0 0022     		movs	r2, #0
 1481 00b2 6F4B     		ldr	r3, .L124
 1482 00b4 9A70     		strb	r2, [r3, #2]
 329:lib/WIFI.c    ****                     
 1483              		.loc 1 329 0
 1484 00b6 D9E0     		b	.L96
 1485              	.LVL185:
 1486              	.L103:
 333:lib/WIFI.c    ****             if(STRSTR_WIFI_BUFFER("ICT*SCAN:OK") != NULL)
 1487              		.loc 1 333 0
 1488 00b8 FFF7FEFF 		bl	printWifiBuffer
 1489              	.LVL186:
 334:lib/WIFI.c    ****             {
 1490              		.loc 1 334 0
 1491 00bc 7549     		ldr	r1, .L124+36
 1492 00be 6D48     		ldr	r0, .L124+4
 1493 00c0 FFF7FEFF 		bl	strstr
 1494              	.LVL187:
 1495 00c4 0028     		cmp	r0, #0
 1496 00c6 03D0     		beq	.L114
 336:lib/WIFI.c    ****             }
 1497              		.loc 1 336 0
 1498 00c8 0022     		movs	r2, #0
 1499 00ca 734B     		ldr	r3, .L124+40
 1500 00cc 1A80     		strh	r2, [r3]
 1501 00ce CDE0     		b	.L96
 1502              	.L114:
 338:lib/WIFI.c    ****             {
 1503              		.loc 1 338 0
 1504 00d0 7249     		ldr	r1, .L124+44
 1505 00d2 6848     		ldr	r0, .L124+4
 1506 00d4 FFF7FEFF 		bl	strstr
 1507              	.LVL188:
 1508 00d8 0028     		cmp	r0, #0
 1509 00da 07D0     		beq	.L115
 340:lib/WIFI.c    ****                 appendAP(p);
 1510              		.loc 1 340 0
 1511 00dc 2021     		movs	r1, #32
ARM GAS  C:\Users\luvsd\AppData\Local\Temp\cc4sXGfc.s 			page 39


 1512 00de 6548     		ldr	r0, .L124+4
 1513 00e0 FFF7FEFF 		bl	strchr
 1514              	.LVL189:
 1515 00e4 0130     		adds	r0, r0, #1
 1516              	.LVL190:
 341:lib/WIFI.c    ****             }
 1517              		.loc 1 341 0
 1518 00e6 FFF7FEFF 		bl	appendAP
 1519              	.LVL191:
 1520 00ea BFE0     		b	.L96
 1521              	.LVL192:
 1522              	.L115:
 343:lib/WIFI.c    ****             {
 1523              		.loc 1 343 0
 1524 00ec 6C49     		ldr	r1, .L124+48
 1525 00ee 6148     		ldr	r0, .L124+4
 1526 00f0 FFF7FEFF 		bl	strstr
 1527              	.LVL193:
 1528 00f4 0028     		cmp	r0, #0
 1529 00f6 03D0     		beq	.L116
 345:lib/WIFI.c    ****             } else
 1530              		.loc 1 345 0
 1531 00f8 0022     		movs	r2, #0
 1532 00fa 5D4B     		ldr	r3, .L124
 1533 00fc 9A70     		strb	r2, [r3, #2]
 1534 00fe B5E0     		b	.L96
 1535              	.L116:
 347:lib/WIFI.c    ****         break;
 1536              		.loc 1 347 0
 1537 0100 6848     		ldr	r0, .L124+52
 1538 0102 FFF7FEFF 		bl	puts
 1539              	.LVL194:
 1540 0106 B1E0     		b	.L96
 1541              	.L106:
 353:lib/WIFI.c    ****                 //printf(".");
 1542              		.loc 1 353 0
 1543 0108 FFF7FEFF 		bl	printWifiBuffer
 1544              	.LVL195:
 355:lib/WIFI.c    ****                 {
 1545              		.loc 1 355 0
 1546 010c 6649     		ldr	r1, .L124+56
 1547 010e 5948     		ldr	r0, .L124+4
 1548 0110 FFF7FEFF 		bl	strstr
 1549              	.LVL196:
 1550 0114 0028     		cmp	r0, #0
 1551 0116 00D1     		bne	.LCB1541
 1552 0118 A8E0     		b	.L96	@long jump
 1553              	.LCB1541:
 357:lib/WIFI.c    ****                     
 1554              		.loc 1 357 0
 1555 011a 0420     		movs	r0, #4
 1556 011c FFF7FEFF 		bl	wifi_cmd
 1557              	.LVL197:
 359:lib/WIFI.c    ****                     break;
 1558              		.loc 1 359 0
 1559 0120 6248     		ldr	r0, .L124+60
 1560 0122 FFF7FEFF 		bl	puts
ARM GAS  C:\Users\luvsd\AppData\Local\Temp\cc4sXGfc.s 			page 40


 1561              	.LVL198:
 360:lib/WIFI.c    ****                 }
 1562              		.loc 1 360 0
 1563 0126 A1E0     		b	.L96
 1564              	.L104:
 369:lib/WIFI.c    ****             {                
 1565              		.loc 1 369 0
 1566 0128 6149     		ldr	r1, .L124+64
 1567 012a 5248     		ldr	r0, .L124+4
 1568 012c FFF7FEFF 		bl	strstr
 1569              	.LVL199:
 1570 0130 0028     		cmp	r0, #0
 1571 0132 08D0     		beq	.L117
 371:lib/WIFI.c    ****             }
 1572              		.loc 1 371 0
 1573 0134 5F4B     		ldr	r3, .L124+68
 1574 0136 1A68     		ldr	r2, [r3]
 1575 0138 1100     		movs	r1, r2
 1576 013a 3431     		adds	r1, r1, #52
 1577 013c 5C32     		adds	r2, r2, #92
 1578 013e 5E48     		ldr	r0, .L124+72
 1579 0140 FFF7FEFF 		bl	wifi_printf
 1580              	.LVL200:
 1581 0144 92E0     		b	.L96
 1582              	.L117:
 373:lib/WIFI.c    ****             {
 1583              		.loc 1 373 0
 1584 0146 5D49     		ldr	r1, .L124+76
 1585 0148 4A48     		ldr	r0, .L124+4
 1586 014a FFF7FEFF 		bl	strstr
 1587              	.LVL201:
 1588 014e 0028     		cmp	r0, #0
 1589 0150 03D0     		beq	.L118
 375:lib/WIFI.c    ****             }               
 1590              		.loc 1 375 0
 1591 0152 0820     		movs	r0, #8
 1592 0154 FFF7FEFF 		bl	wifi_cmd
 1593              	.LVL202:
 1594 0158 88E0     		b	.L96
 1595              	.L118:
 377:lib/WIFI.c    ****             {
 1596              		.loc 1 377 0
 1597 015a 5949     		ldr	r1, .L124+80
 1598 015c 4548     		ldr	r0, .L124+4
 1599 015e FFF7FEFF 		bl	strstr
 1600              	.LVL203:
 1601 0162 0028     		cmp	r0, #0
 1602 0164 00D0     		beq	.LCB1588
 1603 0166 81E0     		b	.L96	@long jump
 1604              	.LCB1588:
 380:lib/WIFI.c    ****             {
 1605              		.loc 1 380 0
 1606 0168 5649     		ldr	r1, .L124+84
 1607 016a 4248     		ldr	r0, .L124+4
 1608 016c FFF7FEFF 		bl	strstr
 1609              	.LVL204:
 1610 0170 0028     		cmp	r0, #0
ARM GAS  C:\Users\luvsd\AppData\Local\Temp\cc4sXGfc.s 			page 41


 1611 0172 7BD1     		bne	.L96
 383:lib/WIFI.c    ****             {
 1612              		.loc 1 383 0
 1613 0174 5449     		ldr	r1, .L124+88
 1614 0176 3F48     		ldr	r0, .L124+4
 1615 0178 FFF7FEFF 		bl	strstr
 1616              	.LVL205:
 1617 017c 0028     		cmp	r0, #0
 1618 017e 75D1     		bne	.L96
 386:lib/WIFI.c    ****             {
 1619              		.loc 1 386 0
 1620 0180 5249     		ldr	r1, .L124+92
 1621 0182 3C48     		ldr	r0, .L124+4
 1622 0184 FFF7FEFF 		bl	strstr
 1623              	.LVL206:
 1624 0188 0028     		cmp	r0, #0
 1625 018a 6FD1     		bne	.L96
 390:lib/WIFI.c    ****             {
 1626              		.loc 1 390 0
 1627 018c 5049     		ldr	r1, .L124+96
 1628 018e 3948     		ldr	r0, .L124+4
 1629 0190 FFF7FEFF 		bl	strstr
 1630              	.LVL207:
 1631 0194 0028     		cmp	r0, #0
 1632 0196 03D0     		beq	.L119
 392:lib/WIFI.c    ****             }  
 1633              		.loc 1 392 0
 1634 0198 0022     		movs	r2, #0
 1635 019a 354B     		ldr	r3, .L124
 1636 019c 9A70     		strb	r2, [r3, #2]
 1637 019e 65E0     		b	.L96
 1638              	.L119:
 397:lib/WIFI.c    ****             }
 1639              		.loc 1 397 0
 1640 01a0 4C48     		ldr	r0, .L124+100
 1641 01a2 FFF7FEFF 		bl	puts
 1642              	.LVL208:
 1643 01a6 61E0     		b	.L96
 1644              	.L107:
 401:lib/WIFI.c    ****             {
 1645              		.loc 1 401 0
 1646 01a8 4B49     		ldr	r1, .L124+104
 1647 01aa 3248     		ldr	r0, .L124+4
 1648 01ac FFF7FEFF 		bl	strstr
 1649              	.LVL209:
 1650 01b0 0028     		cmp	r0, #0
 1651 01b2 5BD0     		beq	.L96
 403:lib/WIFI.c    ****                 WIFI_RESET_Write(0);                
 1652              		.loc 1 403 0
 1653 01b4 FA20     		movs	r0, #250
 1654 01b6 4000     		lsls	r0, r0, #1
 1655 01b8 FFF7FEFF 		bl	CyDelay
 1656              	.LVL210:
 404:lib/WIFI.c    ****                 CyDelay(20);
 1657              		.loc 1 404 0
 1658 01bc 0020     		movs	r0, #0
 1659 01be FFF7FEFF 		bl	WIFI_RESET_Write
ARM GAS  C:\Users\luvsd\AppData\Local\Temp\cc4sXGfc.s 			page 42


 1660              	.LVL211:
 405:lib/WIFI.c    ****                 WIFI_RESET_Write(1);   
 1661              		.loc 1 405 0
 1662 01c2 1420     		movs	r0, #20
 1663 01c4 FFF7FEFF 		bl	CyDelay
 1664              	.LVL212:
 406:lib/WIFI.c    ****                 CyDelay(20);   
 1665              		.loc 1 406 0
 1666 01c8 0120     		movs	r0, #1
 1667 01ca FFF7FEFF 		bl	WIFI_RESET_Write
 1668              	.LVL213:
 407:lib/WIFI.c    ****                CySoftwareReset();                
 1669              		.loc 1 407 0
 1670 01ce 1420     		movs	r0, #20
 1671 01d0 FFF7FEFF 		bl	CyDelay
 1672              	.LVL214:
 408:lib/WIFI.c    ****             }
 1673              		.loc 1 408 0
 1674 01d4 FFF7FEFF 		bl	CySoftwareReset
 1675              	.LVL215:
 1676 01d8 48E0     		b	.L96
 1677              	.L105:
 419:lib/WIFI.c    ****             {
 1678              		.loc 1 419 0
 1679 01da 404B     		ldr	r3, .L124+108
 1680 01dc 1878     		ldrb	r0, [r3]
 1681 01de FFF7FEFF 		bl	isFinishCounter_1ms
 1682              	.LVL216:
 1683 01e2 0028     		cmp	r0, #0
 1684 01e4 05D0     		beq	.L120
 421:lib/WIFI.c    ****                 printf("WIFI_CMD_HTTP\r\n");
 1685              		.loc 1 421 0
 1686 01e6 0022     		movs	r2, #0
 1687 01e8 214B     		ldr	r3, .L124
 1688 01ea 9A70     		strb	r2, [r3, #2]
 422:lib/WIFI.c    ****             }
 1689              		.loc 1 422 0
 1690 01ec 3C48     		ldr	r0, .L124+112
 1691 01ee FFF7FEFF 		bl	puts
 1692              	.LVL217:
 1693              	.L120:
 425:lib/WIFI.c    ****             {
 1694              		.loc 1 425 0
 1695 01f2 3C49     		ldr	r1, .L124+116
 1696 01f4 1F48     		ldr	r0, .L124+4
 1697 01f6 FFF7FEFF 		bl	strstr
 1698              	.LVL218:
 1699 01fa 0028     		cmp	r0, #0
 1700 01fc 04D0     		beq	.L121
 427:lib/WIFI.c    ****                // printf(">>>>>>>OK\r\n");
 1701              		.loc 1 427 0
 1702 01fe 374B     		ldr	r3, .L124+108
 1703 0200 1878     		ldrb	r0, [r3]
 1704 0202 FFF7FEFF 		bl	resetCounter_1ms
 1705              	.LVL219:
 1706 0206 31E0     		b	.L96
 1707              	.L121:
ARM GAS  C:\Users\luvsd\AppData\Local\Temp\cc4sXGfc.s 			page 43


 430:lib/WIFI.c    ****             {
 1708              		.loc 1 430 0
 1709 0208 3749     		ldr	r1, .L124+120
 1710 020a 1A48     		ldr	r0, .L124+4
 1711 020c FFF7FEFF 		bl	strstr
 1712              	.LVL220:
 1713 0210 0028     		cmp	r0, #0
 1714 0212 06D0     		beq	.L122
 432:lib/WIFI.c    ****                 g_wifi_cmd = WIFI_CMD_IDLE;
 1715              		.loc 1 432 0
 1716 0214 3548     		ldr	r0, .L124+124
 1717 0216 FFF7FEFF 		bl	puts
 1718              	.LVL221:
 433:lib/WIFI.c    ****             }
 1719              		.loc 1 433 0
 1720 021a 0022     		movs	r2, #0
 1721 021c 144B     		ldr	r3, .L124
 1722 021e 9A70     		strb	r2, [r3, #2]
 1723 0220 24E0     		b	.L96
 1724              	.L122:
 435:lib/WIFI.c    ****             {
 1725              		.loc 1 435 0
 1726 0222 3349     		ldr	r1, .L124+128
 1727 0224 1348     		ldr	r0, .L124+4
 1728 0226 FFF7FEFF 		bl	strstr
 1729              	.LVL222:
 1730 022a 0028     		cmp	r0, #0
 1731 022c 15D0     		beq	.L123
 437:lib/WIFI.c    ****                 p = STRSTR_WIFI_BUFFER(":"); p++;
 1732              		.loc 1 437 0
 1733 022e 114C     		ldr	r4, .L124+4
 1734 0230 2100     		movs	r1, r4
 1735 0232 3048     		ldr	r0, .L124+132
 1736 0234 FFF7FEFF 		bl	printf
 1737              	.LVL223:
 438:lib/WIFI.c    ****                 g_sizeOfHttpText = atoi(p); // No. of Received Data
 1738              		.loc 1 438 0
 1739 0238 3A21     		movs	r1, #58
 1740 023a 2000     		movs	r0, r4
 1741 023c FFF7FEFF 		bl	strchr
 1742              	.LVL224:
 1743 0240 0130     		adds	r0, r0, #1
 1744              	.LVL225:
 439:lib/WIFI.c    ****             
 1745              		.loc 1 439 0
 1746 0242 FFF7FEFF 		bl	atoi
 1747              	.LVL226:
 1748 0246 2C4B     		ldr	r3, .L124+136
 1749 0248 1880     		strh	r0, [r3]
 441:lib/WIFI.c    **** 
 1750              		.loc 1 441 0
 1751 024a 2021     		movs	r1, #32
 1752 024c 2000     		movs	r0, r4
 1753 024e FFF7FEFF 		bl	strchr
 1754              	.LVL227:
 1755 0252 0130     		adds	r0, r0, #1
 1756              	.LVL228:
ARM GAS  C:\Users\luvsd\AppData\Local\Temp\cc4sXGfc.s 			page 44


 443:lib/WIFI.c    ****             }
 1757              		.loc 1 443 0
 1758 0254 064B     		ldr	r3, .L124
 1759 0256 5860     		str	r0, [r3, #4]
 1760 0258 08E0     		b	.L96
 1761              	.LVL229:
 1762              	.L123:
 445:lib/WIFI.c    ****             {
 1763              		.loc 1 445 0
 1764 025a 2849     		ldr	r1, .L124+140
 1765 025c 0548     		ldr	r0, .L124+4
 1766 025e FFF7FEFF 		bl	strstr
 1767              	.LVL230:
 1768 0262 0028     		cmp	r0, #0
 1769 0264 02D0     		beq	.L96
 447:lib/WIFI.c    ****             }            
 1770              		.loc 1 447 0
 1771 0266 0022     		movs	r2, #0
 1772 0268 014B     		ldr	r3, .L124
 1773 026a 9A70     		strb	r2, [r3, #2]
 1774              	.LVL231:
 1775              	.L96:
 450:lib/WIFI.c    **** 
 1776              		.loc 1 450 0
 1777              		@ sp needed
 1778 026c 10BD     		pop	{r4, pc}
 1779              	.L125:
 1780 026e C046     		.align	2
 1781              	.L124:
 1782 0270 00000000 		.word	.LANCHOR0
 1783 0274 00000000 		.word	g_WIFI_ReceiveBuffer
 1784 0278 78020000 		.word	.LC101
 1785 027c 94010000 		.word	.LC62
 1786 0280 00000000 		.word	g_network
 1787 0284 24000000 		.word	.L101
 1788 0288 C0000000 		.word	.LC36
 1789 028c E0000000 		.word	.LC41
 1790 0290 B8010000 		.word	.LC67
 1791 0294 84020000 		.word	.LC109
 1792 0298 00000000 		.word	g_SizeOfAPs
 1793 029c 90020000 		.word	.LC112
 1794 02a0 A0020000 		.word	.LC114
 1795 02a4 B0020000 		.word	.LC116
 1796 02a8 C8020000 		.word	.LC118
 1797 02ac D8020000 		.word	.LC120
 1798 02b0 F0020000 		.word	.LC122
 1799 02b4 00000000 		.word	g_ptrServer
 1800 02b8 00030000 		.word	.LC125
 1801 02bc 18030000 		.word	.LC127
 1802 02c0 28030000 		.word	.LC129
 1803 02c4 38030000 		.word	.LC131
 1804 02c8 4C030000 		.word	.LC133
 1805 02cc 34010000 		.word	.LC50
 1806 02d0 FC000000 		.word	.LC43
 1807 02d4 60030000 		.word	.LC137
 1808 02d8 7C030000 		.word	.LC139
 1809 02dc 00000000 		.word	g_index_Wifi_Test
ARM GAS  C:\Users\luvsd\AppData\Local\Temp\cc4sXGfc.s 			page 45


 1810 02e0 8C030000 		.word	.LC142
 1811 02e4 9C030000 		.word	.LC144
 1812 02e8 AC030000 		.word	.LC146
 1813 02ec C0030000 		.word	.LC148
 1814 02f0 D4030000 		.word	.LC150
 1815 02f4 E4030000 		.word	.LC152
 1816 02f8 00000000 		.word	g_sizeOfHttpText
 1817 02fc F0030000 		.word	.LC155
 1818              		.cfi_endproc
 1819              	.LFE69:
 1820              		.size	wifi_get_response, .-wifi_get_response
 1821              		.section	.text.wifiLoop,"ax",%progbits
 1822              		.align	2
 1823              		.global	wifiLoop
 1824              		.code	16
 1825              		.thumb_func
 1826              		.type	wifiLoop, %function
 1827              	wifiLoop:
 1828              	.LFB63:
  45:lib/WIFI.c    ****    // static uint8 bReset = TRUE;
 1829              		.loc 1 45 0
 1830              		.cfi_startproc
 1831              		@ args = 0, pretend = 0, frame = 0
 1832              		@ frame_needed = 0, uses_anonymous_args = 0
 1833 0000 10B5     		push	{r4, lr}
 1834              		.cfi_def_cfa_offset 8
 1835              		.cfi_offset 4, -8
 1836              		.cfi_offset 14, -4
  48:lib/WIFI.c    ****     {
 1837              		.loc 1 48 0
 1838 0002 304B     		ldr	r3, .L136
 1839 0004 0222     		movs	r2, #2
 1840 0006 9B5E     		ldrsh	r3, [r3, r2]
 1841 0008 2F4A     		ldr	r2, .L136+4
 1842 000a 9342     		cmp	r3, r2
 1843 000c 01D0     		beq	.L127
  48:lib/WIFI.c    ****     {
 1844              		.loc 1 48 0 is_stmt 0 discriminator 1
 1845 000e 002B     		cmp	r3, #0
 1846 0010 03D1     		bne	.L128
 1847              	.L127:
  51:lib/WIFI.c    ****     } else {
 1848              		.loc 1 51 0 is_stmt 1
 1849 0012 0022     		movs	r2, #0
 1850 0014 2D4B     		ldr	r3, .L136+8
 1851 0016 1A70     		strb	r2, [r3]
 1852 0018 02E0     		b	.L129
 1853              	.L128:
  54:lib/WIFI.c    ****     }
 1854              		.loc 1 54 0
 1855 001a 0022     		movs	r2, #0
 1856 001c 2B4B     		ldr	r3, .L136+8
 1857 001e 1A70     		strb	r2, [r3]
 1858              	.L129:
  59:lib/WIFI.c    ****     {
 1859              		.loc 1 59 0
 1860 0020 2B4B     		ldr	r3, .L136+12
ARM GAS  C:\Users\luvsd\AppData\Local\Temp\cc4sXGfc.s 			page 46


 1861 0022 9B78     		ldrb	r3, [r3, #2]
 1862 0024 002B     		cmp	r3, #0
 1863 0026 16D0     		beq	.L130
  59:lib/WIFI.c    ****     {
 1864              		.loc 1 59 0 is_stmt 0 discriminator 1
 1865 0028 052B     		cmp	r3, #5
 1866 002a 14D0     		beq	.L130
  61:lib/WIFI.c    ****         {
 1867              		.loc 1 61 0 is_stmt 1
 1868 002c 294B     		ldr	r3, .L136+16
 1869 002e 1878     		ldrb	r0, [r3]
 1870 0030 FFF7FEFF 		bl	isFinishCounter_1ms
 1871              	.LVL232:
 1872 0034 0028     		cmp	r0, #0
 1873 0036 0ED0     		beq	.L130
  63:lib/WIFI.c    ****             /* [ņłśņĀĢ 1] MIB ĒāĆņ×äņĢäņøā ņŗ£ WifiStrength ĒāĆņØ┤ļ©Ė ļ”¼ņģŗ (2026-03-10)
 1874              		.loc 1 63 0
 1875 0038 254C     		ldr	r4, .L136+12
 1876 003a A178     		ldrb	r1, [r4, #2]
 1877 003c 2648     		ldr	r0, .L136+20
 1878 003e FFF7FEFF 		bl	printf
 1879              	.LVL233:
  69:lib/WIFI.c    ****                 resetCounter_1ms(g_index_WifiStrength);
 1880              		.loc 1 69 0
 1881 0042 A378     		ldrb	r3, [r4, #2]
 1882 0044 022B     		cmp	r3, #2
 1883 0046 03D1     		bne	.L131
  70:lib/WIFI.c    ****             g_wifi_cmd = WIFI_CMD_IDLE;
 1884              		.loc 1 70 0
 1885 0048 244B     		ldr	r3, .L136+24
 1886 004a 1878     		ldrb	r0, [r3]
 1887 004c FFF7FEFF 		bl	resetCounter_1ms
 1888              	.LVL234:
 1889              	.L131:
  71:lib/WIFI.c    ****         }
 1890              		.loc 1 71 0
 1891 0050 0022     		movs	r2, #0
 1892 0052 1F4B     		ldr	r3, .L136+12
 1893 0054 9A70     		strb	r2, [r3, #2]
 1894              	.L130:
  75:lib/WIFI.c    ****     {
 1895              		.loc 1 75 0
 1896 0056 1B4B     		ldr	r3, .L136
 1897 0058 1B78     		ldrb	r3, [r3]
 1898 005a 002B     		cmp	r3, #0
 1899 005c 14D0     		beq	.L132
  75:lib/WIFI.c    ****     {
 1900              		.loc 1 75 0 is_stmt 0 discriminator 1
 1901 005e 1C4B     		ldr	r3, .L136+12
 1902 0060 9B78     		ldrb	r3, [r3, #2]
 1903 0062 002B     		cmp	r3, #0
 1904 0064 10D1     		bne	.L132
  77:lib/WIFI.c    ****         {
 1905              		.loc 1 77 0 is_stmt 1
 1906 0066 FFF7FEFF 		bl	andonLoop
 1907              	.LVL235:
 1908 006a 0028     		cmp	r0, #0
ARM GAS  C:\Users\luvsd\AppData\Local\Temp\cc4sXGfc.s 			page 47


 1909 006c 0CD1     		bne	.L132
  79:lib/WIFI.c    ****             {
 1910              		.loc 1 79 0
 1911 006e 1B4B     		ldr	r3, .L136+24
 1912 0070 1878     		ldrb	r0, [r3]
 1913 0072 FFF7FEFF 		bl	isFinishCounter_1ms
 1914              	.LVL236:
 1915 0076 0028     		cmp	r0, #0
 1916 0078 06D0     		beq	.L132
  81:lib/WIFI.c    ****                 wifi_cmd(WIFI_CMD_RECEIVED_STRENGTH);
 1917              		.loc 1 81 0
 1918 007a 184B     		ldr	r3, .L136+24
 1919 007c 1878     		ldrb	r0, [r3]
 1920 007e FFF7FEFF 		bl	resetCounter_1ms
 1921              	.LVL237:
  82:lib/WIFI.c    ****             }
 1922              		.loc 1 82 0
 1923 0082 0220     		movs	r0, #2
 1924 0084 FFF7FEFF 		bl	wifi_cmd
 1925              	.LVL238:
 1926              	.L132:
  87:lib/WIFI.c    ****     {
 1927              		.loc 1 87 0
 1928 0088 FFF7FEFF 		bl	wifi_receive_data
 1929              	.LVL239:
 1930 008c 0028     		cmp	r0, #0
 1931 008e 17D0     		beq	.L126
  89:lib/WIFI.c    ****         {
 1932              		.loc 1 89 0
 1933 0090 0C4B     		ldr	r3, .L136
 1934 0092 1B78     		ldrb	r3, [r3]
 1935 0094 002B     		cmp	r3, #0
 1936 0096 0FD0     		beq	.L134
  91:lib/WIFI.c    ****             if(g_sizeOfHttpText > 0)
 1937              		.loc 1 91 0
 1938 0098 FFF7FEFF 		bl	wifi_get_response
 1939              	.LVL240:
  92:lib/WIFI.c    ****             {
 1940              		.loc 1 92 0
 1941 009c 104B     		ldr	r3, .L136+28
 1942 009e 1988     		ldrh	r1, [r3]
 1943 00a0 0029     		cmp	r1, #0
 1944 00a2 0BD0     		beq	.L135
  94:lib/WIFI.c    ****                 
 1945              		.loc 1 94 0
 1946 00a4 09B2     		sxth	r1, r1
 1947 00a6 0A4C     		ldr	r4, .L136+12
 1948 00a8 6068     		ldr	r0, [r4, #4]
 1949 00aa FFF7FEFF 		bl	andonResponse
 1950              	.LVL241:
  96:lib/WIFI.c    ****                 g_ptrHttpReceivedText=NULL;
 1951              		.loc 1 96 0
 1952 00ae 0023     		movs	r3, #0
 1953 00b0 0B4A     		ldr	r2, .L136+28
 1954 00b2 1380     		strh	r3, [r2]
  97:lib/WIFI.c    ****             }
 1955              		.loc 1 97 0
ARM GAS  C:\Users\luvsd\AppData\Local\Temp\cc4sXGfc.s 			page 48


 1956 00b4 6360     		str	r3, [r4, #4]
 1957 00b6 01E0     		b	.L135
 1958              	.L134:
 102:lib/WIFI.c    ****         }
 1959              		.loc 1 102 0
 1960 00b8 FFF7FEFF 		bl	wifiConnectAP
 1961              	.LVL242:
 1962              	.L135:
 105:lib/WIFI.c    ****     }
 1963              		.loc 1 105 0
 1964 00bc FFF7FEFF 		bl	clearWifiBuffer
 1965              	.LVL243:
 1966              	.L126:
 107:lib/WIFI.c    **** 
 1967              		.loc 1 107 0
 1968              		@ sp needed
 1969 00c0 10BD     		pop	{r4, pc}
 1970              	.L137:
 1971 00c2 C046     		.align	2
 1972              	.L136:
 1973 00c4 00000000 		.word	g_network
 1974 00c8 0080FFFF 		.word	-32768
 1975 00cc 00000000 		.word	g_bLED1_Flickering
 1976 00d0 00000000 		.word	.LANCHOR0
 1977 00d4 00000000 		.word	g_index_Wifi_Test
 1978 00d8 04040000 		.word	.LC161
 1979 00dc 00000000 		.word	g_index_WifiStrength
 1980 00e0 00000000 		.word	g_sizeOfHttpText
 1981              		.cfi_endproc
 1982              	.LFE63:
 1983              		.size	wifiLoop, .-wifiLoop
 1984              		.comm	g_index_Wifi_Test,1,1
 1985              		.comm	g_index_WifiStrength,1,1
 1986              		.global	g_wifi_cmd
 1987              		.comm	g_sizeOfHttpText,2,2
 1988              		.global	g_ptrHttpReceivedText
 1989              		.comm	g_SizeOfAPs,2,2
 1990              		.comm	g_APs,600,4
 1991              		.global	g_size_WIFI_ReceiveBuffer
 1992              		.comm	g_WIFI_ReceiveBuffer,2049,4
 1993              		.comm	g_network,128,4
 1994              		.comm	Param,6,4
 1995              		.section	.rodata.str1.4,"aMS",%progbits,1
 1996              		.align	2
 1997              	.LC5:
 1998 0000 4F757420 		.ascii	"Out of Memory :%d\015\012\000"
 1998      6F66204D 
 1998      656D6F72 
 1998      79203A25 
 1998      640D0A00 
 1999              	.LC9:
 2000 0014 41542A49 		.ascii	"AT*ICT*MAC=?\000"
 2000      43542A4D 
 2000      41433D3F 
 2000      00
 2001 0021 000000   		.space	3
 2002              	.LC11:
ARM GAS  C:\Users\luvsd\AppData\Local\Temp\cc4sXGfc.s 			page 49


 2003 0024 25730D0A 		.ascii	"%s\015\012\000"
 2003      00
 2004 0029 000000   		.space	3
 2005              	.LC13:
 2006 002c 41542A49 		.ascii	"AT*ICT*MIB=112\000"
 2006      43542A4D 
 2006      49423D31 
 2006      313200
 2007 003b 00       		.space	1
 2008              	.LC15:
 2009 003c 41542A49 		.ascii	"AT*ICT*SCAN\000"
 2009      43542A53 
 2009      43414E00 
 2010              	.LC17:
 2011 0048 41542A49 		.ascii	"AT*ICT*IPCONFIG=1\000"
 2011      43542A49 
 2011      50434F4E 
 2011      4649473D 
 2011      3100
 2012 005a 0000     		.space	2
 2013              	.LC19:
 2014 005c 41542A49 		.ascii	"AT*ICT*FACRESET=0\000"
 2014      43542A46 
 2014      41435245 
 2014      5345543D 
 2014      3000
 2015 006e 0000     		.space	2
 2016              	.LC21:
 2017 0070 41542A49 		.ascii	"AT*ICT*NWSTATUS=?\000"
 2017      43542A4E 
 2017      57535441 
 2017      5455533D 
 2017      3F00
 2018 0082 0000     		.space	2
 2019              	.LC26:
 2020 0084 0D00     		.ascii	"\015\000"
 2021 0086 0000     		.space	2
 2022              	.LC29:
 2023 0088 4C4F4F50 		.ascii	"LOOP[%d]:%s]\000"
 2023      5B25645D 
 2023      3A25735D 
 2023      00
 2024 0095 000000   		.space	3
 2025              	.LC31:
 2026 0098 4943542A 		.ascii	"ICT*DEVICEREADY\000"
 2026      44455649 
 2026      43455245 
 2026      41445900 
 2027              	.LC33:
 2028 00a8 0D0A5B57 		.ascii	"\015\012[WIFI] Ready Wifi\015\000"
 2028      4946495D 
 2028      20526561 
 2028      64792057 
 2028      6966690D 
 2029 00bd 000000   		.space	3
 2030              	.LC36:
 2031 00c0 4943542A 		.ascii	"ICT*MAC:OK\000"
ARM GAS  C:\Users\luvsd\AppData\Local\Temp\cc4sXGfc.s 			page 50


 2031      4D41433A 
 2031      4F4B00
 2032 00cb 00       		.space	1
 2033              	.LC38:
 2034 00cc 0D0A5B57 		.ascii	"\015\012[WIFI] GET MAC\015\000"
 2034      4946495D 
 2034      20474554 
 2034      204D4143 
 2034      0D00
 2035 00de 0000     		.space	2
 2036              	.LC41:
 2037 00e0 57494649 		.ascii	"WIFI_RESP_GET_MAC ERROR\015\000"
 2037      5F524553 
 2037      505F4745 
 2037      545F4D41 
 2037      43204552 
 2038 00f9 000000   		.space	3
 2039              	.LC43:
 2040 00fc 4943542A 		.ascii	"ICT*IPALLOCATED:\000"
 2040      4950414C 
 2040      4C4F4341 
 2040      5445443A 
 2040      00
 2041 010d 000000   		.space	3
 2042              	.LC45:
 2043 0110 0D0A5B57 		.ascii	"\015\012[WIFI] GET IP\015\000"
 2043      4946495D 
 2043      20474554 
 2043      2049500D 
 2043      00
 2044 0121 000000   		.space	3
 2045              	.LC47:
 2046 0124 41542A49 		.ascii	"AT*ICT*MIB=0\000"
 2046      43542A4D 
 2046      49423D30 
 2046      00
 2047 0131 000000   		.space	3
 2048              	.LC50:
 2049 0134 4943542A 		.ascii	"ICT*ASSOCIATED:\000"
 2049      4153534F 
 2049      43494154 
 2049      45443A00 
 2050              	.LC52:
 2051 0144 41502053 		.ascii	"AP Stat :\000"
 2051      74617420 
 2051      3A00
 2052 014e 0000     		.space	2
 2053              	.LC54:
 2054 0150 53756363 		.ascii	"Success\015\000"
 2054      6573730D 
 2054      00
 2055 0159 000000   		.space	3
 2056              	.LC56:
 2057 015c 4661696C 		.ascii	"Fail\015\000"
 2057      0D00
 2058 0162 0000     		.space	2
 2059              	.LC58:
ARM GAS  C:\Users\luvsd\AppData\Local\Temp\cc4sXGfc.s 			page 51


 2060 0164 41502069 		.ascii	"AP is not found\015\000"
 2060      73206E6F 
 2060      7420666F 
 2060      756E640D 
 2060      00
 2061 0175 000000   		.space	3
 2062              	.LC60:
 2063 0178 436F6E6E 		.ascii	"Connecttion is restricted\000"
 2063      65637474 
 2063      696F6E20 
 2063      69732072 
 2063      65737472 
 2064 0192 0000     		.space	2
 2065              	.LC62:
 2066 0194 4943542A 		.ascii	"ICT*MIB:OK\000"
 2066      4D49423A 
 2066      4F4B00
 2067 019f 00       		.space	1
 2068              	.LC64:
 2069 01a0 0D0A5B57 		.ascii	"\015\012[WIFI] GET STRENGTH\015\000"
 2069      4946495D 
 2069      20474554 
 2069      20535452 
 2069      454E4754 
 2070 01b7 00       		.space	1
 2071              	.LC67:
 2072 01b8 57494649 		.ascii	"WIFI_CMD_RECEIVED_STRENGTH ERROR\015\000"
 2072      5F434D44 
 2072      5F524543 
 2072      45495645 
 2072      445F5354 
 2073 01da 0000     		.space	2
 2074              	.LC70:
 2075 01dc 00       		.ascii	"\000"
 2076 01dd 000000   		.space	3
 2077              	.LC73:
 2078 01e0 41542A49 		.ascii	"AT*ICT*HTTPGET=http://%s:%d%s%s\015\012\000"
 2078      43542A48 
 2078      54545047 
 2078      45543D68 
 2078      7474703A 
 2079 0202 0000     		.space	2
 2080              	.LC80:
 2081 0204 5B2D3E5D 		.ascii	"[->]%s[<-]\015\012\000"
 2081      25735B3C 
 2081      2D5D0D0A 
 2081      00
 2082 0211 000000   		.space	3
 2083              	.LC83:
 2084 0214 49507634 		.ascii	"IPv4        : %s\015\012\000"
 2084      20202020 
 2084      20202020 
 2084      3A202573 
 2084      0D0A00
 2085 0227 00       		.space	1
 2086              	.LC86:
 2087 0228 5375626E 		.ascii	"Subnet Mask : %s\015\012\000"
ARM GAS  C:\Users\luvsd\AppData\Local\Temp\cc4sXGfc.s 			page 52


 2087      6574204D 
 2087      61736B20 
 2087      3A202573 
 2087      0D0A00
 2088 023b 00       		.space	1
 2089              	.LC89:
 2090 023c 47617465 		.ascii	"Gateway     : %s\015\012\000"
 2090      77617920 
 2090      20202020 
 2090      3A202573 
 2090      0D0A00
 2091 024f 00       		.space	1
 2092              	.LC92:
 2093 0250 444E5320 		.ascii	"DNS Server  : %s\015\012\000"
 2093      53657276 
 2093      65722020 
 2093      3A202573 
 2093      0D0A00
 2094 0263 00       		.space	1
 2095              	.LC95:
 2096 0264 4D414320 		.ascii	"MAC Address : %s\015\012\000"
 2096      41646472 
 2096      65737320 
 2096      3A202573 
 2096      0D0A00
 2097 0277 00       		.space	1
 2098              	.LC101:
 2099 0278 2573202D 		.ascii	"%s - %d\015\012\000"
 2099      2025640D 
 2099      0A00
 2100 0282 0000     		.space	2
 2101              	.LC109:
 2102 0284 4943542A 		.ascii	"ICT*SCAN:OK\000"
 2102      5343414E 
 2102      3A4F4B00 
 2103              	.LC112:
 2104 0290 4943542A 		.ascii	"ICT*SCANIND:\000"
 2104      5343414E 
 2104      494E443A 
 2104      00
 2105 029d 000000   		.space	3
 2106              	.LC114:
 2107 02a0 4943542A 		.ascii	"ICT*SCANRESULT\000"
 2107      5343414E 
 2107      52455355 
 2107      4C5400
 2108 02af 00       		.space	1
 2109              	.LC116:
 2110 02b0 57494649 		.ascii	"WIFI_CMD_AP_SCAN ERROR\015\000"
 2110      5F434D44 
 2110      5F41505F 
 2110      5343414E 
 2110      20455252 
 2111              	.LC118:
 2112 02c8 4943542A 		.ascii	"ICT*FACRESET:OK\000"
 2112      46414352 
 2112      45534554 
ARM GAS  C:\Users\luvsd\AppData\Local\Temp\cc4sXGfc.s 			page 53


 2112      3A4F4B00 
 2113              	.LC120:
 2114 02d8 57494649 		.ascii	"WIFI_CMD_IPCONFIG----\015\000"
 2114      5F434D44 
 2114      5F495043 
 2114      4F4E4649 
 2114      472D2D2D 
 2115 02ef 00       		.space	1
 2116              	.LC122:
 2117 02f0 4943542A 		.ascii	"ICT*IPCONFIG:OK\000"
 2117      4950434F 
 2117      4E464947 
 2117      3A4F4B00 
 2118              	.LC125:
 2119 0300 41542A49 		.ascii	"AT*ICT*SCONN=%s %s\015\012\000"
 2119      43542A53 
 2119      434F4E4E 
 2119      3D257320 
 2119      25730D0A 
 2120 0315 000000   		.space	3
 2121              	.LC127:
 2122 0318 4943542A 		.ascii	"ICT*SCONN:OK\000"
 2122      53434F4E 
 2122      4E3A4F4B 
 2122      00
 2123 0325 000000   		.space	3
 2124              	.LC129:
 2125 0328 4943542A 		.ascii	"ICT*IPRELEASED\000"
 2125      49505245 
 2125      4C454153 
 2125      454400
 2126 0337 00       		.space	1
 2127              	.LC131:
 2128 0338 4943542A 		.ascii	"ICT*SSL_CLOSED:OK\000"
 2128      53534C5F 
 2128      434C4F53 
 2128      45443A4F 
 2128      4B00
 2129 034a 0000     		.space	2
 2130              	.LC133:
 2131 034c 4943542A 		.ascii	"ICT*DISASSOCIATED\000"
 2131      44495341 
 2131      53534F43 
 2131      49415445 
 2131      4400
 2132 035e 0000     		.space	2
 2133              	.LC137:
 2134 0360 57494649 		.ascii	"WIFI_CMD_IPCONFIG ERROR\015\000"
 2134      5F434D44 
 2134      5F495043 
 2134      4F4E4649 
 2134      47204552 
 2135 0379 000000   		.space	3
 2136              	.LC139:
 2137 037c 4943542A 		.ascii	"ICT*NWSTATUS\000"
 2137      4E575354 
 2137      41545553 
ARM GAS  C:\Users\luvsd\AppData\Local\Temp\cc4sXGfc.s 			page 54


 2137      00
 2138 0389 000000   		.space	3
 2139              	.LC142:
 2140 038c 57494649 		.ascii	"WIFI_CMD_HTTP\015\000"
 2140      5F434D44 
 2140      5F485454 
 2140      500D00
 2141 039b 00       		.space	1
 2142              	.LC144:
 2143 039c 4943542A 		.ascii	"ICT*HTTPGET:OK\000"
 2143      48545450 
 2143      4745543A 
 2143      4F4B00
 2144 03ab 00       		.space	1
 2145              	.LC146:
 2146 03ac 4943542A 		.ascii	"ICT*HTTPGET:ERROR\000"
 2146      48545450 
 2146      4745543A 
 2146      4552524F 
 2146      5200
 2147 03be 0000     		.space	2
 2148              	.LC148:
 2149 03c0 4943542A 		.ascii	"ICT*HTTPGET:ERROR\015\000"
 2149      48545450 
 2149      4745543A 
 2149      4552524F 
 2149      520D00
 2150 03d3 00       		.space	1
 2151              	.LC150:
 2152 03d4 4943542A 		.ascii	"ICT*HTTPBODY:\000"
 2152      48545450 
 2152      424F4459 
 2152      3A00
 2153 03e2 0000     		.space	2
 2154              	.LC152:
 2155 03e4 3E424F44 		.ascii	">BODY>%s\015\012\000"
 2155      593E2573 
 2155      0D0A00
 2156 03ef 00       		.space	1
 2157              	.LC155:
 2158 03f0 4943542A 		.ascii	"ICT*HTTPCLOSE:OK\000"
 2158      48545450 
 2158      434C4F53 
 2158      453A4F4B 
 2158      00
 2159 0401 000000   		.space	3
 2160              	.LC161:
 2161 0404 5B574946 		.ascii	"[WIFI] CMD %d timeout -> IDLE\015\012\000"
 2161      495D2043 
 2161      4D442025 
 2161      64207469 
 2161      6D656F75 
 2162              		.bss
 2163              		.align	2
 2164              		.set	.LANCHOR0,. + 0
 2165              		.type	g_size_WIFI_ReceiveBuffer, %object
 2166              		.size	g_size_WIFI_ReceiveBuffer, 2
ARM GAS  C:\Users\luvsd\AppData\Local\Temp\cc4sXGfc.s 			page 55


 2167              	g_size_WIFI_ReceiveBuffer:
 2168 0000 0000     		.space	2
 2169              		.type	g_wifi_cmd, %object
 2170              		.size	g_wifi_cmd, 1
 2171              	g_wifi_cmd:
 2172 0002 00       		.space	1
 2173              		.type	nLoop.9444, %object
 2174              		.size	nLoop.9444, 1
 2175              	nLoop.9444:
 2176 0003 00       		.space	1
 2177              		.type	g_ptrHttpReceivedText, %object
 2178              		.size	g_ptrHttpReceivedText, 4
 2179              	g_ptrHttpReceivedText:
 2180 0004 00000000 		.space	4
 2181              		.text
 2182              	.Letext0:
 2183              		.file 2 "Generated_Source\\PSoC4/cytypes.h"
 2184              		.file 3 "c:\\program files (x86)\\cypress\\psoc creator\\4.4\\psoc creator\\import\\gnu\\arm\\5.4.
 2185              		.file 4 "<built-in>"
 2186              		.file 5 "./main.h"
 2187              		.file 6 "lib\\WIFI.h"
 2188              		.file 7 "lib\\server.h"
 2189              		.file 8 "lib\\fonts.h"
 2190              		.file 9 "Generated_Source\\PSoC4/RTC.h"
 2191              		.file 10 "lib\\LEDControl.h"
 2192              		.file 11 "Generated_Source\\PSoC4/UART_WIFI.h"
 2193              		.file 12 "Generated_Source\\PSoC4/WIFI_EN.h"
 2194              		.file 13 "Generated_Source\\PSoC4/CyLib.h"
 2195              		.file 14 "Generated_Source\\PSoC4/WIFI_RESET.h"
 2196              		.file 15 "lib\\sysTick.h"
 2197              		.file 16 "Generated_Source\\PSoC4/UART_WIFI_SPI_UART.h"
 2198              		.file 17 "c:\\program files (x86)\\cypress\\psoc creator\\4.4\\psoc creator\\import\\gnu\\arm\\5.4
 2199              		.file 18 "c:\\program files (x86)\\cypress\\psoc creator\\4.4\\psoc creator\\import\\gnu\\arm\\5.4
 2200              		.file 19 "c:\\program files (x86)\\cypress\\psoc creator\\4.4\\psoc creator\\import\\gnu\\arm\\5.4
 2201              		.file 20 "./andonApi.h"
 2202              		.file 21 "lib\\utility.h"
 2203              		.file 22 "lib\\widget.h"