ARM GAS  C:\Users\luvsd\AppData\Local\Temp\ccpfPMwg.s 			page 1


   1              		.syntax unified
   2              		.cpu cortex-m0
   3              		.fpu softvfp
   4              		.eabi_attribute 20, 1
   5              		.eabi_attribute 21, 1
   6              		.eabi_attribute 23, 3
   7              		.eabi_attribute 24, 1
   8              		.eabi_attribute 25, 1
   9              		.eabi_attribute 26, 1
  10              		.eabi_attribute 30, 1
  11              		.eabi_attribute 34, 0
  12              		.eabi_attribute 18, 4
  13              		.thumb
  14              		.syntax unified
  15              		.file	"USBFS_boot.c"
  16              		.text
  17              	.Ltext0:
  18              		.cfi_sections	.debug_frame
  19              		.section	.text.USBFS_CyBtldrCommStart,"ax",%progbits
  20              		.align	2
  21              		.global	USBFS_CyBtldrCommStart
  22              		.code	16
  23              		.thumb_func
  24              		.type	USBFS_CyBtldrCommStart, %function
  25              	USBFS_CyBtldrCommStart:
  26              	.LFB1:
  27              		.file 1 "Generated_Source\\PSoC4\\USBFS_boot.c"
   1:Generated_Source\PSoC4/USBFS_boot.c **** /***************************************************************************//**
   2:Generated_Source\PSoC4/USBFS_boot.c **** * \file USBFS_boot.c
   3:Generated_Source\PSoC4/USBFS_boot.c **** * \version 3.20
   4:Generated_Source\PSoC4/USBFS_boot.c **** *
   5:Generated_Source\PSoC4/USBFS_boot.c **** * \brief
   6:Generated_Source\PSoC4/USBFS_boot.c **** *  This file contains the Bootloader API for USBFS Component.
   7:Generated_Source\PSoC4/USBFS_boot.c **** *
   8:Generated_Source\PSoC4/USBFS_boot.c **** ********************************************************************************
   9:Generated_Source\PSoC4/USBFS_boot.c **** * \copyright
  10:Generated_Source\PSoC4/USBFS_boot.c **** * Copyright 2008-2016, Cypress Semiconductor Corporation.  All rights reserved.
  11:Generated_Source\PSoC4/USBFS_boot.c **** * You may use this file only in accordance with the license, terms, conditions,
  12:Generated_Source\PSoC4/USBFS_boot.c **** * disclaimers, and limitations in the end user license agreement accompanying
  13:Generated_Source\PSoC4/USBFS_boot.c **** * the software package with which this file was provided.
  14:Generated_Source\PSoC4/USBFS_boot.c **** *******************************************************************************/
  15:Generated_Source\PSoC4/USBFS_boot.c **** 
  16:Generated_Source\PSoC4/USBFS_boot.c **** #include "USBFS_pvt.h"
  17:Generated_Source\PSoC4/USBFS_boot.c **** 
  18:Generated_Source\PSoC4/USBFS_boot.c **** #if defined(CYDEV_BOOTLOADER_IO_COMP) && ((CYDEV_BOOTLOADER_IO_COMP == CyBtldr_USBFS) || \
  19:Generated_Source\PSoC4/USBFS_boot.c ****                                           (CYDEV_BOOTLOADER_IO_COMP == CyBtldr_Custom_Interface))  
  20:Generated_Source\PSoC4/USBFS_boot.c **** 
  21:Generated_Source\PSoC4/USBFS_boot.c **** /***************************************
  22:Generated_Source\PSoC4/USBFS_boot.c **** *    Bootloader Variables
  23:Generated_Source\PSoC4/USBFS_boot.c **** ***************************************/
  24:Generated_Source\PSoC4/USBFS_boot.c ****     
  25:Generated_Source\PSoC4/USBFS_boot.c **** 
  26:Generated_Source\PSoC4/USBFS_boot.c **** static uint8  USBFS_started = 0u;
  27:Generated_Source\PSoC4/USBFS_boot.c **** 
  28:Generated_Source\PSoC4/USBFS_boot.c **** 
  29:Generated_Source\PSoC4/USBFS_boot.c **** /*******************************************************************************
  30:Generated_Source\PSoC4/USBFS_boot.c **** * Function Name: USBFS_CyBtldrCommStart
ARM GAS  C:\Users\luvsd\AppData\Local\Temp\ccpfPMwg.s 			page 2


  31:Generated_Source\PSoC4/USBFS_boot.c **** ****************************************************************************//**
  32:Generated_Source\PSoC4/USBFS_boot.c **** *
  33:Generated_Source\PSoC4/USBFS_boot.c **** *  This function performs all required initialization for the USBFS component, 
  34:Generated_Source\PSoC4/USBFS_boot.c **** *  waits on enumeration, and enables communication.
  35:Generated_Source\PSoC4/USBFS_boot.c **** *
  36:Generated_Source\PSoC4/USBFS_boot.c **** * \sideeffect
  37:Generated_Source\PSoC4/USBFS_boot.c **** *  This function starts the USB with 3V or 5V operation.
  38:Generated_Source\PSoC4/USBFS_boot.c **** *
  39:Generated_Source\PSoC4/USBFS_boot.c **** * \reentrant
  40:Generated_Source\PSoC4/USBFS_boot.c **** *  No.
  41:Generated_Source\PSoC4/USBFS_boot.c **** *
  42:Generated_Source\PSoC4/USBFS_boot.c **** *******************************************************************************/
  43:Generated_Source\PSoC4/USBFS_boot.c **** void USBFS_CyBtldrCommStart(void) 
  44:Generated_Source\PSoC4/USBFS_boot.c **** {
  28              		.loc 1 44 0
  29              		.cfi_startproc
  30              		@ args = 0, pretend = 0, frame = 0
  31              		@ frame_needed = 0, uses_anonymous_args = 0
  32 0000 10B5     		push	{r4, lr}
  33              		.cfi_def_cfa_offset 8
  34              		.cfi_offset 4, -8
  35              		.cfi_offset 14, -4
  45:Generated_Source\PSoC4/USBFS_boot.c ****     /* Enable Global Interrupts. Interrupts are mandatory for USBFS component operation. */
  46:Generated_Source\PSoC4/USBFS_boot.c ****     CyGlobalIntEnable;
  36              		.loc 1 46 0
  37              		.syntax divided
  38              	@ 46 "Generated_Source\PSoC4\USBFS_boot.c" 1
  39 0002 62B6     		CPSIE   i
  40              	@ 0 "" 2
  47:Generated_Source\PSoC4/USBFS_boot.c **** 
  48:Generated_Source\PSoC4/USBFS_boot.c ****     /* Start USBFS Operation: device 0 and with 5V or 3V operation depend on Voltage Configuration 
  49:Generated_Source\PSoC4/USBFS_boot.c ****     USBFS_Start(0u, USBFS_DWR_POWER_OPERATION);
  41              		.loc 1 49 0
  42              		.thumb
  43              		.syntax unified
  44 0004 0221     		movs	r1, #2
  45 0006 0020     		movs	r0, #0
  46 0008 FFF7FEFF 		bl	USBFS_Start
  47              	.LVL0:
  50:Generated_Source\PSoC4/USBFS_boot.c **** 
  51:Generated_Source\PSoC4/USBFS_boot.c ****     /* USB component started, the correct enumeration will be checked in the first Read operation. 
  52:Generated_Source\PSoC4/USBFS_boot.c ****     USBFS_started = 1u;
  48              		.loc 1 52 0
  49 000c 0122     		movs	r2, #1
  50 000e 014B     		ldr	r3, .L2
  51 0010 1A70     		strb	r2, [r3]
  53:Generated_Source\PSoC4/USBFS_boot.c **** }
  52              		.loc 1 53 0
  53              		@ sp needed
  54 0012 10BD     		pop	{r4, pc}
  55              	.L3:
  56              		.align	2
  57              	.L2:
  58 0014 00000000 		.word	.LANCHOR0
  59              		.cfi_endproc
  60              	.LFE1:
  61              		.size	USBFS_CyBtldrCommStart, .-USBFS_CyBtldrCommStart
ARM GAS  C:\Users\luvsd\AppData\Local\Temp\ccpfPMwg.s 			page 3


  62              		.section	.text.USBFS_CyBtldrCommStop,"ax",%progbits
  63              		.align	2
  64              		.global	USBFS_CyBtldrCommStop
  65              		.code	16
  66              		.thumb_func
  67              		.type	USBFS_CyBtldrCommStop, %function
  68              	USBFS_CyBtldrCommStop:
  69              	.LFB2:
  54:Generated_Source\PSoC4/USBFS_boot.c **** 
  55:Generated_Source\PSoC4/USBFS_boot.c **** 
  56:Generated_Source\PSoC4/USBFS_boot.c **** /*******************************************************************************
  57:Generated_Source\PSoC4/USBFS_boot.c **** * Function Name: USBFS_CyBtldrCommStop.
  58:Generated_Source\PSoC4/USBFS_boot.c **** ****************************************************************************//**
  59:Generated_Source\PSoC4/USBFS_boot.c **** *
  60:Generated_Source\PSoC4/USBFS_boot.c **** *  This function performs all necessary shutdown tasks required for the USBFS 
  61:Generated_Source\PSoC4/USBFS_boot.c **** *  component.
  62:Generated_Source\PSoC4/USBFS_boot.c **** *  
  63:Generated_Source\PSoC4/USBFS_boot.c **** *  \sideeffect
  64:Generated_Source\PSoC4/USBFS_boot.c **** *   Calls the USBFS_Stop() function.
  65:Generated_Source\PSoC4/USBFS_boot.c **** *
  66:Generated_Source\PSoC4/USBFS_boot.c **** *******************************************************************************/
  67:Generated_Source\PSoC4/USBFS_boot.c **** void USBFS_CyBtldrCommStop(void) 
  68:Generated_Source\PSoC4/USBFS_boot.c **** {
  70              		.loc 1 68 0
  71              		.cfi_startproc
  72              		@ args = 0, pretend = 0, frame = 0
  73              		@ frame_needed = 0, uses_anonymous_args = 0
  74 0000 10B5     		push	{r4, lr}
  75              		.cfi_def_cfa_offset 8
  76              		.cfi_offset 4, -8
  77              		.cfi_offset 14, -4
  69:Generated_Source\PSoC4/USBFS_boot.c ****     USBFS_Stop();
  78              		.loc 1 69 0
  79 0002 FFF7FEFF 		bl	USBFS_Stop
  80              	.LVL1:
  70:Generated_Source\PSoC4/USBFS_boot.c **** }
  81              		.loc 1 70 0
  82              		@ sp needed
  83 0006 10BD     		pop	{r4, pc}
  84              		.cfi_endproc
  85              	.LFE2:
  86              		.size	USBFS_CyBtldrCommStop, .-USBFS_CyBtldrCommStop
  87              		.section	.text.USBFS_CyBtldrCommReset,"ax",%progbits
  88              		.align	2
  89              		.global	USBFS_CyBtldrCommReset
  90              		.code	16
  91              		.thumb_func
  92              		.type	USBFS_CyBtldrCommReset, %function
  93              	USBFS_CyBtldrCommReset:
  94              	.LFB3:
  71:Generated_Source\PSoC4/USBFS_boot.c **** 
  72:Generated_Source\PSoC4/USBFS_boot.c **** 
  73:Generated_Source\PSoC4/USBFS_boot.c **** /*******************************************************************************
  74:Generated_Source\PSoC4/USBFS_boot.c **** * Function Name: USBFS_CyBtldrCommReset.
  75:Generated_Source\PSoC4/USBFS_boot.c **** ****************************************************************************//**
  76:Generated_Source\PSoC4/USBFS_boot.c **** *
  77:Generated_Source\PSoC4/USBFS_boot.c **** *  This function resets receive and transmit communication buffers.
ARM GAS  C:\Users\luvsd\AppData\Local\Temp\ccpfPMwg.s 			page 4


  78:Generated_Source\PSoC4/USBFS_boot.c **** *
  79:Generated_Source\PSoC4/USBFS_boot.c **** * \reentrant
  80:Generated_Source\PSoC4/USBFS_boot.c **** *  No
  81:Generated_Source\PSoC4/USBFS_boot.c **** *
  82:Generated_Source\PSoC4/USBFS_boot.c **** *******************************************************************************/
  83:Generated_Source\PSoC4/USBFS_boot.c **** void USBFS_CyBtldrCommReset(void) 
  84:Generated_Source\PSoC4/USBFS_boot.c **** {
  95              		.loc 1 84 0
  96              		.cfi_startproc
  97              		@ args = 0, pretend = 0, frame = 0
  98              		@ frame_needed = 0, uses_anonymous_args = 0
  99 0000 10B5     		push	{r4, lr}
 100              		.cfi_def_cfa_offset 8
 101              		.cfi_offset 4, -8
 102              		.cfi_offset 14, -4
  85:Generated_Source\PSoC4/USBFS_boot.c ****     USBFS_EnableOutEP(USBFS_BTLDR_OUT_EP); 
 103              		.loc 1 85 0
 104 0002 0120     		movs	r0, #1
 105 0004 FFF7FEFF 		bl	USBFS_EnableOutEP
 106              	.LVL2:
  86:Generated_Source\PSoC4/USBFS_boot.c **** }
 107              		.loc 1 86 0
 108              		@ sp needed
 109 0008 10BD     		pop	{r4, pc}
 110              		.cfi_endproc
 111              	.LFE3:
 112              		.size	USBFS_CyBtldrCommReset, .-USBFS_CyBtldrCommReset
 113 000a C046     		.section	.text.USBFS_CyBtldrCommWrite,"ax",%progbits
 114              		.align	2
 115              		.global	USBFS_CyBtldrCommWrite
 116              		.code	16
 117              		.thumb_func
 118              		.type	USBFS_CyBtldrCommWrite, %function
 119              	USBFS_CyBtldrCommWrite:
 120              	.LFB4:
  87:Generated_Source\PSoC4/USBFS_boot.c **** 
  88:Generated_Source\PSoC4/USBFS_boot.c **** 
  89:Generated_Source\PSoC4/USBFS_boot.c **** /*******************************************************************************
  90:Generated_Source\PSoC4/USBFS_boot.c **** * Function Name: USBFS_CyBtldrCommWrite.
  91:Generated_Source\PSoC4/USBFS_boot.c **** ****************************************************************************//**
  92:Generated_Source\PSoC4/USBFS_boot.c **** *
  93:Generated_Source\PSoC4/USBFS_boot.c **** *  This function allows the caller to write data to the bootloader host. It 
  94:Generated_Source\PSoC4/USBFS_boot.c **** *  handles polling to allow a block of data to be completely sent to the host 
  95:Generated_Source\PSoC4/USBFS_boot.c **** *  device.
  96:Generated_Source\PSoC4/USBFS_boot.c **** *
  97:Generated_Source\PSoC4/USBFS_boot.c **** *  \param pData    A pointer to the block of data to send to the device
  98:Generated_Source\PSoC4/USBFS_boot.c **** *  \param size     The number of bytes to write.
  99:Generated_Source\PSoC4/USBFS_boot.c **** *  \param count    Pointer to an unsigned short variable to write the number of
 100:Generated_Source\PSoC4/USBFS_boot.c **** *                  bytes actually written.
 101:Generated_Source\PSoC4/USBFS_boot.c **** *  \param timeOut  Number of units to wait before returning because of a timeout.
 102:Generated_Source\PSoC4/USBFS_boot.c **** *
 103:Generated_Source\PSoC4/USBFS_boot.c **** * \return
 104:Generated_Source\PSoC4/USBFS_boot.c **** *  Returns CYRET_SUCCESS if no problem was encountered or returns the value that 
 105:Generated_Source\PSoC4/USBFS_boot.c **** *  best describes the problem. For more information, see the “Return Codes” 
 106:Generated_Source\PSoC4/USBFS_boot.c **** *  section of the System Reference Guide.
 107:Generated_Source\PSoC4/USBFS_boot.c **** *
 108:Generated_Source\PSoC4/USBFS_boot.c **** * \reentrant
ARM GAS  C:\Users\luvsd\AppData\Local\Temp\ccpfPMwg.s 			page 5


 109:Generated_Source\PSoC4/USBFS_boot.c **** *  No
 110:Generated_Source\PSoC4/USBFS_boot.c **** *
 111:Generated_Source\PSoC4/USBFS_boot.c **** *******************************************************************************/
 112:Generated_Source\PSoC4/USBFS_boot.c **** cystatus USBFS_CyBtldrCommWrite(const uint8 pData[], uint16 size, uint16 *count, uint8 timeOut) CYS
 113:Generated_Source\PSoC4/USBFS_boot.c ****                                                             
 114:Generated_Source\PSoC4/USBFS_boot.c **** {
 121              		.loc 1 114 0
 122              		.cfi_startproc
 123              		@ args = 0, pretend = 0, frame = 0
 124              		@ frame_needed = 0, uses_anonymous_args = 0
 125              	.LVL3:
 126 0000 70B5     		push	{r4, r5, r6, lr}
 127              		.cfi_def_cfa_offset 16
 128              		.cfi_offset 4, -16
 129              		.cfi_offset 5, -12
 130              		.cfi_offset 6, -8
 131              		.cfi_offset 14, -4
 132 0002 0E00     		movs	r6, r1
 133 0004 1500     		movs	r5, r2
 115:Generated_Source\PSoC4/USBFS_boot.c ****     cystatus retCode;
 116:Generated_Source\PSoC4/USBFS_boot.c ****     uint16 timeoutMs;
 117:Generated_Source\PSoC4/USBFS_boot.c **** 
 118:Generated_Source\PSoC4/USBFS_boot.c ****     /* Convert 10mS checks into 1mS checks. */
 119:Generated_Source\PSoC4/USBFS_boot.c ****     timeoutMs = ((uint16) 10u * timeOut);
 134              		.loc 1 119 0
 135 0006 9A00     		lsls	r2, r3, #2
 136              	.LVL4:
 137 0008 9B18     		adds	r3, r3, r2
 138              	.LVL5:
 139 000a 5C00     		lsls	r4, r3, #1
 140 000c A4B2     		uxth	r4, r4
 141              	.LVL6:
 120:Generated_Source\PSoC4/USBFS_boot.c **** 
 121:Generated_Source\PSoC4/USBFS_boot.c ****     /* Load data into IN endpoint to be read by host. */
 122:Generated_Source\PSoC4/USBFS_boot.c ****     USBFS_LoadInEP(USBFS_BTLDR_IN_EP, pData, USBFS_BTLDR_SIZEOF_READ_BUFFER);
 142              		.loc 1 122 0
 143 000e 4022     		movs	r2, #64
 144 0010 0100     		movs	r1, r0
 145              	.LVL7:
 146 0012 0220     		movs	r0, #2
 147              	.LVL8:
 148 0014 FFF7FEFF 		bl	USBFS_LoadInEP
 149              	.LVL9:
 123:Generated_Source\PSoC4/USBFS_boot.c **** 
 124:Generated_Source\PSoC4/USBFS_boot.c ****     /* Wait unitl host reads data from IN endpoint. */
 125:Generated_Source\PSoC4/USBFS_boot.c ****     while ((USBFS_GetEPState(USBFS_BTLDR_IN_EP) == USBFS_IN_BUFFER_FULL) &&
 150              		.loc 1 125 0
 151 0018 04E0     		b	.L7
 152              	.L9:
 126:Generated_Source\PSoC4/USBFS_boot.c ****            (0u != timeoutMs))
 127:Generated_Source\PSoC4/USBFS_boot.c ****     {
 128:Generated_Source\PSoC4/USBFS_boot.c ****         CyDelay(USBFS_BTLDR_WAIT_1_MS);
 153              		.loc 1 128 0
 154 001a 0120     		movs	r0, #1
 155 001c FFF7FEFF 		bl	CyDelay
 156              	.LVL10:
 129:Generated_Source\PSoC4/USBFS_boot.c ****         timeoutMs--;
ARM GAS  C:\Users\luvsd\AppData\Local\Temp\ccpfPMwg.s 			page 6


 157              		.loc 1 129 0
 158 0020 013C     		subs	r4, r4, #1
 159              	.LVL11:
 160 0022 A4B2     		uxth	r4, r4
 161              	.LVL12:
 162              	.L7:
 125:Generated_Source\PSoC4/USBFS_boot.c ****            (0u != timeoutMs))
 163              		.loc 1 125 0
 164 0024 0220     		movs	r0, #2
 165 0026 FFF7FEFF 		bl	USBFS_GetEPState
 166              	.LVL13:
 167 002a 0028     		cmp	r0, #0
 168 002c 01D1     		bne	.L8
 125:Generated_Source\PSoC4/USBFS_boot.c ****            (0u != timeoutMs))
 169              		.loc 1 125 0 is_stmt 0 discriminator 1
 170 002e 002C     		cmp	r4, #0
 171 0030 F3D1     		bne	.L9
 172              	.L8:
 130:Generated_Source\PSoC4/USBFS_boot.c ****     }
 131:Generated_Source\PSoC4/USBFS_boot.c **** 
 132:Generated_Source\PSoC4/USBFS_boot.c ****     if (USBFS_GetEPState(USBFS_BTLDR_IN_EP) == USBFS_IN_BUFFER_FULL)
 173              		.loc 1 132 0 is_stmt 1
 174 0032 0220     		movs	r0, #2
 175 0034 FFF7FEFF 		bl	USBFS_GetEPState
 176              	.LVL14:
 177 0038 0028     		cmp	r0, #0
 178 003a 02D0     		beq	.L11
 133:Generated_Source\PSoC4/USBFS_boot.c ****     {
 134:Generated_Source\PSoC4/USBFS_boot.c ****         retCode = CYRET_TIMEOUT;
 135:Generated_Source\PSoC4/USBFS_boot.c ****     }
 136:Generated_Source\PSoC4/USBFS_boot.c ****     else
 137:Generated_Source\PSoC4/USBFS_boot.c ****     {
 138:Generated_Source\PSoC4/USBFS_boot.c ****         *count = size;
 179              		.loc 1 138 0
 180 003c 2E80     		strh	r6, [r5]
 181              	.LVL15:
 139:Generated_Source\PSoC4/USBFS_boot.c ****         retCode = CYRET_SUCCESS;
 182              		.loc 1 139 0
 183 003e 0020     		movs	r0, #0
 184 0040 00E0     		b	.L10
 185              	.LVL16:
 186              	.L11:
 134:Generated_Source\PSoC4/USBFS_boot.c ****     }
 187              		.loc 1 134 0
 188 0042 1020     		movs	r0, #16
 189              	.L10:
 190              	.LVL17:
 140:Generated_Source\PSoC4/USBFS_boot.c ****     }
 141:Generated_Source\PSoC4/USBFS_boot.c **** 
 142:Generated_Source\PSoC4/USBFS_boot.c ****     return (retCode);
 143:Generated_Source\PSoC4/USBFS_boot.c **** }
 191              		.loc 1 143 0
 192              		@ sp needed
 193              	.LVL18:
 194              	.LVL19:
 195 0044 70BD     		pop	{r4, r5, r6, pc}
 196              		.cfi_endproc
ARM GAS  C:\Users\luvsd\AppData\Local\Temp\ccpfPMwg.s 			page 7


 197              	.LFE4:
 198              		.size	USBFS_CyBtldrCommWrite, .-USBFS_CyBtldrCommWrite
 199 0046 C046     		.section	.text.USBFS_CyBtldrCommRead,"ax",%progbits
 200              		.align	2
 201              		.global	USBFS_CyBtldrCommRead
 202              		.code	16
 203              		.thumb_func
 204              		.type	USBFS_CyBtldrCommRead, %function
 205              	USBFS_CyBtldrCommRead:
 206              	.LFB5:
 144:Generated_Source\PSoC4/USBFS_boot.c **** 
 145:Generated_Source\PSoC4/USBFS_boot.c **** 
 146:Generated_Source\PSoC4/USBFS_boot.c **** /*******************************************************************************
 147:Generated_Source\PSoC4/USBFS_boot.c **** * Function Name: USBFS_CyBtldrCommRead.
 148:Generated_Source\PSoC4/USBFS_boot.c **** ****************************************************************************//**
 149:Generated_Source\PSoC4/USBFS_boot.c **** *
 150:Generated_Source\PSoC4/USBFS_boot.c **** *  This function allows the caller to read data from the bootloader host. It 
 151:Generated_Source\PSoC4/USBFS_boot.c **** *  handles polling to allow a block of data to be completely received from the 
 152:Generated_Source\PSoC4/USBFS_boot.c **** *  host device.
 153:Generated_Source\PSoC4/USBFS_boot.c **** *
 154:Generated_Source\PSoC4/USBFS_boot.c **** *  \param pData    A pointer to the area to store the block of data received
 155:Generated_Source\PSoC4/USBFS_boot.c **** *                  from the device.
 156:Generated_Source\PSoC4/USBFS_boot.c **** *  \param size     The number of bytes to read.
 157:Generated_Source\PSoC4/USBFS_boot.c **** *  \param count    Pointer to an unsigned short variable to write the number
 158:Generated_Source\PSoC4/USBFS_boot.c **** *                  of bytes actually read.
 159:Generated_Source\PSoC4/USBFS_boot.c **** *  \param timeOut  Number of units to wait before returning because of a timeOut.
 160:Generated_Source\PSoC4/USBFS_boot.c **** *                  Timeout is measured in 10s of ms.
 161:Generated_Source\PSoC4/USBFS_boot.c **** *
 162:Generated_Source\PSoC4/USBFS_boot.c **** * \return
 163:Generated_Source\PSoC4/USBFS_boot.c **** *  Returns CYRET_SUCCESS if no problem was encountered or returns the value that 
 164:Generated_Source\PSoC4/USBFS_boot.c **** *  best describes the problem. For more information, see the “Return Codes” 
 165:Generated_Source\PSoC4/USBFS_boot.c **** *  section of the System Reference Guide.
 166:Generated_Source\PSoC4/USBFS_boot.c **** *
 167:Generated_Source\PSoC4/USBFS_boot.c **** * \reentrant
 168:Generated_Source\PSoC4/USBFS_boot.c **** *  No
 169:Generated_Source\PSoC4/USBFS_boot.c **** *
 170:Generated_Source\PSoC4/USBFS_boot.c **** *******************************************************************************/
 171:Generated_Source\PSoC4/USBFS_boot.c **** cystatus USBFS_CyBtldrCommRead(uint8 pData[], uint16 size, uint16 *count, uint8 timeOut) CYSMALL
 172:Generated_Source\PSoC4/USBFS_boot.c ****                                                             
 173:Generated_Source\PSoC4/USBFS_boot.c **** {
 207              		.loc 1 173 0
 208              		.cfi_startproc
 209              		@ args = 0, pretend = 0, frame = 8
 210              		@ frame_needed = 0, uses_anonymous_args = 0
 211              	.LVL20:
 212 0000 F0B5     		push	{r4, r5, r6, r7, lr}
 213              		.cfi_def_cfa_offset 20
 214              		.cfi_offset 4, -20
 215              		.cfi_offset 5, -16
 216              		.cfi_offset 6, -12
 217              		.cfi_offset 7, -8
 218              		.cfi_offset 14, -4
 219 0002 83B0     		sub	sp, sp, #12
 220              		.cfi_def_cfa_offset 32
 221 0004 0190     		str	r0, [sp, #4]
 222 0006 0F00     		movs	r7, r1
 223 0008 1600     		movs	r6, r2
ARM GAS  C:\Users\luvsd\AppData\Local\Temp\ccpfPMwg.s 			page 8


 174:Generated_Source\PSoC4/USBFS_boot.c ****     cystatus retCode;
 175:Generated_Source\PSoC4/USBFS_boot.c ****     uint16 timeoutMs;
 176:Generated_Source\PSoC4/USBFS_boot.c **** 
 177:Generated_Source\PSoC4/USBFS_boot.c ****     /* Convert 10mS checks into 1mS checks. */
 178:Generated_Source\PSoC4/USBFS_boot.c ****     timeoutMs = ((uint16) 10u * timeOut);
 224              		.loc 1 178 0
 225 000a 9A00     		lsls	r2, r3, #2
 226              	.LVL21:
 227 000c 9B18     		adds	r3, r3, r2
 228              	.LVL22:
 229 000e 5C00     		lsls	r4, r3, #1
 230 0010 A4B2     		uxth	r4, r4
 231              	.LVL23:
 179:Generated_Source\PSoC4/USBFS_boot.c **** 
 180:Generated_Source\PSoC4/USBFS_boot.c ****     if (size > USBFS_BTLDR_SIZEOF_WRITE_BUFFER)
 232              		.loc 1 180 0
 233 0012 4029     		cmp	r1, #64
 234 0014 00D9     		bls	.L13
 181:Generated_Source\PSoC4/USBFS_boot.c ****     {
 182:Generated_Source\PSoC4/USBFS_boot.c ****         size = USBFS_BTLDR_SIZEOF_WRITE_BUFFER;
 235              		.loc 1 182 0
 236 0016 4027     		movs	r7, #64
 237              	.L13:
 238              	.LVL24:
 183:Generated_Source\PSoC4/USBFS_boot.c ****     }
 184:Generated_Source\PSoC4/USBFS_boot.c **** 
 185:Generated_Source\PSoC4/USBFS_boot.c ****     /* Wait for enumeration first time. */
 186:Generated_Source\PSoC4/USBFS_boot.c ****     if (0u != USBFS_started)
 239              		.loc 1 186 0
 240 0018 224B     		ldr	r3, .L27
 241 001a 1B78     		ldrb	r3, [r3]
 242 001c 002B     		cmp	r3, #0
 243 001e 06D1     		bne	.L25
 244 0020 18E0     		b	.L26
 245              	.LVL25:
 246              	.L17:
 187:Generated_Source\PSoC4/USBFS_boot.c ****     {
 188:Generated_Source\PSoC4/USBFS_boot.c ****         /* Wait for device enumeration. */
 189:Generated_Source\PSoC4/USBFS_boot.c ****         while ((0u == USBFS_GetConfiguration()) && (0u != timeoutMs))
 190:Generated_Source\PSoC4/USBFS_boot.c ****         {
 191:Generated_Source\PSoC4/USBFS_boot.c ****             CyDelay(USBFS_BTLDR_WAIT_1_MS);
 247              		.loc 1 191 0
 248 0022 0120     		movs	r0, #1
 249 0024 FFF7FEFF 		bl	CyDelay
 250              	.LVL26:
 192:Generated_Source\PSoC4/USBFS_boot.c ****             timeoutMs--;
 251              		.loc 1 192 0
 252 0028 013D     		subs	r5, r5, #1
 253              	.LVL27:
 254 002a ADB2     		uxth	r5, r5
 255              	.LVL28:
 256 002c 00E0     		b	.L14
 257              	.LVL29:
 258              	.L25:
 259 002e 2500     		movs	r5, r4
 260              	.LVL30:
 261              	.L14:
ARM GAS  C:\Users\luvsd\AppData\Local\Temp\ccpfPMwg.s 			page 9


 189:Generated_Source\PSoC4/USBFS_boot.c ****         {
 262              		.loc 1 189 0
 263 0030 FFF7FEFF 		bl	USBFS_GetConfiguration
 264              	.LVL31:
 265 0034 0028     		cmp	r0, #0
 266 0036 01D1     		bne	.L16
 189:Generated_Source\PSoC4/USBFS_boot.c ****         {
 267              		.loc 1 189 0 is_stmt 0 discriminator 1
 268 0038 002D     		cmp	r5, #0
 269 003a F2D1     		bne	.L17
 270              	.L16:
 193:Generated_Source\PSoC4/USBFS_boot.c ****         }
 194:Generated_Source\PSoC4/USBFS_boot.c **** 
 195:Generated_Source\PSoC4/USBFS_boot.c ****         /* Enable OUT after enumeration. */
 196:Generated_Source\PSoC4/USBFS_boot.c ****         if (0u != USBFS_GetConfiguration())
 271              		.loc 1 196 0 is_stmt 1
 272 003c FFF7FEFF 		bl	USBFS_GetConfiguration
 273              	.LVL32:
 274 0040 0028     		cmp	r0, #0
 275 0042 17D0     		beq	.L19
 197:Generated_Source\PSoC4/USBFS_boot.c ****         {
 198:Generated_Source\PSoC4/USBFS_boot.c ****             (void) USBFS_IsConfigurationChanged();  /* Clear configuration changes state status. */
 276              		.loc 1 198 0
 277 0044 FFF7FEFF 		bl	USBFS_IsConfigurationChanged
 278              	.LVL33:
 199:Generated_Source\PSoC4/USBFS_boot.c ****             USBFS_CyBtldrCommReset();
 279              		.loc 1 199 0
 280 0048 FFF7FEFF 		bl	USBFS_CyBtldrCommReset
 281              	.LVL34:
 200:Generated_Source\PSoC4/USBFS_boot.c ****             
 201:Generated_Source\PSoC4/USBFS_boot.c ****             USBFS_started = 0u;
 282              		.loc 1 201 0
 283 004c 0022     		movs	r2, #0
 284 004e 154B     		ldr	r3, .L27
 285 0050 1A70     		strb	r2, [r3]
 286 0052 0FE0     		b	.L19
 287              	.LVL35:
 288              	.L26:
 202:Generated_Source\PSoC4/USBFS_boot.c ****         }
 203:Generated_Source\PSoC4/USBFS_boot.c ****     }
 204:Generated_Source\PSoC4/USBFS_boot.c ****     else /* Check for configuration changes, has been done by Host. */
 205:Generated_Source\PSoC4/USBFS_boot.c ****     {
 206:Generated_Source\PSoC4/USBFS_boot.c ****         if (0u != USBFS_IsConfigurationChanged()) /* Host could send double SET_INTERFACE request o
 289              		.loc 1 206 0
 290 0054 FFF7FEFF 		bl	USBFS_IsConfigurationChanged
 291              	.LVL36:
 292 0058 0028     		cmp	r0, #0
 293 005a 0BD0     		beq	.L19
 207:Generated_Source\PSoC4/USBFS_boot.c ****         {
 208:Generated_Source\PSoC4/USBFS_boot.c ****             if (0u != USBFS_GetConfiguration())   /* Init OUT endpoints when device reconfigured. *
 294              		.loc 1 208 0
 295 005c FFF7FEFF 		bl	USBFS_GetConfiguration
 296              	.LVL37:
 297 0060 0028     		cmp	r0, #0
 298 0062 07D0     		beq	.L19
 209:Generated_Source\PSoC4/USBFS_boot.c ****             {
 210:Generated_Source\PSoC4/USBFS_boot.c ****                 USBFS_CyBtldrCommReset();
ARM GAS  C:\Users\luvsd\AppData\Local\Temp\ccpfPMwg.s 			page 10


 299              		.loc 1 210 0
 300 0064 FFF7FEFF 		bl	USBFS_CyBtldrCommReset
 301              	.LVL38:
 302 0068 04E0     		b	.L19
 303              	.L21:
 211:Generated_Source\PSoC4/USBFS_boot.c ****             }
 212:Generated_Source\PSoC4/USBFS_boot.c ****         }
 213:Generated_Source\PSoC4/USBFS_boot.c ****     }
 214:Generated_Source\PSoC4/USBFS_boot.c **** 
 215:Generated_Source\PSoC4/USBFS_boot.c ****     timeoutMs = ((uint16) 10u * timeOut); /* Re-arm timeout */
 216:Generated_Source\PSoC4/USBFS_boot.c **** 
 217:Generated_Source\PSoC4/USBFS_boot.c ****     /* Wait unitl host writes data into OUT endpoint. */
 218:Generated_Source\PSoC4/USBFS_boot.c ****     while ((USBFS_GetEPState(USBFS_BTLDR_OUT_EP) != USBFS_OUT_BUFFER_FULL) && \
 219:Generated_Source\PSoC4/USBFS_boot.c ****            (0u != timeoutMs))
 220:Generated_Source\PSoC4/USBFS_boot.c ****     {
 221:Generated_Source\PSoC4/USBFS_boot.c ****         CyDelay(USBFS_BTLDR_WAIT_1_MS);
 304              		.loc 1 221 0
 305 006a 0120     		movs	r0, #1
 306 006c FFF7FEFF 		bl	CyDelay
 307              	.LVL39:
 222:Generated_Source\PSoC4/USBFS_boot.c ****         timeoutMs--;
 308              		.loc 1 222 0
 309 0070 013C     		subs	r4, r4, #1
 310              	.LVL40:
 311 0072 A4B2     		uxth	r4, r4
 312              	.LVL41:
 313              	.L19:
 218:Generated_Source\PSoC4/USBFS_boot.c ****            (0u != timeoutMs))
 314              		.loc 1 218 0
 315 0074 0120     		movs	r0, #1
 316 0076 FFF7FEFF 		bl	USBFS_GetEPState
 317              	.LVL42:
 318 007a 0128     		cmp	r0, #1
 319 007c 01D0     		beq	.L20
 218:Generated_Source\PSoC4/USBFS_boot.c ****            (0u != timeoutMs))
 320              		.loc 1 218 0 is_stmt 0 discriminator 1
 321 007e 002C     		cmp	r4, #0
 322 0080 F3D1     		bne	.L21
 323              	.L20:
 223:Generated_Source\PSoC4/USBFS_boot.c ****     }
 224:Generated_Source\PSoC4/USBFS_boot.c **** 
 225:Generated_Source\PSoC4/USBFS_boot.c ****     /* Read data from OUT endpoint if host wrote data into it. */
 226:Generated_Source\PSoC4/USBFS_boot.c ****     if (USBFS_GetEPState(USBFS_BTLDR_OUT_EP) == USBFS_OUT_BUFFER_FULL)
 324              		.loc 1 226 0 is_stmt 1
 325 0082 0120     		movs	r0, #1
 326 0084 FFF7FEFF 		bl	USBFS_GetEPState
 327              	.LVL43:
 328 0088 0128     		cmp	r0, #1
 329 008a 06D1     		bne	.L22
 227:Generated_Source\PSoC4/USBFS_boot.c ****     {
 228:Generated_Source\PSoC4/USBFS_boot.c ****         *count = USBFS_ReadOutEP(USBFS_BTLDR_OUT_EP, pData, size);
 330              		.loc 1 228 0
 331 008c 3A00     		movs	r2, r7
 332 008e 0199     		ldr	r1, [sp, #4]
 333 0090 FFF7FEFF 		bl	USBFS_ReadOutEP
 334              	.LVL44:
 335 0094 3080     		strh	r0, [r6]
ARM GAS  C:\Users\luvsd\AppData\Local\Temp\ccpfPMwg.s 			page 11


 336              	.LVL45:
 229:Generated_Source\PSoC4/USBFS_boot.c ****         retCode = CYRET_SUCCESS;
 337              		.loc 1 229 0
 338 0096 0020     		movs	r0, #0
 339 0098 02E0     		b	.L23
 340              	.LVL46:
 341              	.L22:
 230:Generated_Source\PSoC4/USBFS_boot.c ****     }
 231:Generated_Source\PSoC4/USBFS_boot.c ****     else
 232:Generated_Source\PSoC4/USBFS_boot.c ****     {
 233:Generated_Source\PSoC4/USBFS_boot.c ****         *count = 0u;
 342              		.loc 1 233 0
 343 009a 0023     		movs	r3, #0
 344 009c 3380     		strh	r3, [r6]
 345              	.LVL47:
 234:Generated_Source\PSoC4/USBFS_boot.c ****         retCode = CYRET_TIMEOUT;
 346              		.loc 1 234 0
 347 009e 1020     		movs	r0, #16
 348              	.LVL48:
 349              	.L23:
 235:Generated_Source\PSoC4/USBFS_boot.c ****     }
 236:Generated_Source\PSoC4/USBFS_boot.c **** 
 237:Generated_Source\PSoC4/USBFS_boot.c ****     return (retCode);
 238:Generated_Source\PSoC4/USBFS_boot.c **** }
 350              		.loc 1 238 0
 351 00a0 03B0     		add	sp, sp, #12
 352              		@ sp needed
 353              	.LVL49:
 354              	.LVL50:
 355              	.LVL51:
 356 00a2 F0BD     		pop	{r4, r5, r6, r7, pc}
 357              	.L28:
 358              		.align	2
 359              	.L27:
 360 00a4 00000000 		.word	.LANCHOR0
 361              		.cfi_endproc
 362              	.LFE5:
 363              		.size	USBFS_CyBtldrCommRead, .-USBFS_CyBtldrCommRead
 364              		.bss
 365              		.set	.LANCHOR0,. + 0
 366              		.type	USBFS_started, %object
 367              		.size	USBFS_started, 1
 368              	USBFS_started:
 369 0000 00       		.space	1
 370              		.text
 371              	.Letext0:
 372              		.file 2 "Generated_Source\\PSoC4\\cytypes.h"
 373              		.file 3 "Generated_Source\\PSoC4\\USBFS.h"
 374              		.file 4 "Generated_Source\\PSoC4\\CyLib.h"