ARM GAS  C:\Users\luvsd\AppData\Local\Temp\cc6VuqcO.s 			page 1


   1              		.syntax unified
   2              		.cpu cortex-m0
   3              		.fpu softvfp
   4              		.eabi_attribute 20, 1
   5              		.eabi_attribute 21, 1
   6              		.eabi_attribute 23, 3
   7              		.eabi_attribute 24, 1
   8              		.eabi_attribute 25, 1
   9              		.eabi_attribute 26, 1
  10              		.eabi_attribute 30, 1
  11              		.eabi_attribute 34, 0
  12              		.eabi_attribute 18, 4
  13              		.thumb
  14              		.syntax unified
  15              		.file	"common.c"
  16              		.text
  17              	.Ltext0:
  18              		.cfi_sections	.debug_frame
  19              		.section	.text.init,"ax",%progbits
  20              		.align	2
  21              		.global	init
  22              		.code	16
  23              		.thumb_func
  24              		.type	init, %function
  25              	init:
  26              	.LFB35:
  27              		.file 1 "common.c"
   1:common.c      **** /* ========================================
   2:common.c      ****  *
   3:common.c      ****  * Copyright SUNTECH, 2018-2026
   4:common.c      ****  * All Rights Reserved
   5:common.c      ****  * UNPUBLISHED, LICENSED SOFTWARE.
   6:common.c      ****  *
   7:common.c      ****  * CONFIDENTIAL AND PROPRIETARY INFORMATION
   8:common.c      ****  * WHICH IS THE PROPERTY OF SUNTECH.
   9:common.c      ****  *
  10:common.c      ****  * ========================================
  11:common.c      **** */
  12:common.c      **** #include "main.h"
  13:common.c      **** 
  14:common.c      **** void init(void)
  15:common.c      **** {
  28              		.loc 1 15 0
  29              		.cfi_startproc
  30              		@ args = 0, pretend = 0, frame = 0
  31              		@ frame_needed = 0, uses_anonymous_args = 0
  32 0000 10B5     		push	{r4, lr}
  33              		.cfi_def_cfa_offset 8
  34              		.cfi_offset 4, -8
  35              		.cfi_offset 14, -4
  16:common.c      ****     initSysTick();
  36              		.loc 1 16 0
  37 0002 FFF7FEFF 		bl	initSysTick
  38              	.LVL0:
  17:common.c      **** 
  18:common.c      ****     port_MONITORING_Start();
  39              		.loc 1 18 0
ARM GAS  C:\Users\luvsd\AppData\Local\Temp\cc6VuqcO.s 			page 2


  40 0006 FFF7FEFF 		bl	port_MONITORING_Start
  41              	.LVL1:
  19:common.c      ****     port_OP_Start();
  42              		.loc 1 19 0
  43 000a FFF7FEFF 		bl	port_OP_Start
  44              	.LVL2:
  20:common.c      ****     BARCODE_Start();
  45              		.loc 1 20 0
  46 000e FFF7FEFF 		bl	BARCODE_Start
  47              	.LVL3:
  21:common.c      **** }
  48              		.loc 1 21 0
  49              		@ sp needed
  50 0012 10BD     		pop	{r4, pc}
  51              		.cfi_endproc
  52              	.LFE35:
  53              		.size	init, .-init
  54              		.section	.text.BootloaderStart,"ax",%progbits
  55              		.align	2
  56              		.global	BootloaderStart
  57              		.code	16
  58              		.thumb_func
  59              		.type	BootloaderStart, %function
  60              	BootloaderStart:
  61              	.LFB36:
  22:common.c      **** 
  23:common.c      **** 
  24:common.c      **** void BootloaderStart(void)
  25:common.c      **** {
  62              		.loc 1 25 0
  63              		.cfi_startproc
  64              		@ args = 0, pretend = 0, frame = 0
  65              		@ frame_needed = 0, uses_anonymous_args = 0
  66 0000 10B5     		push	{r4, lr}
  67              		.cfi_def_cfa_offset 8
  68              		.cfi_offset 4, -8
  69              		.cfi_offset 14, -4
  26:common.c      ****     port_MONITORING_UartPutString(__DATE__);
  70              		.loc 1 26 0
  71 0002 0948     		ldr	r0, .L3
  72 0004 FFF7FEFF 		bl	port_MONITORING_UartPutString
  73              	.LVL4:
  27:common.c      ****     port_MONITORING_UartPutString("\r\nCurrent firmware Version is ");
  74              		.loc 1 27 0
  75 0008 0848     		ldr	r0, .L3+4
  76 000a FFF7FEFF 		bl	port_MONITORING_UartPutString
  77              	.LVL5:
  28:common.c      ****     port_MONITORING_UartPutString(FIRMWARE_VERSION);
  78              		.loc 1 28 0
  79 000e 0848     		ldr	r0, .L3+8
  80 0010 FFF7FEFF 		bl	port_MONITORING_UartPutString
  81              	.LVL6:
  29:common.c      ****     port_MONITORING_UartPutString("\r\nFirmware Upgrade Ready");
  82              		.loc 1 29 0
  83 0014 0748     		ldr	r0, .L3+12
  84 0016 FFF7FEFF 		bl	port_MONITORING_UartPutString
  85              	.LVL7:
ARM GAS  C:\Users\luvsd\AppData\Local\Temp\cc6VuqcO.s 			page 3


  30:common.c      ****     port_MONITORING_UartPutString("(115200bps).");
  86              		.loc 1 30 0
  87 001a 0748     		ldr	r0, .L3+16
  88 001c FFF7FEFF 		bl	port_MONITORING_UartPutString
  89              	.LVL8:
  31:common.c      **** 
  32:common.c      ****     Bootloadable_Load();
  90              		.loc 1 32 0
  91 0020 FFF7FEFF 		bl	Bootloadable_Load
  92              	.LVL9:
  33:common.c      **** }
  93              		.loc 1 33 0
  94              		@ sp needed
  95 0024 10BD     		pop	{r4, pc}
  96              	.L4:
  97 0026 C046     		.align	2
  98              	.L3:
  99 0028 00000000 		.word	.LC0
 100 002c 0C000000 		.word	.LC2
 101 0030 2C000000 		.word	.LC4
 102 0034 48000000 		.word	.LC6
 103 0038 64000000 		.word	.LC8
 104              		.cfi_endproc
 105              	.LFE36:
 106              		.size	BootloaderStart, .-BootloaderStart
 107              		.section	.rodata.str1.4,"aMS",%progbits,1
 108              		.align	2
 109              	.LC0:
 110 0000 4D617220 		.ascii	"Mar  4 2026\000"
 110      20342032 
 110      30323600 
 111              	.LC2:
 112 000c 0D0A4375 		.ascii	"\015\012Current firmware Version is \000"
 112      7272656E 
 112      74206669 
 112      726D7761 
 112      72652056 
 113 002b 00       		.space	1
 114              	.LC4:
 115 002c 5343414E 		.ascii	"SCANNER_SMALL_BOARD_2026_V1\000"
 115      4E45525F 
 115      534D414C 
 115      4C5F424F 
 115      4152445F 
 116              	.LC6:
 117 0048 0D0A4669 		.ascii	"\015\012Firmware Upgrade Ready\000"
 117      726D7761 
 117      72652055 
 117      70677261 
 117      64652052 
 118 0061 000000   		.space	3
 119              	.LC8:
 120 0064 28313135 		.ascii	"(115200bps).\000"
 120      32303062 
 120      7073292E 
 120      00
 121              		.text
ARM GAS  C:\Users\luvsd\AppData\Local\Temp\cc6VuqcO.s 			page 4


 122              	.Letext0:
 123              		.file 2 "main.h"
 124              		.file 3 "Generated_Source\\PSoC4/port_MONITORING.h"
 125              		.file 4 "Generated_Source\\PSoC4/port_OP.h"
 126              		.file 5 "Generated_Source\\PSoC4/BARCODE.h"
 127              		.file 6 "Generated_Source\\PSoC4/port_MONITORING_SPI_UART.h"
 128              		.file 7 "Generated_Source\\PSoC4/Bootloadable.h"