ARM GAS  C:\Users\luvsd\AppData\Local\Temp\ccYtatOx.s 			page 1


   1              		.syntax unified
   2              		.cpu cortex-m0
   3              		.fpu softvfp
   4              		.eabi_attribute 20, 1
   5              		.eabi_attribute 21, 1
   6              		.eabi_attribute 23, 3
   7              		.eabi_attribute 24, 1
   8              		.eabi_attribute 25, 1
   9              		.eabi_attribute 26, 1
  10              		.eabi_attribute 30, 1
  11              		.eabi_attribute 34, 0
  12              		.eabi_attribute 18, 4
  13              		.thumb
  14              		.syntax unified
  15              		.file	"main.c"
  16              		.text
  17              	.Ltext0:
  18              		.cfi_sections	.debug_frame
  19              		.section	.text.process_BARCODE,"ax",%progbits
  20              		.align	2
  21              		.global	process_BARCODE
  22              		.code	16
  23              		.thumb_func
  24              		.type	process_BARCODE, %function
  25              	process_BARCODE:
  26              	.LFB35:
  27              		.file 1 "main.c"
   1:main.c        **** /*
   2:main.c        ****  * ST-500 Touch OP Version
   3:main.c        ****  *
   4:main.c        ****  * 20-03-10 : Bootloader. 2D Scanner + Touch OP.
   5:main.c        ****  * 20-03-10 : USED HWI. Scanner Mode Enable.
   6:main.c        ****  * 20-03-10 : Count > 2Pin. Power > 8Pin. IoT 보드 전원을 CPU 보드와 연결해야 함.
   7:main.c        ****  * 20-03-10 : HWI Downtime End OK. Foot or Hand Switch Cable 에 연결.
   8:main.c        ****  * 20-03-10 : Tablet > "OP Port". Touch OP (With Scanner) > "Monitoring Port". Scanner Test OK.
   9:main.c        ****  * 20-03-10 : HWI 전체 적용.
  10:main.c        ****  *
  11:main.c        ****  * 21-05-28 : 2021 New version
  12:main.c        ****  * 21-05-28 : VJ, SCI, PWJ version
  13:main.c        ****  * 21-05-28 : old button op unused (only ST-500 version)
  14:main.c        ****  * 21-05-28 : ST-500 is Monitoring port
  15:main.c        ****  * 21-05-28 : Tablet is OP port
  16:main.c        ****  *
  17:main.c        ****  * 26-03-03 : 코드 개선 - 타입 안전성 향상, NULL 포인터 검사 추가,
  18:main.c        ****  *            상수 정의 적용, 버퍼 오버플로우 방어, 미사용 변수 제거
  19:main.c        ****  */
  20:main.c        **** 
  21:main.c        **** #include "main.h"
  22:main.c        **** 
  23:main.c        **** /* ---- 전역 변수 ---- */
  24:main.c        **** unsigned long  lastReceivedTime            = 0;
  25:main.c        **** char           receivedFromBarcode[UART_BUF_SIZE];
  26:main.c        **** uint8_t        receivedFromBarcodeCount    = 0;   /* FIX: char → uint8_t (배열 인덱스 타입
  27:main.c        **** 
  28:main.c        **** char           scanTrigerStart[3]          = { 0x02, 0xF4, 0x03 };  /* 2D SCANNER 트리거 명령 
  29:main.c        **** 
  30:main.c        **** char           receivedScanTrigerOrder[UART_BUF_SIZE];
ARM GAS  C:\Users\luvsd\AppData\Local\Temp\ccYtatOx.s 			page 2


  31:main.c        **** unsigned int   receivedScanTrigerOrderCount = 0;
  32:main.c        **** 
  33:main.c        **** 
  34:main.c        **** /* ------------------------------------------------------------------ */
  35:main.c        **** /*  process_BARCODE()                                                 */
  36:main.c        **** /*  스캐너 UART RX 버퍼에서 데이터를 읽어 receivedFromBarcode 에 누적  */
  37:main.c        **** /* ------------------------------------------------------------------ */
  38:main.c        **** void process_BARCODE(void)
  39:main.c        **** {
  28              		.loc 1 39 0
  29              		.cfi_startproc
  30              		@ args = 0, pretend = 0, frame = 0
  31              		@ frame_needed = 0, uses_anonymous_args = 0
  32 0000 10B5     		push	{r4, lr}
  33              		.cfi_def_cfa_offset 8
  34              		.cfi_offset 4, -8
  35              		.cfi_offset 14, -4
  40:main.c        ****     while (BARCODE_SpiUartGetRxBufferSize() > 0)
  36              		.loc 1 40 0
  37 0002 13E0     		b	.L4
  38              	.L5:
  39              	.LBB2:
  41:main.c        ****     {
  42:main.c        ****         char c = BARCODE_UartGetChar();  /* 항상 버퍼에서 소비 */
  40              		.loc 1 42 0
  41 0004 FFF7FEFF 		bl	BARCODE_UartGetChar
  42              	.LVL0:
  43 0008 C0B2     		uxtb	r0, r0
  44              	.LVL1:
  43:main.c        **** 
  44:main.c        ****         if (receivedFromBarcodeCount == 0)
  45              		.loc 1 44 0
  46 000a 0B4B     		ldr	r3, .L6
  47 000c 1B78     		ldrb	r3, [r3]
  48 000e 002B     		cmp	r3, #0
  49 0010 02D1     		bne	.L3
  45:main.c        ****         {
  46:main.c        ****             timerCount = 0;
  50              		.loc 1 46 0
  51 0012 0021     		movs	r1, #0
  52 0014 094A     		ldr	r2, .L6+4
  53 0016 1160     		str	r1, [r2]
  54              	.L3:
  47:main.c        ****         }
  48:main.c        **** 
  49:main.c        ****         lastReceivedTime = timerCount;
  55              		.loc 1 49 0
  56 0018 084A     		ldr	r2, .L6+4
  57 001a 1168     		ldr	r1, [r2]
  58 001c 064A     		ldr	r2, .L6
  59 001e 5160     		str	r1, [r2, #4]
  50:main.c        **** 
  51:main.c        ****         if (receivedFromBarcodeCount < (uint8_t)(UART_BUF_SIZE - 1))
  60              		.loc 1 51 0
  61 0020 FF2B     		cmp	r3, #255
  62 0022 03D0     		beq	.L4
  52:main.c        ****         {
ARM GAS  C:\Users\luvsd\AppData\Local\Temp\ccYtatOx.s 			page 3


  53:main.c        ****             receivedFromBarcode[receivedFromBarcodeCount++] = c;
  63              		.loc 1 53 0
  64 0024 591C     		adds	r1, r3, #1
  65 0026 1170     		strb	r1, [r2]
  66 0028 054A     		ldr	r2, .L6+8
  67 002a D054     		strb	r0, [r2, r3]
  68              	.LVL2:
  69              	.L4:
  70              	.LBE2:
  40:main.c        ****     {
  71              		.loc 1 40 0
  72 002c FFF7FEFF 		bl	BARCODE_SpiUartGetRxBufferSize
  73              	.LVL3:
  74 0030 0028     		cmp	r0, #0
  75 0032 E7D1     		bne	.L5
  54:main.c        ****         }
  55:main.c        ****     }
  56:main.c        **** }
  76              		.loc 1 56 0
  77              		@ sp needed
  78 0034 10BD     		pop	{r4, pc}
  79              	.L7:
  80 0036 C046     		.align	2
  81              	.L6:
  82 0038 00000000 		.word	.LANCHOR0
  83 003c 00000000 		.word	timerCount
  84 0040 00000000 		.word	receivedFromBarcode
  85              		.cfi_endproc
  86              	.LFE35:
  87              		.size	process_BARCODE, .-process_BARCODE
  88              		.section	.text.process_MONITORING,"ax",%progbits
  89              		.align	2
  90              		.global	process_MONITORING
  91              		.code	16
  92              		.thumb_func
  93              		.type	process_MONITORING, %function
  94              	process_MONITORING:
  95              	.LFB36:
  57:main.c        **** 
  58:main.c        **** 
  59:main.c        **** /* ------------------------------------------------------------------ */
  60:main.c        **** /*  process_MONITORING()                                              */
  61:main.c        **** /*  Touch OP 로부터 받은 명령을 파싱하여 스캐너 또는 태블릿으로 전달  */
  62:main.c        **** /* ------------------------------------------------------------------ */
  63:main.c        **** void process_MONITORING(void)
  64:main.c        **** {
  96              		.loc 1 64 0
  97              		.cfi_startproc
  98              		@ args = 0, pretend = 0, frame = 0
  99              		@ frame_needed = 0, uses_anonymous_args = 0
 100 0000 10B5     		push	{r4, lr}
 101              		.cfi_def_cfa_offset 8
 102              		.cfi_offset 4, -8
 103              		.cfi_offset 14, -4
  65:main.c        ****     while (port_MONITORING_SpiUartGetRxBufferSize() > 0)
 104              		.loc 1 65 0
 105 0002 35E0     		b	.L12
ARM GAS  C:\Users\luvsd\AppData\Local\Temp\ccYtatOx.s 			page 4


 106              	.L17:
 107              	.LBB3:
  66:main.c        ****     {
  67:main.c        ****         char ch = port_MONITORING_UartGetChar();  /* 항상 버퍼에서 소비 */
 108              		.loc 1 67 0
 109 0004 FFF7FEFF 		bl	port_MONITORING_UartGetChar
 110              	.LVL4:
 111 0008 C0B2     		uxtb	r0, r0
 112              	.LVL5:
  68:main.c        **** 
  69:main.c        ****         if (receivedScanTrigerOrderCount == 0)
 113              		.loc 1 69 0
 114 000a 1C4B     		ldr	r3, .L19
 115 000c 9B68     		ldr	r3, [r3, #8]
 116 000e 002B     		cmp	r3, #0
 117 0010 02D1     		bne	.L10
  70:main.c        ****         {
  71:main.c        ****             timerCount = 0;
 118              		.loc 1 71 0
 119 0012 0021     		movs	r1, #0
 120 0014 1A4A     		ldr	r2, .L19+4
 121 0016 1160     		str	r1, [r2]
 122              	.L10:
  72:main.c        ****         }
  73:main.c        **** 
  74:main.c        ****         lastReceivedTime = timerCount;
 123              		.loc 1 74 0
 124 0018 194A     		ldr	r2, .L19+4
 125 001a 1168     		ldr	r1, [r2]
 126 001c 174A     		ldr	r2, .L19
 127 001e 5160     		str	r1, [r2, #4]
  75:main.c        **** 
  76:main.c        ****         if (receivedScanTrigerOrderCount < UART_BUF_SIZE - 1)
 128              		.loc 1 76 0
 129 0020 FE2B     		cmp	r3, #254
 130 0022 03D8     		bhi	.L11
  77:main.c        ****         {
  78:main.c        ****             receivedScanTrigerOrder[receivedScanTrigerOrderCount++] = ch;
 131              		.loc 1 78 0
 132 0024 591C     		adds	r1, r3, #1
 133 0026 9160     		str	r1, [r2, #8]
 134 0028 164A     		ldr	r2, .L19+8
 135 002a D054     		strb	r0, [r2, r3]
 136              	.L11:
  79:main.c        ****         }
  80:main.c        **** 
  81:main.c        ****         if (receivedScanTrigerOrderCount == strlen(SCAN_TRIGER_ORDER_STR))
 137              		.loc 1 81 0
 138 002c 134B     		ldr	r3, .L19
 139 002e 9B68     		ldr	r3, [r3, #8]
 140 0030 122B     		cmp	r3, #18
 141 0032 1DD1     		bne	.L12
  82:main.c        ****         {
  83:main.c        ****             receivedScanTrigerOrder[receivedScanTrigerOrderCount] = '\0';
 142              		.loc 1 83 0
 143 0034 1348     		ldr	r0, .L19+8
 144              	.LVL6:
ARM GAS  C:\Users\luvsd\AppData\Local\Temp\ccYtatOx.s 			page 5


 145 0036 0022     		movs	r2, #0
 146 0038 C254     		strb	r2, [r0, r3]
  84:main.c        **** 
  85:main.c        ****             if (strcmp(receivedScanTrigerOrder, SCAN_TRIGER_ORDER_STR) == 0)
 147              		.loc 1 85 0
 148 003a 1349     		ldr	r1, .L19+12
 149 003c FFF7FEFF 		bl	strcmp
 150              	.LVL7:
 151 0040 0028     		cmp	r0, #0
 152 0042 06D0     		beq	.L18
 153              	.LBB4:
 154 0044 08E0     		b	.L14
 155              	.LVL8:
 156              	.L15:
  86:main.c        ****             {
  87:main.c        ****                 int i;
  88:main.c        ****                 for (i = 0; i < 3; i++)
  89:main.c        ****                 {
  90:main.c        ****                     BARCODE_UartPutChar(scanTrigerStart[i]);
 157              		.loc 1 90 0 discriminator 3
 158 0046 114B     		ldr	r3, .L19+16
 159 0048 185D     		ldrb	r0, [r3, r4]
 160 004a FFF7FEFF 		bl	BARCODE_SpiUartWriteTxData
 161              	.LVL9:
  88:main.c        ****                 {
 162              		.loc 1 88 0 discriminator 3
 163 004e 0134     		adds	r4, r4, #1
 164              	.LVL10:
 165 0050 00E0     		b	.L13
 166              	.LVL11:
 167              	.L18:
 168              	.LBE4:
 169 0052 0024     		movs	r4, #0
 170              	.L13:
 171              	.LVL12:
 172              	.LBB5:
  88:main.c        ****                 {
 173              		.loc 1 88 0 is_stmt 0 discriminator 1
 174 0054 022C     		cmp	r4, #2
 175 0056 F6DD     		ble	.L15
 176              	.LVL13:
 177              	.L14:
 178              	.LBE5:
  91:main.c        ****                 }
  92:main.c        ****             }
  93:main.c        **** 
  94:main.c        ****             if (strcmp(receivedScanTrigerOrder, SCAN_MODE_CMD_STR) == 0)
 179              		.loc 1 94 0 is_stmt 1
 180 0058 0D49     		ldr	r1, .L19+20
 181 005a 0A48     		ldr	r0, .L19+8
 182 005c FFF7FEFF 		bl	strcmp
 183              	.LVL14:
 184 0060 0028     		cmp	r0, #0
 185 0062 02D1     		bne	.L16
  95:main.c        ****             {
  96:main.c        ****                 port_MONITORING_UartPutString("@@@@!99900304;&{FM100-M-R|DD03AB95}^^^^");
 186              		.loc 1 96 0
ARM GAS  C:\Users\luvsd\AppData\Local\Temp\ccYtatOx.s 			page 6


 187 0064 0B48     		ldr	r0, .L19+24
 188 0066 FFF7FEFF 		bl	port_MONITORING_UartPutString
 189              	.LVL15:
 190              	.L16:
  97:main.c        ****             }
  98:main.c        **** 
  99:main.c        ****             receivedScanTrigerOrderCount = 0;
 191              		.loc 1 99 0
 192 006a 0022     		movs	r2, #0
 193 006c 034B     		ldr	r3, .L19
 194 006e 9A60     		str	r2, [r3, #8]
 195              	.L12:
 196              	.LBE3:
  65:main.c        ****     {
 197              		.loc 1 65 0
 198 0070 FFF7FEFF 		bl	port_MONITORING_SpiUartGetRxBufferSize
 199              	.LVL16:
 200 0074 0028     		cmp	r0, #0
 201 0076 C5D1     		bne	.L17
 100:main.c        ****         }
 101:main.c        ****     }
 102:main.c        **** }
 202              		.loc 1 102 0
 203              		@ sp needed
 204 0078 10BD     		pop	{r4, pc}
 205              	.L20:
 206 007a C046     		.align	2
 207              	.L19:
 208 007c 00000000 		.word	.LANCHOR0
 209 0080 00000000 		.word	timerCount
 210 0084 00000000 		.word	receivedScanTrigerOrder
 211 0088 00000000 		.word	.LC6
 212 008c 00000000 		.word	.LANCHOR1
 213 0090 14000000 		.word	.LC9
 214 0094 28000000 		.word	.LC11
 215              		.cfi_endproc
 216              	.LFE36:
 217              		.size	process_MONITORING, .-process_MONITORING
 218              		.section	.text.main,"ax",%progbits
 219              		.align	2
 220              		.global	main
 221              		.code	16
 222              		.thumb_func
 223              		.type	main, %function
 224              	main:
 225              	.LFB37:
 103:main.c        **** 
 104:main.c        **** 
 105:main.c        **** /* ------------------------------------------------------------------ */
 106:main.c        **** /*  main()                                                            */
 107:main.c        **** /* ------------------------------------------------------------------ */
 108:main.c        **** int main(void)
 109:main.c        **** {
 226              		.loc 1 109 0
 227              		.cfi_startproc
 228              		@ args = 0, pretend = 0, frame = 256
 229              		@ frame_needed = 0, uses_anonymous_args = 0
ARM GAS  C:\Users\luvsd\AppData\Local\Temp\ccYtatOx.s 			page 7


 230 0000 F0B5     		push	{r4, r5, r6, r7, lr}
 231              		.cfi_def_cfa_offset 20
 232              		.cfi_offset 4, -20
 233              		.cfi_offset 5, -16
 234              		.cfi_offset 6, -12
 235              		.cfi_offset 7, -8
 236              		.cfi_offset 14, -4
 237 0002 C1B0     		sub	sp, sp, #260
 238              		.cfi_def_cfa_offset 280
 110:main.c        ****     CyGlobalIntEnable;
 239              		.loc 1 110 0
 240              		.syntax divided
 241              	@ 110 "main.c" 1
 242 0004 62B6     		CPSIE   i
 243              	@ 0 "" 2
 111:main.c        ****     init();
 244              		.loc 1 111 0
 245              		.thumb
 246              		.syntax unified
 247 0006 FFF7FEFF 		bl	init
 248              	.LVL17:
 112:main.c        **** 
 113:main.c        ****     char oldCounterStat = Counter_Read();
 249              		.loc 1 113 0
 250 000a FFF7FEFF 		bl	Counter_Read
 251              	.LVL18:
 252 000e 0500     		movs	r5, r0
 253              	.LVL19:
 254 0010 00E0     		b	.L22
 255              	.LVL20:
 256              	.L30:
 109:main.c        ****     CyGlobalIntEnable;
 257              		.loc 1 109 0
 258 0012 2500     		movs	r5, r4
 259              	.LVL21:
 260              	.L22:
 261              	.LBB6:
 114:main.c        **** 
 115:main.c        ****     for (;;)
 116:main.c        ****     {
 117:main.c        ****         char currentCounterStat = Counter_Read();
 262              		.loc 1 117 0
 263 0014 FFF7FEFF 		bl	Counter_Read
 264              	.LVL22:
 265 0018 0400     		movs	r4, r0
 266 001a 0300     		movs	r3, r0
 267              	.LVL23:
 118:main.c        **** 
 119:main.c        ****         /* Counter 하강 엣지 (1→0): 타이머 초기화 */
 120:main.c        ****         if (oldCounterStat != currentCounterStat && currentCounterStat == 0)
 268              		.loc 1 120 0
 269 001c 8542     		cmp	r5, r0
 270 001e 06D0     		beq	.L23
 271              		.loc 1 120 0 is_stmt 0 discriminator 1
 272 0020 0028     		cmp	r0, #0
 273 0022 04D1     		bne	.L23
 121:main.c        ****         {
ARM GAS  C:\Users\luvsd\AppData\Local\Temp\ccYtatOx.s 			page 8


 122:main.c        ****             timerCount       = 0;
 274              		.loc 1 122 0 is_stmt 1
 275 0024 0022     		movs	r2, #0
 276 0026 3349     		ldr	r1, .L31
 277 0028 0A60     		str	r2, [r1]
 123:main.c        ****             lastReceivedTime = 0;
 278              		.loc 1 123 0
 279 002a 3349     		ldr	r1, .L31+4
 280 002c 4A60     		str	r2, [r1, #4]
 281              	.L23:
 124:main.c        ****         }
 125:main.c        **** 
 126:main.c        ****         /* Counter 상승 엣지 (0→1): 유효 범위 내면 태블릿에 카운트 이벤트 전
 127:main.c        ****         if (oldCounterStat != currentCounterStat && currentCounterStat == 1)
 282              		.loc 1 127 0
 283 002e 9D42     		cmp	r5, r3
 284 0030 0DD0     		beq	.L24
 285              		.loc 1 127 0 is_stmt 0 discriminator 1
 286 0032 012B     		cmp	r3, #1
 287 0034 0BD1     		bne	.L24
 288              	.LBB7:
 128:main.c        ****         {
 129:main.c        ****             unsigned int dTime = timerCount - lastReceivedTime;
 289              		.loc 1 129 0 is_stmt 1
 290 0036 2F4B     		ldr	r3, .L31
 291 0038 1B68     		ldr	r3, [r3]
 292 003a 2F4A     		ldr	r2, .L31+4
 293 003c 5268     		ldr	r2, [r2, #4]
 294 003e 9B1A     		subs	r3, r3, r2
 295              	.LVL24:
 130:main.c        **** 
 131:main.c        ****             if (dTime > COUNTER_MIN_MS && dTime < COUNTER_MAX_MS)
 296              		.loc 1 131 0
 297 0040 C93B     		subs	r3, r3, #201
 298              	.LVL25:
 299 0042 2E4A     		ldr	r2, .L31+8
 300 0044 9342     		cmp	r3, r2
 301 0046 02D8     		bhi	.L24
 132:main.c        ****             {
 133:main.c        ****                 port_OP_UartPutString("{\"cmd\" : \"count\", \"value\" : 1}");
 302              		.loc 1 133 0
 303 0048 2D48     		ldr	r0, .L31+12
 304              	.LVL26:
 305 004a FFF7FEFF 		bl	port_OP_UartPutString
 306              	.LVL27:
 307              	.L24:
 308              	.LBE7:
 134:main.c        ****             }
 135:main.c        ****         }
 136:main.c        **** 
 137:main.c        ****         oldCounterStat = currentCounterStat;
 138:main.c        **** 
 139:main.c        ****         /* 타임아웃: 수신 완료로 판단하고 버퍼 처리 */
 140:main.c        ****         if (timerCount - lastReceivedTime > TIMEOUT_MS_UART)
 309              		.loc 1 140 0
 310 004e 294B     		ldr	r3, .L31
 311 0050 1B68     		ldr	r3, [r3]
ARM GAS  C:\Users\luvsd\AppData\Local\Temp\ccYtatOx.s 			page 9


 312 0052 294A     		ldr	r2, .L31+4
 313 0054 5268     		ldr	r2, [r2, #4]
 314 0056 9B1A     		subs	r3, r3, r2
 315 0058 322B     		cmp	r3, #50
 316 005a 40D9     		bls	.L25
 141:main.c        ****         {
 142:main.c        ****             receivedScanTrigerOrderCount = 0;
 317              		.loc 1 142 0
 318 005c 264B     		ldr	r3, .L31+4
 319 005e 0022     		movs	r2, #0
 320 0060 9A60     		str	r2, [r3, #8]
 143:main.c        **** 
 144:main.c        ****             if (receivedFromBarcodeCount > 0)
 321              		.loc 1 144 0
 322 0062 1B78     		ldrb	r3, [r3]
 323 0064 002B     		cmp	r3, #0
 324 0066 3AD0     		beq	.L25
 325              	.LBB8:
 145:main.c        ****             {
 146:main.c        ****                 char  *ptrFirst;
 147:main.c        ****                 char  *ptrSecond;
 148:main.c        ****                 char  *ptrThird;
 149:main.c        ****                 char   msg[UART_BUF_SIZE];
 150:main.c        **** 
 151:main.c        ****                 receivedFromBarcode[receivedFromBarcodeCount] = '\0';
 326              		.loc 1 151 0
 327 0068 2648     		ldr	r0, .L31+16
 328 006a C254     		strb	r2, [r0, r3]
 152:main.c        **** 
 153:main.c        ****                 ptrFirst  = strtok(receivedFromBarcode, "/\r\n");  /* DesignNo  - Touch OP 전송 *
 329              		.loc 1 153 0
 330 006c 264D     		ldr	r5, .L31+20
 331 006e 2900     		movs	r1, r5
 332 0070 FFF7FEFF 		bl	strtok
 333              	.LVL28:
 334 0074 0600     		movs	r6, r0
 335              	.LVL29:
 154:main.c        ****                 ptrSecond = strtok(NULL, "/\r\n");                 /* DesignIDX - 태블릿 전송 
 336              		.loc 1 154 0
 337 0076 2900     		movs	r1, r5
 338 0078 0020     		movs	r0, #0
 339              	.LVL30:
 340 007a FFF7FEFF 		bl	strtok
 341              	.LVL31:
 342 007e 0700     		movs	r7, r0
 343              	.LVL32:
 155:main.c        ****                 ptrThird  = strtok(NULL, "/\r\n");                 /* Pieces    - 태블릿 전송 
 344              		.loc 1 155 0
 345 0080 2900     		movs	r1, r5
 346 0082 0020     		movs	r0, #0
 347              	.LVL33:
 348 0084 FFF7FEFF 		bl	strtok
 349              	.LVL34:
 350 0088 0500     		movs	r5, r0
 351              	.LVL35:
 156:main.c        **** 
 157:main.c        ****                 /* FIX: ptrFirst NULL 체크 추가 */
ARM GAS  C:\Users\luvsd\AppData\Local\Temp\ccYtatOx.s 			page 10


 158:main.c        ****                 if (ptrFirst != NULL)
 352              		.loc 1 158 0
 353 008a 002E     		cmp	r6, #0
 354 008c 07D0     		beq	.L26
 159:main.c        ****                 {
 160:main.c        ****                     sprintf(msg, "@@@@!99900035;^^^^*P%s*\r\n", ptrFirst);
 355              		.loc 1 160 0
 356 008e 3200     		movs	r2, r6
 357 0090 1E49     		ldr	r1, .L31+24
 358 0092 6846     		mov	r0, sp
 359              	.LVL36:
 360 0094 FFF7FEFF 		bl	sprintf
 361              	.LVL37:
 161:main.c        ****                     port_MONITORING_UartPutString(msg);
 362              		.loc 1 161 0
 363 0098 6846     		mov	r0, sp
 364 009a FFF7FEFF 		bl	port_MONITORING_UartPutString
 365              	.LVL38:
 366              	.L26:
 162:main.c        ****                 }
 163:main.c        **** 
 164:main.c        ****                 /* FIX: ptrSecond, ptrThird NULL 체크 추가 (strtok NULL 반환 방어) */
 165:main.c        ****                 if (ptrThird != NULL && strlen(ptrThird) > 0)
 367              		.loc 1 165 0
 368 009e 002D     		cmp	r5, #0
 369 00a0 09D0     		beq	.L27
 370              		.loc 1 165 0 is_stmt 0 discriminator 1
 371 00a2 2B78     		ldrb	r3, [r5]
 372 00a4 002B     		cmp	r3, #0
 373 00a6 06D0     		beq	.L27
 166:main.c        ****                 {
 167:main.c        ****                     sprintf(msg, "{\"cmd\" : \"barcode\", \"value\" : [\"%s\",\"%s\"]}", ptrSecond,
 374              		.loc 1 167 0 is_stmt 1
 375 00a8 2B00     		movs	r3, r5
 376 00aa 3A00     		movs	r2, r7
 377 00ac 1849     		ldr	r1, .L31+28
 378 00ae 6846     		mov	r0, sp
 379 00b0 FFF7FEFF 		bl	sprintf
 380              	.LVL39:
 381 00b4 0DE0     		b	.L28
 382              	.L27:
 168:main.c        ****                 }
 169:main.c        ****                 else if (ptrSecond != NULL && strlen(ptrSecond) > 0)
 383              		.loc 1 169 0
 384 00b6 002F     		cmp	r7, #0
 385 00b8 08D0     		beq	.L29
 386              		.loc 1 169 0 is_stmt 0 discriminator 1
 387 00ba 3B78     		ldrb	r3, [r7]
 388 00bc 002B     		cmp	r3, #0
 389 00be 05D0     		beq	.L29
 170:main.c        ****                 {
 171:main.c        ****                     sprintf(msg, "{\"cmd\" : \"barcode\", \"value\" : [\"%s\"]}", ptrSecond);
 390              		.loc 1 171 0 is_stmt 1
 391 00c0 3A00     		movs	r2, r7
 392 00c2 1449     		ldr	r1, .L31+32
 393 00c4 6846     		mov	r0, sp
 394 00c6 FFF7FEFF 		bl	sprintf
ARM GAS  C:\Users\luvsd\AppData\Local\Temp\ccYtatOx.s 			page 11


 395              	.LVL40:
 396 00ca 02E0     		b	.L28
 397              	.L29:
 172:main.c        ****                 }
 173:main.c        ****                 else
 174:main.c        ****                 {
 175:main.c        ****                     strcpy(msg, "");
 398              		.loc 1 175 0
 399 00cc 0023     		movs	r3, #0
 400 00ce 6A46     		mov	r2, sp
 401 00d0 1370     		strb	r3, [r2]
 402              	.L28:
 176:main.c        ****                 }
 177:main.c        **** 
 178:main.c        ****                 port_OP_UartPutString(msg);
 403              		.loc 1 178 0
 404 00d2 6846     		mov	r0, sp
 405 00d4 FFF7FEFF 		bl	port_OP_UartPutString
 406              	.LVL41:
 179:main.c        ****                 receivedFromBarcodeCount = 0;
 407              		.loc 1 179 0
 408 00d8 0022     		movs	r2, #0
 409 00da 074B     		ldr	r3, .L31+4
 410 00dc 1A70     		strb	r2, [r3]
 411              	.LVL42:
 412              	.L25:
 413              	.LBE8:
 180:main.c        ****             }
 181:main.c        ****         }
 182:main.c        **** 
 183:main.c        ****         process_BARCODE();
 414              		.loc 1 183 0
 415 00de FFF7FEFF 		bl	process_BARCODE
 416              	.LVL43:
 184:main.c        ****         process_MONITORING();
 417              		.loc 1 184 0
 418 00e2 FFF7FEFF 		bl	process_MONITORING
 419              	.LVL44:
 185:main.c        **** 
 186:main.c        ****         /* IoT Board 내부 버튼: LOW 감지 시 부트로더 진입 */
 187:main.c        ****         if (Pin_StartBootloader_Read() == 0)
 420              		.loc 1 187 0
 421 00e6 FFF7FEFF 		bl	Pin_StartBootloader_Read
 422              	.LVL45:
 423 00ea 0028     		cmp	r0, #0
 424 00ec 91D1     		bne	.L30
 188:main.c        ****         {
 189:main.c        ****             BootloaderStart();
 425              		.loc 1 189 0
 426 00ee FFF7FEFF 		bl	BootloaderStart
 427              	.LVL46:
 428 00f2 8EE7     		b	.L30
 429              	.L32:
 430              		.align	2
 431              	.L31:
 432 00f4 00000000 		.word	timerCount
 433 00f8 00000000 		.word	.LANCHOR0
ARM GAS  C:\Users\luvsd\AppData\Local\Temp\ccYtatOx.s 			page 12


 434 00fc A2060000 		.word	1698
 435 0100 50000000 		.word	.LC15
 436 0104 00000000 		.word	receivedFromBarcode
 437 0108 70000000 		.word	.LC18
 438 010c 74000000 		.word	.LC20
 439 0110 90000000 		.word	.LC22
 440 0114 BC000000 		.word	.LC24
 441              	.LBE6:
 442              		.cfi_endproc
 443              	.LFE37:
 444              		.size	main, .-main
 445              		.global	receivedScanTrigerOrderCount
 446              		.comm	receivedScanTrigerOrder,256,4
 447              		.global	scanTrigerStart
 448              		.global	receivedFromBarcodeCount
 449              		.comm	receivedFromBarcode,256,4
 450              		.global	lastReceivedTime
 451              		.data
 452              		.align	2
 453              		.set	.LANCHOR1,. + 0
 454              		.type	scanTrigerStart, %object
 455              		.size	scanTrigerStart, 3
 456              	scanTrigerStart:
 457 0000 02       		.byte	2
 458 0001 F4       		.byte	-12
 459 0002 03       		.byte	3
 460              		.section	.rodata.str1.4,"aMS",%progbits,1
 461              		.align	2
 462              	.LC6:
 463 0000 24242424 		.ascii	"$$$$#99900035;%%%%\000"
 463      23393939 
 463      30303033 
 463      353B2525 
 463      252500
 464 0013 00       		.space	1
 465              	.LC9:
 466 0014 24242424 		.ascii	"$$$$#99900304;%%%%\000"
 466      23393939 
 466      30303330 
 466      343B2525 
 466      252500
 467 0027 00       		.space	1
 468              	.LC11:
 469 0028 40404040 		.ascii	"@@@@!99900304;&{FM100-M-R|DD03AB95}^^^^\000"
 469      21393939 
 469      30303330 
 469      343B267B 
 469      464D3130 
 470              	.LC15:
 471 0050 7B22636D 		.ascii	"{\"cmd\" : \"count\", \"value\" : 1}\000"
 471      6422203A 
 471      2022636F 
 471      756E7422 
 471      2C202276 
 472 006f 00       		.space	1
 473              	.LC18:
 474 0070 2F0D0A00 		.ascii	"/\015\012\000"
ARM GAS  C:\Users\luvsd\AppData\Local\Temp\ccYtatOx.s 			page 13


 475              	.LC20:
 476 0074 40404040 		.ascii	"@@@@!99900035;^^^^*P%s*\015\012\000"
 476      21393939 
 476      30303033 
 476      353B5E5E 
 476      5E5E2A50 
 477 008e 0000     		.space	2
 478              	.LC22:
 479 0090 7B22636D 		.ascii	"{\"cmd\" : \"barcode\", \"value\" : [\"%s\",\"%s\"]"
 479      6422203A 
 479      20226261 
 479      72636F64 
 479      65222C20 
 480 00b9 7D00     		.ascii	"}\000"
 481 00bb 00       		.space	1
 482              	.LC24:
 483 00bc 7B22636D 		.ascii	"{\"cmd\" : \"barcode\", \"value\" : [\"%s\"]}\000"
 483      6422203A 
 483      20226261 
 483      72636F64 
 483      65222C20 
 484              		.bss
 485              		.align	2
 486              		.set	.LANCHOR0,. + 0
 487              		.type	receivedFromBarcodeCount, %object
 488              		.size	receivedFromBarcodeCount, 1
 489              	receivedFromBarcodeCount:
 490 0000 00       		.space	1
 491 0001 000000   		.space	3
 492              		.type	lastReceivedTime, %object
 493              		.size	lastReceivedTime, 4
 494              	lastReceivedTime:
 495 0004 00000000 		.space	4
 496              		.type	receivedScanTrigerOrderCount, %object
 497              		.size	receivedScanTrigerOrderCount, 4
 498              	receivedScanTrigerOrderCount:
 499 0008 00000000 		.space	4
 500              		.text
 501              	.Letext0:
 502              		.file 2 "c:\\program files (x86)\\cypress\\psoc creator\\4.4\\psoc creator\\import\\gnu\\arm\\5.4.
 503              		.file 3 "c:\\program files (x86)\\cypress\\psoc creator\\4.4\\psoc creator\\import\\gnu\\arm\\5.4.
 504              		.file 4 "Generated_Source\\PSoC4/cytypes.h"
 505              		.file 5 "main.h"
 506              		.file 6 "Generated_Source\\PSoC4/BARCODE_SPI_UART.h"
 507              		.file 7 "Generated_Source\\PSoC4/port_MONITORING_SPI_UART.h"
 508              		.file 8 "c:\\program files (x86)\\cypress\\psoc creator\\4.4\\psoc creator\\import\\gnu\\arm\\5.4.
 509              		.file 9 "Generated_Source\\PSoC4/port_OP_SPI_UART.h"
 510              		.file 10 "c:\\program files (x86)\\cypress\\psoc creator\\4.4\\psoc creator\\import\\gnu\\arm\\5.4
 511              		.file 11 "Generated_Source\\PSoC4/Counter.h"
 512              		.file 12 "Generated_Source\\PSoC4/Pin_StartBootloader.h"