ARM GAS  C:\Users\luvsd\AppData\Local\Temp\ccGqqTBW.s 			page 1


   1              		.syntax unified
   2              		.cpu cortex-m0
   3              		.fpu softvfp
   4              		.eabi_attribute 20, 1
   5              		.eabi_attribute 21, 1
   6              		.eabi_attribute 23, 3
   7              		.eabi_attribute 24, 1
   8              		.eabi_attribute 25, 1
   9              		.eabi_attribute 26, 1
  10              		.eabi_attribute 30, 1
  11              		.eabi_attribute 34, 0
  12              		.eabi_attribute 18, 4
  13              		.thumb
  14              		.syntax unified
  15              		.file	"andonApi.c"
  16              		.text
  17              	.Ltext0:
  18              		.cfi_sections	.debug_frame
  19              		.section	.text.andonResponse,"ax",%progbits
  20              		.align	2
  21              		.global	andonResponse
  22              		.code	16
  23              		.thumb_func
  24              		.type	andonResponse, %function
  25              	andonResponse:
  26              	.LFB63:
  27              		.file 1 "andonApi.c"
   1:andonApi.c    **** /* ========================================
   2:andonApi.c    ****  *
   3:andonApi.c    ****  * Copyright Suntech, 2023.02.01
   4:andonApi.c    ****  * All Rights Reserved
   5:andonApi.c    ****  * UNPUBLISHED, LICENSED SOFTWARE.
   6:andonApi.c    ****  *
   7:andonApi.c    ****  * CONFIDENTIAL AND PROPRIETARY INFORMATION
   8:andonApi.c    ****  * WHICH IS THE PROPERTY OF Suntech.
   9:andonApi.c    ****  *
  10:andonApi.c    ****  * ========================================
  11:andonApi.c    **** */
  12:andonApi.c    **** #include "andonApi.h"
  13:andonApi.c    **** #include "andonJson.h"
  14:andonApi.c    **** #include "andonMessageQueue.h"
  15:andonApi.c    **** #include "lib/WIFI.h"
  16:andonApi.c    **** #include "lib/server.h"
  17:andonApi.c    **** #include "lib/utility.h"
  18:andonApi.c    **** #include "userProjectPatternSewing.h"
  19:andonApi.c    **** #include "count.h"
  20:andonApi.c    **** #include "package.h"
  21:andonApi.c    **** #include "lib/sysTick.h"
  22:andonApi.c    **** #include "WarningLight.h"
  23:andonApi.c    **** #include "downtime.h"
  24:andonApi.c    **** #include "defective.h"
  25:andonApi.c    **** 
  26:andonApi.c    **** ANDON_LISTS g_AndonLists;
  27:andonApi.c    **** uint8       g_bDeviceInfoUpdate=FALSE;
  28:andonApi.c    **** uint8       g_uReplyResult=RR_INIT;
  29:andonApi.c    **** static uint16 g_uAndonRequestType = ANDON_NONE;  /* andonApi.c ыВ┤ы╢АьЧРьДЬызМ ьВмьЪй */
  30:andonApi.c    **** uint8       g_bTargetReceived = FALSE;
ARM GAS  C:\Users\luvsd\AppData\Local\Temp\ccGqqTBW.s 			page 2


  31:andonApi.c    **** uint8       g_index_request_interval=0;
  32:andonApi.c    **** uint8       g_bReceivedAndonStart = 0;
  33:andonApi.c    **** 
  34:andonApi.c    **** INFO  g_Info = {
  35:andonApi.c    ****     .nNoOfLineForNotice =0, 
  36:andonApi.c    **** };
  37:andonApi.c    **** 
  38:andonApi.c    **** uint8 andonLoop()
  39:andonApi.c    **** {
  40:andonApi.c    ****     if(!isEmptyQueueANDON())
  41:andonApi.c    ****     {
  42:andonApi.c    ****         ANDON_QUEUE *aq = deQueueANDON();
  43:andonApi.c    ****         
  44:andonApi.c    ****         char url[512];
  45:andonApi.c    ****         snprintf(url, sizeof(url), "%s?code=%s", DEFAULT_API_ENDPOINT, aq->message);
  46:andonApi.c    **** 
  47:andonApi.c    ****         g_uAndonRequestType = aq->type;
  48:andonApi.c    **** 
  49:andonApi.c    ****         wifi_cmd_http(url);
  50:andonApi.c    ****         
  51:andonApi.c    ****         return TRUE;
  52:andonApi.c    ****     }
  53:andonApi.c    ****     
  54:andonApi.c    ****     if(g_bReceivedAndonStart)
  55:andonApi.c    ****     {
  56:andonApi.c    ****         if(isFinishCounter_1ms(g_index_request_interval)) // Wifi Strength ь▓┤эБмые╝ 5secызИыЛд ьИШ
  57:andonApi.c    ****         {
  58:andonApi.c    ****             resetCounter_1ms(g_index_request_interval);
  59:andonApi.c    ****             
  60:andonApi.c    ****             if(g_ptrMachineParameter->andon_enable==TRUE) makeAndonList();             
  61:andonApi.c    ****             
  62:andonApi.c    ****             return TRUE;
  63:andonApi.c    ****         }
  64:andonApi.c    ****         
  65:andonApi.c    ****         WarningLight();
  66:andonApi.c    ****     }
  67:andonApi.c    ****    
  68:andonApi.c    ****     return FALSE;
  69:andonApi.c    **** }
  70:andonApi.c    **** 
  71:andonApi.c    **** 
  72:andonApi.c    **** void andonResponse(char *ptrText, int16 sizeOfText)
  73:andonApi.c    **** {
  28              		.loc 1 73 0
  29              		.cfi_startproc
  30              		@ args = 0, pretend = 0, frame = 0
  31              		@ frame_needed = 0, uses_anonymous_args = 0
  32              	.LVL0:
  33 0000 10B5     		push	{r4, lr}
  34              		.cfi_def_cfa_offset 8
  35              		.cfi_offset 4, -8
  36              		.cfi_offset 14, -4
  37 0002 0300     		movs	r3, r0
  38 0004 0A00     		movs	r2, r1
  74:andonApi.c    ****     andonJsonParsor(g_uAndonRequestType, ptrText, sizeOfText);
  39              		.loc 1 74 0
  40 0006 044C     		ldr	r4, .L2
ARM GAS  C:\Users\luvsd\AppData\Local\Temp\ccGqqTBW.s 			page 3


  41 0008 2088     		ldrh	r0, [r4]
  42              	.LVL1:
  43 000a 1900     		movs	r1, r3
  44              	.LVL2:
  45 000c FFF7FEFF 		bl	andonJsonParsor
  46              	.LVL3:
  75:andonApi.c    ****     g_uAndonRequestType = ANDON_NONE;
  47              		.loc 1 75 0
  48 0010 0023     		movs	r3, #0
  49 0012 2380     		strh	r3, [r4]
  76:andonApi.c    **** }
  50              		.loc 1 76 0
  51              		@ sp needed
  52 0014 10BD     		pop	{r4, pc}
  53              	.L3:
  54 0016 C046     		.align	2
  55              	.L2:
  56 0018 00000000 		.word	.LANCHOR0
  57              		.cfi_endproc
  58              	.LFE63:
  59              		.size	andonResponse, .-andonResponse
  60              		.section	.text.makeAndonCurrentTimeRequest,"ax",%progbits
  61              		.align	2
  62              		.global	makeAndonCurrentTimeRequest
  63              		.code	16
  64              		.thumb_func
  65              		.type	makeAndonCurrentTimeRequest, %function
  66              	makeAndonCurrentTimeRequest:
  67              	.LFB64:
  77:andonApi.c    **** 
  78:andonApi.c    **** void makeAndonCurrentTimeRequest()
  79:andonApi.c    **** {
  68              		.loc 1 79 0
  69              		.cfi_startproc
  70              		@ args = 0, pretend = 0, frame = 0
  71              		@ frame_needed = 0, uses_anonymous_args = 0
  72 0000 10B5     		push	{r4, lr}
  73              		.cfi_def_cfa_offset 8
  74              		.cfi_offset 4, -8
  75              		.cfi_offset 14, -4
  80:andonApi.c    ****     enQueueANDON_printf(ANDON_CURRENT_TIME,"get_dateTime");
  76              		.loc 1 80 0
  77 0002 0249     		ldr	r1, .L5
  78 0004 0120     		movs	r0, #1
  79 0006 FFF7FEFF 		bl	enQueueANDON_printf
  80              	.LVL4:
  81:andonApi.c    **** }
  81              		.loc 1 81 0
  82              		@ sp needed
  83 000a 10BD     		pop	{r4, pc}
  84              	.L6:
  85              		.align	2
  86              	.L5:
  87 000c 00000000 		.word	.LC1
  88              		.cfi_endproc
  89              	.LFE64:
  90              		.size	makeAndonCurrentTimeRequest, .-makeAndonCurrentTimeRequest
ARM GAS  C:\Users\luvsd\AppData\Local\Temp\ccGqqTBW.s 			page 4


  91              		.section	.text.makeAndonStart,"ax",%progbits
  92              		.align	2
  93              		.global	makeAndonStart
  94              		.code	16
  95              		.thumb_func
  96              		.type	makeAndonStart, %function
  97              	makeAndonStart:
  98              	.LFB65:
  82:andonApi.c    **** 
  83:andonApi.c    **** void makeAndonStart()
  84:andonApi.c    **** {
  99              		.loc 1 84 0
 100              		.cfi_startproc
 101              		@ args = 0, pretend = 0, frame = 0
 102              		@ frame_needed = 0, uses_anonymous_args = 0
 103 0000 00B5     		push	{lr}
 104              		.cfi_def_cfa_offset 4
 105              		.cfi_offset 14, -4
 106 0002 83B0     		sub	sp, sp, #12
 107              		.cfi_def_cfa_offset 16
  85:andonApi.c    ****     //enQueueANDON_printf(ANDON_START,"start&mac=%s&name=%s&ip=%s&ver=%s",
  86:andonApi.c    ****     enQueueANDON_printf(ANDON_START,"start&mac=%s&machine_no=%s&ip=%s&ver=%s",
  87:andonApi.c    ****         g_network.MAC,
  88:andonApi.c    ****         g_ptrServer->deviceName,
 108              		.loc 1 88 0
 109 0004 074B     		ldr	r3, .L8
 110 0006 1B68     		ldr	r3, [r3]
 111 0008 7033     		adds	r3, r3, #112
  86:andonApi.c    ****         g_network.MAC,
 112              		.loc 1 86 0
 113 000a 074A     		ldr	r2, .L8+4
 114 000c 0749     		ldr	r1, .L8+8
 115 000e 0191     		str	r1, [sp, #4]
 116 0010 1100     		movs	r1, r2
 117 0012 4039     		subs	r1, r1, #64
 118 0014 0091     		str	r1, [sp]
 119 0016 0649     		ldr	r1, .L8+12
 120 0018 0F20     		movs	r0, #15
 121 001a FFF7FEFF 		bl	enQueueANDON_printf
 122              	.LVL5:
  89:andonApi.c    ****         g_network.IPv4,
  90:andonApi.c    ****         PROJECT_FIRMWARE_VERSION
  91:andonApi.c    ****     ); 
  92:andonApi.c    **** }
 123              		.loc 1 92 0
 124 001e 03B0     		add	sp, sp, #12
 125              		@ sp needed
 126 0020 00BD     		pop	{pc}
 127              	.L9:
 128 0022 C046     		.align	2
 129              	.L8:
 130 0024 00000000 		.word	g_ptrServer
 131 0028 6C000000 		.word	g_network+108
 132 002c 38000000 		.word	.LC7
 133 0030 10000000 		.word	.LC5
 134              		.cfi_endproc
 135              	.LFE65:
ARM GAS  C:\Users\luvsd\AppData\Local\Temp\ccGqqTBW.s 			page 5


 136              		.size	makeAndonStart, .-makeAndonStart
 137              		.section	.text.makeAndonList,"ax",%progbits
 138              		.align	2
 139              		.global	makeAndonList
 140              		.code	16
 141              		.thumb_func
 142              		.type	makeAndonList, %function
 143              	makeAndonList:
 144              	.LFB66:
  93:andonApi.c    **** 
  94:andonApi.c    **** void makeAndonList()
  95:andonApi.c    **** {
 145              		.loc 1 95 0
 146              		.cfi_startproc
 147              		@ args = 0, pretend = 0, frame = 0
 148              		@ frame_needed = 0, uses_anonymous_args = 0
 149 0000 10B5     		push	{r4, lr}
 150              		.cfi_def_cfa_offset 8
 151              		.cfi_offset 4, -8
 152              		.cfi_offset 14, -4
  96:andonApi.c    ****     enQueueANDON_printf(ANDON_REQUEST_LIST,"get_andonList&mac=%s",
 153              		.loc 1 96 0
 154 0002 034A     		ldr	r2, .L11
 155 0004 0349     		ldr	r1, .L11+4
 156 0006 0520     		movs	r0, #5
 157 0008 FFF7FEFF 		bl	enQueueANDON_printf
 158              	.LVL6:
  97:andonApi.c    ****         g_network.MAC
  98:andonApi.c    ****     );   
  99:andonApi.c    **** }
 159              		.loc 1 99 0
 160              		@ sp needed
 161 000c 10BD     		pop	{r4, pc}
 162              	.L12:
 163 000e C046     		.align	2
 164              	.L11:
 165 0010 6C000000 		.word	g_network+108
 166 0014 48000000 		.word	.LC11
 167              		.cfi_endproc
 168              	.LFE66:
 169              		.size	makeAndonList, .-makeAndonList
 170              		.section	.text.andonLoop,"ax",%progbits
 171              		.align	2
 172              		.global	andonLoop
 173              		.code	16
 174              		.thumb_func
 175              		.type	andonLoop, %function
 176              	andonLoop:
 177              	.LFB62:
  39:andonApi.c    ****     if(!isEmptyQueueANDON())
 178              		.loc 1 39 0
 179              		.cfi_startproc
 180              		@ args = 0, pretend = 0, frame = 512
 181              		@ frame_needed = 0, uses_anonymous_args = 0
 182 0000 10B5     		push	{r4, lr}
 183              		.cfi_def_cfa_offset 8
 184              		.cfi_offset 4, -8
ARM GAS  C:\Users\luvsd\AppData\Local\Temp\ccGqqTBW.s 			page 6


 185              		.cfi_offset 14, -4
 186 0002 1D4C     		ldr	r4, .L18
 187 0004 A544     		add	sp, sp, r4
 188              		.cfi_def_cfa_offset 528
  40:andonApi.c    ****     {
 189              		.loc 1 40 0
 190 0006 FFF7FEFF 		bl	isEmptyQueueANDON
 191              	.LVL7:
 192 000a 0028     		cmp	r0, #0
 193 000c 14D1     		bne	.L14
 194              	.LBB2:
  42:andonApi.c    ****         
 195              		.loc 1 42 0
 196 000e FFF7FEFF 		bl	deQueueANDON
 197              	.LVL8:
 198 0012 0400     		movs	r4, r0
 199              	.LVL9:
  45:andonApi.c    **** 
 200              		.loc 1 45 0
 201 0014 0090     		str	r0, [sp]
 202 0016 194B     		ldr	r3, .L18+4
 203 0018 194A     		ldr	r2, .L18+8
 204 001a 8021     		movs	r1, #128
 205 001c 8900     		lsls	r1, r1, #2
 206 001e 02A8     		add	r0, sp, #8
 207              	.LVL10:
 208 0020 FFF7FEFF 		bl	snprintf
 209              	.LVL11:
  47:andonApi.c    **** 
 210              		.loc 1 47 0
 211 0024 8023     		movs	r3, #128
 212 0026 5B00     		lsls	r3, r3, #1
 213 0028 E25A     		ldrh	r2, [r4, r3]
 214 002a 164B     		ldr	r3, .L18+12
 215 002c 1A80     		strh	r2, [r3]
  49:andonApi.c    ****         
 216              		.loc 1 49 0
 217 002e 02A8     		add	r0, sp, #8
 218 0030 FFF7FEFF 		bl	wifi_cmd_http
 219              	.LVL12:
  51:andonApi.c    ****     }
 220              		.loc 1 51 0
 221 0034 0124     		movs	r4, #1
 222              	.LVL13:
 223 0036 19E0     		b	.L15
 224              	.L14:
 225              	.LBE2:
  54:andonApi.c    ****     {
 226              		.loc 1 54 0
 227 0038 124B     		ldr	r3, .L18+12
 228 003a 9C78     		ldrb	r4, [r3, #2]
 229 003c 002C     		cmp	r4, #0
 230 003e 15D0     		beq	.L15
  56:andonApi.c    ****         {
 231              		.loc 1 56 0
 232 0040 D878     		ldrb	r0, [r3, #3]
 233 0042 FFF7FEFF 		bl	isFinishCounter_1ms
ARM GAS  C:\Users\luvsd\AppData\Local\Temp\ccGqqTBW.s 			page 7


 234              	.LVL14:
 235 0046 041E     		subs	r4, r0, #0
 236 0048 0CD0     		beq	.L16
  58:andonApi.c    ****             
 237              		.loc 1 58 0
 238 004a 0E4B     		ldr	r3, .L18+12
 239 004c D878     		ldrb	r0, [r3, #3]
 240 004e FFF7FEFF 		bl	resetCounter_1ms
 241              	.LVL15:
  60:andonApi.c    ****             
 242              		.loc 1 60 0
 243 0052 0D4B     		ldr	r3, .L18+16
 244 0054 1B68     		ldr	r3, [r3]
 245 0056 9B8A     		ldrh	r3, [r3, #20]
 246 0058 012B     		cmp	r3, #1
 247 005a 06D1     		bne	.L17
  60:andonApi.c    ****             
 248              		.loc 1 60 0 is_stmt 0 discriminator 1
 249 005c FFF7FEFF 		bl	makeAndonList
 250              	.LVL16:
  62:andonApi.c    ****         }
 251              		.loc 1 62 0 is_stmt 1 discriminator 1
 252 0060 0124     		movs	r4, #1
 253 0062 03E0     		b	.L15
 254              	.L16:
  65:andonApi.c    ****     }
 255              		.loc 1 65 0
 256 0064 FFF7FEFF 		bl	WarningLight
 257              	.LVL17:
 258 0068 00E0     		b	.L15
 259              	.L17:
  62:andonApi.c    ****         }
 260              		.loc 1 62 0
 261 006a 0124     		movs	r4, #1
 262              	.L15:
  69:andonApi.c    **** 
 263              		.loc 1 69 0 discriminator 1
 264 006c 2000     		movs	r0, r4
 265 006e 8223     		movs	r3, #130
 266 0070 9B00     		lsls	r3, r3, #2
 267 0072 9D44     		add	sp, sp, r3
 268              		@ sp needed
 269 0074 10BD     		pop	{r4, pc}
 270              	.L19:
 271 0076 C046     		.align	2
 272              	.L18:
 273 0078 F8FDFFFF 		.word	-520
 274 007c 60000000 		.word	.LC13
 275 0080 70000000 		.word	.LC15
 276 0084 00000000 		.word	.LANCHOR0
 277 0088 00000000 		.word	g_ptrMachineParameter
 278              		.cfi_endproc
 279              	.LFE62:
 280              		.size	andonLoop, .-andonLoop
 281              		.section	.text.makeAndonWarningRequest,"ax",%progbits
 282              		.align	2
 283              		.global	makeAndonWarningRequest
ARM GAS  C:\Users\luvsd\AppData\Local\Temp\ccGqqTBW.s 			page 8


 284              		.code	16
 285              		.thumb_func
 286              		.type	makeAndonWarningRequest, %function
 287              	makeAndonWarningRequest:
 288              	.LFB67:
 100:andonApi.c    **** 
 101:andonApi.c    **** void makeAndonWarningRequest(int idx)
 102:andonApi.c    **** {
 289              		.loc 1 102 0
 290              		.cfi_startproc
 291              		@ args = 0, pretend = 0, frame = 0
 292              		@ frame_needed = 0, uses_anonymous_args = 0
 293              	.LVL18:
 294 0000 10B5     		push	{r4, lr}
 295              		.cfi_def_cfa_offset 8
 296              		.cfi_offset 4, -8
 297              		.cfi_offset 14, -4
 298 0002 0300     		movs	r3, r0
 103:andonApi.c    ****     //enQueueANDON_printf(ANDON_REQUEST_ITEM,"send_andon_warning&mac=%s&andon_text_idx=%d",
 104:andonApi.c    ****     enQueueANDON_printf(ANDON_REQUEST_ITEM,"send_andon_warning&mac=%s&andon_idx=%d",
 299              		.loc 1 104 0
 300 0004 024A     		ldr	r2, .L21
 301 0006 0349     		ldr	r1, .L21+4
 302 0008 0420     		movs	r0, #4
 303              	.LVL19:
 304 000a FFF7FEFF 		bl	enQueueANDON_printf
 305              	.LVL20:
 105:andonApi.c    ****         g_network.MAC,
 106:andonApi.c    ****         idx
 107:andonApi.c    ****     );  
 108:andonApi.c    **** }
 306              		.loc 1 108 0
 307              		@ sp needed
 308 000e 10BD     		pop	{r4, pc}
 309              	.L22:
 310              		.align	2
 311              	.L21:
 312 0010 6C000000 		.word	g_network+108
 313 0014 7C000000 		.word	.LC20
 314              		.cfi_endproc
 315              	.LFE67:
 316              		.size	makeAndonWarningRequest, .-makeAndonWarningRequest
 317              		.section	.text.makeAndonCompleteRequest,"ax",%progbits
 318              		.align	2
 319              		.global	makeAndonCompleteRequest
 320              		.code	16
 321              		.thumb_func
 322              		.type	makeAndonCompleteRequest, %function
 323              	makeAndonCompleteRequest:
 324              	.LFB68:
 109:andonApi.c    **** 
 110:andonApi.c    **** void makeAndonCompleteRequest(int idx)
 111:andonApi.c    **** {
 325              		.loc 1 111 0
 326              		.cfi_startproc
 327              		@ args = 0, pretend = 0, frame = 0
 328              		@ frame_needed = 0, uses_anonymous_args = 0
ARM GAS  C:\Users\luvsd\AppData\Local\Temp\ccGqqTBW.s 			page 9


 329              	.LVL21:
 330 0000 10B5     		push	{r4, lr}
 331              		.cfi_def_cfa_offset 8
 332              		.cfi_offset 4, -8
 333              		.cfi_offset 14, -4
 334 0002 0300     		movs	r3, r0
 112:andonApi.c    ****     //enQueueANDON_printf(ANDON_REQUEST_ITEM,"send_andon_completed&mac=%s&andon_text_idx=%d",
 113:andonApi.c    ****     enQueueANDON_printf(ANDON_REQUEST_ITEM,"send_andon_completed&mac=%s&andon_idx=%d",
 335              		.loc 1 113 0
 336 0004 024A     		ldr	r2, .L24
 337 0006 0349     		ldr	r1, .L24+4
 338 0008 0420     		movs	r0, #4
 339              	.LVL22:
 340 000a FFF7FEFF 		bl	enQueueANDON_printf
 341              	.LVL23:
 114:andonApi.c    ****         g_network.MAC,
 115:andonApi.c    ****         idx);  
 116:andonApi.c    **** }
 342              		.loc 1 116 0
 343              		@ sp needed
 344 000e 10BD     		pop	{r4, pc}
 345              	.L25:
 346              		.align	2
 347              	.L24:
 348 0010 6C000000 		.word	g_network+108
 349 0014 A4000000 		.word	.LC23
 350              		.cfi_endproc
 351              	.LFE68:
 352              		.size	makeAndonCompleteRequest, .-makeAndonCompleteRequest
 353              		.global	__aeabi_i2d
 354              		.global	__aeabi_ddiv
 355              		.section	.text.makeAndonPatternCount,"ax",%progbits
 356              		.align	2
 357              		.global	makeAndonPatternCount
 358              		.code	16
 359              		.thumb_func
 360              		.type	makeAndonPatternCount, %function
 361              	makeAndonPatternCount:
 362              	.LFB69:
 117:andonApi.c    **** 
 118:andonApi.c    **** /* ьЮРьИШъ╕░ UART эМиэВ╖ ьИШьЛа ьЛЬ ьДЬы▓Д ьаДьЖб тАФ EMBROIDERY_S ьаДьЪй */
 119:andonApi.c    **** void makeAndonPatternCount()
 120:andonApi.c    **** {
 363              		.loc 1 120 0
 364              		.cfi_startproc
 365              		@ args = 0, pretend = 0, frame = 0
 366              		@ frame_needed = 0, uses_anonymous_args = 0
 367 0000 70B5     		push	{r4, r5, r6, lr}
 368              		.cfi_def_cfa_offset 16
 369              		.cfi_offset 4, -16
 370              		.cfi_offset 5, -12
 371              		.cfi_offset 6, -8
 372              		.cfi_offset 14, -4
 373 0002 86B0     		sub	sp, sp, #24
 374              		.cfi_def_cfa_offset 40
 121:andonApi.c    ****     COUNT *ptrCount = getCount();
 375              		.loc 1 121 0
ARM GAS  C:\Users\luvsd\AppData\Local\Temp\ccGqqTBW.s 			page 10


 376 0004 FFF7FEFF 		bl	getCount
 377              	.LVL24:
 122:andonApi.c    **** 
 123:andonApi.c    ****     enQueueANDON_printf(ANDON_SEND_PATTERN_COUNT,
 124:andonApi.c    ****         "send_eCount&mac=%s&actual_qty=%u&ct=%0.1f&tb=%u&mrt=%0.1f\r\n",
 125:andonApi.c    ****         g_network.MAC,
 126:andonApi.c    ****         ptrCount->patternCount,             // actual_qty : ьЭ┤ы▓И эМиэВ╖ ьЩДыгМ ьИШыЯЙ
 378              		.loc 1 126 0
 379 0008 048C     		ldrh	r4, [r0, #32]
 127:andonApi.c    ****         ptrCount->patternCycleTime / 10.,   // ct  : ьЛ╕ьЭ┤эБ┤эГАьЮД (0.1s ыЛиьЬД тЖТ ьЖМьИШьаР 1ьЮ
 380              		.loc 1 127 0
 381 000a 458D     		ldrh	r5, [r0, #42]
 128:andonApi.c    ****         ptrCount->embThreadBreakageQty,     // tb  : ьЛдыБКъ╣А ьИШыЯЙ
 382              		.loc 1 128 0
 383 000c 4A23     		movs	r3, #74
 384 000e C65A     		ldrh	r6, [r0, r3]
 129:andonApi.c    ****         ptrCount->patternMotorRunTime / 10. // mrt : ыкиэД░ыПЩьЮСьЛЬъ░Д (0.1s ыЛиьЬД тЖТ ьЖМьИШьаР 
 385              		.loc 1 129 0
 386 0010 008E     		ldrh	r0, [r0, #48]
 387              	.LVL25:
 123:andonApi.c    ****         "send_eCount&mac=%s&actual_qty=%u&ct=%0.1f&tb=%u&mrt=%0.1f\r\n",
 388              		.loc 1 123 0
 389 0012 FFF7FEFF 		bl	__aeabi_i2d
 390              	.LVL26:
 391 0016 0022     		movs	r2, #0
 392 0018 0B4B     		ldr	r3, .L27
 393 001a FFF7FEFF 		bl	__aeabi_ddiv
 394              	.LVL27:
 395 001e 0490     		str	r0, [sp, #16]
 396 0020 0591     		str	r1, [sp, #20]
 397 0022 0296     		str	r6, [sp, #8]
 398 0024 2800     		movs	r0, r5
 399 0026 FFF7FEFF 		bl	__aeabi_i2d
 400              	.LVL28:
 401 002a 0022     		movs	r2, #0
 402 002c 064B     		ldr	r3, .L27
 403 002e FFF7FEFF 		bl	__aeabi_ddiv
 404              	.LVL29:
 405 0032 0090     		str	r0, [sp]
 406 0034 0191     		str	r1, [sp, #4]
 407 0036 2300     		movs	r3, r4
 408 0038 044A     		ldr	r2, .L27+4
 409 003a 0549     		ldr	r1, .L27+8
 410 003c 1120     		movs	r0, #17
 411 003e FFF7FEFF 		bl	enQueueANDON_printf
 412              	.LVL30:
 130:andonApi.c    ****     );
 131:andonApi.c    **** }
 413              		.loc 1 131 0
 414 0042 06B0     		add	sp, sp, #24
 415              		@ sp needed
 416 0044 70BD     		pop	{r4, r5, r6, pc}
 417              	.L28:
 418 0046 C046     		.align	2
 419              	.L27:
 420 0048 00002440 		.word	1076101120
 421 004c 6C000000 		.word	g_network+108
ARM GAS  C:\Users\luvsd\AppData\Local\Temp\ccGqqTBW.s 			page 11


 422 0050 D0000000 		.word	.LC26
 423              		.cfi_endproc
 424              	.LFE69:
 425              		.size	makeAndonPatternCount, .-makeAndonPatternCount
 426              		.section	.text.makeAndonDevice,"ax",%progbits
 427              		.align	2
 428              		.global	makeAndonDevice
 429              		.code	16
 430              		.thumb_func
 431              		.type	makeAndonDevice, %function
 432              	makeAndonDevice:
 433              	.LFB70:
 132:andonApi.c    **** 
 133:andonApi.c    **** /* эШД ы▓ДьаДьЧРьДЬ ьВмьЪйэХШьзА ьХКыКФ эХиьИШыУд Start. */
 134:andonApi.c    **** void makeAndonDevice()
 135:andonApi.c    **** {
 434              		.loc 1 135 0
 435              		.cfi_startproc
 436              		@ args = 0, pretend = 0, frame = 0
 437              		@ frame_needed = 0, uses_anonymous_args = 0
 438 0000 00B5     		push	{lr}
 439              		.cfi_def_cfa_offset 4
 440              		.cfi_offset 14, -4
 441 0002 83B0     		sub	sp, sp, #12
 442              		.cfi_def_cfa_offset 16
 136:andonApi.c    ****     enQueueANDON_printf(ANDON_GET_DEVICE_NAME,"send_device&mac=%s&name=%s&ip=%s&ver=%s",g_network.M
 443              		.loc 1 136 0
 444 0004 074B     		ldr	r3, .L30
 445 0006 1B68     		ldr	r3, [r3]
 446 0008 7033     		adds	r3, r3, #112
 447 000a 074A     		ldr	r2, .L30+4
 448 000c 0749     		ldr	r1, .L30+8
 449 000e 0191     		str	r1, [sp, #4]
 450 0010 1100     		movs	r1, r2
 451 0012 4039     		subs	r1, r1, #64
 452 0014 0091     		str	r1, [sp]
 453 0016 0649     		ldr	r1, .L30+12
 454 0018 0320     		movs	r0, #3
 455 001a FFF7FEFF 		bl	enQueueANDON_printf
 456              	.LVL31:
 137:andonApi.c    **** }
 457              		.loc 1 137 0
 458 001e 03B0     		add	sp, sp, #12
 459              		@ sp needed
 460 0020 00BD     		pop	{pc}
 461              	.L31:
 462 0022 C046     		.align	2
 463              	.L30:
 464 0024 00000000 		.word	g_ptrServer
 465 0028 6C000000 		.word	g_network+108
 466 002c 38000000 		.word	.LC7
 467 0030 0C010000 		.word	.LC30
 468              		.cfi_endproc
 469              	.LFE70:
 470              		.size	makeAndonDevice, .-makeAndonDevice
 471              		.section	.text.makeRequestTarget,"ax",%progbits
 472              		.align	2
ARM GAS  C:\Users\luvsd\AppData\Local\Temp\ccGqqTBW.s 			page 12


 473              		.global	makeRequestTarget
 474              		.code	16
 475              		.thumb_func
 476              		.type	makeRequestTarget, %function
 477              	makeRequestTarget:
 478              	.LFB71:
 138:andonApi.c    **** 
 139:andonApi.c    **** void makeRequestTarget()
 140:andonApi.c    **** {
 479              		.loc 1 140 0
 480              		.cfi_startproc
 481              		@ args = 0, pretend = 0, frame = 0
 482              		@ frame_needed = 0, uses_anonymous_args = 0
 483 0000 10B5     		push	{r4, lr}
 484              		.cfi_def_cfa_offset 8
 485              		.cfi_offset 4, -8
 486              		.cfi_offset 14, -4
 141:andonApi.c    ****     enQueueANDON_printf(ANDON_REQUEST_TARGET,"get_target&device_idx=%d",g_Info.DeviceIdx);
 487              		.loc 1 141 0
 488 0002 034B     		ldr	r3, .L33
 489 0004 DA8D     		ldrh	r2, [r3, #46]
 490 0006 0349     		ldr	r1, .L33+4
 491 0008 0720     		movs	r0, #7
 492 000a FFF7FEFF 		bl	enQueueANDON_printf
 493              	.LVL32:
 142:andonApi.c    **** }
 494              		.loc 1 142 0
 495              		@ sp needed
 496 000e 10BD     		pop	{r4, pc}
 497              	.L34:
 498              		.align	2
 499              	.L33:
 500 0010 00000000 		.word	.LANCHOR0
 501 0014 34010000 		.word	.LC35
 502              		.cfi_endproc
 503              	.LFE71:
 504              		.size	makeRequestTarget, .-makeRequestTarget
 505              		.section	.text.makeAndonTextList,"ax",%progbits
 506              		.align	2
 507              		.global	makeAndonTextList
 508              		.code	16
 509              		.thumb_func
 510              		.type	makeAndonTextList, %function
 511              	makeAndonTextList:
 512              	.LFB72:
 143:andonApi.c    **** 
 144:andonApi.c    **** void makeAndonTextList()
 145:andonApi.c    **** {
 513              		.loc 1 145 0
 514              		.cfi_startproc
 515              		@ args = 0, pretend = 0, frame = 0
 516              		@ frame_needed = 0, uses_anonymous_args = 0
 517 0000 10B5     		push	{r4, lr}
 518              		.cfi_def_cfa_offset 8
 519              		.cfi_offset 4, -8
 520              		.cfi_offset 14, -4
 146:andonApi.c    ****     enQueueANDON_printf(ANDON_REQUEST_TEXT_LIST,"get_textList&device_idx=%d",g_ptrServer->deviceInd
ARM GAS  C:\Users\luvsd\AppData\Local\Temp\ccGqqTBW.s 			page 13


 521              		.loc 1 146 0
 522 0002 044B     		ldr	r3, .L36
 523 0004 1A68     		ldr	r2, [r3]
 524 0006 8423     		movs	r3, #132
 525 0008 D25A     		ldrh	r2, [r2, r3]
 526 000a 0349     		ldr	r1, .L36+4
 527 000c 0620     		movs	r0, #6
 528 000e FFF7FEFF 		bl	enQueueANDON_printf
 529              	.LVL33:
 147:andonApi.c    **** }
 530              		.loc 1 147 0
 531              		@ sp needed
 532 0012 10BD     		pop	{r4, pc}
 533              	.L37:
 534              		.align	2
 535              	.L36:
 536 0014 00000000 		.word	g_ptrServer
 537 0018 50010000 		.word	.LC38
 538              		.cfi_endproc
 539              	.LFE72:
 540              		.size	makeAndonTextList, .-makeAndonTextList
 541              		.section	.text.initAndon,"ax",%progbits
 542              		.align	2
 543              		.global	initAndon
 544              		.code	16
 545              		.thumb_func
 546              		.type	initAndon, %function
 547              	initAndon:
 548              	.LFB73:
 148:andonApi.c    **** /* эШД ы▓ДьаДьЧРьДЬ ьВмьЪйэХШьзА ьХКыКФ эХиьИШыУд End */
 149:andonApi.c    **** 
 150:andonApi.c    **** void initAndon()
 151:andonApi.c    **** {
 549              		.loc 1 151 0
 550              		.cfi_startproc
 551              		@ args = 0, pretend = 0, frame = 0
 552              		@ frame_needed = 0, uses_anonymous_args = 0
 553 0000 10B5     		push	{r4, lr}
 554              		.cfi_def_cfa_offset 8
 555              		.cfi_offset 4, -8
 556              		.cfi_offset 14, -4
 152:andonApi.c    ****     g_index_request_interval = registerCounter_1ms(5000);
 557              		.loc 1 152 0
 558 0002 0848     		ldr	r0, .L39
 559 0004 FFF7FEFF 		bl	registerCounter_1ms
 560              	.LVL34:
 561 0008 074B     		ldr	r3, .L39+4
 562 000a D870     		strb	r0, [r3, #3]
 153:andonApi.c    ****     makeAndonCurrentTimeRequest();
 563              		.loc 1 153 0
 564 000c FFF7FEFF 		bl	makeAndonCurrentTimeRequest
 565              	.LVL35:
 154:andonApi.c    ****     makeAndonStart();
 566              		.loc 1 154 0
 567 0010 FFF7FEFF 		bl	makeAndonStart
 568              	.LVL36:
 155:andonApi.c    ****     makeAndonList();
ARM GAS  C:\Users\luvsd\AppData\Local\Temp\ccGqqTBW.s 			page 14


 569              		.loc 1 155 0
 570 0014 FFF7FEFF 		bl	makeAndonList
 571              	.LVL37:
 156:andonApi.c    ****     makeDownTimeList();
 572              		.loc 1 156 0
 573 0018 FFF7FEFF 		bl	makeDownTimeList
 574              	.LVL38:
 157:andonApi.c    ****     makeDefectiveList();
 575              		.loc 1 157 0
 576 001c FFF7FEFF 		bl	makeDefectiveList
 577              	.LVL39:
 158:andonApi.c    ****     //makeAndonTextList();
 159:andonApi.c    **** }
 578              		.loc 1 159 0
 579              		@ sp needed
 580 0020 10BD     		pop	{r4, pc}
 581              	.L40:
 582 0022 C046     		.align	2
 583              	.L39:
 584 0024 88130000 		.word	5000
 585 0028 00000000 		.word	.LANCHOR0
 586              		.cfi_endproc
 587              	.LFE73:
 588              		.size	initAndon, .-initAndon
 589              		.global	g_Info
 590              		.global	g_bReceivedAndonStart
 591              		.global	g_index_request_interval
 592              		.global	g_bTargetReceived
 593              		.global	g_uReplyResult
 594              		.global	g_bDeviceInfoUpdate
 595              		.comm	g_AndonLists,194,4
 596              		.comm	Param,6,4
 597              		.section	.rodata.str1.4,"aMS",%progbits,1
 598              		.align	2
 599              	.LC1:
 600 0000 6765745F 		.ascii	"get_dateTime\000"
 600      64617465 
 600      54696D65 
 600      00
 601 000d 000000   		.space	3
 602              	.LC5:
 603 0010 73746172 		.ascii	"start&mac=%s&machine_no=%s&ip=%s&ver=%s\000"
 603      74266D61 
 603      633D2573 
 603      266D6163 
 603      68696E65 
 604              	.LC7:
 605 0038 454D4252 		.ascii	"EMBROIDERY_S V1\000"
 605      4F494445 
 605      52595F53 
 605      20563100 
 606              	.LC11:
 607 0048 6765745F 		.ascii	"get_andonList&mac=%s\000"
 607      616E646F 
 607      6E4C6973 
 607      74266D61 
 607      633D2573 
ARM GAS  C:\Users\luvsd\AppData\Local\Temp\ccGqqTBW.s 			page 15


 608 005d 000000   		.space	3
 609              	.LC13:
 610 0060 2F617069 		.ascii	"/api/sewing.php\000"
 610      2F736577 
 610      696E672E 
 610      70687000 
 611              	.LC15:
 612 0070 25733F63 		.ascii	"%s?code=%s\000"
 612      6F64653D 
 612      257300
 613 007b 00       		.space	1
 614              	.LC20:
 615 007c 73656E64 		.ascii	"send_andon_warning&mac=%s&andon_idx=%d\000"
 615      5F616E64 
 615      6F6E5F77 
 615      61726E69 
 615      6E67266D 
 616 00a3 00       		.space	1
 617              	.LC23:
 618 00a4 73656E64 		.ascii	"send_andon_completed&mac=%s&andon_idx=%d\000"
 618      5F616E64 
 618      6F6E5F63 
 618      6F6D706C 
 618      65746564 
 619 00cd 000000   		.space	3
 620              	.LC26:
 621 00d0 73656E64 		.ascii	"send_eCount&mac=%s&actual_qty=%u&ct=%0.1f&tb=%u&mrt"
 621      5F65436F 
 621      756E7426 
 621      6D61633D 
 621      25732661 
 622 0103 3D25302E 		.ascii	"=%0.1f\015\012\000"
 622      31660D0A 
 622      00
 623              	.LC30:
 624 010c 73656E64 		.ascii	"send_device&mac=%s&name=%s&ip=%s&ver=%s\000"
 624      5F646576 
 624      69636526 
 624      6D61633D 
 624      2573266E 
 625              	.LC35:
 626 0134 6765745F 		.ascii	"get_target&device_idx=%d\000"
 626      74617267 
 626      65742664 
 626      65766963 
 626      655F6964 
 627 014d 000000   		.space	3
 628              	.LC38:
 629 0150 6765745F 		.ascii	"get_textList&device_idx=%d\000"
 629      74657874 
 629      4C697374 
 629      26646576 
 629      6963655F 
 630              		.bss
 631              		.align	2
 632              		.set	.LANCHOR0,. + 0
 633              		.type	g_uAndonRequestType, %object
ARM GAS  C:\Users\luvsd\AppData\Local\Temp\ccGqqTBW.s 			page 16


 634              		.size	g_uAndonRequestType, 2
 635              	g_uAndonRequestType:
 636 0000 0000     		.space	2
 637              		.type	g_bReceivedAndonStart, %object
 638              		.size	g_bReceivedAndonStart, 1
 639              	g_bReceivedAndonStart:
 640 0002 00       		.space	1
 641              		.type	g_index_request_interval, %object
 642              		.size	g_index_request_interval, 1
 643              	g_index_request_interval:
 644 0003 00       		.space	1
 645              		.type	g_Info, %object
 646              		.size	g_Info, 392
 647              	g_Info:
 648 0004 00000000 		.space	392
 648      00000000 
 648      00000000 
 648      00000000 
 648      00000000 
 649              		.type	g_bTargetReceived, %object
 650              		.size	g_bTargetReceived, 1
 651              	g_bTargetReceived:
 652 018c 00       		.space	1
 653              		.type	g_uReplyResult, %object
 654              		.size	g_uReplyResult, 1
 655              	g_uReplyResult:
 656 018d 00       		.space	1
 657              		.type	g_bDeviceInfoUpdate, %object
 658              		.size	g_bDeviceInfoUpdate, 1
 659              	g_bDeviceInfoUpdate:
 660 018e 00       		.space	1
 661              		.text
 662              	.Letext0:
 663              		.file 2 "Generated_Source\\PSoC4/cytypes.h"
 664              		.file 3 "main.h"
 665              		.file 4 "andonApi.h"
 666              		.file 5 "andonMessageQueue.h"
 667              		.file 6 "lib/WIFI.h"
 668              		.file 7 "lib/server.h"
 669              		.file 8 "userProjectPatternSewing.h"
 670              		.file 9 "count.h"
 671              		.file 10 "Generated_Source\\PSoC4/RTC.h"
 672              		.file 11 "andonJson.h"
 673              		.file 12 "c:\\program files (x86)\\cypress\\psoc creator\\4.4\\psoc creator\\import\\gnu\\arm\\5.4
 674              		.file 13 "lib/sysTick.h"
 675              		.file 14 "WarningLight.h"
 676              		.file 15 "downtime.h"
 677              		.file 16 "defective.h"