ARM GAS  C:\Users\luvsd\AppData\Local\Temp\ccMJ9lAc.s 			page 1


   1              		.syntax unified
   2              		.cpu cortex-m0
   3              		.fpu softvfp
   4              		.eabi_attribute 20, 1
   5              		.eabi_attribute 21, 1
   6              		.eabi_attribute 23, 3
   7              		.eabi_attribute 24, 1
   8              		.eabi_attribute 25, 1
   9              		.eabi_attribute 26, 1
  10              		.eabi_attribute 30, 1
  11              		.eabi_attribute 34, 0
  12              		.eabi_attribute 18, 4
  13              		.thumb
  14              		.syntax unified
  15              		.file	"andonMessageQueue.c"
  16              		.text
  17              	.Ltext0:
  18              		.cfi_sections	.debug_frame
  19              		.global	__aeabi_idivmod
  20              		.section	.text.isFullQueueANDON,"ax",%progbits
  21              		.align	2
  22              		.global	isFullQueueANDON
  23              		.code	16
  24              		.thumb_func
  25              		.type	isFullQueueANDON, %function
  26              	isFullQueueANDON:
  27              	.LFB62:
  28              		.file 1 "andonMessageQueue.c"
   1:andonMessageQueue.c **** /* ========================================
   2:andonMessageQueue.c ****  *
   3:andonMessageQueue.c ****  * Copyright Suntech, 2023.02.01
   4:andonMessageQueue.c ****  * All Rights Reserved
   5:andonMessageQueue.c ****  * UNPUBLISHED, LICENSED SOFTWARE.
   6:andonMessageQueue.c ****  *
   7:andonMessageQueue.c ****  * CONFIDENTIAL AND PROPRIETARY INFORMATION
   8:andonMessageQueue.c ****  * WHICH IS THE PROPERTY OF Suntech.
   9:andonMessageQueue.c ****  *
  10:andonMessageQueue.c ****  * ========================================
  11:andonMessageQueue.c **** */
  12:andonMessageQueue.c **** #include "andonMessageQueue.h"
  13:andonMessageQueue.c **** 
  14:andonMessageQueue.c **** static short g_uSizeQueueANDON  = 0;  /* 접근자 함수로만 외부 접근 */
  15:andonMessageQueue.c **** static short g_uFrontQueueANDON = 0;
  16:andonMessageQueue.c **** static short g_uRearQueueANDON  = 0;
  17:andonMessageQueue.c **** static ANDON_QUEUE g_cQueue[MAX_ANDON_MESSAGE_QUEUE];
  18:andonMessageQueue.c **** 
  19:andonMessageQueue.c **** int isFullQueueANDON(void)
  20:andonMessageQueue.c **** {
  29              		.loc 1 20 0
  30              		.cfi_startproc
  31              		@ args = 0, pretend = 0, frame = 0
  32              		@ frame_needed = 0, uses_anonymous_args = 0
  33 0000 10B5     		push	{r4, lr}
  34              		.cfi_def_cfa_offset 8
  35              		.cfi_offset 4, -8
  36              		.cfi_offset 14, -4
  21:andonMessageQueue.c ****     if( (g_uRearQueueANDON + 1) % MAX_ANDON_MESSAGE_QUEUE == g_uFrontQueueANDON)
ARM GAS  C:\Users\luvsd\AppData\Local\Temp\ccMJ9lAc.s 			page 2


  37              		.loc 1 21 0
  38 0002 074C     		ldr	r4, .L4
  39 0004 0023     		movs	r3, #0
  40 0006 E05E     		ldrsh	r0, [r4, r3]
  41 0008 0130     		adds	r0, r0, #1
  42 000a 0621     		movs	r1, #6
  43 000c FFF7FEFF 		bl	__aeabi_idivmod
  44              	.LVL0:
  45 0010 0222     		movs	r2, #2
  46 0012 A35E     		ldrsh	r3, [r4, r2]
  47 0014 9942     		cmp	r1, r3
  48 0016 01D1     		bne	.L3
  22:andonMessageQueue.c ****         return 1;
  49              		.loc 1 22 0
  50 0018 0120     		movs	r0, #1
  51 001a 00E0     		b	.L2
  52              	.L3:
  23:andonMessageQueue.c ****     else
  24:andonMessageQueue.c ****         return 0;
  53              		.loc 1 24 0
  54 001c 0020     		movs	r0, #0
  55              	.L2:
  25:andonMessageQueue.c **** }
  56              		.loc 1 25 0
  57              		@ sp needed
  58 001e 10BD     		pop	{r4, pc}
  59              	.L5:
  60              		.align	2
  61              	.L4:
  62 0020 00000000 		.word	.LANCHOR0
  63              		.cfi_endproc
  64              	.LFE62:
  65              		.size	isFullQueueANDON, .-isFullQueueANDON
  66              		.section	.text.isEmptyQueueANDON,"ax",%progbits
  67              		.align	2
  68              		.global	isEmptyQueueANDON
  69              		.code	16
  70              		.thumb_func
  71              		.type	isEmptyQueueANDON, %function
  72              	isEmptyQueueANDON:
  73              	.LFB63:
  26:andonMessageQueue.c **** 
  27:andonMessageQueue.c **** int isEmptyQueueANDON(void)
  28:andonMessageQueue.c **** {
  74              		.loc 1 28 0
  75              		.cfi_startproc
  76              		@ args = 0, pretend = 0, frame = 0
  77              		@ frame_needed = 0, uses_anonymous_args = 0
  78              		@ link register save eliminated.
  29:andonMessageQueue.c ****     if(g_uFrontQueueANDON==g_uRearQueueANDON)
  79              		.loc 1 29 0
  80 0000 054B     		ldr	r3, .L9
  81 0002 0221     		movs	r1, #2
  82 0004 5A5E     		ldrsh	r2, [r3, r1]
  83 0006 0021     		movs	r1, #0
  84 0008 5B5E     		ldrsh	r3, [r3, r1]
  85 000a 9A42     		cmp	r2, r3
ARM GAS  C:\Users\luvsd\AppData\Local\Temp\ccMJ9lAc.s 			page 3


  86 000c 01D1     		bne	.L8
  30:andonMessageQueue.c ****             return 1;
  87              		.loc 1 30 0
  88 000e 0120     		movs	r0, #1
  89 0010 00E0     		b	.L7
  90              	.L8:
  31:andonMessageQueue.c ****     else
  32:andonMessageQueue.c ****             return 0;
  91              		.loc 1 32 0
  92 0012 0020     		movs	r0, #0
  93              	.L7:
  33:andonMessageQueue.c **** }
  94              		.loc 1 33 0
  95              		@ sp needed
  96 0014 7047     		bx	lr
  97              	.L10:
  98 0016 C046     		.align	2
  99              	.L9:
 100 0018 00000000 		.word	.LANCHOR0
 101              		.cfi_endproc
 102              	.LFE63:
 103              		.size	isEmptyQueueANDON, .-isEmptyQueueANDON
 104              		.section	.text.enQueueANDON,"ax",%progbits
 105              		.align	2
 106              		.global	enQueueANDON
 107              		.code	16
 108              		.thumb_func
 109              		.type	enQueueANDON, %function
 110              	enQueueANDON:
 111              	.LFB64:
  34:andonMessageQueue.c **** 
  35:andonMessageQueue.c **** short enQueueANDON(ANDON_QUEUE data)
  36:andonMessageQueue.c **** {
 112              		.loc 1 36 0
 113              		.cfi_startproc
 114              		@ args = 260, pretend = 16, frame = 0
 115              		@ frame_needed = 0, uses_anonymous_args = 0
 116 0000 84B0     		sub	sp, sp, #16
 117              		.cfi_def_cfa_offset 16
 118 0002 10B5     		push	{r4, lr}
 119              		.cfi_def_cfa_offset 24
 120              		.cfi_offset 4, -24
 121              		.cfi_offset 14, -20
 122 0004 0290     		str	r0, [sp, #8]
 123 0006 0391     		str	r1, [sp, #12]
 124 0008 0492     		str	r2, [sp, #16]
 125 000a 0593     		str	r3, [sp, #20]
  37:andonMessageQueue.c ****     if(isFullQueueANDON()) return FALSE;
 126              		.loc 1 37 0
 127 000c FFF7FEFF 		bl	isFullQueueANDON
 128              	.LVL1:
 129 0010 0028     		cmp	r0, #0
 130 0012 17D1     		bne	.L13
  38:andonMessageQueue.c **** 
  39:andonMessageQueue.c ****     g_uSizeQueueANDON++;
 131              		.loc 1 39 0
 132 0014 0E4C     		ldr	r4, .L14
ARM GAS  C:\Users\luvsd\AppData\Local\Temp\ccMJ9lAc.s 			page 4


 133 0016 A388     		ldrh	r3, [r4, #4]
 134 0018 0133     		adds	r3, r3, #1
 135 001a A380     		strh	r3, [r4, #4]
  40:andonMessageQueue.c ****     g_uRearQueueANDON = (g_uRearQueueANDON + 1) % MAX_ANDON_MESSAGE_QUEUE;
 136              		.loc 1 40 0
 137 001c 0023     		movs	r3, #0
 138 001e E05E     		ldrsh	r0, [r4, r3]
 139 0020 0130     		adds	r0, r0, #1
 140 0022 0621     		movs	r1, #6
 141 0024 FFF7FEFF 		bl	__aeabi_idivmod
 142              	.LVL2:
 143 0028 09B2     		sxth	r1, r1
 144 002a 2180     		strh	r1, [r4]
  41:andonMessageQueue.c ****     g_cQueue[g_uRearQueueANDON] = data;
 145              		.loc 1 41 0
 146 002c CB01     		lsls	r3, r1, #7
 147 002e 5918     		adds	r1, r3, r1
 148 0030 4800     		lsls	r0, r1, #1
 149 0032 2018     		adds	r0, r4, r0
 150 0034 0830     		adds	r0, r0, #8
 151 0036 8122     		movs	r2, #129
 152 0038 5200     		lsls	r2, r2, #1
 153 003a 02A9     		add	r1, sp, #8
 154 003c FFF7FEFF 		bl	memcpy
 155              	.LVL3:
  42:andonMessageQueue.c ****     return TRUE;
 156              		.loc 1 42 0
 157 0040 0120     		movs	r0, #1
 158 0042 00E0     		b	.L12
 159              	.L13:
  37:andonMessageQueue.c **** 
 160              		.loc 1 37 0
 161 0044 0020     		movs	r0, #0
 162              	.L12:
  43:andonMessageQueue.c **** }
 163              		.loc 1 43 0
 164              		@ sp needed
 165 0046 10BC     		pop	{r4}
 166 0048 08BC     		pop	{r3}
 167 004a 04B0     		add	sp, sp, #16
 168 004c 1847     		bx	r3
 169              	.L15:
 170 004e C046     		.align	2
 171              	.L14:
 172 0050 00000000 		.word	.LANCHOR0
 173              		.cfi_endproc
 174              	.LFE64:
 175              		.size	enQueueANDON, .-enQueueANDON
 176              		.section	.text.enQueueANDON_printf,"ax",%progbits
 177              		.align	2
 178              		.global	enQueueANDON_printf
 179              		.code	16
 180              		.thumb_func
 181              		.type	enQueueANDON_printf, %function
 182              	enQueueANDON_printf:
 183              	.LFB65:
  44:andonMessageQueue.c **** 
ARM GAS  C:\Users\luvsd\AppData\Local\Temp\ccMJ9lAc.s 			page 5


  45:andonMessageQueue.c **** short enQueueANDON_printf(uint16 type, const char *fmt, ...)
  46:andonMessageQueue.c **** {
 184              		.loc 1 46 0
 185              		.cfi_startproc
 186              		@ args = 4, pretend = 12, frame = 8
 187              		@ frame_needed = 0, uses_anonymous_args = 1
 188              	.LVL4:
 189 0000 0EB4     		push	{r1, r2, r3}
 190              		.cfi_def_cfa_offset 12
 191 0002 30B5     		push	{r4, r5, lr}
 192              		.cfi_def_cfa_offset 24
 193              		.cfi_offset 4, -24
 194              		.cfi_offset 5, -20
 195              		.cfi_offset 14, -16
 196 0004 82B0     		sub	sp, sp, #8
 197              		.cfi_def_cfa_offset 32
 198 0006 0500     		movs	r5, r0
  47:andonMessageQueue.c ****     if(isFullQueueANDON()) 
 199              		.loc 1 47 0
 200 0008 FFF7FEFF 		bl	isFullQueueANDON
 201              	.LVL5:
 202 000c 0028     		cmp	r0, #0
 203 000e 04D0     		beq	.L17
  48:andonMessageQueue.c ****     {
  49:andonMessageQueue.c ****         printf("isFullQueueANDON() FULL \r\n");
 204              		.loc 1 49 0
 205 0010 1348     		ldr	r0, .L19
 206 0012 FFF7FEFF 		bl	puts
 207              	.LVL6:
  50:andonMessageQueue.c ****         return FALSE;
 208              		.loc 1 50 0
 209 0016 0020     		movs	r0, #0
 210 0018 1DE0     		b	.L18
 211              	.L17:
  51:andonMessageQueue.c ****     }
  52:andonMessageQueue.c **** 
  53:andonMessageQueue.c ****     g_uSizeQueueANDON++;
 212              		.loc 1 53 0
 213 001a 124C     		ldr	r4, .L19+4
 214 001c A388     		ldrh	r3, [r4, #4]
 215 001e 0133     		adds	r3, r3, #1
 216 0020 A380     		strh	r3, [r4, #4]
  54:andonMessageQueue.c ****     g_uRearQueueANDON = (g_uRearQueueANDON + 1) % MAX_ANDON_MESSAGE_QUEUE;
 217              		.loc 1 54 0
 218 0022 0023     		movs	r3, #0
 219 0024 E05E     		ldrsh	r0, [r4, r3]
 220 0026 0130     		adds	r0, r0, #1
 221 0028 0621     		movs	r1, #6
 222 002a FFF7FEFF 		bl	__aeabi_idivmod
 223              	.LVL7:
 224 002e 09B2     		sxth	r1, r1
 225 0030 2180     		strh	r1, [r4]
  55:andonMessageQueue.c ****     
  56:andonMessageQueue.c ****     g_cQueue[g_uRearQueueANDON].type = type;
 226              		.loc 1 56 0
 227 0032 CA01     		lsls	r2, r1, #7
 228 0034 5218     		adds	r2, r2, r1
ARM GAS  C:\Users\luvsd\AppData\Local\Temp\ccMJ9lAc.s 			page 6


 229 0036 5300     		lsls	r3, r2, #1
 230 0038 E318     		adds	r3, r4, r3
 231 003a 0933     		adds	r3, r3, #9
 232 003c FF33     		adds	r3, r3, #255
 233 003e 1D80     		strh	r5, [r3]
  57:andonMessageQueue.c ****     
  58:andonMessageQueue.c ****     va_list ap;   
  59:andonMessageQueue.c ****     va_start(ap, fmt);
 234              		.loc 1 59 0
 235 0040 06AA     		add	r2, sp, #24
 236 0042 0192     		str	r2, [sp, #4]
  60:andonMessageQueue.c **** 
  61:andonMessageQueue.c ****     vsprintf(g_cQueue[g_uRearQueueANDON].message, fmt, ap);
 237              		.loc 1 61 0
 238 0044 0834     		adds	r4, r4, #8
 239 0046 CB01     		lsls	r3, r1, #7
 240 0048 5918     		adds	r1, r3, r1
 241 004a 4800     		lsls	r0, r1, #1
 242 004c 2018     		adds	r0, r4, r0
 243 004e 0599     		ldr	r1, [sp, #20]
 244 0050 FFF7FEFF 		bl	vsprintf
 245              	.LVL8:
  62:andonMessageQueue.c ****     va_end(ap);
  63:andonMessageQueue.c ****    
  64:andonMessageQueue.c **** //    printf(">>:%s\r\n",g_cQueue[g_uRearQueueANDON].message);
  65:andonMessageQueue.c ****         
  66:andonMessageQueue.c ****     return TRUE;    
 246              		.loc 1 66 0
 247 0054 0120     		movs	r0, #1
 248              	.L18:
  67:andonMessageQueue.c **** }
 249              		.loc 1 67 0
 250 0056 02B0     		add	sp, sp, #8
 251              		@ sp needed
 252 0058 30BC     		pop	{r4, r5}
 253 005a 08BC     		pop	{r3}
 254 005c 03B0     		add	sp, sp, #12
 255 005e 1847     		bx	r3
 256              	.L20:
 257              		.align	2
 258              	.L19:
 259 0060 00000000 		.word	.LC3
 260 0064 00000000 		.word	.LANCHOR0
 261              		.cfi_endproc
 262              	.LFE65:
 263              		.size	enQueueANDON_printf, .-enQueueANDON_printf
 264              		.section	.text.deQueueANDON,"ax",%progbits
 265              		.align	2
 266              		.global	deQueueANDON
 267              		.code	16
 268              		.thumb_func
 269              		.type	deQueueANDON, %function
 270              	deQueueANDON:
 271              	.LFB66:
  68:andonMessageQueue.c **** 
  69:andonMessageQueue.c **** ANDON_QUEUE *deQueueANDON(void)
  70:andonMessageQueue.c **** {
ARM GAS  C:\Users\luvsd\AppData\Local\Temp\ccMJ9lAc.s 			page 7


 272              		.loc 1 70 0
 273              		.cfi_startproc
 274              		@ args = 0, pretend = 0, frame = 0
 275              		@ frame_needed = 0, uses_anonymous_args = 0
 276 0000 10B5     		push	{r4, lr}
 277              		.cfi_def_cfa_offset 8
 278              		.cfi_offset 4, -8
 279              		.cfi_offset 14, -4
  71:andonMessageQueue.c ****     g_uSizeQueueANDON--;
 280              		.loc 1 71 0
 281 0002 094C     		ldr	r4, .L22
 282 0004 A388     		ldrh	r3, [r4, #4]
 283 0006 013B     		subs	r3, r3, #1
 284 0008 A380     		strh	r3, [r4, #4]
  72:andonMessageQueue.c ****     g_uFrontQueueANDON = (g_uFrontQueueANDON + 1) % MAX_ANDON_MESSAGE_QUEUE;
 285              		.loc 1 72 0
 286 000a 0223     		movs	r3, #2
 287 000c E05E     		ldrsh	r0, [r4, r3]
 288 000e 0130     		adds	r0, r0, #1
 289 0010 0621     		movs	r1, #6
 290 0012 FFF7FEFF 		bl	__aeabi_idivmod
 291              	.LVL9:
 292 0016 09B2     		sxth	r1, r1
 293 0018 6180     		strh	r1, [r4, #2]
  73:andonMessageQueue.c ****     
  74:andonMessageQueue.c ****     return &g_cQueue[g_uFrontQueueANDON];
 294              		.loc 1 74 0
 295 001a 0834     		adds	r4, r4, #8
 296 001c CB01     		lsls	r3, r1, #7
 297 001e 5918     		adds	r1, r3, r1
 298 0020 4800     		lsls	r0, r1, #1
 299 0022 2018     		adds	r0, r4, r0
  75:andonMessageQueue.c **** }
 300              		.loc 1 75 0
 301              		@ sp needed
 302 0024 10BD     		pop	{r4, pc}
 303              	.L23:
 304 0026 C046     		.align	2
 305              	.L22:
 306 0028 00000000 		.word	.LANCHOR0
 307              		.cfi_endproc
 308              	.LFE66:
 309              		.size	deQueueANDON, .-deQueueANDON
 310              		.section	.text.getFrontQueueANDON,"ax",%progbits
 311              		.align	2
 312              		.global	getFrontQueueANDON
 313              		.code	16
 314              		.thumb_func
 315              		.type	getFrontQueueANDON, %function
 316              	getFrontQueueANDON:
 317              	.LFB67:
  76:andonMessageQueue.c **** 
  77:andonMessageQueue.c **** ANDON_QUEUE *getFrontQueueANDON(void)
  78:andonMessageQueue.c **** {
 318              		.loc 1 78 0
 319              		.cfi_startproc
 320              		@ args = 0, pretend = 0, frame = 0
ARM GAS  C:\Users\luvsd\AppData\Local\Temp\ccMJ9lAc.s 			page 8


 321              		@ frame_needed = 0, uses_anonymous_args = 0
 322 0000 10B5     		push	{r4, lr}
 323              		.cfi_def_cfa_offset 8
 324              		.cfi_offset 4, -8
 325              		.cfi_offset 14, -4
  79:andonMessageQueue.c ****    return &g_cQueue[(g_uFrontQueueANDON + 1 ) % MAX_ANDON_MESSAGE_QUEUE ];
 326              		.loc 1 79 0
 327 0002 064C     		ldr	r4, .L25
 328 0004 0223     		movs	r3, #2
 329 0006 E05E     		ldrsh	r0, [r4, r3]
 330 0008 0130     		adds	r0, r0, #1
 331 000a 0621     		movs	r1, #6
 332 000c FFF7FEFF 		bl	__aeabi_idivmod
 333              	.LVL10:
 334 0010 0834     		adds	r4, r4, #8
 335 0012 CB01     		lsls	r3, r1, #7
 336 0014 5918     		adds	r1, r3, r1
 337 0016 4800     		lsls	r0, r1, #1
 338 0018 2018     		adds	r0, r4, r0
  80:andonMessageQueue.c **** }
 339              		.loc 1 80 0
 340              		@ sp needed
 341 001a 10BD     		pop	{r4, pc}
 342              	.L26:
 343              		.align	2
 344              	.L25:
 345 001c 00000000 		.word	.LANCHOR0
 346              		.cfi_endproc
 347              	.LFE67:
 348              		.size	getFrontQueueANDON, .-getFrontQueueANDON
 349              		.section	.text.getFrontNextQueueANDON,"ax",%progbits
 350              		.align	2
 351              		.global	getFrontNextQueueANDON
 352              		.code	16
 353              		.thumb_func
 354              		.type	getFrontNextQueueANDON, %function
 355              	getFrontNextQueueANDON:
 356              	.LFB68:
  81:andonMessageQueue.c **** 
  82:andonMessageQueue.c **** ANDON_QUEUE *getFrontNextQueueANDON(int i)
  83:andonMessageQueue.c **** {
 357              		.loc 1 83 0
 358              		.cfi_startproc
 359              		@ args = 0, pretend = 0, frame = 0
 360              		@ frame_needed = 0, uses_anonymous_args = 0
 361              	.LVL11:
 362 0000 10B5     		push	{r4, lr}
 363              		.cfi_def_cfa_offset 8
 364              		.cfi_offset 4, -8
 365              		.cfi_offset 14, -4
  84:andonMessageQueue.c ****    return &g_cQueue[(g_uFrontQueueANDON + 1 + i) % MAX_ANDON_MESSAGE_QUEUE];
 366              		.loc 1 84 0
 367 0002 074C     		ldr	r4, .L28
 368 0004 0222     		movs	r2, #2
 369 0006 A35E     		ldrsh	r3, [r4, r2]
 370 0008 0133     		adds	r3, r3, #1
 371 000a 1818     		adds	r0, r3, r0
ARM GAS  C:\Users\luvsd\AppData\Local\Temp\ccMJ9lAc.s 			page 9


 372              	.LVL12:
 373 000c 0621     		movs	r1, #6
 374 000e FFF7FEFF 		bl	__aeabi_idivmod
 375              	.LVL13:
 376 0012 0834     		adds	r4, r4, #8
 377 0014 CB01     		lsls	r3, r1, #7
 378 0016 5918     		adds	r1, r3, r1
 379 0018 4800     		lsls	r0, r1, #1
 380 001a 2018     		adds	r0, r4, r0
  85:andonMessageQueue.c **** }
 381              		.loc 1 85 0
 382              		@ sp needed
 383 001c 10BD     		pop	{r4, pc}
 384              	.L29:
 385 001e C046     		.align	2
 386              	.L28:
 387 0020 00000000 		.word	.LANCHOR0
 388              		.cfi_endproc
 389              	.LFE68:
 390              		.size	getFrontNextQueueANDON, .-getFrontNextQueueANDON
 391              		.section	.text.getRearQueueANDON,"ax",%progbits
 392              		.align	2
 393              		.global	getRearQueueANDON
 394              		.code	16
 395              		.thumb_func
 396              		.type	getRearQueueANDON, %function
 397              	getRearQueueANDON:
 398              	.LFB69:
  86:andonMessageQueue.c **** 
  87:andonMessageQueue.c **** ANDON_QUEUE *getRearQueueANDON(void)
  88:andonMessageQueue.c **** {
 399              		.loc 1 88 0
 400              		.cfi_startproc
 401              		@ args = 0, pretend = 0, frame = 0
 402              		@ frame_needed = 0, uses_anonymous_args = 0
 403 0000 10B5     		push	{r4, lr}
 404              		.cfi_def_cfa_offset 8
 405              		.cfi_offset 4, -8
 406              		.cfi_offset 14, -4
  89:andonMessageQueue.c ****    return &g_cQueue[ g_uRearQueueANDON % MAX_ANDON_MESSAGE_QUEUE];
 407              		.loc 1 89 0
 408 0002 064C     		ldr	r4, .L31
 409 0004 0023     		movs	r3, #0
 410 0006 E05E     		ldrsh	r0, [r4, r3]
 411 0008 0621     		movs	r1, #6
 412 000a FFF7FEFF 		bl	__aeabi_idivmod
 413              	.LVL14:
 414 000e 09B2     		sxth	r1, r1
 415 0010 0834     		adds	r4, r4, #8
 416 0012 CB01     		lsls	r3, r1, #7
 417 0014 5918     		adds	r1, r3, r1
 418 0016 4800     		lsls	r0, r1, #1
 419 0018 2018     		adds	r0, r4, r0
  90:andonMessageQueue.c **** }
 420              		.loc 1 90 0
 421              		@ sp needed
 422 001a 10BD     		pop	{r4, pc}
ARM GAS  C:\Users\luvsd\AppData\Local\Temp\ccMJ9lAc.s 			page 10


 423              	.L32:
 424              		.align	2
 425              	.L31:
 426 001c 00000000 		.word	.LANCHOR0
 427              		.cfi_endproc
 428              	.LFE69:
 429              		.size	getRearQueueANDON, .-getRearQueueANDON
 430              		.section	.text.getSizeQueueANDON,"ax",%progbits
 431              		.align	2
 432              		.global	getSizeQueueANDON
 433              		.code	16
 434              		.thumb_func
 435              		.type	getSizeQueueANDON, %function
 436              	getSizeQueueANDON:
 437              	.LFB70:
  91:andonMessageQueue.c **** 
  92:andonMessageQueue.c **** short getSizeQueueANDON(void)
  93:andonMessageQueue.c **** {
 438              		.loc 1 93 0
 439              		.cfi_startproc
 440              		@ args = 0, pretend = 0, frame = 0
 441              		@ frame_needed = 0, uses_anonymous_args = 0
 442              		@ link register save eliminated.
  94:andonMessageQueue.c ****    return g_uSizeQueueANDON;
 443              		.loc 1 94 0
 444 0000 014B     		ldr	r3, .L34
 445 0002 0420     		movs	r0, #4
 446 0004 185E     		ldrsh	r0, [r3, r0]
  95:andonMessageQueue.c **** }
 447              		.loc 1 95 0
 448              		@ sp needed
 449 0006 7047     		bx	lr
 450              	.L35:
 451              		.align	2
 452              	.L34:
 453 0008 00000000 		.word	.LANCHOR0
 454              		.cfi_endproc
 455              	.LFE70:
 456              		.size	getSizeQueueANDON, .-getSizeQueueANDON
 457              		.section	.text.PrintInfoQueueANDON,"ax",%progbits
 458              		.align	2
 459              		.global	PrintInfoQueueANDON
 460              		.code	16
 461              		.thumb_func
 462              		.type	PrintInfoQueueANDON, %function
 463              	PrintInfoQueueANDON:
 464              	.LFB71:
  96:andonMessageQueue.c **** 
  97:andonMessageQueue.c **** void PrintInfoQueueANDON(void)
  98:andonMessageQueue.c **** {
 465              		.loc 1 98 0
 466              		.cfi_startproc
 467              		@ args = 0, pretend = 0, frame = 0
 468              		@ frame_needed = 0, uses_anonymous_args = 0
 469              		@ link register save eliminated.
  99:andonMessageQueue.c ****   // printf("Queue -> Size : %d\n", g_uSizeQueueANDON);
 100:andonMessageQueue.c ****   // printf("Rest Size : %d\n", getRestSizeQueue());
ARM GAS  C:\Users\luvsd\AppData\Local\Temp\ccMJ9lAc.s 			page 11


 101:andonMessageQueue.c **** }
 470              		.loc 1 101 0
 471              		@ sp needed
 472 0000 7047     		bx	lr
 473              		.cfi_endproc
 474              	.LFE71:
 475              		.size	PrintInfoQueueANDON, .-PrintInfoQueueANDON
 476              		.comm	Param,6,4
 477 0002 C046     		.section	.rodata.str1.4,"aMS",%progbits,1
 478              		.align	2
 479              	.LC3:
 480 0000 69734675 		.ascii	"isFullQueueANDON() FULL \015\000"
 480      6C6C5175 
 480      65756541 
 480      4E444F4E 
 480      28292046 
 481              		.bss
 482              		.align	2
 483              		.set	.LANCHOR0,. + 0
 484              		.type	g_uRearQueueANDON, %object
 485              		.size	g_uRearQueueANDON, 2
 486              	g_uRearQueueANDON:
 487 0000 0000     		.space	2
 488              		.type	g_uFrontQueueANDON, %object
 489              		.size	g_uFrontQueueANDON, 2
 490              	g_uFrontQueueANDON:
 491 0002 0000     		.space	2
 492              		.type	g_uSizeQueueANDON, %object
 493              		.size	g_uSizeQueueANDON, 2
 494              	g_uSizeQueueANDON:
 495 0004 0000     		.space	2
 496 0006 0000     		.space	2
 497              		.type	g_cQueue, %object
 498              		.size	g_cQueue, 1548
 499              	g_cQueue:
 500 0008 00000000 		.space	1548
 500      00000000 
 500      00000000 
 500      00000000 
 500      00000000 
 501              		.text
 502              	.Letext0:
 503              		.file 2 "Generated_Source\\PSoC4/cytypes.h"
 504              		.file 3 "c:\\program files (x86)\\cypress\\psoc creator\\4.4\\psoc creator\\import\\gnu\\arm\\5.4.
 505              		.file 4 "<built-in>"
 506              		.file 5 "main.h"
 507              		.file 6 "andonMessageQueue.h"
 508              		.file 7 "Generated_Source\\PSoC4/RTC.h"
 509              		.file 8 "c:\\program files (x86)\\cypress\\psoc creator\\4.4\\psoc creator\\import\\gnu\\arm\\5.4.