ARM GAS  C:\Users\luvsd\AppData\Local\Temp\ccV8yooc.s 			page 1


   1              		.syntax unified
   2              		.cpu cortex-m0
   3              		.fpu softvfp
   4              		.eabi_attribute 20, 1
   5              		.eabi_attribute 21, 1
   6              		.eabi_attribute 23, 3
   7              		.eabi_attribute 24, 1
   8              		.eabi_attribute 25, 1
   9              		.eabi_attribute 26, 1
  10              		.eabi_attribute 30, 1
  11              		.eabi_attribute 34, 0
  12              		.eabi_attribute 18, 4
  13              		.thumb
  14              		.syntax unified
  15              		.file	"andonJson.c"
  16              		.text
  17              	.Ltext0:
  18              		.cfi_sections	.debug_frame
  19              		.global	__aeabi_uidiv
  20              		.global	__aeabi_uldivmod
  21              		.section	.text.andonCurrentTimeParsing,"ax",%progbits
  22              		.align	2
  23              		.global	andonCurrentTimeParsing
  24              		.code	16
  25              		.thumb_func
  26              		.type	andonCurrentTimeParsing, %function
  27              	andonCurrentTimeParsing:
  28              	.LFB63:
  29              		.file 1 "andonJson.c"
   1:andonJson.c   **** /* ========================================
   2:andonJson.c   ****  *
   3:andonJson.c   ****  * Copyright Suntech, 2023.02.01
   4:andonJson.c   ****  * All Rights Reserved
   5:andonJson.c   ****  * UNPUBLISHED, LICENSED SOFTWARE.
   6:andonJson.c   ****  *
   7:andonJson.c   ****  * CONFIDENTIAL AND PROPRIETARY INFORMATION
   8:andonJson.c   ****  * WHICH IS THE PROPERTY OF Suntech.
   9:andonJson.c   ****  *
  10:andonJson.c   ****  * ========================================
  11:andonJson.c   **** */
  12:andonJson.c   **** #include "andonJson.h"
  13:andonJson.c   **** #include "jsonUtil.h"
  14:andonJson.c   **** #include "andonApi.h"
  15:andonJson.c   **** #include "count.h"
  16:andonJson.c   **** #include "lib/RealTimeClock.h"
  17:andonJson.c   **** #include "lib/widget.h"
  18:andonJson.c   **** #include "lib/externalFlash.h"
  19:andonJson.c   **** #include "userProjectPatternSewing.h"
  20:andonJson.c   **** #include "lib/sysTick.h"
  21:andonJson.c   **** #include "WarningLight.h"
  22:andonJson.c   **** #include "downtime.h"
  23:andonJson.c   **** #include "defective.h"
  24:andonJson.c   **** 
  25:andonJson.c   **** uint32 g_lastSendTime;
  26:andonJson.c   **** 
  27:andonJson.c   **** uint8 andonCurrentTimeParsing  (char *jsonString, int16 sizeOfJson);
  28:andonJson.c   **** uint8 andonGetDeviceName       (char *jsonString, int16 sizeOfJson);
ARM GAS  C:\Users\luvsd\AppData\Local\Temp\ccV8yooc.s 			page 2


  29:andonJson.c   **** uint8 andonStart               (char *jsonString, int16 sizeOfJson);
  30:andonJson.c   **** uint8 andonRequestItem         (char *jsonString, int16 sizeOfJson);
  31:andonJson.c   **** uint8 andonSendCount           (char *jsonString, int16 sizeOfJson);
  32:andonJson.c   **** uint8 andonMenuParsing         (char *jsonString, int16 sizeOfJson);
  33:andonJson.c   **** uint8 andonRequestTargetParsing(char *jsonString, int16 sizeOfJson); 
  34:andonJson.c   **** 
  35:andonJson.c   **** void andonJsonParsor(int type, char *jsonString, int16 sizeOfJson)
  36:andonJson.c   **** {
  37:andonJson.c   ****     //printf("> %d, %s\r\n",type,jsonString);
  38:andonJson.c   ****     switch(type)
  39:andonJson.c   ****     {
  40:andonJson.c   ****         case ANDON_CURRENT_TIME:       andonCurrentTimeParsing     (jsonString, sizeOfJson); break;
  41:andonJson.c   ****         case ANDON_GET_DEVICE_NAME:    if(andonGetDeviceName (jsonString, sizeOfJson) == TRUE) make
  42:andonJson.c   ****         case ANDON_START:              andonStart                  (jsonString, sizeOfJson);
  43:andonJson.c   ****                                        //makeAndonList();
  44:andonJson.c   ****                                        break;
  45:andonJson.c   ****         case ANDON_REQUEST_ITEM:       andonRequestItem (jsonString, sizeOfJson); 
  46:andonJson.c   ****                                        makeAndonList();
  47:andonJson.c   ****                                        break;
  48:andonJson.c   ****         case ANDON_SEND_SEWING_COUNT:  //makeAndonStart();                            
  49:andonJson.c   ****         case ANDON_SEND_PATTERN_COUNT: andonSendCount              (jsonString, sizeOfJson); 
  50:andonJson.c   ****                                        ///makeAndonStart();
  51:andonJson.c   ****         break;        
  52:andonJson.c   ****         case ANDON_REQUEST_LIST:       andonMenuParsing            (jsonString, sizeOfJson); break;
  53:andonJson.c   ****         case ANDON_REQUEST_TEXT_LIST:  andonMenuParsing            (jsonString, sizeOfJson); break;
  54:andonJson.c   ****         case ANDON_REQUEST_TARGET:     andonRequestTargetParsing   (jsonString, sizeOfJson); 
  55:andonJson.c   ****                                        if(isInTopMenu()) g_TopMenuNode->func(NULL,REFLASH);
  56:andonJson.c   ****                                        break; 
  57:andonJson.c   ****                                     
  58:andonJson.c   ****         case DOWNTIME_REQUEST_LIST:     
  59:andonJson.c   ****         case DOWNTIME_REQUEST_ITEM:    downTimeParsing             (jsonString, sizeOfJson);  break
  60:andonJson.c   ****         case DEFECTIVE_REQUEST_LIST:     
  61:andonJson.c   ****         case DEFECTIVE_REQUEST_ITEM:   defectiveParsing             (jsonString, sizeOfJson);  brea
  62:andonJson.c   **** //        case DOWNTIME_REQUEST_LIST:    downTimeParsing             (jsonString, sizeOfJson); brea
  63:andonJson.c   **** //        case DOWNTIME_REQUEST_ITEM:    downTimeRequestItem         (jsonString, sizeOfJson);  bre
  64:andonJson.c   **** 
  65:andonJson.c   ****     }
  66:andonJson.c   **** }
  67:andonJson.c   **** 
  68:andonJson.c   **** uint8 andonCurrentTimeParsing(char *jsonString, int16 sizeOfJson)
  69:andonJson.c   **** {
  30              		.loc 1 69 0
  31              		.cfi_startproc
  32              		@ args = 0, pretend = 0, frame = 1312
  33              		@ frame_needed = 0, uses_anonymous_args = 0
  34              	.LVL0:
  35 0000 F0B5     		push	{r4, r5, r6, r7, lr}
  36              		.cfi_def_cfa_offset 20
  37              		.cfi_offset 4, -20
  38              		.cfi_offset 5, -16
  39              		.cfi_offset 6, -12
  40              		.cfi_offset 7, -8
  41              		.cfi_offset 14, -4
  42 0002 804C     		ldr	r4, .L22
  43 0004 A544     		add	sp, sp, r4
  44              		.cfi_def_cfa_offset 1344
  45 0006 0500     		movs	r5, r0
ARM GAS  C:\Users\luvsd\AppData\Local\Temp\ccV8yooc.s 			page 3


  46 0008 0390     		str	r0, [sp, #12]
  47 000a 0C00     		movs	r4, r1
  70:andonJson.c   ****     int i;    
  71:andonJson.c   ****     int r;
  72:andonJson.c   ****     jsmn_parser p;
  73:andonJson.c   ****     jsmntok_t t[80]; /* 최대 토큰 수: 80 (10개 항목 JSON = 73 tokens, 여유 7) */
  74:andonJson.c   **** 
  75:andonJson.c   ****     jsmn_init(&p);
  48              		.loc 1 75 0
  49 000c 7E4B     		ldr	r3, .L22+4
  50 000e 04AA     		add	r2, sp, #16
  51 0010 9446     		mov	ip, r2
  52 0012 6344     		add	r3, r3, ip
  53 0014 1800     		movs	r0, r3
  54              	.LVL1:
  55 0016 FFF7FEFF 		bl	jsmn_init
  56              	.LVL2:
  76:andonJson.c   ****     r = jsmn_parse(&p, jsonString, sizeOfJson, t, sizeof(t) / sizeof(t[0]));
  57              		.loc 1 76 0
  58 001a 5023     		movs	r3, #80
  59 001c 0093     		str	r3, [sp]
  60 001e 07AB     		add	r3, sp, #28
  61 0020 2200     		movs	r2, r4
  62 0022 2900     		movs	r1, r5
  63 0024 7848     		ldr	r0, .L22+4
  64 0026 04AC     		add	r4, sp, #16
  65 0028 A446     		mov	ip, r4
  66 002a 6044     		add	r0, r0, ip
  67 002c FFF7FEFF 		bl	jsmn_parse
  68              	.LVL3:
  69 0030 051E     		subs	r5, r0, #0
  70              	.LVL4:
  77:andonJson.c   ****     
  78:andonJson.c   ****     if (r < 0) {
  71              		.loc 1 78 0
  72 0032 05DA     		bge	.L2
  79:andonJson.c   ****         #ifdef DEBUG_ANDON_JSON
  80:andonJson.c   ****             printf("Failed to parse JSON: %d\r\n", r);
  73              		.loc 1 80 0
  74 0034 0100     		movs	r1, r0
  75 0036 7548     		ldr	r0, .L22+8
  76              	.LVL5:
  77 0038 FFF7FEFF 		bl	printf
  78              	.LVL6:
  81:andonJson.c   ****         #endif
  82:andonJson.c   ****         return FALSE;
  79              		.loc 1 82 0
  80 003c 0020     		movs	r0, #0
  81 003e DEE0     		b	.L3
  82              	.LVL7:
  83              	.L2:
  83:andonJson.c   ****     }
  84:andonJson.c   ****     
  85:andonJson.c   ****     /* Assume the top-level element is an object */
  86:andonJson.c   ****     if (r < 1 || t[0].type != JSMN_OBJECT) {
  84              		.loc 1 86 0
  85 0040 0028     		cmp	r0, #0
ARM GAS  C:\Users\luvsd\AppData\Local\Temp\ccV8yooc.s 			page 4


  86 0042 03DD     		ble	.L4
  87              		.loc 1 86 0 is_stmt 0 discriminator 1
  88 0044 07AB     		add	r3, sp, #28
  89 0046 1B78     		ldrb	r3, [r3]
  90 0048 012B     		cmp	r3, #1
  91 004a 29D0     		beq	.L18
  92              	.L4:
  87:andonJson.c   ****         #ifdef DEBUG_ANDON_JSON
  88:andonJson.c   ****             printf("Object expected type: %d\r\n", t[0].type);
  93              		.loc 1 88 0 is_stmt 1
  94 004c 07AB     		add	r3, sp, #28
  95 004e 1978     		ldrb	r1, [r3]
  96 0050 6F48     		ldr	r0, .L22+12
  97              	.LVL8:
  98 0052 FFF7FEFF 		bl	printf
  99              	.LVL9:
  89:andonJson.c   ****         #endif        
  90:andonJson.c   ****         return FALSE;
 100              		.loc 1 90 0
 101 0056 0020     		movs	r0, #0
 102 0058 D1E0     		b	.L3
 103              	.LVL10:
 104              	.L9:
  91:andonJson.c   ****     }
  92:andonJson.c   **** 
  93:andonJson.c   ****     /* [BUG FIX] AUTO RESET — 교대 기반 비교
  94:andonJson.c   ****      *
  95:andonJson.c   ****      * 문제: 기존 코드는 Unix time / 86400(자정 기준)으로 날짜를 구분.
  96:andonJson.c   ****      *       2교대(21:00~06:00)처럼 자정을 넘는 교대에서 자정 이후 전원 ON 시
  97:andonJson.c   ****      *       잘못된 리셋이 발생하고, 1교대 전환 시 리셋이 누락됨.
  98:andonJson.c   ****      *
  99:andonJson.c   ****      * 해결: 서버가 work_date + shift_idx 를 함께 반환하면
 100:andonJson.c   ****      *       "work_date_YYYYMMDD * 10 + shift_idx" 조합으로 비교.
 101:andonJson.c   ****      *       구조체 필드 추가 없이 lastPowerOnDateTime 재활용 (EEPROM CRC 호환).
 102:andonJson.c   ****      *
 103:andonJson.c   ****      * Fallback: 서버가 구버전이어서 work_date/shift_idx 미포함 시
 104:andonJson.c   ****      *           기존 달력 날짜(/ 86400) 비교로 동작. */
 105:andonJson.c   **** 
 106:andonJson.c   ****     /* Pass 1: 모든 관련 토큰 인덱스 수집 */
 107:andonJson.c   ****     int datetime_tok  = -1;
 108:andonJson.c   ****     int work_date_tok = -1;
 109:andonJson.c   ****     int shift_idx_tok = -1;
 110:andonJson.c   **** 
 111:andonJson.c   ****     for (i = 1; i < r; i++)
 112:andonJson.c   ****     {
 113:andonJson.c   ****         if      (jsoneq(jsonString, &t[i], "datetime")  == 0) { datetime_tok  = ++i; }
 105              		.loc 1 113 0
 106 005a 3C01     		lsls	r4, r7, #4
 107 005c 07AB     		add	r3, sp, #28
 108 005e 9C46     		mov	ip, r3
 109 0060 6444     		add	r4, r4, ip
 110 0062 6C4A     		ldr	r2, .L22+16
 111 0064 2100     		movs	r1, r4
 112 0066 0398     		ldr	r0, [sp, #12]
 113 0068 FFF7FEFF 		bl	jsoneq
 114              	.LVL11:
 115 006c 0028     		cmp	r0, #0
ARM GAS  C:\Users\luvsd\AppData\Local\Temp\ccV8yooc.s 			page 5


 116 006e 02D1     		bne	.L6
 117              		.loc 1 113 0 is_stmt 0 discriminator 1
 118 0070 0137     		adds	r7, r7, #1
 119              	.LVL12:
 120 0072 3E00     		movs	r6, r7
 121 0074 12E0     		b	.L7
 122              	.LVL13:
 123              	.L6:
 114:andonJson.c   ****         else if (jsoneq(jsonString, &t[i], "work_date") == 0) { work_date_tok = ++i; }
 124              		.loc 1 114 0 is_stmt 1
 125 0076 684A     		ldr	r2, .L22+20
 126 0078 2100     		movs	r1, r4
 127 007a 0398     		ldr	r0, [sp, #12]
 128 007c FFF7FEFF 		bl	jsoneq
 129              	.LVL14:
 130 0080 0028     		cmp	r0, #0
 131 0082 02D1     		bne	.L8
 132              		.loc 1 114 0 is_stmt 0 discriminator 1
 133 0084 0137     		adds	r7, r7, #1
 134              	.LVL15:
 135 0086 0497     		str	r7, [sp, #16]
 136 0088 08E0     		b	.L7
 137              	.LVL16:
 138              	.L8:
 115:andonJson.c   ****         else if (jsoneq(jsonString, &t[i], "shift_idx") == 0) { shift_idx_tok = ++i; }
 139              		.loc 1 115 0 is_stmt 1
 140 008a 644A     		ldr	r2, .L22+24
 141 008c 2100     		movs	r1, r4
 142 008e 0398     		ldr	r0, [sp, #12]
 143 0090 FFF7FEFF 		bl	jsoneq
 144              	.LVL17:
 145 0094 0028     		cmp	r0, #0
 146 0096 01D1     		bne	.L7
 147              		.loc 1 115 0 is_stmt 0 discriminator 1
 148 0098 0137     		adds	r7, r7, #1
 149              	.LVL18:
 150 009a 0597     		str	r7, [sp, #20]
 151              	.LVL19:
 152              	.L7:
 111:andonJson.c   ****     {
 153              		.loc 1 111 0 is_stmt 1 discriminator 2
 154 009c 0137     		adds	r7, r7, #1
 155              	.LVL20:
 156 009e 05E0     		b	.L5
 157              	.LVL21:
 158              	.L18:
 159 00a0 0123     		movs	r3, #1
 160 00a2 5B42     		rsbs	r3, r3, #0
 161 00a4 0593     		str	r3, [sp, #20]
 162 00a6 0493     		str	r3, [sp, #16]
 163 00a8 1E00     		movs	r6, r3
 164 00aa 0127     		movs	r7, #1
 165              	.LVL22:
 166              	.L5:
 111:andonJson.c   ****     {
 167              		.loc 1 111 0 is_stmt 0 discriminator 1
 168 00ac AF42     		cmp	r7, r5
ARM GAS  C:\Users\luvsd\AppData\Local\Temp\ccV8yooc.s 			page 6


 169 00ae D4DB     		blt	.L9
 116:andonJson.c   ****     }
 117:andonJson.c   **** 
 118:andonJson.c   ****     if (datetime_tok < 0)
 170              		.loc 1 118 0 is_stmt 1
 171 00b0 002E     		cmp	r6, #0
 172 00b2 09DA     		bge	.L10
 119:andonJson.c   ****     {
 120:andonJson.c   ****         if(isInTopMenu()) reflashMenu();
 173              		.loc 1 120 0
 174 00b4 FFF7FEFF 		bl	isInTopMenu
 175              	.LVL23:
 176 00b8 0028     		cmp	r0, #0
 177 00ba 01D0     		beq	.L11
 178              		.loc 1 120 0 is_stmt 0 discriminator 1
 179 00bc FFF7FEFF 		bl	reflashMenu
 180              	.LVL24:
 181              	.L11:
 121:andonJson.c   ****         SaveExternalFlashConfig();
 182              		.loc 1 121 0 is_stmt 1
 183 00c0 FFF7FEFF 		bl	SaveExternalFlashConfig
 184              	.LVL25:
 122:andonJson.c   ****         return FALSE;
 185              		.loc 1 122 0
 186 00c4 0020     		movs	r0, #0
 187 00c6 9AE0     		b	.L3
 188              	.L10:
 189              	.LVL26:
 123:andonJson.c   ****     }
 124:andonJson.c   **** 
 125:andonJson.c   ****     /* Pass 2: work_date, shift_idx 파싱 */
 126:andonJson.c   ****     uint32 newWorkDate = 0u;  /* YYYYMMDD */
 127:andonJson.c   ****     uint8  newShiftIdx = 0u;
 128:andonJson.c   **** 
 129:andonJson.c   ****     if (work_date_tok >= 0)
 190              		.loc 1 129 0
 191 00c8 049B     		ldr	r3, [sp, #16]
 192 00ca 002B     		cmp	r3, #0
 193 00cc 35DB     		blt	.L19
 194              	.LBB2:
 130:andonJson.c   ****     {
 131:andonJson.c   ****         /* "YYYY-MM-DD" (10자) → YYYYMMDD uint32 */
 132:andonJson.c   ****         char *wd = GetJSON_Token_String(&t[work_date_tok], jsonString);
 195              		.loc 1 132 0
 196 00ce 1801     		lsls	r0, r3, #4
 197 00d0 07AB     		add	r3, sp, #28
 198 00d2 9C46     		mov	ip, r3
 199 00d4 6044     		add	r0, r0, ip
 200 00d6 0399     		ldr	r1, [sp, #12]
 201 00d8 FFF7FEFF 		bl	GetJSON_Token_String
 202              	.LVL27:
 133:andonJson.c   ****         uint32 yr = ((uint32)(wd[0]-'0'))*1000u + ((uint32)(wd[1]-'0'))*100u
 203              		.loc 1 133 0
 204 00dc 0278     		ldrb	r2, [r0]
 205 00de 303A     		subs	r2, r2, #48
 206 00e0 FA23     		movs	r3, #250
 207 00e2 9B00     		lsls	r3, r3, #2
ARM GAS  C:\Users\luvsd\AppData\Local\Temp\ccV8yooc.s 			page 7


 208 00e4 5A43     		muls	r2, r3
 209 00e6 4178     		ldrb	r1, [r0, #1]
 210 00e8 3039     		subs	r1, r1, #48
 211 00ea 6423     		movs	r3, #100
 212 00ec 5943     		muls	r1, r3
 213 00ee 5218     		adds	r2, r2, r1
 134:andonJson.c   ****                   + ((uint32)(wd[2]-'0'))*10u   +  (uint32)(wd[3]-'0');
 214              		.loc 1 134 0
 215 00f0 8178     		ldrb	r1, [r0, #2]
 216 00f2 3039     		subs	r1, r1, #48
 217 00f4 8C00     		lsls	r4, r1, #2
 218 00f6 6118     		adds	r1, r4, r1
 219 00f8 4C00     		lsls	r4, r1, #1
 220 00fa 1219     		adds	r2, r2, r4
 221 00fc C178     		ldrb	r1, [r0, #3]
 222 00fe 8A18     		adds	r2, r1, r2
 133:andonJson.c   ****         uint32 yr = ((uint32)(wd[0]-'0'))*1000u + ((uint32)(wd[1]-'0'))*100u
 223              		.loc 1 133 0
 224 0100 303A     		subs	r2, r2, #48
 225 0102 1100     		movs	r1, r2
 226              	.LVL28:
 135:andonJson.c   ****         uint32 mo = ((uint32)(wd[5]-'0'))*10u + (uint32)(wd[6]-'0');
 227              		.loc 1 135 0
 228 0104 4279     		ldrb	r2, [r0, #5]
 229 0106 303A     		subs	r2, r2, #48
 230 0108 9400     		lsls	r4, r2, #2
 231 010a A218     		adds	r2, r4, r2
 232 010c 5400     		lsls	r4, r2, #1
 233 010e 8279     		ldrb	r2, [r0, #6]
 234 0110 1419     		adds	r4, r2, r4
 235 0112 3022     		movs	r2, #48
 236 0114 5242     		rsbs	r2, r2, #0
 237 0116 9446     		mov	ip, r2
 238 0118 A444     		add	ip, ip, r4
 239              	.LVL29:
 136:andonJson.c   ****         uint32 dy = ((uint32)(wd[8]-'0'))*10u + (uint32)(wd[9]-'0');
 240              		.loc 1 136 0
 241 011a 027A     		ldrb	r2, [r0, #8]
 242 011c 303A     		subs	r2, r2, #48
 243 011e 9400     		lsls	r4, r2, #2
 244 0120 A218     		adds	r2, r4, r2
 245 0122 5400     		lsls	r4, r2, #1
 246 0124 407A     		ldrb	r0, [r0, #9]
 247              	.LVL30:
 248 0126 0419     		adds	r4, r0, r4
 249 0128 2000     		movs	r0, r4
 250 012a 3038     		subs	r0, r0, #48
 251              	.LVL31:
 137:andonJson.c   ****         newWorkDate = yr * 10000u + mo * 100u + dy;
 252              		.loc 1 137 0
 253 012c 3C4C     		ldr	r4, .L22+28
 254 012e 4C43     		muls	r4, r1
 255 0130 6246     		mov	r2, ip
 256 0132 5343     		muls	r3, r2
 257 0134 E318     		adds	r3, r4, r3
 258 0136 C418     		adds	r4, r0, r3
 259              	.LVL32:
ARM GAS  C:\Users\luvsd\AppData\Local\Temp\ccV8yooc.s 			page 8


 260 0138 00E0     		b	.L12
 261              	.LVL33:
 262              	.L19:
 263              	.LBE2:
 126:andonJson.c   ****     uint8  newShiftIdx = 0u;
 264              		.loc 1 126 0
 265 013a 0024     		movs	r4, #0
 266              	.LVL34:
 267              	.L12:
 138:andonJson.c   ****     }
 139:andonJson.c   **** 
 140:andonJson.c   ****     if (shift_idx_tok >= 0)
 268              		.loc 1 140 0
 269 013c 059B     		ldr	r3, [sp, #20]
 270 013e 002B     		cmp	r3, #0
 271 0140 0ADB     		blt	.L20
 272              	.LBB3:
 141:andonJson.c   ****     {
 142:andonJson.c   ****         char *si = GetJSON_Token_String(&t[shift_idx_tok], jsonString);
 273              		.loc 1 142 0
 274 0142 1801     		lsls	r0, r3, #4
 275 0144 07AB     		add	r3, sp, #28
 276 0146 9C46     		mov	ip, r3
 277 0148 6044     		add	r0, r0, ip
 278 014a 0399     		ldr	r1, [sp, #12]
 279 014c FFF7FEFF 		bl	GetJSON_Token_String
 280              	.LVL35:
 143:andonJson.c   ****         newShiftIdx = (uint8)atoi(si);
 281              		.loc 1 143 0
 282 0150 FFF7FEFF 		bl	atoi
 283              	.LVL36:
 284 0154 C0B2     		uxtb	r0, r0
 285              	.LVL37:
 286 0156 00E0     		b	.L13
 287              	.LVL38:
 288              	.L20:
 289              	.LBE3:
 127:andonJson.c   **** 
 290              		.loc 1 127 0
 291 0158 0020     		movs	r0, #0
 292              	.LVL39:
 293              	.L13:
 144:andonJson.c   ****     }
 145:andonJson.c   **** 
 146:andonJson.c   ****     /* Pass 3: AUTO RESET 판단 후 시간 동기화 */
 147:andonJson.c   ****     if (newWorkDate != 0u && newShiftIdx != 0u)
 294              		.loc 1 147 0
 295 015a 002C     		cmp	r4, #0
 296 015c 20D0     		beq	.L14
 297              		.loc 1 147 0 is_stmt 0 discriminator 1
 298 015e 0028     		cmp	r0, #0
 299 0160 1ED0     		beq	.L14
 300              	.LBB4:
 148:andonJson.c   ****     {
 149:andonJson.c   ****         /* 신규: 교대 기반 비교 — work_date_YYYYMMDD * 10 + shift_idx */
 150:andonJson.c   ****         uint32 lastKey    = g_ptrMachineParameter->lastPowerOnDateTime;
 301              		.loc 1 150 0 is_stmt 1
ARM GAS  C:\Users\luvsd\AppData\Local\Temp\ccV8yooc.s 			page 9


 302 0162 304B     		ldr	r3, .L22+32
 303 0164 1B68     		ldr	r3, [r3]
 304 0166 1F69     		ldr	r7, [r3, #16]
 305              	.LVL40:
 151:andonJson.c   ****         uint32 currentKey = newWorkDate * 10u + (uint32)newShiftIdx;
 306              		.loc 1 151 0
 307 0168 A300     		lsls	r3, r4, #2
 308 016a 1C19     		adds	r4, r3, r4
 309              	.LVL41:
 310 016c 6300     		lsls	r3, r4, #1
 311 016e 1C18     		adds	r4, r3, r0
 312              	.LVL42:
 152:andonJson.c   **** 
 153:andonJson.c   ****         setCurrentTime(GetJSON_Token_String(&t[datetime_tok], jsonString));
 313              		.loc 1 153 0
 314 0170 3001     		lsls	r0, r6, #4
 315              	.LVL43:
 316 0172 07AB     		add	r3, sp, #28
 317 0174 9C46     		mov	ip, r3
 318 0176 6044     		add	r0, r0, ip
 319 0178 0399     		ldr	r1, [sp, #12]
 320 017a FFF7FEFF 		bl	GetJSON_Token_String
 321              	.LVL44:
 322 017e FFF7FEFF 		bl	setCurrentTime
 323              	.LVL45:
 154:andonJson.c   **** 
 155:andonJson.c   ****         if (lastKey != currentKey)
 324              		.loc 1 155 0
 325 0182 A742     		cmp	r7, r4
 326 0184 32D0     		beq	.L15
 156:andonJson.c   ****         {
 157:andonJson.c   ****             if (g_ptrMachineParameter->bAutoReset) ResetCount();
 327              		.loc 1 157 0
 328 0186 274B     		ldr	r3, .L22+32
 329 0188 1B68     		ldr	r3, [r3]
 330 018a 9B7E     		ldrb	r3, [r3, #26]
 331 018c 002B     		cmp	r3, #0
 332 018e 01D0     		beq	.L16
 333              		.loc 1 157 0 is_stmt 0 discriminator 1
 334 0190 FFF7FEFF 		bl	ResetCount
 335              	.LVL46:
 336              	.L16:
 158:andonJson.c   ****             g_ptrMachineParameter->lastPowerOnDateTime = currentKey;
 337              		.loc 1 158 0 is_stmt 1
 338 0194 234B     		ldr	r3, .L22+32
 339 0196 1B68     		ldr	r3, [r3]
 340 0198 1C61     		str	r4, [r3, #16]
 159:andonJson.c   ****             SaveExternalFlashConfig();
 341              		.loc 1 159 0
 342 019a FFF7FEFF 		bl	SaveExternalFlashConfig
 343              	.LVL47:
 344 019e 25E0     		b	.L15
 345              	.LVL48:
 346              	.L14:
 347              	.LBE4:
 348              	.LBB5:
 160:andonJson.c   ****         }
ARM GAS  C:\Users\luvsd\AppData\Local\Temp\ccV8yooc.s 			page 10


 161:andonJson.c   ****     }
 162:andonJson.c   ****     else
 163:andonJson.c   ****     {
 164:andonJson.c   ****         /* Fallback: 서버 구버전 — 기존 달력 날짜(자정 기준) 비교 */
 165:andonJson.c   ****         uint32 lastDay = g_ptrMachineParameter->lastPowerOnDateTime / 86400u;
 349              		.loc 1 165 0
 350 01a0 204B     		ldr	r3, .L22+32
 351 01a2 1B68     		ldr	r3, [r3]
 352 01a4 1869     		ldr	r0, [r3, #16]
 353              	.LVL49:
 354 01a6 2049     		ldr	r1, .L22+36
 355 01a8 FFF7FEFF 		bl	__aeabi_uidiv
 356              	.LVL50:
 357 01ac 0400     		movs	r4, r0
 358              	.LVL51:
 166:andonJson.c   **** 
 167:andonJson.c   ****         setCurrentTime(GetJSON_Token_String(&t[datetime_tok], jsonString));
 359              		.loc 1 167 0
 360 01ae 3001     		lsls	r0, r6, #4
 361              	.LVL52:
 362 01b0 07AB     		add	r3, sp, #28
 363 01b2 9C46     		mov	ip, r3
 364 01b4 6044     		add	r0, r0, ip
 365 01b6 0399     		ldr	r1, [sp, #12]
 366 01b8 FFF7FEFF 		bl	GetJSON_Token_String
 367              	.LVL53:
 368 01bc FFF7FEFF 		bl	setCurrentTime
 369              	.LVL54:
 168:andonJson.c   **** 
 169:andonJson.c   ****         uint32 currentDay = (uint32)(RTC_GetUnixTime() / 86400u);
 370              		.loc 1 169 0
 371 01c0 FFF7FEFF 		bl	RTC_GetUnixTime
 372              	.LVL55:
 373 01c4 184A     		ldr	r2, .L22+36
 374 01c6 0023     		movs	r3, #0
 375 01c8 FFF7FEFF 		bl	__aeabi_uldivmod
 376              	.LVL56:
 170:andonJson.c   **** 
 171:andonJson.c   ****         if (lastDay != currentDay)
 377              		.loc 1 171 0
 378 01cc 8442     		cmp	r4, r0
 379 01ce 0DD0     		beq	.L15
 172:andonJson.c   ****         {
 173:andonJson.c   ****             if (g_ptrMachineParameter->bAutoReset) ResetCount();
 380              		.loc 1 173 0
 381 01d0 144B     		ldr	r3, .L22+32
 382 01d2 1B68     		ldr	r3, [r3]
 383 01d4 9B7E     		ldrb	r3, [r3, #26]
 384 01d6 002B     		cmp	r3, #0
 385 01d8 01D0     		beq	.L17
 386              		.loc 1 173 0 is_stmt 0 discriminator 1
 387 01da FFF7FEFF 		bl	ResetCount
 388              	.LVL57:
 389              	.L17:
 174:andonJson.c   ****             g_ptrMachineParameter->lastPowerOnDateTime = (uint32)RTC_GetUnixTime();
 390              		.loc 1 174 0 is_stmt 1
 391 01de 114B     		ldr	r3, .L22+32
ARM GAS  C:\Users\luvsd\AppData\Local\Temp\ccV8yooc.s 			page 11


 392 01e0 1C68     		ldr	r4, [r3]
 393              	.LVL58:
 394 01e2 FFF7FEFF 		bl	RTC_GetUnixTime
 395              	.LVL59:
 396 01e6 2061     		str	r0, [r4, #16]
 175:andonJson.c   ****             SaveExternalFlashConfig();
 397              		.loc 1 175 0
 398 01e8 FFF7FEFF 		bl	SaveExternalFlashConfig
 399              	.LVL60:
 400              	.L15:
 401              	.LBE5:
 176:andonJson.c   ****         }
 177:andonJson.c   ****     }
 178:andonJson.c   **** 
 179:andonJson.c   ****     if(isInTopMenu()) reflashMenu();
 402              		.loc 1 179 0
 403 01ec FFF7FEFF 		bl	isInTopMenu
 404              	.LVL61:
 405 01f0 0028     		cmp	r0, #0
 406 01f2 03D0     		beq	.L21
 407              		.loc 1 179 0 is_stmt 0 discriminator 1
 408 01f4 FFF7FEFF 		bl	reflashMenu
 409              	.LVL62:
 180:andonJson.c   ****     //g_TopMenuNode->func(NULL,REFLASH);
 181:andonJson.c   ****     return TRUE;
 410              		.loc 1 181 0 is_stmt 1 discriminator 1
 411 01f8 0120     		movs	r0, #1
 412 01fa 00E0     		b	.L3
 413              	.L21:
 414              		.loc 1 181 0 is_stmt 0
 415 01fc 0120     		movs	r0, #1
 416              	.LVL63:
 417              	.L3:
 182:andonJson.c   **** }
 418              		.loc 1 182 0 is_stmt 1
 419 01fe 0B4B     		ldr	r3, .L22+40
 420 0200 9D44     		add	sp, sp, r3
 421              		@ sp needed
 422              	.LVL64:
 423 0202 F0BD     		pop	{r4, r5, r6, r7, pc}
 424              	.L23:
 425              		.align	2
 426              	.L22:
 427 0204 D4FAFFFF 		.word	-1324
 428 0208 0C050000 		.word	1292
 429 020c 00000000 		.word	.LC0
 430 0210 1C000000 		.word	.LC2
 431 0214 38000000 		.word	.LC4
 432 0218 44000000 		.word	.LC6
 433 021c 50000000 		.word	.LC8
 434 0220 10270000 		.word	10000
 435 0224 00000000 		.word	g_ptrMachineParameter
 436 0228 80510100 		.word	86400
 437 022c 2C050000 		.word	1324
 438              		.cfi_endproc
 439              	.LFE63:
 440              		.size	andonCurrentTimeParsing, .-andonCurrentTimeParsing
ARM GAS  C:\Users\luvsd\AppData\Local\Temp\ccV8yooc.s 			page 12


 441              		.section	.text.andonGetDeviceName,"ax",%progbits
 442              		.align	2
 443              		.global	andonGetDeviceName
 444              		.code	16
 445              		.thumb_func
 446              		.type	andonGetDeviceName, %function
 447              	andonGetDeviceName:
 448              	.LFB64:
 183:andonJson.c   **** 
 184:andonJson.c   **** uint8 andonGetDeviceName(char *jsonString, int16 sizeOfJson)
 185:andonJson.c   **** {
 449              		.loc 1 185 0
 450              		.cfi_startproc
 451              		@ args = 0, pretend = 0, frame = 1312
 452              		@ frame_needed = 0, uses_anonymous_args = 0
 453              	.LVL65:
 454 0000 F0B5     		push	{r4, r5, r6, r7, lr}
 455              		.cfi_def_cfa_offset 20
 456              		.cfi_offset 4, -20
 457              		.cfi_offset 5, -16
 458              		.cfi_offset 6, -12
 459              		.cfi_offset 7, -8
 460              		.cfi_offset 14, -4
 461 0002 4F4C     		ldr	r4, .L35
 462 0004 A544     		add	sp, sp, r4
 463              		.cfi_def_cfa_offset 1344
 464 0006 0500     		movs	r5, r0
 465 0008 0C00     		movs	r4, r1
 186:andonJson.c   ****     int i;
 187:andonJson.c   ****     int r;
 188:andonJson.c   ****     jsmn_parser p;
 189:andonJson.c   ****     jsmntok_t t[80]; /* 최대 토큰 수: 80 (10개 항목 JSON = 73 tokens, 여유 7) */
 190:andonJson.c   ****     
 191:andonJson.c   ****     jsmn_init(&p);
 466              		.loc 1 191 0
 467 000a 4E4B     		ldr	r3, .L35+4
 468 000c 6B44     		add	r3, r3, sp
 469 000e 1800     		movs	r0, r3
 470              	.LVL66:
 471 0010 FFF7FEFF 		bl	jsmn_init
 472              	.LVL67:
 192:andonJson.c   ****     r = jsmn_parse(&p, jsonString, sizeOfJson, t, sizeof(t) / sizeof(t[0]));
 473              		.loc 1 192 0
 474 0014 5023     		movs	r3, #80
 475 0016 0093     		str	r3, [sp]
 476 0018 07AB     		add	r3, sp, #28
 477 001a 2200     		movs	r2, r4
 478 001c 2900     		movs	r1, r5
 479 001e 4948     		ldr	r0, .L35+4
 480 0020 6844     		add	r0, r0, sp
 481 0022 FFF7FEFF 		bl	jsmn_parse
 482              	.LVL68:
 483 0026 071E     		subs	r7, r0, #0
 484              	.LVL69:
 193:andonJson.c   ****     
 194:andonJson.c   ****     if (r < 0) {
 485              		.loc 1 194 0
ARM GAS  C:\Users\luvsd\AppData\Local\Temp\ccV8yooc.s 			page 13


 486 0028 05DA     		bge	.L25
 195:andonJson.c   ****         #ifdef DEBUG_ANDON_JSON
 196:andonJson.c   ****             printf("Failed to parse JSON: %d\r\n", r);
 487              		.loc 1 196 0
 488 002a 0100     		movs	r1, r0
 489 002c 4648     		ldr	r0, .L35+8
 490              	.LVL70:
 491 002e FFF7FEFF 		bl	printf
 492              	.LVL71:
 197:andonJson.c   ****         #endif
 198:andonJson.c   ****         return FALSE;
 493              		.loc 1 198 0
 494 0032 0020     		movs	r0, #0
 495 0034 80E0     		b	.L26
 496              	.LVL72:
 497              	.L25:
 199:andonJson.c   ****     }
 200:andonJson.c   ****     
 201:andonJson.c   ****     /* Assume the top-level element is an object */
 202:andonJson.c   ****     if (r < 1 || t[0].type != JSMN_OBJECT) {
 498              		.loc 1 202 0
 499 0036 0028     		cmp	r0, #0
 500 0038 03DD     		ble	.L27
 501              		.loc 1 202 0 is_stmt 0 discriminator 1
 502 003a 07AB     		add	r3, sp, #28
 503 003c 1B78     		ldrb	r3, [r3]
 504 003e 012B     		cmp	r3, #1
 505 0040 6DD0     		beq	.L34
 506              	.L27:
 203:andonJson.c   ****         #ifdef DEBUG_ANDON_JSON
 204:andonJson.c   ****             printf("Object expected type: %d\r\n", t[0].type);
 507              		.loc 1 204 0 is_stmt 1
 508 0042 07AB     		add	r3, sp, #28
 509 0044 1978     		ldrb	r1, [r3]
 510 0046 4148     		ldr	r0, .L35+12
 511              	.LVL73:
 512 0048 FFF7FEFF 		bl	printf
 513              	.LVL74:
 205:andonJson.c   ****         #endif     
 206:andonJson.c   ****         return FALSE;
 514              		.loc 1 206 0
 515 004c 0020     		movs	r0, #0
 516 004e 73E0     		b	.L26
 517              	.LVL75:
 518              	.L33:
 207:andonJson.c   ****     }
 208:andonJson.c   ****     
 209:andonJson.c   ****     for (i = 1; i < r; i++)
 210:andonJson.c   ****     {   
 211:andonJson.c   ****         //if (jsoneq(jsonString, &t[i], "device_no") == 0)
 212:andonJson.c   ****         if (jsoneq(jsonString, &t[i], "machine_no") == 0)
 519              		.loc 1 212 0
 520 0050 3401     		lsls	r4, r6, #4
 521 0052 07AB     		add	r3, sp, #28
 522 0054 9C46     		mov	ip, r3
 523 0056 6444     		add	r4, r4, ip
 524 0058 3D4A     		ldr	r2, .L35+16
ARM GAS  C:\Users\luvsd\AppData\Local\Temp\ccV8yooc.s 			page 14


 525 005a 2100     		movs	r1, r4
 526 005c 2800     		movs	r0, r5
 527 005e FFF7FEFF 		bl	jsoneq
 528              	.LVL76:
 529 0062 0028     		cmp	r0, #0
 530 0064 16D1     		bne	.L29
 213:andonJson.c   ****         {
 214:andonJson.c   ****             sprintf(g_Info.DeviceNo,"%.*s",t[i + 1].end - t[i + 1].start,jsonString + t[i + 1].star
 531              		.loc 1 214 0
 532 0066 731C     		adds	r3, r6, #1
 533 0068 1B01     		lsls	r3, r3, #4
 534 006a 07AA     		add	r2, sp, #28
 535 006c 9446     		mov	ip, r2
 536 006e 6344     		add	r3, r3, ip
 537 0070 9A68     		ldr	r2, [r3, #8]
 538 0072 5968     		ldr	r1, [r3, #4]
 539 0074 6B18     		adds	r3, r5, r1
 540 0076 521A     		subs	r2, r2, r1
 541 0078 364C     		ldr	r4, .L35+20
 542 007a 3749     		ldr	r1, .L35+24
 543 007c 2000     		movs	r0, r4
 544 007e FFF7FEFF 		bl	sprintf
 545              	.LVL77:
 215:andonJson.c   ****             if(strlen(g_Info.DeviceNo) == 0) strcpy(g_Info.DeviceNo,"IoT Device");
 546              		.loc 1 215 0
 547 0082 2378     		ldrb	r3, [r4]
 548 0084 002B     		cmp	r3, #0
 549 0086 48D1     		bne	.L30
 550              		.loc 1 215 0 is_stmt 0 discriminator 1
 551 0088 0B22     		movs	r2, #11
 552 008a 3449     		ldr	r1, .L35+28
 553 008c 3148     		ldr	r0, .L35+20
 554 008e FFF7FEFF 		bl	memcpy
 555              	.LVL78:
 556 0092 42E0     		b	.L30
 557              	.L29:
 216:andonJson.c   ****         }
 217:andonJson.c   ****         else if(jsoneq(jsonString, &t[i], "install_type") == 0)
 558              		.loc 1 217 0 is_stmt 1
 559 0094 324A     		ldr	r2, .L35+32
 560 0096 2100     		movs	r1, r4
 561 0098 2800     		movs	r0, r5
 562 009a FFF7FEFF 		bl	jsoneq
 563              	.LVL79:
 564 009e 0028     		cmp	r0, #0
 565 00a0 0DD1     		bne	.L31
 218:andonJson.c   ****         {
 219:andonJson.c   ****             sprintf(g_Info.InstallType,"%.*s",t[i + 1].end - t[i + 1].start,jsonString + t[i + 1].s
 566              		.loc 1 219 0
 567 00a2 731C     		adds	r3, r6, #1
 568 00a4 1B01     		lsls	r3, r3, #4
 569 00a6 07AA     		add	r2, sp, #28
 570 00a8 9446     		mov	ip, r2
 571 00aa 6344     		add	r3, r3, ip
 572 00ac 9A68     		ldr	r2, [r3, #8]
 573 00ae 5968     		ldr	r1, [r3, #4]
 574 00b0 6B18     		adds	r3, r5, r1
ARM GAS  C:\Users\luvsd\AppData\Local\Temp\ccV8yooc.s 			page 15


 575 00b2 521A     		subs	r2, r2, r1
 576 00b4 2849     		ldr	r1, .L35+24
 577 00b6 2B48     		ldr	r0, .L35+36
 578 00b8 FFF7FEFF 		bl	sprintf
 579              	.LVL80:
 580 00bc 2DE0     		b	.L30
 581              	.L31:
 220:andonJson.c   ****         }
 221:andonJson.c   ****         else if(jsoneq(jsonString, &t[i], "line_name") == 0)
 582              		.loc 1 221 0
 583 00be 2A4A     		ldr	r2, .L35+40
 584 00c0 2100     		movs	r1, r4
 585 00c2 2800     		movs	r0, r5
 586 00c4 FFF7FEFF 		bl	jsoneq
 587              	.LVL81:
 588 00c8 0028     		cmp	r0, #0
 589 00ca 0DD1     		bne	.L32
 222:andonJson.c   ****         {
 223:andonJson.c   ****             sprintf(g_Info.LineName,"%.*s",t[i + 1].end - t[i + 1].start,jsonString + t[i + 1].star
 590              		.loc 1 223 0
 591 00cc 731C     		adds	r3, r6, #1
 592 00ce 1B01     		lsls	r3, r3, #4
 593 00d0 07AA     		add	r2, sp, #28
 594 00d2 9446     		mov	ip, r2
 595 00d4 6344     		add	r3, r3, ip
 596 00d6 9A68     		ldr	r2, [r3, #8]
 597 00d8 5968     		ldr	r1, [r3, #4]
 598 00da 6B18     		adds	r3, r5, r1
 599 00dc 521A     		subs	r2, r2, r1
 600 00de 1E49     		ldr	r1, .L35+24
 601 00e0 2248     		ldr	r0, .L35+44
 602 00e2 FFF7FEFF 		bl	sprintf
 603              	.LVL82:
 604 00e6 18E0     		b	.L30
 605              	.L32:
 224:andonJson.c   ****         }              
 225:andonJson.c   ****         //else if(jsoneq(jsonString, &t[i], "device_idx") == 0)
 226:andonJson.c   ****         else if(jsoneq(jsonString, &t[i], "machine_idx") == 0)
 606              		.loc 1 226 0
 607 00e8 214A     		ldr	r2, .L35+48
 608 00ea 2100     		movs	r1, r4
 609 00ec 2800     		movs	r0, r5
 610 00ee FFF7FEFF 		bl	jsoneq
 611              	.LVL83:
 612 00f2 0028     		cmp	r0, #0
 613 00f4 11D1     		bne	.L30
 614              	.LBB6:
 227:andonJson.c   ****         {
 228:andonJson.c   ****             char buff[20];
 229:andonJson.c   ****             sprintf(buff,"%.*s",t[i + 1].end - t[i + 1].start,jsonString + t[i + 1].start);
 615              		.loc 1 229 0
 616 00f6 731C     		adds	r3, r6, #1
 617 00f8 1B01     		lsls	r3, r3, #4
 618 00fa 07AA     		add	r2, sp, #28
 619 00fc 9446     		mov	ip, r2
 620 00fe 6344     		add	r3, r3, ip
 621 0100 9A68     		ldr	r2, [r3, #8]
ARM GAS  C:\Users\luvsd\AppData\Local\Temp\ccV8yooc.s 			page 16


 622 0102 5968     		ldr	r1, [r3, #4]
 623 0104 6B18     		adds	r3, r5, r1
 624 0106 521A     		subs	r2, r2, r1
 625 0108 1349     		ldr	r1, .L35+24
 626 010a 02A8     		add	r0, sp, #8
 627 010c FFF7FEFF 		bl	sprintf
 628              	.LVL84:
 230:andonJson.c   ****             g_Info.DeviceIdx = atoi(buff);
 629              		.loc 1 230 0
 630 0110 02A8     		add	r0, sp, #8
 631 0112 FFF7FEFF 		bl	atoi
 632              	.LVL85:
 633 0116 174B     		ldr	r3, .L35+52
 634 0118 5885     		strh	r0, [r3, #42]
 635              	.L30:
 636              	.LBE6:
 209:andonJson.c   ****     {   
 637              		.loc 1 209 0 discriminator 2
 638 011a 0136     		adds	r6, r6, #1
 639              	.LVL86:
 640 011c 00E0     		b	.L28
 641              	.LVL87:
 642              	.L34:
 643 011e 0126     		movs	r6, #1
 644              	.LVL88:
 645              	.L28:
 209:andonJson.c   ****     {   
 646              		.loc 1 209 0 is_stmt 0 discriminator 1
 647 0120 BE42     		cmp	r6, r7
 648 0122 95DB     		blt	.L33
 231:andonJson.c   ****         }
 232:andonJson.c   ****     }
 233:andonJson.c   ****     
 234:andonJson.c   ****     //printf("andonGetDeviceName() : %s, %s, %d\r\n",g_Info.DeviceNo,g_Info.InstallType,g_Info.Devi
 235:andonJson.c   ****     SetTitleBarText(g_Info.DeviceNo);
 649              		.loc 1 235 0 is_stmt 1
 650 0124 0B4C     		ldr	r4, .L35+20
 651 0126 2000     		movs	r0, r4
 652 0128 FFF7FEFF 		bl	SetTitleBarText
 653              	.LVL89:
 236:andonJson.c   ****     DrawTitle();
 654              		.loc 1 236 0
 655 012c FFF7FEFF 		bl	DrawTitle
 656              	.LVL90:
 237:andonJson.c   ****     g_Info.bUpdateDeviceInfo = TRUE;
 657              		.loc 1 237 0
 658 0130 013C     		subs	r4, r4, #1
 659 0132 0123     		movs	r3, #1
 660 0134 2370     		strb	r3, [r4]
 238:andonJson.c   ****     
 239:andonJson.c   ****     return TRUE;
 661              		.loc 1 239 0
 662 0136 0120     		movs	r0, #1
 663              	.LVL91:
 664              	.L26:
 240:andonJson.c   **** }
 665              		.loc 1 240 0
ARM GAS  C:\Users\luvsd\AppData\Local\Temp\ccV8yooc.s 			page 17


 666 0138 0F4B     		ldr	r3, .L35+56
 667 013a 9D44     		add	sp, sp, r3
 668              		@ sp needed
 669              	.LVL92:
 670              	.LVL93:
 671 013c F0BD     		pop	{r4, r5, r6, r7, pc}
 672              	.L36:
 673 013e C046     		.align	2
 674              	.L35:
 675 0140 D4FAFFFF 		.word	-1324
 676 0144 1C050000 		.word	1308
 677 0148 00000000 		.word	.LC0
 678 014c 1C000000 		.word	.LC2
 679 0150 5C000000 		.word	.LC13
 680 0154 01000000 		.word	g_Info+1
 681 0158 68000000 		.word	.LC15
 682 015c 70000000 		.word	.LC19
 683 0160 7C000000 		.word	.LC21
 684 0164 2C000000 		.word	g_Info+44
 685 0168 8C000000 		.word	.LC24
 686 016c 15000000 		.word	g_Info+21
 687 0170 98000000 		.word	.LC27
 688 0174 00000000 		.word	g_Info
 689 0178 2C050000 		.word	1324
 690              		.cfi_endproc
 691              	.LFE64:
 692              		.size	andonGetDeviceName, .-andonGetDeviceName
 693              		.section	.text.andonSendCount,"ax",%progbits
 694              		.align	2
 695              		.global	andonSendCount
 696              		.code	16
 697              		.thumb_func
 698              		.type	andonSendCount, %function
 699              	andonSendCount:
 700              	.LFB65:
 241:andonJson.c   **** 
 242:andonJson.c   **** uint8 andonSendCount(char *jsonString, int16 sizeOfJson)
 243:andonJson.c   **** {
 701              		.loc 1 243 0
 702              		.cfi_startproc
 703              		@ args = 0, pretend = 0, frame = 1552
 704              		@ frame_needed = 0, uses_anonymous_args = 0
 705              	.LVL94:
 706 0000 70B5     		push	{r4, r5, r6, lr}
 707              		.cfi_def_cfa_offset 16
 708              		.cfi_offset 4, -16
 709              		.cfi_offset 5, -12
 710              		.cfi_offset 6, -8
 711              		.cfi_offset 14, -4
 712 0002 284C     		ldr	r4, .L46
 713 0004 A544     		add	sp, sp, r4
 714              		.cfi_def_cfa_offset 1576
 715 0006 0400     		movs	r4, r0
 716 0008 0D00     		movs	r5, r1
 244:andonJson.c   ****     int i;
 245:andonJson.c   ****     int r;
 246:andonJson.c   ****     jsmn_parser p;
ARM GAS  C:\Users\luvsd\AppData\Local\Temp\ccV8yooc.s 			page 18


 247:andonJson.c   ****     jsmntok_t t[80]; /* 최대 토큰 수: 80 (10개 항목 JSON = 73 tokens, 여유 7) */
 248:andonJson.c   ****     
 249:andonJson.c   ****     jsmn_init(&p);
 717              		.loc 1 249 0
 718 000a 274B     		ldr	r3, .L46+4
 719 000c 6B44     		add	r3, r3, sp
 720 000e 1800     		movs	r0, r3
 721              	.LVL95:
 722 0010 FFF7FEFF 		bl	jsmn_init
 723              	.LVL96:
 250:andonJson.c   ****     r = jsmn_parse(&p, jsonString, sizeOfJson, t, sizeof(t) / sizeof(t[0]));
 724              		.loc 1 250 0
 725 0014 5023     		movs	r3, #80
 726 0016 0093     		str	r3, [sp]
 727 0018 43AB     		add	r3, sp, #268
 728 001a 2A00     		movs	r2, r5
 729 001c 2100     		movs	r1, r4
 730 001e 2248     		ldr	r0, .L46+4
 731 0020 6844     		add	r0, r0, sp
 732 0022 FFF7FEFF 		bl	jsmn_parse
 733              	.LVL97:
 734 0026 061E     		subs	r6, r0, #0
 735              	.LVL98:
 251:andonJson.c   ****   
 252:andonJson.c   ****     if (r < 0) {
 736              		.loc 1 252 0
 737 0028 05DA     		bge	.L38
 253:andonJson.c   ****         #ifdef DEBUG_ANDON_JSON
 254:andonJson.c   ****             printf("Failed to parse JSON: %d\r\n", r);
 738              		.loc 1 254 0
 739 002a 0100     		movs	r1, r0
 740 002c 1F48     		ldr	r0, .L46+8
 741              	.LVL99:
 742 002e FFF7FEFF 		bl	printf
 743              	.LVL100:
 255:andonJson.c   ****         #endif
 256:andonJson.c   ****         return FALSE;
 744              		.loc 1 256 0
 745 0032 0020     		movs	r0, #0
 746 0034 31E0     		b	.L39
 747              	.LVL101:
 748              	.L38:
 257:andonJson.c   ****     }
 258:andonJson.c   ****     
 259:andonJson.c   ****     /* Assume the top-level element is an object */
 260:andonJson.c   ****     if (r < 1 || t[0].type != JSMN_OBJECT) {
 749              		.loc 1 260 0
 750 0036 0028     		cmp	r0, #0
 751 0038 03DD     		ble	.L40
 752              		.loc 1 260 0 is_stmt 0 discriminator 1
 753 003a 43AB     		add	r3, sp, #268
 754 003c 1B78     		ldrb	r3, [r3]
 755 003e 012B     		cmp	r3, #1
 756 0040 25D0     		beq	.L44
 757              	.L40:
 261:andonJson.c   ****         #ifdef DEBUG_ANDON_JSON
 262:andonJson.c   ****             printf("Object expected type: %d\r\n", t[0].type);
ARM GAS  C:\Users\luvsd\AppData\Local\Temp\ccV8yooc.s 			page 19


 758              		.loc 1 262 0 is_stmt 1
 759 0042 43AB     		add	r3, sp, #268
 760 0044 1978     		ldrb	r1, [r3]
 761 0046 1A48     		ldr	r0, .L46+12
 762              	.LVL102:
 763 0048 FFF7FEFF 		bl	printf
 764              	.LVL103:
 263:andonJson.c   ****         #endif     
 264:andonJson.c   ****         return FALSE;
 765              		.loc 1 264 0
 766 004c 0020     		movs	r0, #0
 767 004e 24E0     		b	.L39
 768              	.LVL104:
 769              	.L43:
 265:andonJson.c   ****     }
 266:andonJson.c   ****     
 267:andonJson.c   ****     //printf("andonSendCount():%s",jsonString);
 268:andonJson.c   ****     char buff[256];
 269:andonJson.c   ****     for (i = 1; i < r; i++)
 270:andonJson.c   ****     {   
 271:andonJson.c   ****         if     (jsoneq(jsonString, &t[i], "code") == 0)
 770              		.loc 1 271 0
 771 0050 2901     		lsls	r1, r5, #4
 772 0052 43AB     		add	r3, sp, #268
 773 0054 9C46     		mov	ip, r3
 774 0056 6144     		add	r1, r1, ip
 775 0058 164A     		ldr	r2, .L46+16
 776 005a 2000     		movs	r0, r4
 777 005c FFF7FEFF 		bl	jsoneq
 778              	.LVL105:
 779 0060 0028     		cmp	r0, #0
 780 0062 12D1     		bne	.L42
 272:andonJson.c   ****         {
 273:andonJson.c   ****             sprintf(buff,"%.*s",t[i + 1].end - t[i + 1].start,jsonString + t[i + 1].start);      
 781              		.loc 1 273 0
 782 0064 6B1C     		adds	r3, r5, #1
 783 0066 1B01     		lsls	r3, r3, #4
 784 0068 43AA     		add	r2, sp, #268
 785 006a 9446     		mov	ip, r2
 786 006c 6344     		add	r3, r3, ip
 787 006e 9A68     		ldr	r2, [r3, #8]
 788 0070 5968     		ldr	r1, [r3, #4]
 789 0072 6318     		adds	r3, r4, r1
 790 0074 521A     		subs	r2, r2, r1
 791 0076 1049     		ldr	r1, .L46+20
 792 0078 03A8     		add	r0, sp, #12
 793 007a FFF7FEFF 		bl	sprintf
 794              	.LVL106:
 274:andonJson.c   ****             if(strcmp(buff,"00") == 0)
 795              		.loc 1 274 0
 796 007e 0F49     		ldr	r1, .L46+24
 797 0080 03A8     		add	r0, sp, #12
 798 0082 FFF7FEFF 		bl	strcmp
 799              	.LVL107:
 800 0086 0028     		cmp	r0, #0
 801 0088 06D0     		beq	.L45
 802              	.L42:
ARM GAS  C:\Users\luvsd\AppData\Local\Temp\ccV8yooc.s 			page 20


 269:andonJson.c   ****     {   
 803              		.loc 1 269 0 discriminator 2
 804 008a 0135     		adds	r5, r5, #1
 805              	.LVL108:
 806 008c 00E0     		b	.L41
 807              	.LVL109:
 808              	.L44:
 809 008e 0125     		movs	r5, #1
 810              	.LVL110:
 811              	.L41:
 269:andonJson.c   ****     {   
 812              		.loc 1 269 0 is_stmt 0 discriminator 1
 813 0090 B542     		cmp	r5, r6
 814 0092 DDDB     		blt	.L43
 275:andonJson.c   ****             {
 276:andonJson.c   ****                 return TRUE;
 277:andonJson.c   ****             }
 278:andonJson.c   ****         }
 279:andonJson.c   ****     }
 280:andonJson.c   ****         
 281:andonJson.c   ****     return TRUE;    
 815              		.loc 1 281 0 is_stmt 1
 816 0094 0120     		movs	r0, #1
 817 0096 00E0     		b	.L39
 818              	.L45:
 276:andonJson.c   ****             }
 819              		.loc 1 276 0
 820 0098 0120     		movs	r0, #1
 821              	.LVL111:
 822              	.L39:
 282:andonJson.c   **** }
 823              		.loc 1 282 0
 824 009a C323     		movs	r3, #195
 825 009c DB00     		lsls	r3, r3, #3
 826 009e 9D44     		add	sp, sp, r3
 827              		@ sp needed
 828              	.LVL112:
 829              	.LVL113:
 830 00a0 70BD     		pop	{r4, r5, r6, pc}
 831              	.L47:
 832 00a2 C046     		.align	2
 833              	.L46:
 834 00a4 E8F9FFFF 		.word	-1560
 835 00a8 0C060000 		.word	1548
 836 00ac 00000000 		.word	.LC0
 837 00b0 1C000000 		.word	.LC2
 838 00b4 A4000000 		.word	.LC31
 839 00b8 68000000 		.word	.LC15
 840 00bc AC000000 		.word	.LC34
 841              		.cfi_endproc
 842              	.LFE65:
 843              		.size	andonSendCount, .-andonSendCount
 844              		.section	.text.andonStart,"ax",%progbits
 845              		.align	2
 846              		.global	andonStart
 847              		.code	16
 848              		.thumb_func
ARM GAS  C:\Users\luvsd\AppData\Local\Temp\ccV8yooc.s 			page 21


 849              		.type	andonStart, %function
 850              	andonStart:
 851              	.LFB66:
 283:andonJson.c   **** 
 284:andonJson.c   **** uint8 andonStart(char *jsonString, int16 sizeOfJson)
 285:andonJson.c   **** {
 852              		.loc 1 285 0
 853              		.cfi_startproc
 854              		@ args = 0, pretend = 0, frame = 1312
 855              		@ frame_needed = 0, uses_anonymous_args = 0
 856              	.LVL114:
 857 0000 F0B5     		push	{r4, r5, r6, r7, lr}
 858              		.cfi_def_cfa_offset 20
 859              		.cfi_offset 4, -20
 860              		.cfi_offset 5, -16
 861              		.cfi_offset 6, -12
 862              		.cfi_offset 7, -8
 863              		.cfi_offset 14, -4
 864 0002 534C     		ldr	r4, .L59
 865 0004 A544     		add	sp, sp, r4
 866              		.cfi_def_cfa_offset 1344
 867 0006 0500     		movs	r5, r0
 868 0008 0C00     		movs	r4, r1
 286:andonJson.c   ****     int i;
 287:andonJson.c   ****     int r;
 288:andonJson.c   ****     jsmn_parser p;
 289:andonJson.c   ****     jsmntok_t t[80]; /* 최대 토큰 수: 80 (10개 항목 JSON = 73 tokens, 여유 7) */
 290:andonJson.c   ****         
 291:andonJson.c   ****     jsmn_init(&p);
 869              		.loc 1 291 0
 870 000a 524B     		ldr	r3, .L59+4
 871 000c 6B44     		add	r3, r3, sp
 872 000e 1800     		movs	r0, r3
 873              	.LVL115:
 874 0010 FFF7FEFF 		bl	jsmn_init
 875              	.LVL116:
 292:andonJson.c   ****     r = jsmn_parse(&p, jsonString, sizeOfJson, t, sizeof(t) / sizeof(t[0]));
 876              		.loc 1 292 0
 877 0014 5023     		movs	r3, #80
 878 0016 0093     		str	r3, [sp]
 879 0018 07AB     		add	r3, sp, #28
 880 001a 2200     		movs	r2, r4
 881 001c 2900     		movs	r1, r5
 882 001e 4D48     		ldr	r0, .L59+4
 883 0020 6844     		add	r0, r0, sp
 884 0022 FFF7FEFF 		bl	jsmn_parse
 885              	.LVL117:
 886 0026 071E     		subs	r7, r0, #0
 887              	.LVL118:
 293:andonJson.c   ****     
 294:andonJson.c   ****     if (r < 0) {
 888              		.loc 1 294 0
 889 0028 05DA     		bge	.L49
 295:andonJson.c   ****         #ifdef DEBUG_ANDON_JSON
 296:andonJson.c   ****             printf("Failed to parse JSON: %d\r\n", r);
 890              		.loc 1 296 0
 891 002a 0100     		movs	r1, r0
ARM GAS  C:\Users\luvsd\AppData\Local\Temp\ccV8yooc.s 			page 22


 892 002c 4A48     		ldr	r0, .L59+8
 893              	.LVL119:
 894 002e FFF7FEFF 		bl	printf
 895              	.LVL120:
 297:andonJson.c   ****         #endif
 298:andonJson.c   ****         return FALSE;
 896              		.loc 1 298 0
 897 0032 0020     		movs	r0, #0
 898 0034 88E0     		b	.L50
 899              	.LVL121:
 900              	.L49:
 299:andonJson.c   ****     }
 300:andonJson.c   ****     
 301:andonJson.c   ****     /* Assume the top-level element is an object */
 302:andonJson.c   ****     if (r < 1 || t[0].type != JSMN_OBJECT) {
 901              		.loc 1 302 0
 902 0036 0028     		cmp	r0, #0
 903 0038 03DD     		ble	.L51
 904              		.loc 1 302 0 is_stmt 0 discriminator 1
 905 003a 07AB     		add	r3, sp, #28
 906 003c 1B78     		ldrb	r3, [r3]
 907 003e 012B     		cmp	r3, #1
 908 0040 70D0     		beq	.L58
 909              	.L51:
 303:andonJson.c   ****         #ifdef DEBUG_ANDON_JSON
 304:andonJson.c   ****             printf("Object expected type: %d\r\n", t[0].type);
 910              		.loc 1 304 0 is_stmt 1
 911 0042 07AB     		add	r3, sp, #28
 912 0044 1978     		ldrb	r1, [r3]
 913 0046 4548     		ldr	r0, .L59+12
 914              	.LVL122:
 915 0048 FFF7FEFF 		bl	printf
 916              	.LVL123:
 305:andonJson.c   ****         #endif     
 306:andonJson.c   ****         return FALSE;
 917              		.loc 1 306 0
 918 004c 0020     		movs	r0, #0
 919 004e 7BE0     		b	.L50
 920              	.LVL124:
 921              	.L56:
 307:andonJson.c   ****     }
 308:andonJson.c   ****     char buff[20];
 309:andonJson.c   ****     for (i = 1; i < r; i++)
 310:andonJson.c   ****     {   
 311:andonJson.c   ****         //if     (jsoneq(jsonString, &t[i], "device_no") == 0)
 312:andonJson.c   ****         if     (jsoneq(jsonString, &t[i], "machine_no") == 0)
 922              		.loc 1 312 0
 923 0050 3401     		lsls	r4, r6, #4
 924 0052 07AB     		add	r3, sp, #28
 925 0054 9C46     		mov	ip, r3
 926 0056 6444     		add	r4, r4, ip
 927 0058 414A     		ldr	r2, .L59+16
 928 005a 2100     		movs	r1, r4
 929 005c 2800     		movs	r0, r5
 930 005e FFF7FEFF 		bl	jsoneq
 931              	.LVL125:
 932 0062 0028     		cmp	r0, #0
ARM GAS  C:\Users\luvsd\AppData\Local\Temp\ccV8yooc.s 			page 23


 933 0064 16D1     		bne	.L53
 313:andonJson.c   ****         {
 314:andonJson.c   ****             sprintf(g_Info.DeviceNo,"%.*s",t[i + 1].end - t[i + 1].start,jsonString + t[i + 1].star
 934              		.loc 1 314 0
 935 0066 731C     		adds	r3, r6, #1
 936 0068 1B01     		lsls	r3, r3, #4
 937 006a 07AA     		add	r2, sp, #28
 938 006c 9446     		mov	ip, r2
 939 006e 6344     		add	r3, r3, ip
 940 0070 9A68     		ldr	r2, [r3, #8]
 941 0072 5968     		ldr	r1, [r3, #4]
 942 0074 6B18     		adds	r3, r5, r1
 943 0076 521A     		subs	r2, r2, r1
 944 0078 3A4C     		ldr	r4, .L59+20
 945 007a 3B49     		ldr	r1, .L59+24
 946 007c 2000     		movs	r0, r4
 947 007e FFF7FEFF 		bl	sprintf
 948              	.LVL126:
 315:andonJson.c   ****             if(strlen(g_Info.DeviceNo) == 0) strcpy(g_Info.DeviceNo,"IoT Device");
 949              		.loc 1 315 0
 950 0082 2378     		ldrb	r3, [r4]
 951 0084 002B     		cmp	r3, #0
 952 0086 4BD1     		bne	.L54
 953              		.loc 1 315 0 is_stmt 0 discriminator 1
 954 0088 0B22     		movs	r2, #11
 955 008a 3849     		ldr	r1, .L59+28
 956 008c 3548     		ldr	r0, .L59+20
 957 008e FFF7FEFF 		bl	memcpy
 958              	.LVL127:
 959 0092 45E0     		b	.L54
 960              	.L53:
 316:andonJson.c   ****         }
 317:andonJson.c   ****         else if (jsoneq(jsonString, &t[i], "target") == 0)
 961              		.loc 1 317 0 is_stmt 1
 962 0094 364A     		ldr	r2, .L59+32
 963 0096 2100     		movs	r1, r4
 964 0098 2800     		movs	r0, r5
 965 009a FFF7FEFF 		bl	jsoneq
 966              	.LVL128:
 967 009e 0028     		cmp	r0, #0
 968 00a0 19D1     		bne	.L55
 318:andonJson.c   ****         {    
 319:andonJson.c   ****             sprintf(buff,"%.*s",t[i + 1].end - t[i + 1].start,jsonString + t[i + 1].start); 
 969              		.loc 1 319 0
 970 00a2 731C     		adds	r3, r6, #1
 971 00a4 1B01     		lsls	r3, r3, #4
 972 00a6 07AA     		add	r2, sp, #28
 973 00a8 9446     		mov	ip, r2
 974 00aa 6344     		add	r3, r3, ip
 975 00ac 9A68     		ldr	r2, [r3, #8]
 976 00ae 5968     		ldr	r1, [r3, #4]
 977 00b0 6B18     		adds	r3, r5, r1
 978 00b2 521A     		subs	r2, r2, r1
 979 00b4 2C49     		ldr	r1, .L59+24
 980 00b6 02A8     		add	r0, sp, #8
 981 00b8 FFF7FEFF 		bl	sprintf
 982              	.LVL129:
ARM GAS  C:\Users\luvsd\AppData\Local\Temp\ccV8yooc.s 			page 24


 320:andonJson.c   ****             setTarget(atoi(buff));   
 983              		.loc 1 320 0
 984 00bc 02A8     		add	r0, sp, #8
 985 00be FFF7FEFF 		bl	atoi
 986              	.LVL130:
 987 00c2 FFF7FEFF 		bl	setTarget
 988              	.LVL131:
 321:andonJson.c   ****             g_bTargetReceived = TRUE;
 989              		.loc 1 321 0
 990 00c6 0122     		movs	r2, #1
 991 00c8 2A4B     		ldr	r3, .L59+36
 992 00ca 1A70     		strb	r2, [r3]
 322:andonJson.c   ****             g_lastSendTime = RTC_GetUnixTime();
 993              		.loc 1 322 0
 994 00cc FFF7FEFF 		bl	RTC_GetUnixTime
 995              	.LVL132:
 996 00d0 294B     		ldr	r3, .L59+40
 997 00d2 1860     		str	r0, [r3]
 998 00d4 24E0     		b	.L54
 999              	.L55:
 323:andonJson.c   ****         }
 324:andonJson.c   ****         else if (jsoneq(jsonString, &t[i], "req_interval") == 0)
 1000              		.loc 1 324 0
 1001 00d6 294A     		ldr	r2, .L59+44
 1002 00d8 2100     		movs	r1, r4
 1003 00da 2800     		movs	r0, r5
 1004 00dc FFF7FEFF 		bl	jsoneq
 1005              	.LVL133:
 1006 00e0 0028     		cmp	r0, #0
 1007 00e2 1DD1     		bne	.L54
 325:andonJson.c   ****         {                        
 326:andonJson.c   ****             sprintf(buff,"%.*s",t[i + 1].end - t[i + 1].start,jsonString + t[i + 1].start);
 1008              		.loc 1 326 0
 1009 00e4 731C     		adds	r3, r6, #1
 1010 00e6 1B01     		lsls	r3, r3, #4
 1011 00e8 07AA     		add	r2, sp, #28
 1012 00ea 9446     		mov	ip, r2
 1013 00ec 6344     		add	r3, r3, ip
 1014 00ee 9A68     		ldr	r2, [r3, #8]
 1015 00f0 5968     		ldr	r1, [r3, #4]
 1016 00f2 6B18     		adds	r3, r5, r1
 1017 00f4 521A     		subs	r2, r2, r1
 1018 00f6 1C49     		ldr	r1, .L59+24
 1019 00f8 02A8     		add	r0, sp, #8
 1020 00fa FFF7FEFF 		bl	sprintf
 1021              	.LVL134:
 327:andonJson.c   ****             g_Info.AndonListRequestTime = atoi(buff);
 1022              		.loc 1 327 0
 1023 00fe 02A8     		add	r0, sp, #8
 1024 0100 FFF7FEFF 		bl	atoi
 1025              	.LVL135:
 1026 0104 80B2     		uxth	r0, r0
 1027 0106 5423     		movs	r3, #84
 1028 0108 1D4A     		ldr	r2, .L59+48
 1029 010a D052     		strh	r0, [r2, r3]
 328:andonJson.c   ****             
 329:andonJson.c   ****             setCountMax_1ms(g_index_request_interval, g_Info.AndonListRequestTime * 1000);
ARM GAS  C:\Users\luvsd\AppData\Local\Temp\ccV8yooc.s 			page 25


 1030              		.loc 1 329 0
 1031 010c FA21     		movs	r1, #250
 1032 010e 8900     		lsls	r1, r1, #2
 1033 0110 4143     		muls	r1, r0
 1034 0112 1C4B     		ldr	r3, .L59+52
 1035 0114 1878     		ldrb	r0, [r3]
 1036 0116 FFF7FEFF 		bl	setCountMax_1ms
 1037              	.LVL136:
 330:andonJson.c   ****             g_bReceivedAndonStart = TRUE;
 1038              		.loc 1 330 0
 1039 011a 0122     		movs	r2, #1
 1040 011c 1A4B     		ldr	r3, .L59+56
 1041 011e 1A70     		strb	r2, [r3]
 1042              	.L54:
 309:andonJson.c   ****     {   
 1043              		.loc 1 309 0 discriminator 2
 1044 0120 0136     		adds	r6, r6, #1
 1045              	.LVL137:
 1046 0122 00E0     		b	.L52
 1047              	.LVL138:
 1048              	.L58:
 1049 0124 0126     		movs	r6, #1
 1050              	.LVL139:
 1051              	.L52:
 309:andonJson.c   ****     {   
 1052              		.loc 1 309 0 is_stmt 0 discriminator 1
 1053 0126 BE42     		cmp	r6, r7
 1054 0128 92DB     		blt	.L56
 331:andonJson.c   ****         }
 332:andonJson.c   ****     
 333:andonJson.c   ****         /*else if(jsoneq(jsonString, &t[i], "install_type") == 0)
 334:andonJson.c   ****         {
 335:andonJson.c   ****             sprintf(g_Info.InstallType,"%.*s",t[i + 1].end - t[i + 1].start,jsonString + t[i + 1].s
 336:andonJson.c   ****         }
 337:andonJson.c   ****         else if(jsoneq(jsonString, &t[i], "line_name") == 0)
 338:andonJson.c   ****         {
 339:andonJson.c   ****             sprintf(g_Info.LineName,"%.*s",t[i + 1].end - t[i + 1].start,jsonString + t[i + 1].star
 340:andonJson.c   ****         }              
 341:andonJson.c   ****         else if(jsoneq(jsonString, &t[i], "device_idx") == 0)
 342:andonJson.c   ****         {
 343:andonJson.c   ****             char buff[20];
 344:andonJson.c   ****             sprintf(buff,"%.*s",t[i + 1].end - t[i + 1].start,jsonString + t[i + 1].start);
 345:andonJson.c   ****             g_Info.DeviceIdx = atoi(buff);
 346:andonJson.c   ****         }*/
 347:andonJson.c   ****     }
 348:andonJson.c   ****     
 349:andonJson.c   ****     //printf("andonGetDeviceName() : %s, %s, %d\r\n",g_Info.DeviceNo,g_Info.InstallType,g_Info.Devi
 350:andonJson.c   ****     SetTitleBarText(g_Info.DeviceNo);
 1055              		.loc 1 350 0 is_stmt 1
 1056 012a 0E48     		ldr	r0, .L59+20
 1057 012c FFF7FEFF 		bl	SetTitleBarText
 1058              	.LVL140:
 351:andonJson.c   ****     DrawTitle();
 1059              		.loc 1 351 0
 1060 0130 FFF7FEFF 		bl	DrawTitle
 1061              	.LVL141:
 352:andonJson.c   ****     
ARM GAS  C:\Users\luvsd\AppData\Local\Temp\ccV8yooc.s 			page 26


 353:andonJson.c   ****     if(isInTopMenu()) reflashMenu();
 1062              		.loc 1 353 0
 1063 0134 FFF7FEFF 		bl	isInTopMenu
 1064              	.LVL142:
 1065 0138 0028     		cmp	r0, #0
 1066 013a 01D0     		beq	.L57
 1067              		.loc 1 353 0 is_stmt 0 discriminator 1
 1068 013c FFF7FEFF 		bl	reflashMenu
 1069              	.LVL143:
 1070              	.L57:
 354:andonJson.c   ****     //g_TopMenuNode->func(NULL,REFLASH);
 355:andonJson.c   **** 
 356:andonJson.c   ****     g_Info.bUpdateDeviceInfo = TRUE;
 1071              		.loc 1 356 0 is_stmt 1
 1072 0140 0122     		movs	r2, #1
 1073 0142 0F4B     		ldr	r3, .L59+48
 1074 0144 1A70     		strb	r2, [r3]
 357:andonJson.c   ****     
 358:andonJson.c   ****     return TRUE;
 1075              		.loc 1 358 0
 1076 0146 0120     		movs	r0, #1
 1077              	.LVL144:
 1078              	.L50:
 359:andonJson.c   **** }
 1079              		.loc 1 359 0
 1080 0148 104B     		ldr	r3, .L59+60
 1081 014a 9D44     		add	sp, sp, r3
 1082              		@ sp needed
 1083              	.LVL145:
 1084              	.LVL146:
 1085 014c F0BD     		pop	{r4, r5, r6, r7, pc}
 1086              	.L60:
 1087 014e C046     		.align	2
 1088              	.L59:
 1089 0150 D4FAFFFF 		.word	-1324
 1090 0154 1C050000 		.word	1308
 1091 0158 00000000 		.word	.LC0
 1092 015c 1C000000 		.word	.LC2
 1093 0160 5C000000 		.word	.LC13
 1094 0164 01000000 		.word	g_Info+1
 1095 0168 68000000 		.word	.LC15
 1096 016c 70000000 		.word	.LC19
 1097 0170 B0000000 		.word	.LC43
 1098 0174 00000000 		.word	g_bTargetReceived
 1099 0178 00000000 		.word	g_lastSendTime
 1100 017c B8000000 		.word	.LC47
 1101 0180 00000000 		.word	g_Info
 1102 0184 00000000 		.word	g_index_request_interval
 1103 0188 00000000 		.word	g_bReceivedAndonStart
 1104 018c 2C050000 		.word	1324
 1105              		.cfi_endproc
 1106              	.LFE66:
 1107              		.size	andonStart, .-andonStart
 1108              		.section	.text.andonRequestItem,"ax",%progbits
 1109              		.align	2
 1110              		.global	andonRequestItem
 1111              		.code	16
ARM GAS  C:\Users\luvsd\AppData\Local\Temp\ccV8yooc.s 			page 27


 1112              		.thumb_func
 1113              		.type	andonRequestItem, %function
 1114              	andonRequestItem:
 1115              	.LFB67:
 360:andonJson.c   **** 
 361:andonJson.c   **** uint8 andonRequestItem(char *jsonString, int16 sizeOfJson)
 362:andonJson.c   **** {
 1116              		.loc 1 362 0
 1117              		.cfi_startproc
 1118              		@ args = 0, pretend = 0, frame = 1296
 1119              		@ frame_needed = 0, uses_anonymous_args = 0
 1120              	.LVL147:
 1121 0000 30B5     		push	{r4, r5, lr}
 1122              		.cfi_def_cfa_offset 12
 1123              		.cfi_offset 4, -12
 1124              		.cfi_offset 5, -8
 1125              		.cfi_offset 14, -4
 1126 0002 184C     		ldr	r4, .L68
 1127 0004 A544     		add	sp, sp, r4
 1128              		.cfi_def_cfa_offset 1320
 1129 0006 0400     		movs	r4, r0
 1130 0008 0D00     		movs	r5, r1
 363:andonJson.c   ****     int i;
 364:andonJson.c   ****     int r;
 365:andonJson.c   ****     jsmn_parser p;
 366:andonJson.c   ****     jsmntok_t t[80]; /* 최대 토큰 수: 80 (10개 항목 JSON = 73 tokens, 여유 7) */
 367:andonJson.c   ****         
 368:andonJson.c   ****     jsmn_init(&p);
 1131              		.loc 1 368 0
 1132 000a 174B     		ldr	r3, .L68+4
 1133 000c 6B44     		add	r3, r3, sp
 1134 000e 1800     		movs	r0, r3
 1135              	.LVL148:
 1136 0010 FFF7FEFF 		bl	jsmn_init
 1137              	.LVL149:
 369:andonJson.c   ****     r = jsmn_parse(&p, jsonString, sizeOfJson, t, sizeof(t) / sizeof(t[0]));
 1138              		.loc 1 369 0
 1139 0014 5023     		movs	r3, #80
 1140 0016 0093     		str	r3, [sp]
 1141 0018 03AB     		add	r3, sp, #12
 1142 001a 2A00     		movs	r2, r5
 1143 001c 2100     		movs	r1, r4
 1144 001e 1248     		ldr	r0, .L68+4
 1145 0020 6844     		add	r0, r0, sp
 1146 0022 FFF7FEFF 		bl	jsmn_parse
 1147              	.LVL150:
 370:andonJson.c   ****     
 371:andonJson.c   ****     if (r < 0) {
 1148              		.loc 1 371 0
 1149 0026 0028     		cmp	r0, #0
 1150 0028 05DA     		bge	.L62
 372:andonJson.c   ****         #ifdef DEBUG_ANDON_JSON
 373:andonJson.c   ****             printf("Failed to parse JSON: %d\r\n", r);
 1151              		.loc 1 373 0
 1152 002a 0100     		movs	r1, r0
 1153 002c 0F48     		ldr	r0, .L68+8
 1154              	.LVL151:
ARM GAS  C:\Users\luvsd\AppData\Local\Temp\ccV8yooc.s 			page 28


 1155 002e FFF7FEFF 		bl	printf
 1156              	.LVL152:
 374:andonJson.c   ****         #endif
 375:andonJson.c   ****         return FALSE;
 1157              		.loc 1 375 0
 1158 0032 0020     		movs	r0, #0
 1159 0034 12E0     		b	.L63
 1160              	.LVL153:
 1161              	.L62:
 376:andonJson.c   ****     }
 377:andonJson.c   ****     
 378:andonJson.c   ****     /* Assume the top-level element is an object */
 379:andonJson.c   ****     if (r < 1 || t[0].type != JSMN_OBJECT) {
 1162              		.loc 1 379 0
 1163 0036 0028     		cmp	r0, #0
 1164 0038 03DD     		ble	.L64
 1165              		.loc 1 379 0 is_stmt 0 discriminator 1
 1166 003a 03AB     		add	r3, sp, #12
 1167 003c 1B78     		ldrb	r3, [r3]
 1168 003e 012B     		cmp	r3, #1
 1169 0040 08D0     		beq	.L67
 1170              	.L64:
 380:andonJson.c   ****         #ifdef DEBUG_ANDON_JSON
 381:andonJson.c   ****             printf("Object expected type: %d\r\n", t[0].type);
 1171              		.loc 1 381 0 is_stmt 1
 1172 0042 03AB     		add	r3, sp, #12
 1173 0044 1978     		ldrb	r1, [r3]
 1174 0046 0A48     		ldr	r0, .L68+12
 1175              	.LVL154:
 1176 0048 FFF7FEFF 		bl	printf
 1177              	.LVL155:
 382:andonJson.c   ****         #endif     
 383:andonJson.c   ****         return FALSE;
 1178              		.loc 1 383 0
 1179 004c 0020     		movs	r0, #0
 1180 004e 05E0     		b	.L63
 1181              	.LVL156:
 1182              	.L66:
 384:andonJson.c   ****     }
 385:andonJson.c   ****     char buff[20];
 386:andonJson.c   ****     for (i = 1; i < r; i++)
 1183              		.loc 1 386 0 discriminator 3
 1184 0050 0133     		adds	r3, r3, #1
 1185              	.LVL157:
 1186 0052 00E0     		b	.L65
 1187              	.LVL158:
 1188              	.L67:
 1189 0054 0123     		movs	r3, #1
 1190              	.L65:
 1191              	.LVL159:
 1192              		.loc 1 386 0 is_stmt 0 discriminator 1
 1193 0056 8342     		cmp	r3, r0
 1194 0058 FADB     		blt	.L66
 387:andonJson.c   ****     {   
 388:andonJson.c   ****     }
 389:andonJson.c   ****  
 390:andonJson.c   ****     return TRUE;
ARM GAS  C:\Users\luvsd\AppData\Local\Temp\ccV8yooc.s 			page 29


 1195              		.loc 1 390 0 is_stmt 1
 1196 005a 0120     		movs	r0, #1
 1197              	.LVL160:
 1198              	.L63:
 391:andonJson.c   **** }
 1199              		.loc 1 391 0
 1200 005c 054B     		ldr	r3, .L68+16
 1201 005e 9D44     		add	sp, sp, r3
 1202              		@ sp needed
 1203              	.LVL161:
 1204 0060 30BD     		pop	{r4, r5, pc}
 1205              	.L69:
 1206 0062 C046     		.align	2
 1207              	.L68:
 1208 0064 E4FAFFFF 		.word	-1308
 1209 0068 0C050000 		.word	1292
 1210 006c 00000000 		.word	.LC0
 1211 0070 1C000000 		.word	.LC2
 1212 0074 1C050000 		.word	1308
 1213              		.cfi_endproc
 1214              	.LFE67:
 1215              		.size	andonRequestItem, .-andonRequestItem
 1216              		.section	.text.andonMenuParsing,"ax",%progbits
 1217              		.align	2
 1218              		.global	andonMenuParsing
 1219              		.code	16
 1220              		.thumb_func
 1221              		.type	andonMenuParsing, %function
 1222              	andonMenuParsing:
 1223              	.LFB68:
 392:andonJson.c   **** uint8 andonMenuParsing(char *jsonString, int16 sizeOfJson)
 393:andonJson.c   **** {
 1224              		.loc 1 393 0
 1225              		.cfi_startproc
 1226              		@ args = 0, pretend = 0, frame = 1360
 1227              		@ frame_needed = 0, uses_anonymous_args = 0
 1228              	.LVL162:
 1229 0000 F0B5     		push	{r4, r5, r6, r7, lr}
 1230              		.cfi_def_cfa_offset 20
 1231              		.cfi_offset 4, -20
 1232              		.cfi_offset 5, -16
 1233              		.cfi_offset 6, -12
 1234              		.cfi_offset 7, -8
 1235              		.cfi_offset 14, -4
 1236 0002 5F46     		mov	r7, fp
 1237 0004 5646     		mov	r6, r10
 1238 0006 4D46     		mov	r5, r9
 1239 0008 4446     		mov	r4, r8
 1240 000a F0B4     		push	{r4, r5, r6, r7}
 1241              		.cfi_def_cfa_offset 36
 1242              		.cfi_offset 8, -36
 1243              		.cfi_offset 9, -32
 1244              		.cfi_offset 10, -28
 1245              		.cfi_offset 11, -24
 1246 000c B54C     		ldr	r4, .L95
 1247 000e A544     		add	sp, sp, r4
 1248              		.cfi_def_cfa_offset 1408
ARM GAS  C:\Users\luvsd\AppData\Local\Temp\ccV8yooc.s 			page 30


 1249 0010 0500     		movs	r5, r0
 1250 0012 0390     		str	r0, [sp, #12]
 1251 0014 0C00     		movs	r4, r1
 394:andonJson.c   ****     int i;
 395:andonJson.c   ****     int r;
 396:andonJson.c   ****     jsmn_parser p;
 397:andonJson.c   ****     jsmntok_t t[80]; /* 최대 토큰 수: 80 (10개 항목 JSON = 73 tokens, 여유 7) */
 398:andonJson.c   ****     
 399:andonJson.c   ****     jsmn_init(&p);
 1252              		.loc 1 399 0
 1253 0016 B44B     		ldr	r3, .L95+4
 1254 0018 06AA     		add	r2, sp, #24
 1255 001a 9446     		mov	ip, r2
 1256 001c 6344     		add	r3, r3, ip
 1257 001e 1800     		movs	r0, r3
 1258              	.LVL163:
 1259 0020 FFF7FEFF 		bl	jsmn_init
 1260              	.LVL164:
 400:andonJson.c   ****    // printf("%s\r\n",jsonString);
 401:andonJson.c   ****     r = jsmn_parse(&p, jsonString, sizeOfJson, t, sizeof(t) / sizeof(t[0]));
 1261              		.loc 1 401 0
 1262 0024 5023     		movs	r3, #80
 1263 0026 0093     		str	r3, [sp]
 1264 0028 13AB     		add	r3, sp, #76
 1265 002a 2200     		movs	r2, r4
 1266 002c 2900     		movs	r1, r5
 1267 002e AE48     		ldr	r0, .L95+4
 1268 0030 06AC     		add	r4, sp, #24
 1269 0032 A446     		mov	ip, r4
 1270 0034 6044     		add	r0, r0, ip
 1271 0036 FFF7FEFF 		bl	jsmn_parse
 1272              	.LVL165:
 1273 003a 0690     		str	r0, [sp, #24]
 1274              	.LVL166:
 402:andonJson.c   ****     
 403:andonJson.c   ****     
 404:andonJson.c   ****     if (r < 0) {
 1275              		.loc 1 404 0
 1276 003c 0028     		cmp	r0, #0
 1277 003e 05DA     		bge	.L71
 405:andonJson.c   ****         #ifdef DEBUG_ANDON_JSON        
 406:andonJson.c   ****             printf("Failed to parse JSON: %d\r\n", r);
 1278              		.loc 1 406 0
 1279 0040 0100     		movs	r1, r0
 1280 0042 AA48     		ldr	r0, .L95+8
 1281              	.LVL167:
 1282 0044 FFF7FEFF 		bl	printf
 1283              	.LVL168:
 407:andonJson.c   ****         #endif        
 408:andonJson.c   ****         return FALSE;
 1284              		.loc 1 408 0
 1285 0048 0020     		movs	r0, #0
 1286 004a 43E1     		b	.L72
 1287              	.LVL169:
 1288              	.L71:
 409:andonJson.c   ****     }
 410:andonJson.c   ****     
ARM GAS  C:\Users\luvsd\AppData\Local\Temp\ccV8yooc.s 			page 31


 411:andonJson.c   ****     /* Assume the top-level element is an object */
 412:andonJson.c   ****     if (r < 1 || t[0].type != JSMN_OBJECT) {
 1289              		.loc 1 412 0
 1290 004c 069B     		ldr	r3, [sp, #24]
 1291 004e 002B     		cmp	r3, #0
 1292 0050 03DD     		ble	.L73
 1293              		.loc 1 412 0 is_stmt 0 discriminator 1
 1294 0052 13AB     		add	r3, sp, #76
 1295 0054 1B78     		ldrb	r3, [r3]
 1296 0056 012B     		cmp	r3, #1
 1297 0058 07D0     		beq	.L74
 1298              	.L73:
 413:andonJson.c   ****         #ifdef DEBUG_ANDON_JSON        
 414:andonJson.c   ****             printf("Object expected type: %d , %d\r\n", t[0].type, r);
 1299              		.loc 1 414 0 is_stmt 1
 1300 005a 13AB     		add	r3, sp, #76
 1301 005c 1978     		ldrb	r1, [r3]
 1302 005e 069A     		ldr	r2, [sp, #24]
 1303 0060 A348     		ldr	r0, .L95+12
 1304              	.LVL170:
 1305 0062 FFF7FEFF 		bl	printf
 1306              	.LVL171:
 415:andonJson.c   ****         #endif              
 416:andonJson.c   ****         return FALSE;
 1307              		.loc 1 416 0
 1308 0066 0020     		movs	r0, #0
 1309 0068 34E1     		b	.L72
 1310              	.LVL172:
 1311              	.L74:
 417:andonJson.c   ****     }
 418:andonJson.c   **** 
 419:andonJson.c   ****     g_AndonLists.bUpdated = FALSE;    
 1312              		.loc 1 419 0
 1313 006a 0022     		movs	r2, #0
 1314 006c A14B     		ldr	r3, .L95+16
 1315 006e 1A70     		strb	r2, [r3]
 1316              	.LVL173:
 420:andonJson.c   ****     char tmpBuff[20], textBuff[20], status[10];    
 421:andonJson.c   ****     int16 index=-1, idx, incr=1;
 1317              		.loc 1 421 0
 1318 0070 0124     		movs	r4, #1
 1319 0072 0123     		movs	r3, #1
 1320 0074 5B42     		rsbs	r3, r3, #0
 1321 0076 0593     		str	r3, [sp, #20]
 422:andonJson.c   ****     ANDON_LIST_ITEM *item;
 423:andonJson.c   ****     
 424:andonJson.c   ****     for(i=0; i < t[0].size; i++)
 1322              		.loc 1 424 0
 1323 0078 0023     		movs	r3, #0
 1324 007a 0493     		str	r3, [sp, #16]
 1325 007c 17E1     		b	.L75
 1326              	.LVL174:
 1327              	.L92:
 425:andonJson.c   ****     {
 426:andonJson.c   ****         if(incr >= r) break;
 1328              		.loc 1 426 0
 1329 007e 069B     		ldr	r3, [sp, #24]
ARM GAS  C:\Users\luvsd\AppData\Local\Temp\ccV8yooc.s 			page 32


 1330              	.LVL175:
 1331 0080 A342     		cmp	r3, r4
 1332 0082 00DC     		bgt	.LCB1367
 1333 0084 18E1     		b	.L76	@long jump
 1334              	.LCB1367:
 427:andonJson.c   ****         
 428:andonJson.c   ****         incr++;
 1335              		.loc 1 428 0
 1336 0086 0134     		adds	r4, r4, #1
 1337              	.LVL176:
 1338 0088 24B2     		sxth	r4, r4
 1339              	.LVL177:
 429:andonJson.c   ****             
 430:andonJson.c   ****         if(t[incr].type == JSMN_ARRAY)
 1340              		.loc 1 430 0
 1341 008a 2201     		lsls	r2, r4, #4
 1342 008c 13AB     		add	r3, sp, #76
 1343 008e D35C     		ldrb	r3, [r2, r3]
 1344 0090 022B     		cmp	r3, #2
 1345 0092 00D0     		beq	.LCB1377
 1346 0094 08E1     		b	.L77	@long jump
 1347              	.LCB1377:
 1348              	.LBB7:
 431:andonJson.c   ****         {
 432:andonJson.c   ****             int arraySize = t[incr].size;
 1349              		.loc 1 432 0
 1350 0096 1300     		movs	r3, r2
 1351 0098 13AA     		add	r2, sp, #76
 1352 009a 9446     		mov	ip, r2
 1353 009c 6344     		add	r3, r3, ip
 1354 009e DB68     		ldr	r3, [r3, #12]
 1355 00a0 9846     		mov	r8, r3
 1356              	.LVL178:
 1357              	.LBB8:
 433:andonJson.c   **** 
 434:andonJson.c   ****             for(int j=0; j < arraySize; j++)
 1358              		.loc 1 434 0
 1359 00a2 0023     		movs	r3, #0
 1360              	.LVL179:
 1361 00a4 9A46     		mov	r10, r3
 1362 00a6 FCE0     		b	.L78
 1363              	.LVL180:
 1364              	.L91:
 435:andonJson.c   ****             {
 436:andonJson.c   ****                 incr++;        
 1365              		.loc 1 436 0
 1366 00a8 0134     		adds	r4, r4, #1
 1367              	.LVL181:
 1368 00aa 24B2     		sxth	r4, r4
 1369              	.LVL182:
 437:andonJson.c   ****                      
 438:andonJson.c   ****                 if(t[incr].type == JSMN_OBJECT)
 1370              		.loc 1 438 0
 1371 00ac 2201     		lsls	r2, r4, #4
 1372 00ae 13AB     		add	r3, sp, #76
 1373 00b0 D35C     		ldrb	r3, [r2, r3]
 1374 00b2 012B     		cmp	r3, #1
ARM GAS  C:\Users\luvsd\AppData\Local\Temp\ccV8yooc.s 			page 33


 1375 00b4 00D0     		beq	.LCB1409
 1376 00b6 F1E0     		b	.L79	@long jump
 1377              	.LCB1409:
 1378              	.LBB9:
 439:andonJson.c   ****                 {
 440:andonJson.c   ****                     int objSize = t[incr].size;
 1379              		.loc 1 440 0
 1380 00b8 1300     		movs	r3, r2
 1381 00ba 13AA     		add	r2, sp, #76
 1382 00bc 9446     		mov	ip, r2
 1383 00be 6344     		add	r3, r3, ip
 1384 00c0 DB68     		ldr	r3, [r3, #12]
 1385 00c2 9946     		mov	r9, r3
 1386              	.LVL183:
 441:andonJson.c   ****                 
 442:andonJson.c   ****                     item = &g_AndonLists.item[++index];  
 1387              		.loc 1 442 0
 1388 00c4 059B     		ldr	r3, [sp, #20]
 1389              	.LVL184:
 1390 00c6 0133     		adds	r3, r3, #1
 1391 00c8 1BB2     		sxth	r3, r3
 1392 00ca 0593     		str	r3, [sp, #20]
 1393              	.LVL185:
 1394 00cc 1F00     		movs	r7, r3
 1395              	.LVL186:
 1396              	.LBB10:
 443:andonJson.c   ****                     for(int k=0; k < objSize; k++)
 1397              		.loc 1 443 0
 1398 00ce 0026     		movs	r6, #0
 1399 00d0 E1E0     		b	.L80
 1400              	.LVL187:
 1401              	.L90:
 444:andonJson.c   ****                     {    
 445:andonJson.c   ****                         incr++;
 1402              		.loc 1 445 0
 1403 00d2 A3B2     		uxth	r3, r4
 1404 00d4 9B46     		mov	fp, r3
 1405 00d6 5C1C     		adds	r4, r3, #1
 1406              	.LVL188:
 1407 00d8 24B2     		sxth	r4, r4
 1408              	.LVL189:
 446:andonJson.c   **** 
 447:andonJson.c   ****                         //if (jsoneq(jsonString, &t[incr], "andon_text_idx") == 0)
 448:andonJson.c   ****                         if (jsoneq(jsonString, &t[incr], "andon_idx") == 0)
 1409              		.loc 1 448 0
 1410 00da 2501     		lsls	r5, r4, #4
 1411 00dc 13AB     		add	r3, sp, #76
 1412 00de 9C46     		mov	ip, r3
 1413 00e0 6544     		add	r5, r5, ip
 1414 00e2 854A     		ldr	r2, .L95+20
 1415 00e4 2900     		movs	r1, r5
 1416 00e6 0398     		ldr	r0, [sp, #12]
 1417 00e8 FFF7FEFF 		bl	jsoneq
 1418              	.LVL190:
 1419 00ec 0028     		cmp	r0, #0
 1420 00ee 28D1     		bne	.L81
 449:andonJson.c   ****                         {
ARM GAS  C:\Users\luvsd\AppData\Local\Temp\ccV8yooc.s 			page 34


 450:andonJson.c   ****                             incr++;   
 1421              		.loc 1 450 0
 1422 00f0 5C46     		mov	r4, fp
 1423              	.LVL191:
 1424 00f2 0234     		adds	r4, r4, #2
 1425              	.LVL192:
 1426 00f4 24B2     		sxth	r4, r4
 1427              	.LVL193:
 451:andonJson.c   ****                             sprintf(tmpBuff,"%.*s",t[incr].end - t[incr].start,jsonString + t[incr]
 1428              		.loc 1 451 0
 1429 00f6 2301     		lsls	r3, r4, #4
 1430 00f8 13AA     		add	r2, sp, #76
 1431 00fa 9446     		mov	ip, r2
 1432 00fc 6344     		add	r3, r3, ip
 1433 00fe 9A68     		ldr	r2, [r3, #8]
 1434 0100 5968     		ldr	r1, [r3, #4]
 1435 0102 039B     		ldr	r3, [sp, #12]
 1436 0104 5B18     		adds	r3, r3, r1
 1437 0106 521A     		subs	r2, r2, r1
 1438 0108 7C49     		ldr	r1, .L95+24
 1439 010a 0EA8     		add	r0, sp, #56
 1440 010c FFF7FEFF 		bl	sprintf
 1441              	.LVL194:
 452:andonJson.c   ****                             idx = atoi(tmpBuff);
 1442              		.loc 1 452 0
 1443 0110 0EA8     		add	r0, sp, #56
 1444 0112 FFF7FEFF 		bl	atoi
 1445              	.LVL195:
 1446 0116 00B2     		sxth	r0, r0
 1447              	.LVL196:
 453:andonJson.c   ****                              if(item->idx != idx)
 1448              		.loc 1 453 0
 1449 0118 2623     		movs	r3, #38
 1450 011a 7B43     		muls	r3, r7
 1451 011c 754A     		ldr	r2, .L95+16
 1452 011e D318     		adds	r3, r2, r3
 1453 0120 2622     		movs	r2, #38
 1454 0122 9B5E     		ldrsh	r3, [r3, r2]
 1455 0124 9842     		cmp	r0, r3
 1456 0126 06D0     		beq	.L82
 454:andonJson.c   ****                             {
 455:andonJson.c   ****                                 item->bUpdated = TRUE;
 1457              		.loc 1 455 0
 1458 0128 724A     		ldr	r2, .L95+16
 1459 012a 2623     		movs	r3, #38
 1460 012c 7B43     		muls	r3, r7
 1461 012e D318     		adds	r3, r2, r3
 1462 0130 0121     		movs	r1, #1
 1463 0132 1971     		strb	r1, [r3, #4]
 456:andonJson.c   ****                                 g_AndonLists.bUpdated = TRUE; 
 1464              		.loc 1 456 0
 1465 0134 1170     		strb	r1, [r2]
 1466              	.L82:
 457:andonJson.c   ****                             }
 458:andonJson.c   ****                             item->idx = idx;
 1467              		.loc 1 458 0
 1468 0136 2623     		movs	r3, #38
ARM GAS  C:\Users\luvsd\AppData\Local\Temp\ccV8yooc.s 			page 35


 1469 0138 7B43     		muls	r3, r7
 1470 013a 6E4A     		ldr	r2, .L95+16
 1471 013c D318     		adds	r3, r2, r3
 1472 013e D884     		strh	r0, [r3, #38]
 1473 0140 A8E0     		b	.L83
 1474              	.LVL197:
 1475              	.L81:
 459:andonJson.c   ****                         }
 460:andonJson.c   ****                         //else if (jsoneq(jsonString, &t[incr], "andon_text") == 0)
 461:andonJson.c   ****                         else if (jsoneq(jsonString, &t[incr], "andon_name") == 0)
 1476              		.loc 1 461 0
 1477 0142 6F4A     		ldr	r2, .L95+28
 1478 0144 2900     		movs	r1, r5
 1479 0146 0398     		ldr	r0, [sp, #12]
 1480 0148 FFF7FEFF 		bl	jsoneq
 1481              	.LVL198:
 1482 014c 0028     		cmp	r0, #0
 1483 014e 29D1     		bne	.L84
 462:andonJson.c   ****                         {
 463:andonJson.c   ****                             incr++;                               
 1484              		.loc 1 463 0
 1485 0150 5C46     		mov	r4, fp
 1486              	.LVL199:
 1487 0152 0234     		adds	r4, r4, #2
 1488 0154 24B2     		sxth	r4, r4
 1489              	.LVL200:
 464:andonJson.c   ****                             sprintf(textBuff,"%.*s",t[incr].end - t[incr].start,jsonString + t[incr
 1490              		.loc 1 464 0
 1491 0156 2301     		lsls	r3, r4, #4
 1492 0158 13AA     		add	r2, sp, #76
 1493 015a 9446     		mov	ip, r2
 1494 015c 6344     		add	r3, r3, ip
 1495 015e 9A68     		ldr	r2, [r3, #8]
 1496 0160 5968     		ldr	r1, [r3, #4]
 1497 0162 039B     		ldr	r3, [sp, #12]
 1498 0164 5B18     		adds	r3, r3, r1
 1499 0166 521A     		subs	r2, r2, r1
 1500 0168 6449     		ldr	r1, .L95+24
 1501 016a 09A8     		add	r0, sp, #36
 1502 016c FFF7FEFF 		bl	sprintf
 1503              	.LVL201:
 465:andonJson.c   ****                             
 466:andonJson.c   ****                             if(strcmp(item->text, textBuff) != 0)
 1504              		.loc 1 466 0
 1505 0170 2625     		movs	r5, #38
 1506 0172 7D43     		muls	r5, r7
 1507 0174 5F4B     		ldr	r3, .L95+16
 1508 0176 ED18     		adds	r5, r5, r3
 1509 0178 0635     		adds	r5, r5, #6
 1510 017a 09A9     		add	r1, sp, #36
 1511 017c 2800     		movs	r0, r5
 1512 017e FFF7FEFF 		bl	strcmp
 1513              	.LVL202:
 1514 0182 0028     		cmp	r0, #0
 1515 0184 06D0     		beq	.L85
 467:andonJson.c   ****                             {
 468:andonJson.c   ****                                 item->bUpdated = TRUE;
ARM GAS  C:\Users\luvsd\AppData\Local\Temp\ccV8yooc.s 			page 36


 1516              		.loc 1 468 0
 1517 0186 5B4A     		ldr	r2, .L95+16
 1518 0188 2623     		movs	r3, #38
 1519 018a 7B43     		muls	r3, r7
 1520 018c D318     		adds	r3, r2, r3
 1521 018e 0121     		movs	r1, #1
 1522 0190 1971     		strb	r1, [r3, #4]
 469:andonJson.c   ****                                 g_AndonLists.bUpdated = TRUE; 
 1523              		.loc 1 469 0
 1524 0192 1170     		strb	r1, [r2]
 1525              	.L85:
 470:andonJson.c   ****                             }
 471:andonJson.c   ****                             
 472:andonJson.c   ****                             strcpy(item->text, textBuff);
 1526              		.loc 1 472 0
 1527 0194 09A9     		add	r1, sp, #36
 1528 0196 2800     		movs	r0, r5
 1529 0198 FFF7FEFF 		bl	strcpy
 1530              	.LVL203:
 473:andonJson.c   **** 
 474:andonJson.c   ****                             g_uReplyResult = RR_SUCCESS;                
 1531              		.loc 1 474 0
 1532 019c 0122     		movs	r2, #1
 1533 019e 594B     		ldr	r3, .L95+32
 1534 01a0 1A70     		strb	r2, [r3]
 1535 01a2 77E0     		b	.L83
 1536              	.L84:
 475:andonJson.c   ****                         }
 476:andonJson.c   ****                         else if (jsoneq(jsonString, &t[incr], "not_completed_qty") == 0)
 1537              		.loc 1 476 0
 1538 01a4 584A     		ldr	r2, .L95+36
 1539 01a6 2900     		movs	r1, r5
 1540 01a8 0398     		ldr	r0, [sp, #12]
 1541 01aa FFF7FEFF 		bl	jsoneq
 1542              	.LVL204:
 1543 01ae 0028     		cmp	r0, #0
 1544 01b0 2FD1     		bne	.L86
 1545              	.LBB11:
 477:andonJson.c   ****                         {
 478:andonJson.c   ****                             incr++;                               
 1546              		.loc 1 478 0
 1547 01b2 5C46     		mov	r4, fp
 1548              	.LVL205:
 1549 01b4 0234     		adds	r4, r4, #2
 1550 01b6 24B2     		sxth	r4, r4
 1551              	.LVL206:
 479:andonJson.c   ****                             sprintf(textBuff,"%.*s",t[incr].end - t[incr].start,jsonString + t[incr
 1552              		.loc 1 479 0
 1553 01b8 2301     		lsls	r3, r4, #4
 1554 01ba 13AA     		add	r2, sp, #76
 1555 01bc 9446     		mov	ip, r2
 1556 01be 6344     		add	r3, r3, ip
 1557 01c0 9A68     		ldr	r2, [r3, #8]
 1558 01c2 5968     		ldr	r1, [r3, #4]
 1559 01c4 039B     		ldr	r3, [sp, #12]
 1560 01c6 5B18     		adds	r3, r3, r1
 1561 01c8 521A     		subs	r2, r2, r1
ARM GAS  C:\Users\luvsd\AppData\Local\Temp\ccV8yooc.s 			page 37


 1562 01ca 4C49     		ldr	r1, .L95+24
 1563 01cc 09A8     		add	r0, sp, #36
 1564 01ce FFF7FEFF 		bl	sprintf
 1565              	.LVL207:
 480:andonJson.c   ****                             int16_t not_completed_qty = atoi(textBuff);
 1566              		.loc 1 480 0
 1567 01d2 09A8     		add	r0, sp, #36
 1568 01d4 FFF7FEFF 		bl	atoi
 1569              	.LVL208:
 1570 01d8 05B2     		sxth	r5, r0
 1571              	.LVL209:
 481:andonJson.c   ****                             if(item->not_completed_qty !=  atoi(textBuff) )
 1572              		.loc 1 481 0
 1573 01da 2623     		movs	r3, #38
 1574 01dc 7B43     		muls	r3, r7
 1575 01de 454A     		ldr	r2, .L95+16
 1576 01e0 D318     		adds	r3, r2, r3
 1577 01e2 2822     		movs	r2, #40
 1578 01e4 9B5E     		ldrsh	r3, [r3, r2]
 1579 01e6 9B46     		mov	fp, r3
 1580 01e8 09A8     		add	r0, sp, #36
 1581 01ea FFF7FEFF 		bl	atoi
 1582              	.LVL210:
 1583 01ee 8345     		cmp	fp, r0
 1584 01f0 06D0     		beq	.L87
 482:andonJson.c   ****                             {
 483:andonJson.c   ****                                 item->bUpdated = TRUE;
 1585              		.loc 1 483 0
 1586 01f2 404A     		ldr	r2, .L95+16
 1587 01f4 2623     		movs	r3, #38
 1588 01f6 7B43     		muls	r3, r7
 1589 01f8 D318     		adds	r3, r2, r3
 1590 01fa 0121     		movs	r1, #1
 1591 01fc 1971     		strb	r1, [r3, #4]
 484:andonJson.c   ****                                 g_AndonLists.bUpdated = TRUE; 
 1592              		.loc 1 484 0
 1593 01fe 1170     		strb	r1, [r2]
 1594              	.L87:
 485:andonJson.c   ****                             }
 486:andonJson.c   ****                             
 487:andonJson.c   ****                             item->not_completed_qty = not_completed_qty;
 1595              		.loc 1 487 0
 1596 0200 2623     		movs	r3, #38
 1597 0202 7B43     		muls	r3, r7
 1598 0204 3B4A     		ldr	r2, .L95+16
 1599 0206 D318     		adds	r3, r2, r3
 1600 0208 1D85     		strh	r5, [r3, #40]
 488:andonJson.c   ****                             
 489:andonJson.c   ****                             g_uReplyResult = RR_SUCCESS;                
 1601              		.loc 1 489 0
 1602 020a 0122     		movs	r2, #1
 1603 020c 3D4B     		ldr	r3, .L95+32
 1604 020e 1A70     		strb	r2, [r3]
 1605              	.LBE11:
 1606 0210 40E0     		b	.L83
 1607              	.LVL211:
 1608              	.L86:
ARM GAS  C:\Users\luvsd\AppData\Local\Temp\ccV8yooc.s 			page 38


 490:andonJson.c   ****                         }
 491:andonJson.c   ****  
 492:andonJson.c   ****                         else if (jsoneq(jsonString, &t[incr], "warning_blink") == 0)
 1609              		.loc 1 492 0
 1610 0212 3E4A     		ldr	r2, .L95+40
 1611 0214 2900     		movs	r1, r5
 1612 0216 0398     		ldr	r0, [sp, #12]
 1613 0218 FFF7FEFF 		bl	jsoneq
 1614              	.LVL212:
 1615 021c 0028     		cmp	r0, #0
 1616 021e 39D1     		bne	.L83
 493:andonJson.c   ****                         {
 494:andonJson.c   ****                             incr++;                               
 1617              		.loc 1 494 0
 1618 0220 5C46     		mov	r4, fp
 1619              	.LVL213:
 1620 0222 0234     		adds	r4, r4, #2
 1621 0224 24B2     		sxth	r4, r4
 1622              	.LVL214:
 495:andonJson.c   ****                             sprintf(textBuff,"%.*s",t[incr].end - t[incr].start,jsonString + t[incr
 1623              		.loc 1 495 0
 1624 0226 2301     		lsls	r3, r4, #4
 1625 0228 13AA     		add	r2, sp, #76
 1626 022a 9446     		mov	ip, r2
 1627 022c 6344     		add	r3, r3, ip
 1628 022e 9A68     		ldr	r2, [r3, #8]
 1629 0230 5968     		ldr	r1, [r3, #4]
 1630 0232 039B     		ldr	r3, [sp, #12]
 1631 0234 5B18     		adds	r3, r3, r1
 1632 0236 521A     		subs	r2, r2, r1
 1633 0238 3049     		ldr	r1, .L95+24
 1634 023a 09A8     		add	r0, sp, #36
 1635 023c FFF7FEFF 		bl	sprintf
 1636              	.LVL215:
 496:andonJson.c   ****                             
 497:andonJson.c   ****                             if(strcmp(item->text, textBuff) != 0) item->bUpdated = TRUE;
 1637              		.loc 1 497 0
 1638 0240 2620     		movs	r0, #38
 1639 0242 7843     		muls	r0, r7
 1640 0244 2B4B     		ldr	r3, .L95+16
 1641 0246 C018     		adds	r0, r0, r3
 1642 0248 0630     		adds	r0, r0, #6
 1643 024a 09A9     		add	r1, sp, #36
 1644 024c FFF7FEFF 		bl	strcmp
 1645              	.LVL216:
 1646 0250 0028     		cmp	r0, #0
 1647 0252 05D0     		beq	.L88
 1648              		.loc 1 497 0 is_stmt 0 discriminator 1
 1649 0254 2623     		movs	r3, #38
 1650 0256 7B43     		muls	r3, r7
 1651 0258 264A     		ldr	r2, .L95+16
 1652 025a D318     		adds	r3, r2, r3
 1653 025c 0122     		movs	r2, #1
 1654 025e 1A71     		strb	r2, [r3, #4]
 1655              	.L88:
 498:andonJson.c   ****                               
 499:andonJson.c   ****                             WarningLightSet(item->idx, item->not_completed_qty > 0 ? TRUE : FALSE, 
ARM GAS  C:\Users\luvsd\AppData\Local\Temp\ccV8yooc.s 			page 39


 1656              		.loc 1 499 0 is_stmt 1
 1657 0260 2623     		movs	r3, #38
 1658 0262 7B43     		muls	r3, r7
 1659 0264 234A     		ldr	r2, .L95+16
 1660 0266 D318     		adds	r3, r2, r3
 1661 0268 2622     		movs	r2, #38
 1662 026a 9D5E     		ldrsh	r5, [r3, r2]
 1663 026c 2822     		movs	r2, #40
 1664 026e 9B5E     		ldrsh	r3, [r3, r2]
 1665 0270 002B     		cmp	r3, #0
 1666 0272 02DD     		ble	.L94
 1667 0274 0123     		movs	r3, #1
 1668 0276 0793     		str	r3, [sp, #28]
 1669 0278 01E0     		b	.L89
 1670              	.L94:
 1671 027a 0023     		movs	r3, #0
 1672 027c 0793     		str	r3, [sp, #28]
 1673              	.L89:
 1674              		.loc 1 499 0 is_stmt 0 discriminator 4
 1675 027e 09A8     		add	r0, sp, #36
 1676 0280 FFF7FEFF 		bl	atoi
 1677              	.LVL217:
 1678 0284 82B2     		uxth	r2, r0
 1679 0286 0799     		ldr	r1, [sp, #28]
 1680 0288 2800     		movs	r0, r5
 1681 028a FFF7FEFF 		bl	WarningLightSet
 1682              	.LVL218:
 500:andonJson.c   ****  
 501:andonJson.c   ****                             g_uReplyResult = RR_SUCCESS;                
 1683              		.loc 1 501 0 is_stmt 1 discriminator 4
 1684 028e 0122     		movs	r2, #1
 1685 0290 1C4B     		ldr	r3, .L95+32
 1686 0292 1A70     		strb	r2, [r3]
 1687              	.L83:
 443:andonJson.c   ****                     {    
 1688              		.loc 1 443 0 discriminator 2
 1689 0294 0136     		adds	r6, r6, #1
 1690              	.LVL219:
 1691              	.L80:
 443:andonJson.c   ****                     {    
 1692              		.loc 1 443 0 is_stmt 0 discriminator 1
 1693 0296 4E45     		cmp	r6, r9
 1694 0298 00DA     		bge	.LCB1738
 1695 029a 1AE7     		b	.L90	@long jump
 1696              	.LCB1738:
 1697              	.LVL220:
 1698              	.L79:
 1699              	.LBE10:
 1700              	.LBE9:
 434:andonJson.c   ****             {
 1701              		.loc 1 434 0 is_stmt 1 discriminator 2
 1702 029c 0123     		movs	r3, #1
 1703 029e 9C46     		mov	ip, r3
 1704 02a0 E244     		add	r10, r10, ip
 1705              	.LVL221:
 1706              	.L78:
 434:andonJson.c   ****             {
ARM GAS  C:\Users\luvsd\AppData\Local\Temp\ccV8yooc.s 			page 40


 1707              		.loc 1 434 0 is_stmt 0 discriminator 1
 1708 02a2 C245     		cmp	r10, r8
 1709 02a4 00DA     		bge	.LCB1763
 1710 02a6 FFE6     		b	.L91	@long jump
 1711              	.LCB1763:
 1712              	.LVL222:
 1713              	.L77:
 1714              	.LBE8:
 1715              	.LBE7:
 424:andonJson.c   ****     {
 1716              		.loc 1 424 0 is_stmt 1 discriminator 2
 1717 02a8 049B     		ldr	r3, [sp, #16]
 1718 02aa 0133     		adds	r3, r3, #1
 1719 02ac 0493     		str	r3, [sp, #16]
 1720              	.LVL223:
 1721              	.L75:
 424:andonJson.c   ****     {
 1722              		.loc 1 424 0 is_stmt 0 discriminator 1
 1723 02ae 049B     		ldr	r3, [sp, #16]
 1724 02b0 169A     		ldr	r2, [sp, #88]
 1725 02b2 9342     		cmp	r3, r2
 1726 02b4 00DA     		bge	.LCB1791
 1727 02b6 E2E6     		b	.L92	@long jump
 1728              	.LCB1791:
 1729              	.L76:
 502:andonJson.c   ****                         }
 503:andonJson.c   ****                     }
 504:andonJson.c   ****                 }
 505:andonJson.c   ****             }
 506:andonJson.c   ****         }
 507:andonJson.c   ****     }
 508:andonJson.c   ****     
 509:andonJson.c   ****     if( g_AndonLists.noOfList != index+1) g_AndonLists.bUpdated = TRUE; 
 1730              		.loc 1 509 0 is_stmt 1
 1731 02b8 0E4B     		ldr	r3, .L95+16
 1732 02ba 5A78     		ldrb	r2, [r3, #1]
 1733 02bc 059B     		ldr	r3, [sp, #20]
 1734 02be 0133     		adds	r3, r3, #1
 1735 02c0 9A42     		cmp	r2, r3
 1736 02c2 02D0     		beq	.L93
 1737              		.loc 1 509 0 is_stmt 0 discriminator 1
 1738 02c4 0122     		movs	r2, #1
 1739 02c6 0B4B     		ldr	r3, .L95+16
 1740 02c8 1A70     		strb	r2, [r3]
 1741              	.L93:
 510:andonJson.c   ****     g_AndonLists.noOfList = index+1;
 1742              		.loc 1 510 0 is_stmt 1
 1743 02ca 059B     		ldr	r3, [sp, #20]
 1744 02cc 0133     		adds	r3, r3, #1
 1745 02ce 094A     		ldr	r2, .L95+16
 1746 02d0 5370     		strb	r3, [r2, #1]
 511:andonJson.c   **** 
 512:andonJson.c   ****     return TRUE;    
 1747              		.loc 1 512 0
 1748 02d2 0120     		movs	r0, #1
 1749              	.LVL224:
 1750              	.L72:
ARM GAS  C:\Users\luvsd\AppData\Local\Temp\ccV8yooc.s 			page 41


 513:andonJson.c   **** }
 1751              		.loc 1 513 0
 1752 02d4 0E4B     		ldr	r3, .L95+44
 1753 02d6 9D44     		add	sp, sp, r3
 1754              		@ sp needed
 1755 02d8 3CBC     		pop	{r2, r3, r4, r5}
 1756 02da 9046     		mov	r8, r2
 1757 02dc 9946     		mov	r9, r3
 1758 02de A246     		mov	r10, r4
 1759 02e0 AB46     		mov	fp, r5
 1760 02e2 F0BD     		pop	{r4, r5, r6, r7, pc}
 1761              	.L96:
 1762              		.align	2
 1763              	.L95:
 1764 02e4 A4FAFFFF 		.word	-1372
 1765 02e8 34050000 		.word	1332
 1766 02ec 00000000 		.word	.LC0
 1767 02f0 C8000000 		.word	.LC54
 1768 02f4 00000000 		.word	g_AndonLists
 1769 02f8 E8000000 		.word	.LC57
 1770 02fc 68000000 		.word	.LC15
 1771 0300 F4000000 		.word	.LC60
 1772 0304 00000000 		.word	g_uReplyResult
 1773 0308 00010000 		.word	.LC63
 1774 030c 14010000 		.word	.LC65
 1775 0310 5C050000 		.word	1372
 1776              		.cfi_endproc
 1777              	.LFE68:
 1778              		.size	andonMenuParsing, .-andonMenuParsing
 1779              		.section	.text.andonRequestTargetParsing,"ax",%progbits
 1780              		.align	2
 1781              		.global	andonRequestTargetParsing
 1782              		.code	16
 1783              		.thumb_func
 1784              		.type	andonRequestTargetParsing, %function
 1785              	andonRequestTargetParsing:
 1786              	.LFB69:
 514:andonJson.c   **** 
 515:andonJson.c   **** uint8 andonRequestTargetParsing(char *jsonString, int16 sizeOfJson)
 516:andonJson.c   **** {
 1787              		.loc 1 516 0
 1788              		.cfi_startproc
 1789              		@ args = 0, pretend = 0, frame = 1552
 1790              		@ frame_needed = 0, uses_anonymous_args = 0
 1791              	.LVL225:
 1792 0000 F0B5     		push	{r4, r5, r6, r7, lr}
 1793              		.cfi_def_cfa_offset 20
 1794              		.cfi_offset 4, -20
 1795              		.cfi_offset 5, -16
 1796              		.cfi_offset 6, -12
 1797              		.cfi_offset 7, -8
 1798              		.cfi_offset 14, -4
 1799 0002 384C     		ldr	r4, .L107
 1800 0004 A544     		add	sp, sp, r4
 1801              		.cfi_def_cfa_offset 1584
 1802 0006 0500     		movs	r5, r0
 1803 0008 0C00     		movs	r4, r1
ARM GAS  C:\Users\luvsd\AppData\Local\Temp\ccV8yooc.s 			page 42


 517:andonJson.c   ****     int i;
 518:andonJson.c   ****     int r;
 519:andonJson.c   ****     jsmn_parser p;
 520:andonJson.c   ****     jsmntok_t t[80]; /* 최대 토큰 수: 80 (10개 항목 JSON = 73 tokens, 여유 7) */
 521:andonJson.c   ****     
 522:andonJson.c   ****     jsmn_init(&p);
 1804              		.loc 1 522 0
 1805 000a 374B     		ldr	r3, .L107+4
 1806 000c 6B44     		add	r3, r3, sp
 1807 000e 1800     		movs	r0, r3
 1808              	.LVL226:
 1809 0010 FFF7FEFF 		bl	jsmn_init
 1810              	.LVL227:
 523:andonJson.c   ****     r = jsmn_parse(&p, jsonString, sizeOfJson, t, sizeof(t) / sizeof(t[0]));
 1811              		.loc 1 523 0
 1812 0014 5023     		movs	r3, #80
 1813 0016 0093     		str	r3, [sp]
 1814 0018 43AB     		add	r3, sp, #268
 1815 001a 2200     		movs	r2, r4
 1816 001c 2900     		movs	r1, r5
 1817 001e 3248     		ldr	r0, .L107+4
 1818 0020 6844     		add	r0, r0, sp
 1819 0022 FFF7FEFF 		bl	jsmn_parse
 1820              	.LVL228:
 1821 0026 071E     		subs	r7, r0, #0
 1822              	.LVL229:
 524:andonJson.c   ****   
 525:andonJson.c   ****     if (r < 0) {
 1823              		.loc 1 525 0
 1824 0028 05DA     		bge	.L98
 526:andonJson.c   ****         #ifdef DEBUG_ANDON_JSON
 527:andonJson.c   ****             printf("Failed to parse JSON: %d\r\n", r);
 1825              		.loc 1 527 0
 1826 002a 0100     		movs	r1, r0
 1827 002c 2F48     		ldr	r0, .L107+8
 1828              	.LVL230:
 1829 002e FFF7FEFF 		bl	printf
 1830              	.LVL231:
 528:andonJson.c   ****         #endif
 529:andonJson.c   ****         return FALSE;
 1831              		.loc 1 529 0
 1832 0032 0020     		movs	r0, #0
 1833 0034 53E0     		b	.L99
 1834              	.LVL232:
 1835              	.L98:
 530:andonJson.c   ****     }
 531:andonJson.c   **** 
 532:andonJson.c   ****     /* Assume the top-level element is an object */
 533:andonJson.c   ****     if (r < 1 || t[0].type != JSMN_OBJECT) {
 1836              		.loc 1 533 0
 1837 0036 0028     		cmp	r0, #0
 1838 0038 03DD     		ble	.L100
 1839              		.loc 1 533 0 is_stmt 0 discriminator 1
 1840 003a 43AB     		add	r3, sp, #268
 1841 003c 1B78     		ldrb	r3, [r3]
 1842 003e 012B     		cmp	r3, #1
 1843 0040 47D0     		beq	.L105
ARM GAS  C:\Users\luvsd\AppData\Local\Temp\ccV8yooc.s 			page 43


 1844              	.L100:
 534:andonJson.c   ****         #ifdef DEBUG_ANDON_JSON
 535:andonJson.c   ****             printf("Object expected type: %d\r\n", t[0].type);
 1845              		.loc 1 535 0 is_stmt 1
 1846 0042 43AB     		add	r3, sp, #268
 1847 0044 1978     		ldrb	r1, [r3]
 1848 0046 2A48     		ldr	r0, .L107+12
 1849              	.LVL233:
 1850 0048 FFF7FEFF 		bl	printf
 1851              	.LVL234:
 536:andonJson.c   ****         #endif     
 537:andonJson.c   ****         return FALSE;
 1852              		.loc 1 537 0
 1853 004c 0020     		movs	r0, #0
 1854 004e 46E0     		b	.L99
 1855              	.LVL235:
 1856              	.L104:
 538:andonJson.c   ****     }
 539:andonJson.c   ****  
 540:andonJson.c   ****     char buff[256];
 541:andonJson.c   ****     for (i = 1; i < r; i++)
 542:andonJson.c   ****     {   
 543:andonJson.c   ****         if     (jsoneq(jsonString, &t[i], "code") == 0)
 1857              		.loc 1 543 0
 1858 0050 3401     		lsls	r4, r6, #4
 1859 0052 43AB     		add	r3, sp, #268
 1860 0054 9C46     		mov	ip, r3
 1861 0056 6444     		add	r4, r4, ip
 1862 0058 264A     		ldr	r2, .L107+16
 1863 005a 2100     		movs	r1, r4
 1864 005c 2800     		movs	r0, r5
 1865 005e FFF7FEFF 		bl	jsoneq
 1866              	.LVL236:
 1867 0062 0028     		cmp	r0, #0
 1868 0064 13D1     		bne	.L102
 544:andonJson.c   ****         {
 545:andonJson.c   ****             sprintf(buff,"%.*s",t[i + 1].end - t[i + 1].start,jsonString + t[i + 1].start);      
 1869              		.loc 1 545 0
 1870 0066 731C     		adds	r3, r6, #1
 1871 0068 1B01     		lsls	r3, r3, #4
 1872 006a 43AA     		add	r2, sp, #268
 1873 006c 9446     		mov	ip, r2
 1874 006e 6344     		add	r3, r3, ip
 1875 0070 9A68     		ldr	r2, [r3, #8]
 1876 0072 5968     		ldr	r1, [r3, #4]
 1877 0074 6B18     		adds	r3, r5, r1
 1878 0076 521A     		subs	r2, r2, r1
 1879 0078 1F49     		ldr	r1, .L107+20
 1880 007a 03A8     		add	r0, sp, #12
 1881 007c FFF7FEFF 		bl	sprintf
 1882              	.LVL237:
 546:andonJson.c   ****             if(strcmp(buff,"00") != 0)
 1883              		.loc 1 546 0
 1884 0080 1E49     		ldr	r1, .L107+24
 1885 0082 03A8     		add	r0, sp, #12
 1886 0084 FFF7FEFF 		bl	strcmp
 1887              	.LVL238:
ARM GAS  C:\Users\luvsd\AppData\Local\Temp\ccV8yooc.s 			page 44


 1888 0088 0028     		cmp	r0, #0
 1889 008a 20D0     		beq	.L103
 1890 008c 26E0     		b	.L106
 1891              	.L102:
 547:andonJson.c   ****             {
 548:andonJson.c   ****                 return FALSE;
 549:andonJson.c   ****             }
 550:andonJson.c   ****         }
 551:andonJson.c   ****         else  if(jsoneq(jsonString, &t[i], "target") == 0)
 1892              		.loc 1 551 0
 1893 008e 1C4A     		ldr	r2, .L107+28
 1894 0090 2100     		movs	r1, r4
 1895 0092 2800     		movs	r0, r5
 1896 0094 FFF7FEFF 		bl	jsoneq
 1897              	.LVL239:
 1898 0098 0028     		cmp	r0, #0
 1899 009a 18D1     		bne	.L103
 552:andonJson.c   ****         {
 553:andonJson.c   ****             sprintf(buff,"%.*s",t[i + 1].end - t[i + 1].start,jsonString + t[i + 1].start); 
 1900              		.loc 1 553 0
 1901 009c 731C     		adds	r3, r6, #1
 1902 009e 1B01     		lsls	r3, r3, #4
 1903 00a0 43AA     		add	r2, sp, #268
 1904 00a2 9446     		mov	ip, r2
 1905 00a4 6344     		add	r3, r3, ip
 1906 00a6 9A68     		ldr	r2, [r3, #8]
 1907 00a8 5968     		ldr	r1, [r3, #4]
 1908 00aa 6B18     		adds	r3, r5, r1
 1909 00ac 521A     		subs	r2, r2, r1
 1910 00ae 1249     		ldr	r1, .L107+20
 1911 00b0 03A8     		add	r0, sp, #12
 1912 00b2 FFF7FEFF 		bl	sprintf
 1913              	.LVL240:
 554:andonJson.c   ****             setTarget(atoi(buff));   
 1914              		.loc 1 554 0
 1915 00b6 03A8     		add	r0, sp, #12
 1916 00b8 FFF7FEFF 		bl	atoi
 1917              	.LVL241:
 1918 00bc FFF7FEFF 		bl	setTarget
 1919              	.LVL242:
 555:andonJson.c   ****             g_bTargetReceived = TRUE;
 1920              		.loc 1 555 0
 1921 00c0 0122     		movs	r2, #1
 1922 00c2 104B     		ldr	r3, .L107+32
 1923 00c4 1A70     		strb	r2, [r3]
 556:andonJson.c   ****             g_lastSendTime = RTC_GetUnixTime();
 1924              		.loc 1 556 0
 1925 00c6 FFF7FEFF 		bl	RTC_GetUnixTime
 1926              	.LVL243:
 1927 00ca 0F4B     		ldr	r3, .L107+36
 1928 00cc 1860     		str	r0, [r3]
 1929              	.L103:
 541:andonJson.c   ****     {   
 1930              		.loc 1 541 0 discriminator 2
 1931 00ce 0136     		adds	r6, r6, #1
 1932              	.LVL244:
 1933 00d0 00E0     		b	.L101
ARM GAS  C:\Users\luvsd\AppData\Local\Temp\ccV8yooc.s 			page 45


 1934              	.LVL245:
 1935              	.L105:
 1936 00d2 0126     		movs	r6, #1
 1937              	.LVL246:
 1938              	.L101:
 541:andonJson.c   ****     {   
 1939              		.loc 1 541 0 is_stmt 0 discriminator 1
 1940 00d4 BE42     		cmp	r6, r7
 1941 00d6 BBDB     		blt	.L104
 557:andonJson.c   ****         }
 558:andonJson.c   ****     }
 559:andonJson.c   ****     
 560:andonJson.c   ****     return TRUE;    
 1942              		.loc 1 560 0 is_stmt 1
 1943 00d8 0120     		movs	r0, #1
 1944 00da 00E0     		b	.L99
 1945              	.L106:
 548:andonJson.c   ****             }
 1946              		.loc 1 548 0
 1947 00dc 0020     		movs	r0, #0
 1948              	.LVL247:
 1949              	.L99:
 561:andonJson.c   **** }
 1950              		.loc 1 561 0
 1951 00de 0B4B     		ldr	r3, .L107+40
 1952 00e0 9D44     		add	sp, sp, r3
 1953              		@ sp needed
 1954              	.LVL248:
 1955              	.LVL249:
 1956 00e2 F0BD     		pop	{r4, r5, r6, r7, pc}
 1957              	.L108:
 1958              		.align	2
 1959              	.L107:
 1960 00e4 E4F9FFFF 		.word	-1564
 1961 00e8 0C060000 		.word	1548
 1962 00ec 00000000 		.word	.LC0
 1963 00f0 1C000000 		.word	.LC2
 1964 00f4 A4000000 		.word	.LC31
 1965 00f8 68000000 		.word	.LC15
 1966 00fc AC000000 		.word	.LC34
 1967 0100 B0000000 		.word	.LC43
 1968 0104 00000000 		.word	g_bTargetReceived
 1969 0108 00000000 		.word	g_lastSendTime
 1970 010c 1C060000 		.word	1564
 1971              		.cfi_endproc
 1972              	.LFE69:
 1973              		.size	andonRequestTargetParsing, .-andonRequestTargetParsing
 1974              		.section	.text.andonJsonParsor,"ax",%progbits
 1975              		.align	2
 1976              		.global	andonJsonParsor
 1977              		.code	16
 1978              		.thumb_func
 1979              		.type	andonJsonParsor, %function
 1980              	andonJsonParsor:
 1981              	.LFB62:
  36:andonJson.c   ****     //printf("> %d, %s\r\n",type,jsonString);
 1982              		.loc 1 36 0
ARM GAS  C:\Users\luvsd\AppData\Local\Temp\ccV8yooc.s 			page 46


 1983              		.cfi_startproc
 1984              		@ args = 0, pretend = 0, frame = 0
 1985              		@ frame_needed = 0, uses_anonymous_args = 0
 1986              	.LVL250:
 1987 0000 10B5     		push	{r4, lr}
 1988              		.cfi_def_cfa_offset 8
 1989              		.cfi_offset 4, -8
 1990              		.cfi_offset 14, -4
 1991 0002 0C00     		movs	r4, r1
  38:andonJson.c   ****     {
 1992              		.loc 1 38 0
 1993 0004 1628     		cmp	r0, #22
 1994 0006 44D8     		bhi	.L109
 1995 0008 8000     		lsls	r0, r0, #2
 1996              	.LVL251:
 1997 000a 224B     		ldr	r3, .L122
 1998 000c 1B58     		ldr	r3, [r3, r0]
 1999 000e 9F46     		mov	pc, r3
 2000              		.section	.rodata
 2001              		.align	2
 2002              	.L112:
 2003 0000 92000000 		.word	.L109
 2004 0004 10000000 		.word	.L111
 2005 0008 92000000 		.word	.L109
 2006 000c 1A000000 		.word	.L113
 2007 0010 36000000 		.word	.L114
 2008 0014 4E000000 		.word	.L115
 2009 0018 58000000 		.word	.L116
 2010 001c 62000000 		.word	.L117
 2011 0020 92000000 		.word	.L109
 2012 0024 92000000 		.word	.L109
 2013 0028 92000000 		.word	.L109
 2014 002c 92000000 		.word	.L109
 2015 0030 92000000 		.word	.L109
 2016 0034 92000000 		.word	.L109
 2017 0038 92000000 		.word	.L109
 2018 003c 2C000000 		.word	.L118
 2019 0040 44000000 		.word	.L119
 2020 0044 44000000 		.word	.L119
 2021 0048 92000000 		.word	.L109
 2022 004c 80000000 		.word	.L120
 2023 0050 80000000 		.word	.L120
 2024 0054 8A000000 		.word	.L121
 2025 0058 8A000000 		.word	.L121
 2026              		.section	.text.andonJsonParsor
 2027              	.L111:
  40:andonJson.c   ****         case ANDON_GET_DEVICE_NAME:    if(andonGetDeviceName (jsonString, sizeOfJson) == TRUE) make
 2028              		.loc 1 40 0
 2029 0010 1100     		movs	r1, r2
 2030              	.LVL252:
 2031 0012 2000     		movs	r0, r4
 2032 0014 FFF7FEFF 		bl	andonCurrentTimeParsing
 2033              	.LVL253:
 2034 0018 3BE0     		b	.L109
 2035              	.LVL254:
 2036              	.L113:
  41:andonJson.c   ****         case ANDON_START:              andonStart                  (jsonString, sizeOfJson);
ARM GAS  C:\Users\luvsd\AppData\Local\Temp\ccV8yooc.s 			page 47


 2037              		.loc 1 41 0
 2038 001a 1100     		movs	r1, r2
 2039              	.LVL255:
 2040 001c 2000     		movs	r0, r4
 2041 001e FFF7FEFF 		bl	andonGetDeviceName
 2042              	.LVL256:
 2043 0022 0128     		cmp	r0, #1
 2044 0024 35D1     		bne	.L109
  41:andonJson.c   ****         case ANDON_START:              andonStart                  (jsonString, sizeOfJson);
 2045              		.loc 1 41 0 is_stmt 0 discriminator 1
 2046 0026 FFF7FEFF 		bl	makeRequestTarget
 2047              	.LVL257:
 2048 002a 32E0     		b	.L109
 2049              	.LVL258:
 2050              	.L118:
  42:andonJson.c   ****                                        //makeAndonList();
 2051              		.loc 1 42 0 is_stmt 1
 2052 002c 1100     		movs	r1, r2
 2053              	.LVL259:
 2054 002e 2000     		movs	r0, r4
 2055 0030 FFF7FEFF 		bl	andonStart
 2056              	.LVL260:
  44:andonJson.c   ****         case ANDON_REQUEST_ITEM:       andonRequestItem (jsonString, sizeOfJson); 
 2057              		.loc 1 44 0
 2058 0034 2DE0     		b	.L109
 2059              	.LVL261:
 2060              	.L114:
  45:andonJson.c   ****                                        makeAndonList();
 2061              		.loc 1 45 0
 2062 0036 1100     		movs	r1, r2
 2063              	.LVL262:
 2064 0038 2000     		movs	r0, r4
 2065 003a FFF7FEFF 		bl	andonRequestItem
 2066              	.LVL263:
  46:andonJson.c   ****                                        break;
 2067              		.loc 1 46 0
 2068 003e FFF7FEFF 		bl	makeAndonList
 2069              	.LVL264:
  47:andonJson.c   ****         case ANDON_SEND_SEWING_COUNT:  //makeAndonStart();                            
 2070              		.loc 1 47 0
 2071 0042 26E0     		b	.L109
 2072              	.LVL265:
 2073              	.L119:
  49:andonJson.c   ****                                        ///makeAndonStart();
 2074              		.loc 1 49 0
 2075 0044 1100     		movs	r1, r2
 2076              	.LVL266:
 2077 0046 2000     		movs	r0, r4
 2078 0048 FFF7FEFF 		bl	andonSendCount
 2079              	.LVL267:
  51:andonJson.c   ****         case ANDON_REQUEST_LIST:       andonMenuParsing            (jsonString, sizeOfJson); break;
 2080              		.loc 1 51 0
 2081 004c 21E0     		b	.L109
 2082              	.LVL268:
 2083              	.L115:
  52:andonJson.c   ****         case ANDON_REQUEST_TEXT_LIST:  andonMenuParsing            (jsonString, sizeOfJson); break;
 2084              		.loc 1 52 0
ARM GAS  C:\Users\luvsd\AppData\Local\Temp\ccV8yooc.s 			page 48


 2085 004e 1100     		movs	r1, r2
 2086              	.LVL269:
 2087 0050 2000     		movs	r0, r4
 2088 0052 FFF7FEFF 		bl	andonMenuParsing
 2089              	.LVL270:
 2090 0056 1CE0     		b	.L109
 2091              	.LVL271:
 2092              	.L116:
  53:andonJson.c   ****         case ANDON_REQUEST_TARGET:     andonRequestTargetParsing   (jsonString, sizeOfJson); 
 2093              		.loc 1 53 0
 2094 0058 1100     		movs	r1, r2
 2095              	.LVL272:
 2096 005a 2000     		movs	r0, r4
 2097 005c FFF7FEFF 		bl	andonMenuParsing
 2098              	.LVL273:
 2099 0060 17E0     		b	.L109
 2100              	.LVL274:
 2101              	.L117:
  54:andonJson.c   ****                                        if(isInTopMenu()) g_TopMenuNode->func(NULL,REFLASH);
 2102              		.loc 1 54 0
 2103 0062 1100     		movs	r1, r2
 2104              	.LVL275:
 2105 0064 2000     		movs	r0, r4
 2106 0066 FFF7FEFF 		bl	andonRequestTargetParsing
 2107              	.LVL276:
  55:andonJson.c   ****                                        break; 
 2108              		.loc 1 55 0
 2109 006a FFF7FEFF 		bl	isInTopMenu
 2110              	.LVL277:
 2111 006e 0028     		cmp	r0, #0
 2112 0070 0FD0     		beq	.L109
  55:andonJson.c   ****                                        break; 
 2113              		.loc 1 55 0 is_stmt 0 discriminator 1
 2114 0072 094B     		ldr	r3, .L122+4
 2115 0074 1B68     		ldr	r3, [r3]
 2116 0076 DB68     		ldr	r3, [r3, #12]
 2117 0078 0221     		movs	r1, #2
 2118 007a 0020     		movs	r0, #0
 2119 007c 9847     		blx	r3
 2120              	.LVL278:
 2121 007e 08E0     		b	.L109
 2122              	.LVL279:
 2123              	.L120:
  59:andonJson.c   ****         case DEFECTIVE_REQUEST_LIST:     
 2124              		.loc 1 59 0 is_stmt 1
 2125 0080 1100     		movs	r1, r2
 2126              	.LVL280:
 2127 0082 2000     		movs	r0, r4
 2128 0084 FFF7FEFF 		bl	downTimeParsing
 2129              	.LVL281:
 2130 0088 03E0     		b	.L109
 2131              	.LVL282:
 2132              	.L121:
  61:andonJson.c   **** //        case DOWNTIME_REQUEST_LIST:    downTimeParsing             (jsonString, sizeOfJson); brea
 2133              		.loc 1 61 0
 2134 008a 1100     		movs	r1, r2
 2135              	.LVL283:
ARM GAS  C:\Users\luvsd\AppData\Local\Temp\ccV8yooc.s 			page 49


 2136 008c 2000     		movs	r0, r4
 2137 008e FFF7FEFF 		bl	defectiveParsing
 2138              	.LVL284:
 2139              	.L109:
  66:andonJson.c   **** 
 2140              		.loc 1 66 0
 2141              		@ sp needed
 2142              	.LVL285:
 2143 0092 10BD     		pop	{r4, pc}
 2144              	.L123:
 2145              		.align	2
 2146              	.L122:
 2147 0094 00000000 		.word	.L112
 2148 0098 00000000 		.word	g_TopMenuNode
 2149              		.cfi_endproc
 2150              	.LFE62:
 2151              		.size	andonJsonParsor, .-andonJsonParsor
 2152              		.section	.text.andonTextListParsing,"ax",%progbits
 2153              		.align	2
 2154              		.global	andonTextListParsing
 2155              		.code	16
 2156              		.thumb_func
 2157              		.type	andonTextListParsing, %function
 2158              	andonTextListParsing:
 2159              	.LFB70:
 562:andonJson.c   **** 
 563:andonJson.c   **** uint8 andonTextListParsing(char *jsonString, int16 sizeOfJson)
 564:andonJson.c   **** {
 2160              		.loc 1 564 0
 2161              		.cfi_startproc
 2162              		@ args = 0, pretend = 0, frame = 1296
 2163              		@ frame_needed = 0, uses_anonymous_args = 0
 2164              	.LVL286:
 2165 0000 30B5     		push	{r4, r5, lr}
 2166              		.cfi_def_cfa_offset 12
 2167              		.cfi_offset 4, -12
 2168              		.cfi_offset 5, -8
 2169              		.cfi_offset 14, -4
 2170 0002 0D4C     		ldr	r4, .L125
 2171 0004 A544     		add	sp, sp, r4
 2172              		.cfi_def_cfa_offset 1320
 2173 0006 0400     		movs	r4, r0
 2174 0008 0D00     		movs	r5, r1
 565:andonJson.c   ****     int i;
 566:andonJson.c   ****     int r;
 567:andonJson.c   ****     jsmn_parser p;
 568:andonJson.c   ****     jsmntok_t t[80]; /* 최대 토큰 수: 80 (10개 항목 JSON = 73 tokens, 여유 7) */
 569:andonJson.c   ****     
 570:andonJson.c   ****     jsmn_init(&p);
 2175              		.loc 1 570 0
 2176 000a 0C4B     		ldr	r3, .L125+4
 2177 000c 6B44     		add	r3, r3, sp
 2178 000e 1800     		movs	r0, r3
 2179              	.LVL287:
 2180 0010 FFF7FEFF 		bl	jsmn_init
 2181              	.LVL288:
 571:andonJson.c   ****     
ARM GAS  C:\Users\luvsd\AppData\Local\Temp\ccV8yooc.s 			page 50


 572:andonJson.c   ****     r = jsmn_parse(&p, jsonString, sizeOfJson, t, sizeof(t) / sizeof(t[0]));
 2182              		.loc 1 572 0
 2183 0014 5023     		movs	r3, #80
 2184 0016 0093     		str	r3, [sp]
 2185 0018 03AB     		add	r3, sp, #12
 2186 001a 2A00     		movs	r2, r5
 2187 001c 2100     		movs	r1, r4
 2188 001e 0748     		ldr	r0, .L125+4
 2189 0020 6844     		add	r0, r0, sp
 2190 0022 FFF7FEFF 		bl	jsmn_parse
 2191              	.LVL289:
 573:andonJson.c   ****     
 574:andonJson.c   ****      printf("%s\r\n",jsonString);
 2192              		.loc 1 574 0
 2193 0026 2100     		movs	r1, r4
 2194 0028 0548     		ldr	r0, .L125+8
 2195 002a FFF7FEFF 		bl	printf
 2196              	.LVL290:
 575:andonJson.c   ****     
 576:andonJson.c   **** //    if (r < 0) {
 577:andonJson.c   **** //        DEBUG_printf("Failed to parse JSON: %d\r\n", r);
 578:andonJson.c   **** //        return FALSE;
 579:andonJson.c   **** //    }
 580:andonJson.c   **** //    
 581:andonJson.c   **** //    /* Assume the top-level element is an object */
 582:andonJson.c   **** //    if (r < 1 || t[0].type != JSMN_OBJECT) {
 583:andonJson.c   **** //        DEBUG_printf("Object expected type: %d , %d\r\n", t[0].type, r);
 584:andonJson.c   **** //        return FALSE;
 585:andonJson.c   **** //    }
 586:andonJson.c   **** //
 587:andonJson.c   **** //    int oldReceivedCount = getReceivedMessageCount(), newReceivedCount;
 588:andonJson.c   **** //    
 589:andonJson.c   **** //    g_noMessage = 0;
 590:andonJson.c   **** //    g_ListAlarm = FALSE;
 591:andonJson.c   **** //    g_bTextListUpdated = TRUE;
 592:andonJson.c   **** //   // char tmpBuff[20], textBuff[20], status[10];  
 593:andonJson.c   **** //    
 594:andonJson.c   **** //    char buff[10];
 595:andonJson.c   **** //    int16 index=-1, idx, incr=1;
 596:andonJson.c   **** //
 597:andonJson.c   **** //    MESSAGE *item=NULL;
 598:andonJson.c   **** // 
 599:andonJson.c   **** //    for(i=0; i < t[0].size; i++)
 600:andonJson.c   **** //    {
 601:andonJson.c   **** //        if(incr >= r) break;
 602:andonJson.c   **** //        
 603:andonJson.c   **** //        incr++;
 604:andonJson.c   **** //            
 605:andonJson.c   **** //        if(t[incr].type == JSMN_ARRAY)
 606:andonJson.c   **** //        {
 607:andonJson.c   **** //            int arraySize = t[incr].size;
 608:andonJson.c   **** //
 609:andonJson.c   **** //            for(int j=0; j < arraySize; j++)
 610:andonJson.c   **** //            {
 611:andonJson.c   **** //                incr++;        
 612:andonJson.c   **** //                     
 613:andonJson.c   **** //                if(t[incr].type == JSMN_OBJECT)
ARM GAS  C:\Users\luvsd\AppData\Local\Temp\ccV8yooc.s 			page 51


 614:andonJson.c   **** //                {
 615:andonJson.c   **** //                    int objSize = t[incr].size;
 616:andonJson.c   **** //                                    
 617:andonJson.c   **** //                    item = &g_Message[++index];
 618:andonJson.c   **** //                    item->isRead=FALSE;
 619:andonJson.c   **** //                    if(index >= MAX_MESSAGE)
 620:andonJson.c   **** //                    {
 621:andonJson.c   **** //                        index--;
 622:andonJson.c   **** //                        break;
 623:andonJson.c   **** //                    }
 624:andonJson.c   **** //                    
 625:andonJson.c   **** //                    for(int k=0; k < objSize; k++)
 626:andonJson.c   **** //                    {    
 627:andonJson.c   **** //                        incr++;
 628:andonJson.c   **** //                        if (jsoneq(jsonString, &t[incr], "text_idx") == 0)
 629:andonJson.c   **** //                        {
 630:andonJson.c   **** //                            incr++;   
 631:andonJson.c   **** //                            sprintf(item->text_idx,"%.*s",t[incr].end - t[incr].start,jsonString 
 632:andonJson.c   **** //                        }
 633:andonJson.c   **** //                        if (jsoneq(jsonString, &t[incr], "type") == 0)
 634:andonJson.c   **** //                        {
 635:andonJson.c   **** //                            incr++;   
 636:andonJson.c   **** //                            sprintf(item->type,"%.*s",t[incr].end - t[incr].start,jsonString + t[
 637:andonJson.c   **** //                        }                        
 638:andonJson.c   **** //                        else if (jsoneq(jsonString, &t[incr], "date") == 0)
 639:andonJson.c   **** //                        {
 640:andonJson.c   **** //                            incr++;   
 641:andonJson.c   **** //                            sprintf(item->date,"%.*s",t[incr].end - t[incr].start,jsonString + t[
 642:andonJson.c   **** //                        }
 643:andonJson.c   **** //                        else if (jsoneq(jsonString, &t[incr], "time") == 0)
 644:andonJson.c   **** //                        {
 645:andonJson.c   **** //                            incr++;   
 646:andonJson.c   **** //                            sprintf(item->time,"%.*s",t[incr].end - t[incr].start,jsonString + t[
 647:andonJson.c   **** //                        }
 648:andonJson.c   **** //                        else if (jsoneq(jsonString, &t[incr], "read_yn") == 0)
 649:andonJson.c   **** //                        {
 650:andonJson.c   **** //                            incr++;   
 651:andonJson.c   **** //                            
 652:andonJson.c   **** //                            sprintf(buff,"%.*s",t[incr].end - t[incr].start,jsonString + t[incr].
 653:andonJson.c   **** //                            item->isRead = TRUE;  
 654:andonJson.c   **** //                            
 655:andonJson.c   **** //                            if(strcmp(buff,"N")==0 && strcmp(item->type,"R") == 0)
 656:andonJson.c   **** //                            {
 657:andonJson.c   **** //                                item->isRead = FALSE;
 658:andonJson.c   **** //                                g_ListAlarm = TRUE;
 659:andonJson.c   **** //                            }
 660:andonJson.c   **** //                        }                        
 661:andonJson.c   **** //                        else
 662:andonJson.c   **** //                        {
 663:andonJson.c   **** //                            g_uReplyResult = RR_FAILURE;
 664:andonJson.c   **** //                          //  DEBUG_printf("JSON_MenuParsing()>> %s\r\n",g_JSONString);
 665:andonJson.c   **** //                        }
 666:andonJson.c   **** //                    }
 667:andonJson.c   **** //                }
 668:andonJson.c   **** //            }
 669:andonJson.c   **** //        }
 670:andonJson.c   **** //    }
ARM GAS  C:\Users\luvsd\AppData\Local\Temp\ccV8yooc.s 			page 52


 671:andonJson.c   **** //    
 672:andonJson.c   **** //    newReceivedCount = getReceivedMessageCount();
 673:andonJson.c   **** //    if(g_noMessage != newReceivedCount)  g_bLED1_Flickering = TRUE;
 674:andonJson.c   **** //
 675:andonJson.c   **** //    g_noMessage = (uint16) (index+1);
 676:andonJson.c   **** 
 677:andonJson.c   ****     return TRUE;    
 678:andonJson.c   **** }
 2197              		.loc 1 678 0
 2198 002e 0120     		movs	r0, #1
 2199 0030 044B     		ldr	r3, .L125+12
 2200 0032 9D44     		add	sp, sp, r3
 2201              		@ sp needed
 2202              	.LVL291:
 2203 0034 30BD     		pop	{r4, r5, pc}
 2204              	.L126:
 2205 0036 C046     		.align	2
 2206              	.L125:
 2207 0038 E4FAFFFF 		.word	-1308
 2208 003c 0C050000 		.word	1292
 2209 0040 24010000 		.word	.LC77
 2210 0044 1C050000 		.word	1308
 2211              		.cfi_endproc
 2212              	.LFE70:
 2213              		.size	andonTextListParsing, .-andonTextListParsing
 2214              		.comm	g_lastSendTime,4,4
 2215              		.comm	Param,6,4
 2216              		.section	.rodata.str1.4,"aMS",%progbits,1
 2217              		.align	2
 2218              	.LC0:
 2219 0000 4661696C 		.ascii	"Failed to parse JSON: %d\015\012\000"
 2219      65642074 
 2219      6F207061 
 2219      72736520 
 2219      4A534F4E 
 2220 001b 00       		.space	1
 2221              	.LC2:
 2222 001c 4F626A65 		.ascii	"Object expected type: %d\015\012\000"
 2222      63742065 
 2222      78706563 
 2222      74656420 
 2222      74797065 
 2223 0037 00       		.space	1
 2224              	.LC4:
 2225 0038 64617465 		.ascii	"datetime\000"
 2225      74696D65 
 2225      00
 2226 0041 000000   		.space	3
 2227              	.LC6:
 2228 0044 776F726B 		.ascii	"work_date\000"
 2228      5F646174 
 2228      6500
 2229 004e 0000     		.space	2
 2230              	.LC8:
 2231 0050 73686966 		.ascii	"shift_idx\000"
 2231      745F6964 
 2231      7800
ARM GAS  C:\Users\luvsd\AppData\Local\Temp\ccV8yooc.s 			page 53


 2232 005a 0000     		.space	2
 2233              	.LC13:
 2234 005c 6D616368 		.ascii	"machine_no\000"
 2234      696E655F 
 2234      6E6F00
 2235 0067 00       		.space	1
 2236              	.LC15:
 2237 0068 252E2A73 		.ascii	"%.*s\000"
 2237      00
 2238 006d 000000   		.space	3
 2239              	.LC19:
 2240 0070 496F5420 		.ascii	"IoT Device\000"
 2240      44657669 
 2240      636500
 2241 007b 00       		.space	1
 2242              	.LC21:
 2243 007c 696E7374 		.ascii	"install_type\000"
 2243      616C6C5F 
 2243      74797065 
 2243      00
 2244 0089 000000   		.space	3
 2245              	.LC24:
 2246 008c 6C696E65 		.ascii	"line_name\000"
 2246      5F6E616D 
 2246      6500
 2247 0096 0000     		.space	2
 2248              	.LC27:
 2249 0098 6D616368 		.ascii	"machine_idx\000"
 2249      696E655F 
 2249      69647800 
 2250              	.LC31:
 2251 00a4 636F6465 		.ascii	"code\000"
 2251      00
 2252 00a9 000000   		.space	3
 2253              	.LC34:
 2254 00ac 303000   		.ascii	"00\000"
 2255 00af 00       		.space	1
 2256              	.LC43:
 2257 00b0 74617267 		.ascii	"target\000"
 2257      657400
 2258 00b7 00       		.space	1
 2259              	.LC47:
 2260 00b8 7265715F 		.ascii	"req_interval\000"
 2260      696E7465 
 2260      7276616C 
 2260      00
 2261 00c5 000000   		.space	3
 2262              	.LC54:
 2263 00c8 4F626A65 		.ascii	"Object expected type: %d , %d\015\012\000"
 2263      63742065 
 2263      78706563 
 2263      74656420 
 2263      74797065 
 2264              	.LC57:
 2265 00e8 616E646F 		.ascii	"andon_idx\000"
 2265      6E5F6964 
 2265      7800
ARM GAS  C:\Users\luvsd\AppData\Local\Temp\ccV8yooc.s 			page 54


 2266 00f2 0000     		.space	2
 2267              	.LC60:
 2268 00f4 616E646F 		.ascii	"andon_name\000"
 2268      6E5F6E61 
 2268      6D6500
 2269 00ff 00       		.space	1
 2270              	.LC63:
 2271 0100 6E6F745F 		.ascii	"not_completed_qty\000"
 2271      636F6D70 
 2271      6C657465 
 2271      645F7174 
 2271      7900
 2272 0112 0000     		.space	2
 2273              	.LC65:
 2274 0114 7761726E 		.ascii	"warning_blink\000"
 2274      696E675F 
 2274      626C696E 
 2274      6B00
 2275 0122 0000     		.space	2
 2276              	.LC77:
 2277 0124 25730D0A 		.ascii	"%s\015\012\000"
 2277      00
 2278              		.text
 2279              	.Letext0:
 2280              		.file 2 "c:\\program files (x86)\\cypress\\psoc creator\\4.4\\psoc creator\\import\\gnu\\arm\\5.4.
 2281              		.file 3 "c:\\program files (x86)\\cypress\\psoc creator\\4.4\\psoc creator\\import\\gnu\\arm\\5.4.
 2282              		.file 4 "Generated_Source\\PSoC4/cytypes.h"
 2283              		.file 5 "main.h"
 2284              		.file 6 "lib/jsmn.h"
 2285              		.file 7 "andonApi.h"
 2286              		.file 8 "lib/menu.h"
 2287              		.file 9 "userProjectPatternSewing.h"
 2288              		.file 10 "lib/fonts.h"
 2289              		.file 11 "Generated_Source\\PSoC4/RTC.h"
 2290              		.file 12 "andonJson.h"
 2291              		.file 13 "jsonUtil.h"
 2292              		.file 14 "c:\\program files (x86)\\cypress\\psoc creator\\4.4\\psoc creator\\import\\gnu\\arm\\5.4
 2293              		.file 15 "lib/RealTimeClock.h"
 2294              		.file 16 "count.h"
 2295              		.file 17 "lib/externalFlash.h"
 2296              		.file 18 "c:\\program files (x86)\\cypress\\psoc creator\\4.4\\psoc creator\\import\\gnu\\arm\\5.4
 2297              		.file 19 "lib/widget.h"
 2298              		.file 20 "c:\\program files (x86)\\cypress\\psoc creator\\4.4\\psoc creator\\import\\gnu\\arm\\5.4
 2299              		.file 21 "lib/sysTick.h"
 2300              		.file 22 "WarningLight.h"
 2301              		.file 23 "downtime.h"
 2302              		.file 24 "defective.h"