ARM GAS  C:\Users\luvsd\AppData\Local\Temp\ccq52wXX.s 			page 1


   1              		.syntax unified
   2              		.cpu cortex-m0
   3              		.fpu softvfp
   4              		.eabi_attribute 20, 1
   5              		.eabi_attribute 21, 1
   6              		.eabi_attribute 23, 3
   7              		.eabi_attribute 24, 1
   8              		.eabi_attribute 25, 1
   9              		.eabi_attribute 26, 1
  10              		.eabi_attribute 30, 1
  11              		.eabi_attribute 34, 0
  12              		.eabi_attribute 18, 4
  13              		.thumb
  14              		.syntax unified
  15              		.file	"count.c"
  16              		.text
  17              	.Ltext0:
  18              		.cfi_sections	.debug_frame
  19              		.section	.text.PatternCountLoop,"ax",%progbits
  20              		.align	2
  21              		.global	PatternCountLoop
  22              		.code	16
  23              		.thumb_func
  24              		.type	PatternCountLoop, %function
  25              	PatternCountLoop:
  26              	.LFB64:
  27              		.file 1 "count.c"
   1:count.c       **** /* ========================================
   2:count.c       ****  *
   3:count.c       ****  * Copyright Suntech, 2023.04.13
   4:count.c       ****  * All Rights Reserved
   5:count.c       ****  * UNPUBLISHED, LICENSED SOFTWARE.
   6:count.c       ****  *
   7:count.c       ****  * CONFIDENTIAL AND PROPRIETARY INFORMATION
   8:count.c       ****  * WHICH IS THE PROPERTY OF Suntech.
   9:count.c       ****  *
  10:count.c       ****  * ========================================
  11:count.c       **** */
  12:count.c       **** #include "main.h"
  13:count.c       **** #include "count.h"
  14:count.c       **** #include "lib/internalFlash.h"
  15:count.c       **** #include "userProjectPatternSewing.h"
  16:count.c       **** #include "andonApi.h"
  17:count.c       **** #include "uartJson.h"
  18:count.c       **** 
  19:count.c       **** uint8 g_updateCountMenu=FALSE;
  20:count.c       **** 
  21:count.c       **** COUNT *g_ptrCount = NULL;
  22:count.c       **** 
  23:count.c       **** static uint32 g_uWorkingTimeCount=0;   /* ņĀæĻĘ╝ņ×É ĒĢ©ņłś(Get/Reset)ļĪ£ļ¦ī ņÖĖļČĆ ņĀæĻĘ╝ */
  24:count.c       **** static uint8  g_bCountFlashDirty = FALSE; /* UART Ēī©ĒéĘ ņłśņŗĀ Ēøä Ēöīļ×śņŗ£ ņĀĆņ×ź ļīĆĻĖ░ Ēöīļ×śĻ
  25:count.c       **** 
  26:count.c       **** void PatternCountLoop();
  27:count.c       **** 
  28:count.c       **** void (*CountFunc)() = &PatternCountLoop;
  29:count.c       **** 
  30:count.c       **** void initCount()
ARM GAS  C:\Users\luvsd\AppData\Local\Temp\ccq52wXX.s 			page 2


  31:count.c       **** {
  32:count.c       ****     if(sizeof(COUNT) > sizeof(g_internalFlash.data))
  33:count.c       ****     {
  34:count.c       ****         printf("Wrong... COUNT size is large than g_internalFlash.data\r\n");
  35:count.c       ****     }
  36:count.c       ****     g_ptrCount = (COUNT *) &g_internalFlash.data;
  37:count.c       **** 
  38:count.c       ****     SetCountLoop();
  39:count.c       **** }
  40:count.c       **** 
  41:count.c       **** void SetCountLoop()
  42:count.c       **** {
  43:count.c       ****     /* BLACK_CPU: PATTERN_MACHINE Ļ│ĀņĀĢ */
  44:count.c       ****     CountFunc = &PatternCountLoop;
  45:count.c       ****     trim_Int_Stop();
  46:count.c       **** }
  47:count.c       **** 
  48:count.c       **** void PatternCountLoop()
  49:count.c       **** {
  28              		.loc 1 49 0
  29              		.cfi_startproc
  30              		@ args = 0, pretend = 0, frame = 0
  31              		@ frame_needed = 0, uses_anonymous_args = 0
  32 0000 10B5     		push	{r4, lr}
  33              		.cfi_def_cfa_offset 8
  34              		.cfi_offset 4, -8
  35              		.cfi_offset 14, -4
  50:count.c       ****     /* UART ĒĢśļō£ņø©ņ¢┤ ļ▓äĒŹ╝ņŚÉ ņīōņØĖ Ēī©ĒéĘņØä ĒĢ£ ļ▓łņŚÉ ļ¬©ļæÉ ņåīņ¦ä */
  51:count.c       ****     while (uartJsonLoop() == TRUE)
  36              		.loc 1 51 0
  37 0002 03E0     		b	.L2
  38              	.L3:
  52:count.c       ****     {
  53:count.c       ****         g_updateCountMenu = TRUE;
  39              		.loc 1 53 0
  40 0004 044B     		ldr	r3, .L4
  41 0006 0122     		movs	r2, #1
  42 0008 1A70     		strb	r2, [r3]
  54:count.c       ****         g_bCountFlashDirty = TRUE;  /* 1ņ┤ł ņŻ╝ĻĖ░ ņ¦ĆņŚ░ ņĀĆņ×ź ņśłņĢĮ */
  43              		.loc 1 54 0
  44 000a 5A70     		strb	r2, [r3, #1]
  45              	.L2:
  51:count.c       ****     {
  46              		.loc 1 51 0
  47 000c FFF7FEFF 		bl	uartJsonLoop
  48              	.LVL0:
  49 0010 0128     		cmp	r0, #1
  50 0012 F7D0     		beq	.L3
  55:count.c       ****     }
  56:count.c       **** }
  51              		.loc 1 56 0
  52              		@ sp needed
  53 0014 10BD     		pop	{r4, pc}
  54              	.L5:
  55 0016 C046     		.align	2
  56              	.L4:
  57 0018 00000000 		.word	.LANCHOR0
ARM GAS  C:\Users\luvsd\AppData\Local\Temp\ccq52wXX.s 			page 3


  58              		.cfi_endproc
  59              	.LFE64:
  60              		.size	PatternCountLoop, .-PatternCountLoop
  61              		.section	.text.SetCountLoop,"ax",%progbits
  62              		.align	2
  63              		.global	SetCountLoop
  64              		.code	16
  65              		.thumb_func
  66              		.type	SetCountLoop, %function
  67              	SetCountLoop:
  68              	.LFB63:
  42:count.c       ****     /* BLACK_CPU: PATTERN_MACHINE Ļ│ĀņĀĢ */
  69              		.loc 1 42 0
  70              		.cfi_startproc
  71              		@ args = 0, pretend = 0, frame = 0
  72              		@ frame_needed = 0, uses_anonymous_args = 0
  73 0000 10B5     		push	{r4, lr}
  74              		.cfi_def_cfa_offset 8
  75              		.cfi_offset 4, -8
  76              		.cfi_offset 14, -4
  44:count.c       ****     trim_Int_Stop();
  77              		.loc 1 44 0
  78 0002 034A     		ldr	r2, .L7
  79 0004 034B     		ldr	r3, .L7+4
  80 0006 1A60     		str	r2, [r3]
  45:count.c       **** }
  81              		.loc 1 45 0
  82 0008 FFF7FEFF 		bl	trim_Int_Stop
  83              	.LVL1:
  46:count.c       **** 
  84              		.loc 1 46 0
  85              		@ sp needed
  86 000c 10BD     		pop	{r4, pc}
  87              	.L8:
  88 000e C046     		.align	2
  89              	.L7:
  90 0010 00000000 		.word	PatternCountLoop
  91 0014 00000000 		.word	.LANCHOR1
  92              		.cfi_endproc
  93              	.LFE63:
  94              		.size	SetCountLoop, .-SetCountLoop
  95              		.section	.text.initCount,"ax",%progbits
  96              		.align	2
  97              		.global	initCount
  98              		.code	16
  99              		.thumb_func
 100              		.type	initCount, %function
 101              	initCount:
 102              	.LFB62:
  31:count.c       ****     if(sizeof(COUNT) > sizeof(g_internalFlash.data))
 103              		.loc 1 31 0
 104              		.cfi_startproc
 105              		@ args = 0, pretend = 0, frame = 0
 106              		@ frame_needed = 0, uses_anonymous_args = 0
 107 0000 10B5     		push	{r4, lr}
 108              		.cfi_def_cfa_offset 8
 109              		.cfi_offset 4, -8
ARM GAS  C:\Users\luvsd\AppData\Local\Temp\ccq52wXX.s 			page 4


 110              		.cfi_offset 14, -4
  36:count.c       **** 
 111              		.loc 1 36 0
 112 0002 034A     		ldr	r2, .L10
 113 0004 034B     		ldr	r3, .L10+4
 114 0006 5A60     		str	r2, [r3, #4]
  38:count.c       **** }
 115              		.loc 1 38 0
 116 0008 FFF7FEFF 		bl	SetCountLoop
 117              	.LVL2:
  39:count.c       **** 
 118              		.loc 1 39 0
 119              		@ sp needed
 120 000c 10BD     		pop	{r4, pc}
 121              	.L11:
 122 000e C046     		.align	2
 123              	.L10:
 124 0010 02000000 		.word	g_internalFlash+2
 125 0014 00000000 		.word	.LANCHOR0
 126              		.cfi_endproc
 127              	.LFE62:
 128              		.size	initCount, .-initCount
 129              		.section	.text.CountSaveFlashIfDirty,"ax",%progbits
 130              		.align	2
 131              		.global	CountSaveFlashIfDirty
 132              		.code	16
 133              		.thumb_func
 134              		.type	CountSaveFlashIfDirty, %function
 135              	CountSaveFlashIfDirty:
 136              	.LFB65:
  57:count.c       **** 
  58:count.c       **** /* ================================================================
  59:count.c       ****  * CountSaveFlashIfDirty ŌĆö UART Ēī©ĒéĘ ņłśņŗĀ Ēøä Ēöīļ×śņŗ£ ņ¦ĆņŚ░ ņĀĆņ×ź
  60:count.c       ****  *
  61:count.c       ****  * Em_EEPROM_Write()ļŖö ļé┤ļČĆņĀüņ£╝ļĪ£ ņĀäņŚŁ ņØĖĒä░ļ¤ĮĒŖĖļź╝ ~20ms ļ╣äĒÖ£ņä▒ĒÖö.
  62:count.c       ****  * uartJson.c ĒĢ½ Ēī©ņŖżņŚÉņä£ ņ¦üņĀæ ĒśĖņČ£ĒĢśļ®┤ UART FIFO ņśżļ▓äĒöīļĪ£ņÜ░ ļ░£ņāØ.
  63:count.c       ****  * main.cņØś 1ņ┤ł ĒāĆņØ┤ļ©Ė ļĖöļĪØņŚÉņä£ ĒśĖņČ£ĒĢśņŚ¼ ņĢłņĀäĒĢ£ ņŗ£ņĀÉņŚÉ ņĀĆņ×źĒĢ£ļŗż.
  64:count.c       ****  * ================================================================ */
  65:count.c       **** void CountSaveFlashIfDirty(void)
  66:count.c       **** {
 137              		.loc 1 66 0
 138              		.cfi_startproc
 139              		@ args = 0, pretend = 0, frame = 0
 140              		@ frame_needed = 0, uses_anonymous_args = 0
 141 0000 10B5     		push	{r4, lr}
 142              		.cfi_def_cfa_offset 8
 143              		.cfi_offset 4, -8
 144              		.cfi_offset 14, -4
  67:count.c       ****     if (g_bCountFlashDirty == FALSE) return;
 145              		.loc 1 67 0
 146 0002 054B     		ldr	r3, .L14
 147 0004 5B78     		ldrb	r3, [r3, #1]
 148 0006 002B     		cmp	r3, #0
 149 0008 04D0     		beq	.L12
  68:count.c       ****     g_bCountFlashDirty = FALSE;
 150              		.loc 1 68 0
 151 000a 0022     		movs	r2, #0
ARM GAS  C:\Users\luvsd\AppData\Local\Temp\ccq52wXX.s 			page 5


 152 000c 024B     		ldr	r3, .L14
 153 000e 5A70     		strb	r2, [r3, #1]
  69:count.c       ****     SaveInternalFlash();
 154              		.loc 1 69 0
 155 0010 FFF7FEFF 		bl	SaveInternalFlash
 156              	.LVL3:
 157              	.L12:
  70:count.c       **** }
 158              		.loc 1 70 0
 159              		@ sp needed
 160 0014 10BD     		pop	{r4, pc}
 161              	.L15:
 162 0016 C046     		.align	2
 163              	.L14:
 164 0018 00000000 		.word	.LANCHOR0
 165              		.cfi_endproc
 166              	.LFE65:
 167              		.size	CountSaveFlashIfDirty, .-CountSaveFlashIfDirty
 168              		.section	.text.getCount,"ax",%progbits
 169              		.align	2
 170              		.global	getCount
 171              		.code	16
 172              		.thumb_func
 173              		.type	getCount, %function
 174              	getCount:
 175              	.LFB66:
  71:count.c       **** 
  72:count.c       **** COUNT *getCount()
  73:count.c       **** {
 176              		.loc 1 73 0
 177              		.cfi_startproc
 178              		@ args = 0, pretend = 0, frame = 0
 179              		@ frame_needed = 0, uses_anonymous_args = 0
 180              		@ link register save eliminated.
  74:count.c       ****     return g_ptrCount;
 181              		.loc 1 74 0
 182 0000 014B     		ldr	r3, .L17
 183 0002 5868     		ldr	r0, [r3, #4]
  75:count.c       **** }
 184              		.loc 1 75 0
 185              		@ sp needed
 186 0004 7047     		bx	lr
 187              	.L18:
 188 0006 C046     		.align	2
 189              	.L17:
 190 0008 00000000 		.word	.LANCHOR0
 191              		.cfi_endproc
 192              	.LFE66:
 193              		.size	getCount, .-getCount
 194              		.section	.text.ResetCount,"ax",%progbits
 195              		.align	2
 196              		.global	ResetCount
 197              		.code	16
 198              		.thumb_func
 199              		.type	ResetCount, %function
 200              	ResetCount:
 201              	.LFB67:
ARM GAS  C:\Users\luvsd\AppData\Local\Temp\ccq52wXX.s 			page 6


  76:count.c       **** 
  77:count.c       **** void ResetCount()
  78:count.c       **** {
 202              		.loc 1 78 0
 203              		.cfi_startproc
 204              		@ args = 0, pretend = 0, frame = 0
 205              		@ frame_needed = 0, uses_anonymous_args = 0
 206 0000 10B5     		push	{r4, lr}
 207              		.cfi_def_cfa_offset 8
 208              		.cfi_offset 4, -8
 209              		.cfi_offset 14, -4
  79:count.c       ****     g_ptrCount->patternActualH = 0;
 210              		.loc 1 79 0
 211 0002 1049     		ldr	r1, .L20
 212 0004 4A68     		ldr	r2, [r1, #4]
 213 0006 0023     		movs	r3, #0
 214 0008 9383     		strh	r3, [r2, #28]
  80:count.c       ****     g_ptrCount->patternActualL = 0;
 215              		.loc 1 80 0
 216 000a D383     		strh	r3, [r2, #30]
  81:count.c       ****     g_ptrCount->patternCycleTimeSumH = 0;
 217              		.loc 1 81 0
 218 000c 9385     		strh	r3, [r2, #44]
  82:count.c       ****     g_ptrCount->patternCycleTimeSumL = 0;
 219              		.loc 1 82 0
 220 000e D385     		strh	r3, [r2, #46]
  83:count.c       ****     g_ptrCount->patternMotorRunTimeSumH = 0;
 221              		.loc 1 83 0
 222 0010 5386     		strh	r3, [r2, #50]
  84:count.c       ****     g_ptrCount->patternMotorRunTimeSumL = 0;
 223              		.loc 1 84 0
 224 0012 9386     		strh	r3, [r2, #52]
  85:count.c       ****     g_ptrCount->patternNoStitchSumH = 0;
 225              		.loc 1 85 0
 226 0014 1387     		strh	r3, [r2, #56]
  86:count.c       ****     g_ptrCount->patternNoStitchSumL = 0;
 227              		.loc 1 86 0
 228 0016 5387     		strh	r3, [r2, #58]
  87:count.c       ****     g_ptrCount->patternStitchLengthSumH = 0;
 229              		.loc 1 87 0
 230 0018 D387     		strh	r3, [r2, #62]
  88:count.c       ****     g_ptrCount->patternStitchLengthSumL = 0;
 231              		.loc 1 88 0
 232 001a 4020     		movs	r0, #64
 233 001c 1352     		strh	r3, [r2, r0]
  89:count.c       ****     g_ptrCount->patternTrimCountSumH = 0;
 234              		.loc 1 89 0
 235 001e 0430     		adds	r0, r0, #4
 236 0020 1352     		strh	r3, [r2, r0]
  90:count.c       ****     g_ptrCount->patternTrimCountSumL = 0;
 237              		.loc 1 90 0
 238 0022 0230     		adds	r0, r0, #2
 239 0024 1352     		strh	r3, [r2, r0]
  91:count.c       ****     g_ptrCount->patternEmergencyTimeSumH = 0;
 240              		.loc 1 91 0
 241 0026 D384     		strh	r3, [r2, #38]
  92:count.c       ****     g_ptrCount->patternEmergencyTimeSumL = 0;
ARM GAS  C:\Users\luvsd\AppData\Local\Temp\ccq52wXX.s 			page 7


 242              		.loc 1 92 0
 243 0028 1385     		strh	r3, [r2, #40]
  93:count.c       ****     g_ptrCount->sewingActualH = 0;
 244              		.loc 1 93 0
 245 002a 1380     		strh	r3, [r2]
  94:count.c       ****     g_ptrCount->sewingActualL = 0;
 246              		.loc 1 94 0
 247 002c 4A68     		ldr	r2, [r1, #4]
 248 002e 5380     		strh	r3, [r2, #2]
  95:count.c       **** 
  96:count.c       ****     g_ptrCount->embThreadBreakageQty     = 0;
 249              		.loc 1 96 0
 250 0030 4A68     		ldr	r2, [r1, #4]
 251 0032 4A21     		movs	r1, #74
 252 0034 5352     		strh	r3, [r2, r1]
  97:count.c       ****     g_ptrCount->embThreadBreakageQtySumH = 0;
 253              		.loc 1 97 0
 254 0036 0231     		adds	r1, r1, #2
 255 0038 5352     		strh	r3, [r2, r1]
  98:count.c       ****     g_ptrCount->embThreadBreakageQtySumL = 0;
 256              		.loc 1 98 0
 257 003a 0231     		adds	r1, r1, #2
 258 003c 5352     		strh	r3, [r2, r1]
  99:count.c       **** 
 100:count.c       ****     SaveInternalFlash();
 259              		.loc 1 100 0
 260 003e FFF7FEFF 		bl	SaveInternalFlash
 261              	.LVL4:
 101:count.c       **** }
 262              		.loc 1 101 0
 263              		@ sp needed
 264 0042 10BD     		pop	{r4, pc}
 265              	.L21:
 266              		.align	2
 267              	.L20:
 268 0044 00000000 		.word	.LANCHOR0
 269              		.cfi_endproc
 270              	.LFE67:
 271              		.size	ResetCount, .-ResetCount
 272              		.section	.text.WorkingTimeCount,"ax",%progbits
 273              		.align	2
 274              		.global	WorkingTimeCount
 275              		.code	16
 276              		.thumb_func
 277              		.type	WorkingTimeCount, %function
 278              	WorkingTimeCount:
 279              	.LFB68:
 102:count.c       **** 
 103:count.c       **** void WorkingTimeCount()
 104:count.c       **** {
 280              		.loc 1 104 0
 281              		.cfi_startproc
 282              		@ args = 0, pretend = 0, frame = 0
 283              		@ frame_needed = 0, uses_anonymous_args = 0
 284              		@ link register save eliminated.
 105:count.c       ****     g_uWorkingTimeCount++;
 285              		.loc 1 105 0
ARM GAS  C:\Users\luvsd\AppData\Local\Temp\ccq52wXX.s 			page 8


 286 0000 024A     		ldr	r2, .L23
 287 0002 9368     		ldr	r3, [r2, #8]
 288 0004 0133     		adds	r3, r3, #1
 289 0006 9360     		str	r3, [r2, #8]
 106:count.c       **** }
 290              		.loc 1 106 0
 291              		@ sp needed
 292 0008 7047     		bx	lr
 293              	.L24:
 294 000a C046     		.align	2
 295              	.L23:
 296 000c 00000000 		.word	.LANCHOR0
 297              		.cfi_endproc
 298              	.LFE68:
 299              		.size	WorkingTimeCount, .-WorkingTimeCount
 300              		.section	.text.GetWorkingTimeCount,"ax",%progbits
 301              		.align	2
 302              		.global	GetWorkingTimeCount
 303              		.code	16
 304              		.thumb_func
 305              		.type	GetWorkingTimeCount, %function
 306              	GetWorkingTimeCount:
 307              	.LFB69:
 107:count.c       **** 
 108:count.c       **** uint32 GetWorkingTimeCount()
 109:count.c       **** {
 308              		.loc 1 109 0
 309              		.cfi_startproc
 310              		@ args = 0, pretend = 0, frame = 0
 311              		@ frame_needed = 0, uses_anonymous_args = 0
 312              		@ link register save eliminated.
 110:count.c       ****     return g_uWorkingTimeCount;
 313              		.loc 1 110 0
 314 0000 014B     		ldr	r3, .L26
 315 0002 9868     		ldr	r0, [r3, #8]
 111:count.c       **** }
 316              		.loc 1 111 0
 317              		@ sp needed
 318 0004 7047     		bx	lr
 319              	.L27:
 320 0006 C046     		.align	2
 321              	.L26:
 322 0008 00000000 		.word	.LANCHOR0
 323              		.cfi_endproc
 324              	.LFE69:
 325              		.size	GetWorkingTimeCount, .-GetWorkingTimeCount
 326              		.section	.text.ResetWorkingTimeCount,"ax",%progbits
 327              		.align	2
 328              		.global	ResetWorkingTimeCount
 329              		.code	16
 330              		.thumb_func
 331              		.type	ResetWorkingTimeCount, %function
 332              	ResetWorkingTimeCount:
 333              	.LFB70:
 112:count.c       **** 
 113:count.c       **** void ResetWorkingTimeCount()
 114:count.c       **** {
ARM GAS  C:\Users\luvsd\AppData\Local\Temp\ccq52wXX.s 			page 9


 334              		.loc 1 114 0
 335              		.cfi_startproc
 336              		@ args = 0, pretend = 0, frame = 0
 337              		@ frame_needed = 0, uses_anonymous_args = 0
 338              		@ link register save eliminated.
 115:count.c       ****     g_uWorkingTimeCount = 0;
 339              		.loc 1 115 0
 340 0000 0022     		movs	r2, #0
 341 0002 014B     		ldr	r3, .L29
 342 0004 9A60     		str	r2, [r3, #8]
 116:count.c       **** }
 343              		.loc 1 116 0
 344              		@ sp needed
 345 0006 7047     		bx	lr
 346              	.L30:
 347              		.align	2
 348              	.L29:
 349 0008 00000000 		.word	.LANCHOR0
 350              		.cfi_endproc
 351              	.LFE70:
 352              		.size	ResetWorkingTimeCount, .-ResetWorkingTimeCount
 353              		.global	CountFunc
 354              		.global	g_ptrCount
 355              		.global	g_updateCountMenu
 356              		.comm	Param,6,4
 357              		.data
 358              		.align	2
 359              		.set	.LANCHOR1,. + 0
 360              		.type	CountFunc, %object
 361              		.size	CountFunc, 4
 362              	CountFunc:
 363 0000 00000000 		.word	PatternCountLoop
 364              		.bss
 365              		.align	2
 366              		.set	.LANCHOR0,. + 0
 367              		.type	g_updateCountMenu, %object
 368              		.size	g_updateCountMenu, 1
 369              	g_updateCountMenu:
 370 0000 00       		.space	1
 371              		.type	g_bCountFlashDirty, %object
 372              		.size	g_bCountFlashDirty, 1
 373              	g_bCountFlashDirty:
 374 0001 00       		.space	1
 375 0002 0000     		.space	2
 376              		.type	g_ptrCount, %object
 377              		.size	g_ptrCount, 4
 378              	g_ptrCount:
 379 0004 00000000 		.space	4
 380              		.type	g_uWorkingTimeCount, %object
 381              		.size	g_uWorkingTimeCount, 4
 382              	g_uWorkingTimeCount:
 383 0008 00000000 		.space	4
 384              		.text
 385              	.Letext0:
 386              		.file 2 "Generated_Source\\PSoC4/cytypes.h"
 387              		.file 3 "main.h"
 388              		.file 4 "count.h"
ARM GAS  C:\Users\luvsd\AppData\Local\Temp\ccq52wXX.s 			page 10


 389              		.file 5 "lib/internalFlash.h"
 390              		.file 6 "Generated_Source\\PSoC4/RTC.h"
 391              		.file 7 "uartJson.h"
 392              		.file 8 "Generated_Source\\PSoC4/trim_Int.h"