ARM GAS  C:\Users\luvsd\AppData\Local\Temp\ccylFwji.s 			page 1


   1              		.syntax unified
   2              		.cpu cortex-m0
   3              		.fpu softvfp
   4              		.eabi_attribute 20, 1
   5              		.eabi_attribute 21, 1
   6              		.eabi_attribute 23, 3
   7              		.eabi_attribute 24, 1
   8              		.eabi_attribute 25, 1
   9              		.eabi_attribute 26, 1
  10              		.eabi_attribute 30, 1
  11              		.eabi_attribute 34, 0
  12              		.eabi_attribute 18, 4
  13              		.thumb
  14              		.syntax unified
  15              		.file	"defective.c"
  16              		.text
  17              	.Ltext0:
  18              		.cfi_sections	.debug_frame
  19              		.section	.text.makeDefectiveList,"ax",%progbits
  20              		.align	2
  21              		.global	makeDefectiveList
  22              		.code	16
  23              		.thumb_func
  24              		.type	makeDefectiveList, %function
  25              	makeDefectiveList:
  26              	.LFB62:
  27              		.file 1 "defective.c"
   1:defective.c   **** /* ========================================
   2:defective.c   ****  *
   3:defective.c   ****  * Copyright YOUR COMPANY, THE YEAR
   4:defective.c   ****  * All Rights Reserved
   5:defective.c   ****  * UNPUBLISHED, LICENSED SOFTWARE.
   6:defective.c   ****  *
   7:defective.c   ****  * CONFIDENTIAL AND PROPRIETARY INFORMATION
   8:defective.c   ****  * WHICH IS THE PROPERTY OF your company.
   9:defective.c   ****  *
  10:defective.c   ****  * ========================================
  11:defective.c   **** */
  12:defective.c   **** #include "defective.h"
  13:defective.c   **** #include "lib/WIFI.h"
  14:defective.c   **** #include "lib/menu.h"
  15:defective.c   **** #include "lib/widget.h"
  16:defective.c   **** #include "lib/externalFlash.h"
  17:defective.c   **** #include "andonApi.h"
  18:defective.c   **** #include "andonJson.h"
  19:defective.c   **** #include "andonMessageQueue.h"
  20:defective.c   **** #include "jsonUtil.h"
  21:defective.c   **** 
  22:defective.c   **** DEFECTIVE_LISTS g_DefectiveLists;
  23:defective.c   **** 
  24:defective.c   **** void makeDefectiveList()
  25:defective.c   **** {
  28              		.loc 1 25 0
  29              		.cfi_startproc
  30              		@ args = 0, pretend = 0, frame = 0
  31              		@ frame_needed = 0, uses_anonymous_args = 0
  32 0000 10B5     		push	{r4, lr}
ARM GAS  C:\Users\luvsd\AppData\Local\Temp\ccylFwji.s 			page 2


  33              		.cfi_def_cfa_offset 8
  34              		.cfi_offset 4, -8
  35              		.cfi_offset 14, -4
  26:defective.c   ****     enQueueANDON_printf(DEFECTIVE_REQUEST_LIST,"get_defectiveList&mac=%s",
  36              		.loc 1 26 0
  37 0002 034A     		ldr	r2, .L2
  38 0004 0349     		ldr	r1, .L2+4
  39 0006 1520     		movs	r0, #21
  40 0008 FFF7FEFF 		bl	enQueueANDON_printf
  41              	.LVL0:
  27:defective.c   ****         g_network.MAC
  28:defective.c   ****     );
  29:defective.c   **** }
  42              		.loc 1 29 0
  43              		@ sp needed
  44 000c 10BD     		pop	{r4, pc}
  45              	.L3:
  46 000e C046     		.align	2
  47              	.L2:
  48 0010 6C000000 		.word	g_network+108
  49 0014 00000000 		.word	.LC1
  50              		.cfi_endproc
  51              	.LFE62:
  52              		.size	makeDefectiveList, .-makeDefectiveList
  53              		.section	.text.makeDefectiveWarningRequest,"ax",%progbits
  54              		.align	2
  55              		.global	makeDefectiveWarningRequest
  56              		.code	16
  57              		.thumb_func
  58              		.type	makeDefectiveWarningRequest, %function
  59              	makeDefectiveWarningRequest:
  60              	.LFB63:
  30:defective.c   **** void makeDefectiveWarningRequest(int idx)
  31:defective.c   **** {
  61              		.loc 1 31 0
  62              		.cfi_startproc
  63              		@ args = 0, pretend = 0, frame = 0
  64              		@ frame_needed = 0, uses_anonymous_args = 0
  65              	.LVL1:
  66 0000 10B5     		push	{r4, lr}
  67              		.cfi_def_cfa_offset 8
  68              		.cfi_offset 4, -8
  69              		.cfi_offset 14, -4
  70 0002 0400     		movs	r4, r0
  32:defective.c   ****     enQueueANDON_printf(DEFECTIVE_REQUEST_ITEM,"send_defective_warning&mac=%s&defective_idx=%d",
  71              		.loc 1 32 0
  72 0004 0300     		movs	r3, r0
  73 0006 054A     		ldr	r2, .L5
  74 0008 0549     		ldr	r1, .L5+4
  75 000a 1620     		movs	r0, #22
  76              	.LVL2:
  77 000c FFF7FEFF 		bl	enQueueANDON_printf
  78              	.LVL3:
  33:defective.c   ****         g_network.MAC,
  34:defective.c   ****         idx
  35:defective.c   ****     );
  36:defective.c   ****     printf("Warning Index : %d\r\n", idx);
ARM GAS  C:\Users\luvsd\AppData\Local\Temp\ccylFwji.s 			page 3


  79              		.loc 1 36 0
  80 0010 2100     		movs	r1, r4
  81 0012 0448     		ldr	r0, .L5+8
  82 0014 FFF7FEFF 		bl	printf
  83              	.LVL4:
  37:defective.c   **** }
  84              		.loc 1 37 0
  85              		@ sp needed
  86              	.LVL5:
  87 0018 10BD     		pop	{r4, pc}
  88              	.L6:
  89 001a C046     		.align	2
  90              	.L5:
  91 001c 6C000000 		.word	g_network+108
  92 0020 1C000000 		.word	.LC4
  93 0024 4C000000 		.word	.LC6
  94              		.cfi_endproc
  95              	.LFE63:
  96              		.size	makeDefectiveWarningRequest, .-makeDefectiveWarningRequest
  97              		.section	.text.defectiveParsing,"ax",%progbits
  98              		.align	2
  99              		.global	defectiveParsing
 100              		.code	16
 101              		.thumb_func
 102              		.type	defectiveParsing, %function
 103              	defectiveParsing:
 104              	.LFB64:
  38:defective.c   **** 
  39:defective.c   **** uint8 defectiveParsing(char *jsonString, int16 sizeOfJson)
  40:defective.c   **** {
 105              		.loc 1 40 0
 106              		.cfi_startproc
 107              		@ args = 0, pretend = 0, frame = 0
 108              		@ frame_needed = 0, uses_anonymous_args = 0
 109              	.LVL6:
 110 0000 00B5     		push	{lr}
 111              		.cfi_def_cfa_offset 4
 112              		.cfi_offset 14, -4
 113 0002 83B0     		sub	sp, sp, #12
 114              		.cfi_def_cfa_offset 16
  41:defective.c   ****     /* 공통 파서 위임 (jsonUtil.c parseGenericList) — 이슈 #10 중복 제거 */
  42:defective.c   ****     return parseGenericList(jsonString, sizeOfJson,
 115              		.loc 1 42 0
 116 0004 034B     		ldr	r3, .L8
 117 0006 0093     		str	r3, [sp]
 118 0008 034B     		ldr	r3, .L8+4
 119 000a 044A     		ldr	r2, .L8+8
 120 000c FFF7FEFF 		bl	parseGenericList
 121              	.LVL7:
  43:defective.c   ****                             (GENERIC_LISTS *)&g_DefectiveLists,
  44:defective.c   ****                             "defective_idx", "defective_name");
  45:defective.c   **** }
 122              		.loc 1 45 0
 123 0010 03B0     		add	sp, sp, #12
 124              		@ sp needed
 125 0012 00BD     		pop	{pc}
 126              	.L9:
ARM GAS  C:\Users\luvsd\AppData\Local\Temp\ccylFwji.s 			page 4


 127              		.align	2
 128              	.L8:
 129 0014 74000000 		.word	.LC11
 130 0018 64000000 		.word	.LC8
 131 001c 00000000 		.word	g_DefectiveLists
 132              		.cfi_endproc
 133              	.LFE64:
 134              		.size	defectiveParsing, .-defectiveParsing
 135              		.section	.text.SetDefectiveListButtons,"ax",%progbits
 136              		.align	2
 137              		.global	SetDefectiveListButtons
 138              		.code	16
 139              		.thumb_func
 140              		.type	SetDefectiveListButtons, %function
 141              	SetDefectiveListButtons:
 142              	.LFB66:
  46:defective.c   **** 
  47:defective.c   **** void SetDefectiveListButtons(LIST_MENU *menu, char *title, DEFECTIVE_LISTS *list);
  48:defective.c   **** 
  49:defective.c   **** int doDefective(void *this, uint8 reflash)
  50:defective.c   **** {
  51:defective.c   ****     MENUNODE *thisMenu = (MENUNODE *) this;
  52:defective.c   ****     uint8 bUpdate = FALSE;
  53:defective.c   ****     static uint16 page = 0;
  54:defective.c   **** 
  55:defective.c   ****     if(g_DefectiveLists.bUpdated)
  56:defective.c   ****     {
  57:defective.c   ****         g_DefectiveLists.bUpdated = FALSE;
  58:defective.c   ****         bUpdate = TRUE;
  59:defective.c   ****     }
  60:defective.c   **** 
  61:defective.c   ****     switch(reflash)
  62:defective.c   ****     {
  63:defective.c   ****         case TRUE: // 화면이 바뀔때 실행
  64:defective.c   ****         {
  65:defective.c   ****            bUpdate = TRUE;
  66:defective.c   ****            g_ListMenu.curPage = page;
  67:defective.c   ****         }
  68:defective.c   ****         break;
  69:defective.c   **** 
  70:defective.c   ****         case FALSE: // Cliking Check
  71:defective.c   ****             {
  72:defective.c   ****                 TOUCH tc = GetTouch();
  73:defective.c   ****                 if(tc.isClick == FALSE) break;
  74:defective.c   **** 
  75:defective.c   ****                 uint16 idx = getIndexOfClickedListMenu(&tc, &g_ListMenu);
  76:defective.c   **** 
  77:defective.c   ****                 switch(idx)
  78:defective.c   ****                 {
  79:defective.c   ****                     case NO_CLICK :
  80:defective.c   ****                         {
  81:defective.c   ****                             switch(getIndexOfClickedButton(&tc,g_btnBottom,2))
  82:defective.c   ****                             {
  83:defective.c   ****                                 case BOTTOM_LEFT:
  84:defective.c   ****                                     page = g_ListMenu.curPage;
  85:defective.c   ****                                     return MENU_RETURN_PARENT;
  86:defective.c   ****                                      break;
ARM GAS  C:\Users\luvsd\AppData\Local\Temp\ccylFwji.s 			page 5


  87:defective.c   ****                                 case BOTTOM_RIGHT:
  88:defective.c   ****                                 {
  89:defective.c   ****                                     if (isFirtstPage(&g_ListMenu) != TRUE &&  isLastPage(&g_ListMen
  90:defective.c   ****                                     else g_ListMenu.curPage++;
  91:defective.c   ****                                     page = g_ListMenu.curPage;
  92:defective.c   ****                                     bUpdate = TRUE;
  93:defective.c   ****                                     break;
  94:defective.c   ****                                 }
  95:defective.c   ****                             }
  96:defective.c   ****                             break;
  97:defective.c   ****                         }
  98:defective.c   ****                     default:
  99:defective.c   ****                         if(idx < g_ListMenu.sizeOfList)
 100:defective.c   ****                         {
 101:defective.c   ****                             g_DefectiveLists.uSelectIndex = idx;
 102:defective.c   ****                             return 0;
 103:defective.c   ****                         }
 104:defective.c   ****                 }
 105:defective.c   ****             }
 106:defective.c   ****             break;
 107:defective.c   ****     }
 108:defective.c   **** 
 109:defective.c   ****     if(bUpdate)
 110:defective.c   ****     {
 111:defective.c   ****         char *rightButtonText = "NEXT";
 112:defective.c   ****         SetDefectiveListButtons(&g_ListMenu, NULL, &g_DefectiveLists);
 113:defective.c   ****         if (isFirtstPage(&g_ListMenu) != TRUE &&  isLastPage(&g_ListMenu) == TRUE) rightButtonText 
 114:defective.c   ****         UpdateDrawListButtons(&g_ListMenu,NO_SELECT);
 115:defective.c   ****         SetDrawBottomButtons("QUIT", rightButtonText, BUTTON_STYLE_R_GREEN, BUTTON_STYLE_R_ORANGE);
 116:defective.c   ****         bUpdate = FALSE;
 117:defective.c   ****     }
 118:defective.c   ****     return MENU_RETURN_THIS;
 119:defective.c   **** }
 120:defective.c   **** 
 121:defective.c   **** void SetDefectiveListButtons(LIST_MENU *menu, char *title, DEFECTIVE_LISTS *list)
 122:defective.c   **** ///////////////////////////////////////////////////////////////////////////////////////////////////
 123:defective.c   **** {
 143              		.loc 1 123 0
 144              		.cfi_startproc
 145              		@ args = 0, pretend = 0, frame = 8
 146              		@ frame_needed = 0, uses_anonymous_args = 0
 147              	.LVL8:
 148 0000 F0B5     		push	{r4, r5, r6, r7, lr}
 149              		.cfi_def_cfa_offset 20
 150              		.cfi_offset 4, -20
 151              		.cfi_offset 5, -16
 152              		.cfi_offset 6, -12
 153              		.cfi_offset 7, -8
 154              		.cfi_offset 14, -4
 155 0002 4F46     		mov	r7, r9
 156 0004 4646     		mov	r6, r8
 157 0006 C0B4     		push	{r6, r7}
 158              		.cfi_def_cfa_offset 28
 159              		.cfi_offset 8, -28
 160              		.cfi_offset 9, -24
 161 0008 85B0     		sub	sp, sp, #20
 162              		.cfi_def_cfa_offset 48
ARM GAS  C:\Users\luvsd\AppData\Local\Temp\ccylFwji.s 			page 6


 163 000a 0600     		movs	r6, r0
 164 000c 0C00     		movs	r4, r1
 165 000e 9146     		mov	r9, r2
 124:defective.c   ****     RECT bodyRect = GetBodyArea();
 166              		.loc 1 124 0
 167 0010 02AD     		add	r5, sp, #8
 168 0012 2800     		movs	r0, r5
 169              	.LVL9:
 170 0014 FFF7FEFF 		bl	GetBodyArea
 171              	.LVL10:
 125:defective.c   ****     uint16 yPos = bodyRect.top;
 172              		.loc 1 125 0
 173 0018 AD88     		ldrh	r5, [r5, #4]
 174              	.LVL11:
 126:defective.c   ****     uint16 yPosTitle;
 127:defective.c   **** 
 128:defective.c   ****     menu->noOfDisplayButton = getMaxNoOfItemInListButton();
 175              		.loc 1 128 0
 176 001a FFF7FEFF 		bl	getMaxNoOfItemInListButton
 177              	.LVL12:
 178 001e A023     		movs	r3, #160
 179 0020 9B00     		lsls	r3, r3, #2
 180 0022 F052     		strh	r0, [r6, r3]
 129:defective.c   **** 
 130:defective.c   ****     if(title != NULL) menu->noOfDisplayButton--;
 181              		.loc 1 130 0
 182 0024 002C     		cmp	r4, #0
 183 0026 01D0     		beq	.L11
 184              		.loc 1 130 0 is_stmt 0 discriminator 1
 185 0028 0138     		subs	r0, r0, #1
 186 002a F052     		strh	r0, [r6, r3]
 187              	.L11:
 131:defective.c   **** 
 132:defective.c   ****     menu->sizeOfList = list->noOfList;
 188              		.loc 1 132 0 is_stmt 1
 189 002c 4B46     		mov	r3, r9
 190 002e 5A78     		ldrb	r2, [r3, #1]
 191 0030 2E4B     		ldr	r3, .L18
 192 0032 F252     		strh	r2, [r6, r3]
 193              	.LVL13:
 133:defective.c   **** 
 134:defective.c   ****     uint8 withScroll = FALSE;// isExistScroll(menu);
 135:defective.c   **** 
 136:defective.c   ****     if((yPosTitle = DrawTitleButton(title,withScroll)) > 0) yPos = yPosTitle;
 194              		.loc 1 136 0
 195 0034 0021     		movs	r1, #0
 196 0036 2000     		movs	r0, r4
 197 0038 FFF7FEFF 		bl	DrawTitleButton
 198              	.LVL14:
 199 003c 8046     		mov	r8, r0
 200              	.LVL15:
 201 003e 0028     		cmp	r0, #0
 202 0040 00D1     		bne	.L12
 125:defective.c   ****     uint16 yPosTitle;
 203              		.loc 1 125 0
 204 0042 A846     		mov	r8, r5
 205              	.L12:
ARM GAS  C:\Users\luvsd\AppData\Local\Temp\ccylFwji.s 			page 7


 125:defective.c   ****     uint16 yPosTitle;
 206              		.loc 1 125 0 is_stmt 0 discriminator 1
 207 0044 0027     		movs	r7, #0
 208 0046 47E0     		b	.L13
 209              	.LVL16:
 210              	.L17:
 211              	.LBB2:
 212              	.LBB3:
 137:defective.c   **** 
 138:defective.c   ****     for(int i=0; i < menu->noOfDisplayButton; i++)
 139:defective.c   ****     {
 140:defective.c   ****         BUTTON *btn = &menu->btns[i];
 213              		.loc 1 140 0 is_stmt 1
 214 0048 7D1D     		adds	r5, r7, #5
 215 004a AD01     		lsls	r5, r5, #6
 216 004c 7519     		adds	r5, r6, r5
 217              	.LVL17:
 141:defective.c   ****         SetDefaultButtonStyle(btn);
 218              		.loc 1 141 0
 219 004e 2800     		movs	r0, r5
 220 0050 FFF7FEFF 		bl	SetDefaultButtonStyle
 221              	.LVL18:
 142:defective.c   **** 
 143:defective.c   ****         SetButtonSize      (btn, yPos, g_DEFAULT_BUTTON_HEIGHT, BUTTON_X_FULL, BUTTON_Y,withScroll)
 222              		.loc 1 143 0
 223 0054 264B     		ldr	r3, .L18+4
 224 0056 1A88     		ldrh	r2, [r3]
 225 0058 0023     		movs	r3, #0
 226 005a 0193     		str	r3, [sp, #4]
 227 005c 0B33     		adds	r3, r3, #11
 228 005e 0093     		str	r3, [sp]
 229 0060 0A3B     		subs	r3, r3, #10
 230 0062 4146     		mov	r1, r8
 231 0064 2800     		movs	r0, r5
 232 0066 FFF7FEFF 		bl	SetButtonSize
 233              	.LVL19:
 144:defective.c   **** 
 145:defective.c   ****         uint16 textIdx = menu->noOfDisplayButton * menu->curPage + i;
 234              		.loc 1 145 0
 235 006a A023     		movs	r3, #160
 236 006c 9B00     		lsls	r3, r3, #2
 237 006e F45A     		ldrh	r4, [r6, r3]
 238 0070 8433     		adds	r3, r3, #132
 239 0072 F35A     		ldrh	r3, [r6, r3]
 240 0074 5C43     		muls	r4, r3
 241 0076 E419     		adds	r4, r4, r7
 242 0078 A4B2     		uxth	r4, r4
 243              	.LVL20:
 146:defective.c   ****         if(textIdx >= menu->sizeOfList) break;
 244              		.loc 1 146 0
 245 007a 1C4B     		ldr	r3, .L18
 246 007c F35A     		ldrh	r3, [r6, r3]
 247 007e 9C42     		cmp	r4, r3
 248 0080 2FD2     		bcs	.L10
 249              	.LVL21:
 147:defective.c   **** 
 148:defective.c   ****         DEFECTIVE_LIST_ITEM *item = &list->item[textIdx];
ARM GAS  C:\Users\luvsd\AppData\Local\Temp\ccylFwji.s 			page 8


 149:defective.c   ****         int16 not_completed_qty = item->not_completed_qty;
 250              		.loc 1 149 0
 251 0082 2623     		movs	r3, #38
 252 0084 6343     		muls	r3, r4
 253 0086 4B44     		add	r3, r3, r9
 254 0088 2822     		movs	r2, #40
 255 008a 9B5E     		ldrsh	r3, [r3, r2]
 256              	.LVL22:
 150:defective.c   **** 
 151:defective.c   ****         if(not_completed_qty == 0)
 257              		.loc 1 151 0
 258 008c 002B     		cmp	r3, #0
 259 008e 04D1     		bne	.L15
 152:defective.c   ****             SetButtonStyleColor(btn, BUTTON_STYLE_LIST);
 260              		.loc 1 152 0
 261 0090 0021     		movs	r1, #0
 262 0092 2800     		movs	r0, r5
 263 0094 FFF7FEFF 		bl	SetButtonStyleColor
 264              	.LVL23:
 265 0098 03E0     		b	.L16
 266              	.LVL24:
 267              	.L15:
 153:defective.c   ****         else
 154:defective.c   ****             SetButtonStyleColor(btn, BUTTON_STYLE_R_RED);
 268              		.loc 1 154 0
 269 009a 0E21     		movs	r1, #14
 270 009c 2800     		movs	r0, r5
 271 009e FFF7FEFF 		bl	SetButtonStyleColor
 272              	.LVL25:
 273              	.L16:
 155:defective.c   **** 
 156:defective.c   ****         btn->align = TEXT_ALIGN_LEFT;
 274              		.loc 1 156 0 discriminator 2
 275 00a2 BB01     		lsls	r3, r7, #6
 276 00a4 F318     		adds	r3, r6, r3
 277 00a6 7B33     		adds	r3, r3, #123
 278 00a8 FF33     		adds	r3, r3, #255
 279 00aa 0122     		movs	r2, #1
 280 00ac 1A70     		strb	r2, [r3]
 157:defective.c   **** 
 158:defective.c   ****    //     sprintf(menu->listText[textIdx],"%-10s",item->text);
 159:defective.c   ****         //sprintf(menu->listText[textIdx],"%-10s %2d",item->text, item->not_completed_qty);
 160:defective.c   ****         sprintf(menu->listText[textIdx],"%-11s %2d",item->text, item->not_completed_qty);
 281              		.loc 1 160 0 discriminator 2
 282 00ae A300     		lsls	r3, r4, #2
 283 00b0 1B19     		adds	r3, r3, r4
 284 00b2 9800     		lsls	r0, r3, #2
 285 00b4 1030     		adds	r0, r0, #16
 286 00b6 3018     		adds	r0, r6, r0
 287 00b8 0430     		adds	r0, r0, #4
 288 00ba 2623     		movs	r3, #38
 289 00bc 5C43     		muls	r4, r3
 290              	.LVL26:
 291 00be 4C44     		add	r4, r4, r9
 292 00c0 A21D     		adds	r2, r4, #6
 293 00c2 2821     		movs	r1, #40
 294 00c4 635E     		ldrsh	r3, [r4, r1]
ARM GAS  C:\Users\luvsd\AppData\Local\Temp\ccylFwji.s 			page 9


 295 00c6 0B49     		ldr	r1, .L18+8
 296 00c8 FFF7FEFF 		bl	sprintf
 297              	.LVL27:
 161:defective.c   ****       //  printf("%s %d\r\n", menu->listText[textIdx], textIdx);
 162:defective.c   ****         yPos += g_DEFAULT_BUTTON_HEIGHT;
 298              		.loc 1 162 0 discriminator 2
 299 00cc 084B     		ldr	r3, .L18+4
 300 00ce 1888     		ldrh	r0, [r3]
 301 00d0 4044     		add	r0, r0, r8
 302 00d2 83B2     		uxth	r3, r0
 303 00d4 9846     		mov	r8, r3
 304              	.LVL28:
 305              	.LBE3:
 138:defective.c   ****     {
 306              		.loc 1 138 0 discriminator 2
 307 00d6 0137     		adds	r7, r7, #1
 308              	.LVL29:
 309              	.L13:
 138:defective.c   ****     {
 310              		.loc 1 138 0 is_stmt 0 discriminator 1
 311 00d8 A023     		movs	r3, #160
 312 00da 9B00     		lsls	r3, r3, #2
 313 00dc F35A     		ldrh	r3, [r6, r3]
 314 00de 9F42     		cmp	r7, r3
 315 00e0 B2DB     		blt	.L17
 316              	.L10:
 317              	.LBE2:
 163:defective.c   ****     }
 164:defective.c   **** 
 165:defective.c   ****     if(withScroll) SetDrawScrollButton(menu);
 166:defective.c   **** }
 318              		.loc 1 166 0 is_stmt 1
 319 00e2 05B0     		add	sp, sp, #20
 320              		@ sp needed
 321              	.LVL30:
 322              	.LVL31:
 323              	.LVL32:
 324              	.LVL33:
 325 00e4 0CBC     		pop	{r2, r3}
 326 00e6 9046     		mov	r8, r2
 327 00e8 9946     		mov	r9, r3
 328 00ea F0BD     		pop	{r4, r5, r6, r7, pc}
 329              	.L19:
 330              		.align	2
 331              	.L18:
 332 00ec 82020000 		.word	642
 333 00f0 00000000 		.word	g_DEFAULT_BUTTON_HEIGHT
 334 00f4 84000000 		.word	.LC14
 335              		.cfi_endproc
 336              	.LFE66:
 337              		.size	SetDefectiveListButtons, .-SetDefectiveListButtons
 338              		.section	.text.doDefective,"ax",%progbits
 339              		.align	2
 340              		.global	doDefective
 341              		.code	16
 342              		.thumb_func
 343              		.type	doDefective, %function
ARM GAS  C:\Users\luvsd\AppData\Local\Temp\ccylFwji.s 			page 10


 344              	doDefective:
 345              	.LFB65:
  50:defective.c   ****     MENUNODE *thisMenu = (MENUNODE *) this;
 346              		.loc 1 50 0
 347              		.cfi_startproc
 348              		@ args = 0, pretend = 0, frame = 8
 349              		@ frame_needed = 0, uses_anonymous_args = 0
 350              	.LVL34:
 351 0000 10B5     		push	{r4, lr}
 352              		.cfi_def_cfa_offset 8
 353              		.cfi_offset 4, -8
 354              		.cfi_offset 14, -4
 355 0002 82B0     		sub	sp, sp, #8
 356              		.cfi_def_cfa_offset 16
 357              	.LVL35:
  55:defective.c   ****     {
 358              		.loc 1 55 0
 359 0004 414B     		ldr	r3, .L41
 360 0006 1B78     		ldrb	r3, [r3]
 361 0008 002B     		cmp	r3, #0
 362 000a 04D0     		beq	.L36
  57:defective.c   ****         bUpdate = TRUE;
 363              		.loc 1 57 0
 364 000c 0022     		movs	r2, #0
 365 000e 3F4B     		ldr	r3, .L41
 366 0010 1A70     		strb	r2, [r3]
 367              	.LVL36:
  58:defective.c   ****     }
 368              		.loc 1 58 0
 369 0012 0124     		movs	r4, #1
 370 0014 00E0     		b	.L21
 371              	.LVL37:
 372              	.L36:
  52:defective.c   ****     static uint16 page = 0;
 373              		.loc 1 52 0
 374 0016 0024     		movs	r4, #0
 375              	.LVL38:
 376              	.L21:
  61:defective.c   ****     {
 377              		.loc 1 61 0
 378 0018 0029     		cmp	r1, #0
 379 001a 09D0     		beq	.L23
 380 001c 0129     		cmp	r1, #1
 381 001e 4ED1     		bne	.L22
 382              	.LVL39:
  66:defective.c   ****         }
 383              		.loc 1 66 0
 384 0020 3B4B     		ldr	r3, .L41+4
 385 0022 1988     		ldrh	r1, [r3]
 386              	.LVL40:
 387 0024 C123     		movs	r3, #193
 388 0026 9B00     		lsls	r3, r3, #2
 389 0028 3A4A     		ldr	r2, .L41+8
 390 002a D152     		strh	r1, [r2, r3]
  65:defective.c   ****            g_ListMenu.curPage = page;
 391              		.loc 1 65 0
 392 002c 0124     		movs	r4, #1
ARM GAS  C:\Users\luvsd\AppData\Local\Temp\ccylFwji.s 			page 11


  68:defective.c   **** 
 393              		.loc 1 68 0
 394 002e 46E0     		b	.L22
 395              	.LVL41:
 396              	.L23:
 397              	.LBB4:
  72:defective.c   ****                 if(tc.isClick == FALSE) break;
 398              		.loc 1 72 0
 399 0030 6846     		mov	r0, sp
 400              	.LVL42:
 401 0032 FFF7FEFF 		bl	GetTouch
 402              	.LVL43:
  73:defective.c   **** 
 403              		.loc 1 73 0
 404 0036 6B46     		mov	r3, sp
 405 0038 1B88     		ldrh	r3, [r3]
 406 003a 002B     		cmp	r3, #0
 407 003c 3FD0     		beq	.L22
  75:defective.c   **** 
 408              		.loc 1 75 0
 409 003e 3549     		ldr	r1, .L41+8
 410 0040 6846     		mov	r0, sp
 411 0042 FFF7FEFF 		bl	getIndexOfClickedListMenu
 412              	.LVL44:
  77:defective.c   ****                 {
 413              		.loc 1 77 0
 414 0046 FF28     		cmp	r0, #255
 415 0048 30D1     		bne	.L40
  81:defective.c   ****                             {
 416              		.loc 1 81 0
 417 004a 0222     		movs	r2, #2
 418 004c 3249     		ldr	r1, .L41+12
 419 004e 6846     		mov	r0, sp
 420              	.LVL45:
 421 0050 FFF7FEFF 		bl	getIndexOfClickedButton
 422              	.LVL46:
 423 0054 0028     		cmp	r0, #0
 424 0056 02D0     		beq	.L29
 425 0058 0128     		cmp	r0, #1
 426 005a 09D0     		beq	.L30
 427 005c 2FE0     		b	.L22
 428              	.L29:
  84:defective.c   ****                                     return MENU_RETURN_PARENT;
 429              		.loc 1 84 0
 430 005e C123     		movs	r3, #193
 431 0060 9B00     		lsls	r3, r3, #2
 432 0062 2C4A     		ldr	r2, .L41+8
 433 0064 D25A     		ldrh	r2, [r2, r3]
 434 0066 2A4B     		ldr	r3, .L41+4
 435 0068 1A80     		strh	r2, [r3]
  85:defective.c   ****                                      break;
 436              		.loc 1 85 0
 437 006a 8020     		movs	r0, #128
 438 006c 0006     		lsls	r0, r0, #24
 439 006e 4AE0     		b	.L34
 440              	.L30:
  89:defective.c   ****                                     else g_ListMenu.curPage++;
ARM GAS  C:\Users\luvsd\AppData\Local\Temp\ccylFwji.s 			page 12


 441              		.loc 1 89 0
 442 0070 2848     		ldr	r0, .L41+8
 443 0072 FFF7FEFF 		bl	isFirtstPage
 444              	.LVL47:
 445 0076 0128     		cmp	r0, #1
 446 0078 0AD0     		beq	.L32
  89:defective.c   ****                                     else g_ListMenu.curPage++;
 447              		.loc 1 89 0 is_stmt 0 discriminator 1
 448 007a 2648     		ldr	r0, .L41+8
 449 007c FFF7FEFF 		bl	isLastPage
 450              	.LVL48:
 451 0080 0128     		cmp	r0, #1
 452 0082 05D1     		bne	.L32
  89:defective.c   ****                                     else g_ListMenu.curPage++;
 453              		.loc 1 89 0 discriminator 2
 454 0084 0021     		movs	r1, #0
 455 0086 C123     		movs	r3, #193
 456 0088 9B00     		lsls	r3, r3, #2
 457 008a 224A     		ldr	r2, .L41+8
 458 008c D152     		strh	r1, [r2, r3]
 459 008e 05E0     		b	.L33
 460              	.L32:
  90:defective.c   ****                                     page = g_ListMenu.curPage;
 461              		.loc 1 90 0 is_stmt 1
 462 0090 2049     		ldr	r1, .L41+8
 463 0092 C122     		movs	r2, #193
 464 0094 9200     		lsls	r2, r2, #2
 465 0096 8B5A     		ldrh	r3, [r1, r2]
 466 0098 0133     		adds	r3, r3, #1
 467 009a 8B52     		strh	r3, [r1, r2]
 468              	.L33:
  91:defective.c   ****                                     bUpdate = TRUE;
 469              		.loc 1 91 0
 470 009c C123     		movs	r3, #193
 471 009e 9B00     		lsls	r3, r3, #2
 472 00a0 1C4A     		ldr	r2, .L41+8
 473 00a2 D25A     		ldrh	r2, [r2, r3]
 474 00a4 1A4B     		ldr	r3, .L41+4
 475 00a6 1A80     		strh	r2, [r3]
 476              	.LVL49:
  92:defective.c   ****                                     break;
 477              		.loc 1 92 0
 478 00a8 0124     		movs	r4, #1
  93:defective.c   ****                                 }
 479              		.loc 1 93 0
 480 00aa 08E0     		b	.L22
 481              	.LVL50:
 482              	.L40:
  99:defective.c   ****                         {
 483              		.loc 1 99 0
 484 00ac 1B4A     		ldr	r2, .L41+16
 485 00ae 1949     		ldr	r1, .L41+8
 486 00b0 8A5A     		ldrh	r2, [r1, r2]
 487 00b2 9042     		cmp	r0, r2
 488 00b4 03D2     		bcs	.L22
 101:defective.c   ****                             return 0;
 489              		.loc 1 101 0
ARM GAS  C:\Users\luvsd\AppData\Local\Temp\ccylFwji.s 			page 13


 490 00b6 154B     		ldr	r3, .L41
 491 00b8 9870     		strb	r0, [r3, #2]
 102:defective.c   ****                         }
 492              		.loc 1 102 0
 493 00ba 0020     		movs	r0, #0
 494              	.LVL51:
 495 00bc 23E0     		b	.L34
 496              	.LVL52:
 497              	.L22:
 498              	.LBE4:
 109:defective.c   ****     {
 499              		.loc 1 109 0
 500 00be 002C     		cmp	r4, #0
 501 00c0 20D0     		beq	.L37
 502              	.LVL53:
 503              	.LBB5:
 112:defective.c   ****         if (isFirtstPage(&g_ListMenu) != TRUE &&  isLastPage(&g_ListMenu) == TRUE) rightButtonText 
 504              		.loc 1 112 0
 505 00c2 144C     		ldr	r4, .L41+8
 506              	.LVL54:
 507 00c4 114A     		ldr	r2, .L41
 508 00c6 0021     		movs	r1, #0
 509 00c8 2000     		movs	r0, r4
 510 00ca FFF7FEFF 		bl	SetDefectiveListButtons
 511              	.LVL55:
 113:defective.c   ****         UpdateDrawListButtons(&g_ListMenu,NO_SELECT);
 512              		.loc 1 113 0
 513 00ce 2000     		movs	r0, r4
 514 00d0 FFF7FEFF 		bl	isFirtstPage
 515              	.LVL56:
 516 00d4 0128     		cmp	r0, #1
 517 00d6 06D0     		beq	.L38
 113:defective.c   ****         UpdateDrawListButtons(&g_ListMenu,NO_SELECT);
 518              		.loc 1 113 0 is_stmt 0 discriminator 1
 519 00d8 0E48     		ldr	r0, .L41+8
 520 00da FFF7FEFF 		bl	isLastPage
 521              	.LVL57:
 522 00de 0128     		cmp	r0, #1
 523 00e0 03D0     		beq	.L39
 111:defective.c   ****         SetDefectiveListButtons(&g_ListMenu, NULL, &g_DefectiveLists);
 524              		.loc 1 111 0 is_stmt 1
 525 00e2 0F4C     		ldr	r4, .L41+20
 526 00e4 02E0     		b	.L35
 527              	.L38:
 528 00e6 0E4C     		ldr	r4, .L41+20
 529 00e8 00E0     		b	.L35
 530              	.L39:
 113:defective.c   ****         UpdateDrawListButtons(&g_ListMenu,NO_SELECT);
 531              		.loc 1 113 0
 532 00ea 0E4C     		ldr	r4, .L41+24
 533              	.L35:
 534              	.LVL58:
 114:defective.c   ****         SetDrawBottomButtons("QUIT", rightButtonText, BUTTON_STYLE_R_GREEN, BUTTON_STYLE_R_ORANGE);
 535              		.loc 1 114 0
 536 00ec 0E49     		ldr	r1, .L41+28
 537 00ee 0948     		ldr	r0, .L41+8
 538 00f0 FFF7FEFF 		bl	UpdateDrawListButtons
ARM GAS  C:\Users\luvsd\AppData\Local\Temp\ccylFwji.s 			page 14


 539              	.LVL59:
 115:defective.c   ****         bUpdate = FALSE;
 540              		.loc 1 115 0
 541 00f4 0F23     		movs	r3, #15
 542 00f6 1122     		movs	r2, #17
 543 00f8 2100     		movs	r1, r4
 544 00fa 0C48     		ldr	r0, .L41+32
 545 00fc FFF7FEFF 		bl	SetDrawBottomButtons
 546              	.LVL60:
 547              	.LBE5:
 118:defective.c   **** }
 548              		.loc 1 118 0
 549 0100 0B48     		ldr	r0, .L41+36
 550 0102 00E0     		b	.L34
 551              	.LVL61:
 552              	.L37:
 553 0104 0A48     		ldr	r0, .L41+36
 554              	.LVL62:
 555              	.L34:
 119:defective.c   **** 
 556              		.loc 1 119 0
 557 0106 02B0     		add	sp, sp, #8
 558              		@ sp needed
 559 0108 10BD     		pop	{r4, pc}
 560              	.L42:
 561 010a C046     		.align	2
 562              	.L41:
 563 010c 00000000 		.word	g_DefectiveLists
 564 0110 00000000 		.word	.LANCHOR0
 565 0114 00000000 		.word	g_ListMenu
 566 0118 00000000 		.word	g_btnBottom
 567 011c 82020000 		.word	642
 568 0120 90000000 		.word	.LC16
 569 0124 98000000 		.word	.LC18
 570 0128 FFFF0000 		.word	65535
 571 012c A0000000 		.word	.LC24
 572 0130 01000080 		.word	-2147483647
 573              		.cfi_endproc
 574              	.LFE65:
 575              		.size	doDefective, .-doDefective
 576              		.section	.text.doDefectiveRequest,"ax",%progbits
 577              		.align	2
 578              		.global	doDefectiveRequest
 579              		.code	16
 580              		.thumb_func
 581              		.type	doDefectiveRequest, %function
 582              	doDefectiveRequest:
 583              	.LFB67:
 167:defective.c   **** 
 168:defective.c   **** int doDefectiveRequest(void *this, uint8 reflash)
 169:defective.c   **** {
 584              		.loc 1 169 0
 585              		.cfi_startproc
 586              		@ args = 0, pretend = 0, frame = 32
 587              		@ frame_needed = 0, uses_anonymous_args = 0
 588              	.LVL63:
 589 0000 30B5     		push	{r4, r5, lr}
ARM GAS  C:\Users\luvsd\AppData\Local\Temp\ccylFwji.s 			page 15


 590              		.cfi_def_cfa_offset 12
 591              		.cfi_offset 4, -12
 592              		.cfi_offset 5, -8
 593              		.cfi_offset 14, -4
 594 0002 8BB0     		sub	sp, sp, #44
 595              		.cfi_def_cfa_offset 56
 596              	.LVL64:
 170:defective.c   ****     MENUNODE *thisMenu = (MENUNODE *) this;
 171:defective.c   ****     static LIST_MENU menu;
 172:defective.c   ****     static char *listText[] = {"WARNING"};
 173:defective.c   ****     static uint16 indexSelect;
 174:defective.c   ****     uint8 bUpdate = FALSE;
 175:defective.c   **** 
 176:defective.c   ****     DEFECTIVE_LIST_ITEM *item = &g_DefectiveLists.item[g_DefectiveLists.uSelectIndex];
 597              		.loc 1 176 0
 598 0004 2D4B     		ldr	r3, .L56
 599 0006 9C78     		ldrb	r4, [r3, #2]
 600              	.LVL65:
 177:defective.c   ****     int16 not_completed_qty = item->not_completed_qty;
 178:defective.c   **** 
 179:defective.c   **** 
 180:defective.c   ****     switch(reflash)
 601              		.loc 1 180 0
 602 0008 0029     		cmp	r1, #0
 603 000a 08D0     		beq	.L45
 604 000c 0129     		cmp	r1, #1
 605 000e 2DD1     		bne	.L55
 181:defective.c   ****     {
 182:defective.c   ****         case TRUE: // 화면이 바뀔때 실행
 183:defective.c   ****             {
 184:defective.c   ****                 menu.curPage = 0;
 606              		.loc 1 184 0
 607 0010 0021     		movs	r1, #0
 608              	.LVL66:
 609 0012 C223     		movs	r3, #194
 610 0014 9B00     		lsls	r3, r3, #2
 611 0016 2A4A     		ldr	r2, .L56+4
 612 0018 D152     		strh	r1, [r2, r3]
 613              	.LVL67:
 185:defective.c   ****                 bUpdate = TRUE;
 614              		.loc 1 185 0
 615 001a 0123     		movs	r3, #1
 186:defective.c   ****             }
 187:defective.c   ****             break;
 616              		.loc 1 187 0
 617 001c 27E0     		b	.L44
 618              	.LVL68:
 619              	.L45:
 620              	.LBB6:
 188:defective.c   **** 
 189:defective.c   ****         case FALSE: // Cliking Check
 190:defective.c   ****             {
 191:defective.c   ****                 TOUCH tc = GetTouch();
 621              		.loc 1 191 0
 622 001e 02AD     		add	r5, sp, #8
 623 0020 2800     		movs	r0, r5
 624              	.LVL69:
ARM GAS  C:\Users\luvsd\AppData\Local\Temp\ccylFwji.s 			page 16


 625 0022 FFF7FEFF 		bl	GetTouch
 626              	.LVL70:
 192:defective.c   ****                 if(tc.isClick == FALSE) break;
 627              		.loc 1 192 0
 628 0026 2B88     		ldrh	r3, [r5]
 629 0028 002B     		cmp	r3, #0
 630 002a 1AD0     		beq	.L47
 193:defective.c   **** 
 194:defective.c   ****                 uint16 idx = getIndexOfClickedListMenu(&tc, &menu);
 631              		.loc 1 194 0
 632 002c 2449     		ldr	r1, .L56+4
 633 002e 0431     		adds	r1, r1, #4
 634 0030 02A8     		add	r0, sp, #8
 635 0032 FFF7FEFF 		bl	getIndexOfClickedListMenu
 636              	.LVL71:
 195:defective.c   **** 
 196:defective.c   ****                 switch(idx)
 637              		.loc 1 196 0
 638 0036 FF28     		cmp	r0, #255
 639 0038 11D1     		bne	.L48
 197:defective.c   ****                 {
 198:defective.c   ****                     case NO_CLICK :
 199:defective.c   ****                         {
 200:defective.c   ****                             switch(getIndexOfClickedButton(&tc,g_btnBottom,2))
 640              		.loc 1 200 0
 641 003a 0222     		movs	r2, #2
 642 003c 2149     		ldr	r1, .L56+8
 643 003e 02A8     		add	r0, sp, #8
 644              	.LVL72:
 645 0040 FFF7FEFF 		bl	getIndexOfClickedButton
 646              	.LVL73:
 647 0044 0028     		cmp	r0, #0
 648 0046 0ED0     		beq	.L50
 649 0048 0128     		cmp	r0, #1
 650 004a 08D1     		bne	.L48
 201:defective.c   ****                             {
 202:defective.c   ****                                 case BOTTOM_LEFT:
 203:defective.c   ****                                     return MENU_RETURN_PARENT;
 204:defective.c   ****                                 case BOTTOM_RIGHT:
 205:defective.c   ****                                 {
 206:defective.c   ****                                     switch(indexSelect)
 207:defective.c   ****                                     {
 208:defective.c   ****                                         case 0: makeDefectiveWarningRequest(item->idx);
 651              		.loc 1 208 0
 652 004c 2623     		movs	r3, #38
 653 004e 6343     		muls	r3, r4
 654 0050 1A4C     		ldr	r4, .L56
 655              	.LVL74:
 656 0052 E318     		adds	r3, r4, r3
 657 0054 2620     		movs	r0, #38
 658 0056 185E     		ldrsh	r0, [r3, r0]
 659 0058 FFF7FEFF 		bl	makeDefectiveWarningRequest
 660              	.LVL75:
 209:defective.c   ****                                         break;
 661              		.loc 1 209 0
 662 005c 03E0     		b	.L50
 663              	.LVL76:
ARM GAS  C:\Users\luvsd\AppData\Local\Temp\ccylFwji.s 			page 17


 664              	.L48:
 665              	.LBE6:
 174:defective.c   **** 
 666              		.loc 1 174 0 discriminator 1
 667 005e 0023     		movs	r3, #0
 210:defective.c   ****                                       //  case 1: makeDownTimeCompleteRequest(item->idx);
 211:defective.c   ****                                       //  break;
 212:defective.c   ****                                     }
 213:defective.c   ****                                     return MENU_RETURN_PARENT;
 214:defective.c   ****                                 }
 215:defective.c   ****                             }
 216:defective.c   ****                             break;
 217:defective.c   ****                         }
 218:defective.c   ****                     default:
 219:defective.c   ****                         break;
 220:defective.c   ****                 }
 221:defective.c   ****             }
 222:defective.c   ****             break;
 668              		.loc 1 222 0 discriminator 1
 669 0060 05E0     		b	.L44
 670              	.L47:
 174:defective.c   **** 
 671              		.loc 1 174 0
 672 0062 0023     		movs	r3, #0
 673 0064 03E0     		b	.L44
 674              	.LVL77:
 675              	.L50:
 676              	.LBB7:
 203:defective.c   ****                                 case BOTTOM_RIGHT:
 677              		.loc 1 203 0 discriminator 1
 678 0066 8020     		movs	r0, #128
 679 0068 0006     		lsls	r0, r0, #24
 680 006a 24E0     		b	.L52
 681              	.LVL78:
 682              	.L55:
 683              	.LBE7:
 174:defective.c   **** 
 684              		.loc 1 174 0
 685 006c 0023     		movs	r3, #0
 686              	.LVL79:
 687              	.L44:
 223:defective.c   ****     }
 224:defective.c   ****     if(bUpdate)
 688              		.loc 1 224 0
 689 006e 002B     		cmp	r3, #0
 690 0070 20D0     		beq	.L54
 691              	.LBB8:
 225:defective.c   ****     {
 226:defective.c   ****         char msg[MAX_BUTTON_TEXT_SIZE];
 227:defective.c   ****         sprintf(msg,"%s %d",item->text, item->not_completed_qty);
 692              		.loc 1 227 0
 693 0072 2623     		movs	r3, #38
 694              	.LVL80:
 695 0074 6343     		muls	r3, r4
 696 0076 114A     		ldr	r2, .L56
 697 0078 9B18     		adds	r3, r3, r2
 698 007a 9A1D     		adds	r2, r3, #6
ARM GAS  C:\Users\luvsd\AppData\Local\Temp\ccylFwji.s 			page 18


 699 007c 2821     		movs	r1, #40
 700 007e 5B5E     		ldrsh	r3, [r3, r1]
 701 0080 1149     		ldr	r1, .L56+12
 702 0082 02A8     		add	r0, sp, #8
 703 0084 FFF7FEFF 		bl	sprintf
 704              	.LVL81:
 228:defective.c   ****         SetDrawListButtons(&menu,msg,listText,1 , BUTTON_STYLE_LIST);
 705              		.loc 1 228 0
 706 0088 0D4C     		ldr	r4, .L56+4
 707              	.LVL82:
 708 008a 0434     		adds	r4, r4, #4
 709 008c 0023     		movs	r3, #0
 710 008e 0093     		str	r3, [sp]
 711 0090 0133     		adds	r3, r3, #1
 712 0092 0E4A     		ldr	r2, .L56+16
 713 0094 02A9     		add	r1, sp, #8
 714 0096 2000     		movs	r0, r4
 715 0098 FFF7FEFF 		bl	SetDrawListButtons
 716              	.LVL83:
 229:defective.c   ****         UpdateDrawListButtons(&menu,NO_SELECT);
 717              		.loc 1 229 0
 718 009c 0C49     		ldr	r1, .L56+20
 719 009e 2000     		movs	r0, r4
 720 00a0 FFF7FEFF 		bl	UpdateDrawListButtons
 721              	.LVL84:
 230:defective.c   ****         SetDrawBottomButtons("QUIT", "SEND", BUTTON_STYLE_R_GREEN, BUTTON_STYLE_R_BLUE);
 722              		.loc 1 230 0
 723 00a4 1223     		movs	r3, #18
 724 00a6 1122     		movs	r2, #17
 725 00a8 0A49     		ldr	r1, .L56+24
 726 00aa 0B48     		ldr	r0, .L56+28
 727 00ac FFF7FEFF 		bl	SetDrawBottomButtons
 728              	.LVL85:
 729              	.LBE8:
 231:defective.c   ****         bUpdate = FALSE;
 232:defective.c   ****     }
 233:defective.c   ****     return MENU_RETURN_THIS;
 730              		.loc 1 233 0
 731 00b0 0A48     		ldr	r0, .L56+32
 732 00b2 00E0     		b	.L52
 733              	.LVL86:
 734              	.L54:
 735 00b4 0948     		ldr	r0, .L56+32
 736              	.LVL87:
 737              	.L52:
 234:defective.c   **** }
 738              		.loc 1 234 0
 739 00b6 0BB0     		add	sp, sp, #44
 740              		@ sp needed
 741 00b8 30BD     		pop	{r4, r5, pc}
 742              	.L57:
 743 00ba C046     		.align	2
 744              	.L56:
 745 00bc 00000000 		.word	g_DefectiveLists
 746 00c0 00000000 		.word	.LANCHOR0
 747 00c4 00000000 		.word	g_btnBottom
 748 00c8 A8000000 		.word	.LC29
ARM GAS  C:\Users\luvsd\AppData\Local\Temp\ccylFwji.s 			page 19


 749 00cc 00000000 		.word	.LANCHOR1
 750 00d0 FFFF0000 		.word	65535
 751 00d4 B0000000 		.word	.LC32
 752 00d8 A0000000 		.word	.LC24
 753 00dc 01000080 		.word	-2147483647
 754              		.cfi_endproc
 755              	.LFE67:
 756              		.size	doDefectiveRequest, .-doDefectiveRequest
 757              		.comm	g_DefectiveLists,764,4
 758              		.comm	Param,6,4
 759              		.data
 760              		.align	2
 761              		.set	.LANCHOR1,. + 0
 762              		.type	listText.9622, %object
 763              		.size	listText.9622, 4
 764              	listText.9622:
 765 0000 B8000000 		.word	.LC36
 766              		.section	.rodata.str1.4,"aMS",%progbits,1
 767              		.align	2
 768              	.LC1:
 769 0000 6765745F 		.ascii	"get_defectiveList&mac=%s\000"
 769      64656665 
 769      63746976 
 769      654C6973 
 769      74266D61 
 770 0019 000000   		.space	3
 771              	.LC4:
 772 001c 73656E64 		.ascii	"send_defective_warning&mac=%s&defective_idx=%d\000"
 772      5F646566 
 772      65637469 
 772      76655F77 
 772      61726E69 
 773 004b 00       		.space	1
 774              	.LC6:
 775 004c 5761726E 		.ascii	"Warning Index : %d\015\012\000"
 775      696E6720 
 775      496E6465 
 775      78203A20 
 775      25640D0A 
 776 0061 000000   		.space	3
 777              	.LC8:
 778 0064 64656665 		.ascii	"defective_idx\000"
 778      63746976 
 778      655F6964 
 778      7800
 779 0072 0000     		.space	2
 780              	.LC11:
 781 0074 64656665 		.ascii	"defective_name\000"
 781      63746976 
 781      655F6E61 
 781      6D6500
 782 0083 00       		.space	1
 783              	.LC14:
 784 0084 252D3131 		.ascii	"%-11s %2d\000"
 784      73202532 
 784      6400
 785 008e 0000     		.space	2
ARM GAS  C:\Users\luvsd\AppData\Local\Temp\ccylFwji.s 			page 20


 786              	.LC16:
 787 0090 4E455854 		.ascii	"NEXT\000"
 787      00
 788 0095 000000   		.space	3
 789              	.LC18:
 790 0098 46495253 		.ascii	"FIRST\000"
 790      5400
 791 009e 0000     		.space	2
 792              	.LC24:
 793 00a0 51554954 		.ascii	"QUIT\000"
 793      00
 794 00a5 000000   		.space	3
 795              	.LC29:
 796 00a8 25732025 		.ascii	"%s %d\000"
 796      6400
 797 00ae 0000     		.space	2
 798              	.LC32:
 799 00b0 53454E44 		.ascii	"SEND\000"
 799      00
 800 00b5 000000   		.space	3
 801              	.LC36:
 802 00b8 5741524E 		.ascii	"WARNING\000"
 802      494E4700 
 803              		.bss
 804              		.align	2
 805              		.set	.LANCHOR0,. + 0
 806              		.type	page.9586, %object
 807              		.size	page.9586, 2
 808              	page.9586:
 809 0000 0000     		.space	2
 810 0002 0000     		.space	2
 811              		.type	menu.9621, %object
 812              		.size	menu.9621, 776
 813              	menu.9621:
 814 0004 00000000 		.space	776
 814      00000000 
 814      00000000 
 814      00000000 
 814      00000000 
 815              		.text
 816              	.Letext0:
 817              		.file 2 "Generated_Source\\PSoC4/cytypes.h"
 818              		.file 3 "main.h"
 819              		.file 4 "lib/menu.h"
 820              		.file 5 "defective.h"
 821              		.file 6 "lib/WIFI.h"
 822              		.file 7 "lib/UI.h"
 823              		.file 8 "lib/button.h"
 824              		.file 9 "lib/widget.h"
 825              		.file 10 "andonApi.h"
 826              		.file 11 "jsonUtil.h"
 827              		.file 12 "lib/fonts.h"
 828              		.file 13 "Generated_Source\\PSoC4/RTC.h"
 829              		.file 14 "andonMessageQueue.h"
 830              		.file 15 "c:\\program files (x86)\\cypress\\psoc creator\\4.4\\psoc creator\\import\\gnu\\arm\\5.4