ARM GAS  C:\Users\luvsd\AppData\Local\Temp\cc5suZBp.s 			page 1


   1              		.syntax unified
   2              		.cpu cortex-m0
   3              		.fpu softvfp
   4              		.eabi_attribute 20, 1
   5              		.eabi_attribute 21, 1
   6              		.eabi_attribute 23, 3
   7              		.eabi_attribute 24, 1
   8              		.eabi_attribute 25, 1
   9              		.eabi_attribute 26, 1
  10              		.eabi_attribute 30, 1
  11              		.eabi_attribute 34, 0
  12              		.eabi_attribute 18, 4
  13              		.thumb
  14              		.syntax unified
  15              		.file	"FT5x46.c"
  16              		.text
  17              	.Ltext0:
  18              		.cfi_sections	.debug_frame
  19              		.section	.text.TouchReadRegister,"ax",%progbits
  20              		.align	2
  21              		.global	TouchReadRegister
  22              		.code	16
  23              		.thumb_func
  24              		.type	TouchReadRegister, %function
  25              	TouchReadRegister:
  26              	.LFB62:
  27              		.file 1 "lib\\FT5x46.c"
   1:lib/FT5x46.c  **** /*****************************************************************************
   2:lib/FT5x46.c  ****  *
   3:lib/FT5x46.c  ****  * This document contains proprietary information and except with
   4:lib/FT5x46.c  ****  * written permission of Displaytech, Ltd., such information shall
   5:lib/FT5x46.c  ****  * not be published or disclosed to others or used for any purpose
   6:lib/FT5x46.c  ****  * other than for the operation and maintenance of the equipment
   7:lib/FT5x46.c  ****  * and software with which it was procured, and the document shall
   8:lib/FT5x46.c  ****  * not be copied in whole or in part.
   9:lib/FT5x46.c  ****  *
  10:lib/FT5x46.c  ****  * Copyright 2008-2014 Displaytech, Ltd. All Rights Reserved.
  11:lib/FT5x46.c  ****  *
  12:lib/FT5x46.c  ****  *****************************************************************************/
  13:lib/FT5x46.c  **** 
  14:lib/FT5x46.c  **** #include <string.h>
  15:lib/FT5x46.c  **** #include "main.h"
  16:lib/FT5x46.c  **** #include "FT5x46.h"
  17:lib/FT5x46.c  **** 
  18:lib/FT5x46.c  **** uint8_t numTouches = 0;
  19:lib/FT5x46.c  **** uint8_t gesture = 0;
  20:lib/FT5x46.c  **** uint8_t touchActive = 0;
  21:lib/FT5x46.c  **** struct sParamTouch ParamTouch;
  22:lib/FT5x46.c  **** 
  23:lib/FT5x46.c  **** uint8 TouchReadRegister(uint8_t reg, uint8_t *dest, uint8_t len)
  24:lib/FT5x46.c  **** {
  28              		.loc 1 24 0
  29              		.cfi_startproc
  30              		@ args = 0, pretend = 0, frame = 0
  31              		@ frame_needed = 0, uses_anonymous_args = 0
  32              	.LVL0:
  33 0000 F8B5     		push	{r3, r4, r5, r6, r7, lr}
ARM GAS  C:\Users\luvsd\AppData\Local\Temp\cc5suZBp.s 			page 2


  34              		.cfi_def_cfa_offset 24
  35              		.cfi_offset 3, -24
  36              		.cfi_offset 4, -20
  37              		.cfi_offset 5, -16
  38              		.cfi_offset 6, -12
  39              		.cfi_offset 7, -8
  40              		.cfi_offset 14, -4
  41 0002 0400     		movs	r4, r0
  42 0004 0F00     		movs	r7, r1
  43 0006 1600     		movs	r6, r2
  25:lib/FT5x46.c  ****     uint8_t error;
  26:lib/FT5x46.c  ****     uint8_t i;
  27:lib/FT5x46.c  ****     
  28:lib/FT5x46.c  ****     error = I2C_TC_I2CMasterSendStart(TC_I2C_SLAVE_ADDR,0, TC_I2C_READ_TIME);
  44              		.loc 1 28 0
  45 0008 3222     		movs	r2, #50
  46              	.LVL1:
  47 000a 0021     		movs	r1, #0
  48              	.LVL2:
  49 000c 3820     		movs	r0, #56
  50              	.LVL3:
  51 000e FFF7FEFF 		bl	I2C_TC_I2CMasterSendStart
  52              	.LVL4:
  53 0012 C5B2     		uxtb	r5, r0
  54              	.LVL5:
  29:lib/FT5x46.c  ****     if(error == I2C_TC_I2C_MSTR_NO_ERROR) error = I2C_TC_I2CMasterWriteByte(reg, TC_I2C_READ_TIME);
  55              		.loc 1 29 0
  56 0014 002D     		cmp	r5, #0
  57 0016 04D1     		bne	.L2
  58              		.loc 1 29 0 is_stmt 0 discriminator 1
  59 0018 3221     		movs	r1, #50
  60 001a 2000     		movs	r0, r4
  61 001c FFF7FEFF 		bl	I2C_TC_I2CMasterWriteByte
  62              	.LVL6:
  63 0020 C5B2     		uxtb	r5, r0
  64              	.LVL7:
  65              	.L2:
  30:lib/FT5x46.c  ****     if(error == I2C_TC_I2C_MSTR_NO_ERROR) error = I2C_TC_I2CMasterSendRestart(TC_I2C_SLAVE_ADDR,1, 
  66              		.loc 1 30 0 is_stmt 1
  67 0022 002D     		cmp	r5, #0
  68 0024 05D1     		bne	.L3
  69              		.loc 1 30 0 is_stmt 0 discriminator 1
  70 0026 3222     		movs	r2, #50
  71 0028 0121     		movs	r1, #1
  72 002a 3820     		movs	r0, #56
  73 002c FFF7FEFF 		bl	I2C_TC_I2CMasterSendRestart
  74              	.LVL8:
  75 0030 C5B2     		uxtb	r5, r0
  76              	.LVL9:
  77              	.L3:
  31:lib/FT5x46.c  ****     for(i=0; i<len-1;i++)
  78              		.loc 1 31 0 is_stmt 1
  79 0032 0024     		movs	r4, #0
  80 0034 08E0     		b	.L4
  81              	.LVL10:
  82              	.L6:
  32:lib/FT5x46.c  ****     {
ARM GAS  C:\Users\luvsd\AppData\Local\Temp\cc5suZBp.s 			page 3


  33:lib/FT5x46.c  ****         if(error ==  I2C_TC_I2C_MSTR_NO_ERROR) I2C_TC_I2CMasterReadByte(I2C_TC_I2C_ACK_DATA,dest + 
  83              		.loc 1 33 0
  84 0036 002D     		cmp	r5, #0
  85 0038 04D1     		bne	.L5
  86              		.loc 1 33 0 is_stmt 0 discriminator 1
  87 003a 3919     		adds	r1, r7, r4
  88 003c 3222     		movs	r2, #50
  89 003e 0020     		movs	r0, #0
  90 0040 FFF7FEFF 		bl	I2C_TC_I2CMasterReadByte
  91              	.LVL11:
  92              	.L5:
  31:lib/FT5x46.c  ****     for(i=0; i<len-1;i++)
  93              		.loc 1 31 0 is_stmt 1 discriminator 2
  94 0044 0134     		adds	r4, r4, #1
  95              	.LVL12:
  96 0046 E4B2     		uxtb	r4, r4
  97              	.LVL13:
  98              	.L4:
  31:lib/FT5x46.c  ****     for(i=0; i<len-1;i++)
  99              		.loc 1 31 0 is_stmt 0 discriminator 1
 100 0048 731E     		subs	r3, r6, #1
 101 004a 9C42     		cmp	r4, r3
 102 004c F3DB     		blt	.L6
  34:lib/FT5x46.c  ****     }
  35:lib/FT5x46.c  ****     if(error ==  I2C_TC_I2C_MSTR_NO_ERROR) I2C_TC_I2CMasterReadByte(I2C_TC_I2C_NAK_DATA, dest+(i-1)
 103              		.loc 1 35 0 is_stmt 1
 104 004e 002D     		cmp	r5, #0
 105 0050 05D1     		bne	.L7
 106              		.loc 1 35 0 is_stmt 0 discriminator 1
 107 0052 611E     		subs	r1, r4, #1
 108 0054 7918     		adds	r1, r7, r1
 109 0056 3222     		movs	r2, #50
 110 0058 0120     		movs	r0, #1
 111 005a FFF7FEFF 		bl	I2C_TC_I2CMasterReadByte
 112              	.LVL14:
 113              	.L7:
  36:lib/FT5x46.c  ****     
  37:lib/FT5x46.c  ****     I2C_TC_I2CMasterSendStop(TC_I2C_READ_TIME);
 114              		.loc 1 37 0 is_stmt 1
 115 005e 3220     		movs	r0, #50
 116 0060 FFF7FEFF 		bl	I2C_TC_I2CMasterSendStop
 117              	.LVL15:
  38:lib/FT5x46.c  ****     I2C_TC_I2CMasterClearStatus();
 118              		.loc 1 38 0
 119 0064 FFF7FEFF 		bl	I2C_TC_I2CMasterClearStatus
 120              	.LVL16:
  39:lib/FT5x46.c  ****     CyDelayUs(100);
 121              		.loc 1 39 0
 122 0068 6420     		movs	r0, #100
 123 006a FFF7FEFF 		bl	CyDelayUs
 124              	.LVL17:
  40:lib/FT5x46.c  ****     return error;
  41:lib/FT5x46.c  **** }
 125              		.loc 1 41 0
 126 006e 2800     		movs	r0, r5
 127              		@ sp needed
 128              	.LVL18:
ARM GAS  C:\Users\luvsd\AppData\Local\Temp\cc5suZBp.s 			page 4


 129              	.LVL19:
 130              	.LVL20:
 131 0070 F8BD     		pop	{r3, r4, r5, r6, r7, pc}
 132              		.cfi_endproc
 133              	.LFE62:
 134              		.size	TouchReadRegister, .-TouchReadRegister
 135 0072 C046     		.section	.text.byteReverse,"ax",%progbits
 136              		.align	2
 137              		.global	byteReverse
 138              		.code	16
 139              		.thumb_func
 140              		.type	byteReverse, %function
 141              	byteReverse:
 142              	.LFB63:
  42:lib/FT5x46.c  **** 
  43:lib/FT5x46.c  **** void byteReverse(uint8_t* dest, uint8_t* src, uint8_t len)
  44:lib/FT5x46.c  **** {
 143              		.loc 1 44 0
 144              		.cfi_startproc
 145              		@ args = 0, pretend = 0, frame = 0
 146              		@ frame_needed = 0, uses_anonymous_args = 0
 147              		@ link register save eliminated.
 148              	.LVL21:
  45:lib/FT5x46.c  ****     src += (len - 1);
 149              		.loc 1 45 0
 150 0000 531E     		subs	r3, r2, #1
 151 0002 C918     		adds	r1, r1, r3
 152              	.LVL22:
  46:lib/FT5x46.c  **** 
  47:lib/FT5x46.c  ****     while(len--)
 153              		.loc 1 47 0
 154 0004 04E0     		b	.L9
 155              	.LVL23:
 156              	.L10:
  48:lib/FT5x46.c  ****         *dest++ = *src--;
 157              		.loc 1 48 0
 158 0006 0A78     		ldrb	r2, [r1]
 159 0008 0270     		strb	r2, [r0]
  47:lib/FT5x46.c  ****         *dest++ = *src--;
 160              		.loc 1 47 0
 161 000a 1A00     		movs	r2, r3
 162              		.loc 1 48 0
 163 000c 0139     		subs	r1, r1, #1
 164              	.LVL24:
 165 000e 0130     		adds	r0, r0, #1
 166              	.LVL25:
 167              	.L9:
  47:lib/FT5x46.c  ****         *dest++ = *src--;
 168              		.loc 1 47 0
 169 0010 531E     		subs	r3, r2, #1
 170 0012 DBB2     		uxtb	r3, r3
 171              	.LVL26:
 172 0014 002A     		cmp	r2, #0
 173 0016 F6D1     		bne	.L10
  49:lib/FT5x46.c  **** }
 174              		.loc 1 49 0
 175              		@ sp needed
ARM GAS  C:\Users\luvsd\AppData\Local\Temp\cc5suZBp.s 			page 5


 176 0018 7047     		bx	lr
 177              		.cfi_endproc
 178              	.LFE63:
 179              		.size	byteReverse, .-byteReverse
 180 001a C046     		.section	.text.TouchHardwareInit,"ax",%progbits
 181              		.align	2
 182              		.global	TouchHardwareInit
 183              		.code	16
 184              		.thumb_func
 185              		.type	TouchHardwareInit, %function
 186              	TouchHardwareInit:
 187              	.LFB64:
  50:lib/FT5x46.c  **** 
  51:lib/FT5x46.c  **** void TouchHardwareInit(void)
  52:lib/FT5x46.c  **** {
 188              		.loc 1 52 0
 189              		.cfi_startproc
 190              		@ args = 0, pretend = 0, frame = 0
 191              		@ frame_needed = 0, uses_anonymous_args = 0
 192 0000 10B5     		push	{r4, lr}
 193              		.cfi_def_cfa_offset 8
 194              		.cfi_offset 4, -8
 195              		.cfi_offset 14, -4
  53:lib/FT5x46.c  ****     //Reset the device
  54:lib/FT5x46.c  ****     TC_RESET_Write(0);
 196              		.loc 1 54 0
 197 0002 0020     		movs	r0, #0
 198 0004 FFF7FEFF 		bl	TC_RESET_Write
 199              	.LVL27:
  55:lib/FT5x46.c  ****     CyDelay(10);
 200              		.loc 1 55 0
 201 0008 0A20     		movs	r0, #10
 202 000a FFF7FEFF 		bl	CyDelay
 203              	.LVL28:
  56:lib/FT5x46.c  ****     TC_RESET_Write(1);
 204              		.loc 1 56 0
 205 000e 0120     		movs	r0, #1
 206 0010 FFF7FEFF 		bl	TC_RESET_Write
 207              	.LVL29:
  57:lib/FT5x46.c  ****     CyDelay(500);
 208              		.loc 1 57 0
 209 0014 FA20     		movs	r0, #250
 210 0016 4000     		lsls	r0, r0, #1
 211 0018 FFF7FEFF 		bl	CyDelay
 212              	.LVL30:
  58:lib/FT5x46.c  **** }
 213              		.loc 1 58 0
 214              		@ sp needed
 215 001c 10BD     		pop	{r4, pc}
 216              		.cfi_endproc
 217              	.LFE64:
 218              		.size	TouchHardwareInit, .-TouchHardwareInit
 219 001e C046     		.section	.text.TouchPos,"ax",%progbits
 220              		.align	2
 221              		.global	TouchPos
 222              		.code	16
 223              		.thumb_func
ARM GAS  C:\Users\luvsd\AppData\Local\Temp\cc5suZBp.s 			page 6


 224              		.type	TouchPos, %function
 225              	TouchPos:
 226              	.LFB65:
  59:lib/FT5x46.c  **** 
  60:lib/FT5x46.c  **** 
  61:lib/FT5x46.c  **** void TouchPos(uint8_t* data, uint8_t touch_num)
  62:lib/FT5x46.c  **** {
 227              		.loc 1 62 0
 228              		.cfi_startproc
 229              		@ args = 0, pretend = 0, frame = 0
 230              		@ frame_needed = 0, uses_anonymous_args = 0
 231              	.LVL31:
 232 0000 30B5     		push	{r4, r5, lr}
 233              		.cfi_def_cfa_offset 12
 234              		.cfi_offset 4, -12
 235              		.cfi_offset 5, -8
 236              		.cfi_offset 14, -4
  63:lib/FT5x46.c  ****     uint16_t pos;
  64:lib/FT5x46.c  ****    // char stBuf[100];
  65:lib/FT5x46.c  ****   //DEBUG_printf("5");    
  66:lib/FT5x46.c  ****     if((data[0] & 0x80) && ((data[2] & 0xF0) == (touch_num << 4)))
 237              		.loc 1 66 0
 238 0002 0378     		ldrb	r3, [r0]
 239 0004 5AB2     		sxtb	r2, r3
 240 0006 002A     		cmp	r2, #0
 241 0008 1BDA     		bge	.L12
 242              		.loc 1 66 0 is_stmt 0 discriminator 1
 243 000a 8278     		ldrb	r2, [r0, #2]
 244 000c 0F24     		movs	r4, #15
 245 000e A243     		bics	r2, r4
 246 0010 0C01     		lsls	r4, r1, #4
 247 0012 A242     		cmp	r2, r4
 248 0014 15D1     		bne	.L12
  67:lib/FT5x46.c  ****     {     
  68:lib/FT5x46.c  ****         pos  = (data[0] & 0x0F) << 8;
 249              		.loc 1 68 0 is_stmt 1
 250 0016 1B02     		lsls	r3, r3, #8
 251 0018 F022     		movs	r2, #240
 252 001a 1201     		lsls	r2, r2, #4
 253 001c 1340     		ands	r3, r2
 254              	.LVL32:
  69:lib/FT5x46.c  ****         pos += data[1];    
 255              		.loc 1 69 0
 256 001e 4478     		ldrb	r4, [r0, #1]
 257 0020 1B19     		adds	r3, r3, r4
 258              	.LVL33:
  70:lib/FT5x46.c  ****         ParamTouch.x[touch_num] = pos;
 259              		.loc 1 70 0
 260 0022 084D     		ldr	r5, .L14
 261 0024 4C00     		lsls	r4, r1, #1
 262 0026 2C19     		adds	r4, r5, r4
 263 0028 6380     		strh	r3, [r4, #2]
  71:lib/FT5x46.c  ****         
  72:lib/FT5x46.c  ****         pos  = (data[2] & 0x0F) << 8;
 264              		.loc 1 72 0
 265 002a 8378     		ldrb	r3, [r0, #2]
 266              	.LVL34:
ARM GAS  C:\Users\luvsd\AppData\Local\Temp\cc5suZBp.s 			page 7


 267 002c 1B02     		lsls	r3, r3, #8
 268 002e 1A40     		ands	r2, r3
 269              	.LVL35:
  73:lib/FT5x46.c  ****         pos += data[3];    
 270              		.loc 1 73 0
 271 0030 C378     		ldrb	r3, [r0, #3]
 272 0032 D218     		adds	r2, r2, r3
 273              	.LVL36:
  74:lib/FT5x46.c  ****         ParamTouch.y[touch_num] = pos;
 274              		.loc 1 74 0
 275 0034 0431     		adds	r1, r1, #4
 276              	.LVL37:
 277 0036 4900     		lsls	r1, r1, #1
 278 0038 6918     		adds	r1, r5, r1
 279 003a 8A80     		strh	r2, [r1, #4]
  75:lib/FT5x46.c  ****         
  76:lib/FT5x46.c  ****         touchActive = 1;
 280              		.loc 1 76 0
 281 003c 0122     		movs	r2, #1
 282              	.LVL38:
 283 003e 024B     		ldr	r3, .L14+4
 284 0040 1A70     		strb	r2, [r3]
 285              	.LVL39:
 286              	.L12:
  77:lib/FT5x46.c  ****       //  sprintf(stBuf,"Touch %i X: %i, Y: %i \r\n",touch_num, ParamTouch.x[touch_num], ParamTouch
  78:lib/FT5x46.c  ****       //  UART_UartPutString(stBuf);
  79:lib/FT5x46.c  ****     }
  80:lib/FT5x46.c  ****     else
  81:lib/FT5x46.c  ****     {
  82:lib/FT5x46.c  ****       //  DEBUG_printf("Touch Error \r\n");
  83:lib/FT5x46.c  ****     }
  84:lib/FT5x46.c  **** }
 287              		.loc 1 84 0
 288              		@ sp needed
 289 0042 30BD     		pop	{r4, r5, pc}
 290              	.L15:
 291              		.align	2
 292              	.L14:
 293 0044 00000000 		.word	ParamTouch
 294 0048 00000000 		.word	.LANCHOR0
 295              		.cfi_endproc
 296              	.LFE65:
 297              		.size	TouchPos, .-TouchPos
 298              		.section	.text.TouchGetPosition,"ax",%progbits
 299              		.align	2
 300              		.global	TouchGetPosition
 301              		.code	16
 302              		.thumb_func
 303              		.type	TouchGetPosition, %function
 304              	TouchGetPosition:
 305              	.LFB66:
  85:lib/FT5x46.c  **** 
  86:lib/FT5x46.c  **** void TouchGetPosition(void)
  87:lib/FT5x46.c  **** {
 306              		.loc 1 87 0
 307              		.cfi_startproc
 308              		@ args = 0, pretend = 0, frame = 16
ARM GAS  C:\Users\luvsd\AppData\Local\Temp\cc5suZBp.s 			page 8


 309              		@ frame_needed = 0, uses_anonymous_args = 0
 310 0000 10B5     		push	{r4, lr}
 311              		.cfi_def_cfa_offset 8
 312              		.cfi_offset 4, -8
 313              		.cfi_offset 14, -4
 314 0002 84B0     		sub	sp, sp, #16
 315              		.cfi_def_cfa_offset 24
  88:lib/FT5x46.c  ****     uint8 error;
  89:lib/FT5x46.c  ****     uint8_t i;
  90:lib/FT5x46.c  ****     uint8_t rBuf[10];
  91:lib/FT5x46.c  ****     
  92:lib/FT5x46.c  ****     error = TouchReadRegister(FT5X46_REG_DEVICE_MODE, rBuf, 9);
 316              		.loc 1 92 0
 317 0004 0922     		movs	r2, #9
 318 0006 01A9     		add	r1, sp, #4
 319 0008 0020     		movs	r0, #0
 320 000a FFF7FEFF 		bl	TouchReadRegister
 321              	.LVL40:
  93:lib/FT5x46.c  ****     if(error == I2C_TC_I2C_MSTR_NO_ERROR)
 322              		.loc 1 93 0
 323 000e 0028     		cmp	r0, #0
 324 0010 21D1     		bne	.L16
  94:lib/FT5x46.c  ****     {
  95:lib/FT5x46.c  ****         if(rBuf[FT5X46_REG_DEVICE_MODE] == 0x00)
 325              		.loc 1 95 0
 326 0012 01AB     		add	r3, sp, #4
 327 0014 1B78     		ldrb	r3, [r3]
 328 0016 002B     		cmp	r3, #0
 329 0018 1DD1     		bne	.L16
  96:lib/FT5x46.c  ****         {
  97:lib/FT5x46.c  ****             numTouches = rBuf[FT5X46_REG_TD_STATUS];
 330              		.loc 1 97 0
 331 001a 01AB     		add	r3, sp, #4
 332 001c 9B78     		ldrb	r3, [r3, #2]
 333 001e 0F4A     		ldr	r2, .L21
 334 0020 5370     		strb	r3, [r2, #1]
  98:lib/FT5x46.c  ****             
  99:lib/FT5x46.c  ****             if((numTouches > 0) && (numTouches <= MAX_TOUCHES))
 335              		.loc 1 99 0
 336 0022 013B     		subs	r3, r3, #1
 337 0024 DBB2     		uxtb	r3, r3
 338 0026 042B     		cmp	r3, #4
 339 0028 10D9     		bls	.L20
 340 002a 14E0     		b	.L16
 341              	.LVL41:
 342              	.L19:
 100:lib/FT5x46.c  ****             {
 101:lib/FT5x46.c  ****                 for( i = 0; i < numTouches; i++)
 102:lib/FT5x46.c  ****                 {
 103:lib/FT5x46.c  ****                     TouchReadRegister(FT5X46_REG_XH_POS + FT5X46_TOUCH_LENGTH*i, rBuf, 6);
 343              		.loc 1 103 0 discriminator 3
 344 002c 6300     		lsls	r3, r4, #1
 345 002e E318     		adds	r3, r4, r3
 346 0030 5800     		lsls	r0, r3, #1
 347 0032 0330     		adds	r0, r0, #3
 348 0034 C0B2     		uxtb	r0, r0
 349 0036 0622     		movs	r2, #6
ARM GAS  C:\Users\luvsd\AppData\Local\Temp\cc5suZBp.s 			page 9


 350 0038 01A9     		add	r1, sp, #4
 351 003a FFF7FEFF 		bl	TouchReadRegister
 352              	.LVL42:
 104:lib/FT5x46.c  ****                     
 105:lib/FT5x46.c  ****                     TouchPos(rBuf, i);      
 353              		.loc 1 105 0 discriminator 3
 354 003e 2100     		movs	r1, r4
 355 0040 01A8     		add	r0, sp, #4
 356 0042 FFF7FEFF 		bl	TouchPos
 357              	.LVL43:
 101:lib/FT5x46.c  ****                 {
 358              		.loc 1 101 0 discriminator 3
 359 0046 0134     		adds	r4, r4, #1
 360              	.LVL44:
 361 0048 E4B2     		uxtb	r4, r4
 362              	.LVL45:
 363 004a 00E0     		b	.L18
 364              	.LVL46:
 365              	.L20:
 366 004c 0024     		movs	r4, #0
 367              	.LVL47:
 368              	.L18:
 101:lib/FT5x46.c  ****                 {
 369              		.loc 1 101 0 is_stmt 0 discriminator 1
 370 004e 034B     		ldr	r3, .L21
 371 0050 5B78     		ldrb	r3, [r3, #1]
 372 0052 9C42     		cmp	r4, r3
 373 0054 EAD3     		bcc	.L19
 374              	.LVL48:
 375              	.L16:
 106:lib/FT5x46.c  ****                 }
 107:lib/FT5x46.c  ****             }            
 108:lib/FT5x46.c  ****         }
 109:lib/FT5x46.c  ****     }
 110:lib/FT5x46.c  ****     return;
 111:lib/FT5x46.c  **** }
 376              		.loc 1 111 0 is_stmt 1
 377 0056 04B0     		add	sp, sp, #16
 378              		@ sp needed
 379 0058 10BD     		pop	{r4, pc}
 380              	.L22:
 381 005a C046     		.align	2
 382              	.L21:
 383 005c 00000000 		.word	.LANCHOR0
 384              		.cfi_endproc
 385              	.LFE66:
 386              		.size	TouchGetPosition, .-TouchGetPosition
 387              		.section	.text.TouchStoreCalibration,"ax",%progbits
 388              		.align	2
 389              		.global	TouchStoreCalibration
 390              		.code	16
 391              		.thumb_func
 392              		.type	TouchStoreCalibration, %function
 393              	TouchStoreCalibration:
 394              	.LFB67:
 112:lib/FT5x46.c  **** 
 113:lib/FT5x46.c  **** uint16_t mchpTouchScreenVersion = 0x0000;
ARM GAS  C:\Users\luvsd\AppData\Local\Temp\cc5suZBp.s 			page 10


 114:lib/FT5x46.c  **** void TouchStoreCalibration(void) { return; }
 395              		.loc 1 114 0
 396              		.cfi_startproc
 397              		@ args = 0, pretend = 0, frame = 0
 398              		@ frame_needed = 0, uses_anonymous_args = 0
 399              		@ link register save eliminated.
 400              		.loc 1 114 0
 401              		@ sp needed
 402 0000 7047     		bx	lr
 403              		.cfi_endproc
 404              	.LFE67:
 405              		.size	TouchStoreCalibration, .-TouchStoreCalibration
 406 0002 C046     		.section	.text.TouchLoadCalibration,"ax",%progbits
 407              		.align	2
 408              		.global	TouchLoadCalibration
 409              		.code	16
 410              		.thumb_func
 411              		.type	TouchLoadCalibration, %function
 412              	TouchLoadCalibration:
 413              	.LFB68:
 115:lib/FT5x46.c  **** void TouchLoadCalibration(void)  { return; }
 414              		.loc 1 115 0
 415              		.cfi_startproc
 416              		@ args = 0, pretend = 0, frame = 0
 417              		@ frame_needed = 0, uses_anonymous_args = 0
 418              		@ link register save eliminated.
 419              		.loc 1 115 0
 420              		@ sp needed
 421 0000 7047     		bx	lr
 422              		.cfi_endproc
 423              	.LFE68:
 424              		.size	TouchLoadCalibration, .-TouchLoadCalibration
 425 0002 C046     		.section	.text.TouchCalHWGetPoints,"ax",%progbits
 426              		.align	2
 427              		.global	TouchCalHWGetPoints
 428              		.code	16
 429              		.thumb_func
 430              		.type	TouchCalHWGetPoints, %function
 431              	TouchCalHWGetPoints:
 432              	.LFB69:
 116:lib/FT5x46.c  **** void TouchCalHWGetPoints(void) { return; }
 433              		.loc 1 116 0
 434              		.cfi_startproc
 435              		@ args = 0, pretend = 0, frame = 0
 436              		@ frame_needed = 0, uses_anonymous_args = 0
 437              		@ link register save eliminated.
 438              		.loc 1 116 0
 439              		@ sp needed
 440 0000 7047     		bx	lr
 441              		.cfi_endproc
 442              	.LFE69:
 443              		.size	TouchCalHWGetPoints, .-TouchCalHWGetPoints
 444              		.global	mchpTouchScreenVersion
 445              		.comm	ParamTouch,22,4
 446              		.global	touchActive
 447              		.global	gesture
 448              		.global	numTouches
ARM GAS  C:\Users\luvsd\AppData\Local\Temp\cc5suZBp.s 			page 11


 449              		.comm	Param,6,4
 450 0002 C046     		.bss
 451              		.align	1
 452              		.set	.LANCHOR0,. + 0
 453              		.type	touchActive, %object
 454              		.size	touchActive, 1
 455              	touchActive:
 456 0000 00       		.space	1
 457              		.type	numTouches, %object
 458              		.size	numTouches, 1
 459              	numTouches:
 460 0001 00       		.space	1
 461              		.type	mchpTouchScreenVersion, %object
 462              		.size	mchpTouchScreenVersion, 2
 463              	mchpTouchScreenVersion:
 464 0002 0000     		.space	2
 465              		.type	gesture, %object
 466              		.size	gesture, 1
 467              	gesture:
 468 0004 00       		.space	1
 469              		.text
 470              	.Letext0:
 471              		.file 2 "c:\\program files (x86)\\cypress\\psoc creator\\4.4\\psoc creator\\import\\gnu\\arm\\5.4.
 472              		.file 3 "c:\\program files (x86)\\cypress\\psoc creator\\4.4\\psoc creator\\import\\gnu\\arm\\5.4.
 473              		.file 4 "Generated_Source\\PSoC4/cytypes.h"
 474              		.file 5 "./main.h"
 475              		.file 6 "lib\\FT5x46.h"
 476              		.file 7 "Generated_Source\\PSoC4/RTC.h"
 477              		.file 8 "Generated_Source\\PSoC4/I2C_TC_I2C.h"
 478              		.file 9 "Generated_Source\\PSoC4/CyLib.h"
 479              		.file 10 "Generated_Source\\PSoC4/TC_RESET.h"