ARM GAS  C:\Users\theGu\AppData\Local\Temp\ccrdky73.s 			page 1


   1              		.syntax unified
   2              		.cpu cortex-m0
   3              		.fpu softvfp
   4              		.eabi_attribute 20, 1
   5              		.eabi_attribute 21, 1
   6              		.eabi_attribute 23, 3
   7              		.eabi_attribute 24, 1
   8              		.eabi_attribute 25, 1
   9              		.eabi_attribute 26, 1
  10              		.eabi_attribute 30, 1
  11              		.eabi_attribute 34, 0
  12              		.eabi_attribute 18, 4
  13              		.thumb
  14              		.syntax unified
  15              		.file	"JSONParser.c"
  16              		.text
  17              	.Ltext0:
  18              		.cfi_sections	.debug_frame
  19              		.section	.text.jsmn_alloc_token,"ax",%progbits
  20              		.align	2
  21              		.code	16
  22              		.thumb_func
  23              		.type	jsmn_alloc_token, %function
  24              	jsmn_alloc_token:
  25              	.LFB61:
  26              		.file 1 "jsmn-master/jsmn.h"
   1:jsmn-master/jsmn.h **** /*
   2:jsmn-master/jsmn.h ****  * MIT License
   3:jsmn-master/jsmn.h ****  *
   4:jsmn-master/jsmn.h ****  * Copyright (c) 2010 Serge Zaitsev
   5:jsmn-master/jsmn.h ****  *
   6:jsmn-master/jsmn.h ****  * Permission is hereby granted, free of charge, to any person obtaining a copy
   7:jsmn-master/jsmn.h ****  * of this software and associated documentation files (the "Software"), to deal
   8:jsmn-master/jsmn.h ****  * in the Software without restriction, including without limitation the rights
   9:jsmn-master/jsmn.h ****  * to use, copy, modify, merge, publish, distribute, sublicense, and/or sell
  10:jsmn-master/jsmn.h ****  * copies of the Software, and to permit persons to whom the Software is
  11:jsmn-master/jsmn.h ****  * furnished to do so, subject to the following conditions:
  12:jsmn-master/jsmn.h ****  *
  13:jsmn-master/jsmn.h ****  * The above copyright notice and this permission notice shall be included in
  14:jsmn-master/jsmn.h ****  * all copies or substantial portions of the Software.
  15:jsmn-master/jsmn.h ****  *
  16:jsmn-master/jsmn.h ****  * THE SOFTWARE IS PROVIDED "AS IS", WITHOUT WARRANTY OF ANY KIND, EXPRESS OR
  17:jsmn-master/jsmn.h ****  * IMPLIED, INCLUDING BUT NOT LIMITED TO THE WARRANTIES OF MERCHANTABILITY,
  18:jsmn-master/jsmn.h ****  * FITNESS FOR A PARTICULAR PURPOSE AND NONINFRINGEMENT. IN NO EVENT SHALL THE
  19:jsmn-master/jsmn.h ****  * AUTHORS OR COPYRIGHT HOLDERS BE LIABLE FOR ANY CLAIM, DAMAGES OR OTHER
  20:jsmn-master/jsmn.h ****  * LIABILITY, WHETHER IN AN ACTION OF CONTRACT, TORT OR OTHERWISE, ARISING FROM,
  21:jsmn-master/jsmn.h ****  * OUT OF OR IN CONNECTION WITH THE SOFTWARE OR THE USE OR OTHER DEALINGS IN THE
  22:jsmn-master/jsmn.h ****  * SOFTWARE.
  23:jsmn-master/jsmn.h ****  */
  24:jsmn-master/jsmn.h **** #ifndef JSMN_H
  25:jsmn-master/jsmn.h **** #define JSMN_H
  26:jsmn-master/jsmn.h **** 
  27:jsmn-master/jsmn.h **** #include <stddef.h>
  28:jsmn-master/jsmn.h **** 
  29:jsmn-master/jsmn.h **** #ifdef __cplusplus
  30:jsmn-master/jsmn.h **** extern "C" {
  31:jsmn-master/jsmn.h **** #endif
ARM GAS  C:\Users\theGu\AppData\Local\Temp\ccrdky73.s 			page 2


  32:jsmn-master/jsmn.h **** 
  33:jsmn-master/jsmn.h **** #ifdef JSMN_STATIC
  34:jsmn-master/jsmn.h **** #define JSMN_API static
  35:jsmn-master/jsmn.h **** #else
  36:jsmn-master/jsmn.h **** #define JSMN_API extern
  37:jsmn-master/jsmn.h **** #endif
  38:jsmn-master/jsmn.h **** 
  39:jsmn-master/jsmn.h **** /**
  40:jsmn-master/jsmn.h ****  * JSON type identifier. Basic types are:
  41:jsmn-master/jsmn.h ****  * 	o Object
  42:jsmn-master/jsmn.h ****  * 	o Array
  43:jsmn-master/jsmn.h ****  * 	o String
  44:jsmn-master/jsmn.h ****  * 	o Other primitive: number, boolean (true/false) or null
  45:jsmn-master/jsmn.h ****  */
  46:jsmn-master/jsmn.h **** typedef enum {
  47:jsmn-master/jsmn.h ****   JSMN_UNDEFINED = 0,
  48:jsmn-master/jsmn.h ****   JSMN_OBJECT = 1,
  49:jsmn-master/jsmn.h ****   JSMN_ARRAY = 2,
  50:jsmn-master/jsmn.h ****   JSMN_STRING = 3,
  51:jsmn-master/jsmn.h ****   JSMN_PRIMITIVE = 4
  52:jsmn-master/jsmn.h **** } jsmntype_t;
  53:jsmn-master/jsmn.h **** 
  54:jsmn-master/jsmn.h **** enum jsmnerr {
  55:jsmn-master/jsmn.h ****   /* Not enough tokens were provided */
  56:jsmn-master/jsmn.h ****   JSMN_ERROR_NOMEM = -1,
  57:jsmn-master/jsmn.h ****   /* Invalid character inside JSON string */
  58:jsmn-master/jsmn.h ****   JSMN_ERROR_INVAL = -2,
  59:jsmn-master/jsmn.h ****   /* The string is not a full JSON packet, more bytes expected */
  60:jsmn-master/jsmn.h ****   JSMN_ERROR_PART = -3
  61:jsmn-master/jsmn.h **** };
  62:jsmn-master/jsmn.h **** 
  63:jsmn-master/jsmn.h **** /**
  64:jsmn-master/jsmn.h ****  * JSON token description.
  65:jsmn-master/jsmn.h ****  * type		type (object, array, string etc.)
  66:jsmn-master/jsmn.h ****  * start	start position in JSON data string
  67:jsmn-master/jsmn.h ****  * end		end position in JSON data string
  68:jsmn-master/jsmn.h ****  */
  69:jsmn-master/jsmn.h **** typedef struct jsmntok {
  70:jsmn-master/jsmn.h ****   jsmntype_t type;
  71:jsmn-master/jsmn.h ****   int start;
  72:jsmn-master/jsmn.h ****   int end;
  73:jsmn-master/jsmn.h ****   int size;
  74:jsmn-master/jsmn.h **** #ifdef JSMN_PARENT_LINKS
  75:jsmn-master/jsmn.h ****   int parent;
  76:jsmn-master/jsmn.h **** #endif
  77:jsmn-master/jsmn.h **** } jsmntok_t;
  78:jsmn-master/jsmn.h **** 
  79:jsmn-master/jsmn.h **** /**
  80:jsmn-master/jsmn.h ****  * JSON parser. Contains an array of token blocks available. Also stores
  81:jsmn-master/jsmn.h ****  * the string being parsed now and current position in that string.
  82:jsmn-master/jsmn.h ****  */
  83:jsmn-master/jsmn.h **** typedef struct jsmn_parser {
  84:jsmn-master/jsmn.h ****   unsigned int pos;     /* offset in the JSON string */
  85:jsmn-master/jsmn.h ****   unsigned int toknext; /* next token to allocate */
  86:jsmn-master/jsmn.h ****   int toksuper;         /* superior token node, e.g. parent object or array */
  87:jsmn-master/jsmn.h **** } jsmn_parser;
  88:jsmn-master/jsmn.h **** 
ARM GAS  C:\Users\theGu\AppData\Local\Temp\ccrdky73.s 			page 3


  89:jsmn-master/jsmn.h **** /**
  90:jsmn-master/jsmn.h ****  * Create JSON parser over an array of tokens
  91:jsmn-master/jsmn.h ****  */
  92:jsmn-master/jsmn.h **** JSMN_API void jsmn_init(jsmn_parser *parser);
  93:jsmn-master/jsmn.h **** 
  94:jsmn-master/jsmn.h **** /**
  95:jsmn-master/jsmn.h ****  * Run JSON parser. It parses a JSON data string into and array of tokens, each
  96:jsmn-master/jsmn.h ****  * describing
  97:jsmn-master/jsmn.h ****  * a single JSON object.
  98:jsmn-master/jsmn.h ****  */
  99:jsmn-master/jsmn.h **** JSMN_API int jsmn_parse(jsmn_parser *parser, const char *js, const size_t len,
 100:jsmn-master/jsmn.h ****                         jsmntok_t *tokens, const unsigned int num_tokens);
 101:jsmn-master/jsmn.h **** 
 102:jsmn-master/jsmn.h **** #ifndef JSMN_HEADER
 103:jsmn-master/jsmn.h **** /**
 104:jsmn-master/jsmn.h ****  * Allocates a fresh unused token from the token pool.
 105:jsmn-master/jsmn.h ****  */
 106:jsmn-master/jsmn.h **** static jsmntok_t *jsmn_alloc_token(jsmn_parser *parser, jsmntok_t *tokens,
 107:jsmn-master/jsmn.h ****                                    const size_t num_tokens) {
  27              		.loc 1 107 0
  28              		.cfi_startproc
  29              		@ args = 0, pretend = 0, frame = 0
  30              		@ frame_needed = 0, uses_anonymous_args = 0
  31              		@ link register save eliminated.
  32              	.LVL0:
 108:jsmn-master/jsmn.h ****   jsmntok_t *tok;
 109:jsmn-master/jsmn.h ****   if (parser->toknext >= num_tokens) {
  33              		.loc 1 109 0
  34 0000 4368     		ldr	r3, [r0, #4]
  35 0002 9342     		cmp	r3, r2
  36 0004 0BD2     		bcs	.L3
 110:jsmn-master/jsmn.h ****     return NULL;
 111:jsmn-master/jsmn.h ****   }
 112:jsmn-master/jsmn.h ****   tok = &tokens[parser->toknext++];
  37              		.loc 1 112 0
  38 0006 5A1C     		adds	r2, r3, #1
  39              	.LVL1:
  40 0008 4260     		str	r2, [r0, #4]
  41 000a 1B01     		lsls	r3, r3, #4
  42 000c C918     		adds	r1, r1, r3
  43              	.LVL2:
 113:jsmn-master/jsmn.h ****   tok->start = tok->end = -1;
  44              		.loc 1 113 0
  45 000e 0123     		movs	r3, #1
  46 0010 5B42     		rsbs	r3, r3, #0
  47 0012 8B60     		str	r3, [r1, #8]
  48 0014 4B60     		str	r3, [r1, #4]
 114:jsmn-master/jsmn.h ****   tok->size = 0;
  49              		.loc 1 114 0
  50 0016 0023     		movs	r3, #0
  51 0018 CB60     		str	r3, [r1, #12]
 115:jsmn-master/jsmn.h **** #ifdef JSMN_PARENT_LINKS
 116:jsmn-master/jsmn.h ****   tok->parent = -1;
 117:jsmn-master/jsmn.h **** #endif
 118:jsmn-master/jsmn.h ****   return tok;
  52              		.loc 1 118 0
  53 001a 0800     		movs	r0, r1
ARM GAS  C:\Users\theGu\AppData\Local\Temp\ccrdky73.s 			page 4


  54              	.LVL3:
  55 001c 00E0     		b	.L2
  56              	.LVL4:
  57              	.L3:
 110:jsmn-master/jsmn.h ****   }
  58              		.loc 1 110 0
  59 001e 0020     		movs	r0, #0
  60              	.LVL5:
  61              	.L2:
 119:jsmn-master/jsmn.h **** }
  62              		.loc 1 119 0
  63              		@ sp needed
  64 0020 7047     		bx	lr
  65              		.cfi_endproc
  66              	.LFE61:
  67              		.size	jsmn_alloc_token, .-jsmn_alloc_token
  68 0022 C046     		.section	.text.jsmn_fill_token,"ax",%progbits
  69              		.align	2
  70              		.code	16
  71              		.thumb_func
  72              		.type	jsmn_fill_token, %function
  73              	jsmn_fill_token:
  74              	.LFB62:
 120:jsmn-master/jsmn.h **** 
 121:jsmn-master/jsmn.h **** /**
 122:jsmn-master/jsmn.h ****  * Fills token type and boundaries.
 123:jsmn-master/jsmn.h ****  */
 124:jsmn-master/jsmn.h **** static void jsmn_fill_token(jsmntok_t *token, const jsmntype_t type,
 125:jsmn-master/jsmn.h ****                             const int start, const int end) {
  75              		.loc 1 125 0
  76              		.cfi_startproc
  77              		@ args = 0, pretend = 0, frame = 0
  78              		@ frame_needed = 0, uses_anonymous_args = 0
  79              		@ link register save eliminated.
  80              	.LVL6:
 126:jsmn-master/jsmn.h ****   token->type = type;
  81              		.loc 1 126 0
  82 0000 0170     		strb	r1, [r0]
 127:jsmn-master/jsmn.h ****   token->start = start;
  83              		.loc 1 127 0
  84 0002 4260     		str	r2, [r0, #4]
 128:jsmn-master/jsmn.h ****   token->end = end;
  85              		.loc 1 128 0
  86 0004 8360     		str	r3, [r0, #8]
 129:jsmn-master/jsmn.h ****   token->size = 0;
  87              		.loc 1 129 0
  88 0006 0023     		movs	r3, #0
  89              	.LVL7:
  90 0008 C360     		str	r3, [r0, #12]
 130:jsmn-master/jsmn.h **** }
  91              		.loc 1 130 0
  92              		@ sp needed
  93 000a 7047     		bx	lr
  94              		.cfi_endproc
  95              	.LFE62:
  96              		.size	jsmn_fill_token, .-jsmn_fill_token
  97              		.section	.text.jsmn_parse_primitive,"ax",%progbits
ARM GAS  C:\Users\theGu\AppData\Local\Temp\ccrdky73.s 			page 5


  98              		.align	2
  99              		.code	16
 100              		.thumb_func
 101              		.type	jsmn_parse_primitive, %function
 102              	jsmn_parse_primitive:
 103              	.LFB63:
 131:jsmn-master/jsmn.h **** 
 132:jsmn-master/jsmn.h **** /**
 133:jsmn-master/jsmn.h ****  * Fills next available token with JSON primitive.
 134:jsmn-master/jsmn.h ****  */
 135:jsmn-master/jsmn.h **** static int jsmn_parse_primitive(jsmn_parser *parser, const char *js,
 136:jsmn-master/jsmn.h ****                                 const size_t len, jsmntok_t *tokens,
 137:jsmn-master/jsmn.h ****                                 const size_t num_tokens) {
 104              		.loc 1 137 0
 105              		.cfi_startproc
 106              		@ args = 4, pretend = 0, frame = 0
 107              		@ frame_needed = 0, uses_anonymous_args = 0
 108              	.LVL8:
 109 0000 70B5     		push	{r4, r5, r6, lr}
 110              		.cfi_def_cfa_offset 16
 111              		.cfi_offset 4, -16
 112              		.cfi_offset 5, -12
 113              		.cfi_offset 6, -8
 114              		.cfi_offset 14, -4
 115 0002 0500     		movs	r5, r0
 138:jsmn-master/jsmn.h ****   jsmntok_t *token;
 139:jsmn-master/jsmn.h ****   int start;
 140:jsmn-master/jsmn.h **** 
 141:jsmn-master/jsmn.h ****   start = parser->pos;
 116              		.loc 1 141 0
 117 0004 0668     		ldr	r6, [r0]
 118              	.LVL9:
 142:jsmn-master/jsmn.h **** 
 143:jsmn-master/jsmn.h ****   for (; parser->pos < len && js[parser->pos] != '\0'; parser->pos++) {
 119              		.loc 1 143 0
 120 0006 1DE0     		b	.L6
 121              	.LVL10:
 122              	.L13:
 144:jsmn-master/jsmn.h ****     switch (js[parser->pos]) {
 123              		.loc 1 144 0
 124 0008 2028     		cmp	r0, #32
 125 000a 21D0     		beq	.L8
 126 000c 06D8     		bhi	.L9
 127 000e 0928     		cmp	r0, #9
 128 0010 0ED3     		bcc	.L7
 129 0012 0A28     		cmp	r0, #10
 130 0014 1CD9     		bls	.L8
 131 0016 0D28     		cmp	r0, #13
 132 0018 0AD1     		bne	.L7
 133 001a 19E0     		b	.L8
 134              	.L9:
 135 001c 3A28     		cmp	r0, #58
 136 001e 17D0     		beq	.L8
 137 0020 02D8     		bhi	.L10
 138 0022 2C28     		cmp	r0, #44
 139 0024 04D1     		bne	.L7
 140 0026 13E0     		b	.L8
ARM GAS  C:\Users\theGu\AppData\Local\Temp\ccrdky73.s 			page 6


 141              	.L10:
 142 0028 5D28     		cmp	r0, #93
 143 002a 11D0     		beq	.L8
 144 002c 7D28     		cmp	r0, #125
 145 002e 0FD0     		beq	.L8
 146              	.L7:
 145:jsmn-master/jsmn.h **** #ifndef JSMN_STRICT
 146:jsmn-master/jsmn.h ****     /* In strict mode primitive must be followed by "," or "}" or "]" */
 147:jsmn-master/jsmn.h ****     case ':':
 148:jsmn-master/jsmn.h **** #endif
 149:jsmn-master/jsmn.h ****     case '\t':
 150:jsmn-master/jsmn.h ****     case '\r':
 151:jsmn-master/jsmn.h ****     case '\n':
 152:jsmn-master/jsmn.h ****     case ' ':
 153:jsmn-master/jsmn.h ****     case ',':
 154:jsmn-master/jsmn.h ****     case ']':
 155:jsmn-master/jsmn.h ****     case '}':
 156:jsmn-master/jsmn.h ****       goto found;
 157:jsmn-master/jsmn.h ****     default:
 158:jsmn-master/jsmn.h ****                    /* to quiet a warning from gcc*/
 159:jsmn-master/jsmn.h ****       break;
 160:jsmn-master/jsmn.h ****     }
 161:jsmn-master/jsmn.h ****     if (js[parser->pos] < 32 || js[parser->pos] >= 127) {
 147              		.loc 1 161 0
 148 0030 2038     		subs	r0, r0, #32
 149 0032 C0B2     		uxtb	r0, r0
 150 0034 5E28     		cmp	r0, #94
 151 0036 03D9     		bls	.L11
 162:jsmn-master/jsmn.h ****       parser->pos = start;
 152              		.loc 1 162 0
 153 0038 2E60     		str	r6, [r5]
 163:jsmn-master/jsmn.h ****       return JSMN_ERROR_INVAL;
 154              		.loc 1 163 0
 155 003a 0220     		movs	r0, #2
 156 003c 4042     		rsbs	r0, r0, #0
 157 003e 20E0     		b	.L12
 158              	.L11:
 143:jsmn-master/jsmn.h ****     switch (js[parser->pos]) {
 159              		.loc 1 143 0
 160 0040 0134     		adds	r4, r4, #1
 161 0042 2C60     		str	r4, [r5]
 162              	.L6:
 143:jsmn-master/jsmn.h ****     switch (js[parser->pos]) {
 163              		.loc 1 143 0 is_stmt 0 discriminator 1
 164 0044 2C68     		ldr	r4, [r5]
 165 0046 9442     		cmp	r4, r2
 166 0048 02D2     		bcs	.L8
 143:jsmn-master/jsmn.h ****     switch (js[parser->pos]) {
 167              		.loc 1 143 0 discriminator 2
 168 004a 085D     		ldrb	r0, [r1, r4]
 169 004c 0028     		cmp	r0, #0
 170 004e DBD1     		bne	.L13
 171              	.L8:
 164:jsmn-master/jsmn.h ****     }
 165:jsmn-master/jsmn.h ****   }
 166:jsmn-master/jsmn.h **** #ifdef JSMN_STRICT
 167:jsmn-master/jsmn.h ****   /* In strict mode primitive must be followed by a comma/object/array */
ARM GAS  C:\Users\theGu\AppData\Local\Temp\ccrdky73.s 			page 7


 168:jsmn-master/jsmn.h ****   parser->pos = start;
 169:jsmn-master/jsmn.h ****   return JSMN_ERROR_PART;
 170:jsmn-master/jsmn.h **** #endif
 171:jsmn-master/jsmn.h **** 
 172:jsmn-master/jsmn.h **** found:
 173:jsmn-master/jsmn.h ****   if (tokens == NULL) {
 172              		.loc 1 173 0 is_stmt 1
 173 0050 002B     		cmp	r3, #0
 174 0052 03D1     		bne	.L14
 174:jsmn-master/jsmn.h ****     parser->pos--;
 175              		.loc 1 174 0
 176 0054 013C     		subs	r4, r4, #1
 177 0056 2C60     		str	r4, [r5]
 175:jsmn-master/jsmn.h ****     return 0;
 178              		.loc 1 175 0
 179 0058 0020     		movs	r0, #0
 180 005a 12E0     		b	.L12
 181              	.L14:
 176:jsmn-master/jsmn.h ****   }
 177:jsmn-master/jsmn.h ****   token = jsmn_alloc_token(parser, tokens, num_tokens);
 182              		.loc 1 177 0
 183 005c 049A     		ldr	r2, [sp, #16]
 184              	.LVL11:
 185 005e 1900     		movs	r1, r3
 186              	.LVL12:
 187 0060 2800     		movs	r0, r5
 188 0062 FFF7FEFF 		bl	jsmn_alloc_token
 189              	.LVL13:
 178:jsmn-master/jsmn.h ****   if (token == NULL) {
 190              		.loc 1 178 0
 191 0066 0028     		cmp	r0, #0
 192 0068 02D1     		bne	.L15
 179:jsmn-master/jsmn.h ****     parser->pos = start;
 193              		.loc 1 179 0
 194 006a 2E60     		str	r6, [r5]
 180:jsmn-master/jsmn.h ****     return JSMN_ERROR_NOMEM;
 195              		.loc 1 180 0
 196 006c 0138     		subs	r0, r0, #1
 197              	.LVL14:
 198 006e 08E0     		b	.L12
 199              	.LVL15:
 200              	.L15:
 181:jsmn-master/jsmn.h ****   }
 182:jsmn-master/jsmn.h ****   jsmn_fill_token(token, JSMN_PRIMITIVE, start, parser->pos);
 201              		.loc 1 182 0
 202 0070 2B68     		ldr	r3, [r5]
 203 0072 3200     		movs	r2, r6
 204 0074 0421     		movs	r1, #4
 205 0076 FFF7FEFF 		bl	jsmn_fill_token
 206              	.LVL16:
 183:jsmn-master/jsmn.h **** #ifdef JSMN_PARENT_LINKS
 184:jsmn-master/jsmn.h ****   token->parent = parser->toksuper;
 185:jsmn-master/jsmn.h **** #endif
 186:jsmn-master/jsmn.h ****   parser->pos--;
 207              		.loc 1 186 0
 208 007a 2B68     		ldr	r3, [r5]
 209 007c 013B     		subs	r3, r3, #1
ARM GAS  C:\Users\theGu\AppData\Local\Temp\ccrdky73.s 			page 8


 210 007e 2B60     		str	r3, [r5]
 187:jsmn-master/jsmn.h ****   return 0;
 211              		.loc 1 187 0
 212 0080 0020     		movs	r0, #0
 213              	.L12:
 188:jsmn-master/jsmn.h **** }
 214              		.loc 1 188 0
 215              		@ sp needed
 216              	.LVL17:
 217              	.LVL18:
 218 0082 70BD     		pop	{r4, r5, r6, pc}
 219              		.cfi_endproc
 220              	.LFE63:
 221              		.size	jsmn_parse_primitive, .-jsmn_parse_primitive
 222              		.section	.text.jsmn_parse_string,"ax",%progbits
 223              		.align	2
 224              		.code	16
 225              		.thumb_func
 226              		.type	jsmn_parse_string, %function
 227              	jsmn_parse_string:
 228              	.LFB64:
 189:jsmn-master/jsmn.h **** 
 190:jsmn-master/jsmn.h **** /**
 191:jsmn-master/jsmn.h ****  * Fills next token with JSON string.
 192:jsmn-master/jsmn.h ****  */
 193:jsmn-master/jsmn.h **** static int jsmn_parse_string(jsmn_parser *parser, const char *js,
 194:jsmn-master/jsmn.h ****                              const size_t len, jsmntok_t *tokens,
 195:jsmn-master/jsmn.h ****                              const size_t num_tokens) {
 229              		.loc 1 195 0
 230              		.cfi_startproc
 231              		@ args = 4, pretend = 0, frame = 8
 232              		@ frame_needed = 0, uses_anonymous_args = 0
 233              	.LVL19:
 234 0000 F0B5     		push	{r4, r5, r6, r7, lr}
 235              		.cfi_def_cfa_offset 20
 236              		.cfi_offset 4, -20
 237              		.cfi_offset 5, -16
 238              		.cfi_offset 6, -12
 239              		.cfi_offset 7, -8
 240              		.cfi_offset 14, -4
 241 0002 83B0     		sub	sp, sp, #12
 242              		.cfi_def_cfa_offset 32
 243 0004 0500     		movs	r5, r0
 244 0006 0193     		str	r3, [sp, #4]
 196:jsmn-master/jsmn.h ****   jsmntok_t *token;
 197:jsmn-master/jsmn.h **** 
 198:jsmn-master/jsmn.h ****   int start = parser->pos;
 245              		.loc 1 198 0
 246 0008 0668     		ldr	r6, [r0]
 247              	.LVL20:
 199:jsmn-master/jsmn.h **** 
 200:jsmn-master/jsmn.h ****   parser->pos++;
 248              		.loc 1 200 0
 249 000a 701C     		adds	r0, r6, #1
 250              	.LVL21:
 251 000c 2860     		str	r0, [r5]
 201:jsmn-master/jsmn.h **** 
ARM GAS  C:\Users\theGu\AppData\Local\Temp\ccrdky73.s 			page 9


 202:jsmn-master/jsmn.h ****   /* Skip starting quote */
 203:jsmn-master/jsmn.h ****   for (; parser->pos < len && js[parser->pos] != '\0'; parser->pos++) {
 252              		.loc 1 203 0
 253 000e 50E0     		b	.L17
 254              	.LVL22:
 255              	.L30:
 256              	.LBB2:
 204:jsmn-master/jsmn.h ****     char c = js[parser->pos];
 205:jsmn-master/jsmn.h **** 
 206:jsmn-master/jsmn.h ****     /* Quote: end of string */
 207:jsmn-master/jsmn.h ****     if (c == '\"') {
 257              		.loc 1 207 0
 258 0010 222C     		cmp	r4, #34
 259 0012 13D1     		bne	.L18
 208:jsmn-master/jsmn.h ****       if (tokens == NULL) {
 260              		.loc 1 208 0
 261 0014 019B     		ldr	r3, [sp, #4]
 262 0016 002B     		cmp	r3, #0
 263 0018 55D0     		beq	.L31
 209:jsmn-master/jsmn.h ****         return 0;
 210:jsmn-master/jsmn.h ****       }
 211:jsmn-master/jsmn.h ****       token = jsmn_alloc_token(parser, tokens, num_tokens);
 264              		.loc 1 211 0
 265 001a 089A     		ldr	r2, [sp, #32]
 266              	.LVL23:
 267 001c 1900     		movs	r1, r3
 268              	.LVL24:
 269 001e 2800     		movs	r0, r5
 270 0020 FFF7FEFF 		bl	jsmn_alloc_token
 271              	.LVL25:
 212:jsmn-master/jsmn.h ****       if (token == NULL) {
 272              		.loc 1 212 0
 273 0024 0028     		cmp	r0, #0
 274 0026 02D1     		bne	.L20
 213:jsmn-master/jsmn.h ****         parser->pos = start;
 275              		.loc 1 213 0
 276 0028 2E60     		str	r6, [r5]
 214:jsmn-master/jsmn.h ****         return JSMN_ERROR_NOMEM;
 277              		.loc 1 214 0
 278 002a 0138     		subs	r0, r0, #1
 279              	.LVL26:
 280 002c 4CE0     		b	.L19
 281              	.LVL27:
 282              	.L20:
 215:jsmn-master/jsmn.h ****       }
 216:jsmn-master/jsmn.h ****       jsmn_fill_token(token, JSMN_STRING, start + 1, parser->pos);
 283              		.loc 1 216 0
 284 002e 2B68     		ldr	r3, [r5]
 285 0030 721C     		adds	r2, r6, #1
 286 0032 0321     		movs	r1, #3
 287 0034 FFF7FEFF 		bl	jsmn_fill_token
 288              	.LVL28:
 217:jsmn-master/jsmn.h **** #ifdef JSMN_PARENT_LINKS
 218:jsmn-master/jsmn.h ****       token->parent = parser->toksuper;
 219:jsmn-master/jsmn.h **** #endif
 220:jsmn-master/jsmn.h ****       return 0;
 289              		.loc 1 220 0
ARM GAS  C:\Users\theGu\AppData\Local\Temp\ccrdky73.s 			page 10


 290 0038 0020     		movs	r0, #0
 291 003a 45E0     		b	.L19
 292              	.LVL29:
 293              	.L18:
 221:jsmn-master/jsmn.h ****     }
 222:jsmn-master/jsmn.h **** 
 223:jsmn-master/jsmn.h ****     /* Backslash: Quoted symbol expected */
 224:jsmn-master/jsmn.h ****     if (c == '\\' && parser->pos + 1 < len) {
 294              		.loc 1 224 0
 295 003c 5C2C     		cmp	r4, #92
 296 003e 35D1     		bne	.L21
 297              		.loc 1 224 0 is_stmt 0 discriminator 1
 298 0040 0130     		adds	r0, r0, #1
 299 0042 8242     		cmp	r2, r0
 300 0044 32D9     		bls	.L21
 301              	.LBB3:
 225:jsmn-master/jsmn.h ****       int i;
 226:jsmn-master/jsmn.h ****       parser->pos++;
 302              		.loc 1 226 0 is_stmt 1
 303 0046 2860     		str	r0, [r5]
 227:jsmn-master/jsmn.h ****       switch (js[parser->pos]) {
 304              		.loc 1 227 0
 305 0048 0C5C     		ldrb	r4, [r1, r0]
 306              	.LVL30:
 307 004a 223C     		subs	r4, r4, #34
 308 004c E7B2     		uxtb	r7, r4
 309 004e 532F     		cmp	r7, #83
 310 0050 28D8     		bhi	.L22
 311 0052 BC00     		lsls	r4, r7, #2
 312 0054 1D4F     		ldr	r7, .L32
 313 0056 3C59     		ldr	r4, [r7, r4]
 314 0058 A746     		mov	pc, r4
 315              		.section	.rodata
 316              		.align	2
 317              	.L23:
 318 0000 AC000000 		.word	.L21
 319 0004 A4000000 		.word	.L22
 320 0008 A4000000 		.word	.L22
 321 000c A4000000 		.word	.L22
 322 0010 A4000000 		.word	.L22
 323 0014 A4000000 		.word	.L22
 324 0018 A4000000 		.word	.L22
 325 001c A4000000 		.word	.L22
 326 0020 A4000000 		.word	.L22
 327 0024 A4000000 		.word	.L22
 328 0028 A4000000 		.word	.L22
 329 002c A4000000 		.word	.L22
 330 0030 A4000000 		.word	.L22
 331 0034 AC000000 		.word	.L21
 332 0038 A4000000 		.word	.L22
 333 003c A4000000 		.word	.L22
 334 0040 A4000000 		.word	.L22
 335 0044 A4000000 		.word	.L22
 336 0048 A4000000 		.word	.L22
 337 004c A4000000 		.word	.L22
 338 0050 A4000000 		.word	.L22
 339 0054 A4000000 		.word	.L22
ARM GAS  C:\Users\theGu\AppData\Local\Temp\ccrdky73.s 			page 11


 340 0058 A4000000 		.word	.L22
 341 005c A4000000 		.word	.L22
 342 0060 A4000000 		.word	.L22
 343 0064 A4000000 		.word	.L22
 344 0068 A4000000 		.word	.L22
 345 006c A4000000 		.word	.L22
 346 0070 A4000000 		.word	.L22
 347 0074 A4000000 		.word	.L22
 348 0078 A4000000 		.word	.L22
 349 007c A4000000 		.word	.L22
 350 0080 A4000000 		.word	.L22
 351 0084 A4000000 		.word	.L22
 352 0088 A4000000 		.word	.L22
 353 008c A4000000 		.word	.L22
 354 0090 A4000000 		.word	.L22
 355 0094 A4000000 		.word	.L22
 356 0098 A4000000 		.word	.L22
 357 009c A4000000 		.word	.L22
 358 00a0 A4000000 		.word	.L22
 359 00a4 A4000000 		.word	.L22
 360 00a8 A4000000 		.word	.L22
 361 00ac A4000000 		.word	.L22
 362 00b0 A4000000 		.word	.L22
 363 00b4 A4000000 		.word	.L22
 364 00b8 A4000000 		.word	.L22
 365 00bc A4000000 		.word	.L22
 366 00c0 A4000000 		.word	.L22
 367 00c4 A4000000 		.word	.L22
 368 00c8 A4000000 		.word	.L22
 369 00cc A4000000 		.word	.L22
 370 00d0 A4000000 		.word	.L22
 371 00d4 A4000000 		.word	.L22
 372 00d8 A4000000 		.word	.L22
 373 00dc A4000000 		.word	.L22
 374 00e0 A4000000 		.word	.L22
 375 00e4 A4000000 		.word	.L22
 376 00e8 AC000000 		.word	.L21
 377 00ec A4000000 		.word	.L22
 378 00f0 A4000000 		.word	.L22
 379 00f4 A4000000 		.word	.L22
 380 00f8 A4000000 		.word	.L22
 381 00fc A4000000 		.word	.L22
 382 0100 AC000000 		.word	.L21
 383 0104 A4000000 		.word	.L22
 384 0108 A4000000 		.word	.L22
 385 010c A4000000 		.word	.L22
 386 0110 AC000000 		.word	.L21
 387 0114 A4000000 		.word	.L22
 388 0118 A4000000 		.word	.L22
 389 011c A4000000 		.word	.L22
 390 0120 A4000000 		.word	.L22
 391 0124 A4000000 		.word	.L22
 392 0128 A4000000 		.word	.L22
 393 012c A4000000 		.word	.L22
 394 0130 AC000000 		.word	.L21
 395 0134 A4000000 		.word	.L22
 396 0138 A4000000 		.word	.L22
ARM GAS  C:\Users\theGu\AppData\Local\Temp\ccrdky73.s 			page 12


 397 013c A4000000 		.word	.L22
 398 0140 AC000000 		.word	.L21
 399 0144 A4000000 		.word	.L22
 400 0148 AC000000 		.word	.L21
 401 014c 5A000000 		.word	.L24
 402              		.section	.text.jsmn_parse_string
 403              	.L24:
 228:jsmn-master/jsmn.h ****       /* Allowed escaped symbols */
 229:jsmn-master/jsmn.h ****       case '\"':
 230:jsmn-master/jsmn.h ****       case '/':
 231:jsmn-master/jsmn.h ****       case '\\':
 232:jsmn-master/jsmn.h ****       case 'b':
 233:jsmn-master/jsmn.h ****       case 'f':
 234:jsmn-master/jsmn.h ****       case 'r':
 235:jsmn-master/jsmn.h ****       case 'n':
 236:jsmn-master/jsmn.h ****       case 't':
 237:jsmn-master/jsmn.h ****         break;
 238:jsmn-master/jsmn.h ****       /* Allows escaped symbol \uXXXX */
 239:jsmn-master/jsmn.h ****       case 'u':
 240:jsmn-master/jsmn.h ****         parser->pos++;
 404              		.loc 1 240 0
 405 005a 0130     		adds	r0, r0, #1
 406 005c 2860     		str	r0, [r5]
 407              	.LVL31:
 241:jsmn-master/jsmn.h ****         for (i = 0; i < 4 && parser->pos < len && js[parser->pos] != '\0';
 408              		.loc 1 241 0
 409 005e 0023     		movs	r3, #0
 410 0060 14E0     		b	.L25
 411              	.LVL32:
 412              	.L28:
 242:jsmn-master/jsmn.h ****              i++) {
 243:jsmn-master/jsmn.h ****           /* If it isn't a hex character we have an error */
 244:jsmn-master/jsmn.h ****           if (!((js[parser->pos] >= 48 && js[parser->pos] <= 57) ||   /* 0-9 */
 413              		.loc 1 244 0
 414 0062 2700     		movs	r7, r4
 415 0064 303F     		subs	r7, r7, #48
 416 0066 FFB2     		uxtb	r7, r7
 417 0068 092F     		cmp	r7, #9
 418 006a 0CD9     		bls	.L26
 245:jsmn-master/jsmn.h ****                 (js[parser->pos] >= 65 && js[parser->pos] <= 70) ||   /* A-F */
 419              		.loc 1 245 0 discriminator 1
 420 006c 2700     		movs	r7, r4
 421 006e 413F     		subs	r7, r7, #65
 422 0070 FFB2     		uxtb	r7, r7
 244:jsmn-master/jsmn.h ****                 (js[parser->pos] >= 65 && js[parser->pos] <= 70) ||   /* A-F */
 423              		.loc 1 244 0 discriminator 1
 424 0072 052F     		cmp	r7, #5
 425 0074 07D9     		bls	.L26
 246:jsmn-master/jsmn.h ****                 (js[parser->pos] >= 97 && js[parser->pos] <= 102))) { /* a-f */
 426              		.loc 1 246 0 discriminator 2
 427 0076 613C     		subs	r4, r4, #97
 428 0078 E4B2     		uxtb	r4, r4
 244:jsmn-master/jsmn.h ****                 (js[parser->pos] >= 65 && js[parser->pos] <= 70) ||   /* A-F */
 429              		.loc 1 244 0 discriminator 2
 430 007a 052C     		cmp	r4, #5
 431 007c 03D9     		bls	.L26
 247:jsmn-master/jsmn.h ****             parser->pos = start;
ARM GAS  C:\Users\theGu\AppData\Local\Temp\ccrdky73.s 			page 13


 432              		.loc 1 247 0
 433 007e 2E60     		str	r6, [r5]
 248:jsmn-master/jsmn.h ****             return JSMN_ERROR_INVAL;
 434              		.loc 1 248 0
 435 0080 0220     		movs	r0, #2
 436 0082 4042     		rsbs	r0, r0, #0
 437 0084 20E0     		b	.L19
 438              	.L26:
 249:jsmn-master/jsmn.h ****           }
 250:jsmn-master/jsmn.h ****           parser->pos++;
 439              		.loc 1 250 0
 440 0086 0130     		adds	r0, r0, #1
 441 0088 2860     		str	r0, [r5]
 242:jsmn-master/jsmn.h ****           /* If it isn't a hex character we have an error */
 442              		.loc 1 242 0
 443 008a 0133     		adds	r3, r3, #1
 444              	.LVL33:
 445              	.L25:
 241:jsmn-master/jsmn.h ****              i++) {
 446              		.loc 1 241 0 discriminator 1
 447 008c 032B     		cmp	r3, #3
 448 008e 05DC     		bgt	.L27
 241:jsmn-master/jsmn.h ****              i++) {
 449              		.loc 1 241 0 is_stmt 0 discriminator 2
 450 0090 2868     		ldr	r0, [r5]
 451 0092 8242     		cmp	r2, r0
 452 0094 02D9     		bls	.L27
 241:jsmn-master/jsmn.h ****              i++) {
 453              		.loc 1 241 0 discriminator 3
 454 0096 0C5C     		ldrb	r4, [r1, r0]
 455 0098 002C     		cmp	r4, #0
 456 009a E2D1     		bne	.L28
 457              	.L27:
 251:jsmn-master/jsmn.h ****         }
 252:jsmn-master/jsmn.h ****         parser->pos--;
 458              		.loc 1 252 0 is_stmt 1
 459 009c 2B68     		ldr	r3, [r5]
 460              	.LVL34:
 461 009e 581E     		subs	r0, r3, #1
 462 00a0 2860     		str	r0, [r5]
 253:jsmn-master/jsmn.h ****         break;
 463              		.loc 1 253 0
 464 00a2 03E0     		b	.L21
 465              	.L22:
 254:jsmn-master/jsmn.h ****       /* Unexpected symbol */
 255:jsmn-master/jsmn.h ****       default:
 256:jsmn-master/jsmn.h ****         parser->pos = start;
 466              		.loc 1 256 0
 467 00a4 2E60     		str	r6, [r5]
 257:jsmn-master/jsmn.h ****         return JSMN_ERROR_INVAL;
 468              		.loc 1 257 0
 469 00a6 0220     		movs	r0, #2
 470 00a8 4042     		rsbs	r0, r0, #0
 471 00aa 0DE0     		b	.L19
 472              	.L21:
 473              	.LBE3:
 474              	.LBE2:
ARM GAS  C:\Users\theGu\AppData\Local\Temp\ccrdky73.s 			page 14


 203:jsmn-master/jsmn.h ****     char c = js[parser->pos];
 475              		.loc 1 203 0
 476 00ac 2B68     		ldr	r3, [r5]
 477 00ae 581C     		adds	r0, r3, #1
 478 00b0 2860     		str	r0, [r5]
 479              	.L17:
 203:jsmn-master/jsmn.h ****     char c = js[parser->pos];
 480              		.loc 1 203 0 is_stmt 0 discriminator 1
 481 00b2 2868     		ldr	r0, [r5]
 482 00b4 9042     		cmp	r0, r2
 483 00b6 02D2     		bcs	.L29
 203:jsmn-master/jsmn.h ****     char c = js[parser->pos];
 484              		.loc 1 203 0 discriminator 2
 485 00b8 0C5C     		ldrb	r4, [r1, r0]
 486 00ba 002C     		cmp	r4, #0
 487 00bc A8D1     		bne	.L30
 488              	.L29:
 258:jsmn-master/jsmn.h ****       }
 259:jsmn-master/jsmn.h ****     }
 260:jsmn-master/jsmn.h ****   }
 261:jsmn-master/jsmn.h ****   parser->pos = start;
 489              		.loc 1 261 0 is_stmt 1
 490 00be 2E60     		str	r6, [r5]
 262:jsmn-master/jsmn.h ****   return JSMN_ERROR_PART;
 491              		.loc 1 262 0
 492 00c0 0320     		movs	r0, #3
 493 00c2 4042     		rsbs	r0, r0, #0
 494 00c4 00E0     		b	.L19
 495              	.LVL35:
 496              	.L31:
 497              	.LBB4:
 209:jsmn-master/jsmn.h ****       }
 498              		.loc 1 209 0
 499 00c6 0020     		movs	r0, #0
 500              	.LVL36:
 501              	.L19:
 502              	.LBE4:
 263:jsmn-master/jsmn.h **** }
 503              		.loc 1 263 0
 504 00c8 03B0     		add	sp, sp, #12
 505              		@ sp needed
 506              	.LVL37:
 507              	.LVL38:
 508 00ca F0BD     		pop	{r4, r5, r6, r7, pc}
 509              	.L33:
 510              		.align	2
 511              	.L32:
 512 00cc 00000000 		.word	.L23
 513              		.cfi_endproc
 514              	.LFE64:
 515              		.size	jsmn_parse_string, .-jsmn_parse_string
 516              		.section	.text.jsmn_parse,"ax",%progbits
 517              		.align	2
 518              		.global	jsmn_parse
 519              		.code	16
 520              		.thumb_func
 521              		.type	jsmn_parse, %function
ARM GAS  C:\Users\theGu\AppData\Local\Temp\ccrdky73.s 			page 15


 522              	jsmn_parse:
 523              	.LFB65:
 264:jsmn-master/jsmn.h **** 
 265:jsmn-master/jsmn.h **** /**
 266:jsmn-master/jsmn.h ****  * Parse JSON string and fill tokens.
 267:jsmn-master/jsmn.h ****  */
 268:jsmn-master/jsmn.h **** JSMN_API int jsmn_parse(jsmn_parser *parser, const char *js, const size_t len,
 269:jsmn-master/jsmn.h ****                         jsmntok_t *tokens, const unsigned int num_tokens) {
 524              		.loc 1 269 0
 525              		.cfi_startproc
 526              		@ args = 4, pretend = 0, frame = 0
 527              		@ frame_needed = 0, uses_anonymous_args = 0
 528              	.LVL39:
 529 0000 F0B5     		push	{r4, r5, r6, r7, lr}
 530              		.cfi_def_cfa_offset 20
 531              		.cfi_offset 4, -20
 532              		.cfi_offset 5, -16
 533              		.cfi_offset 6, -12
 534              		.cfi_offset 7, -8
 535              		.cfi_offset 14, -4
 536 0002 4F46     		mov	r7, r9
 537 0004 4646     		mov	r6, r8
 538 0006 C0B4     		push	{r6, r7}
 539              		.cfi_def_cfa_offset 28
 540              		.cfi_offset 8, -28
 541              		.cfi_offset 9, -24
 542 0008 83B0     		sub	sp, sp, #12
 543              		.cfi_def_cfa_offset 40
 544 000a 0600     		movs	r6, r0
 545 000c 8846     		mov	r8, r1
 546 000e 1700     		movs	r7, r2
 547 0010 1C00     		movs	r4, r3
 270:jsmn-master/jsmn.h ****   int r;
 271:jsmn-master/jsmn.h ****   int i;
 272:jsmn-master/jsmn.h ****   jsmntok_t *token;
 273:jsmn-master/jsmn.h ****   int count = parser->toknext;
 548              		.loc 1 273 0
 549 0012 4368     		ldr	r3, [r0, #4]
 550              	.LVL40:
 551 0014 9946     		mov	r9, r3
 552              	.LVL41:
 274:jsmn-master/jsmn.h **** 
 275:jsmn-master/jsmn.h ****   for (; parser->pos < len && js[parser->pos] != '\0'; parser->pos++) {
 553              		.loc 1 275 0
 554 0016 CBE0     		b	.L35
 555              	.LVL42:
 556              	.L61:
 557              	.LBB5:
 276:jsmn-master/jsmn.h ****     char c;
 277:jsmn-master/jsmn.h ****     jsmntype_t type;
 278:jsmn-master/jsmn.h **** 
 279:jsmn-master/jsmn.h ****     c = js[parser->pos];
 280:jsmn-master/jsmn.h ****     switch (c) {
 558              		.loc 1 280 0
 559 0018 2C2D     		cmp	r5, #44
 560 001a 00D1     		bne	.LCB489
 561 001c 8DE0     		b	.L37	@long jump
ARM GAS  C:\Users\theGu\AppData\Local\Temp\ccrdky73.s 			page 16


 562              	.LCB489:
 563 001e 10D8     		bhi	.L38
 564 0020 0D2D     		cmp	r5, #13
 565 0022 00D1     		bne	.LCB493
 566 0024 C1E0     		b	.L39	@long jump
 567              	.LCB493:
 568 0026 06D8     		bhi	.L40
 569 0028 2B00     		movs	r3, r5
 570              	.LVL43:
 571 002a 093B     		subs	r3, r3, #9
 572 002c DBB2     		uxtb	r3, r3
 573 002e 012B     		cmp	r3, #1
 574 0030 00D8     		bhi	.LCB501
 575 0032 BAE0     		b	.L39	@long jump
 576              	.LCB501:
 577 0034 A2E0     		b	.L36
 578              	.LVL44:
 579              	.L40:
 580 0036 202D     		cmp	r5, #32
 581 0038 00D1     		bne	.LCB508
 582 003a B6E0     		b	.L39	@long jump
 583              	.LCB508:
 584 003c 222D     		cmp	r5, #34
 585 003e 60D0     		beq	.L41
 586 0040 9CE0     		b	.L36
 587              	.L38:
 588 0042 5D2D     		cmp	r5, #93
 589 0044 2CD0     		beq	.L42
 590 0046 04D8     		bhi	.L43
 591 0048 3A2D     		cmp	r5, #58
 592 004a 72D0     		beq	.L44
 593 004c 5B2D     		cmp	r5, #91
 594 004e 05D0     		beq	.L45
 595 0050 94E0     		b	.L36
 596              	.L43:
 597 0052 7B2D     		cmp	r5, #123
 598 0054 02D0     		beq	.L45
 599 0056 7D2D     		cmp	r5, #125
 600 0058 22D0     		beq	.L42
 601 005a 8FE0     		b	.L36
 602              	.L45:
 281:jsmn-master/jsmn.h ****     case '{':
 282:jsmn-master/jsmn.h ****     case '[':
 283:jsmn-master/jsmn.h ****       count++;
 603              		.loc 1 283 0
 604 005c 0123     		movs	r3, #1
 605              	.LVL45:
 606 005e 9C46     		mov	ip, r3
 607 0060 E144     		add	r9, r9, ip
 608              	.LVL46:
 284:jsmn-master/jsmn.h ****       if (tokens == NULL) {
 609              		.loc 1 284 0
 610 0062 002C     		cmp	r4, #0
 611 0064 00D1     		bne	.LCB542
 612 0066 A0E0     		b	.L39	@long jump
 613              	.LCB542:
 285:jsmn-master/jsmn.h ****         break;
ARM GAS  C:\Users\theGu\AppData\Local\Temp\ccrdky73.s 			page 17


 286:jsmn-master/jsmn.h ****       }
 287:jsmn-master/jsmn.h ****       token = jsmn_alloc_token(parser, tokens, num_tokens);
 614              		.loc 1 287 0
 615 0068 0A9A     		ldr	r2, [sp, #40]
 616 006a 2100     		movs	r1, r4
 617 006c 3000     		movs	r0, r6
 618 006e FFF7FEFF 		bl	jsmn_alloc_token
 619              	.LVL47:
 288:jsmn-master/jsmn.h ****       if (token == NULL) {
 620              		.loc 1 288 0
 621 0072 0028     		cmp	r0, #0
 622 0074 00D1     		bne	.LCB550
 623 0076 B5E0     		b	.L65	@long jump
 624              	.LCB550:
 289:jsmn-master/jsmn.h ****         return JSMN_ERROR_NOMEM;
 290:jsmn-master/jsmn.h ****       }
 291:jsmn-master/jsmn.h ****       if (parser->toksuper != -1) {
 625              		.loc 1 291 0
 626 0078 B368     		ldr	r3, [r6, #8]
 627 007a 5A1C     		adds	r2, r3, #1
 628 007c 04D0     		beq	.L47
 629              	.LBB6:
 292:jsmn-master/jsmn.h ****         jsmntok_t *t = &tokens[parser->toksuper];
 630              		.loc 1 292 0
 631 007e 1B01     		lsls	r3, r3, #4
 632 0080 E318     		adds	r3, r4, r3
 633              	.LVL48:
 293:jsmn-master/jsmn.h **** #ifdef JSMN_STRICT
 294:jsmn-master/jsmn.h ****         /* In strict mode an object or array can't become a key */
 295:jsmn-master/jsmn.h ****         if (t->type == JSMN_OBJECT) {
 296:jsmn-master/jsmn.h ****           return JSMN_ERROR_INVAL;
 297:jsmn-master/jsmn.h ****         }
 298:jsmn-master/jsmn.h **** #endif
 299:jsmn-master/jsmn.h ****         t->size++;
 634              		.loc 1 299 0
 635 0082 DA68     		ldr	r2, [r3, #12]
 636 0084 0132     		adds	r2, r2, #1
 637 0086 DA60     		str	r2, [r3, #12]
 638              	.LVL49:
 639              	.L47:
 640              	.LBE6:
 300:jsmn-master/jsmn.h **** #ifdef JSMN_PARENT_LINKS
 301:jsmn-master/jsmn.h ****         token->parent = parser->toksuper;
 302:jsmn-master/jsmn.h **** #endif
 303:jsmn-master/jsmn.h ****       }
 304:jsmn-master/jsmn.h ****       token->type = (c == '{' ? JSMN_OBJECT : JSMN_ARRAY);
 641              		.loc 1 304 0
 642 0088 7B2D     		cmp	r5, #123
 643 008a 01D1     		bne	.L66
 644 008c 0123     		movs	r3, #1
 645 008e 00E0     		b	.L48
 646              	.L66:
 647 0090 0223     		movs	r3, #2
 648              	.L48:
 649              		.loc 1 304 0 is_stmt 0 discriminator 4
 650 0092 0370     		strb	r3, [r0]
 305:jsmn-master/jsmn.h ****       token->start = parser->pos;
ARM GAS  C:\Users\theGu\AppData\Local\Temp\ccrdky73.s 			page 18


 651              		.loc 1 305 0 is_stmt 1 discriminator 4
 652 0094 3368     		ldr	r3, [r6]
 653 0096 4360     		str	r3, [r0, #4]
 306:jsmn-master/jsmn.h ****       parser->toksuper = parser->toknext - 1;
 654              		.loc 1 306 0 discriminator 4
 655 0098 7368     		ldr	r3, [r6, #4]
 656 009a 013B     		subs	r3, r3, #1
 657 009c B360     		str	r3, [r6, #8]
 307:jsmn-master/jsmn.h ****       break;
 658              		.loc 1 307 0 discriminator 4
 659 009e 84E0     		b	.L39
 660              	.LVL50:
 661              	.L42:
 308:jsmn-master/jsmn.h ****     case '}':
 309:jsmn-master/jsmn.h ****     case ']':
 310:jsmn-master/jsmn.h ****       if (tokens == NULL) {
 662              		.loc 1 310 0
 663 00a0 002C     		cmp	r4, #0
 664 00a2 00D1     		bne	.LCB594
 665 00a4 81E0     		b	.L39	@long jump
 666              	.LCB594:
 311:jsmn-master/jsmn.h ****         break;
 312:jsmn-master/jsmn.h ****       }
 313:jsmn-master/jsmn.h ****       type = (c == '}' ? JSMN_OBJECT : JSMN_ARRAY);
 667              		.loc 1 313 0
 668 00a6 7D2D     		cmp	r5, #125
 669 00a8 01D1     		bne	.L67
 670 00aa 0120     		movs	r0, #1
 671 00ac 00E0     		b	.L49
 672              	.L67:
 673 00ae 0220     		movs	r0, #2
 674              	.L49:
 675              	.LVL51:
 314:jsmn-master/jsmn.h **** #ifdef JSMN_PARENT_LINKS
 315:jsmn-master/jsmn.h ****       if (parser->toknext < 1) {
 316:jsmn-master/jsmn.h ****         return JSMN_ERROR_INVAL;
 317:jsmn-master/jsmn.h ****       }
 318:jsmn-master/jsmn.h ****       token = &tokens[parser->toknext - 1];
 319:jsmn-master/jsmn.h ****       for (;;) {
 320:jsmn-master/jsmn.h ****         if (token->start != -1 && token->end == -1) {
 321:jsmn-master/jsmn.h ****           if (token->type != type) {
 322:jsmn-master/jsmn.h ****             return JSMN_ERROR_INVAL;
 323:jsmn-master/jsmn.h ****           }
 324:jsmn-master/jsmn.h ****           token->end = parser->pos + 1;
 325:jsmn-master/jsmn.h ****           parser->toksuper = token->parent;
 326:jsmn-master/jsmn.h ****           break;
 327:jsmn-master/jsmn.h ****         }
 328:jsmn-master/jsmn.h ****         if (token->parent == -1) {
 329:jsmn-master/jsmn.h ****           if (token->type != type || parser->toksuper == -1) {
 330:jsmn-master/jsmn.h ****             return JSMN_ERROR_INVAL;
 331:jsmn-master/jsmn.h ****           }
 332:jsmn-master/jsmn.h ****           break;
 333:jsmn-master/jsmn.h ****         }
 334:jsmn-master/jsmn.h ****         token = &tokens[token->parent];
 335:jsmn-master/jsmn.h ****       }
 336:jsmn-master/jsmn.h **** #else
 337:jsmn-master/jsmn.h ****       for (i = parser->toknext - 1; i >= 0; i--) {
ARM GAS  C:\Users\theGu\AppData\Local\Temp\ccrdky73.s 			page 19


 676              		.loc 1 337 0 discriminator 4
 677 00b0 7368     		ldr	r3, [r6, #4]
 678              	.LVL52:
 679 00b2 013B     		subs	r3, r3, #1
 680              	.LVL53:
 681 00b4 12E0     		b	.L50
 682              	.LVL54:
 683              	.L53:
 338:jsmn-master/jsmn.h ****         token = &tokens[i];
 684              		.loc 1 338 0
 685 00b6 1A01     		lsls	r2, r3, #4
 686 00b8 A218     		adds	r2, r4, r2
 687              	.LVL55:
 339:jsmn-master/jsmn.h ****         if (token->start != -1 && token->end == -1) {
 688              		.loc 1 339 0
 689 00ba 5568     		ldr	r5, [r2, #4]
 690 00bc 0135     		adds	r5, r5, #1
 691 00be 0CD0     		beq	.L51
 692              		.loc 1 339 0 is_stmt 0 discriminator 1
 693 00c0 9568     		ldr	r5, [r2, #8]
 694 00c2 0135     		adds	r5, r5, #1
 695 00c4 09D1     		bne	.L51
 340:jsmn-master/jsmn.h ****           if (token->type != type) {
 696              		.loc 1 340 0 is_stmt 1
 697 00c6 1578     		ldrb	r5, [r2]
 698 00c8 A842     		cmp	r0, r5
 699 00ca 00D0     		beq	.LCB632
 700 00cc 8DE0     		b	.L68	@long jump
 701              	.LCB632:
 341:jsmn-master/jsmn.h ****             return JSMN_ERROR_INVAL;
 342:jsmn-master/jsmn.h ****           }
 343:jsmn-master/jsmn.h ****           parser->toksuper = -1;
 702              		.loc 1 343 0
 703 00ce 0120     		movs	r0, #1
 704              	.LVL56:
 705 00d0 4042     		rsbs	r0, r0, #0
 706 00d2 B060     		str	r0, [r6, #8]
 344:jsmn-master/jsmn.h ****           token->end = parser->pos + 1;
 707              		.loc 1 344 0
 708 00d4 0131     		adds	r1, r1, #1
 709 00d6 9160     		str	r1, [r2, #8]
 345:jsmn-master/jsmn.h ****           break;
 710              		.loc 1 345 0
 711 00d8 02E0     		b	.L52
 712              	.LVL57:
 713              	.L51:
 337:jsmn-master/jsmn.h ****         token = &tokens[i];
 714              		.loc 1 337 0 discriminator 2
 715 00da 013B     		subs	r3, r3, #1
 716              	.LVL58:
 717              	.L50:
 337:jsmn-master/jsmn.h ****         token = &tokens[i];
 718              		.loc 1 337 0 is_stmt 0 discriminator 1
 719 00dc 002B     		cmp	r3, #0
 720 00de EADA     		bge	.L53
 721              	.LVL59:
 722              	.L52:
ARM GAS  C:\Users\theGu\AppData\Local\Temp\ccrdky73.s 			page 20


 346:jsmn-master/jsmn.h ****         }
 347:jsmn-master/jsmn.h ****       }
 348:jsmn-master/jsmn.h ****       /* Error if unmatched closing bracket */
 349:jsmn-master/jsmn.h ****       if (i == -1) {
 723              		.loc 1 349 0 is_stmt 1
 724 00e0 5A1C     		adds	r2, r3, #1
 725 00e2 0BD1     		bne	.L54
 726 00e4 84E0     		b	.L69
 727              	.L56:
 350:jsmn-master/jsmn.h ****         return JSMN_ERROR_INVAL;
 351:jsmn-master/jsmn.h ****       }
 352:jsmn-master/jsmn.h ****       for (; i >= 0; i--) {
 353:jsmn-master/jsmn.h ****         token = &tokens[i];
 728              		.loc 1 353 0
 729 00e6 1A01     		lsls	r2, r3, #4
 730 00e8 A218     		adds	r2, r4, r2
 731              	.LVL60:
 354:jsmn-master/jsmn.h ****         if (token->start != -1 && token->end == -1) {
 732              		.loc 1 354 0
 733 00ea 5168     		ldr	r1, [r2, #4]
 734 00ec 0131     		adds	r1, r1, #1
 735 00ee 04D0     		beq	.L55
 736              		.loc 1 354 0 is_stmt 0 discriminator 1
 737 00f0 9268     		ldr	r2, [r2, #8]
 738              	.LVL61:
 739 00f2 0132     		adds	r2, r2, #1
 740 00f4 01D1     		bne	.L55
 355:jsmn-master/jsmn.h ****           parser->toksuper = i;
 741              		.loc 1 355 0 is_stmt 1
 742 00f6 B360     		str	r3, [r6, #8]
 356:jsmn-master/jsmn.h ****           break;
 743              		.loc 1 356 0
 744 00f8 57E0     		b	.L39
 745              	.L55:
 352:jsmn-master/jsmn.h ****         token = &tokens[i];
 746              		.loc 1 352 0
 747 00fa 013B     		subs	r3, r3, #1
 748              	.LVL62:
 749              	.L54:
 352:jsmn-master/jsmn.h ****         token = &tokens[i];
 750              		.loc 1 352 0 is_stmt 0 discriminator 1
 751 00fc 002B     		cmp	r3, #0
 752 00fe F2DA     		bge	.L56
 753 0100 53E0     		b	.L39
 754              	.LVL63:
 755              	.L41:
 357:jsmn-master/jsmn.h ****         }
 358:jsmn-master/jsmn.h ****       }
 359:jsmn-master/jsmn.h **** #endif
 360:jsmn-master/jsmn.h ****       break;
 361:jsmn-master/jsmn.h ****     case '\"':
 362:jsmn-master/jsmn.h ****       r = jsmn_parse_string(parser, js, len, tokens, num_tokens);
 756              		.loc 1 362 0 is_stmt 1
 757 0102 0A9B     		ldr	r3, [sp, #40]
 758              	.LVL64:
 759 0104 0093     		str	r3, [sp]
 760 0106 2300     		movs	r3, r4
ARM GAS  C:\Users\theGu\AppData\Local\Temp\ccrdky73.s 			page 21


 761 0108 3A00     		movs	r2, r7
 762 010a 4146     		mov	r1, r8
 763 010c 3000     		movs	r0, r6
 764 010e FFF7FEFF 		bl	jsmn_parse_string
 765              	.LVL65:
 363:jsmn-master/jsmn.h ****       if (r < 0) {
 766              		.loc 1 363 0
 767 0112 0028     		cmp	r0, #0
 768 0114 73DB     		blt	.L46
 364:jsmn-master/jsmn.h ****         return r;
 365:jsmn-master/jsmn.h ****       }
 366:jsmn-master/jsmn.h ****       count++;
 769              		.loc 1 366 0
 770 0116 0123     		movs	r3, #1
 771 0118 9C46     		mov	ip, r3
 772 011a E144     		add	r9, r9, ip
 773              	.LVL66:
 367:jsmn-master/jsmn.h ****       if (parser->toksuper != -1 && tokens != NULL) {
 774              		.loc 1 367 0
 775 011c B368     		ldr	r3, [r6, #8]
 776 011e 5A1C     		adds	r2, r3, #1
 777 0120 43D0     		beq	.L39
 778              		.loc 1 367 0 is_stmt 0 discriminator 1
 779 0122 002C     		cmp	r4, #0
 780 0124 41D0     		beq	.L39
 368:jsmn-master/jsmn.h ****         tokens[parser->toksuper].size++;
 781              		.loc 1 368 0 is_stmt 1
 782 0126 1B01     		lsls	r3, r3, #4
 783 0128 E318     		adds	r3, r4, r3
 784 012a DA68     		ldr	r2, [r3, #12]
 785 012c 0132     		adds	r2, r2, #1
 786 012e DA60     		str	r2, [r3, #12]
 787 0130 3BE0     		b	.L39
 788              	.LVL67:
 789              	.L44:
 369:jsmn-master/jsmn.h ****       }
 370:jsmn-master/jsmn.h ****       break;
 371:jsmn-master/jsmn.h ****     case '\t':
 372:jsmn-master/jsmn.h ****     case '\r':
 373:jsmn-master/jsmn.h ****     case '\n':
 374:jsmn-master/jsmn.h ****     case ' ':
 375:jsmn-master/jsmn.h ****       break;
 376:jsmn-master/jsmn.h ****     case ':':
 377:jsmn-master/jsmn.h ****       parser->toksuper = parser->toknext - 1;
 790              		.loc 1 377 0
 791 0132 7368     		ldr	r3, [r6, #4]
 792              	.LVL68:
 793 0134 013B     		subs	r3, r3, #1
 794 0136 B360     		str	r3, [r6, #8]
 378:jsmn-master/jsmn.h ****       break;
 795              		.loc 1 378 0
 796 0138 37E0     		b	.L39
 797              	.LVL69:
 798              	.L37:
 379:jsmn-master/jsmn.h ****     case ',':
 380:jsmn-master/jsmn.h ****       if (tokens != NULL && parser->toksuper != -1 &&
 799              		.loc 1 380 0
ARM GAS  C:\Users\theGu\AppData\Local\Temp\ccrdky73.s 			page 22


 800 013a 002C     		cmp	r4, #0
 801 013c 35D0     		beq	.L39
 802              		.loc 1 380 0 is_stmt 0 discriminator 1
 803 013e B368     		ldr	r3, [r6, #8]
 804              	.LVL70:
 805 0140 5A1C     		adds	r2, r3, #1
 806 0142 32D0     		beq	.L39
 381:jsmn-master/jsmn.h ****           tokens[parser->toksuper].type != JSMN_ARRAY &&
 807              		.loc 1 381 0 is_stmt 1 discriminator 2
 808 0144 1B01     		lsls	r3, r3, #4
 809 0146 E35C     		ldrb	r3, [r4, r3]
 380:jsmn-master/jsmn.h ****           tokens[parser->toksuper].type != JSMN_ARRAY &&
 810              		.loc 1 380 0 discriminator 2
 811 0148 022B     		cmp	r3, #2
 812 014a 2ED0     		beq	.L39
 813              		.loc 1 381 0
 814 014c 012B     		cmp	r3, #1
 815 014e 2CD0     		beq	.L39
 382:jsmn-master/jsmn.h ****           tokens[parser->toksuper].type != JSMN_OBJECT) {
 383:jsmn-master/jsmn.h **** #ifdef JSMN_PARENT_LINKS
 384:jsmn-master/jsmn.h ****         parser->toksuper = tokens[parser->toksuper].parent;
 385:jsmn-master/jsmn.h **** #else
 386:jsmn-master/jsmn.h ****         for (i = parser->toknext - 1; i >= 0; i--) {
 816              		.loc 1 386 0
 817 0150 7368     		ldr	r3, [r6, #4]
 818 0152 591E     		subs	r1, r3, #1
 819              	.LVL71:
 820 0154 0FE0     		b	.L57
 821              	.L59:
 387:jsmn-master/jsmn.h ****           if (tokens[i].type == JSMN_ARRAY || tokens[i].type == JSMN_OBJECT) {
 822              		.loc 1 387 0
 823 0156 0A01     		lsls	r2, r1, #4
 824 0158 A218     		adds	r2, r4, r2
 825 015a 1378     		ldrb	r3, [r2]
 826 015c 013B     		subs	r3, r3, #1
 827 015e DBB2     		uxtb	r3, r3
 828 0160 012B     		cmp	r3, #1
 829 0162 07D8     		bhi	.L58
 388:jsmn-master/jsmn.h ****             if (tokens[i].start != -1 && tokens[i].end == -1) {
 830              		.loc 1 388 0
 831 0164 5368     		ldr	r3, [r2, #4]
 832 0166 0133     		adds	r3, r3, #1
 833 0168 04D0     		beq	.L58
 834              		.loc 1 388 0 is_stmt 0 discriminator 1
 835 016a 9368     		ldr	r3, [r2, #8]
 836 016c 0133     		adds	r3, r3, #1
 837 016e 01D1     		bne	.L58
 389:jsmn-master/jsmn.h ****               parser->toksuper = i;
 838              		.loc 1 389 0 is_stmt 1
 839 0170 B160     		str	r1, [r6, #8]
 390:jsmn-master/jsmn.h ****               break;
 840              		.loc 1 390 0
 841 0172 1AE0     		b	.L39
 842              	.L58:
 386:jsmn-master/jsmn.h ****           if (tokens[i].type == JSMN_ARRAY || tokens[i].type == JSMN_OBJECT) {
 843              		.loc 1 386 0 discriminator 2
 844 0174 0139     		subs	r1, r1, #1
ARM GAS  C:\Users\theGu\AppData\Local\Temp\ccrdky73.s 			page 23


 845              	.LVL72:
 846              	.L57:
 386:jsmn-master/jsmn.h ****           if (tokens[i].type == JSMN_ARRAY || tokens[i].type == JSMN_OBJECT) {
 847              		.loc 1 386 0 is_stmt 0 discriminator 1
 848 0176 0029     		cmp	r1, #0
 849 0178 EDDA     		bge	.L59
 850 017a 16E0     		b	.L39
 851              	.LVL73:
 852              	.L36:
 391:jsmn-master/jsmn.h ****             }
 392:jsmn-master/jsmn.h ****           }
 393:jsmn-master/jsmn.h ****         }
 394:jsmn-master/jsmn.h **** #endif
 395:jsmn-master/jsmn.h ****       }
 396:jsmn-master/jsmn.h ****       break;
 397:jsmn-master/jsmn.h **** #ifdef JSMN_STRICT
 398:jsmn-master/jsmn.h ****     /* In strict mode primitives are: numbers and booleans */
 399:jsmn-master/jsmn.h ****     case '-':
 400:jsmn-master/jsmn.h ****     case '0':
 401:jsmn-master/jsmn.h ****     case '1':
 402:jsmn-master/jsmn.h ****     case '2':
 403:jsmn-master/jsmn.h ****     case '3':
 404:jsmn-master/jsmn.h ****     case '4':
 405:jsmn-master/jsmn.h ****     case '5':
 406:jsmn-master/jsmn.h ****     case '6':
 407:jsmn-master/jsmn.h ****     case '7':
 408:jsmn-master/jsmn.h ****     case '8':
 409:jsmn-master/jsmn.h ****     case '9':
 410:jsmn-master/jsmn.h ****     case 't':
 411:jsmn-master/jsmn.h ****     case 'f':
 412:jsmn-master/jsmn.h ****     case 'n':
 413:jsmn-master/jsmn.h ****       /* And they must not be keys of the object */
 414:jsmn-master/jsmn.h ****       if (tokens != NULL && parser->toksuper != -1) {
 415:jsmn-master/jsmn.h ****         const jsmntok_t *t = &tokens[parser->toksuper];
 416:jsmn-master/jsmn.h ****         if (t->type == JSMN_OBJECT ||
 417:jsmn-master/jsmn.h ****             (t->type == JSMN_STRING && t->size != 0)) {
 418:jsmn-master/jsmn.h ****           return JSMN_ERROR_INVAL;
 419:jsmn-master/jsmn.h ****         }
 420:jsmn-master/jsmn.h ****       }
 421:jsmn-master/jsmn.h **** #else
 422:jsmn-master/jsmn.h ****     /* In non-strict mode every unquoted value is a primitive */
 423:jsmn-master/jsmn.h ****     default:
 424:jsmn-master/jsmn.h **** #endif
 425:jsmn-master/jsmn.h ****       r = jsmn_parse_primitive(parser, js, len, tokens, num_tokens);
 853              		.loc 1 425 0 is_stmt 1
 854 017c 0A9B     		ldr	r3, [sp, #40]
 855 017e 0093     		str	r3, [sp]
 856 0180 2300     		movs	r3, r4
 857 0182 3A00     		movs	r2, r7
 858 0184 4146     		mov	r1, r8
 859 0186 3000     		movs	r0, r6
 860 0188 FFF7FEFF 		bl	jsmn_parse_primitive
 861              	.LVL74:
 426:jsmn-master/jsmn.h ****       if (r < 0) {
 862              		.loc 1 426 0
 863 018c 0028     		cmp	r0, #0
 864 018e 36DB     		blt	.L46
ARM GAS  C:\Users\theGu\AppData\Local\Temp\ccrdky73.s 			page 24


 427:jsmn-master/jsmn.h ****         return r;
 428:jsmn-master/jsmn.h ****       }
 429:jsmn-master/jsmn.h ****       count++;
 865              		.loc 1 429 0
 866 0190 0123     		movs	r3, #1
 867 0192 9C46     		mov	ip, r3
 868 0194 E144     		add	r9, r9, ip
 869              	.LVL75:
 430:jsmn-master/jsmn.h ****       if (parser->toksuper != -1 && tokens != NULL) {
 870              		.loc 1 430 0
 871 0196 B368     		ldr	r3, [r6, #8]
 872 0198 5A1C     		adds	r2, r3, #1
 873 019a 06D0     		beq	.L39
 874              		.loc 1 430 0 is_stmt 0 discriminator 1
 875 019c 002C     		cmp	r4, #0
 876 019e 04D0     		beq	.L39
 431:jsmn-master/jsmn.h ****         tokens[parser->toksuper].size++;
 877              		.loc 1 431 0 is_stmt 1
 878 01a0 1B01     		lsls	r3, r3, #4
 879 01a2 E318     		adds	r3, r4, r3
 880 01a4 DA68     		ldr	r2, [r3, #12]
 881 01a6 0132     		adds	r2, r2, #1
 882 01a8 DA60     		str	r2, [r3, #12]
 883              	.LVL76:
 884              	.L39:
 885              	.LBE5:
 275:jsmn-master/jsmn.h ****     char c;
 886              		.loc 1 275 0
 887 01aa 3368     		ldr	r3, [r6]
 888 01ac 0133     		adds	r3, r3, #1
 889 01ae 3360     		str	r3, [r6]
 890              	.L35:
 275:jsmn-master/jsmn.h ****     char c;
 891              		.loc 1 275 0 is_stmt 0 discriminator 1
 892 01b0 3168     		ldr	r1, [r6]
 893 01b2 B942     		cmp	r1, r7
 894 01b4 04D2     		bcs	.L60
 275:jsmn-master/jsmn.h ****     char c;
 895              		.loc 1 275 0 discriminator 2
 896 01b6 4346     		mov	r3, r8
 897 01b8 5D5C     		ldrb	r5, [r3, r1]
 898 01ba 002D     		cmp	r5, #0
 899 01bc 00D0     		beq	.LCB880
 900 01be 2BE7     		b	.L61	@long jump
 901              	.LCB880:
 902              	.L60:
 432:jsmn-master/jsmn.h ****       }
 433:jsmn-master/jsmn.h ****       break;
 434:jsmn-master/jsmn.h **** 
 435:jsmn-master/jsmn.h **** #ifdef JSMN_STRICT
 436:jsmn-master/jsmn.h ****     /* Unexpected char in strict mode */
 437:jsmn-master/jsmn.h ****     default:
 438:jsmn-master/jsmn.h ****       return JSMN_ERROR_INVAL;
 439:jsmn-master/jsmn.h **** #endif
 440:jsmn-master/jsmn.h ****     }
 441:jsmn-master/jsmn.h ****   }
 442:jsmn-master/jsmn.h **** 
ARM GAS  C:\Users\theGu\AppData\Local\Temp\ccrdky73.s 			page 25


 443:jsmn-master/jsmn.h ****   if (tokens != NULL) {
 903              		.loc 1 443 0 is_stmt 1
 904 01c0 002C     		cmp	r4, #0
 905 01c2 18D0     		beq	.L72
 444:jsmn-master/jsmn.h ****     for (i = parser->toknext - 1; i >= 0; i--) {
 906              		.loc 1 444 0
 907 01c4 7268     		ldr	r2, [r6, #4]
 908 01c6 013A     		subs	r2, r2, #1
 909              	.LVL77:
 910 01c8 08E0     		b	.L62
 911              	.L64:
 445:jsmn-master/jsmn.h ****       /* Unmatched opened object or array */
 446:jsmn-master/jsmn.h ****       if (tokens[i].start != -1 && tokens[i].end == -1) {
 912              		.loc 1 446 0
 913 01ca 1301     		lsls	r3, r2, #4
 914 01cc E318     		adds	r3, r4, r3
 915 01ce 5968     		ldr	r1, [r3, #4]
 916 01d0 0131     		adds	r1, r1, #1
 917 01d2 02D0     		beq	.L63
 918              		.loc 1 446 0 is_stmt 0 discriminator 1
 919 01d4 9B68     		ldr	r3, [r3, #8]
 920 01d6 0133     		adds	r3, r3, #1
 921 01d8 0FD0     		beq	.L73
 922              	.L63:
 444:jsmn-master/jsmn.h ****     for (i = parser->toknext - 1; i >= 0; i--) {
 923              		.loc 1 444 0 is_stmt 1 discriminator 2
 924 01da 013A     		subs	r2, r2, #1
 925              	.LVL78:
 926              	.L62:
 444:jsmn-master/jsmn.h ****     for (i = parser->toknext - 1; i >= 0; i--) {
 927              		.loc 1 444 0 is_stmt 0 discriminator 1
 928 01dc 002A     		cmp	r2, #0
 929 01de F4DA     		bge	.L64
 447:jsmn-master/jsmn.h ****         return JSMN_ERROR_PART;
 448:jsmn-master/jsmn.h ****       }
 449:jsmn-master/jsmn.h ****     }
 450:jsmn-master/jsmn.h ****   }
 451:jsmn-master/jsmn.h **** 
 452:jsmn-master/jsmn.h ****   return count;
 930              		.loc 1 452 0 is_stmt 1
 931 01e0 4846     		mov	r0, r9
 932 01e2 0CE0     		b	.L46
 933              	.LVL79:
 934              	.L65:
 935              	.LBB7:
 289:jsmn-master/jsmn.h ****       }
 936              		.loc 1 289 0
 937 01e4 0120     		movs	r0, #1
 938              	.LVL80:
 939 01e6 4042     		rsbs	r0, r0, #0
 940 01e8 09E0     		b	.L46
 941              	.LVL81:
 942              	.L68:
 341:jsmn-master/jsmn.h ****           }
 943              		.loc 1 341 0
 944 01ea 0220     		movs	r0, #2
 945              	.LVL82:
ARM GAS  C:\Users\theGu\AppData\Local\Temp\ccrdky73.s 			page 26


 946 01ec 4042     		rsbs	r0, r0, #0
 947 01ee 06E0     		b	.L46
 948              	.LVL83:
 949              	.L69:
 350:jsmn-master/jsmn.h ****       }
 950              		.loc 1 350 0
 951 01f0 0220     		movs	r0, #2
 952 01f2 4042     		rsbs	r0, r0, #0
 953 01f4 03E0     		b	.L46
 954              	.LVL84:
 955              	.L72:
 956              	.LBE7:
 957              		.loc 1 452 0
 958 01f6 4846     		mov	r0, r9
 959 01f8 01E0     		b	.L46
 960              	.LVL85:
 961              	.L73:
 447:jsmn-master/jsmn.h ****       }
 962              		.loc 1 447 0
 963 01fa 0320     		movs	r0, #3
 964 01fc 4042     		rsbs	r0, r0, #0
 965              	.LVL86:
 966              	.L46:
 453:jsmn-master/jsmn.h **** }
 967              		.loc 1 453 0
 968 01fe 03B0     		add	sp, sp, #12
 969              		@ sp needed
 970              	.LVL87:
 971              	.LVL88:
 972              	.LVL89:
 973              	.LVL90:
 974              	.LVL91:
 975 0200 0CBC     		pop	{r2, r3}
 976 0202 9046     		mov	r8, r2
 977 0204 9946     		mov	r9, r3
 978 0206 F0BD     		pop	{r4, r5, r6, r7, pc}
 979              		.cfi_endproc
 980              	.LFE65:
 981              		.size	jsmn_parse, .-jsmn_parse
 982              		.section	.text.jsmn_init,"ax",%progbits
 983              		.align	2
 984              		.global	jsmn_init
 985              		.code	16
 986              		.thumb_func
 987              		.type	jsmn_init, %function
 988              	jsmn_init:
 989              	.LFB66:
 454:jsmn-master/jsmn.h **** 
 455:jsmn-master/jsmn.h **** /**
 456:jsmn-master/jsmn.h ****  * Creates a new parser based over a given buffer with an array of tokens
 457:jsmn-master/jsmn.h ****  * available.
 458:jsmn-master/jsmn.h ****  */
 459:jsmn-master/jsmn.h **** JSMN_API void jsmn_init(jsmn_parser *parser) {
 990              		.loc 1 459 0
 991              		.cfi_startproc
 992              		@ args = 0, pretend = 0, frame = 0
 993              		@ frame_needed = 0, uses_anonymous_args = 0
ARM GAS  C:\Users\theGu\AppData\Local\Temp\ccrdky73.s 			page 27


 994              		@ link register save eliminated.
 995              	.LVL92:
 460:jsmn-master/jsmn.h ****   parser->pos = 0;
 996              		.loc 1 460 0
 997 0000 0023     		movs	r3, #0
 998 0002 0360     		str	r3, [r0]
 461:jsmn-master/jsmn.h ****   parser->toknext = 0;
 999              		.loc 1 461 0
 1000 0004 4360     		str	r3, [r0, #4]
 462:jsmn-master/jsmn.h ****   parser->toksuper = -1;
 1001              		.loc 1 462 0
 1002 0006 013B     		subs	r3, r3, #1
 1003 0008 8360     		str	r3, [r0, #8]
 463:jsmn-master/jsmn.h **** }
 1004              		.loc 1 463 0
 1005              		@ sp needed
 1006 000a 7047     		bx	lr
 1007              		.cfi_endproc
 1008              	.LFE66:
 1009              		.size	jsmn_init, .-jsmn_init
 1010              		.section	.text.resetCharJSON,"ax",%progbits
 1011              		.align	2
 1012              		.global	resetCharJSON
 1013              		.code	16
 1014              		.thumb_func
 1015              		.type	resetCharJSON, %function
 1016              	resetCharJSON:
 1017              	.LFB67:
 1018              		.file 2 "JSONParser.c"
   1:JSONParser.c  **** /* ========================================
   2:JSONParser.c  ****  *
   3:JSONParser.c  ****  * Copyright YOUR COMPANY, THE YEAR
   4:JSONParser.c  ****  * All Rights Reserved
   5:JSONParser.c  ****  * UNPUBLISHED, LICENSED SOFTWARE.
   6:JSONParser.c  ****  *
   7:JSONParser.c  ****  * CONFIDENTIAL AND PROPRIETARY INFORMATION
   8:JSONParser.c  ****  * WHICH IS THE PROPERTY OF your company.
   9:JSONParser.c  ****  *
  10:JSONParser.c  ****  * ========================================
  11:JSONParser.c  **** */
  12:JSONParser.c  **** #include "JSONParser.h"
  13:JSONParser.c  **** 
  14:JSONParser.c  **** #include "jsmn-master/jsmn.h"
  15:JSONParser.c  **** #include "uart.h"
  16:JSONParser.c  **** #include "displayInfo.h"
  17:JSONParser.c  **** 
  18:JSONParser.c  **** #include "menu.h"
  19:JSONParser.c  **** #include "RealTimeClock.h"
  20:JSONParser.c  **** #include "LEDControl.h"
  21:JSONParser.c  **** #include "USBUARTConfig.h"
  22:JSONParser.c  **** #include "eeprom.h"
  23:JSONParser.c  **** 
  24:JSONParser.c  **** #define JSON_SIZE 1000
  25:JSONParser.c  **** 
  26:JSONParser.c  **** char g_JSONString[JSON_SIZE+1];
  27:JSONParser.c  **** uint16 g_nSizeOfJONString = 0;
  28:JSONParser.c  **** 
ARM GAS  C:\Users\theGu\AppData\Local\Temp\ccrdky73.s 			page 28


  29:JSONParser.c  **** static uint8 g_bJSONStart = FALSE;
  30:JSONParser.c  **** static uint32 g_uJSONCount = 0;
  31:JSONParser.c  **** static uint32 g_uJSONStringCount = 0;
  32:JSONParser.c  **** static uint8 g_bLastJSON = FALSE;
  33:JSONParser.c  **** 
  34:JSONParser.c  **** void resetCharJSON()
  35:JSONParser.c  **** {
 1019              		.loc 2 35 0
 1020              		.cfi_startproc
 1021              		@ args = 0, pretend = 0, frame = 0
 1022              		@ frame_needed = 0, uses_anonymous_args = 0
 1023              		@ link register save eliminated.
  36:JSONParser.c  ****     g_nSizeOfJONString = 0;
 1024              		.loc 2 36 0
 1025 0000 054B     		ldr	r3, .L76
 1026 0002 0022     		movs	r2, #0
 1027 0004 1A80     		strh	r2, [r3]
  37:JSONParser.c  ****     g_uJSONStringCount = 0;
 1028              		.loc 2 37 0
 1029 0006 5A60     		str	r2, [r3, #4]
  38:JSONParser.c  ****     
  39:JSONParser.c  ****     g_bJSONStart = FALSE;
 1030              		.loc 2 39 0
 1031 0008 0021     		movs	r1, #0
 1032 000a 0020     		movs	r0, #0
 1033 000c 1872     		strb	r0, [r3, #8]
  40:JSONParser.c  ****     g_uJSONCount = 0;
 1034              		.loc 2 40 0
 1035 000e DA60     		str	r2, [r3, #12]
  41:JSONParser.c  ****     g_bLastJSON = FALSE;  
 1036              		.loc 2 41 0
 1037 0010 1974     		strb	r1, [r3, #16]
  42:JSONParser.c  ****     
  43:JSONParser.c  ****     g_JSONString[0] = 0;
 1038              		.loc 2 43 0
 1039 0012 024B     		ldr	r3, .L76+4
 1040 0014 1970     		strb	r1, [r3]
  44:JSONParser.c  **** }
 1041              		.loc 2 44 0
 1042              		@ sp needed
 1043 0016 7047     		bx	lr
 1044              	.L77:
 1045              		.align	2
 1046              	.L76:
 1047 0018 00000000 		.word	.LANCHOR0
 1048 001c 00000000 		.word	g_JSONString
 1049              		.cfi_endproc
 1050              	.LFE67:
 1051              		.size	resetCharJSON, .-resetCharJSON
 1052              		.section	.text.pushCharJSON,"ax",%progbits
 1053              		.align	2
 1054              		.global	pushCharJSON
 1055              		.code	16
 1056              		.thumb_func
 1057              		.type	pushCharJSON, %function
 1058              	pushCharJSON:
 1059              	.LFB68:
ARM GAS  C:\Users\theGu\AppData\Local\Temp\ccrdky73.s 			page 29


  45:JSONParser.c  **** 
  46:JSONParser.c  **** uint8 pushCharJSON(char c)
  47:JSONParser.c  **** {
 1060              		.loc 2 47 0
 1061              		.cfi_startproc
 1062              		@ args = 0, pretend = 0, frame = 0
 1063              		@ frame_needed = 0, uses_anonymous_args = 0
 1064              		@ link register save eliminated.
 1065              	.LVL93:
  48:JSONParser.c  ****     g_JSONString[g_nSizeOfJONString++] = c;
 1066              		.loc 2 48 0
 1067 0000 064A     		ldr	r2, .L79
 1068 0002 1188     		ldrh	r1, [r2]
 1069 0004 4B1C     		adds	r3, r1, #1
 1070 0006 9BB2     		uxth	r3, r3
 1071 0008 1380     		strh	r3, [r2]
 1072 000a 054A     		ldr	r2, .L79+4
 1073 000c 5054     		strb	r0, [r2, r1]
  49:JSONParser.c  ****     g_JSONString[g_nSizeOfJONString]  = '\0';
 1074              		.loc 2 49 0
 1075 000e 0020     		movs	r0, #0
 1076              	.LVL94:
 1077 0010 D054     		strb	r0, [r2, r3]
 1078              	.LVL95:
  50:JSONParser.c  **** 
  51:JSONParser.c  ****  //    UART_RS232_PutChar(c);
  52:JSONParser.c  ****    //  DEBUG_PutChar(c);
  53:JSONParser.c  ****     return (g_nSizeOfJONString < JSON_SIZE);
 1079              		.loc 2 53 0
 1080 0012 044A     		ldr	r2, .L79+8
 1081 0014 9A42     		cmp	r2, r3
 1082 0016 4041     		adcs	r0, r0, r0
 1083 0018 C0B2     		uxtb	r0, r0
  54:JSONParser.c  **** }
 1084              		.loc 2 54 0
 1085              		@ sp needed
 1086 001a 7047     		bx	lr
 1087              	.L80:
 1088              		.align	2
 1089              	.L79:
 1090 001c 00000000 		.word	.LANCHOR0
 1091 0020 00000000 		.word	g_JSONString
 1092 0024 E7030000 		.word	999
 1093              		.cfi_endproc
 1094              	.LFE68:
 1095              		.size	pushCharJSON, .-pushCharJSON
 1096              		.section	.text.printJSON,"ax",%progbits
 1097              		.align	2
 1098              		.global	printJSON
 1099              		.code	16
 1100              		.thumb_func
 1101              		.type	printJSON, %function
 1102              	printJSON:
 1103              	.LFB71:
  55:JSONParser.c  **** //
  56:JSONParser.c  **** // return 0: not JSON, 1: JSON, 2: End of JSON
  57:JSONParser.c  **** uint8 pushJSON(char c)
ARM GAS  C:\Users\theGu\AppData\Local\Temp\ccrdky73.s 			page 30


  58:JSONParser.c  **** {
  59:JSONParser.c  ****     switch(c)
  60:JSONParser.c  ****     {
  61:JSONParser.c  ****         case '[':
  62:JSONParser.c  ****         case '{': g_uJSONCount++; break;
  63:JSONParser.c  ****         case ']':
  64:JSONParser.c  ****         case '}': g_uJSONCount--; break;
  65:JSONParser.c  ****         case LF :
  66:JSONParser.c  ****         case CR : if(g_bLastJSON)
  67:JSONParser.c  ****         {
  68:JSONParser.c  ****         //    DEBUG_immediately_printf("<-CR]");
  69:JSONParser.c  ****             return 2;
  70:JSONParser.c  ****         }break;
  71:JSONParser.c  ****     }
  72:JSONParser.c  ****      //   DEBUG_printf("%c",c);    
  73:JSONParser.c  ****     if(g_uJSONCount > 0)
  74:JSONParser.c  ****     {
  75:JSONParser.c  ****         g_bJSONStart = TRUE;
  76:JSONParser.c  ****         g_uJSONStringCount++;
  77:JSONParser.c  ****     }
  78:JSONParser.c  ****     
  79:JSONParser.c  ****     if(g_uJSONCount > 0 || (g_uJSONCount == 0 && (c == '}' || c == ']')))  
  80:JSONParser.c  ****     {        
  81:JSONParser.c  ****         g_bLastJSON = TRUE;
  82:JSONParser.c  ****         pushCharJSON(c);
  83:JSONParser.c  **** 
  84:JSONParser.c  ****         if(g_bJSONStart && g_uJSONCount == 0)
  85:JSONParser.c  ****         {     
  86:JSONParser.c  ****         //    DEBUG_printf(".");
  87:JSONParser.c  ****             
  88:JSONParser.c  ****               //   DEBUG_printf("JSON:%s::::\r\n",g_JSONString);
  89:JSONParser.c  ****             if(JSONParse() == FALSE) return 3;
  90:JSONParser.c  ****            // DEBUG_printf("PARSING OK <-END]");
  91:JSONParser.c  **** 
  92:JSONParser.c  ****             return 2;
  93:JSONParser.c  ****         }
  94:JSONParser.c  ****         
  95:JSONParser.c  ****         return 1;
  96:JSONParser.c  ****     }
  97:JSONParser.c  ****     
  98:JSONParser.c  ****     g_bJSONStart = FALSE;
  99:JSONParser.c  ****     g_bLastJSON = FALSE;
 100:JSONParser.c  ****     return 0;
 101:JSONParser.c  **** }
 102:JSONParser.c  **** 
 103:JSONParser.c  **** 
 104:JSONParser.c  **** uint8 parsingReceivedData(uint8 *data)
 105:JSONParser.c  **** {
 106:JSONParser.c  ****     uint16 nLength = strlen((char *) data);
 107:JSONParser.c  ****     //DEBUG_printf("PARSING START--->\r\n");
 108:JSONParser.c  ****     uint8 uLastStat=0;
 109:JSONParser.c  ****     for(int i=0; i < nLength; i++)
 110:JSONParser.c  ****     {
 111:JSONParser.c  ****    //     DEBUG_printf("%d : %c\r\n",i, data[i]);
 112:JSONParser.c  ****         if((uLastStat = pushJSON(data[i]))==2)
 113:JSONParser.c  ****         {
 114:JSONParser.c  ****             resetCharJSON();
ARM GAS  C:\Users\theGu\AppData\Local\Temp\ccrdky73.s 			page 31


 115:JSONParser.c  ****             break;
 116:JSONParser.c  ****         }
 117:JSONParser.c  ****     }
 118:JSONParser.c  ****   //  DEBUG_printf("PARSING END--->\r\n");
 119:JSONParser.c  **** //    DEBUG_printf("LastStat %d\r\n", uLastStat);
 120:JSONParser.c  ****     return uLastStat;
 121:JSONParser.c  **** }
 122:JSONParser.c  **** 
 123:JSONParser.c  **** void printJSON()
 124:JSONParser.c  **** {
 1104              		.loc 2 124 0
 1105              		.cfi_startproc
 1106              		@ args = 0, pretend = 0, frame = 0
 1107              		@ frame_needed = 0, uses_anonymous_args = 0
 1108 0000 10B5     		push	{r4, lr}
 1109              		.cfi_def_cfa_offset 8
 1110              		.cfi_offset 4, -8
 1111              		.cfi_offset 14, -4
 125:JSONParser.c  ****     DEBUG_printf(g_JSONString);
 1112              		.loc 2 125 0
 1113 0002 0248     		ldr	r0, .L82
 1114 0004 FFF7FEFF 		bl	DEBUG_printf
 1115              	.LVL96:
 126:JSONParser.c  **** }
 1116              		.loc 2 126 0
 1117              		@ sp needed
 1118 0008 10BD     		pop	{r4, pc}
 1119              	.L83:
 1120 000a C046     		.align	2
 1121              	.L82:
 1122 000c 00000000 		.word	g_JSONString
 1123              		.cfi_endproc
 1124              	.LFE71:
 1125              		.size	printJSON, .-printJSON
 1126              		.section	.text.GetJSON_Token_String,"ax",%progbits
 1127              		.align	2
 1128              		.global	GetJSON_Token_String
 1129              		.code	16
 1130              		.thumb_func
 1131              		.type	GetJSON_Token_String, %function
 1132              	GetJSON_Token_String:
 1133              	.LFB73:
 127:JSONParser.c  **** 
 128:JSONParser.c  **** 
 129:JSONParser.c  **** static int jsoneq(const char *json, jsmntok_t *tok, const char *s) {
 130:JSONParser.c  ****   if (tok->type == JSMN_STRING && (int)strlen(s) == tok->end - tok->start &&
 131:JSONParser.c  ****       strncmp(json + tok->start, s, tok->end - tok->start) == 0) {
 132:JSONParser.c  ****     return 0;
 133:JSONParser.c  ****   }
 134:JSONParser.c  ****   return -1;
 135:JSONParser.c  **** }
 136:JSONParser.c  **** 
 137:JSONParser.c  **** char *GetJSON_Token_String(jsmntok_t *tok, const char * g_JSONString)
 138:JSONParser.c  **** {
 1134              		.loc 2 138 0
 1135              		.cfi_startproc
 1136              		@ args = 0, pretend = 0, frame = 0
ARM GAS  C:\Users\theGu\AppData\Local\Temp\ccrdky73.s 			page 32


 1137              		@ frame_needed = 0, uses_anonymous_args = 0
 1138              	.LVL97:
 1139 0000 10B5     		push	{r4, lr}
 1140              		.cfi_def_cfa_offset 8
 1141              		.cfi_offset 4, -8
 1142              		.cfi_offset 14, -4
 139:JSONParser.c  ****     static char buff[1024];
 140:JSONParser.c  ****     
 141:JSONParser.c  ****     sprintf(buff,"%.*s",tok->end - tok->start, g_JSONString + tok->start);
 1143              		.loc 2 141 0
 1144 0002 8268     		ldr	r2, [r0, #8]
 1145 0004 4068     		ldr	r0, [r0, #4]
 1146              	.LVL98:
 1147 0006 0B18     		adds	r3, r1, r0
 1148 0008 121A     		subs	r2, r2, r0
 1149 000a 044C     		ldr	r4, .L85
 1150 000c 1434     		adds	r4, r4, #20
 1151 000e 0449     		ldr	r1, .L85+4
 1152              	.LVL99:
 1153 0010 2000     		movs	r0, r4
 1154 0012 FFF7FEFF 		bl	sprintf
 1155              	.LVL100:
 142:JSONParser.c  ****     
 143:JSONParser.c  ****     return buff;
 144:JSONParser.c  **** }
 1156              		.loc 2 144 0
 1157 0016 2000     		movs	r0, r4
 1158              		@ sp needed
 1159 0018 10BD     		pop	{r4, pc}
 1160              	.L86:
 1161 001a C046     		.align	2
 1162              	.L85:
 1163 001c 00000000 		.word	.LANCHOR0
 1164 0020 00000000 		.word	.LC6
 1165              		.cfi_endproc
 1166              	.LFE73:
 1167              		.size	GetJSON_Token_String, .-GetJSON_Token_String
 1168              		.section	.text.JSONParse,"ax",%progbits
 1169              		.align	2
 1170              		.global	JSONParse
 1171              		.code	16
 1172              		.thumb_func
 1173              		.type	JSONParse, %function
 1174              	JSONParse:
 1175              	.LFB74:
 145:JSONParser.c  **** 
 146:JSONParser.c  **** 
 147:JSONParser.c  **** uint8 JSONParse()
 148:JSONParser.c  **** {
 1176              		.loc 2 148 0
 1177              		.cfi_startproc
 1178              		@ args = 0, pretend = 0, frame = 0
 1179              		@ frame_needed = 0, uses_anonymous_args = 0
 1180              		@ link register save eliminated.
 149:JSONParser.c  ****     if(g_nSizeOfJONString == 0) return FALSE;
 1181              		.loc 2 149 0
 1182 0000 034B     		ldr	r3, .L90
ARM GAS  C:\Users\theGu\AppData\Local\Temp\ccrdky73.s 			page 33


 1183 0002 1B88     		ldrh	r3, [r3]
 1184 0004 002B     		cmp	r3, #0
 1185 0006 01D1     		bne	.L89
 1186 0008 0020     		movs	r0, #0
 1187 000a 00E0     		b	.L88
 1188              	.L89:
 150:JSONParser.c  ****  
 151:JSONParser.c  **** //    uint16 type = g_uAndonRequestType;
 152:JSONParser.c  **** //    g_uAndonRequestType = ANDON_NONE;
 153:JSONParser.c  **** //    
 154:JSONParser.c  **** //    switch(type)
 155:JSONParser.c  **** //    {
 156:JSONParser.c  **** //        case ANDON_CURRENT_TIME:        return JSON_CurrentTimeParsing(); break;
 157:JSONParser.c  **** //        case ANDON_GET_DEVICE_NAME:     return JSON_GetDeviceName();      break;
 158:JSONParser.c  **** //        case ANDON_REQUEST_LIST:        return JSON_MenuParsing();        break;
 159:JSONParser.c  **** //        case ANDON_LIST_SEND   :        return JSON_ListSend();           break;
 160:JSONParser.c  **** //        case ANDON_LIST_STAT   :        return JSON_ListStat();           break;      
 161:JSONParser.c  **** //        case ANDON_DEVICE_REGISTRATION: return JSON_DeviceRegistration(); break;
 162:JSONParser.c  **** //        // NONE ANDON COMMAND        
 163:JSONParser.c  **** //        default:                        return JSON_Config();             break;
 164:JSONParser.c  **** //    }
 165:JSONParser.c  ****             
 166:JSONParser.c  ****     return TRUE;
 1189              		.loc 2 166 0
 1190 000c 0120     		movs	r0, #1
 1191              	.L88:
 167:JSONParser.c  ****     
 168:JSONParser.c  **** }
 1192              		.loc 2 168 0
 1193              		@ sp needed
 1194 000e 7047     		bx	lr
 1195              	.L91:
 1196              		.align	2
 1197              	.L90:
 1198 0010 00000000 		.word	.LANCHOR0
 1199              		.cfi_endproc
 1200              	.LFE74:
 1201              		.size	JSONParse, .-JSONParse
 1202              		.section	.text.pushJSON,"ax",%progbits
 1203              		.align	2
 1204              		.global	pushJSON
 1205              		.code	16
 1206              		.thumb_func
 1207              		.type	pushJSON, %function
 1208              	pushJSON:
 1209              	.LFB69:
  58:JSONParser.c  ****     switch(c)
 1210              		.loc 2 58 0
 1211              		.cfi_startproc
 1212              		@ args = 0, pretend = 0, frame = 0
 1213              		@ frame_needed = 0, uses_anonymous_args = 0
 1214              	.LVL101:
 1215 0000 10B5     		push	{r4, lr}
 1216              		.cfi_def_cfa_offset 8
 1217              		.cfi_offset 4, -8
 1218              		.cfi_offset 14, -4
  59:JSONParser.c  ****     {
ARM GAS  C:\Users\theGu\AppData\Local\Temp\ccrdky73.s 			page 34


 1219              		.loc 2 59 0
 1220 0002 5B28     		cmp	r0, #91
 1221 0004 0CD0     		beq	.L94
 1222 0006 04D8     		bhi	.L95
 1223 0008 0A28     		cmp	r0, #10
 1224 000a 13D0     		beq	.L96
 1225 000c 0D28     		cmp	r0, #13
 1226 000e 11D0     		beq	.L96
 1227 0010 14E0     		b	.L93
 1228              	.L95:
 1229 0012 7B28     		cmp	r0, #123
 1230 0014 04D0     		beq	.L94
 1231 0016 7D28     		cmp	r0, #125
 1232 0018 07D0     		beq	.L97
 1233 001a 5D28     		cmp	r0, #93
 1234 001c 0ED1     		bne	.L93
 1235 001e 04E0     		b	.L97
 1236              	.L94:
  62:JSONParser.c  ****         case ']':
 1237              		.loc 2 62 0
 1238 0020 1E4A     		ldr	r2, .L106
 1239 0022 D368     		ldr	r3, [r2, #12]
 1240 0024 0133     		adds	r3, r3, #1
 1241 0026 D360     		str	r3, [r2, #12]
 1242 0028 08E0     		b	.L93
 1243              	.L97:
  64:JSONParser.c  ****         case LF :
 1244              		.loc 2 64 0
 1245 002a 1C4A     		ldr	r2, .L106
 1246 002c D368     		ldr	r3, [r2, #12]
 1247 002e 013B     		subs	r3, r3, #1
 1248 0030 D360     		str	r3, [r2, #12]
 1249 0032 03E0     		b	.L93
 1250              	.L96:
  66:JSONParser.c  ****         {
 1251              		.loc 2 66 0
 1252 0034 194B     		ldr	r3, .L106
 1253 0036 1B7C     		ldrb	r3, [r3, #16]
 1254 0038 002B     		cmp	r3, #0
 1255 003a 27D1     		bne	.L102
 1256              	.L93:
  73:JSONParser.c  ****     {
 1257              		.loc 2 73 0
 1258 003c 174B     		ldr	r3, .L106
 1259 003e DB68     		ldr	r3, [r3, #12]
 1260 0040 002B     		cmp	r3, #0
 1261 0042 05D0     		beq	.L99
  75:JSONParser.c  ****         g_uJSONStringCount++;
 1262              		.loc 2 75 0
 1263 0044 154A     		ldr	r2, .L106
 1264 0046 0121     		movs	r1, #1
 1265 0048 1172     		strb	r1, [r2, #8]
  76:JSONParser.c  ****     }
 1266              		.loc 2 76 0
 1267 004a 5168     		ldr	r1, [r2, #4]
 1268 004c 0131     		adds	r1, r1, #1
 1269 004e 5160     		str	r1, [r2, #4]
ARM GAS  C:\Users\theGu\AppData\Local\Temp\ccrdky73.s 			page 35


 1270              	.L99:
  79:JSONParser.c  ****     {        
 1271              		.loc 2 79 0
 1272 0050 002B     		cmp	r3, #0
 1273 0052 03D1     		bne	.L100
  79:JSONParser.c  ****     {        
 1274              		.loc 2 79 0 is_stmt 0 discriminator 1
 1275 0054 7D28     		cmp	r0, #125
 1276 0056 01D0     		beq	.L100
  79:JSONParser.c  ****     {        
 1277              		.loc 2 79 0 discriminator 2
 1278 0058 5D28     		cmp	r0, #93
 1279 005a 11D1     		bne	.L101
 1280              	.L100:
  81:JSONParser.c  ****         pushCharJSON(c);
 1281              		.loc 2 81 0 is_stmt 1
 1282 005c 0F4C     		ldr	r4, .L106
 1283 005e 0123     		movs	r3, #1
 1284 0060 2374     		strb	r3, [r4, #16]
  82:JSONParser.c  **** 
 1285              		.loc 2 82 0
 1286 0062 FFF7FEFF 		bl	pushCharJSON
 1287              	.LVL102:
  84:JSONParser.c  ****         {     
 1288              		.loc 2 84 0
 1289 0066 237A     		ldrb	r3, [r4, #8]
 1290 0068 002B     		cmp	r3, #0
 1291 006a 11D0     		beq	.L103
  84:JSONParser.c  ****         {     
 1292              		.loc 2 84 0 is_stmt 0 discriminator 1
 1293 006c 0B4B     		ldr	r3, .L106
 1294 006e DB68     		ldr	r3, [r3, #12]
 1295 0070 002B     		cmp	r3, #0
 1296 0072 0FD1     		bne	.L104
  89:JSONParser.c  ****            // DEBUG_printf("PARSING OK <-END]");
 1297              		.loc 2 89 0 is_stmt 1
 1298 0074 FFF7FEFF 		bl	JSONParse
 1299              	.LVL103:
 1300 0078 0028     		cmp	r0, #0
 1301 007a 0DD1     		bne	.L105
 1302 007c 0330     		adds	r0, r0, #3
 1303 007e 0CE0     		b	.L98
 1304              	.LVL104:
 1305              	.L101:
  98:JSONParser.c  ****     g_bLastJSON = FALSE;
 1306              		.loc 2 98 0
 1307 0080 064B     		ldr	r3, .L106
 1308 0082 0022     		movs	r2, #0
 1309 0084 1A72     		strb	r2, [r3, #8]
  99:JSONParser.c  ****     return 0;
 1310              		.loc 2 99 0
 1311 0086 1A74     		strb	r2, [r3, #16]
 100:JSONParser.c  **** }
 1312              		.loc 2 100 0
 1313 0088 0020     		movs	r0, #0
 1314              	.LVL105:
 1315 008a 06E0     		b	.L98
ARM GAS  C:\Users\theGu\AppData\Local\Temp\ccrdky73.s 			page 36


 1316              	.LVL106:
 1317              	.L102:
  69:JSONParser.c  ****         }break;
 1318              		.loc 2 69 0
 1319 008c 0220     		movs	r0, #2
 1320              	.LVL107:
 1321 008e 04E0     		b	.L98
 1322              	.L103:
  95:JSONParser.c  ****     }
 1323              		.loc 2 95 0
 1324 0090 0120     		movs	r0, #1
 1325 0092 02E0     		b	.L98
 1326              	.L104:
 1327 0094 0120     		movs	r0, #1
 1328 0096 00E0     		b	.L98
 1329              	.L105:
  92:JSONParser.c  ****         }
 1330              		.loc 2 92 0
 1331 0098 0220     		movs	r0, #2
 1332              	.L98:
 101:JSONParser.c  **** 
 1333              		.loc 2 101 0
 1334              		@ sp needed
 1335 009a 10BD     		pop	{r4, pc}
 1336              	.L107:
 1337              		.align	2
 1338              	.L106:
 1339 009c 00000000 		.word	.LANCHOR0
 1340              		.cfi_endproc
 1341              	.LFE69:
 1342              		.size	pushJSON, .-pushJSON
 1343              		.section	.text.parsingReceivedData,"ax",%progbits
 1344              		.align	2
 1345              		.global	parsingReceivedData
 1346              		.code	16
 1347              		.thumb_func
 1348              		.type	parsingReceivedData, %function
 1349              	parsingReceivedData:
 1350              	.LFB70:
 105:JSONParser.c  ****     uint16 nLength = strlen((char *) data);
 1351              		.loc 2 105 0
 1352              		.cfi_startproc
 1353              		@ args = 0, pretend = 0, frame = 0
 1354              		@ frame_needed = 0, uses_anonymous_args = 0
 1355              	.LVL108:
 1356 0000 F8B5     		push	{r3, r4, r5, r6, r7, lr}
 1357              		.cfi_def_cfa_offset 24
 1358              		.cfi_offset 3, -24
 1359              		.cfi_offset 4, -20
 1360              		.cfi_offset 5, -16
 1361              		.cfi_offset 6, -12
 1362              		.cfi_offset 7, -8
 1363              		.cfi_offset 14, -4
 1364 0002 0700     		movs	r7, r0
 106:JSONParser.c  ****     //DEBUG_printf("PARSING START--->\r\n");
 1365              		.loc 2 106 0
 1366 0004 FFF7FEFF 		bl	strlen
ARM GAS  C:\Users\theGu\AppData\Local\Temp\ccrdky73.s 			page 37


 1367              	.LVL109:
 1368 0008 0600     		movs	r6, r0
 1369              	.LVL110:
 1370              	.LBB8:
 109:JSONParser.c  ****     {
 1371              		.loc 2 109 0
 1372 000a 0025     		movs	r5, #0
 1373              	.LBE8:
 108:JSONParser.c  ****     for(int i=0; i < nLength; i++)
 1374              		.loc 2 108 0
 1375 000c 0024     		movs	r4, #0
 1376              	.LBB9:
 109:JSONParser.c  ****     {
 1377              		.loc 2 109 0
 1378 000e 09E0     		b	.L109
 1379              	.LVL111:
 1380              	.L112:
 112:JSONParser.c  ****         {
 1381              		.loc 2 112 0
 1382 0010 785D     		ldrb	r0, [r7, r5]
 1383 0012 FFF7FEFF 		bl	pushJSON
 1384              	.LVL112:
 1385 0016 0400     		movs	r4, r0
 1386              	.LVL113:
 1387 0018 0228     		cmp	r0, #2
 1388 001a 02D1     		bne	.L110
 114:JSONParser.c  ****             break;
 1389              		.loc 2 114 0
 1390 001c FFF7FEFF 		bl	resetCharJSON
 1391              	.LVL114:
 115:JSONParser.c  ****         }
 1392              		.loc 2 115 0
 1393 0020 04E0     		b	.L111
 1394              	.LVL115:
 1395              	.L110:
 109:JSONParser.c  ****     {
 1396              		.loc 2 109 0 discriminator 2
 1397 0022 0135     		adds	r5, r5, #1
 1398              	.LVL116:
 1399              	.L109:
 109:JSONParser.c  ****     {
 1400              		.loc 2 109 0 is_stmt 0 discriminator 1
 1401 0024 3304     		lsls	r3, r6, #16
 1402 0026 1B0C     		lsrs	r3, r3, #16
 1403 0028 9D42     		cmp	r5, r3
 1404 002a F1DB     		blt	.L112
 1405              	.LVL117:
 1406              	.L111:
 1407              	.LBE9:
 121:JSONParser.c  **** 
 1408              		.loc 2 121 0 is_stmt 1
 1409 002c 2000     		movs	r0, r4
 1410              		@ sp needed
 1411              	.LVL118:
 1412              	.LVL119:
 1413              	.LVL120:
 1414              	.LVL121:
ARM GAS  C:\Users\theGu\AppData\Local\Temp\ccrdky73.s 			page 38


 1415 002e F8BD     		pop	{r3, r4, r5, r6, r7, pc}
 1416              		.cfi_endproc
 1417              	.LFE70:
 1418              		.size	parsingReceivedData, .-parsingReceivedData
 1419              		.global	g_nSizeOfJONString
 1420              		.comm	g_JSONString,1001,4
 1421              		.comm	Param,6,4
 1422              		.section	.rodata.str1.4,"aMS",%progbits,1
 1423              		.align	2
 1424              	.LC6:
 1425 0000 252E2A73 		.ascii	"%.*s\000"
 1425      00
 1426              		.bss
 1427              		.align	2
 1428              		.set	.LANCHOR0,. + 0
 1429              		.type	g_nSizeOfJONString, %object
 1430              		.size	g_nSizeOfJONString, 2
 1431              	g_nSizeOfJONString:
 1432 0000 0000     		.space	2
 1433 0002 0000     		.space	2
 1434              		.type	g_uJSONStringCount, %object
 1435              		.size	g_uJSONStringCount, 4
 1436              	g_uJSONStringCount:
 1437 0004 00000000 		.space	4
 1438              		.type	g_bJSONStart, %object
 1439              		.size	g_bJSONStart, 1
 1440              	g_bJSONStart:
 1441 0008 00       		.space	1
 1442 0009 000000   		.space	3
 1443              		.type	g_uJSONCount, %object
 1444              		.size	g_uJSONCount, 4
 1445              	g_uJSONCount:
 1446 000c 00000000 		.space	4
 1447              		.type	g_bLastJSON, %object
 1448              		.size	g_bLastJSON, 1
 1449              	g_bLastJSON:
 1450 0010 00       		.space	1
 1451 0011 000000   		.space	3
 1452              		.type	buff.9008, %object
 1453              		.size	buff.9008, 1024
 1454              	buff.9008:
 1455 0014 00000000 		.space	1024
 1455      00000000 
 1455      00000000 
 1455      00000000 
 1455      00000000 
 1456              		.text
 1457              	.Letext0:
 1458              		.file 3 "Generated_Source\\PSoC4/cytypes.h"
 1459              		.file 4 "c:\\program files (x86)\\cypress\\psoc creator\\4.4\\psoc creator\\import\\gnu\\arm\\5.4.
 1460              		.file 5 "main.h"
 1461              		.file 6 "uart.h"
 1462              		.file 7 "c:\\program files (x86)\\cypress\\psoc creator\\4.4\\psoc creator\\import\\gnu\\arm\\5.4.
 1463              		.file 8 "c:\\program files (x86)\\cypress\\psoc creator\\4.4\\psoc creator\\import\\gnu\\arm\\5.4.