ARM GAS  C:\Users\luvsd\AppData\Local\Temp\ccnAWQX7.s 			page 1


   1              		.syntax unified
   2              		.cpu cortex-m0
   3              		.fpu softvfp
   4              		.eabi_attribute 20, 1
   5              		.eabi_attribute 21, 1
   6              		.eabi_attribute 23, 3
   7              		.eabi_attribute 24, 1
   8              		.eabi_attribute 25, 1
   9              		.eabi_attribute 26, 1
  10              		.eabi_attribute 30, 1
  11              		.eabi_attribute 34, 0
  12              		.eabi_attribute 18, 4
  13              		.thumb
  14              		.syntax unified
  15              		.file	"menu.c"
  16              		.text
  17              	.Ltext0:
  18              		.cfi_sections	.debug_frame
  19              		.section	.text.initMenu,"ax",%progbits
  20              		.align	2
  21              		.global	initMenu
  22              		.code	16
  23              		.thumb_func
  24              		.type	initMenu, %function
  25              	initMenu:
  26              	.LFB62:
  27              		.file 1 "lib\\menu.c"
   1:lib/menu.c    **** /* ========================================
   2:lib/menu.c    ****  *
   3:lib/menu.c    ****  * Copyright Suntech, 2023.02.01
   4:lib/menu.c    ****  * All Rights Reserved
   5:lib/menu.c    ****  * UNPUBLISHED, LICENSED SOFTWARE.
   6:lib/menu.c    ****  *
   7:lib/menu.c    ****  * CONFIDENTIAL AND PROPRIETARY INFORMATION
   8:lib/menu.c    ****  * WHICH IS THE PROPERTY OF Suntech.
   9:lib/menu.c    ****  *
  10:lib/menu.c    ****  * ========================================
  11:lib/menu.c    **** */
  12:lib/menu.c    **** #include "menu.h"
  13:lib/menu.c    **** 
  14:lib/menu.c    **** MENUNODE *g_MenuNode;
  15:lib/menu.c    **** MENUNODE *g_TopMenuNode;
  16:lib/menu.c    **** 
  17:lib/menu.c    **** void initMenu()
  18:lib/menu.c    **** {    
  28              		.loc 1 18 0
  29              		.cfi_startproc
  30              		@ args = 0, pretend = 0, frame = 0
  31              		@ frame_needed = 0, uses_anonymous_args = 0
  32 0000 10B5     		push	{r4, lr}
  33              		.cfi_def_cfa_offset 8
  34              		.cfi_offset 4, -8
  35              		.cfi_offset 14, -4
  19:lib/menu.c    ****     g_TopMenuNode = g_MenuNode = menuCreate();
  36              		.loc 1 19 0
  37 0002 FFF7FEFF 		bl	menuCreate
  38              	.LVL0:
ARM GAS  C:\Users\luvsd\AppData\Local\Temp\ccnAWQX7.s 			page 2


  39 0006 024B     		ldr	r3, .L2
  40 0008 1860     		str	r0, [r3]
  41 000a 024B     		ldr	r3, .L2+4
  42 000c 1860     		str	r0, [r3]
  20:lib/menu.c    **** }
  43              		.loc 1 20 0
  44              		@ sp needed
  45 000e 10BD     		pop	{r4, pc}
  46              	.L3:
  47              		.align	2
  48              	.L2:
  49 0010 00000000 		.word	g_MenuNode
  50 0014 00000000 		.word	g_TopMenuNode
  51              		.cfi_endproc
  52              	.LFE62:
  53              		.size	initMenu, .-initMenu
  54              		.section	.text.addMENUNODE,"ax",%progbits
  55              		.align	2
  56              		.global	addMENUNODE
  57              		.code	16
  58              		.thumb_func
  59              		.type	addMENUNODE, %function
  60              	addMENUNODE:
  61              	.LFB64:
  21:lib/menu.c    **** 
  22:lib/menu.c    **** //============================================S=================================================
  23:lib/menu.c    **** #define MAX_MENU_NODE 25
  24:lib/menu.c    **** MENUNODE g_MENUNODE[MAX_MENU_NODE];
  25:lib/menu.c    **** 
  26:lib/menu.c    **** MENUNODE * createMENUNODE(MENUNODE *parent, char *nodeName, int (*func)(void *this, uint8 reflash))
  27:lib/menu.c    **** {
  28:lib/menu.c    ****     static uint16 index=0;
  29:lib/menu.c    ****     
  30:lib/menu.c    ****     if(index >= MAX_MENU_NODE)
  31:lib/menu.c    ****     {
  32:lib/menu.c    ****         printf("MENU BODE Out of Memory : [%d]\r\n", index);
  33:lib/menu.c    ****         return NULL;
  34:lib/menu.c    ****     }
  35:lib/menu.c    ****     
  36:lib/menu.c    ****     MENUNODE *node = &g_MENUNODE[index++];
  37:lib/menu.c    ****     
  38:lib/menu.c    ****     node->parent       = parent;
  39:lib/menu.c    ****     node->func         = func;
  40:lib/menu.c    ****     node->firstChild   = NULL;
  41:lib/menu.c    ****     node->nextSibling  = NULL;
  42:lib/menu.c    ****     strcpy(node->nodeName,nodeName);
  43:lib/menu.c    ****     
  44:lib/menu.c    ****     if(parent != NULL) addMENUNODE(parent,node);
  45:lib/menu.c    ****     
  46:lib/menu.c    ****     return node;
  47:lib/menu.c    **** }
  48:lib/menu.c    **** 
  49:lib/menu.c    **** void addMENUNODE(MENUNODE *parent, MENUNODE *newChild)
  50:lib/menu.c    **** {
  62              		.loc 1 50 0
  63              		.cfi_startproc
  64              		@ args = 0, pretend = 0, frame = 0
ARM GAS  C:\Users\luvsd\AppData\Local\Temp\ccnAWQX7.s 			page 3


  65              		@ frame_needed = 0, uses_anonymous_args = 0
  66              		@ link register save eliminated.
  67              	.LVL1:
  51:lib/menu.c    ****     MENUNODE *temp;
  52:lib/menu.c    ****     
  53:lib/menu.c    ****     if(parent->firstChild == NULL)
  68              		.loc 1 53 0
  69 0000 4268     		ldr	r2, [r0, #4]
  70 0002 002A     		cmp	r2, #0
  71 0004 02D1     		bne	.L5
  54:lib/menu.c    ****     {
  55:lib/menu.c    ****         parent->firstChild = newChild;
  72              		.loc 1 55 0
  73 0006 4160     		str	r1, [r0, #4]
  74 0008 04E0     		b	.L6
  75              	.LVL2:
  76              	.L7:
  56:lib/menu.c    ****     } else {
  57:lib/menu.c    ****         temp = parent->firstChild;
  58:lib/menu.c    ****         while(temp->nextSibling != NULL)
  59:lib/menu.c    ****         {
  60:lib/menu.c    ****             temp = temp->nextSibling;
  77              		.loc 1 60 0
  78 000a 1A00     		movs	r2, r3
  79              	.LVL3:
  80              	.L5:
  58:lib/menu.c    ****         {
  81              		.loc 1 58 0
  82 000c 9368     		ldr	r3, [r2, #8]
  83 000e 002B     		cmp	r3, #0
  84 0010 FBD1     		bne	.L7
  61:lib/menu.c    ****         }
  62:lib/menu.c    ****         temp->nextSibling = newChild;
  85              		.loc 1 62 0
  86 0012 9160     		str	r1, [r2, #8]
  87              	.LVL4:
  88              	.L6:
  63:lib/menu.c    **** 
  64:lib/menu.c    ****     }
  65:lib/menu.c    ****     newChild->parent = parent;
  89              		.loc 1 65 0
  90 0014 0860     		str	r0, [r1]
  66:lib/menu.c    **** }
  91              		.loc 1 66 0
  92              		@ sp needed
  93 0016 7047     		bx	lr
  94              		.cfi_endproc
  95              	.LFE64:
  96              		.size	addMENUNODE, .-addMENUNODE
  97              		.section	.text.createMENUNODE,"ax",%progbits
  98              		.align	2
  99              		.global	createMENUNODE
 100              		.code	16
 101              		.thumb_func
 102              		.type	createMENUNODE, %function
 103              	createMENUNODE:
 104              	.LFB63:
ARM GAS  C:\Users\luvsd\AppData\Local\Temp\ccnAWQX7.s 			page 4


  27:lib/menu.c    ****     static uint16 index=0;
 105              		.loc 1 27 0
 106              		.cfi_startproc
 107              		@ args = 0, pretend = 0, frame = 0
 108              		@ frame_needed = 0, uses_anonymous_args = 0
 109              	.LVL5:
 110 0000 F8B5     		push	{r3, r4, r5, r6, r7, lr}
 111              		.cfi_def_cfa_offset 24
 112              		.cfi_offset 3, -24
 113              		.cfi_offset 4, -20
 114              		.cfi_offset 5, -16
 115              		.cfi_offset 6, -12
 116              		.cfi_offset 7, -8
 117              		.cfi_offset 14, -4
 118 0002 0600     		movs	r6, r0
 119 0004 9446     		mov	ip, r2
  30:lib/menu.c    ****     {
 120              		.loc 1 30 0
 121 0006 134B     		ldr	r3, .L12
 122 0008 1B88     		ldrh	r3, [r3]
 123 000a 182B     		cmp	r3, #24
 124 000c 05D9     		bls	.L9
  32:lib/menu.c    ****         return NULL;
 125              		.loc 1 32 0
 126 000e 1900     		movs	r1, r3
 127              	.LVL6:
 128 0010 1148     		ldr	r0, .L12+4
 129              	.LVL7:
 130 0012 FFF7FEFF 		bl	printf
 131              	.LVL8:
  33:lib/menu.c    ****     }
 132              		.loc 1 33 0
 133 0016 0020     		movs	r0, #0
 134 0018 1BE0     		b	.L10
 135              	.LVL9:
 136              	.L9:
  36:lib/menu.c    ****     
 137              		.loc 1 36 0
 138 001a 581C     		adds	r0, r3, #1
 139              	.LVL10:
 140 001c 0D4A     		ldr	r2, .L12
 141              	.LVL11:
 142 001e 1080     		strh	r0, [r2]
 143 0020 DF00     		lsls	r7, r3, #3
 144 0022 F818     		adds	r0, r7, r3
 145 0024 8400     		lsls	r4, r0, #2
 146 0026 2000     		movs	r0, r4
 147 0028 0C4D     		ldr	r5, .L12+8
 148 002a 6419     		adds	r4, r4, r5
 149              	.LVL12:
  38:lib/menu.c    ****     node->func         = func;
 150              		.loc 1 38 0
 151 002c 4651     		str	r6, [r0, r5]
  39:lib/menu.c    ****     node->firstChild   = NULL;
 152              		.loc 1 39 0
 153 002e 6246     		mov	r2, ip
 154 0030 E260     		str	r2, [r4, #12]
ARM GAS  C:\Users\luvsd\AppData\Local\Temp\ccnAWQX7.s 			page 5


  40:lib/menu.c    ****     node->nextSibling  = NULL;
 155              		.loc 1 40 0
 156 0032 0022     		movs	r2, #0
 157 0034 6260     		str	r2, [r4, #4]
  41:lib/menu.c    ****     strcpy(node->nodeName,nodeName);
 158              		.loc 1 41 0
 159 0036 A260     		str	r2, [r4, #8]
  42:lib/menu.c    ****     
 160              		.loc 1 42 0
 161 0038 1030     		adds	r0, r0, #16
 162 003a 4019     		adds	r0, r0, r5
 163 003c FFF7FEFF 		bl	strcpy
 164              	.LVL13:
  44:lib/menu.c    ****     
 165              		.loc 1 44 0
 166 0040 002E     		cmp	r6, #0
 167 0042 05D0     		beq	.L11
  44:lib/menu.c    ****     
 168              		.loc 1 44 0 is_stmt 0 discriminator 1
 169 0044 2100     		movs	r1, r4
 170 0046 3000     		movs	r0, r6
 171 0048 FFF7FEFF 		bl	addMENUNODE
 172              	.LVL14:
  46:lib/menu.c    **** }
 173              		.loc 1 46 0 is_stmt 1 discriminator 1
 174 004c 2000     		movs	r0, r4
 175 004e 00E0     		b	.L10
 176              	.L11:
  46:lib/menu.c    **** }
 177              		.loc 1 46 0 is_stmt 0
 178 0050 2000     		movs	r0, r4
 179              	.LVL15:
 180              	.L10:
  47:lib/menu.c    **** 
 181              		.loc 1 47 0 is_stmt 1
 182              		@ sp needed
 183              	.LVL16:
 184 0052 F8BD     		pop	{r3, r4, r5, r6, r7, pc}
 185              	.L13:
 186              		.align	2
 187              	.L12:
 188 0054 00000000 		.word	.LANCHOR0
 189 0058 00000000 		.word	.LC3
 190 005c 00000000 		.word	g_MENUNODE
 191              		.cfi_endproc
 192              	.LFE63:
 193              		.size	createMENUNODE, .-createMENUNODE
 194              		.section	.text.getNoOfChild,"ax",%progbits
 195              		.align	2
 196              		.global	getNoOfChild
 197              		.code	16
 198              		.thumb_func
 199              		.type	getNoOfChild, %function
 200              	getNoOfChild:
 201              	.LFB65:
  67:lib/menu.c    **** 
  68:lib/menu.c    **** int getNoOfChild(MENUNODE *parent)
ARM GAS  C:\Users\luvsd\AppData\Local\Temp\ccnAWQX7.s 			page 6


  69:lib/menu.c    **** {
 202              		.loc 1 69 0
 203              		.cfi_startproc
 204              		@ args = 0, pretend = 0, frame = 0
 205              		@ frame_needed = 0, uses_anonymous_args = 0
 206              		@ link register save eliminated.
 207              	.LVL17:
  70:lib/menu.c    ****     MENUNODE *temp = parent->firstChild;    
 208              		.loc 1 70 0
 209 0000 4368     		ldr	r3, [r0, #4]
 210              	.LVL18:
  71:lib/menu.c    ****     int count = 0;
 211              		.loc 1 71 0
 212 0002 0020     		movs	r0, #0
 213              	.LVL19:
  72:lib/menu.c    ****     
  73:lib/menu.c    ****     while(temp != NULL)
 214              		.loc 1 73 0
 215 0004 01E0     		b	.L15
 216              	.LVL20:
 217              	.L16:
  74:lib/menu.c    ****     {
  75:lib/menu.c    ****         count++;
 218              		.loc 1 75 0
 219 0006 0130     		adds	r0, r0, #1
 220              	.LVL21:
  76:lib/menu.c    ****         temp = temp->nextSibling;
 221              		.loc 1 76 0
 222 0008 9B68     		ldr	r3, [r3, #8]
 223              	.LVL22:
 224              	.L15:
  73:lib/menu.c    ****     {
 225              		.loc 1 73 0
 226 000a 002B     		cmp	r3, #0
 227 000c FBD1     		bne	.L16
  77:lib/menu.c    ****     }
  78:lib/menu.c    ****     return count;
  79:lib/menu.c    **** }
 228              		.loc 1 79 0
 229              		@ sp needed
 230 000e 7047     		bx	lr
 231              		.cfi_endproc
 232              	.LFE65:
 233              		.size	getNoOfChild, .-getNoOfChild
 234              		.section	.text.getNthChild,"ax",%progbits
 235              		.align	2
 236              		.global	getNthChild
 237              		.code	16
 238              		.thumb_func
 239              		.type	getNthChild, %function
 240              	getNthChild:
 241              	.LFB66:
  80:lib/menu.c    **** 
  81:lib/menu.c    **** MENUNODE * getNthChild(MENUNODE *parent, int index)
  82:lib/menu.c    **** {
 242              		.loc 1 82 0
 243              		.cfi_startproc
ARM GAS  C:\Users\luvsd\AppData\Local\Temp\ccnAWQX7.s 			page 7


 244              		@ args = 0, pretend = 0, frame = 0
 245              		@ frame_needed = 0, uses_anonymous_args = 0
 246              		@ link register save eliminated.
 247              	.LVL23:
  83:lib/menu.c    ****     MENUNODE *temp = parent->firstChild;    
 248              		.loc 1 83 0
 249 0000 4068     		ldr	r0, [r0, #4]
 250              	.LVL24:
  84:lib/menu.c    ****     int count = 0;
 251              		.loc 1 84 0
 252 0002 0023     		movs	r3, #0
  85:lib/menu.c    ****     
  86:lib/menu.c    ****     while(temp != NULL)
 253              		.loc 1 86 0
 254 0004 03E0     		b	.L18
 255              	.LVL25:
 256              	.L20:
  87:lib/menu.c    ****     {
  88:lib/menu.c    ****         if(count == index) return temp;
 257              		.loc 1 88 0
 258 0006 8B42     		cmp	r3, r1
 259 0008 03D0     		beq	.L19
  89:lib/menu.c    ****         count++;
 260              		.loc 1 89 0
 261 000a 0133     		adds	r3, r3, #1
 262              	.LVL26:
  90:lib/menu.c    ****         temp = temp->nextSibling;
 263              		.loc 1 90 0
 264 000c 8068     		ldr	r0, [r0, #8]
 265              	.LVL27:
 266              	.L18:
  86:lib/menu.c    ****     {
 267              		.loc 1 86 0
 268 000e 0028     		cmp	r0, #0
 269 0010 F9D1     		bne	.L20
 270              	.L19:
  91:lib/menu.c    ****     }
  92:lib/menu.c    ****     return NULL;
  93:lib/menu.c    **** }
 271              		.loc 1 93 0
 272              		@ sp needed
 273 0012 7047     		bx	lr
 274              		.cfi_endproc
 275              	.LFE66:
 276              		.size	getNthChild, .-getNthChild
 277              		.section	.text.reflashMenu,"ax",%progbits
 278              		.align	2
 279              		.global	reflashMenu
 280              		.code	16
 281              		.thumb_func
 282              		.type	reflashMenu, %function
 283              	reflashMenu:
 284              	.LFB67:
  94:lib/menu.c    **** 
  95:lib/menu.c    **** void reflashMenu()
  96:lib/menu.c    **** {
 285              		.loc 1 96 0
ARM GAS  C:\Users\luvsd\AppData\Local\Temp\ccnAWQX7.s 			page 8


 286              		.cfi_startproc
 287              		@ args = 0, pretend = 0, frame = 0
 288              		@ frame_needed = 0, uses_anonymous_args = 0
 289 0000 10B5     		push	{r4, lr}
 290              		.cfi_def_cfa_offset 8
 291              		.cfi_offset 4, -8
 292              		.cfi_offset 14, -4
  97:lib/menu.c    ****     if(g_MenuNode) g_MenuNode->func(g_MenuNode,TRUE);
 293              		.loc 1 97 0
 294 0002 044B     		ldr	r3, .L24
 295 0004 1868     		ldr	r0, [r3]
 296 0006 0028     		cmp	r0, #0
 297 0008 02D0     		beq	.L22
 298              		.loc 1 97 0 is_stmt 0 discriminator 1
 299 000a C368     		ldr	r3, [r0, #12]
 300 000c 0121     		movs	r1, #1
 301 000e 9847     		blx	r3
 302              	.LVL28:
 303              	.L22:
  98:lib/menu.c    **** }
 304              		.loc 1 98 0 is_stmt 1
 305              		@ sp needed
 306 0010 10BD     		pop	{r4, pc}
 307              	.L25:
 308 0012 C046     		.align	2
 309              	.L24:
 310 0014 00000000 		.word	g_MenuNode
 311              		.cfi_endproc
 312              	.LFE67:
 313              		.size	reflashMenu, .-reflashMenu
 314              		.section	.text.MenuLoop,"ax",%progbits
 315              		.align	2
 316              		.global	MenuLoop
 317              		.code	16
 318              		.thumb_func
 319              		.type	MenuLoop, %function
 320              	MenuLoop:
 321              	.LFB68:
  99:lib/menu.c    **** 
 100:lib/menu.c    **** void MenuLoop()
 101:lib/menu.c    **** {
 322              		.loc 1 101 0
 323              		.cfi_startproc
 324              		@ args = 0, pretend = 0, frame = 0
 325              		@ frame_needed = 0, uses_anonymous_args = 0
 326 0000 10B5     		push	{r4, lr}
 327              		.cfi_def_cfa_offset 8
 328              		.cfi_offset 4, -8
 329              		.cfi_offset 14, -4
 102:lib/menu.c    ****     static uint8 reflash = TRUE;
 103:lib/menu.c    **** 
 104:lib/menu.c    ****     int subMenu = g_MenuNode->func((MENUNODE *) g_MenuNode, reflash);
 330              		.loc 1 104 0
 331 0002 174B     		ldr	r3, .L31
 332 0004 1868     		ldr	r0, [r3]
 333 0006 C368     		ldr	r3, [r0, #12]
 334 0008 164C     		ldr	r4, .L31+4
ARM GAS  C:\Users\luvsd\AppData\Local\Temp\ccnAWQX7.s 			page 9


 335 000a 2178     		ldrb	r1, [r4]
 336 000c 9847     		blx	r3
 337              	.LVL29:
 338 000e 0100     		movs	r1, r0
 339              	.LVL30:
 105:lib/menu.c    ****     if(reflash) reflash = FALSE;
 340              		.loc 1 105 0
 341 0010 2378     		ldrb	r3, [r4]
 342 0012 002B     		cmp	r3, #0
 343 0014 02D0     		beq	.L27
 344              		.loc 1 105 0 is_stmt 0 discriminator 1
 345 0016 0022     		movs	r2, #0
 346 0018 124B     		ldr	r3, .L31+4
 347 001a 1A70     		strb	r2, [r3]
 348              	.L27:
 106:lib/menu.c    **** 
 107:lib/menu.c    ****     if(subMenu == MENU_RETURN_THIS_REFLASH)
 349              		.loc 1 107 0 is_stmt 1
 350 001c 124B     		ldr	r3, .L31+8
 351 001e 9942     		cmp	r1, r3
 352 0020 03D1     		bne	.L28
 108:lib/menu.c    ****     {
 109:lib/menu.c    ****         reflash = TRUE;
 353              		.loc 1 109 0
 354 0022 0122     		movs	r2, #1
 355 0024 0F4B     		ldr	r3, .L31+4
 356 0026 1A70     		strb	r2, [r3]
 357              	.LVL31:
 110:lib/menu.c    ****         subMenu = MENU_RETURN_THIS;
 358              		.loc 1 110 0
 359 0028 1049     		ldr	r1, .L31+12
 360              	.LVL32:
 361              	.L28:
 111:lib/menu.c    ****     }
 112:lib/menu.c    **** 
 113:lib/menu.c    ****     if(subMenu != MENU_RETURN_THIS) 
 362              		.loc 1 113 0
 363 002a 104B     		ldr	r3, .L31+12
 364 002c 9942     		cmp	r1, r3
 365 002e 16D0     		beq	.L26
 114:lib/menu.c    ****     {
 115:lib/menu.c    ****         reflash = TRUE;
 366              		.loc 1 115 0
 367 0030 0122     		movs	r2, #1
 368 0032 0C4B     		ldr	r3, .L31+4
 369 0034 1A70     		strb	r2, [r3]
 116:lib/menu.c    **** 
 117:lib/menu.c    ****         if(subMenu == MENU_RETURN_PARENT)
 370              		.loc 1 117 0
 371 0036 8023     		movs	r3, #128
 372 0038 1B06     		lsls	r3, r3, #24
 373 003a 9942     		cmp	r1, r3
 374 003c 07D1     		bne	.L30
 118:lib/menu.c    ****         {
 119:lib/menu.c    ****             if(g_MenuNode->parent != NULL) g_MenuNode = g_MenuNode->parent;
 375              		.loc 1 119 0
 376 003e 084B     		ldr	r3, .L31
ARM GAS  C:\Users\luvsd\AppData\Local\Temp\ccnAWQX7.s 			page 10


 377 0040 1B68     		ldr	r3, [r3]
 378 0042 1B68     		ldr	r3, [r3]
 379 0044 002B     		cmp	r3, #0
 380 0046 0AD0     		beq	.L26
 381              		.loc 1 119 0 is_stmt 0 discriminator 1
 382 0048 054A     		ldr	r2, .L31
 383 004a 1360     		str	r3, [r2]
 384 004c 07E0     		b	.L26
 385              	.L30:
 386              	.LBB2:
 120:lib/menu.c    ****         }
 121:lib/menu.c    ****         else
 122:lib/menu.c    ****         {
 123:lib/menu.c    ****              MENUNODE * child = getNthChild(g_MenuNode, subMenu);
 387              		.loc 1 123 0 is_stmt 1
 388 004e 044B     		ldr	r3, .L31
 389 0050 1868     		ldr	r0, [r3]
 390 0052 FFF7FEFF 		bl	getNthChild
 391              	.LVL33:
 124:lib/menu.c    ****              if(child != NULL) g_MenuNode = child;
 392              		.loc 1 124 0
 393 0056 0028     		cmp	r0, #0
 394 0058 01D0     		beq	.L26
 395              		.loc 1 124 0 is_stmt 0 discriminator 1
 396 005a 014B     		ldr	r3, .L31
 397 005c 1860     		str	r0, [r3]
 398              	.LVL34:
 399              	.L26:
 400              	.LBE2:
 125:lib/menu.c    ****         }   
 126:lib/menu.c    ****    }
 127:lib/menu.c    **** }
 401              		.loc 1 127 0 is_stmt 1
 402              		@ sp needed
 403 005e 10BD     		pop	{r4, pc}
 404              	.L32:
 405              		.align	2
 406              	.L31:
 407 0060 00000000 		.word	g_MenuNode
 408 0064 00000000 		.word	.LANCHOR1
 409 0068 02000080 		.word	-2147483646
 410 006c 01000080 		.word	-2147483647
 411              		.cfi_endproc
 412              	.LFE68:
 413              		.size	MenuLoop, .-MenuLoop
 414              		.section	.text.findChildNode,"ax",%progbits
 415              		.align	2
 416              		.global	findChildNode
 417              		.code	16
 418              		.thumb_func
 419              		.type	findChildNode, %function
 420              	findChildNode:
 421              	.LFB69:
 128:lib/menu.c    **** 
 129:lib/menu.c    **** MENUNODE *findChildNode(MENUNODE *parent, char *name)
 130:lib/menu.c    **** {
 422              		.loc 1 130 0
ARM GAS  C:\Users\luvsd\AppData\Local\Temp\ccnAWQX7.s 			page 11


 423              		.cfi_startproc
 424              		@ args = 0, pretend = 0, frame = 0
 425              		@ frame_needed = 0, uses_anonymous_args = 0
 426              	.LVL35:
 427 0000 70B5     		push	{r4, r5, r6, lr}
 428              		.cfi_def_cfa_offset 16
 429              		.cfi_offset 4, -16
 430              		.cfi_offset 5, -12
 431              		.cfi_offset 6, -8
 432              		.cfi_offset 14, -4
 433 0002 0D00     		movs	r5, r1
 131:lib/menu.c    ****     MENUNODE *temp = parent->firstChild;    
 434              		.loc 1 131 0
 435 0004 4468     		ldr	r4, [r0, #4]
 436              	.LVL36:
 132:lib/menu.c    ****     int count = 0;
 133:lib/menu.c    ****     
 134:lib/menu.c    ****     while(temp != NULL)
 437              		.loc 1 134 0
 438 0006 07E0     		b	.L34
 439              	.LVL37:
 440              	.L36:
 135:lib/menu.c    ****     {
 136:lib/menu.c    ****         if(strcmp(temp->nodeName,name) == 0) return temp;
 441              		.loc 1 136 0
 442 0008 2000     		movs	r0, r4
 443 000a 1030     		adds	r0, r0, #16
 444 000c 2900     		movs	r1, r5
 445 000e FFF7FEFF 		bl	strcmp
 446              	.LVL38:
 447 0012 0028     		cmp	r0, #0
 448 0014 04D0     		beq	.L37
 137:lib/menu.c    ****         count++;
 138:lib/menu.c    ****         temp = temp->nextSibling;
 449              		.loc 1 138 0
 450 0016 A468     		ldr	r4, [r4, #8]
 451              	.LVL39:
 452              	.L34:
 134:lib/menu.c    ****     {
 453              		.loc 1 134 0
 454 0018 002C     		cmp	r4, #0
 455 001a F5D1     		bne	.L36
 139:lib/menu.c    ****     }
 140:lib/menu.c    ****     return NULL;
 456              		.loc 1 140 0
 457 001c 0020     		movs	r0, #0
 458 001e 00E0     		b	.L35
 459              	.L37:
 136:lib/menu.c    ****         count++;
 460              		.loc 1 136 0
 461 0020 2000     		movs	r0, r4
 462              	.L35:
 141:lib/menu.c    **** }
 463              		.loc 1 141 0
 464              		@ sp needed
 465              	.LVL40:
 466              	.LVL41:
ARM GAS  C:\Users\luvsd\AppData\Local\Temp\ccnAWQX7.s 			page 12


 467 0022 70BD     		pop	{r4, r5, r6, pc}
 468              		.cfi_endproc
 469              	.LFE69:
 470              		.size	findChildNode, .-findChildNode
 471              		.section	.text.isInTopMenu,"ax",%progbits
 472              		.align	2
 473              		.global	isInTopMenu
 474              		.code	16
 475              		.thumb_func
 476              		.type	isInTopMenu, %function
 477              	isInTopMenu:
 478              	.LFB70:
 142:lib/menu.c    **** 
 143:lib/menu.c    **** uint8 isInTopMenu()
 144:lib/menu.c    **** {
 479              		.loc 1 144 0
 480              		.cfi_startproc
 481              		@ args = 0, pretend = 0, frame = 0
 482              		@ frame_needed = 0, uses_anonymous_args = 0
 483              		@ link register save eliminated.
 145:lib/menu.c    ****     return (g_MenuNode == g_TopMenuNode);
 484              		.loc 1 145 0
 485 0000 044B     		ldr	r3, .L39
 486 0002 1B68     		ldr	r3, [r3]
 487 0004 044A     		ldr	r2, .L39+4
 488 0006 1068     		ldr	r0, [r2]
 489 0008 181A     		subs	r0, r3, r0
 490 000a 4342     		rsbs	r3, r0, #0
 491 000c 5841     		adcs	r0, r0, r3
 492 000e C0B2     		uxtb	r0, r0
 146:lib/menu.c    **** }
 493              		.loc 1 146 0
 494              		@ sp needed
 495 0010 7047     		bx	lr
 496              	.L40:
 497 0012 C046     		.align	2
 498              	.L39:
 499 0014 00000000 		.word	g_MenuNode
 500 0018 00000000 		.word	g_TopMenuNode
 501              		.cfi_endproc
 502              	.LFE70:
 503              		.size	isInTopMenu, .-isInTopMenu
 504              		.comm	g_MENUNODE,900,4
 505              		.comm	g_TopMenuNode,4,4
 506              		.comm	g_MenuNode,4,4
 507              		.comm	Param,6,4
 508              		.data
 509              		.set	.LANCHOR1,. + 0
 510              		.type	reflash.8867, %object
 511              		.size	reflash.8867, 1
 512              	reflash.8867:
 513 0000 01       		.byte	1
 514              		.section	.rodata.str1.4,"aMS",%progbits,1
 515              		.align	2
 516              	.LC3:
 517 0000 4D454E55 		.ascii	"MENU BODE Out of Memory : [%d]\015\012\000"
 517      20424F44 
ARM GAS  C:\Users\luvsd\AppData\Local\Temp\ccnAWQX7.s 			page 13


 517      45204F75 
 517      74206F66 
 517      204D656D 
 518              		.bss
 519              		.align	1
 520              		.set	.LANCHOR0,. + 0
 521              		.type	index.8836, %object
 522              		.size	index.8836, 2
 523              	index.8836:
 524 0000 0000     		.space	2
 525              		.text
 526              	.Letext0:
 527              		.file 2 "Generated_Source\\PSoC4/cytypes.h"
 528              		.file 3 "./main.h"
 529              		.file 4 "lib\\menu.h"
 530              		.file 5 "Generated_Source\\PSoC4/RTC.h"
 531              		.file 6 "c:\\program files (x86)\\cypress\\psoc creator\\4.4\\psoc creator\\import\\gnu\\arm\\5.4.
 532              		.file 7 "c:\\program files (x86)\\cypress\\psoc creator\\4.4\\psoc creator\\import\\gnu\\arm\\5.4.