ARM GAS  C:\Users\luvsd\AppData\Local\Temp\cce2JPVL.s 			page 1


   1              		.syntax unified
   2              		.cpu cortex-m0
   3              		.fpu softvfp
   4              		.eabi_attribute 20, 1
   5              		.eabi_attribute 21, 1
   6              		.eabi_attribute 23, 3
   7              		.eabi_attribute 24, 1
   8              		.eabi_attribute 25, 1
   9              		.eabi_attribute 26, 1
  10              		.eabi_attribute 30, 1
  11              		.eabi_attribute 34, 0
  12              		.eabi_attribute 18, 4
  13              		.thumb
  14              		.syntax unified
  15              		.file	"server.c"
  16              		.text
  17              	.Ltext0:
  18              		.cfi_sections	.debug_frame
  19              		.section	.text.initServer,"ax",%progbits
  20              		.align	2
  21              		.global	initServer
  22              		.code	16
  23              		.thumb_func
  24              		.type	initServer, %function
  25              	initServer:
  26              	.LFB62:
  27              		.file 1 "lib\\server.c"
   1:lib/server.c  **** /* ========================================
   2:lib/server.c  ****  *
   3:lib/server.c  ****  * Copyright Suntech, 2023.03.30
   4:lib/server.c  ****  * All Rights Reserved
   5:lib/server.c  ****  * UNPUBLISHED, LICENSED SOFTWARE.
   6:lib/server.c  ****  *
   7:lib/server.c  ****  * CONFIDENTIAL AND PROPRIETARY INFORMATION
   8:lib/server.c  ****  * WHICH IS THE PROPERTY OF Suntech.
   9:lib/server.c  ****  *
  10:lib/server.c  ****  * ========================================
  11:lib/server.c  **** */
  12:lib/server.c  **** #include "server.h"
  13:lib/server.c  **** #include "externalFlash.h"
  14:lib/server.c  **** 
  15:lib/server.c  **** SERVER_INFO *g_ptrServer;
  16:lib/server.c  **** 
  17:lib/server.c  **** void initServer()
  18:lib/server.c  **** {
  28              		.loc 1 18 0
  29              		.cfi_startproc
  30              		@ args = 0, pretend = 0, frame = 0
  31              		@ frame_needed = 0, uses_anonymous_args = 0
  32 0000 10B5     		push	{r4, lr}
  33              		.cfi_def_cfa_offset 8
  34              		.cfi_offset 4, -8
  35              		.cfi_offset 14, -4
  19:lib/server.c  ****     g_ptrServer = (SERVER_INFO *) & getExternalConfigData()[CONFIG_DATA_CONFIG];
  36              		.loc 1 19 0
  37 0002 FFF7FEFF 		bl	getExternalConfigData
  38              	.LVL0:
ARM GAS  C:\Users\luvsd\AppData\Local\Temp\cce2JPVL.s 			page 2


  39 0006 014B     		ldr	r3, .L2
  40 0008 1860     		str	r0, [r3]
  20:lib/server.c  **** }
  41              		.loc 1 20 0
  42              		@ sp needed
  43 000a 10BD     		pop	{r4, pc}
  44              	.L3:
  45              		.align	2
  46              	.L2:
  47 000c 00000000 		.word	g_ptrServer
  48              		.cfi_endproc
  49              	.LFE62:
  50              		.size	initServer, .-initServer
  51              		.section	.text.SetDefaultConfigServer,"ax",%progbits
  52              		.align	2
  53              		.global	SetDefaultConfigServer
  54              		.code	16
  55              		.thumb_func
  56              		.type	SetDefaultConfigServer, %function
  57              	SetDefaultConfigServer:
  58              	.LFB63:
  21:lib/server.c  **** 
  22:lib/server.c  **** void SetDefaultConfigServer()
  23:lib/server.c  **** {
  59              		.loc 1 23 0
  60              		.cfi_startproc
  61              		@ args = 0, pretend = 0, frame = 0
  62              		@ frame_needed = 0, uses_anonymous_args = 0
  63 0000 10B5     		push	{r4, lr}
  64              		.cfi_def_cfa_offset 8
  65              		.cfi_offset 4, -8
  66              		.cfi_offset 14, -4
  24:lib/server.c  ****     memset(g_ptrServer, 0, sizeof(SERVER_INFO));
  67              		.loc 1 24 0
  68 0002 104C     		ldr	r4, .L5
  69 0004 8622     		movs	r2, #134
  70 0006 0021     		movs	r1, #0
  71 0008 2068     		ldr	r0, [r4]
  72 000a FFF7FEFF 		bl	memset
  73              	.LVL1:
  25:lib/server.c  **** 
  26:lib/server.c  ****     /* 하드코딩 값으로 초기화 (외부 플래시 완전 실패 시 사용) */
  27:lib/server.c  ****     strcpy(g_ptrServer->host,       DEFAULT_SERVER_HOST);
  74              		.loc 1 27 0
  75 000e 2122     		movs	r2, #33
  76 0010 0D49     		ldr	r1, .L5+4
  77 0012 2068     		ldr	r0, [r4]
  78 0014 FFF7FEFF 		bl	memcpy
  79              	.LVL2:
  28:lib/server.c  ****     g_ptrServer->port             = DEFAULT_SERVER_PORT ? DEFAULT_SERVER_PORT : 80;
  80              		.loc 1 28 0
  81 0018 2468     		ldr	r4, [r4]
  82 001a 5023     		movs	r3, #80
  83 001c 6386     		strh	r3, [r4, #50]
  29:lib/server.c  ****     strcpy(g_ptrServer->SSID,       DEFAULT_SSID);
  84              		.loc 1 29 0
  85 001e 2000     		movs	r0, r4
ARM GAS  C:\Users\luvsd\AppData\Local\Temp\cce2JPVL.s 			page 3


  86 0020 3430     		adds	r0, r0, #52
  87 0022 0522     		movs	r2, #5
  88 0024 0949     		ldr	r1, .L5+8
  89 0026 FFF7FEFF 		bl	memcpy
  90              	.LVL3:
  30:lib/server.c  ****     strcpy(g_ptrServer->password,   DEFAULT_PASSWORD);
  91              		.loc 1 30 0
  92 002a 2000     		movs	r0, r4
  93 002c 5C30     		adds	r0, r0, #92
  94 002e 0B22     		movs	r2, #11
  95 0030 0749     		ldr	r1, .L5+12
  96 0032 FFF7FEFF 		bl	memcpy
  97              	.LVL4:
  31:lib/server.c  ****     strcpy(g_ptrServer->deviceName, DEFAULT_DEVICE_NAME);
  98              		.loc 1 31 0
  99 0036 2000     		movs	r0, r4
 100 0038 7030     		adds	r0, r0, #112
 101 003a 0C22     		movs	r2, #12
 102 003c 0549     		ldr	r1, .L5+16
 103 003e FFF7FEFF 		bl	memcpy
 104              	.LVL5:
  32:lib/server.c  **** }
 105              		.loc 1 32 0
 106              		@ sp needed
 107 0042 10BD     		pop	{r4, pc}
 108              	.L6:
 109              		.align	2
 110              	.L5:
 111 0044 00000000 		.word	g_ptrServer
 112 0048 00000000 		.word	.LC2
 113 004c 24000000 		.word	.LC4
 114 0050 2C000000 		.word	.LC6
 115 0054 38000000 		.word	.LC8
 116              		.cfi_endproc
 117              	.LFE63:
 118              		.size	SetDefaultConfigServer, .-SetDefaultConfigServer
 119              		.section	.text.ValidationConfigServer,"ax",%progbits
 120              		.align	2
 121              		.global	ValidationConfigServer
 122              		.code	16
 123              		.thumb_func
 124              		.type	ValidationConfigServer, %function
 125              	ValidationConfigServer:
 126              	.LFB64:
  33:lib/server.c  **** 
  34:lib/server.c  **** void ValidationConfigServer()
  35:lib/server.c  **** {
 127              		.loc 1 35 0
 128              		.cfi_startproc
 129              		@ args = 0, pretend = 0, frame = 0
 130              		@ frame_needed = 0, uses_anonymous_args = 0
 131 0000 10B5     		push	{r4, lr}
 132              		.cfi_def_cfa_offset 8
 133              		.cfi_offset 4, -8
 134              		.cfi_offset 14, -4
  36:lib/server.c  ****     /*
  37:lib/server.c  ****      * 우선순위: 하드코딩 현장 고정값 > 외부 플래시 저장값
ARM GAS  C:\Users\luvsd\AppData\Local\Temp\cce2JPVL.s 			page 4


  38:lib/server.c  ****      * DEFAULT_* 가 비어있으면("")  → 외부 플래시 값 그대로 사용
  39:lib/server.c  ****      * DEFAULT_* 가 비어있지 않으면 → 하드코딩 값으로 덮어쓰기
  40:lib/server.c  ****      */
  41:lib/server.c  ****     if(strlen(DEFAULT_SERVER_HOST) > 0)  strcpy(g_ptrServer->host,       DEFAULT_SERVER_HOST);
 135              		.loc 1 41 0
 136 0002 144C     		ldr	r4, .L10
 137 0004 2122     		movs	r2, #33
 138 0006 1449     		ldr	r1, .L10+4
 139 0008 2068     		ldr	r0, [r4]
 140 000a FFF7FEFF 		bl	memcpy
 141              	.LVL6:
  42:lib/server.c  ****     if(DEFAULT_SERVER_PORT > 0)          g_ptrServer->port             = DEFAULT_SERVER_PORT;
 142              		.loc 1 42 0
 143 000e 2468     		ldr	r4, [r4]
 144 0010 5023     		movs	r3, #80
 145 0012 6386     		strh	r3, [r4, #50]
  43:lib/server.c  ****     if(strlen(DEFAULT_SSID) > 0)         strcpy(g_ptrServer->SSID,       DEFAULT_SSID);
 146              		.loc 1 43 0
 147 0014 2000     		movs	r0, r4
 148 0016 3430     		adds	r0, r0, #52
 149 0018 0522     		movs	r2, #5
 150 001a 1049     		ldr	r1, .L10+8
 151 001c FFF7FEFF 		bl	memcpy
 152              	.LVL7:
  44:lib/server.c  ****     if(strlen(DEFAULT_PASSWORD) > 0)     strcpy(g_ptrServer->password,   DEFAULT_PASSWORD);
 153              		.loc 1 44 0
 154 0020 2000     		movs	r0, r4
 155 0022 5C30     		adds	r0, r0, #92
 156 0024 0B22     		movs	r2, #11
 157 0026 0E49     		ldr	r1, .L10+12
 158 0028 FFF7FEFF 		bl	memcpy
 159              	.LVL8:
  45:lib/server.c  ****     if(strlen(DEFAULT_DEVICE_NAME) > 0)  strcpy(g_ptrServer->deviceName, DEFAULT_DEVICE_NAME);
 160              		.loc 1 45 0
 161 002c 2000     		movs	r0, r4
 162 002e 7030     		adds	r0, r0, #112
 163 0030 0C22     		movs	r2, #12
 164 0032 0C49     		ldr	r1, .L10+16
 165 0034 FFF7FEFF 		bl	memcpy
 166              	.LVL9:
  46:lib/server.c  **** 
  47:lib/server.c  ****     /* 최종 폴백: host가 비어있으면 외부 플래시도 비어있음 → 하드코딩 전
  48:lib/server.c  ****     if(strlen(g_ptrServer->host) == 0)   SetDefaultConfigServer();
 167              		.loc 1 48 0
 168 0038 2378     		ldrb	r3, [r4]
 169 003a 002B     		cmp	r3, #0
 170 003c 01D1     		bne	.L8
 171              		.loc 1 48 0 is_stmt 0 discriminator 1
 172 003e FFF7FEFF 		bl	SetDefaultConfigServer
 173              	.LVL10:
 174              	.L8:
  49:lib/server.c  **** 
  50:lib/server.c  ****     /* 포트 최소값 보장 */
  51:lib/server.c  ****     if(g_ptrServer->port == 0)           g_ptrServer->port = 80;
 175              		.loc 1 51 0 is_stmt 1
 176 0042 044B     		ldr	r3, .L10
 177 0044 1B68     		ldr	r3, [r3]
ARM GAS  C:\Users\luvsd\AppData\Local\Temp\cce2JPVL.s 			page 5


 178 0046 5A8E     		ldrh	r2, [r3, #50]
 179 0048 002A     		cmp	r2, #0
 180 004a 01D1     		bne	.L7
 181              		.loc 1 51 0 is_stmt 0 discriminator 1
 182 004c 5032     		adds	r2, r2, #80
 183 004e 5A86     		strh	r2, [r3, #50]
 184              	.L7:
  52:lib/server.c  **** }
 185              		.loc 1 52 0 is_stmt 1
 186              		@ sp needed
 187 0050 10BD     		pop	{r4, pc}
 188              	.L11:
 189 0052 C046     		.align	2
 190              	.L10:
 191 0054 00000000 		.word	g_ptrServer
 192 0058 00000000 		.word	.LC2
 193 005c 24000000 		.word	.LC4
 194 0060 2C000000 		.word	.LC6
 195 0064 38000000 		.word	.LC8
 196              		.cfi_endproc
 197              	.LFE64:
 198              		.size	ValidationConfigServer, .-ValidationConfigServer
 199              		.section	.text.printConfig,"ax",%progbits
 200              		.align	2
 201              		.global	printConfig
 202              		.code	16
 203              		.thumb_func
 204              		.type	printConfig, %function
 205              	printConfig:
 206              	.LFB65:
  53:lib/server.c  **** 
  54:lib/server.c  **** void printConfig()
  55:lib/server.c  **** {
 207              		.loc 1 55 0
 208              		.cfi_startproc
 209              		@ args = 0, pretend = 0, frame = 0
 210              		@ frame_needed = 0, uses_anonymous_args = 0
 211 0000 10B5     		push	{r4, lr}
 212              		.cfi_def_cfa_offset 8
 213              		.cfi_offset 4, -8
 214              		.cfi_offset 14, -4
  56:lib/server.c  ****     if(g_ptrServer->port == 0) g_ptrServer->port = 80;
 215              		.loc 1 56 0
 216 0002 124B     		ldr	r3, .L14
 217 0004 1B68     		ldr	r3, [r3]
 218 0006 5A8E     		ldrh	r2, [r3, #50]
 219 0008 002A     		cmp	r2, #0
 220 000a 01D1     		bne	.L13
 221              		.loc 1 56 0 is_stmt 0 discriminator 1
 222 000c 5032     		adds	r2, r2, #80
 223 000e 5A86     		strh	r2, [r3, #50]
 224              	.L13:
  57:lib/server.c  **** 
  58:lib/server.c  ****     printf("\r\nConfig :\r\n");
 225              		.loc 1 58 0 is_stmt 1
 226 0010 0F48     		ldr	r0, .L14+4
 227 0012 FFF7FEFF 		bl	puts
ARM GAS  C:\Users\luvsd\AppData\Local\Temp\cce2JPVL.s 			page 6


 228              	.LVL11:
  59:lib/server.c  ****     printf("\t SSID       : %s\r\n", g_ptrServer->SSID);
 229              		.loc 1 59 0
 230 0016 0D4C     		ldr	r4, .L14
 231 0018 2168     		ldr	r1, [r4]
 232 001a 3431     		adds	r1, r1, #52
 233 001c 0D48     		ldr	r0, .L14+8
 234 001e FFF7FEFF 		bl	printf
 235              	.LVL12:
  60:lib/server.c  ****     printf("\t Password   : %s\r\n", g_ptrServer->password);
 236              		.loc 1 60 0
 237 0022 2168     		ldr	r1, [r4]
 238 0024 5C31     		adds	r1, r1, #92
 239 0026 0C48     		ldr	r0, .L14+12
 240 0028 FFF7FEFF 		bl	printf
 241              	.LVL13:
  61:lib/server.c  ****     printf("\t Server Host: %s\r\n", g_ptrServer->host);
 242              		.loc 1 61 0
 243 002c 2168     		ldr	r1, [r4]
 244 002e 0B48     		ldr	r0, .L14+16
 245 0030 FFF7FEFF 		bl	printf
 246              	.LVL14:
  62:lib/server.c  ****     printf("\t Server Port: %d\r\n", g_ptrServer->port);
 247              		.loc 1 62 0
 248 0034 2368     		ldr	r3, [r4]
 249 0036 598E     		ldrh	r1, [r3, #50]
 250 0038 0948     		ldr	r0, .L14+20
 251 003a FFF7FEFF 		bl	printf
 252              	.LVL15:
  63:lib/server.c  ****     printf("\t Device Name: %s\r\n", g_ptrServer->deviceName);
 253              		.loc 1 63 0
 254 003e 2168     		ldr	r1, [r4]
 255 0040 7031     		adds	r1, r1, #112
 256 0042 0848     		ldr	r0, .L14+24
 257 0044 FFF7FEFF 		bl	printf
 258              	.LVL16:
  64:lib/server.c  **** }
 259              		.loc 1 64 0
 260              		@ sp needed
 261 0048 10BD     		pop	{r4, pc}
 262              	.L15:
 263 004a C046     		.align	2
 264              	.L14:
 265 004c 00000000 		.word	g_ptrServer
 266 0050 44000000 		.word	.LC16
 267 0054 50000000 		.word	.LC18
 268 0058 64000000 		.word	.LC20
 269 005c 78000000 		.word	.LC22
 270 0060 8C000000 		.word	.LC24
 271 0064 A0000000 		.word	.LC26
 272              		.cfi_endproc
 273              	.LFE65:
 274              		.size	printConfig, .-printConfig
 275              		.comm	g_ptrServer,4,4
 276              		.comm	Param,6,4
 277              		.section	.rodata.str1.4,"aMS",%progbits,1
 278              		.align	2
ARM GAS  C:\Users\luvsd\AppData\Local\Temp\cce2JPVL.s 			page 7


 279              	.LC2:
 280 0000 3139322E 		.ascii	"192.168.38.72/OEE_SCI/OEE_SCI_V2\000"
 280      3136382E 
 280      33382E37 
 280      322F4F45 
 280      455F5343 
 281 0021 000000   		.space	3
 282              	.LC4:
 283 0024 69534369 		.ascii	"iSCi\000"
 283      00
 284 0029 000000   		.space	3
 285              	.LC6:
 286 002c 696F7473 		.ascii	"iotsci1234\000"
 286      63693132 
 286      333400
 287 0037 00       		.space	1
 288              	.LC8:
 289 0038 53554E54 		.ascii	"SUNTECH IoT\000"
 289      45434820 
 289      496F5400 
 290              	.LC16:
 291 0044 0D0A436F 		.ascii	"\015\012Config :\015\000"
 291      6E666967 
 291      203A0D00 
 292              	.LC18:
 293 0050 09205353 		.ascii	"\011 SSID       : %s\015\012\000"
 293      49442020 
 293      20202020 
 293      203A2025 
 293      730D0A00 
 294              	.LC20:
 295 0064 09205061 		.ascii	"\011 Password   : %s\015\012\000"
 295      7373776F 
 295      72642020 
 295      203A2025 
 295      730D0A00 
 296              	.LC22:
 297 0078 09205365 		.ascii	"\011 Server Host: %s\015\012\000"
 297      72766572 
 297      20486F73 
 297      743A2025 
 297      730D0A00 
 298              	.LC24:
 299 008c 09205365 		.ascii	"\011 Server Port: %d\015\012\000"
 299      72766572 
 299      20506F72 
 299      743A2025 
 299      640D0A00 
 300              	.LC26:
 301 00a0 09204465 		.ascii	"\011 Device Name: %s\015\012\000"
 301      76696365 
 301      204E616D 
 301      653A2025 
 301      730D0A00 
 302              		.text
 303              	.Letext0:
 304              		.file 2 "lib\\server.h"
ARM GAS  C:\Users\luvsd\AppData\Local\Temp\cce2JPVL.s 			page 8


 305              		.file 3 "Generated_Source\\PSoC4/cytypes.h"
 306              		.file 4 "./main.h"
 307              		.file 5 "Generated_Source\\PSoC4/RTC.h"
 308              		.file 6 "lib\\externalFlash.h"
 309              		.file 7 "c:\\program files (x86)\\cypress\\psoc creator\\4.4\\psoc creator\\import\\gnu\\arm\\5.4.
 310              		.file 8 "<built-in>"