ARM GAS  C:\Users\luvsd\AppData\Local\Temp\ccOVwbZz.s 			page 1


   1              		.syntax unified
   2              		.cpu cortex-m0
   3              		.fpu softvfp
   4              		.eabi_attribute 20, 1
   5              		.eabi_attribute 21, 1
   6              		.eabi_attribute 23, 3
   7              		.eabi_attribute 24, 1
   8              		.eabi_attribute 25, 1
   9              		.eabi_attribute 26, 1
  10              		.eabi_attribute 30, 1
  11              		.eabi_attribute 34, 0
  12              		.eabi_attribute 18, 4
  13              		.thumb
  14              		.syntax unified
  15              		.file	"sysTick.c"
  16              		.text
  17              	.Ltext0:
  18              		.cfi_sections	.debug_frame
  19              		.section	.text.SysTickISRCallback_1ms,"ax",%progbits
  20              		.align	2
  21              		.global	SysTickISRCallback_1ms
  22              		.code	16
  23              		.thumb_func
  24              		.type	SysTickISRCallback_1ms, %function
  25              	SysTickISRCallback_1ms:
  26              	.LFB67:
  27              		.file 1 "lib\\sysTick.c"
   1:lib/sysTick.c **** /* ========================================
   2:lib/sysTick.c ****  *
   3:lib/sysTick.c ****  * Copyright Suntech, 2023.02.01
   4:lib/sysTick.c ****  * All Rights Reserved
   5:lib/sysTick.c ****  * UNPUBLISHED, LICENSED SOFTWARE.
   6:lib/sysTick.c ****  *
   7:lib/sysTick.c ****  * CONFIDENTIAL AND PROPRIETARY INFORMATION
   8:lib/sysTick.c ****  * WHICH IS THE PROPERTY OF Suntech.
   9:lib/sysTick.c ****  *
  10:lib/sysTick.c ****  * ========================================
  11:lib/sysTick.c **** */
  12:lib/sysTick.c **** #include "main.h"
  13:lib/sysTick.c **** #include "lib/sysTick.h"
  14:lib/sysTick.c **** #include "lib/timerCounter.h"
  15:lib/sysTick.c **** 
  16:lib/sysTick.c **** //////////////////////////////////////////////////////////////
  17:lib/sysTick.c **** // 1msņŚÉ Ļ┤ĆļĀ©ļÉ£ Ļ▓āļōż  //////////////////////////////////////////////
  18:lib/sysTick.c **** ///////////////////////////////////////////////////////////////
  19:lib/sysTick.c **** static uint8 g_uNoMiliSecondCounter=0;                              /* sysTick.c ļé┤ļČĆ ņĀäņÜ® */
  20:lib/sysTick.c **** static TIMER_COUNTER g_timerCounter_1ms[MAX_NO_MILISECOND_COUNTER]; /* ņĀæĻĘ╝ņ×É ĒĢ©ņłśļĪ£ļ¦ī ņÖĖļČ
  21:lib/sysTick.c **** 
  22:lib/sysTick.c **** // 1ms countņØś ļ¬®Ēæ£ņŚÉ ļÅäļŗ¼ Ē¢łļŖöņ¦Ć ņŚ¼ļČĆ, indexļŖö ONE_MILISECOND_COUNTER enumĻ░Æ
  23:lib/sysTick.c **** // ņŻ╝ņØś : main loopņØś  ņ┤Ø ņłśĒ¢ēņŗ£Ļ░äņØ┤ 1ms ļ│┤ļŗż Ēü¼ļ®┤ ļ¬®Ēæ£Ļ░ÆņŚÉ ļÅäļŗ¼ĒĢ£ Ļ▓āņØä ļåōņ╣
  24:lib/sysTick.c **** uint8 isFinishCounter_1ms(uint16 index)
  25:lib/sysTick.c **** {
  26:lib/sysTick.c ****    return g_timerCounter_1ms[index].current == 0 ? TRUE : FALSE;
  27:lib/sysTick.c **** }
  28:lib/sysTick.c **** 
  29:lib/sysTick.c **** void resetCounter_1ms(uint16 index)
  30:lib/sysTick.c **** {
ARM GAS  C:\Users\luvsd\AppData\Local\Temp\ccOVwbZz.s 			page 2


  31:lib/sysTick.c ****     g_timerCounter_1ms[index].current = 
  32:lib/sysTick.c ****     g_timerCounter_1ms[index].max;
  33:lib/sysTick.c **** }
  34:lib/sysTick.c **** 
  35:lib/sysTick.c **** void setCountMax_1ms(uint16 index, uint32 maxCount)
  36:lib/sysTick.c **** {
  37:lib/sysTick.c ****     g_timerCounter_1ms[index].current = 0;
  38:lib/sysTick.c ****     g_timerCounter_1ms[index].max     = maxCount;
  39:lib/sysTick.c **** }
  40:lib/sysTick.c **** 
  41:lib/sysTick.c **** // 1s timer counter ļō▒ļĪØ 
  42:lib/sysTick.c **** uint8 registerCounter_1ms(uint32 maxCount)
  43:lib/sysTick.c **** {
  44:lib/sysTick.c ****     if(g_uNoMiliSecondCounter < MAX_NO_MILISECOND_COUNTER-1)
  45:lib/sysTick.c ****     {
  46:lib/sysTick.c ****         g_timerCounter_1ms[g_uNoMiliSecondCounter].current = 
  47:lib/sysTick.c ****         g_timerCounter_1ms[g_uNoMiliSecondCounter].max = maxCount;
  48:lib/sysTick.c ****         
  49:lib/sysTick.c ****         return g_uNoMiliSecondCounter++;
  50:lib/sysTick.c ****     } else {
  51:lib/sysTick.c ****         printf("Warning : resisterCounter_1ms()\r\n"); 
  52:lib/sysTick.c ****     }
  53:lib/sysTick.c ****     return 0xFF;   
  54:lib/sysTick.c **** }
  55:lib/sysTick.c **** 
  56:lib/sysTick.c **** // Ēśäņ×¼ counter Ļ░ÆņØä ņĢīņĢäļéĖļŗż. 
  57:lib/sysTick.c **** // ņŻ╝ņØś counter is Decreasing..
  58:lib/sysTick.c **** uint16 getCurrentTimerCounter_1ms(uint16 index) { return g_timerCounter_1ms[index].current; }
  59:lib/sysTick.c **** 
  60:lib/sysTick.c **** /*******************************************************************************
  61:lib/sysTick.c **** * Function Definitions
  62:lib/sysTick.c **** *******************************************************************************/
  63:lib/sysTick.c **** // 1ms ļ¦łļŗż ņØĖĒä░ļ¤ĮĒŖĖņŚÉ ņØśĒĢ£ ĒśĖņČ£ļÉśļŖö ISR
  64:lib/sysTick.c **** void SysTickISRCallback_1ms(void)
  65:lib/sysTick.c **** {
  28              		.loc 1 65 0
  29              		.cfi_startproc
  30              		@ args = 0, pretend = 0, frame = 0
  31              		@ frame_needed = 0, uses_anonymous_args = 0
  32 0000 10B5     		push	{r4, lr}
  33              		.cfi_def_cfa_offset 8
  34              		.cfi_offset 4, -8
  35              		.cfi_offset 14, -4
  66:lib/sysTick.c ****     OneMilliSecond_ISR(); 
  36              		.loc 1 66 0
  37 0002 FFF7FEFF 		bl	OneMilliSecond_ISR
  38              	.LVL0:
  39              	.LBB2:
  67:lib/sysTick.c ****     
  68:lib/sysTick.c ****     for(int i=0; i < g_uNoMiliSecondCounter; i++)
  40              		.loc 1 68 0
  41 0006 0023     		movs	r3, #0
  42 0008 0FE0     		b	.L2
  43              	.LVL1:
  44              	.L5:
  69:lib/sysTick.c ****     {
  70:lib/sysTick.c ****         if(g_timerCounter_1ms[i].current == 0)
ARM GAS  C:\Users\luvsd\AppData\Local\Temp\ccOVwbZz.s 			page 3


  45              		.loc 1 70 0
  46 000a DA00     		lsls	r2, r3, #3
  47 000c 0A49     		ldr	r1, .L6
  48 000e 5258     		ldr	r2, [r2, r1]
  49 0010 002A     		cmp	r2, #0
  50 0012 05D1     		bne	.L3
  71:lib/sysTick.c ****             g_timerCounter_1ms[i].current = g_timerCounter_1ms[i].max;
  51              		.loc 1 71 0
  52 0014 0A00     		movs	r2, r1
  53 0016 D900     		lsls	r1, r3, #3
  54 0018 5018     		adds	r0, r2, r1
  55 001a 4068     		ldr	r0, [r0, #4]
  56 001c 8850     		str	r0, [r1, r2]
  57 001e 03E0     		b	.L4
  58              	.L3:
  72:lib/sysTick.c ****         else
  73:lib/sysTick.c ****             g_timerCounter_1ms[i].current--;            
  59              		.loc 1 73 0
  60 0020 D900     		lsls	r1, r3, #3
  61 0022 013A     		subs	r2, r2, #1
  62 0024 0448     		ldr	r0, .L6
  63 0026 0A50     		str	r2, [r1, r0]
  64              	.L4:
  68:lib/sysTick.c ****     {
  65              		.loc 1 68 0 discriminator 2
  66 0028 0133     		adds	r3, r3, #1
  67              	.LVL2:
  68              	.L2:
  68:lib/sysTick.c ****     {
  69              		.loc 1 68 0 is_stmt 0 discriminator 1
  70 002a 7822     		movs	r2, #120
  71 002c 0249     		ldr	r1, .L6
  72 002e 8A5C     		ldrb	r2, [r1, r2]
  73 0030 9342     		cmp	r3, r2
  74 0032 EADB     		blt	.L5
  75              	.LBE2:
  74:lib/sysTick.c ****     }
  75:lib/sysTick.c **** }
  76              		.loc 1 75 0 is_stmt 1
  77              		@ sp needed
  78 0034 10BD     		pop	{r4, pc}
  79              	.L7:
  80 0036 C046     		.align	2
  81              	.L6:
  82 0038 00000000 		.word	.LANCHOR0
  83              		.cfi_endproc
  84              	.LFE67:
  85              		.size	SysTickISRCallback_1ms, .-SysTickISRCallback_1ms
  86              		.section	.text.isFinishCounter_1ms,"ax",%progbits
  87              		.align	2
  88              		.global	isFinishCounter_1ms
  89              		.code	16
  90              		.thumb_func
  91              		.type	isFinishCounter_1ms, %function
  92              	isFinishCounter_1ms:
  93              	.LFB62:
  25:lib/sysTick.c ****    return g_timerCounter_1ms[index].current == 0 ? TRUE : FALSE;
ARM GAS  C:\Users\luvsd\AppData\Local\Temp\ccOVwbZz.s 			page 4


  94              		.loc 1 25 0
  95              		.cfi_startproc
  96              		@ args = 0, pretend = 0, frame = 0
  97              		@ frame_needed = 0, uses_anonymous_args = 0
  98              		@ link register save eliminated.
  99              	.LVL3:
  26:lib/sysTick.c **** }
 100              		.loc 1 26 0
 101 0000 C000     		lsls	r0, r0, #3
 102              	.LVL4:
 103 0002 044B     		ldr	r3, .L11
 104 0004 C358     		ldr	r3, [r0, r3]
 105 0006 002B     		cmp	r3, #0
 106 0008 01D1     		bne	.L10
 107 000a 0120     		movs	r0, #1
 108 000c 00E0     		b	.L9
 109              	.L10:
 110 000e 0020     		movs	r0, #0
 111              	.L9:
  27:lib/sysTick.c **** 
 112              		.loc 1 27 0 discriminator 4
 113              		@ sp needed
 114 0010 7047     		bx	lr
 115              	.L12:
 116 0012 C046     		.align	2
 117              	.L11:
 118 0014 00000000 		.word	.LANCHOR0
 119              		.cfi_endproc
 120              	.LFE62:
 121              		.size	isFinishCounter_1ms, .-isFinishCounter_1ms
 122              		.section	.text.resetCounter_1ms,"ax",%progbits
 123              		.align	2
 124              		.global	resetCounter_1ms
 125              		.code	16
 126              		.thumb_func
 127              		.type	resetCounter_1ms, %function
 128              	resetCounter_1ms:
 129              	.LFB63:
  30:lib/sysTick.c ****     g_timerCounter_1ms[index].current = 
 130              		.loc 1 30 0
 131              		.cfi_startproc
 132              		@ args = 0, pretend = 0, frame = 0
 133              		@ frame_needed = 0, uses_anonymous_args = 0
 134              		@ link register save eliminated.
 135              	.LVL5:
  32:lib/sysTick.c **** }
 136              		.loc 1 32 0
 137 0000 024B     		ldr	r3, .L14
 138 0002 C000     		lsls	r0, r0, #3
 139              	.LVL6:
 140 0004 1A18     		adds	r2, r3, r0
 141 0006 5268     		ldr	r2, [r2, #4]
 142 0008 C250     		str	r2, [r0, r3]
  33:lib/sysTick.c **** 
 143              		.loc 1 33 0
 144              		@ sp needed
 145 000a 7047     		bx	lr
ARM GAS  C:\Users\luvsd\AppData\Local\Temp\ccOVwbZz.s 			page 5


 146              	.L15:
 147              		.align	2
 148              	.L14:
 149 000c 00000000 		.word	.LANCHOR0
 150              		.cfi_endproc
 151              	.LFE63:
 152              		.size	resetCounter_1ms, .-resetCounter_1ms
 153              		.section	.text.setCountMax_1ms,"ax",%progbits
 154              		.align	2
 155              		.global	setCountMax_1ms
 156              		.code	16
 157              		.thumb_func
 158              		.type	setCountMax_1ms, %function
 159              	setCountMax_1ms:
 160              	.LFB64:
  36:lib/sysTick.c ****     g_timerCounter_1ms[index].current = 0;
 161              		.loc 1 36 0
 162              		.cfi_startproc
 163              		@ args = 0, pretend = 0, frame = 0
 164              		@ frame_needed = 0, uses_anonymous_args = 0
 165              		@ link register save eliminated.
 166              	.LVL7:
  37:lib/sysTick.c ****     g_timerCounter_1ms[index].max     = maxCount;
 167              		.loc 1 37 0
 168 0000 034B     		ldr	r3, .L17
 169 0002 C000     		lsls	r0, r0, #3
 170              	.LVL8:
 171 0004 0022     		movs	r2, #0
 172 0006 C250     		str	r2, [r0, r3]
  38:lib/sysTick.c **** }
 173              		.loc 1 38 0
 174 0008 1818     		adds	r0, r3, r0
 175 000a 4160     		str	r1, [r0, #4]
  39:lib/sysTick.c **** 
 176              		.loc 1 39 0
 177              		@ sp needed
 178 000c 7047     		bx	lr
 179              	.L18:
 180 000e C046     		.align	2
 181              	.L17:
 182 0010 00000000 		.word	.LANCHOR0
 183              		.cfi_endproc
 184              	.LFE64:
 185              		.size	setCountMax_1ms, .-setCountMax_1ms
 186              		.section	.text.registerCounter_1ms,"ax",%progbits
 187              		.align	2
 188              		.global	registerCounter_1ms
 189              		.code	16
 190              		.thumb_func
 191              		.type	registerCounter_1ms, %function
 192              	registerCounter_1ms:
 193              	.LFB65:
  43:lib/sysTick.c ****     if(g_uNoMiliSecondCounter < MAX_NO_MILISECOND_COUNTER-1)
 194              		.loc 1 43 0
 195              		.cfi_startproc
 196              		@ args = 0, pretend = 0, frame = 0
 197              		@ frame_needed = 0, uses_anonymous_args = 0
ARM GAS  C:\Users\luvsd\AppData\Local\Temp\ccOVwbZz.s 			page 6


 198              	.LVL9:
 199 0000 10B5     		push	{r4, lr}
 200              		.cfi_def_cfa_offset 8
 201              		.cfi_offset 4, -8
 202              		.cfi_offset 14, -4
  44:lib/sysTick.c ****     {
 203              		.loc 1 44 0
 204 0002 7823     		movs	r3, #120
 205 0004 084A     		ldr	r2, .L22
 206 0006 D35C     		ldrb	r3, [r2, r3]
 207 0008 0D2B     		cmp	r3, #13
 208 000a 07D8     		bhi	.L20
  47:lib/sysTick.c ****         
 209              		.loc 1 47 0
 210 000c D900     		lsls	r1, r3, #3
 211 000e 5418     		adds	r4, r2, r1
 212 0010 6060     		str	r0, [r4, #4]
  46:lib/sysTick.c ****         g_timerCounter_1ms[g_uNoMiliSecondCounter].max = maxCount;
 213              		.loc 1 46 0
 214 0012 8850     		str	r0, [r1, r2]
  49:lib/sysTick.c ****     } else {
 215              		.loc 1 49 0
 216 0014 591C     		adds	r1, r3, #1
 217 0016 7820     		movs	r0, #120
 218              	.LVL10:
 219 0018 1154     		strb	r1, [r2, r0]
 220 001a 03E0     		b	.L21
 221              	.LVL11:
 222              	.L20:
  51:lib/sysTick.c ****     }
 223              		.loc 1 51 0
 224 001c 0348     		ldr	r0, .L22+4
 225              	.LVL12:
 226 001e FFF7FEFF 		bl	puts
 227              	.LVL13:
  53:lib/sysTick.c **** }
 228              		.loc 1 53 0
 229 0022 FF23     		movs	r3, #255
 230              	.L21:
  54:lib/sysTick.c **** 
 231              		.loc 1 54 0
 232 0024 1800     		movs	r0, r3
 233              		@ sp needed
 234 0026 10BD     		pop	{r4, pc}
 235              	.L23:
 236              		.align	2
 237              	.L22:
 238 0028 00000000 		.word	.LANCHOR0
 239 002c 00000000 		.word	.LC5
 240              		.cfi_endproc
 241              	.LFE65:
 242              		.size	registerCounter_1ms, .-registerCounter_1ms
 243              		.section	.text.getCurrentTimerCounter_1ms,"ax",%progbits
 244              		.align	2
 245              		.global	getCurrentTimerCounter_1ms
 246              		.code	16
 247              		.thumb_func
ARM GAS  C:\Users\luvsd\AppData\Local\Temp\ccOVwbZz.s 			page 7


 248              		.type	getCurrentTimerCounter_1ms, %function
 249              	getCurrentTimerCounter_1ms:
 250              	.LFB66:
  58:lib/sysTick.c **** 
 251              		.loc 1 58 0
 252              		.cfi_startproc
 253              		@ args = 0, pretend = 0, frame = 0
 254              		@ frame_needed = 0, uses_anonymous_args = 0
 255              		@ link register save eliminated.
 256              	.LVL14:
  58:lib/sysTick.c **** 
 257              		.loc 1 58 0
 258 0000 C000     		lsls	r0, r0, #3
 259              	.LVL15:
 260 0002 014B     		ldr	r3, .L25
 261 0004 185A     		ldrh	r0, [r3, r0]
 262              		@ sp needed
 263 0006 7047     		bx	lr
 264              	.L26:
 265              		.align	2
 266              	.L25:
 267 0008 00000000 		.word	.LANCHOR0
 268              		.cfi_endproc
 269              	.LFE66:
 270              		.size	getCurrentTimerCounter_1ms, .-getCurrentTimerCounter_1ms
 271              		.section	.text.setSysTick,"ax",%progbits
 272              		.align	2
 273              		.global	setSysTick
 274              		.code	16
 275              		.thumb_func
 276              		.type	setSysTick, %function
 277              	setSysTick:
 278              	.LFB68:
  76:lib/sysTick.c **** 
  77:lib/sysTick.c **** void setSysTick(void)
  78:lib/sysTick.c **** {
 279              		.loc 1 78 0
 280              		.cfi_startproc
 281              		@ args = 0, pretend = 0, frame = 0
 282              		@ frame_needed = 0, uses_anonymous_args = 0
 283 0000 10B5     		push	{r4, lr}
 284              		.cfi_def_cfa_offset 8
 285              		.cfi_offset 4, -8
 286              		.cfi_offset 14, -4
  79:lib/sysTick.c ****     uint32 i;
  80:lib/sysTick.c ****     
  81:lib/sysTick.c ****     CySysTickStart();
 287              		.loc 1 81 0
 288 0002 FFF7FEFF 		bl	CySysTickStart
 289              	.LVL16:
  82:lib/sysTick.c ****     
  83:lib/sysTick.c ****     /* Find unused callback slot and assign the callback. */
  84:lib/sysTick.c ****     for (i = 0u; i < CY_SYS_SYST_NUM_OF_CALLBACKS; ++i)
 290              		.loc 1 84 0
 291 0006 0024     		movs	r4, #0
 292 0008 0AE0     		b	.L28
 293              	.LVL17:
ARM GAS  C:\Users\luvsd\AppData\Local\Temp\ccOVwbZz.s 			page 8


 294              	.L31:
  85:lib/sysTick.c ****     {
  86:lib/sysTick.c ****         if (CySysTickGetCallback(i) == NULL)
 295              		.loc 1 86 0
 296 000a 2000     		movs	r0, r4
 297 000c FFF7FEFF 		bl	CySysTickGetCallback
 298              	.LVL18:
 299 0010 0028     		cmp	r0, #0
 300 0012 04D1     		bne	.L29
  87:lib/sysTick.c ****         {
  88:lib/sysTick.c ****             /* Set callback */
  89:lib/sysTick.c ****             CySysTickSetCallback(i, SysTickISRCallback_1ms);
 301              		.loc 1 89 0
 302 0014 0449     		ldr	r1, .L32
 303 0016 2000     		movs	r0, r4
 304 0018 FFF7FEFF 		bl	CySysTickSetCallback
 305              	.LVL19:
  90:lib/sysTick.c ****             break;
 306              		.loc 1 90 0
 307 001c 02E0     		b	.L27
 308              	.L29:
  84:lib/sysTick.c ****     {
 309              		.loc 1 84 0 discriminator 2
 310 001e 0134     		adds	r4, r4, #1
 311              	.LVL20:
 312              	.L28:
  84:lib/sysTick.c ****     {
 313              		.loc 1 84 0 is_stmt 0 discriminator 1
 314 0020 042C     		cmp	r4, #4
 315 0022 F2D9     		bls	.L31
 316              	.L27:
  91:lib/sysTick.c ****         }
  92:lib/sysTick.c ****     }
  93:lib/sysTick.c **** }
 317              		.loc 1 93 0 is_stmt 1
 318              		@ sp needed
 319              	.LVL21:
 320 0024 10BD     		pop	{r4, pc}
 321              	.L33:
 322 0026 C046     		.align	2
 323              	.L32:
 324 0028 00000000 		.word	SysTickISRCallback_1ms
 325              		.cfi_endproc
 326              	.LFE68:
 327              		.size	setSysTick, .-setSysTick
 328              		.comm	Param,6,4
 329              		.section	.rodata.str1.4,"aMS",%progbits,1
 330              		.align	2
 331              	.LC5:
 332 0000 5761726E 		.ascii	"Warning : resisterCounter_1ms()\015\000"
 332      696E6720 
 332      3A207265 
 332      73697374 
 332      6572436F 
 333              		.bss
 334              		.align	2
 335              		.set	.LANCHOR0,. + 0
ARM GAS  C:\Users\luvsd\AppData\Local\Temp\ccOVwbZz.s 			page 9


 336              		.type	g_timerCounter_1ms, %object
 337              		.size	g_timerCounter_1ms, 120
 338              	g_timerCounter_1ms:
 339 0000 00000000 		.space	120
 339      00000000 
 339      00000000 
 339      00000000 
 339      00000000 
 340              		.type	g_uNoMiliSecondCounter, %object
 341              		.size	g_uNoMiliSecondCounter, 1
 342              	g_uNoMiliSecondCounter:
 343 0078 00       		.space	1
 344              		.text
 345              	.Letext0:
 346              		.file 2 "Generated_Source\\PSoC4/cytypes.h"
 347              		.file 3 "./main.h"
 348              		.file 4 "./lib/timerCounter.h"
 349              		.file 5 "Generated_Source\\PSoC4/RTC.h"
 350              		.file 6 "./lib/sysTick.h"
 351              		.file 7 "Generated_Source\\PSoC4/CyLib.h"
 352              		.file 8 "<built-in>"