ARM GAS  C:\Users\luvsd\AppData\Local\Temp\ccw5KtQf.s 			page 1


   1              		.syntax unified
   2              		.cpu cortex-m0
   3              		.fpu softvfp
   4              		.eabi_attribute 20, 1
   5              		.eabi_attribute 21, 1
   6              		.eabi_attribute 23, 3
   7              		.eabi_attribute 24, 1
   8              		.eabi_attribute 25, 1
   9              		.eabi_attribute 26, 1
  10              		.eabi_attribute 30, 1
  11              		.eabi_attribute 34, 0
  12              		.eabi_attribute 18, 4
  13              		.thumb
  14              		.syntax unified
  15              		.file	"uartJson.c"
  16              		.text
  17              	.Ltext0:
  18              		.cfi_sections	.debug_frame
  19              		.section	.text.uartEmbParsor,"ax",%progbits
  20              		.align	2
  21              		.code	16
  22              		.thumb_func
  23              		.type	uartEmbParsor, %function
  24              	uartEmbParsor:
  25              	.LFB63:
  26              		.file 1 "uartJson.c"
   1:uartJson.c    **** /* ========================================
   2:uartJson.c    ****  *
   3:uartJson.c    ****  * Copyright Suntech, 2026.03.26
   4:uartJson.c    ****  * All Rights Reserved
   5:uartJson.c    ****  * UNPUBLISHED, LICENSED SOFTWARE.
   6:uartJson.c    ****  *
   7:uartJson.c    ****  * CONFIDENTIAL AND PROPRIETARY INFORMATION
   8:uartJson.c    ****  * WHICH IS THE PROPERTY OF Suntech.
   9:uartJson.c    ****  *
  10:uartJson.c    ****  * ========================================
  11:uartJson.c    ****  *
  12:uartJson.c    ****  * EMBROIDERY_S ņĀäņÜ® UART Ēīīņä£
  13:uartJson.c    ****  * ĒöäļĪ£ĒåĀņĮ£: "actual_qty;cycle_time_s;thread_breakage_qty;motor_runtime_s;\r\n"
  14:uartJson.c    ****  * ņśłņŗ£:     "1;300;2;250;\r\n"
  15:uartJson.c    ****  *
  16:uartJson.c    **** */
  17:uartJson.c    **** #include "uartJson.h"
  18:uartJson.c    **** #include "count.h"
  19:uartJson.c    **** #include "andonApi.h"
  20:uartJson.c    **** #include "uartTestMenu.h"
  21:uartJson.c    **** #include "userProjectPatternSewing.h"
  22:uartJson.c    **** #include "lib/internalFlash.h"
  23:uartJson.c    **** #include "lib/widget.h"
  24:uartJson.c    **** #include "downtime.h"
  25:uartJson.c    **** 
  26:uartJson.c    **** #define UART_BUFFER_SIZE 512
  27:uartJson.c    **** 
  28:uartJson.c    **** static char g_UART_buff[UART_BUFFER_SIZE];
  29:uartJson.c    **** static int  g_UART_buff_index = 0;
  30:uartJson.c    **** 
  31:uartJson.c    **** static char uartEmbParsor(COUNT *ptrCount);
ARM GAS  C:\Users\luvsd\AppData\Local\Temp\ccw5KtQf.s 			page 2


  32:uartJson.c    **** 
  33:uartJson.c    **** /* ================================================================
  34:uartJson.c    ****  * uartJsonLoop ŌĆö ļ®öņØĖ ļŻ©ĒöäņŚÉņä£ CountFunc() ļź╝ ĒåĄĒĢ┤ ĒśĖņČ£
  35:uartJson.c    ****  *
  36:uartJson.c    ****  * ĒöäļĪ£ĒåĀņĮ£ (ĒøäĒ¢ē ';' ņ×łļŖö Ļ▓ĮņÜ░): "actual_qty;cycle_time_s;thread_breakage_qty;motor_runt
  37:uartJson.c    ****  * ĒöäļĪ£ĒåĀņĮ£ (ĒøäĒ¢ē ';' ņŚåļŖö Ļ▓ĮņÜ░): "actual_qty;cycle_time_s;thread_breakage_qty;motor_runt
  38:uartJson.c    ****  *   ŌåÆ ņŗżņĀ£ ņ×ÉņłśĻĖ░ ņ×źļ╣äļŖö ĒøäĒ¢ē ';' ņŚåņØ┤ ņĀäņåĪ ŌĆö \r\n ļÅäļŗ¼ ņŗ£ sc==3 ļ│┤ņÖä ņ▓śļ”
  39:uartJson.c    ****  * '\r', '\n' ņØĆ sc==3 ņØ┤ļ®┤ Ēīīņŗ▒ ņŗ£ļÅä, ĻĘĖ ņÖĖ ļ▓äĒŹ╝ ļ”¼ņģŗ
  40:uartJson.c    ****  * index=0 ņŚÉņä£ ņł½ņ×ÉĻ░Ć ņĢäļŗī ļ░öņØ┤ĒŖĖļŖö ļ¼┤ņŗ£ (echo ļŻ©Ēöäļ░▒ ņō░ļĀłĻĖ░ ļ░®ņ¢┤)
  41:uartJson.c    ****  * index>0 ņŚÉņä£ ņł½ņ×É┬Ę';' ņÖĖ ļ░öņØ┤ĒŖĖļŖö ņ”ēņŗ£ ļ▓äĒŹ╝ ļ”¼ņģŗ (MCSTATUS "0x??" ņśżņŚ╝ ļ░®ņ¦Ć)
  42:uartJson.c    ****  * ================================================================ */
  43:uartJson.c    **** uint8 uartJsonLoop()
  44:uartJson.c    **** {
  45:uartJson.c    ****     COUNT *ptrCount = getCount();
  46:uartJson.c    **** 
  47:uartJson.c    ****     while (UART_SpiUartGetRxBufferSize() > 0)
  48:uartJson.c    ****     {
  49:uartJson.c    ****         char c = UART_UartGetChar();
  50:uartJson.c    **** 
  51:uartJson.c    ****         /* '\r' / '\n' : ņżä ļüØ ņ▓śļ”¼.
  52:uartJson.c    ****          * ņ×ÉņłśĻĖ░ļŖö ĒøäĒ¢ē ';' ņŚåņØ┤ "2;82;0;75\r\n" ĒśĢĒā£ļĪ£ ņĀäņåĪĒĢ£ļŗż.
  53:uartJson.c    ****          * ŌåÆ ņäĖļ»ĖņĮ£ļĪĀņØ┤ 3Ļ░£ņØĖ Ļ▓ĮņÜ░: ĒøäĒ¢ē ';' ļź╝ ļ│┤ņÖäĒĢśņŚ¼ Ēīīņŗ▒ ņŗ£ļÅä.
  54:uartJson.c    ****          * ŌåÆ ĻĘĖ ņÖĖ(MCSTATUS hex ņ×öļźś ļō▒): ļ▓äĒŹ╝ ļ”¼ņģŗ.
  55:uartJson.c    ****          * ĒøäĒ¢ē ';' Ļ░Ć ņ×łļŖö Ļ▓ĮņÜ░("2;82;0;75;\r\n")ļŖö 4ļ▓łņ¦Ė ';' ņłśņŗĀ ņŗ£ ņØ┤ļ»Ė
  56:uartJson.c    ****          * Ēīīņŗ▒┬Ęļ”¼ņģŗ ņÖäļŻī ŌåÆ \r\n ļÅäļŗ¼ ņŗ£ index=0 ŌåÆ ņØ┤ ļĖöļĪØ ļ»ĖņŗżĒ¢ē. */
  57:uartJson.c    ****         if (c == '\r' || c == '\n' || c == '\0')
  58:uartJson.c    ****         {
  59:uartJson.c    ****             if (g_UART_buff_index > 0)
  60:uartJson.c    ****             {
  61:uartJson.c    ****                 /* ņäĖļ»ĖņĮ£ļĪĀ Ļ░£ņłś ĒÖĢņØĖ */
  62:uartJson.c    ****                 uint8 sc = 0;
  63:uartJson.c    ****                 int   si;
  64:uartJson.c    ****                 for (si = 0; si < g_UART_buff_index; si++)
  65:uartJson.c    ****                 {
  66:uartJson.c    ****                     if (g_UART_buff[si] == ';') sc++;
  67:uartJson.c    ****                 }
  68:uartJson.c    **** 
  69:uartJson.c    ****                 if (sc == 3 && g_UART_buff_index < UART_BUFFER_SIZE - 2)
  70:uartJson.c    ****                 {
  71:uartJson.c    ****                     /* ĒøäĒ¢ē ';' ļ│┤ņÖä Ēøä Ēīīņŗ▒ ņŗ£ļÅä */
  72:uartJson.c    ****                     g_UART_buff[g_UART_buff_index++] = ';';
  73:uartJson.c    ****                     g_UART_buff[g_UART_buff_index]   = '\0';
  74:uartJson.c    **** 
  75:uartJson.c    ****                     if (uartEmbParsor(ptrCount))
  76:uartJson.c    ****                     {
  77:uartJson.c    ****                         if (g_bUartTestMode)
  78:uartJson.c    ****                         {
  79:uartJson.c    ****                             uartTestAddLine(g_UART_buff);
  80:uartJson.c    ****                         }
  81:uartJson.c    ****                         g_updateCountMenu = TRUE;
  82:uartJson.c    ****                         makeAndonPatternCount();
  83:uartJson.c    ****                         ADD_CONVERT_TO_4BYTE(ptrCount->patternActualH, ptrCount->patternActualL,
  84:uartJson.c    ****                                              ptrCount->patternCount * 10u);
  85:uartJson.c    ****                         ptrCount->patternCount = 0;
  86:uartJson.c    ****                         ForcefullyMarkDowntimeAsComplete();
  87:uartJson.c    **** 
  88:uartJson.c    ****                         g_UART_buff_index = 0;
ARM GAS  C:\Users\luvsd\AppData\Local\Temp\ccw5KtQf.s 			page 3


  89:uartJson.c    ****                         memset(g_UART_buff, 0, UART_BUFFER_SIZE);
  90:uartJson.c    ****                         return TRUE;
  91:uartJson.c    ****                     }
  92:uartJson.c    ****                     /* sc==3 ņØ┤ņ¦Ćļ¦ī Ēīīņŗ▒ ņŗżĒī© ŌåÆ UART TEST ņ¦äļŗ© Ēæ£ņŗ£ */
  93:uartJson.c    ****                     if (g_bUartTestMode) { uartTestAddLine(g_UART_buff); }
  94:uartJson.c    ****                 }
  95:uartJson.c    ****                 else if (g_bUartTestMode && sc >= 1)
  96:uartJson.c    ****                 {
  97:uartJson.c    ****                     /* scĻ░Ć 3 ņĢäļŗī ņäĖļ»ĖņĮ£ļĪĀ ĒÅ¼ĒĢ© ļØ╝ņØĖ ŌåÆ UART TEST ņ¦äļŗ© Ēæ£ņŗ£
  98:uartJson.c    ****                      * ņ×ÉņłśĻĖ░ ņŗżņĀ£ ĒÅ¼ļ¦Ę ĒÖĢņØĖņÜ®: ĒøäĒ¢ē ; ņŚ¼ļČĆ, ĒĢäļō£ Ļ░£ņłś ļō▒ ņ£ĪņĢł
  99:uartJson.c    ****                     g_UART_buff[g_UART_buff_index] = '\0';
 100:uartJson.c    ****                     uartTestAddLine(g_UART_buff);
 101:uartJson.c    ****                 }
 102:uartJson.c    **** 
 103:uartJson.c    ****                 g_UART_buff_index = 0;
 104:uartJson.c    ****                 memset(g_UART_buff, 0, UART_BUFFER_SIZE);
 105:uartJson.c    ****             }
 106:uartJson.c    ****             continue;
 107:uartJson.c    ****         }
 108:uartJson.c    **** 
 109:uartJson.c    ****         /* Ēī©ĒéĘ ņŗ£ņ×æ ļ░öņØ┤ĒŖĖļŖö ļ░śļō£ņŗ£ ņł½ņ×É(actual_qty ņ▓½ ņ×Éļ”¼)ņŚ¼ņĢ╝ ĒĢ©.
 110:uartJson.c    ****          * printf echo ļŻ©Ēöäļ░▒ņŚÉ ņØśĒĢ┤ ņīōņØĖ ņō░ļĀłĻĖ░ ļ░öņØ┤ĒŖĖļź╝ ņŚ¼ĻĖ░ņä£ ņ░©ļŗ©. */
 111:uartJson.c    ****         if (g_UART_buff_index == 0 && (c < '0' || c > '9')) continue;
 112:uartJson.c    **** 
 113:uartJson.c    ****         /* Ēī©ĒéĘ ļłäņĀü ņżæ ņ£ĀĒÜ©ĒĢśņ¦Ć ņĢŖņØĆ ļ¼Ėņ×É(ņł½ņ×É┬ĘņäĖļ»ĖņĮ£ļĪĀ ņÖĖ) ņłśņŗĀ ņŗ£ ņ”ēņŗ£
 114:uartJson.c    ****          * "MCSTATUS ... 0x41,0xff" ņŚÉņä£ '0' ņØ┤ ļ▓äĒŹ╝ļź╝ ņŗ£ņ×æĒĢ£ ļÆż
 115:uartJson.c    ****          * 'x', ',', ņĢīĒīīļ▓│ ļō▒ņŚÉņä£ ņ”ēņŗ£ ļ”¼ņģŗĒĢśņŚ¼ ņō░ļĀłĻĖ░ ļłäņĀü ļ░®ņ¦Ć. */
 116:uartJson.c    ****         if (g_UART_buff_index > 0 && (c < '0' || c > '9') && c != ';')
 117:uartJson.c    ****         {
 118:uartJson.c    ****             g_UART_buff_index = 0;
 119:uartJson.c    ****             memset(g_UART_buff, 0, UART_BUFFER_SIZE);
 120:uartJson.c    ****             continue;
 121:uartJson.c    ****         }
 122:uartJson.c    **** 
 123:uartJson.c    ****         if (g_UART_buff_index >= UART_BUFFER_SIZE - 1)
 124:uartJson.c    ****         {
 125:uartJson.c    ****             g_UART_buff_index = 0;
 126:uartJson.c    ****             continue;
 127:uartJson.c    ****         }
 128:uartJson.c    **** 
 129:uartJson.c    ****         g_UART_buff[g_UART_buff_index++] = c;
 130:uartJson.c    **** 
 131:uartJson.c    ****         if (c == ';')
 132:uartJson.c    ****         {
 133:uartJson.c    ****             /* ņäĖļ»ĖņĮ£ļĪĀ Ļ░£ņłś ņ╣┤ņÜ┤ĒŖĖ */
 134:uartJson.c    ****             uint8 semicolonCount = 0;
 135:uartJson.c    ****             int   k;
 136:uartJson.c    ****             for (k = 0; k < g_UART_buff_index; k++)
 137:uartJson.c    ****             {
 138:uartJson.c    ****                 if (g_UART_buff[k] == ';') semicolonCount++;
 139:uartJson.c    ****             }
 140:uartJson.c    **** 
 141:uartJson.c    ****             if (semicolonCount >= 4)
 142:uartJson.c    ****             {
 143:uartJson.c    ****                 g_UART_buff[g_UART_buff_index] = '\0';
 144:uartJson.c    **** 
 145:uartJson.c    ****                 if (uartEmbParsor(ptrCount))
ARM GAS  C:\Users\luvsd\AppData\Local\Temp\ccw5KtQf.s 			page 4


 146:uartJson.c    ****                 {
 147:uartJson.c    ****                     /* UART TEST ļ¬©ļō£ ĒÖ£ņä▒ ņŗ£ ņłśņŗĀ ļ¼Ėņ×ÉņŚ┤ ļ»Ėļ¤¼ */
 148:uartJson.c    ****                     if (g_bUartTestMode)
 149:uartJson.c    ****                     {
 150:uartJson.c    ****                         uartTestAddLine(g_UART_buff);
 151:uartJson.c    ****                     }
 152:uartJson.c    **** 
 153:uartJson.c    ****                     /* actual_qty ņä£ļ▓ä ņĀäņåĪ (patternCount = ņØ┤ļ▓ł Ēī©ĒéĘ ņłśļ¤ē, ļ”¼ņģŗ ņĀäņŚÉ
 154:uartJson.c    ****                     g_updateCountMenu = TRUE;
 155:uartJson.c    ****                     makeAndonPatternCount();
 156:uartJson.c    **** 
 157:uartJson.c    ****                     /* actual_qty ļłäņé░ ŌåÆ patternActualH/L ņØ┤Ļ┤Ć (Ēī©ĒéĘļ¦łļŗż ņ”ēņŗ£)
 158:uartJson.c    ****                      * LCD Ēæ£ņŗ£ļŖö patternActualH/L ├Ę 10 ņØ┤ļ»ĆļĪ£ ├Ś10 ļŗ©ņ£äļĪ£ ņĀĆņ×ź */
 159:uartJson.c    ****                     ADD_CONVERT_TO_4BYTE(ptrCount->patternActualH, ptrCount->patternActualL,
 160:uartJson.c    ****                                          ptrCount->patternCount * 10u);
 161:uartJson.c    ****                     ptrCount->patternCount = 0;
 162:uartJson.c    **** 
 163:uartJson.c    ****                     ForcefullyMarkDowntimeAsComplete();
 164:uartJson.c    ****                     /* SaveInternalFlash() ļŖö Em_EEPROM_Write() ļé┤ļČĆņŚÉņä£ ņĀäņŚŁ ņØĖĒä░ļ¤ĮĒŖĖļź
 165:uartJson.c    ****                      * ~20ms ļ╣äĒÖ£ņä▒ĒÖöĒĢśļ»ĆļĪ£ UART FIFO ņśżļ▓äĒöīļĪ£ņÜ░ ļ░£ņāØ.
 166:uartJson.c    ****                      * count.cņØś CountSaveFlashIfDirty()ļź╝ ĒåĄĒĢ┤ 1ņ┤ł ņŻ╝ĻĖ░ļĪ£ ņ¦ĆņŚ░ ņĀĆņ×źĒĢ£
 167:uartJson.c    **** 
 168:uartJson.c    ****                     g_UART_buff_index = 0;
 169:uartJson.c    ****                     memset(g_UART_buff, 0, UART_BUFFER_SIZE);
 170:uartJson.c    ****                     return TRUE;
 171:uartJson.c    ****                 }
 172:uartJson.c    **** 
 173:uartJson.c    ****                 /* Ēīīņŗ▒ ņŗżĒī© ŌåÆ UART TEST ņ¦äļŗ© Ēæ£ņŗ£ */
 174:uartJson.c    ****                 if (g_bUartTestMode) { uartTestAddLine(g_UART_buff); }
 175:uartJson.c    ****                 g_UART_buff_index = 0;
 176:uartJson.c    ****                 memset(g_UART_buff, 0, UART_BUFFER_SIZE);
 177:uartJson.c    ****             }
 178:uartJson.c    ****         }
 179:uartJson.c    ****     }
 180:uartJson.c    ****     return FALSE;
 181:uartJson.c    **** }
 182:uartJson.c    **** 
 183:uartJson.c    **** /* ================================================================
 184:uartJson.c    ****  * uartEmbParsor ŌĆö ņäĖļ»ĖņĮ£ļĪĀ ĻĄ¼ļČä Ēīīņä£
 185:uartJson.c    ****  *
 186:uartJson.c    ****  * ĒśĢņŗØ: "actual_qty;cycle_time_s;thread_breakage_qty;motor_runtime_s;"
 187:uartJson.c    ****  * ļ░śĒÖś: TRUE=Ēīīņŗ▒ ņä▒Ļ│Ą, FALSE=ņŗżĒī©
 188:uartJson.c    ****  * ================================================================ */
 189:uartJson.c    **** static char uartEmbParsor(COUNT *ptrCount)
 190:uartJson.c    **** {
  27              		.loc 1 190 0
  28              		.cfi_startproc
  29              		@ args = 0, pretend = 0, frame = 520
  30              		@ frame_needed = 0, uses_anonymous_args = 0
  31              	.LVL0:
  32 0000 F0B5     		push	{r4, r5, r6, r7, lr}
  33              		.cfi_def_cfa_offset 20
  34              		.cfi_offset 4, -20
  35              		.cfi_offset 5, -16
  36              		.cfi_offset 6, -12
  37              		.cfi_offset 7, -8
  38              		.cfi_offset 14, -4
ARM GAS  C:\Users\luvsd\AppData\Local\Temp\ccw5KtQf.s 			page 5


  39 0002 5F46     		mov	r7, fp
  40 0004 4646     		mov	r6, r8
  41 0006 C0B4     		push	{r6, r7}
  42              		.cfi_def_cfa_offset 28
  43              		.cfi_offset 8, -28
  44              		.cfi_offset 11, -24
  45 0008 4A4C     		ldr	r4, .L18
  46 000a A544     		add	sp, sp, r4
  47              		.cfi_def_cfa_offset 552
  48 000c 8346     		mov	fp, r0
  49              	.LVL1:
 191:uartJson.c    ****     char    tempBuf[UART_BUFFER_SIZE];
 192:uartJson.c    ****     char   *ptr      = tempBuf;
 193:uartJson.c    ****     char   *token    = NULL;
 194:uartJson.c    ****     uint8   fieldIdx = 0;
 195:uartJson.c    **** 
 196:uartJson.c    ****     uint16 actual_qty          = 0;
 197:uartJson.c    ****     uint32 cycle_time_s        = 0;
 198:uartJson.c    ****     uint16 thread_breakage_qty = 0;
 199:uartJson.c    ****     uint32 motor_runtime_s     = 0;
 200:uartJson.c    **** 
 201:uartJson.c    ****     snprintf(tempBuf, sizeof(tempBuf), "%s", g_UART_buff);
  50              		.loc 1 201 0
  51 000e 4A4B     		ldr	r3, .L18+4
  52 0010 4A4A     		ldr	r2, .L18+8
  53 0012 8021     		movs	r1, #128
  54 0014 8900     		lsls	r1, r1, #2
  55 0016 02A8     		add	r0, sp, #8
  56              	.LVL2:
  57 0018 FFF7FEFF 		bl	snprintf
  58              	.LVL3:
 199:uartJson.c    **** 
  59              		.loc 1 199 0
  60 001c 0023     		movs	r3, #0
  61 001e 0193     		str	r3, [sp, #4]
 198:uartJson.c    ****     uint32 motor_runtime_s     = 0;
  62              		.loc 1 198 0
  63 0020 9846     		mov	r8, r3
 197:uartJson.c    ****     uint16 thread_breakage_qty = 0;
  64              		.loc 1 197 0
  65 0022 0093     		str	r3, [sp]
 196:uartJson.c    ****     uint32 cycle_time_s        = 0;
  66              		.loc 1 196 0
  67 0024 0026     		movs	r6, #0
 194:uartJson.c    **** 
  68              		.loc 1 194 0
  69 0026 0024     		movs	r4, #0
 192:uartJson.c    ****     char   *token    = NULL;
  70              		.loc 1 192 0
  71 0028 02AD     		add	r5, sp, #8
  72              	.LVL4:
 202:uartJson.c    **** 
 203:uartJson.c    ****     while (fieldIdx < 4)
  73              		.loc 1 203 0
  74 002a 2EE0     		b	.L2
  75              	.LVL5:
  76              	.L10:
ARM GAS  C:\Users\luvsd\AppData\Local\Temp\ccw5KtQf.s 			page 6


  77              	.LBB2:
 204:uartJson.c    ****     {
 205:uartJson.c    ****         char *sep = strchr(ptr, ';');
  78              		.loc 1 205 0
  79 002c 3B21     		movs	r1, #59
  80 002e 2800     		movs	r0, r5
  81 0030 FFF7FEFF 		bl	strchr
  82              	.LVL6:
  83 0034 071E     		subs	r7, r0, #0
  84              	.LVL7:
 206:uartJson.c    ****         if (sep == NULL) break;
  85              		.loc 1 206 0
  86 0036 2AD0     		beq	.L3
 207:uartJson.c    ****         *sep = '\0';
  87              		.loc 1 207 0
  88 0038 0023     		movs	r3, #0
  89 003a 0370     		strb	r3, [r0]
 208:uartJson.c    **** 
 209:uartJson.c    ****         if (*ptr == '\0')
  90              		.loc 1 209 0
  91 003c 2878     		ldrb	r0, [r5]
  92              	.LVL8:
  93 003e 0028     		cmp	r0, #0
  94 0040 71D0     		beq	.L4
 210:uartJson.c    ****         {
 211:uartJson.c    ****             /* ļ╣ł ĒĢäļō£ ŌĆö ļ¼┤ĒÜ© */
 212:uartJson.c    ****             return FALSE;
 213:uartJson.c    ****         }
 214:uartJson.c    **** 
 215:uartJson.c    ****         switch (fieldIdx)
  95              		.loc 1 215 0
  96 0042 012C     		cmp	r4, #1
  97 0044 0FD0     		beq	.L6
  98 0046 002C     		cmp	r4, #0
  99 0048 04D0     		beq	.L7
 100 004a 022C     		cmp	r4, #2
 101 004c 10D0     		beq	.L8
 102 004e 032C     		cmp	r4, #3
 103 0050 14D0     		beq	.L9
 104 0052 17E0     		b	.L5
 105              	.L7:
 216:uartJson.c    ****         {
 217:uartJson.c    ****             case 0:
 218:uartJson.c    ****                 /* actual_qty ĒĢäļō£: ļ░śļō£ņŗ£ ņł½ņ×ÉļĪ£ ņŗ£ņ×æĒĢ┤ņĢ╝ ĒĢ©
 219:uartJson.c    ****                  * ņäĀĒ¢ē ņĀ£ņ¢┤ ļ¼Ėņ×ÉĻ░Ć ņ×łņ£╝ļ®┤ atoi()Ļ░Ć 0ņØä ļ░śĒÖśĒĢśļ»ĆļĪ£ ļ¬ģņŗ£ņĀü ņ▓┤Ēü
 220:uartJson.c    ****                 if (*ptr < '0' || *ptr > '9') return FALSE;
 106              		.loc 1 220 0
 107 0054 3038     		subs	r0, r0, #48
 108 0056 C0B2     		uxtb	r0, r0
 109 0058 0928     		cmp	r0, #9
 110 005a 57D8     		bhi	.L11
 221:uartJson.c    ****                 actual_qty = (uint16) atoi(ptr);
 111              		.loc 1 221 0
 112 005c 2800     		movs	r0, r5
 113 005e FFF7FEFF 		bl	atoi
 114              	.LVL9:
 115 0062 86B2     		uxth	r6, r0
ARM GAS  C:\Users\luvsd\AppData\Local\Temp\ccw5KtQf.s 			page 7


 116              	.LVL10:
 222:uartJson.c    ****                 break;
 117              		.loc 1 222 0
 118 0064 0EE0     		b	.L5
 119              	.L6:
 223:uartJson.c    ****             case 1: cycle_time_s        = (uint32) atol(ptr); break;
 120              		.loc 1 223 0
 121 0066 2800     		movs	r0, r5
 122 0068 FFF7FEFF 		bl	atol
 123              	.LVL11:
 124 006c 0090     		str	r0, [sp]
 125              	.LVL12:
 126 006e 09E0     		b	.L5
 127              	.LVL13:
 128              	.L8:
 224:uartJson.c    ****             case 2: thread_breakage_qty = (uint16) atoi(ptr); break;
 129              		.loc 1 224 0
 130 0070 2800     		movs	r0, r5
 131 0072 FFF7FEFF 		bl	atoi
 132              	.LVL14:
 133 0076 83B2     		uxth	r3, r0
 134 0078 9846     		mov	r8, r3
 135              	.LVL15:
 136 007a 03E0     		b	.L5
 137              	.L9:
 225:uartJson.c    ****             case 3: motor_runtime_s     = (uint32) atol(ptr); break;
 138              		.loc 1 225 0
 139 007c 2800     		movs	r0, r5
 140 007e FFF7FEFF 		bl	atol
 141              	.LVL16:
 142 0082 0190     		str	r0, [sp, #4]
 143              	.LVL17:
 144              	.L5:
 226:uartJson.c    ****         }
 227:uartJson.c    ****         ptr = sep + 1;
 145              		.loc 1 227 0
 146 0084 7D1C     		adds	r5, r7, #1
 147              	.LVL18:
 228:uartJson.c    ****         fieldIdx++;
 148              		.loc 1 228 0
 149 0086 0134     		adds	r4, r4, #1
 150              	.LVL19:
 151 0088 E4B2     		uxtb	r4, r4
 152              	.LVL20:
 153              	.L2:
 154              	.LBE2:
 203:uartJson.c    ****     {
 155              		.loc 1 203 0
 156 008a 032C     		cmp	r4, #3
 157 008c CED9     		bls	.L10
 158              	.L3:
 229:uartJson.c    ****     }
 230:uartJson.c    **** 
 231:uartJson.c    ****     if (fieldIdx < 4) return FALSE;
 159              		.loc 1 231 0
 160 008e 032C     		cmp	r4, #3
 161 0090 3ED9     		bls	.L12
ARM GAS  C:\Users\luvsd\AppData\Local\Temp\ccw5KtQf.s 			page 8


 232:uartJson.c    **** 
 233:uartJson.c    ****     /* ļ▓öņ£ä ņ£ĀĒÜ©ņä▒ Ļ▓Ćņé¼ */
 234:uartJson.c    ****     if (actual_qty          == 0u)    return FALSE;  /* 0ņłśļ¤ē Ēī©ĒéĘ ļ¼┤ņŗ£ */
 162              		.loc 1 234 0
 163 0092 002E     		cmp	r6, #0
 164 0094 3ED0     		beq	.L13
 235:uartJson.c    ****     if (actual_qty          > 10000u) return FALSE;
 165              		.loc 1 235 0
 166 0096 2A4B     		ldr	r3, .L18+12
 167 0098 9E42     		cmp	r6, r3
 168 009a 3DD8     		bhi	.L14
 236:uartJson.c    ****     if (cycle_time_s        > 10800u) return FALSE;  /* ņĄ£ļīĆ 3ņŗ£Ļ░ä */
 169              		.loc 1 236 0
 170 009c 294B     		ldr	r3, .L18+16
 171 009e 0099     		ldr	r1, [sp]
 172 00a0 9942     		cmp	r1, r3
 173 00a2 3BD8     		bhi	.L15
 237:uartJson.c    ****     if (thread_breakage_qty > 1000u)  return FALSE;
 174              		.loc 1 237 0
 175 00a4 FA23     		movs	r3, #250
 176 00a6 9B00     		lsls	r3, r3, #2
 177 00a8 9845     		cmp	r8, r3
 178 00aa 39D8     		bhi	.L16
 238:uartJson.c    ****     if (motor_runtime_s     > 10800u) return FALSE;  /* ņĄ£ļīĆ 3ņŗ£Ļ░ä */
 179              		.loc 1 238 0
 180 00ac 254B     		ldr	r3, .L18+16
 181 00ae 019C     		ldr	r4, [sp, #4]
 182              	.LVL21:
 183 00b0 9C42     		cmp	r4, r3
 184 00b2 37D8     		bhi	.L17
 239:uartJson.c    **** 
 240:uartJson.c    ****     /* ŌöĆŌöĆ COUNT ĻĄ¼ņĪ░ņ▓┤ņŚÉ ĒĢĀļŗ╣ ŌöĆŌöĆ */
 241:uartJson.c    **** 
 242:uartJson.c    ****     /* actual_qty: ņ”ØļČäĻ░Æ ļłäņé░ */
 243:uartJson.c    ****     ptrCount->patternCount += actual_qty;
 185              		.loc 1 243 0
 186 00b4 5B46     		mov	r3, fp
 187 00b6 188C     		ldrh	r0, [r3, #32]
 188 00b8 3018     		adds	r0, r6, r0
 189 00ba 1884     		strh	r0, [r3, #32]
 244:uartJson.c    **** 
 245:uartJson.c    ****     /* cycle_time: ņ┤ł ļŗ©ņ£ä ĻĘĖļīĆļĪ£ ņĀĆņ×ź */
 246:uartJson.c    ****     ptrCount->patternCycleTime = (uint16)(cycle_time_s);
 190              		.loc 1 246 0
 191 00bc 8BB2     		uxth	r3, r1
 192 00be 5A46     		mov	r2, fp
 193 00c0 5385     		strh	r3, [r2, #42]
 194              	.LBB3:
 247:uartJson.c    ****     ADD_CONVERT_TO_4BYTE(ptrCount->patternCycleTimeSumH, ptrCount->patternCycleTimeSumL,
 195              		.loc 1 247 0
 196 00c2 968D     		ldrh	r6, [r2, #44]
 197              	.LVL22:
 198 00c4 3604     		lsls	r6, r6, #16
 199 00c6 D28D     		ldrh	r2, [r2, #46]
 200 00c8 1643     		orrs	r6, r2
 201 00ca F618     		adds	r6, r6, r3
 202              	.LVL23:
ARM GAS  C:\Users\luvsd\AppData\Local\Temp\ccw5KtQf.s 			page 9


 203 00cc 330C     		lsrs	r3, r6, #16
 204 00ce 5A46     		mov	r2, fp
 205 00d0 9385     		strh	r3, [r2, #44]
 206 00d2 D685     		strh	r6, [r2, #46]
 207              	.LBE3:
 248:uartJson.c    ****                          ptrCount->patternCycleTime);
 249:uartJson.c    **** 
 250:uartJson.c    ****     /* thread_breakage_qty: ļŗ©ņ£ä ļ│ĆĒÖś ņŚåņØī */
 251:uartJson.c    ****     ptrCount->embThreadBreakageQty = thread_breakage_qty;
 208              		.loc 1 251 0
 209 00d4 4A23     		movs	r3, #74
 210 00d6 4146     		mov	r1, r8
 211 00d8 D152     		strh	r1, [r2, r3]
 212              	.LBB4:
 252:uartJson.c    ****     ADD_CONVERT_TO_4BYTE(ptrCount->embThreadBreakageQtySumH, ptrCount->embThreadBreakageQtySumL,
 213              		.loc 1 252 0
 214 00da 4C22     		movs	r2, #76
 215 00dc 5B46     		mov	r3, fp
 216 00de 985A     		ldrh	r0, [r3, r2]
 217 00e0 0004     		lsls	r0, r0, #16
 218 00e2 4E23     		movs	r3, #78
 219 00e4 5946     		mov	r1, fp
 220 00e6 C95A     		ldrh	r1, [r1, r3]
 221 00e8 0843     		orrs	r0, r1
 222 00ea 4044     		add	r0, r0, r8
 223              	.LVL24:
 224 00ec 010C     		lsrs	r1, r0, #16
 225 00ee 5D46     		mov	r5, fp
 226              	.LVL25:
 227 00f0 A952     		strh	r1, [r5, r2]
 228 00f2 E852     		strh	r0, [r5, r3]
 229              	.LBE4:
 253:uartJson.c    ****                          ptrCount->embThreadBreakageQty);
 254:uartJson.c    **** 
 255:uartJson.c    ****     /* motor_runtime: ņ┤ł ļŗ©ņ£ä ĻĘĖļīĆļĪ£ ņĀĆņ×ź */
 256:uartJson.c    ****     ptrCount->patternMotorRunTime = (uint16)(motor_runtime_s);
 230              		.loc 1 256 0
 231 00f4 A3B2     		uxth	r3, r4
 232 00f6 2B86     		strh	r3, [r5, #48]
 233              	.LBB5:
 257:uartJson.c    ****     ADD_CONVERT_TO_4BYTE(ptrCount->patternMotorRunTimeSumH, ptrCount->patternMotorRunTimeSumL,
 234              		.loc 1 257 0
 235 00f8 6F8E     		ldrh	r7, [r5, #50]
 236 00fa 3F04     		lsls	r7, r7, #16
 237 00fc AA8E     		ldrh	r2, [r5, #52]
 238 00fe 1743     		orrs	r7, r2
 239 0100 FF18     		adds	r7, r7, r3
 240              	.LVL26:
 241 0102 3B0C     		lsrs	r3, r7, #16
 242 0104 6B86     		strh	r3, [r5, #50]
 243 0106 AF86     		strh	r7, [r5, #52]
 244              	.LBE5:
 258:uartJson.c    ****                          ptrCount->patternMotorRunTime);
 259:uartJson.c    **** 
 260:uartJson.c    ****     return TRUE;
 245              		.loc 1 260 0
 246 0108 0120     		movs	r0, #1
ARM GAS  C:\Users\luvsd\AppData\Local\Temp\ccw5KtQf.s 			page 10


 247              	.LVL27:
 248 010a 0CE0     		b	.L4
 249              	.LVL28:
 250              	.L11:
 251              	.LBB6:
 220:uartJson.c    ****                 actual_qty = (uint16) atoi(ptr);
 252              		.loc 1 220 0
 253 010c 0020     		movs	r0, #0
 254 010e 0AE0     		b	.L4
 255              	.LVL29:
 256              	.L12:
 257              	.LBE6:
 231:uartJson.c    **** 
 258              		.loc 1 231 0
 259 0110 0020     		movs	r0, #0
 260 0112 08E0     		b	.L4
 261              	.L13:
 234:uartJson.c    ****     if (actual_qty          > 10000u) return FALSE;
 262              		.loc 1 234 0
 263 0114 0020     		movs	r0, #0
 264 0116 06E0     		b	.L4
 265              	.L14:
 235:uartJson.c    ****     if (cycle_time_s        > 10800u) return FALSE;  /* ņĄ£ļīĆ 3ņŗ£Ļ░ä */
 266              		.loc 1 235 0
 267 0118 0020     		movs	r0, #0
 268 011a 04E0     		b	.L4
 269              	.L15:
 236:uartJson.c    ****     if (thread_breakage_qty > 1000u)  return FALSE;
 270              		.loc 1 236 0
 271 011c 0020     		movs	r0, #0
 272 011e 02E0     		b	.L4
 273              	.L16:
 237:uartJson.c    ****     if (motor_runtime_s     > 10800u) return FALSE;  /* ņĄ£ļīĆ 3ņŗ£Ļ░ä */
 274              		.loc 1 237 0
 275 0120 0020     		movs	r0, #0
 276 0122 00E0     		b	.L4
 277              	.LVL30:
 278              	.L17:
 238:uartJson.c    **** 
 279              		.loc 1 238 0
 280 0124 0020     		movs	r0, #0
 281              	.LVL31:
 282              	.L4:
 261:uartJson.c    **** }
 283              		.loc 1 261 0
 284 0126 8323     		movs	r3, #131
 285 0128 9B00     		lsls	r3, r3, #2
 286 012a 9D44     		add	sp, sp, r3
 287              		@ sp needed
 288              	.LVL32:
 289              	.LVL33:
 290 012c 0CBC     		pop	{r2, r3}
 291 012e 9046     		mov	r8, r2
 292 0130 9B46     		mov	fp, r3
 293 0132 F0BD     		pop	{r4, r5, r6, r7, pc}
 294              	.L19:
 295              		.align	2
ARM GAS  C:\Users\luvsd\AppData\Local\Temp\ccw5KtQf.s 			page 11


 296              	.L18:
 297 0134 F4FDFFFF 		.word	-524
 298 0138 00000000 		.word	.LANCHOR0
 299 013c 00000000 		.word	.LC1
 300 0140 10270000 		.word	10000
 301 0144 302A0000 		.word	10800
 302              		.cfi_endproc
 303              	.LFE63:
 304              		.size	uartEmbParsor, .-uartEmbParsor
 305              		.section	.text.uartJsonLoop,"ax",%progbits
 306              		.align	2
 307              		.global	uartJsonLoop
 308              		.code	16
 309              		.thumb_func
 310              		.type	uartJsonLoop, %function
 311              	uartJsonLoop:
 312              	.LFB62:
  44:uartJson.c    ****     COUNT *ptrCount = getCount();
 313              		.loc 1 44 0
 314              		.cfi_startproc
 315              		@ args = 0, pretend = 0, frame = 0
 316              		@ frame_needed = 0, uses_anonymous_args = 0
 317 0000 70B5     		push	{r4, r5, r6, lr}
 318              		.cfi_def_cfa_offset 16
 319              		.cfi_offset 4, -16
 320              		.cfi_offset 5, -12
 321              		.cfi_offset 6, -8
 322              		.cfi_offset 14, -4
  45:uartJson.c    **** 
 323              		.loc 1 45 0
 324 0002 FFF7FEFF 		bl	getCount
 325              	.LVL34:
 326 0006 0500     		movs	r5, r0
 327              	.LVL35:
  47:uartJson.c    ****     {
 328              		.loc 1 47 0
 329 0008 E7E0     		b	.L21
 330              	.LVL36:
 331              	.L43:
 332              	.LBB7:
  49:uartJson.c    **** 
 333              		.loc 1 49 0
 334 000a FFF7FEFF 		bl	UART_UartGetChar
 335              	.LVL37:
 336 000e C0B2     		uxtb	r0, r0
 337              	.LVL38:
  57:uartJson.c    ****         {
 338              		.loc 1 57 0
 339 0010 0D28     		cmp	r0, #13
 340 0012 03D0     		beq	.L22
  57:uartJson.c    ****         {
 341              		.loc 1 57 0 is_stmt 0 discriminator 1
 342 0014 0A28     		cmp	r0, #10
 343 0016 01D0     		beq	.L22
  57:uartJson.c    ****         {
 344              		.loc 1 57 0 discriminator 2
 345 0018 0028     		cmp	r0, #0
ARM GAS  C:\Users\luvsd\AppData\Local\Temp\ccw5KtQf.s 			page 12


 346 001a 66D1     		bne	.L23
 347              	.L22:
  59:uartJson.c    ****             {
 348              		.loc 1 59 0 is_stmt 1
 349 001c 724B     		ldr	r3, .L46
 350 001e 1C68     		ldr	r4, [r3]
 351 0020 002C     		cmp	r4, #0
 352 0022 08DC     		bgt	.L44
 353 0024 D9E0     		b	.L21
 354              	.LVL39:
 355              	.L27:
 356              	.LBB8:
  66:uartJson.c    ****                 }
 357              		.loc 1 66 0
 358 0026 714A     		ldr	r2, .L46+4
 359 0028 D25C     		ldrb	r2, [r2, r3]
 360 002a 3B2A     		cmp	r2, #59
 361 002c 01D1     		bne	.L26
  66:uartJson.c    ****                 }
 362              		.loc 1 66 0 is_stmt 0 discriminator 1
 363 002e 0131     		adds	r1, r1, #1
 364              	.LVL40:
 365 0030 C9B2     		uxtb	r1, r1
 366              	.LVL41:
 367              	.L26:
  64:uartJson.c    ****                 {
 368              		.loc 1 64 0 is_stmt 1 discriminator 2
 369 0032 0133     		adds	r3, r3, #1
 370              	.LVL42:
 371 0034 01E0     		b	.L24
 372              	.LVL43:
 373              	.L44:
 374              	.LBE8:
 375 0036 0023     		movs	r3, #0
 376 0038 0021     		movs	r1, #0
 377              	.L24:
 378              	.LVL44:
 379              	.LBB10:
  64:uartJson.c    ****                 {
 380              		.loc 1 64 0 is_stmt 0 discriminator 1
 381 003a A342     		cmp	r3, r4
 382 003c F3DB     		blt	.L27
  69:uartJson.c    ****                 {
 383              		.loc 1 69 0 is_stmt 1
 384 003e 0329     		cmp	r1, #3
 385 0040 3ED1     		bne	.L28
  69:uartJson.c    ****                 {
 386              		.loc 1 69 0 is_stmt 0 discriminator 1
 387 0042 FE23     		movs	r3, #254
 388              	.LVL45:
 389 0044 FF33     		adds	r3, r3, #255
 390 0046 9C42     		cmp	r4, r3
 391 0048 3ADC     		bgt	.L28
  72:uartJson.c    ****                     g_UART_buff[g_UART_buff_index]   = '\0';
 392              		.loc 1 72 0 is_stmt 1
 393 004a 631C     		adds	r3, r4, #1
 394 004c 664A     		ldr	r2, .L46
ARM GAS  C:\Users\luvsd\AppData\Local\Temp\ccw5KtQf.s 			page 13


 395 004e 1360     		str	r3, [r2]
 396 0050 664A     		ldr	r2, .L46+4
 397 0052 3831     		adds	r1, r1, #56
 398              	.LVL46:
 399 0054 1155     		strb	r1, [r2, r4]
  73:uartJson.c    **** 
 400              		.loc 1 73 0
 401 0056 0021     		movs	r1, #0
 402 0058 D154     		strb	r1, [r2, r3]
  75:uartJson.c    ****                     {
 403              		.loc 1 75 0
 404 005a 2800     		movs	r0, r5
 405              	.LVL47:
 406 005c FFF7FEFF 		bl	uartEmbParsor
 407              	.LVL48:
 408 0060 0028     		cmp	r0, #0
 409 0062 25D0     		beq	.L29
  77:uartJson.c    ****                         {
 410              		.loc 1 77 0
 411 0064 624B     		ldr	r3, .L46+8
 412 0066 1B78     		ldrb	r3, [r3]
 413 0068 002B     		cmp	r3, #0
 414 006a 02D0     		beq	.L30
  79:uartJson.c    ****                         }
 415              		.loc 1 79 0
 416 006c 5F48     		ldr	r0, .L46+4
 417 006e FFF7FEFF 		bl	uartTestAddLine
 418              	.LVL49:
 419              	.L30:
  81:uartJson.c    ****                         makeAndonPatternCount();
 420              		.loc 1 81 0
 421 0072 0122     		movs	r2, #1
 422 0074 5F4B     		ldr	r3, .L46+12
 423 0076 1A70     		strb	r2, [r3]
  82:uartJson.c    ****                         ADD_CONVERT_TO_4BYTE(ptrCount->patternActualH, ptrCount->patternActualL,
 424              		.loc 1 82 0
 425 0078 FFF7FEFF 		bl	makeAndonPatternCount
 426              	.LVL50:
 427              	.LBB9:
  83:uartJson.c    ****                                              ptrCount->patternCount * 10u);
 428              		.loc 1 83 0
 429 007c AB8B     		ldrh	r3, [r5, #28]
 430 007e 1B04     		lsls	r3, r3, #16
 431 0080 EA8B     		ldrh	r2, [r5, #30]
 432 0082 1A43     		orrs	r2, r3
 433 0084 2B8C     		ldrh	r3, [r5, #32]
 434 0086 9900     		lsls	r1, r3, #2
 435 0088 C918     		adds	r1, r1, r3
 436 008a 4B00     		lsls	r3, r1, #1
 437 008c D318     		adds	r3, r2, r3
 438              	.LVL51:
 439 008e 1A0C     		lsrs	r2, r3, #16
 440 0090 AA83     		strh	r2, [r5, #28]
 441 0092 EB83     		strh	r3, [r5, #30]
 442              	.LBE9:
  85:uartJson.c    ****                         ForcefullyMarkDowntimeAsComplete();
 443              		.loc 1 85 0
ARM GAS  C:\Users\luvsd\AppData\Local\Temp\ccw5KtQf.s 			page 14


 444 0094 0024     		movs	r4, #0
 445 0096 2C84     		strh	r4, [r5, #32]
  86:uartJson.c    **** 
 446              		.loc 1 86 0
 447 0098 FFF7FEFF 		bl	ForcefullyMarkDowntimeAsComplete
 448              	.LVL52:
  88:uartJson.c    ****                         memset(g_UART_buff, 0, UART_BUFFER_SIZE);
 449              		.loc 1 88 0
 450 009c 524B     		ldr	r3, .L46
 451 009e 1C60     		str	r4, [r3]
  89:uartJson.c    ****                         return TRUE;
 452              		.loc 1 89 0
 453 00a0 8022     		movs	r2, #128
 454 00a2 9200     		lsls	r2, r2, #2
 455 00a4 0021     		movs	r1, #0
 456 00a6 5148     		ldr	r0, .L46+4
 457 00a8 FFF7FEFF 		bl	memset
 458              	.LVL53:
  90:uartJson.c    ****                     }
 459              		.loc 1 90 0
 460 00ac 0120     		movs	r0, #1
 461 00ae 99E0     		b	.L31
 462              	.L29:
  93:uartJson.c    ****                 }
 463              		.loc 1 93 0
 464 00b0 4F4B     		ldr	r3, .L46+8
 465 00b2 1B78     		ldrb	r3, [r3]
 466 00b4 002B     		cmp	r3, #0
 467 00b6 0ED0     		beq	.L32
  93:uartJson.c    ****                 }
 468              		.loc 1 93 0 is_stmt 0 discriminator 1
 469 00b8 4C48     		ldr	r0, .L46+4
 470 00ba FFF7FEFF 		bl	uartTestAddLine
 471              	.LVL54:
 472 00be 0AE0     		b	.L32
 473              	.LVL55:
 474              	.L28:
  95:uartJson.c    ****                 {
 475              		.loc 1 95 0 is_stmt 1
 476 00c0 4B4B     		ldr	r3, .L46+8
 477 00c2 1B78     		ldrb	r3, [r3]
 478 00c4 002B     		cmp	r3, #0
 479 00c6 06D0     		beq	.L32
  95:uartJson.c    ****                 {
 480              		.loc 1 95 0 is_stmt 0 discriminator 1
 481 00c8 0029     		cmp	r1, #0
 482 00ca 04D0     		beq	.L32
  99:uartJson.c    ****                     uartTestAddLine(g_UART_buff);
 483              		.loc 1 99 0 is_stmt 1
 484 00cc 4748     		ldr	r0, .L46+4
 485              	.LVL56:
 486 00ce 0023     		movs	r3, #0
 487 00d0 0355     		strb	r3, [r0, r4]
 100:uartJson.c    ****                 }
 488              		.loc 1 100 0
 489 00d2 FFF7FEFF 		bl	uartTestAddLine
 490              	.LVL57:
ARM GAS  C:\Users\luvsd\AppData\Local\Temp\ccw5KtQf.s 			page 15


 491              	.L32:
 103:uartJson.c    ****                 memset(g_UART_buff, 0, UART_BUFFER_SIZE);
 492              		.loc 1 103 0
 493 00d6 0022     		movs	r2, #0
 494 00d8 434B     		ldr	r3, .L46
 495 00da 1A60     		str	r2, [r3]
 104:uartJson.c    ****             }
 496              		.loc 1 104 0
 497 00dc 8022     		movs	r2, #128
 498 00de 9200     		lsls	r2, r2, #2
 499 00e0 0021     		movs	r1, #0
 500 00e2 4248     		ldr	r0, .L46+4
 501 00e4 FFF7FEFF 		bl	memset
 502              	.LVL58:
 503              	.LBE10:
 106:uartJson.c    ****         }
 504              		.loc 1 106 0
 505 00e8 77E0     		b	.L21
 506              	.LVL59:
 507              	.L23:
 111:uartJson.c    **** 
 508              		.loc 1 111 0
 509 00ea 3F4B     		ldr	r3, .L46
 510 00ec 1B68     		ldr	r3, [r3]
 511 00ee 002B     		cmp	r3, #0
 512 00f0 04D1     		bne	.L34
 111:uartJson.c    **** 
 513              		.loc 1 111 0 is_stmt 0 discriminator 1
 514 00f2 0200     		movs	r2, r0
 515 00f4 303A     		subs	r2, r2, #48
 516 00f6 D2B2     		uxtb	r2, r2
 517 00f8 092A     		cmp	r2, #9
 518 00fa 6ED8     		bhi	.L21
 519              	.L34:
 116:uartJson.c    ****         {
 520              		.loc 1 116 0 is_stmt 1
 521 00fc 002B     		cmp	r3, #0
 522 00fe 10DD     		ble	.L35
 116:uartJson.c    ****         {
 523              		.loc 1 116 0 is_stmt 0 discriminator 1
 524 0100 0200     		movs	r2, r0
 525 0102 303A     		subs	r2, r2, #48
 526 0104 D2B2     		uxtb	r2, r2
 527 0106 092A     		cmp	r2, #9
 528 0108 0BD9     		bls	.L35
 116:uartJson.c    ****         {
 529              		.loc 1 116 0 discriminator 2
 530 010a 3B28     		cmp	r0, #59
 531 010c 09D0     		beq	.L35
 118:uartJson.c    ****             memset(g_UART_buff, 0, UART_BUFFER_SIZE);
 532              		.loc 1 118 0 is_stmt 1
 533 010e 0022     		movs	r2, #0
 534 0110 354B     		ldr	r3, .L46
 535 0112 1A60     		str	r2, [r3]
 119:uartJson.c    ****             continue;
 536              		.loc 1 119 0
 537 0114 8022     		movs	r2, #128
ARM GAS  C:\Users\luvsd\AppData\Local\Temp\ccw5KtQf.s 			page 16


 538 0116 9200     		lsls	r2, r2, #2
 539 0118 0021     		movs	r1, #0
 540 011a 3448     		ldr	r0, .L46+4
 541              	.LVL60:
 542 011c FFF7FEFF 		bl	memset
 543              	.LVL61:
 120:uartJson.c    ****         }
 544              		.loc 1 120 0
 545 0120 5BE0     		b	.L21
 546              	.LVL62:
 547              	.L35:
 123:uartJson.c    ****         {
 548              		.loc 1 123 0
 549 0122 FF22     		movs	r2, #255
 550 0124 5200     		lsls	r2, r2, #1
 551 0126 9342     		cmp	r3, r2
 552 0128 03DD     		ble	.L36
 125:uartJson.c    ****             continue;
 553              		.loc 1 125 0
 554 012a 0022     		movs	r2, #0
 555 012c 2E4B     		ldr	r3, .L46
 556 012e 1A60     		str	r2, [r3]
 126:uartJson.c    ****         }
 557              		.loc 1 126 0
 558 0130 53E0     		b	.L21
 559              	.L36:
 129:uartJson.c    **** 
 560              		.loc 1 129 0
 561 0132 5C1C     		adds	r4, r3, #1
 562 0134 2C4A     		ldr	r2, .L46
 563 0136 1460     		str	r4, [r2]
 564 0138 2C4A     		ldr	r2, .L46+4
 565 013a D054     		strb	r0, [r2, r3]
 131:uartJson.c    ****         {
 566              		.loc 1 131 0
 567 013c 3B28     		cmp	r0, #59
 568 013e 4CD1     		bne	.L21
 569 0140 07E0     		b	.L45
 570              	.LVL63:
 571              	.L39:
 572              	.LBB11:
 138:uartJson.c    ****             }
 573              		.loc 1 138 0
 574 0142 2A4A     		ldr	r2, .L46+4
 575 0144 D25C     		ldrb	r2, [r2, r3]
 576 0146 3B2A     		cmp	r2, #59
 577 0148 01D1     		bne	.L38
 138:uartJson.c    ****             }
 578              		.loc 1 138 0 is_stmt 0 discriminator 1
 579 014a 0131     		adds	r1, r1, #1
 580              	.LVL64:
 581 014c C9B2     		uxtb	r1, r1
 582              	.LVL65:
 583              	.L38:
 136:uartJson.c    ****             {
 584              		.loc 1 136 0 is_stmt 1 discriminator 2
 585 014e 0133     		adds	r3, r3, #1
ARM GAS  C:\Users\luvsd\AppData\Local\Temp\ccw5KtQf.s 			page 17


 586              	.LVL66:
 587 0150 01E0     		b	.L37
 588              	.LVL67:
 589              	.L45:
 590              	.LBE11:
 591 0152 0023     		movs	r3, #0
 592 0154 0021     		movs	r1, #0
 593              	.L37:
 594              	.LVL68:
 595              	.LBB13:
 136:uartJson.c    ****             {
 596              		.loc 1 136 0 is_stmt 0 discriminator 1
 597 0156 A342     		cmp	r3, r4
 598 0158 F3DB     		blt	.L39
 141:uartJson.c    ****             {
 599              		.loc 1 141 0 is_stmt 1
 600 015a 0329     		cmp	r1, #3
 601 015c 3DD9     		bls	.L21
 143:uartJson.c    **** 
 602              		.loc 1 143 0
 603 015e 0022     		movs	r2, #0
 604 0160 224B     		ldr	r3, .L46+4
 605              	.LVL69:
 606 0162 1A55     		strb	r2, [r3, r4]
 145:uartJson.c    ****                 {
 607              		.loc 1 145 0
 608 0164 2800     		movs	r0, r5
 609              	.LVL70:
 610 0166 FFF7FEFF 		bl	uartEmbParsor
 611              	.LVL71:
 612 016a 0028     		cmp	r0, #0
 613 016c 25D0     		beq	.L40
 148:uartJson.c    ****                     {
 614              		.loc 1 148 0
 615 016e 204B     		ldr	r3, .L46+8
 616 0170 1B78     		ldrb	r3, [r3]
 617 0172 002B     		cmp	r3, #0
 618 0174 02D0     		beq	.L41
 150:uartJson.c    ****                     }
 619              		.loc 1 150 0
 620 0176 1D48     		ldr	r0, .L46+4
 621 0178 FFF7FEFF 		bl	uartTestAddLine
 622              	.LVL72:
 623              	.L41:
 154:uartJson.c    ****                     makeAndonPatternCount();
 624              		.loc 1 154 0
 625 017c 0122     		movs	r2, #1
 626 017e 1D4B     		ldr	r3, .L46+12
 627 0180 1A70     		strb	r2, [r3]
 155:uartJson.c    **** 
 628              		.loc 1 155 0
 629 0182 FFF7FEFF 		bl	makeAndonPatternCount
 630              	.LVL73:
 631              	.LBB12:
 159:uartJson.c    ****                                          ptrCount->patternCount * 10u);
 632              		.loc 1 159 0
 633 0186 AB8B     		ldrh	r3, [r5, #28]
ARM GAS  C:\Users\luvsd\AppData\Local\Temp\ccw5KtQf.s 			page 18


 634 0188 1B04     		lsls	r3, r3, #16
 635 018a EA8B     		ldrh	r2, [r5, #30]
 636 018c 1A43     		orrs	r2, r3
 637 018e 2B8C     		ldrh	r3, [r5, #32]
 638 0190 9900     		lsls	r1, r3, #2
 639 0192 C918     		adds	r1, r1, r3
 640 0194 4B00     		lsls	r3, r1, #1
 641 0196 D318     		adds	r3, r2, r3
 642              	.LVL74:
 643 0198 1A0C     		lsrs	r2, r3, #16
 644 019a AA83     		strh	r2, [r5, #28]
 645 019c EB83     		strh	r3, [r5, #30]
 646              	.LBE12:
 161:uartJson.c    **** 
 647              		.loc 1 161 0
 648 019e 0024     		movs	r4, #0
 649 01a0 2C84     		strh	r4, [r5, #32]
 163:uartJson.c    ****                     /* SaveInternalFlash() ļŖö Em_EEPROM_Write() ļé┤ļČĆņŚÉņä£ ņĀäņŚŁ ņØĖĒä░ļ¤ĮĒŖĖļź
 650              		.loc 1 163 0
 651 01a2 FFF7FEFF 		bl	ForcefullyMarkDowntimeAsComplete
 652              	.LVL75:
 168:uartJson.c    ****                     memset(g_UART_buff, 0, UART_BUFFER_SIZE);
 653              		.loc 1 168 0
 654 01a6 104B     		ldr	r3, .L46
 655 01a8 1C60     		str	r4, [r3]
 169:uartJson.c    ****                     return TRUE;
 656              		.loc 1 169 0
 657 01aa 8022     		movs	r2, #128
 658 01ac 9200     		lsls	r2, r2, #2
 659 01ae 0021     		movs	r1, #0
 660 01b0 0E48     		ldr	r0, .L46+4
 661 01b2 FFF7FEFF 		bl	memset
 662              	.LVL76:
 170:uartJson.c    ****                 }
 663              		.loc 1 170 0
 664 01b6 0120     		movs	r0, #1
 665 01b8 14E0     		b	.L31
 666              	.L40:
 174:uartJson.c    ****                 g_UART_buff_index = 0;
 667              		.loc 1 174 0
 668 01ba 0D4B     		ldr	r3, .L46+8
 669 01bc 1B78     		ldrb	r3, [r3]
 670 01be 002B     		cmp	r3, #0
 671 01c0 02D0     		beq	.L42
 174:uartJson.c    ****                 g_UART_buff_index = 0;
 672              		.loc 1 174 0 is_stmt 0 discriminator 1
 673 01c2 0A48     		ldr	r0, .L46+4
 674 01c4 FFF7FEFF 		bl	uartTestAddLine
 675              	.LVL77:
 676              	.L42:
 175:uartJson.c    ****                 memset(g_UART_buff, 0, UART_BUFFER_SIZE);
 677              		.loc 1 175 0 is_stmt 1
 678 01c8 0022     		movs	r2, #0
 679 01ca 074B     		ldr	r3, .L46
 680 01cc 1A60     		str	r2, [r3]
 176:uartJson.c    ****             }
 681              		.loc 1 176 0
ARM GAS  C:\Users\luvsd\AppData\Local\Temp\ccw5KtQf.s 			page 19


 682 01ce 8022     		movs	r2, #128
 683 01d0 9200     		lsls	r2, r2, #2
 684 01d2 0021     		movs	r1, #0
 685 01d4 0548     		ldr	r0, .L46+4
 686 01d6 FFF7FEFF 		bl	memset
 687              	.LVL78:
 688              	.L21:
 689              	.LBE13:
 690              	.LBE7:
  47:uartJson.c    ****     {
 691              		.loc 1 47 0
 692 01da FFF7FEFF 		bl	UART_SpiUartGetRxBufferSize
 693              	.LVL79:
 694 01de 0028     		cmp	r0, #0
 695 01e0 00D0     		beq	.LCB713
 696 01e2 12E7     		b	.L43	@long jump
 697              	.LCB713:
 698              	.L31:
 181:uartJson.c    **** 
 699              		.loc 1 181 0
 700              		@ sp needed
 701              	.LVL80:
 702 01e4 70BD     		pop	{r4, r5, r6, pc}
 703              	.L47:
 704 01e6 C046     		.align	2
 705              	.L46:
 706 01e8 00020000 		.word	.LANCHOR1
 707 01ec 00000000 		.word	.LANCHOR0
 708 01f0 00000000 		.word	g_bUartTestMode
 709 01f4 00000000 		.word	g_updateCountMenu
 710              		.cfi_endproc
 711              	.LFE62:
 712              		.size	uartJsonLoop, .-uartJsonLoop
 713              		.comm	Param,6,4
 714              		.section	.rodata.str1.4,"aMS",%progbits,1
 715              		.align	2
 716              	.LC1:
 717 0000 257300   		.ascii	"%s\000"
 718              		.bss
 719              		.align	2
 720              		.set	.LANCHOR0,. + 0
 721              		.set	.LANCHOR1,. + 512
 722              		.type	g_UART_buff, %object
 723              		.size	g_UART_buff, 512
 724              	g_UART_buff:
 725 0000 00000000 		.space	512
 725      00000000 
 725      00000000 
 725      00000000 
 725      00000000 
 726              		.type	g_UART_buff_index, %object
 727              		.size	g_UART_buff_index, 4
 728              	g_UART_buff_index:
 729 0200 00000000 		.space	4
 730              		.text
 731              	.Letext0:
 732              		.file 2 "c:\\program files (x86)\\cypress\\psoc creator\\4.4\\psoc creator\\import\\gnu\\arm\\5.4.
ARM GAS  C:\Users\luvsd\AppData\Local\Temp\ccw5KtQf.s 			page 20


 733              		.file 3 "c:\\program files (x86)\\cypress\\psoc creator\\4.4\\psoc creator\\import\\gnu\\arm\\5.4.
 734              		.file 4 "Generated_Source\\PSoC4/cytypes.h"
 735              		.file 5 "main.h"
 736              		.file 6 "count.h"
 737              		.file 7 "lib/fonts.h"
 738              		.file 8 "Generated_Source\\PSoC4/RTC.h"
 739              		.file 9 "uartTestMenu.h"
 740              		.file 10 "c:\\program files (x86)\\cypress\\psoc creator\\4.4\\psoc creator\\import\\gnu\\arm\\5.4
 741              		.file 11 "c:\\program files (x86)\\cypress\\psoc creator\\4.4\\psoc creator\\import\\gnu\\arm\\5.4
 742              		.file 12 "c:\\program files (x86)\\cypress\\psoc creator\\4.4\\psoc creator\\import\\gnu\\arm\\5.4
 743              		.file 13 "andonApi.h"
 744              		.file 14 "downtime.h"
 745              		.file 15 "Generated_Source\\PSoC4/UART_SPI_UART.h"