ARM GAS  C:\Users\luvsd\AppData\Local\Temp\ccMYsxej.s 			page 1


   1              		.syntax unified
   2              		.cpu cortex-m0
   3              		.fpu softvfp
   4              		.eabi_attribute 20, 1
   5              		.eabi_attribute 21, 1
   6              		.eabi_attribute 23, 3
   7              		.eabi_attribute 24, 1
   8              		.eabi_attribute 25, 1
   9              		.eabi_attribute 26, 1
  10              		.eabi_attribute 30, 1
  11              		.eabi_attribute 34, 0
  12              		.eabi_attribute 18, 4
  13              		.thumb
  14              		.syntax unified
  15              		.file	"USBJsonConfig.c"
  16              		.text
  17              	.Ltext0:
  18              		.cfi_sections	.debug_frame
  19              		.section	.text.initUSBJsonParsor,"ax",%progbits
  20              		.align	2
  21              		.global	initUSBJsonParsor
  22              		.code	16
  23              		.thumb_func
  24              		.type	initUSBJsonParsor, %function
  25              	initUSBJsonParsor:
  26              	.LFB62:
  27              		.file 1 "USBJsonConfig.c"
   1:USBJsonConfig.c **** /* ========================================
   2:USBJsonConfig.c ****  *
   3:USBJsonConfig.c ****  * Copyright Suntech, 2023.02.01
   4:USBJsonConfig.c ****  * All Rights Reserved
   5:USBJsonConfig.c ****  * UNPUBLISHED, LICENSED SOFTWARE.
   6:USBJsonConfig.c ****  *
   7:USBJsonConfig.c ****  * CONFIDENTIAL AND PROPRIETARY INFORMATION
   8:USBJsonConfig.c ****  * WHICH IS THE PROPERTY OF Suntech.
   9:USBJsonConfig.c ****  *
  10:USBJsonConfig.c ****  * ========================================
  11:USBJsonConfig.c **** */
  12:USBJsonConfig.c **** #include "USBJsonConfig.h"
  13:USBJsonConfig.c **** #include "jsonUtil.h"
  14:USBJsonConfig.c **** #include "lib/utility.h"
  15:USBJsonConfig.c **** #include "lib/widget.h"
  16:USBJsonConfig.c **** #include "lib/WIFI.h"
  17:USBJsonConfig.c **** #include "lib/server.h"
  18:USBJsonConfig.c **** #include "lib/externalFlash.h"
  19:USBJsonConfig.c **** #include "lib/menu.h"
  20:USBJsonConfig.c **** 
  21:USBJsonConfig.c **** static char g_usbCmd[100];         /* USBJsonConfig.c ļé┤ļČĆ ņĀäņÜ® */
  22:USBJsonConfig.c **** uint8 JSON_Config(char *buffer, int16 size);
  23:USBJsonConfig.c **** 
  24:USBJsonConfig.c **** //uint8 g_USBRequest = REQ_NONE;
  25:USBJsonConfig.c **** 
  26:USBJsonConfig.c **** static CONFIG_META g_ConfigMeta;   /* USBJsonConfig.c ļé┤ļČĆ ņĀäņÜ® */
  27:USBJsonConfig.c **** 
  28:USBJsonConfig.c **** void USB_CommandProcess();
  29:USBJsonConfig.c **** 
  30:USBJsonConfig.c **** void initUSBJsonParsor()
ARM GAS  C:\Users\luvsd\AppData\Local\Temp\ccMYsxej.s 			page 2


  31:USBJsonConfig.c **** {
  28              		.loc 1 31 0
  29              		.cfi_startproc
  30              		@ args = 0, pretend = 0, frame = 0
  31              		@ frame_needed = 0, uses_anonymous_args = 0
  32 0000 10B5     		push	{r4, lr}
  33              		.cfi_def_cfa_offset 8
  34              		.cfi_offset 4, -8
  35              		.cfi_offset 14, -4
  32:USBJsonConfig.c ****     initUSB();
  36              		.loc 1 32 0
  37 0002 FFF7FEFF 		bl	initUSB
  38              	.LVL0:
  33:USBJsonConfig.c **** }
  39              		.loc 1 33 0
  40              		@ sp needed
  41 0006 10BD     		pop	{r4, pc}
  42              		.cfi_endproc
  43              	.LFE62:
  44              		.size	initUSBJsonParsor, .-initUSBJsonParsor
  45              		.section	.text.SendConfigData,"ax",%progbits
  46              		.align	2
  47              		.global	SendConfigData
  48              		.code	16
  49              		.thumb_func
  50              		.type	SendConfigData, %function
  51              	SendConfigData:
  52              	.LFB65:
  34:USBJsonConfig.c **** 
  35:USBJsonConfig.c **** void usbJsonParsorLoop()
  36:USBJsonConfig.c **** {
  37:USBJsonConfig.c ****     usbLoop();
  38:USBJsonConfig.c ****     
  39:USBJsonConfig.c ****     if(g_size_USB_ReceiveBuffer == 0) return;
  40:USBJsonConfig.c ****             
  41:USBJsonConfig.c ****     if(JSON_Config((char *) getUSB_ReceiveBuffer(), g_size_USB_ReceiveBuffer) == TRUE) g_size_USB_R
  42:USBJsonConfig.c ****     
  43:USBJsonConfig.c ****     USB_CommandProcess();
  44:USBJsonConfig.c **** }
  45:USBJsonConfig.c **** 
  46:USBJsonConfig.c **** void USB_CommandProcess()
  47:USBJsonConfig.c **** {
  48:USBJsonConfig.c ****     int nLoop=0;
  49:USBJsonConfig.c **** 
  50:USBJsonConfig.c ****     switch(g_ConfigMeta.uRequestType)
  51:USBJsonConfig.c ****     {
  52:USBJsonConfig.c ****         case REQ_SYSTEM_CMD:
  53:USBJsonConfig.c ****         {
  54:USBJsonConfig.c ****             if(g_network.bWifiReady != TRUE) return;            
  55:USBJsonConfig.c ****                         
  56:USBJsonConfig.c ****             //////////////////////////////////
  57:USBJsonConfig.c ****             if(strcmp(g_usbCmd,"connect")==0)
  58:USBJsonConfig.c ****             //////////////////////////////////            
  59:USBJsonConfig.c ****             {
  60:USBJsonConfig.c ****                 ShowMessage("AP SCANNING..");
  61:USBJsonConfig.c **** 
  62:USBJsonConfig.c ****                 clearWifiBuffer();
ARM GAS  C:\Users\luvsd\AppData\Local\Temp\ccMYsxej.s 			page 3


  63:USBJsonConfig.c ****                 wifi_cmd(WIFI_CMD_AP_SCAN);
  64:USBJsonConfig.c ****                 while(g_wifi_cmd != WIFI_CMD_IDLE)
  65:USBJsonConfig.c ****                 {
  66:USBJsonConfig.c ****                     usbLoop();
  67:USBJsonConfig.c ****                     if(wifi_receive_data()==TRUE)
  68:USBJsonConfig.c ****                     {
  69:USBJsonConfig.c ****                         wifi_get_response();
  70:USBJsonConfig.c ****                         clearWifiBuffer();
  71:USBJsonConfig.c ****                     }
  72:USBJsonConfig.c ****                 }
  73:USBJsonConfig.c ****                 ShowMessage("SCANED %dth",g_SizeOfAPs);
  74:USBJsonConfig.c ****                 SendConfigData();
  75:USBJsonConfig.c ****                 break;
  76:USBJsonConfig.c ****             }
  77:USBJsonConfig.c ****             //////////////////////////////////
  78:USBJsonConfig.c ****             if(strcmp(g_usbCmd,"reboot")==0)
  79:USBJsonConfig.c ****             ////////////////////////////////// 
  80:USBJsonConfig.c ****             {
  81:USBJsonConfig.c ****                 //Bootloadable_Load();
  82:USBJsonConfig.c ****                 CySoftwareReset();
  83:USBJsonConfig.c ****                 break;
  84:USBJsonConfig.c ****             }
  85:USBJsonConfig.c ****             //////////////////////////////////
  86:USBJsonConfig.c ****             if(strcmp(g_usbCmd,"disconnect")==0)
  87:USBJsonConfig.c ****             ////////////////////////////////// 
  88:USBJsonConfig.c ****             {
  89:USBJsonConfig.c ****                 reflashMenu();
  90:USBJsonConfig.c ****                 break;            
  91:USBJsonConfig.c ****             }       
  92:USBJsonConfig.c ****             //////////////////////////////////
  93:USBJsonConfig.c ****             if(strcmp(g_usbCmd,"firmwareUpgrade")==0)
  94:USBJsonConfig.c ****             ////////////////////////////////// 
  95:USBJsonConfig.c ****             {
  96:USBJsonConfig.c ****                 #ifdef BOOT_LOADERBLE_EXIST                                    
  97:USBJsonConfig.c ****                     printf("Firmware Upgrade\r\n");
  98:USBJsonConfig.c ****                     CyDelay(100);
  99:USBJsonConfig.c ****                     Bootloadable_Load();
 100:USBJsonConfig.c ****                     CySoftwareReset();
 101:USBJsonConfig.c ****                 #endif
 102:USBJsonConfig.c ****                 break;                   
 103:USBJsonConfig.c ****             }            
 104:USBJsonConfig.c ****         }
 105:USBJsonConfig.c ****         case REQ_READ_CONFIG:
 106:USBJsonConfig.c ****         {
 107:USBJsonConfig.c ****             printf("Read Confdig\r\n");
 108:USBJsonConfig.c ****             printConfig();
 109:USBJsonConfig.c ****             SendConfigData();
 110:USBJsonConfig.c ****         }
 111:USBJsonConfig.c ****         break;
 112:USBJsonConfig.c ****         case REQ_WRITE_CONFIG:
 113:USBJsonConfig.c ****         {
 114:USBJsonConfig.c ****             unsigned int len;
 115:USBJsonConfig.c ****             removeWhiteSpace(g_ConfigMeta.url);   // remove white space
 116:USBJsonConfig.c ****             removeDoubleSlash(g_ConfigMeta.url);  // remove double slash('/')
 117:USBJsonConfig.c ****             len = strlen(g_ConfigMeta.url);
 118:USBJsonConfig.c ****             if(len > 0 && g_ConfigMeta.url[len-1] == '/') g_ConfigMeta.url[len-1] = '\0'; // remove
 119:USBJsonConfig.c **** 
ARM GAS  C:\Users\luvsd\AppData\Local\Temp\ccMYsxej.s 			page 4


 120:USBJsonConfig.c ****             /* IP+Ļ▓ĮļĪ£ ĒåĄĒĢ® ņĀĆņ×ź (ņśł: "192.168.38.72/2025/sci/new") */
 121:USBJsonConfig.c ****             strncpy(g_ptrServer->host, g_ConfigMeta.url, sizeof(g_ptrServer->host) - 1);
 122:USBJsonConfig.c ****             g_ptrServer->host[sizeof(g_ptrServer->host) - 1] = '\0';
 123:USBJsonConfig.c ****             
 124:USBJsonConfig.c ****             if(g_ptrServer->port == 0) g_ptrServer->port = 80;            
 125:USBJsonConfig.c ****             
 126:USBJsonConfig.c ****             printConfig();
 127:USBJsonConfig.c ****             SendConfigData();
 128:USBJsonConfig.c ****             ShowMessage("Saving..");            
 129:USBJsonConfig.c ****             SaveExternalFlashConfig();
 130:USBJsonConfig.c ****             
 131:USBJsonConfig.c ****             reflashMenu();
 132:USBJsonConfig.c ****     
 133:USBJsonConfig.c ****             if(g_ConfigMeta.SSIDIndex != 0xFF) // SSIDļź╝ ļ│ĆĻ▓Į Ē¢łļŗżļ®┤ WIFIļ¬©ļōłņŚÉ SSID ņĀĢļ│
 134:USBJsonConfig.c ****             {
 135:USBJsonConfig.c ****                 ShowMessage("Setting SSID");
 136:USBJsonConfig.c ****                 clearWifiBuffer();
 137:USBJsonConfig.c ****                 wifi_cmd(WIFI_CMD_FACTORY_RESET);
 138:USBJsonConfig.c **** 
 139:USBJsonConfig.c ****                 while(g_wifi_cmd != WIFI_CMD_IDLE)
 140:USBJsonConfig.c ****                 {
 141:USBJsonConfig.c ****                     usbLoop();
 142:USBJsonConfig.c ****                     if(wifi_receive_data()==TRUE)
 143:USBJsonConfig.c ****                     {
 144:USBJsonConfig.c ****                         wifi_get_response();
 145:USBJsonConfig.c ****                         clearWifiBuffer();
 146:USBJsonConfig.c ****                     }
 147:USBJsonConfig.c ****                 }
 148:USBJsonConfig.c ****                 ShowMessage("SSID Done..");    
 149:USBJsonConfig.c ****                 CySoftwareReset();
 150:USBJsonConfig.c ****             }                                
 151:USBJsonConfig.c ****         }
 152:USBJsonConfig.c ****         break;        
 153:USBJsonConfig.c ****     }
 154:USBJsonConfig.c ****     
 155:USBJsonConfig.c ****     g_ConfigMeta.uRequestType = REQ_NONE;
 156:USBJsonConfig.c **** }
 157:USBJsonConfig.c **** 
 158:USBJsonConfig.c **** void SendConfigData()
 159:USBJsonConfig.c **** {
  53              		.loc 1 159 0
  54              		.cfi_startproc
  55              		@ args = 0, pretend = 0, frame = 0
  56              		@ frame_needed = 0, uses_anonymous_args = 0
  57 0000 70B5     		push	{r4, r5, r6, lr}
  58              		.cfi_def_cfa_offset 16
  59              		.cfi_offset 4, -16
  60              		.cfi_offset 5, -12
  61              		.cfi_offset 6, -8
  62              		.cfi_offset 14, -4
 160:USBJsonConfig.c ****     printf_USB("{\"response\":\"config\",");
  63              		.loc 1 160 0
  64 0002 2D48     		ldr	r0, .L9
  65 0004 FFF7FEFF 		bl	printf_USB
  66              	.LVL1:
 161:USBJsonConfig.c ****     
 162:USBJsonConfig.c ****     printf_USB("\"SSID\":\"%s\",",g_ptrServer->SSID);
ARM GAS  C:\Users\luvsd\AppData\Local\Temp\ccMYsxej.s 			page 5


  67              		.loc 1 162 0
  68 0008 2C4B     		ldr	r3, .L9+4
  69 000a 1968     		ldr	r1, [r3]
  70 000c 3431     		adds	r1, r1, #52
  71 000e 2C48     		ldr	r0, .L9+8
  72 0010 FFF7FEFF 		bl	printf_USB
  73              	.LVL2:
 163:USBJsonConfig.c ****       
 164:USBJsonConfig.c ****     int ssid_index = -1;   
 165:USBJsonConfig.c ****     printf_USB("\"ssidList\":[");
  74              		.loc 1 165 0
  75 0014 2B48     		ldr	r0, .L9+12
  76 0016 FFF7FEFF 		bl	printf_USB
  77              	.LVL3:
  78              	.LBB2:
 166:USBJsonConfig.c ****     for(int i=0; i< g_SizeOfAPs; i++) 
  79              		.loc 1 166 0
  80 001a 0024     		movs	r4, #0
  81              	.LBE2:
 164:USBJsonConfig.c ****     printf_USB("\"ssidList\":[");
  82              		.loc 1 164 0
  83 001c 0125     		movs	r5, #1
  84 001e 6D42     		rsbs	r5, r5, #0
  85              	.LBB4:
  86              		.loc 1 166 0
  87 0020 2DE0     		b	.L3
  88              	.LVL4:
  89              	.L7:
  90              	.LBB3:
 167:USBJsonConfig.c ****     {
 168:USBJsonConfig.c ****         int quality = 2 * (g_APs[i].RSSI + 100);
  91              		.loc 1 168 0
  92 0022 2301     		lsls	r3, r4, #4
  93 0024 1B1B     		subs	r3, r3, r4
  94 0026 9900     		lsls	r1, r3, #2
  95 0028 274B     		ldr	r3, .L9+16
  96 002a CB5E     		ldrsh	r3, [r1, r3]
  97 002c 6433     		adds	r3, r3, #100
  98 002e 5B00     		lsls	r3, r3, #1
  99              	.LVL5:
 169:USBJsonConfig.c ****         if(i < g_SizeOfAPs-1) printf_USB("\"%.*s(%d%%)\",",40,g_APs[i].SSID, quality);
 100              		.loc 1 169 0
 101 0030 013A     		subs	r2, r2, #1
 102 0032 9442     		cmp	r4, r2
 103 0034 0ADA     		bge	.L4
 104              		.loc 1 169 0 is_stmt 0 discriminator 1
 105 0036 2101     		lsls	r1, r4, #4
 106 0038 091B     		subs	r1, r1, r4
 107 003a 8800     		lsls	r0, r1, #2
 108 003c 224A     		ldr	r2, .L9+16
 109 003e 8218     		adds	r2, r0, r2
 110 0040 0232     		adds	r2, r2, #2
 111 0042 2821     		movs	r1, #40
 112 0044 2148     		ldr	r0, .L9+20
 113 0046 FFF7FEFF 		bl	printf_USB
 114              	.LVL6:
 115 004a 09E0     		b	.L5
ARM GAS  C:\Users\luvsd\AppData\Local\Temp\ccMYsxej.s 			page 6


 116              	.LVL7:
 117              	.L4:
 170:USBJsonConfig.c ****         else                  printf_USB("\"%.*s(%d%%)\"],",40,g_APs[i].SSID, quality);
 118              		.loc 1 170 0 is_stmt 1
 119 004c 2101     		lsls	r1, r4, #4
 120 004e 091B     		subs	r1, r1, r4
 121 0050 8800     		lsls	r0, r1, #2
 122 0052 1D4A     		ldr	r2, .L9+16
 123 0054 8218     		adds	r2, r0, r2
 124 0056 0232     		adds	r2, r2, #2
 125 0058 2821     		movs	r1, #40
 126 005a 1D48     		ldr	r0, .L9+24
 127 005c FFF7FEFF 		bl	printf_USB
 128              	.LVL8:
 129              	.L5:
 171:USBJsonConfig.c ****         
 172:USBJsonConfig.c ****         if(strcmp(g_ptrServer->SSID,g_APs[i].SSID) == 0) ssid_index = i;
 130              		.loc 1 172 0
 131 0060 164B     		ldr	r3, .L9+4
 132 0062 1868     		ldr	r0, [r3]
 133 0064 3430     		adds	r0, r0, #52
 134 0066 2301     		lsls	r3, r4, #4
 135 0068 1B1B     		subs	r3, r3, r4
 136 006a 9900     		lsls	r1, r3, #2
 137 006c 164B     		ldr	r3, .L9+16
 138 006e C918     		adds	r1, r1, r3
 139 0070 0231     		adds	r1, r1, #2
 140 0072 FFF7FEFF 		bl	strcmp
 141              	.LVL9:
 142 0076 0028     		cmp	r0, #0
 143 0078 00D1     		bne	.L6
 144 007a 2500     		movs	r5, r4
 145              	.LVL10:
 146              	.L6:
 147              	.LBE3:
 166:USBJsonConfig.c ****     {
 148              		.loc 1 166 0 discriminator 2
 149 007c 0134     		adds	r4, r4, #1
 150              	.LVL11:
 151              	.L3:
 166:USBJsonConfig.c ****     {
 152              		.loc 1 166 0 is_stmt 0 discriminator 1
 153 007e 154B     		ldr	r3, .L9+28
 154 0080 1A88     		ldrh	r2, [r3]
 155 0082 9442     		cmp	r4, r2
 156 0084 CDDB     		blt	.L7
 157              	.LBE4:
 173:USBJsonConfig.c ****     }
 174:USBJsonConfig.c ****     printf_USB("\"SSID_Index\":\"%d\",",ssid_index);    
 158              		.loc 1 174 0 is_stmt 1
 159 0086 2900     		movs	r1, r5
 160 0088 1348     		ldr	r0, .L9+32
 161 008a FFF7FEFF 		bl	printf_USB
 162              	.LVL12:
 175:USBJsonConfig.c ****     printf_USB("\"password\":\"%s\",",g_ptrServer->password);
 163              		.loc 1 175 0
 164 008e 0B4C     		ldr	r4, .L9+4
ARM GAS  C:\Users\luvsd\AppData\Local\Temp\ccMYsxej.s 			page 7


 165              	.LVL13:
 166 0090 2168     		ldr	r1, [r4]
 167 0092 5C31     		adds	r1, r1, #92
 168 0094 1148     		ldr	r0, .L9+36
 169 0096 FFF7FEFF 		bl	printf_USB
 170              	.LVL14:
 176:USBJsonConfig.c ****     printf_USB("\"serverIP\":\"%s\",",g_ptrServer->host);
 171              		.loc 1 176 0
 172 009a 2168     		ldr	r1, [r4]
 173 009c 1048     		ldr	r0, .L9+40
 174 009e FFF7FEFF 		bl	printf_USB
 175              	.LVL15:
 177:USBJsonConfig.c ****     printf_USB("\"serverPort\":\"%d\",",g_ptrServer->port);
 176              		.loc 1 177 0
 177 00a2 2368     		ldr	r3, [r4]
 178 00a4 598E     		ldrh	r1, [r3, #50]
 179 00a6 0F48     		ldr	r0, .L9+44
 180 00a8 FFF7FEFF 		bl	printf_USB
 181              	.LVL16:
 178:USBJsonConfig.c ****     printf_USB("\"deviceName\":\"%s\"}",g_ptrServer->deviceName);   
 182              		.loc 1 178 0
 183 00ac 2168     		ldr	r1, [r4]
 184 00ae 7031     		adds	r1, r1, #112
 185 00b0 0D48     		ldr	r0, .L9+48
 186 00b2 FFF7FEFF 		bl	printf_USB
 187              	.LVL17:
 179:USBJsonConfig.c ****     
 180:USBJsonConfig.c **** }
 188              		.loc 1 180 0
 189              		@ sp needed
 190              	.LVL18:
 191 00b6 70BD     		pop	{r4, r5, r6, pc}
 192              	.L10:
 193              		.align	2
 194              	.L9:
 195 00b8 00000000 		.word	.LC0
 196 00bc 00000000 		.word	g_ptrServer
 197 00c0 18000000 		.word	.LC3
 198 00c4 28000000 		.word	.LC5
 199 00c8 00000000 		.word	g_APs
 200 00cc 38000000 		.word	.LC8
 201 00d0 48000000 		.word	.LC10
 202 00d4 00000000 		.word	g_SizeOfAPs
 203 00d8 58000000 		.word	.LC13
 204 00dc 6C000000 		.word	.LC15
 205 00e0 80000000 		.word	.LC17
 206 00e4 94000000 		.word	.LC19
 207 00e8 A8000000 		.word	.LC21
 208              		.cfi_endproc
 209              	.LFE65:
 210              		.size	SendConfigData, .-SendConfigData
 211              		.section	.text.USB_CommandProcess,"ax",%progbits
 212              		.align	2
 213              		.global	USB_CommandProcess
 214              		.code	16
 215              		.thumb_func
 216              		.type	USB_CommandProcess, %function
ARM GAS  C:\Users\luvsd\AppData\Local\Temp\ccMYsxej.s 			page 8


 217              	USB_CommandProcess:
 218              	.LFB64:
  47:USBJsonConfig.c ****     int nLoop=0;
 219              		.loc 1 47 0
 220              		.cfi_startproc
 221              		@ args = 0, pretend = 0, frame = 0
 222              		@ frame_needed = 0, uses_anonymous_args = 0
 223 0000 10B5     		push	{r4, lr}
 224              		.cfi_def_cfa_offset 8
 225              		.cfi_offset 4, -8
 226              		.cfi_offset 14, -4
 227              	.LVL19:
  50:USBJsonConfig.c ****     {
 228              		.loc 1 50 0
 229 0002 5B4B     		ldr	r3, .L28
 230 0004 9B8E     		ldrh	r3, [r3, #52]
 231 0006 032B     		cmp	r3, #3
 232 0008 56D0     		beq	.L13
 233 000a 042B     		cmp	r3, #4
 234 000c 5CD0     		beq	.L14
 235 000e 012B     		cmp	r3, #1
 236 0010 00D0     		beq	.LCB198
 237 0012 A8E0     		b	.L12	@long jump
 238              	.LCB198:
  54:USBJsonConfig.c ****                         
 239              		.loc 1 54 0
 240 0014 7D33     		adds	r3, r3, #125
 241 0016 574A     		ldr	r2, .L28+4
 242 0018 D35C     		ldrb	r3, [r2, r3]
 243 001a 012B     		cmp	r3, #1
 244 001c 00D0     		beq	.LCB203
 245 001e A5E0     		b	.L11	@long jump
 246              	.LCB203:
  57:USBJsonConfig.c ****             //////////////////////////////////            
 247              		.loc 1 57 0
 248 0020 5549     		ldr	r1, .L28+8
 249 0022 5348     		ldr	r0, .L28
 250 0024 3830     		adds	r0, r0, #56
 251 0026 FFF7FEFF 		bl	strcmp
 252              	.LVL20:
 253 002a 0028     		cmp	r0, #0
 254 002c 1ED1     		bne	.L17
  60:USBJsonConfig.c **** 
 255              		.loc 1 60 0
 256 002e 5348     		ldr	r0, .L28+12
 257 0030 FFF7FEFF 		bl	ShowMessage
 258              	.LVL21:
  62:USBJsonConfig.c ****                 wifi_cmd(WIFI_CMD_AP_SCAN);
 259              		.loc 1 62 0
 260 0034 FFF7FEFF 		bl	clearWifiBuffer
 261              	.LVL22:
  63:USBJsonConfig.c ****                 while(g_wifi_cmd != WIFI_CMD_IDLE)
 262              		.loc 1 63 0
 263 0038 0320     		movs	r0, #3
 264 003a FFF7FEFF 		bl	wifi_cmd
 265              	.LVL23:
  64:USBJsonConfig.c ****                 {
ARM GAS  C:\Users\luvsd\AppData\Local\Temp\ccMYsxej.s 			page 9


 266              		.loc 1 64 0
 267 003e 09E0     		b	.L19
 268              	.L20:
  66:USBJsonConfig.c ****                     if(wifi_receive_data()==TRUE)
 269              		.loc 1 66 0
 270 0040 FFF7FEFF 		bl	usbLoop
 271              	.LVL24:
  67:USBJsonConfig.c ****                     {
 272              		.loc 1 67 0
 273 0044 FFF7FEFF 		bl	wifi_receive_data
 274              	.LVL25:
 275 0048 0128     		cmp	r0, #1
 276 004a 03D1     		bne	.L19
  69:USBJsonConfig.c ****                         clearWifiBuffer();
 277              		.loc 1 69 0
 278 004c FFF7FEFF 		bl	wifi_get_response
 279              	.LVL26:
  70:USBJsonConfig.c ****                     }
 280              		.loc 1 70 0
 281 0050 FFF7FEFF 		bl	clearWifiBuffer
 282              	.LVL27:
 283              	.L19:
  64:USBJsonConfig.c ****                 {
 284              		.loc 1 64 0
 285 0054 4A4B     		ldr	r3, .L28+16
 286 0056 1B78     		ldrb	r3, [r3]
 287 0058 002B     		cmp	r3, #0
 288 005a F1D1     		bne	.L20
  73:USBJsonConfig.c ****                 SendConfigData();
 289              		.loc 1 73 0
 290 005c 494B     		ldr	r3, .L28+20
 291 005e 1988     		ldrh	r1, [r3]
 292 0060 4948     		ldr	r0, .L28+24
 293 0062 FFF7FEFF 		bl	ShowMessage
 294              	.LVL28:
  74:USBJsonConfig.c ****                 break;
 295              		.loc 1 74 0
 296 0066 FFF7FEFF 		bl	SendConfigData
 297              	.LVL29:
  75:USBJsonConfig.c ****             }
 298              		.loc 1 75 0
 299 006a 7CE0     		b	.L12
 300              	.L17:
  78:USBJsonConfig.c ****             ////////////////////////////////// 
 301              		.loc 1 78 0
 302 006c 4749     		ldr	r1, .L28+28
 303 006e 4048     		ldr	r0, .L28
 304 0070 3830     		adds	r0, r0, #56
 305 0072 FFF7FEFF 		bl	strcmp
 306              	.LVL30:
 307 0076 0028     		cmp	r0, #0
 308 0078 02D1     		bne	.L21
  82:USBJsonConfig.c ****                 break;
 309              		.loc 1 82 0
 310 007a FFF7FEFF 		bl	CySoftwareReset
 311              	.LVL31:
  83:USBJsonConfig.c ****             }
ARM GAS  C:\Users\luvsd\AppData\Local\Temp\ccMYsxej.s 			page 10


 312              		.loc 1 83 0
 313 007e 72E0     		b	.L12
 314              	.L21:
  86:USBJsonConfig.c ****             ////////////////////////////////// 
 315              		.loc 1 86 0
 316 0080 4349     		ldr	r1, .L28+32
 317 0082 3B48     		ldr	r0, .L28
 318 0084 3830     		adds	r0, r0, #56
 319 0086 FFF7FEFF 		bl	strcmp
 320              	.LVL32:
 321 008a 0028     		cmp	r0, #0
 322 008c 02D1     		bne	.L22
  89:USBJsonConfig.c ****                 break;            
 323              		.loc 1 89 0
 324 008e FFF7FEFF 		bl	reflashMenu
 325              	.LVL33:
  90:USBJsonConfig.c ****             }       
 326              		.loc 1 90 0
 327 0092 68E0     		b	.L12
 328              	.L22:
  93:USBJsonConfig.c ****             ////////////////////////////////// 
 329              		.loc 1 93 0
 330 0094 3F49     		ldr	r1, .L28+36
 331 0096 3648     		ldr	r0, .L28
 332 0098 3830     		adds	r0, r0, #56
 333 009a FFF7FEFF 		bl	strcmp
 334              	.LVL34:
 335 009e 0028     		cmp	r0, #0
 336 00a0 0AD1     		bne	.L13
  97:USBJsonConfig.c ****                     CyDelay(100);
 337              		.loc 1 97 0
 338 00a2 3D48     		ldr	r0, .L28+40
 339 00a4 FFF7FEFF 		bl	puts
 340              	.LVL35:
  98:USBJsonConfig.c ****                     Bootloadable_Load();
 341              		.loc 1 98 0
 342 00a8 6420     		movs	r0, #100
 343 00aa FFF7FEFF 		bl	CyDelay
 344              	.LVL36:
  99:USBJsonConfig.c ****                     CySoftwareReset();
 345              		.loc 1 99 0
 346 00ae FFF7FEFF 		bl	Bootloadable_Load
 347              	.LVL37:
 100:USBJsonConfig.c ****                 #endif
 348              		.loc 1 100 0
 349 00b2 FFF7FEFF 		bl	CySoftwareReset
 350              	.LVL38:
 102:USBJsonConfig.c ****             }            
 351              		.loc 1 102 0
 352 00b6 56E0     		b	.L12
 353              	.L13:
 107:USBJsonConfig.c ****             printConfig();
 354              		.loc 1 107 0
 355 00b8 3848     		ldr	r0, .L28+44
 356 00ba FFF7FEFF 		bl	puts
 357              	.LVL39:
 108:USBJsonConfig.c ****             SendConfigData();
ARM GAS  C:\Users\luvsd\AppData\Local\Temp\ccMYsxej.s 			page 11


 358              		.loc 1 108 0
 359 00be FFF7FEFF 		bl	printConfig
 360              	.LVL40:
 109:USBJsonConfig.c ****         }
 361              		.loc 1 109 0
 362 00c2 FFF7FEFF 		bl	SendConfigData
 363              	.LVL41:
 111:USBJsonConfig.c ****         case REQ_WRITE_CONFIG:
 364              		.loc 1 111 0
 365 00c6 4EE0     		b	.L12
 366              	.L14:
 367              	.LBB5:
 115:USBJsonConfig.c ****             removeDoubleSlash(g_ConfigMeta.url);  // remove double slash('/')
 368              		.loc 1 115 0
 369 00c8 294C     		ldr	r4, .L28
 370 00ca 2000     		movs	r0, r4
 371 00cc FFF7FEFF 		bl	removeWhiteSpace
 372              	.LVL42:
 116:USBJsonConfig.c ****             len = strlen(g_ConfigMeta.url);
 373              		.loc 1 116 0
 374 00d0 2000     		movs	r0, r4
 375 00d2 FFF7FEFF 		bl	removeDoubleSlash
 376              	.LVL43:
 117:USBJsonConfig.c ****             if(len > 0 && g_ConfigMeta.url[len-1] == '/') g_ConfigMeta.url[len-1] = '\0'; // remove
 377              		.loc 1 117 0
 378 00d6 2000     		movs	r0, r4
 379 00d8 FFF7FEFF 		bl	strlen
 380              	.LVL44:
 118:USBJsonConfig.c **** 
 381              		.loc 1 118 0
 382 00dc 0028     		cmp	r0, #0
 383 00de 07D0     		beq	.L23
 118:USBJsonConfig.c **** 
 384              		.loc 1 118 0 is_stmt 0 discriminator 1
 385 00e0 0138     		subs	r0, r0, #1
 386              	.LVL45:
 387 00e2 234B     		ldr	r3, .L28
 388 00e4 1B5C     		ldrb	r3, [r3, r0]
 389 00e6 2F2B     		cmp	r3, #47
 390 00e8 02D1     		bne	.L23
 118:USBJsonConfig.c **** 
 391              		.loc 1 118 0 discriminator 2
 392 00ea 0022     		movs	r2, #0
 393 00ec 204B     		ldr	r3, .L28
 394 00ee 1A54     		strb	r2, [r3, r0]
 395              	.LVL46:
 396              	.L23:
 121:USBJsonConfig.c ****             g_ptrServer->host[sizeof(g_ptrServer->host) - 1] = '\0';
 397              		.loc 1 121 0 is_stmt 1
 398 00f0 2B4C     		ldr	r4, .L28+48
 399 00f2 3122     		movs	r2, #49
 400 00f4 1E49     		ldr	r1, .L28
 401 00f6 2068     		ldr	r0, [r4]
 402 00f8 FFF7FEFF 		bl	strncpy
 403              	.LVL47:
 122:USBJsonConfig.c ****             
 404              		.loc 1 122 0
ARM GAS  C:\Users\luvsd\AppData\Local\Temp\ccMYsxej.s 			page 12


 405 00fc 2368     		ldr	r3, [r4]
 406 00fe 0021     		movs	r1, #0
 407 0100 3122     		movs	r2, #49
 408 0102 9954     		strb	r1, [r3, r2]
 124:USBJsonConfig.c ****             
 409              		.loc 1 124 0
 410 0104 5A8E     		ldrh	r2, [r3, #50]
 411 0106 002A     		cmp	r2, #0
 412 0108 01D1     		bne	.L24
 124:USBJsonConfig.c ****             
 413              		.loc 1 124 0 is_stmt 0 discriminator 1
 414 010a 5032     		adds	r2, r2, #80
 415 010c 5A86     		strh	r2, [r3, #50]
 416              	.L24:
 126:USBJsonConfig.c ****             SendConfigData();
 417              		.loc 1 126 0 is_stmt 1
 418 010e FFF7FEFF 		bl	printConfig
 419              	.LVL48:
 127:USBJsonConfig.c ****             ShowMessage("Saving..");            
 420              		.loc 1 127 0
 421 0112 FFF7FEFF 		bl	SendConfigData
 422              	.LVL49:
 128:USBJsonConfig.c ****             SaveExternalFlashConfig();
 423              		.loc 1 128 0
 424 0116 2348     		ldr	r0, .L28+52
 425 0118 FFF7FEFF 		bl	ShowMessage
 426              	.LVL50:
 129:USBJsonConfig.c ****             
 427              		.loc 1 129 0
 428 011c FFF7FEFF 		bl	SaveExternalFlashConfig
 429              	.LVL51:
 131:USBJsonConfig.c ****     
 430              		.loc 1 131 0
 431 0120 FFF7FEFF 		bl	reflashMenu
 432              	.LVL52:
 133:USBJsonConfig.c ****             {
 433              		.loc 1 133 0
 434 0124 3223     		movs	r3, #50
 435 0126 124A     		ldr	r2, .L28
 436 0128 D35C     		ldrb	r3, [r2, r3]
 437 012a FF2B     		cmp	r3, #255
 438 012c 1BD0     		beq	.L12
 135:USBJsonConfig.c ****                 clearWifiBuffer();
 439              		.loc 1 135 0
 440 012e 1E48     		ldr	r0, .L28+56
 441 0130 FFF7FEFF 		bl	ShowMessage
 442              	.LVL53:
 136:USBJsonConfig.c ****                 wifi_cmd(WIFI_CMD_FACTORY_RESET);
 443              		.loc 1 136 0
 444 0134 FFF7FEFF 		bl	clearWifiBuffer
 445              	.LVL54:
 137:USBJsonConfig.c **** 
 446              		.loc 1 137 0
 447 0138 0720     		movs	r0, #7
 448 013a FFF7FEFF 		bl	wifi_cmd
 449              	.LVL55:
 139:USBJsonConfig.c ****                 {
ARM GAS  C:\Users\luvsd\AppData\Local\Temp\ccMYsxej.s 			page 13


 450              		.loc 1 139 0
 451 013e 09E0     		b	.L26
 452              	.L27:
 141:USBJsonConfig.c ****                     if(wifi_receive_data()==TRUE)
 453              		.loc 1 141 0
 454 0140 FFF7FEFF 		bl	usbLoop
 455              	.LVL56:
 142:USBJsonConfig.c ****                     {
 456              		.loc 1 142 0
 457 0144 FFF7FEFF 		bl	wifi_receive_data
 458              	.LVL57:
 459 0148 0128     		cmp	r0, #1
 460 014a 03D1     		bne	.L26
 144:USBJsonConfig.c ****                         clearWifiBuffer();
 461              		.loc 1 144 0
 462 014c FFF7FEFF 		bl	wifi_get_response
 463              	.LVL58:
 145:USBJsonConfig.c ****                     }
 464              		.loc 1 145 0
 465 0150 FFF7FEFF 		bl	clearWifiBuffer
 466              	.LVL59:
 467              	.L26:
 139:USBJsonConfig.c ****                 {
 468              		.loc 1 139 0
 469 0154 0A4B     		ldr	r3, .L28+16
 470 0156 1B78     		ldrb	r3, [r3]
 471 0158 002B     		cmp	r3, #0
 472 015a F1D1     		bne	.L27
 148:USBJsonConfig.c ****                 CySoftwareReset();
 473              		.loc 1 148 0
 474 015c 1348     		ldr	r0, .L28+60
 475 015e FFF7FEFF 		bl	ShowMessage
 476              	.LVL60:
 149:USBJsonConfig.c ****             }                                
 477              		.loc 1 149 0
 478 0162 FFF7FEFF 		bl	CySoftwareReset
 479              	.LVL61:
 480              	.L12:
 481              	.LBE5:
 155:USBJsonConfig.c **** }
 482              		.loc 1 155 0
 483 0166 0022     		movs	r2, #0
 484 0168 014B     		ldr	r3, .L28
 485 016a 9A86     		strh	r2, [r3, #52]
 486              	.L11:
 156:USBJsonConfig.c **** 
 487              		.loc 1 156 0
 488              		@ sp needed
 489 016c 10BD     		pop	{r4, pc}
 490              	.L29:
 491 016e C046     		.align	2
 492              	.L28:
 493 0170 00000000 		.word	.LANCHOR0
 494 0174 00000000 		.word	g_network
 495 0178 BC000000 		.word	.LC25
 496 017c C4000000 		.word	.LC27
 497 0180 00000000 		.word	g_wifi_cmd
ARM GAS  C:\Users\luvsd\AppData\Local\Temp\ccMYsxej.s 			page 14


 498 0184 00000000 		.word	g_SizeOfAPs
 499 0188 D4000000 		.word	.LC31
 500 018c E0000000 		.word	.LC33
 501 0190 E8000000 		.word	.LC35
 502 0194 F4000000 		.word	.LC37
 503 0198 04010000 		.word	.LC39
 504 019c 18010000 		.word	.LC41
 505 01a0 00000000 		.word	g_ptrServer
 506 01a4 28010000 		.word	.LC44
 507 01a8 34010000 		.word	.LC46
 508 01ac 44010000 		.word	.LC48
 509              		.cfi_endproc
 510              	.LFE64:
 511              		.size	USB_CommandProcess, .-USB_CommandProcess
 512              		.section	.text.JSON_Config,"ax",%progbits
 513              		.align	2
 514              		.global	JSON_Config
 515              		.code	16
 516              		.thumb_func
 517              		.type	JSON_Config, %function
 518              	JSON_Config:
 519              	.LFB66:
 181:USBJsonConfig.c **** 
 182:USBJsonConfig.c **** uint8 JSON_Config(char *buffer, int16 size)
 183:USBJsonConfig.c **** {
 520              		.loc 1 183 0
 521              		.cfi_startproc
 522              		@ args = 0, pretend = 0, frame = 1392
 523              		@ frame_needed = 0, uses_anonymous_args = 0
 524              	.LVL62:
 525 0000 F0B5     		push	{r4, r5, r6, r7, lr}
 526              		.cfi_def_cfa_offset 20
 527              		.cfi_offset 4, -20
 528              		.cfi_offset 5, -16
 529              		.cfi_offset 6, -12
 530              		.cfi_offset 7, -8
 531              		.cfi_offset 14, -4
 532 0002 9E4C     		ldr	r4, .L49
 533 0004 A544     		add	sp, sp, r4
 534              		.cfi_def_cfa_offset 1424
 535 0006 0500     		movs	r5, r0
 536 0008 0C00     		movs	r4, r1
 184:USBJsonConfig.c ****     int i;
 185:USBJsonConfig.c ****     int r;
 186:USBJsonConfig.c ****     jsmn_parser p;
 187:USBJsonConfig.c ****     jsmntok_t t[80]; /* ņĄ£ļīĆ ĒåĀĒü░ ņłś: 80 (10Ļ░£ ĒĢŁļ¬® JSON = 73 tokens, ņŚ¼ņ£Ā 7) */
 188:USBJsonConfig.c ****     
 189:USBJsonConfig.c ****     jsmn_init(&p);
 537              		.loc 1 189 0
 538 000a 9D4B     		ldr	r3, .L49+4
 539 000c 6B44     		add	r3, r3, sp
 540 000e 1800     		movs	r0, r3
 541              	.LVL63:
 542 0010 FFF7FEFF 		bl	jsmn_init
 543              	.LVL64:
 190:USBJsonConfig.c ****     r = jsmn_parse(&p, buffer, size, t, sizeof(t) / sizeof(t[0]));
 544              		.loc 1 190 0
ARM GAS  C:\Users\luvsd\AppData\Local\Temp\ccMYsxej.s 			page 15


 545 0014 5023     		movs	r3, #80
 546 0016 0093     		str	r3, [sp]
 547 0018 1BAB     		add	r3, sp, #108
 548 001a 2200     		movs	r2, r4
 549 001c 2900     		movs	r1, r5
 550 001e 9848     		ldr	r0, .L49+4
 551 0020 6844     		add	r0, r0, sp
 552 0022 FFF7FEFF 		bl	jsmn_parse
 553              	.LVL65:
 554 0026 071E     		subs	r7, r0, #0
 555              	.LVL66:
 191:USBJsonConfig.c ****     
 192:USBJsonConfig.c ****     if (r < 0) {
 556              		.loc 1 192 0
 557 0028 00DA     		bge	.LCB476
 558 002a 1EE1     		b	.L46	@long jump
 559              	.LCB476:
 193:USBJsonConfig.c ****     //    DEBUG_printf("Failed to parse JSON: %d\r\n", r);
 194:USBJsonConfig.c ****         return FALSE;
 195:USBJsonConfig.c ****     }
 196:USBJsonConfig.c ****     
 197:USBJsonConfig.c ****     /* Assume the top-level element is an object */
 198:USBJsonConfig.c ****     if (r < 1 || t[0].type != JSMN_OBJECT) {
 560              		.loc 1 198 0
 561 002c 0028     		cmp	r0, #0
 562 002e 00DC     		bgt	.LCB478
 563 0030 1DE1     		b	.L47	@long jump
 564              	.LCB478:
 565              		.loc 1 198 0 is_stmt 0 discriminator 1
 566 0032 1BAB     		add	r3, sp, #108
 567 0034 1B78     		ldrb	r3, [r3]
 568 0036 012B     		cmp	r3, #1
 569 0038 00D0     		beq	.LCB482
 570 003a 1AE1     		b	.L48	@long jump
 571              	.LCB482:
 199:USBJsonConfig.c ****     //    DEBUG_printf("Object expected type: %d\r\n", t[0].type);
 200:USBJsonConfig.c ****         return FALSE;
 201:USBJsonConfig.c ****     }
 202:USBJsonConfig.c ****     
 203:USBJsonConfig.c ****     char buff[100];
 204:USBJsonConfig.c **** 
 205:USBJsonConfig.c ****     g_ConfigMeta.uRequestType = 0;
 572              		.loc 1 205 0 is_stmt 1
 573 003c 914B     		ldr	r3, .L49+8
 574 003e 0022     		movs	r2, #0
 575 0040 9A86     		strh	r2, [r3, #52]
 206:USBJsonConfig.c ****     
 207:USBJsonConfig.c ****     g_ConfigMeta.SSIDIndex = 0xFF;
 576              		.loc 1 207 0
 577 0042 FF21     		movs	r1, #255
 578 0044 3232     		adds	r2, r2, #50
 579 0046 9954     		strb	r1, [r3, r2]
 580              	.LVL67:
 208:USBJsonConfig.c ****                                            
 209:USBJsonConfig.c ****     for (i = 1; i < r; i++)
 581              		.loc 1 209 0
 582 0048 0126     		movs	r6, #1
ARM GAS  C:\Users\luvsd\AppData\Local\Temp\ccMYsxej.s 			page 16


 583 004a 09E1     		b	.L32
 584              	.LVL68:
 585              	.L45:
 210:USBJsonConfig.c ****     {   
 211:USBJsonConfig.c ****         if     (jsoneq(buffer, &t[i], "request") == 0)
 586              		.loc 1 211 0
 587 004c 3401     		lsls	r4, r6, #4
 588 004e 1BAB     		add	r3, sp, #108
 589 0050 9C46     		mov	ip, r3
 590 0052 6444     		add	r4, r4, ip
 591 0054 8C4A     		ldr	r2, .L49+12
 592 0056 2100     		movs	r1, r4
 593 0058 2800     		movs	r0, r5
 594 005a FFF7FEFF 		bl	jsoneq
 595              	.LVL69:
 596 005e 0028     		cmp	r0, #0
 597 0060 35D1     		bne	.L33
 212:USBJsonConfig.c ****         {
 213:USBJsonConfig.c ****             sprintf(buff,"%.*s",t[i + 1].end - t[i + 1].start,buffer + t[i + 1].start);
 598              		.loc 1 213 0
 599 0062 731C     		adds	r3, r6, #1
 600 0064 1B01     		lsls	r3, r3, #4
 601 0066 1BAA     		add	r2, sp, #108
 602 0068 9446     		mov	ip, r2
 603 006a 6344     		add	r3, r3, ip
 604 006c 9A68     		ldr	r2, [r3, #8]
 605 006e 5968     		ldr	r1, [r3, #4]
 606 0070 6B18     		adds	r3, r5, r1
 607 0072 521A     		subs	r2, r2, r1
 608 0074 8549     		ldr	r1, .L49+16
 609 0076 02A8     		add	r0, sp, #8
 610 0078 FFF7FEFF 		bl	sprintf
 611              	.LVL70:
 214:USBJsonConfig.c **** 
 215:USBJsonConfig.c ****             // AT Command ///////////////////////
 216:USBJsonConfig.c ****             if(strcmp(buff,"sysCmd") == 0)           g_ConfigMeta.uRequestType = REQ_SYSTEM_CMD;   
 612              		.loc 1 216 0
 613 007c 8449     		ldr	r1, .L49+20
 614 007e 02A8     		add	r0, sp, #8
 615 0080 FFF7FEFF 		bl	strcmp
 616              	.LVL71:
 617 0084 0028     		cmp	r0, #0
 618 0086 03D1     		bne	.L34
 619              		.loc 1 216 0 is_stmt 0 discriminator 1
 620 0088 0122     		movs	r2, #1
 621 008a 7E4B     		ldr	r3, .L49+8
 622 008c 9A86     		strh	r2, [r3, #52]
 623 008e E6E0     		b	.L38
 624              	.L34:
 217:USBJsonConfig.c ****             // AT Command ///////////////////////
 218:USBJsonConfig.c ****             else if(strcmp(buff,"atCmd") == 0)       g_ConfigMeta.uRequestType = REQ_AT_CMD;
 625              		.loc 1 218 0 is_stmt 1
 626 0090 8049     		ldr	r1, .L49+24
 627 0092 02A8     		add	r0, sp, #8
 628 0094 FFF7FEFF 		bl	strcmp
 629              	.LVL72:
 630 0098 0028     		cmp	r0, #0
ARM GAS  C:\Users\luvsd\AppData\Local\Temp\ccMYsxej.s 			page 17


 631 009a 03D1     		bne	.L36
 632              		.loc 1 218 0 is_stmt 0 discriminator 1
 633 009c 0222     		movs	r2, #2
 634 009e 794B     		ldr	r3, .L49+8
 635 00a0 9A86     		strh	r2, [r3, #52]
 636 00a2 DCE0     		b	.L38
 637              	.L36:
 219:USBJsonConfig.c ****             // Read Config ///////////////////////
 220:USBJsonConfig.c ****             else if(strcmp(buff,"readConfig") == 0)  g_ConfigMeta.uRequestType = REQ_READ_CONFIG;
 638              		.loc 1 220 0 is_stmt 1
 639 00a4 7C49     		ldr	r1, .L49+28
 640 00a6 02A8     		add	r0, sp, #8
 641 00a8 FFF7FEFF 		bl	strcmp
 642              	.LVL73:
 643 00ac 0028     		cmp	r0, #0
 644 00ae 03D1     		bne	.L37
 645              		.loc 1 220 0 is_stmt 0 discriminator 1
 646 00b0 0322     		movs	r2, #3
 647 00b2 744B     		ldr	r3, .L49+8
 648 00b4 9A86     		strh	r2, [r3, #52]
 649 00b6 D2E0     		b	.L38
 650              	.L37:
 221:USBJsonConfig.c ****             // Write Config ///////////////////////
 222:USBJsonConfig.c ****             else if(strcmp(buff,"writeConfig") == 0) g_ConfigMeta.uRequestType = REQ_WRITE_CONFIG;
 651              		.loc 1 222 0 is_stmt 1
 652 00b8 7849     		ldr	r1, .L49+32
 653 00ba 02A8     		add	r0, sp, #8
 654 00bc FFF7FEFF 		bl	strcmp
 655              	.LVL74:
 656 00c0 0028     		cmp	r0, #0
 657 00c2 00D0     		beq	.LCB569
 658 00c4 CBE0     		b	.L38	@long jump
 659              	.LCB569:
 660              		.loc 1 222 0 is_stmt 0 discriminator 1
 661 00c6 0422     		movs	r2, #4
 662 00c8 6E4B     		ldr	r3, .L49+8
 663 00ca 9A86     		strh	r2, [r3, #52]
 223:USBJsonConfig.c ****             
 224:USBJsonConfig.c ****             continue;
 664              		.loc 1 224 0 is_stmt 1 discriminator 1
 665 00cc C7E0     		b	.L38
 666              	.L33:
 225:USBJsonConfig.c ****         }
 226:USBJsonConfig.c ****         /////////////////////////// REQ_SYSTEM_CMD //////////////////////////////
 227:USBJsonConfig.c ****         else if(g_ConfigMeta.uRequestType == REQ_SYSTEM_CMD)
 667              		.loc 1 227 0
 668 00ce 6D4B     		ldr	r3, .L49+8
 669 00d0 9B8E     		ldrh	r3, [r3, #52]
 670 00d2 012B     		cmp	r3, #1
 671 00d4 21D1     		bne	.L39
 228:USBJsonConfig.c ****         {
 229:USBJsonConfig.c ****             if     (jsoneq(buffer, &t[i], "cmd") == 0)
 672              		.loc 1 229 0
 673 00d6 724A     		ldr	r2, .L49+36
 674 00d8 2100     		movs	r1, r4
 675 00da 2800     		movs	r0, r5
 676 00dc FFF7FEFF 		bl	jsoneq
ARM GAS  C:\Users\luvsd\AppData\Local\Temp\ccMYsxej.s 			page 18


 677              	.LVL75:
 678 00e0 0028     		cmp	r0, #0
 679 00e2 00D0     		beq	.LCB587
 680 00e4 BBE0     		b	.L38	@long jump
 681              	.LCB587:
 230:USBJsonConfig.c ****             {
 231:USBJsonConfig.c ****                 sprintf(g_usbCmd,"%.*s",t[i + 1].end - t[i + 1].start,buffer + t[i + 1].start);
 682              		.loc 1 231 0
 683 00e6 731C     		adds	r3, r6, #1
 684 00e8 1B01     		lsls	r3, r3, #4
 685 00ea 1BAA     		add	r2, sp, #108
 686 00ec 9446     		mov	ip, r2
 687 00ee 6344     		add	r3, r3, ip
 688 00f0 9A68     		ldr	r2, [r3, #8]
 689 00f2 5968     		ldr	r1, [r3, #4]
 690 00f4 6B18     		adds	r3, r5, r1
 691 00f6 521A     		subs	r2, r2, r1
 692 00f8 624C     		ldr	r4, .L49+8
 693 00fa 3834     		adds	r4, r4, #56
 694 00fc 6349     		ldr	r1, .L49+16
 695 00fe 2000     		movs	r0, r4
 696 0100 FFF7FEFF 		bl	sprintf
 697              	.LVL76:
 232:USBJsonConfig.c ****                 if(strcmp(g_usbCmd,"connect") == 0) printf_USB("{\"response\":\"connected\"}");
 698              		.loc 1 232 0
 699 0104 6749     		ldr	r1, .L49+40
 700 0106 2000     		movs	r0, r4
 701 0108 FFF7FEFF 		bl	strcmp
 702              	.LVL77:
 703 010c 0028     		cmp	r0, #0
 704 010e 00D0     		beq	.LCB609
 705 0110 A5E0     		b	.L38	@long jump
 706              	.LCB609:
 707              		.loc 1 232 0 is_stmt 0 discriminator 1
 708 0112 6548     		ldr	r0, .L49+44
 709 0114 FFF7FEFF 		bl	printf_USB
 710              	.LVL78:
 711 0118 A1E0     		b	.L38
 712              	.L39:
 233:USBJsonConfig.c **** 
 234:USBJsonConfig.c ****             }
 235:USBJsonConfig.c ****         }
 236:USBJsonConfig.c ****         else if(g_ConfigMeta.uRequestType == REQ_WRITE_CONFIG)
 713              		.loc 1 236 0 is_stmt 1
 714 011a 042B     		cmp	r3, #4
 715 011c 00D0     		beq	.LCB620
 716 011e 9EE0     		b	.L38	@long jump
 717              	.LCB620:
 237:USBJsonConfig.c ****         {
 238:USBJsonConfig.c ****                 if     (jsoneq(buffer, &t[i], "SSIDIndex") == 0)
 718              		.loc 1 238 0
 719 0120 624A     		ldr	r2, .L49+48
 720 0122 2100     		movs	r1, r4
 721 0124 2800     		movs	r0, r5
 722 0126 FFF7FEFF 		bl	jsoneq
 723              	.LVL79:
 724 012a 0028     		cmp	r0, #0
ARM GAS  C:\Users\luvsd\AppData\Local\Temp\ccMYsxej.s 			page 19


 725 012c 1FD1     		bne	.L40
 239:USBJsonConfig.c ****             {
 240:USBJsonConfig.c ****                 sprintf(buff,"%.*s",t[i + 1].end - t[i + 1].start,buffer + t[i + 1].start);
 726              		.loc 1 240 0
 727 012e 731C     		adds	r3, r6, #1
 728 0130 1B01     		lsls	r3, r3, #4
 729 0132 1BAA     		add	r2, sp, #108
 730 0134 9446     		mov	ip, r2
 731 0136 6344     		add	r3, r3, ip
 732 0138 9A68     		ldr	r2, [r3, #8]
 733 013a 5968     		ldr	r1, [r3, #4]
 734 013c 6B18     		adds	r3, r5, r1
 735 013e 521A     		subs	r2, r2, r1
 736 0140 5249     		ldr	r1, .L49+16
 737 0142 02A8     		add	r0, sp, #8
 738 0144 FFF7FEFF 		bl	sprintf
 739              	.LVL80:
 241:USBJsonConfig.c ****                 g_ConfigMeta.SSIDIndex = atoi(buff);                
 740              		.loc 1 241 0
 741 0148 02A8     		add	r0, sp, #8
 742 014a FFF7FEFF 		bl	atoi
 743              	.LVL81:
 744 014e C3B2     		uxtb	r3, r0
 745 0150 3222     		movs	r2, #50
 746 0152 4C49     		ldr	r1, .L49+8
 747 0154 8B54     		strb	r3, [r1, r2]
 242:USBJsonConfig.c ****                 strcpy(g_ptrServer->SSID,g_APs[g_ConfigMeta.SSIDIndex].SSID);                
 748              		.loc 1 242 0
 749 0156 564A     		ldr	r2, .L49+52
 750 0158 1068     		ldr	r0, [r2]
 751 015a 3430     		adds	r0, r0, #52
 752 015c 1A01     		lsls	r2, r3, #4
 753 015e D31A     		subs	r3, r2, r3
 754 0160 9900     		lsls	r1, r3, #2
 755 0162 544B     		ldr	r3, .L49+56
 756 0164 C918     		adds	r1, r1, r3
 757 0166 0231     		adds	r1, r1, #2
 758 0168 FFF7FEFF 		bl	strcpy
 759              	.LVL82:
 760 016c 77E0     		b	.L38
 761              	.L40:
 243:USBJsonConfig.c ****             } 
 244:USBJsonConfig.c ****             else if     (jsoneq(buffer, &t[i], "withMAC") == 0)
 762              		.loc 1 244 0
 763 016e 524A     		ldr	r2, .L49+60
 764 0170 2100     		movs	r1, r4
 765 0172 2800     		movs	r0, r5
 766 0174 FFF7FEFF 		bl	jsoneq
 767              	.LVL83:
 768 0178 0028     		cmp	r0, #0
 769 017a 13D1     		bne	.L41
 245:USBJsonConfig.c ****             {
 246:USBJsonConfig.c ****                 sprintf(buff,"%.*s",t[i + 1].end - t[i + 1].start,buffer + t[i + 1].start); 
 770              		.loc 1 246 0
 771 017c 731C     		adds	r3, r6, #1
 772 017e 1B01     		lsls	r3, r3, #4
 773 0180 1BAA     		add	r2, sp, #108
ARM GAS  C:\Users\luvsd\AppData\Local\Temp\ccMYsxej.s 			page 20


 774 0182 9446     		mov	ip, r2
 775 0184 6344     		add	r3, r3, ip
 776 0186 9A68     		ldr	r2, [r3, #8]
 777 0188 5968     		ldr	r1, [r3, #4]
 778 018a 6B18     		adds	r3, r5, r1
 779 018c 521A     		subs	r2, r2, r1
 780 018e 3F49     		ldr	r1, .L49+16
 781 0190 02A8     		add	r0, sp, #8
 782 0192 FFF7FEFF 		bl	sprintf
 783              	.LVL84:
 247:USBJsonConfig.c ****                 g_ConfigMeta.bWithMAC = atoi(buff);                   
 784              		.loc 1 247 0
 785 0196 02A8     		add	r0, sp, #8
 786 0198 FFF7FEFF 		bl	atoi
 787              	.LVL85:
 788 019c 3323     		movs	r3, #51
 789 019e 394A     		ldr	r2, .L49+8
 790 01a0 D054     		strb	r0, [r2, r3]
 791 01a2 5CE0     		b	.L38
 792              	.L41:
 248:USBJsonConfig.c ****             }
 249:USBJsonConfig.c ****             else if     (jsoneq(buffer, &t[i], "password") == 0)
 793              		.loc 1 249 0
 794 01a4 454A     		ldr	r2, .L49+64
 795 01a6 2100     		movs	r1, r4
 796 01a8 2800     		movs	r0, r5
 797 01aa FFF7FEFF 		bl	jsoneq
 798              	.LVL86:
 799 01ae 0028     		cmp	r0, #0
 800 01b0 0FD1     		bne	.L42
 250:USBJsonConfig.c ****             {
 251:USBJsonConfig.c ****                 sprintf(g_ptrServer->password,"%.*s",t[i + 1].end - t[i + 1].start,buffer + t[i + 1
 801              		.loc 1 251 0
 802 01b2 3F4B     		ldr	r3, .L49+52
 803 01b4 1868     		ldr	r0, [r3]
 804 01b6 5C30     		adds	r0, r0, #92
 805 01b8 731C     		adds	r3, r6, #1
 806 01ba 1B01     		lsls	r3, r3, #4
 807 01bc 1BAA     		add	r2, sp, #108
 808 01be 9446     		mov	ip, r2
 809 01c0 6344     		add	r3, r3, ip
 810 01c2 9A68     		ldr	r2, [r3, #8]
 811 01c4 5968     		ldr	r1, [r3, #4]
 812 01c6 6B18     		adds	r3, r5, r1
 813 01c8 521A     		subs	r2, r2, r1
 814 01ca 3049     		ldr	r1, .L49+16
 815 01cc FFF7FEFF 		bl	sprintf
 816              	.LVL87:
 817 01d0 45E0     		b	.L38
 818              	.L42:
 252:USBJsonConfig.c ****             }            
 253:USBJsonConfig.c ****             else if     (jsoneq(buffer, &t[i], "serverIP") == 0)
 819              		.loc 1 253 0
 820 01d2 3B4A     		ldr	r2, .L49+68
 821 01d4 2100     		movs	r1, r4
 822 01d6 2800     		movs	r0, r5
 823 01d8 FFF7FEFF 		bl	jsoneq
ARM GAS  C:\Users\luvsd\AppData\Local\Temp\ccMYsxej.s 			page 21


 824              	.LVL88:
 825 01dc 0028     		cmp	r0, #0
 826 01de 0DD1     		bne	.L43
 254:USBJsonConfig.c ****             {
 255:USBJsonConfig.c ****                 sprintf(g_ConfigMeta.url,"%.*s",t[i + 1].end - t[i + 1].start,buffer + t[i + 1].sta
 827              		.loc 1 255 0
 828 01e0 731C     		adds	r3, r6, #1
 829 01e2 1B01     		lsls	r3, r3, #4
 830 01e4 1BAA     		add	r2, sp, #108
 831 01e6 9446     		mov	ip, r2
 832 01e8 6344     		add	r3, r3, ip
 833 01ea 9A68     		ldr	r2, [r3, #8]
 834 01ec 5968     		ldr	r1, [r3, #4]
 835 01ee 6B18     		adds	r3, r5, r1
 836 01f0 521A     		subs	r2, r2, r1
 837 01f2 2649     		ldr	r1, .L49+16
 838 01f4 2348     		ldr	r0, .L49+8
 839 01f6 FFF7FEFF 		bl	sprintf
 840              	.LVL89:
 841 01fa 30E0     		b	.L38
 842              	.L43:
 256:USBJsonConfig.c ****             }              
 257:USBJsonConfig.c ****             else if     (jsoneq(buffer, &t[i], "serverPort") == 0)
 843              		.loc 1 257 0
 844 01fc 314A     		ldr	r2, .L49+72
 845 01fe 2100     		movs	r1, r4
 846 0200 2800     		movs	r0, r5
 847 0202 FFF7FEFF 		bl	jsoneq
 848              	.LVL90:
 849 0206 0028     		cmp	r0, #0
 850 0208 13D1     		bne	.L44
 258:USBJsonConfig.c ****             {
 259:USBJsonConfig.c ****                 sprintf(buff,"%.*s",t[i + 1].end - t[i + 1].start,buffer + t[i + 1].start);    
 851              		.loc 1 259 0
 852 020a 731C     		adds	r3, r6, #1
 853 020c 1B01     		lsls	r3, r3, #4
 854 020e 1BAA     		add	r2, sp, #108
 855 0210 9446     		mov	ip, r2
 856 0212 6344     		add	r3, r3, ip
 857 0214 9A68     		ldr	r2, [r3, #8]
 858 0216 5968     		ldr	r1, [r3, #4]
 859 0218 6B18     		adds	r3, r5, r1
 860 021a 521A     		subs	r2, r2, r1
 861 021c 1B49     		ldr	r1, .L49+16
 862 021e 02A8     		add	r0, sp, #8
 863 0220 FFF7FEFF 		bl	sprintf
 864              	.LVL91:
 260:USBJsonConfig.c ****                 g_ptrServer->port = atoi(buff);
 865              		.loc 1 260 0
 866 0224 224B     		ldr	r3, .L49+52
 867 0226 1C68     		ldr	r4, [r3]
 868 0228 02A8     		add	r0, sp, #8
 869 022a FFF7FEFF 		bl	atoi
 870              	.LVL92:
 871 022e 6086     		strh	r0, [r4, #50]
 872 0230 15E0     		b	.L38
 873              	.L44:
ARM GAS  C:\Users\luvsd\AppData\Local\Temp\ccMYsxej.s 			page 22


 261:USBJsonConfig.c ****             }     
 262:USBJsonConfig.c ****             else if     (jsoneq(buffer, &t[i], "deviceName") == 0)
 874              		.loc 1 262 0
 875 0232 254A     		ldr	r2, .L49+76
 876 0234 2100     		movs	r1, r4
 877 0236 2800     		movs	r0, r5
 878 0238 FFF7FEFF 		bl	jsoneq
 879              	.LVL93:
 880 023c 0028     		cmp	r0, #0
 881 023e 0ED1     		bne	.L38
 263:USBJsonConfig.c ****             {
 264:USBJsonConfig.c ****                 sprintf(g_ptrServer->deviceName,"%.*s",t[i + 1].end - t[i + 1].start,buffer + t[i +
 882              		.loc 1 264 0
 883 0240 1B4B     		ldr	r3, .L49+52
 884 0242 1868     		ldr	r0, [r3]
 885 0244 7030     		adds	r0, r0, #112
 886 0246 731C     		adds	r3, r6, #1
 887 0248 1B01     		lsls	r3, r3, #4
 888 024a 1BAA     		add	r2, sp, #108
 889 024c 9446     		mov	ip, r2
 890 024e 6344     		add	r3, r3, ip
 891 0250 9A68     		ldr	r2, [r3, #8]
 892 0252 5968     		ldr	r1, [r3, #4]
 893 0254 6B18     		adds	r3, r5, r1
 894 0256 521A     		subs	r2, r2, r1
 895 0258 0C49     		ldr	r1, .L49+16
 896 025a FFF7FEFF 		bl	sprintf
 897              	.LVL94:
 898              	.L38:
 209:USBJsonConfig.c ****     {   
 899              		.loc 1 209 0 discriminator 2
 900 025e 0136     		adds	r6, r6, #1
 901              	.LVL95:
 902              	.L32:
 209:USBJsonConfig.c ****     {   
 903              		.loc 1 209 0 is_stmt 0 discriminator 1
 904 0260 BE42     		cmp	r6, r7
 905 0262 00DA     		bge	.LCB822
 906 0264 F2E6     		b	.L45	@long jump
 907              	.LCB822:
 265:USBJsonConfig.c ****             }            
 266:USBJsonConfig.c ****         }
 267:USBJsonConfig.c ****     }
 268:USBJsonConfig.c ****     
 269:USBJsonConfig.c ****     return TRUE;
 908              		.loc 1 269 0 is_stmt 1
 909 0266 0120     		movs	r0, #1
 910 0268 04E0     		b	.L31
 911              	.LVL96:
 912              	.L46:
 194:USBJsonConfig.c ****     }
 913              		.loc 1 194 0
 914 026a 0020     		movs	r0, #0
 915              	.LVL97:
 916 026c 02E0     		b	.L31
 917              	.LVL98:
 918              	.L47:
ARM GAS  C:\Users\luvsd\AppData\Local\Temp\ccMYsxej.s 			page 23


 200:USBJsonConfig.c ****     }
 919              		.loc 1 200 0
 920 026e 0020     		movs	r0, #0
 921              	.LVL99:
 922 0270 00E0     		b	.L31
 923              	.LVL100:
 924              	.L48:
 925 0272 0020     		movs	r0, #0
 926              	.LVL101:
 927              	.L31:
 270:USBJsonConfig.c **** }
 928              		.loc 1 270 0
 929 0274 154B     		ldr	r3, .L49+80
 930 0276 9D44     		add	sp, sp, r3
 931              		@ sp needed
 932              	.LVL102:
 933              	.LVL103:
 934 0278 F0BD     		pop	{r4, r5, r6, r7, pc}
 935              	.L50:
 936 027a C046     		.align	2
 937              	.L49:
 938 027c 84FAFFFF 		.word	-1404
 939 0280 6C050000 		.word	1388
 940 0284 00000000 		.word	.LANCHOR0
 941 0288 50010000 		.word	.LC51
 942 028c 58010000 		.word	.LC53
 943 0290 60010000 		.word	.LC55
 944 0294 68010000 		.word	.LC57
 945 0298 70010000 		.word	.LC59
 946 029c 7C010000 		.word	.LC61
 947 02a0 88010000 		.word	.LC63
 948 02a4 BC000000 		.word	.LC25
 949 02a8 8C010000 		.word	.LC66
 950 02ac A8010000 		.word	.LC68
 951 02b0 00000000 		.word	g_ptrServer
 952 02b4 00000000 		.word	g_APs
 953 02b8 B4010000 		.word	.LC72
 954 02bc BC010000 		.word	.LC74
 955 02c0 C8010000 		.word	.LC76
 956 02c4 D4010000 		.word	.LC78
 957 02c8 E0010000 		.word	.LC80
 958 02cc 7C050000 		.word	1404
 959              		.cfi_endproc
 960              	.LFE66:
 961              		.size	JSON_Config, .-JSON_Config
 962              		.section	.text.usbJsonParsorLoop,"ax",%progbits
 963              		.align	2
 964              		.global	usbJsonParsorLoop
 965              		.code	16
 966              		.thumb_func
 967              		.type	usbJsonParsorLoop, %function
 968              	usbJsonParsorLoop:
 969              	.LFB63:
  36:USBJsonConfig.c ****     usbLoop();
 970              		.loc 1 36 0
 971              		.cfi_startproc
 972              		@ args = 0, pretend = 0, frame = 0
ARM GAS  C:\Users\luvsd\AppData\Local\Temp\ccMYsxej.s 			page 24


 973              		@ frame_needed = 0, uses_anonymous_args = 0
 974 0000 10B5     		push	{r4, lr}
 975              		.cfi_def_cfa_offset 8
 976              		.cfi_offset 4, -8
 977              		.cfi_offset 14, -4
  37:USBJsonConfig.c ****     
 978              		.loc 1 37 0
 979 0002 FFF7FEFF 		bl	usbLoop
 980              	.LVL104:
  39:USBJsonConfig.c ****             
 981              		.loc 1 39 0
 982 0006 094B     		ldr	r3, .L54
 983 0008 1B88     		ldrh	r3, [r3]
 984 000a 002B     		cmp	r3, #0
 985 000c 0DD0     		beq	.L51
  41:USBJsonConfig.c ****     
 986              		.loc 1 41 0
 987 000e FFF7FEFF 		bl	getUSB_ReceiveBuffer
 988              	.LVL105:
 989 0012 064B     		ldr	r3, .L54
 990 0014 0021     		movs	r1, #0
 991 0016 595E     		ldrsh	r1, [r3, r1]
 992 0018 FFF7FEFF 		bl	JSON_Config
 993              	.LVL106:
 994 001c 0128     		cmp	r0, #1
 995 001e 02D1     		bne	.L53
  41:USBJsonConfig.c ****     
 996              		.loc 1 41 0 is_stmt 0 discriminator 1
 997 0020 0022     		movs	r2, #0
 998 0022 024B     		ldr	r3, .L54
 999 0024 1A80     		strh	r2, [r3]
 1000              	.L53:
  43:USBJsonConfig.c **** }
 1001              		.loc 1 43 0 is_stmt 1
 1002 0026 FFF7FEFF 		bl	USB_CommandProcess
 1003              	.LVL107:
 1004              	.L51:
  44:USBJsonConfig.c **** 
 1005              		.loc 1 44 0
 1006              		@ sp needed
 1007 002a 10BD     		pop	{r4, pc}
 1008              	.L55:
 1009              		.align	2
 1010              	.L54:
 1011 002c 00000000 		.word	g_size_USB_ReceiveBuffer
 1012              		.cfi_endproc
 1013              	.LFE63:
 1014              		.size	usbJsonParsorLoop, .-usbJsonParsorLoop
 1015              		.comm	Param,6,4
 1016              		.section	.rodata.str1.4,"aMS",%progbits,1
 1017              		.align	2
 1018              	.LC0:
 1019 0000 7B227265 		.ascii	"{\"response\":\"config\",\000"
 1019      73706F6E 
 1019      7365223A 
 1019      22636F6E 
 1019      66696722 
ARM GAS  C:\Users\luvsd\AppData\Local\Temp\ccMYsxej.s 			page 25


 1020 0016 0000     		.space	2
 1021              	.LC3:
 1022 0018 22535349 		.ascii	"\"SSID\":\"%s\",\000"
 1022      44223A22 
 1022      2573222C 
 1022      00
 1023 0025 000000   		.space	3
 1024              	.LC5:
 1025 0028 22737369 		.ascii	"\"ssidList\":[\000"
 1025      644C6973 
 1025      74223A5B 
 1025      00
 1026 0035 000000   		.space	3
 1027              	.LC8:
 1028 0038 22252E2A 		.ascii	"\"%.*s(%d%%)\",\000"
 1028      73282564 
 1028      25252922 
 1028      2C00
 1029 0046 0000     		.space	2
 1030              	.LC10:
 1031 0048 22252E2A 		.ascii	"\"%.*s(%d%%)\"],\000"
 1031      73282564 
 1031      25252922 
 1031      5D2C00
 1032 0057 00       		.space	1
 1033              	.LC13:
 1034 0058 22535349 		.ascii	"\"SSID_Index\":\"%d\",\000"
 1034      445F496E 
 1034      64657822 
 1034      3A222564 
 1034      222C00
 1035 006b 00       		.space	1
 1036              	.LC15:
 1037 006c 22706173 		.ascii	"\"password\":\"%s\",\000"
 1037      73776F72 
 1037      64223A22 
 1037      2573222C 
 1037      00
 1038 007d 000000   		.space	3
 1039              	.LC17:
 1040 0080 22736572 		.ascii	"\"serverIP\":\"%s\",\000"
 1040      76657249 
 1040      50223A22 
 1040      2573222C 
 1040      00
 1041 0091 000000   		.space	3
 1042              	.LC19:
 1043 0094 22736572 		.ascii	"\"serverPort\":\"%d\",\000"
 1043      76657250 
 1043      6F727422 
 1043      3A222564 
 1043      222C00
 1044 00a7 00       		.space	1
 1045              	.LC21:
 1046 00a8 22646576 		.ascii	"\"deviceName\":\"%s\"}\000"
 1046      6963654E 
 1046      616D6522 
ARM GAS  C:\Users\luvsd\AppData\Local\Temp\ccMYsxej.s 			page 26


 1046      3A222573 
 1046      227D00
 1047 00bb 00       		.space	1
 1048              	.LC25:
 1049 00bc 636F6E6E 		.ascii	"connect\000"
 1049      65637400 
 1050              	.LC27:
 1051 00c4 41502053 		.ascii	"AP SCANNING..\000"
 1051      43414E4E 
 1051      494E472E 
 1051      2E00
 1052 00d2 0000     		.space	2
 1053              	.LC31:
 1054 00d4 5343414E 		.ascii	"SCANED %dth\000"
 1054      45442025 
 1054      64746800 
 1055              	.LC33:
 1056 00e0 7265626F 		.ascii	"reboot\000"
 1056      6F7400
 1057 00e7 00       		.space	1
 1058              	.LC35:
 1059 00e8 64697363 		.ascii	"disconnect\000"
 1059      6F6E6E65 
 1059      637400
 1060 00f3 00       		.space	1
 1061              	.LC37:
 1062 00f4 6669726D 		.ascii	"firmwareUpgrade\000"
 1062      77617265 
 1062      55706772 
 1062      61646500 
 1063              	.LC39:
 1064 0104 4669726D 		.ascii	"Firmware Upgrade\015\000"
 1064      77617265 
 1064      20557067 
 1064      72616465 
 1064      0D00
 1065 0116 0000     		.space	2
 1066              	.LC41:
 1067 0118 52656164 		.ascii	"Read Confdig\015\000"
 1067      20436F6E 
 1067      66646967 
 1067      0D00
 1068 0126 0000     		.space	2
 1069              	.LC44:
 1070 0128 53617669 		.ascii	"Saving..\000"
 1070      6E672E2E 
 1070      00
 1071 0131 000000   		.space	3
 1072              	.LC46:
 1073 0134 53657474 		.ascii	"Setting SSID\000"
 1073      696E6720 
 1073      53534944 
 1073      00
 1074 0141 000000   		.space	3
 1075              	.LC48:
 1076 0144 53534944 		.ascii	"SSID Done..\000"
 1076      20446F6E 
ARM GAS  C:\Users\luvsd\AppData\Local\Temp\ccMYsxej.s 			page 27


 1076      652E2E00 
 1077              	.LC51:
 1078 0150 72657175 		.ascii	"request\000"
 1078      65737400 
 1079              	.LC53:
 1080 0158 252E2A73 		.ascii	"%.*s\000"
 1080      00
 1081 015d 000000   		.space	3
 1082              	.LC55:
 1083 0160 73797343 		.ascii	"sysCmd\000"
 1083      6D6400
 1084 0167 00       		.space	1
 1085              	.LC57:
 1086 0168 6174436D 		.ascii	"atCmd\000"
 1086      6400
 1087 016e 0000     		.space	2
 1088              	.LC59:
 1089 0170 72656164 		.ascii	"readConfig\000"
 1089      436F6E66 
 1089      696700
 1090 017b 00       		.space	1
 1091              	.LC61:
 1092 017c 77726974 		.ascii	"writeConfig\000"
 1092      65436F6E 
 1092      66696700 
 1093              	.LC63:
 1094 0188 636D6400 		.ascii	"cmd\000"
 1095              	.LC66:
 1096 018c 7B227265 		.ascii	"{\"response\":\"connected\"}\000"
 1096      73706F6E 
 1096      7365223A 
 1096      22636F6E 
 1096      6E656374 
 1097 01a5 000000   		.space	3
 1098              	.LC68:
 1099 01a8 53534944 		.ascii	"SSIDIndex\000"
 1099      496E6465 
 1099      7800
 1100 01b2 0000     		.space	2
 1101              	.LC72:
 1102 01b4 77697468 		.ascii	"withMAC\000"
 1102      4D414300 
 1103              	.LC74:
 1104 01bc 70617373 		.ascii	"password\000"
 1104      776F7264 
 1104      00
 1105 01c5 000000   		.space	3
 1106              	.LC76:
 1107 01c8 73657276 		.ascii	"serverIP\000"
 1107      65724950 
 1107      00
 1108 01d1 000000   		.space	3
 1109              	.LC78:
 1110 01d4 73657276 		.ascii	"serverPort\000"
 1110      6572506F 
 1110      727400
 1111 01df 00       		.space	1
ARM GAS  C:\Users\luvsd\AppData\Local\Temp\ccMYsxej.s 			page 28


 1112              	.LC80:
 1113 01e0 64657669 		.ascii	"deviceName\000"
 1113      63654E61 
 1113      6D6500
 1114              		.bss
 1115              		.align	2
 1116              		.set	.LANCHOR0,. + 0
 1117              		.type	g_ConfigMeta, %object
 1118              		.size	g_ConfigMeta, 54
 1119              	g_ConfigMeta:
 1120 0000 00000000 		.space	54
 1120      00000000 
 1120      00000000 
 1120      00000000 
 1120      00000000 
 1121 0036 0000     		.space	2
 1122              		.type	g_usbCmd, %object
 1123              		.size	g_usbCmd, 100
 1124              	g_usbCmd:
 1125 0038 00000000 		.space	100
 1125      00000000 
 1125      00000000 
 1125      00000000 
 1125      00000000 
 1126              		.text
 1127              	.Letext0:
 1128              		.file 2 "Generated_Source\\PSoC4/cytypes.h"
 1129              		.file 3 "./main.h"
 1130              		.file 4 "USBJsonConfig.h"
 1131              		.file 5 "lib/jsmn.h"
 1132              		.file 6 "lib/WIFI.h"
 1133              		.file 7 "lib/server.h"
 1134              		.file 8 "lib/fonts.h"
 1135              		.file 9 "Generated_Source\\PSoC4/RTC.h"
 1136              		.file 10 "lib/USB.h"
 1137              		.file 11 "c:\\program files (x86)\\cypress\\psoc creator\\4.4\\psoc creator\\import\\gnu\\arm\\5.4
 1138              		.file 12 "jsonUtil.h"
 1139              		.file 13 "lib/widget.h"
 1140              		.file 14 "lib/externalFlash.h"
 1141              		.file 15 "lib/menu.h"
 1142              		.file 16 "Generated_Source\\PSoC4/CyLib.h"
 1143              		.file 17 "Generated_Source\\PSoC4/Bootloadable.h"
 1144              		.file 18 "c:\\program files (x86)\\cypress\\psoc creator\\4.4\\psoc creator\\import\\gnu\\arm\\5.4
 1145              		.file 19 "c:\\program files (x86)\\cypress\\psoc creator\\4.4\\psoc creator\\import\\gnu\\arm\\5.4
 1146              		.file 20 "<built-in>"