ARM GAS  C:\Users\luvsd\AppData\Local\Temp\ccS6HmRQ.s 			page 1


   1              		.syntax unified
   2              		.cpu cortex-m0
   3              		.fpu softvfp
   4              		.eabi_attribute 20, 1
   5              		.eabi_attribute 21, 1
   6              		.eabi_attribute 23, 3
   7              		.eabi_attribute 24, 1
   8              		.eabi_attribute 25, 1
   9              		.eabi_attribute 26, 1
  10              		.eabi_attribute 30, 1
  11              		.eabi_attribute 34, 0
  12              		.eabi_attribute 18, 4
  13              		.thumb
  14              		.syntax unified
  15              		.file	"userProjectPatternSewing.c"
  16              		.text
  17              	.Ltext0:
  18              		.cfi_sections	.debug_frame
  19              		.section	.text.initUserProject,"ax",%progbits
  20              		.align	2
  21              		.global	initUserProject
  22              		.code	16
  23              		.thumb_func
  24              		.type	initUserProject, %function
  25              	initUserProject:
  26              	.LFB62:
  27              		.file 1 "userProjectPatternSewing.c"
   1:userProjectPatternSewing.c **** 
   2:userProjectPatternSewing.c **** /* ========================================
   3:userProjectPatternSewing.c ****  *
   4:userProjectPatternSewing.c ****  * Copyright Suntech, 2023.03.30
   5:userProjectPatternSewing.c ****  * All Rights Reserved
   6:userProjectPatternSewing.c ****  * UNPUBLISHED, LICENSED SOFTWARE.
   7:userProjectPatternSewing.c ****  *
   8:userProjectPatternSewing.c ****  * CONFIDENTIAL AND PROPRIETARY INFORMATION
   9:userProjectPatternSewing.c ****  * WHICH IS THE PROPERTY OF Suntech.
  10:userProjectPatternSewing.c ****  *
  11:userProjectPatternSewing.c ****  * ========================================
  12:userProjectPatternSewing.c **** */
  13:userProjectPatternSewing.c **** #include "userProjectPatternSewing.h"
  14:userProjectPatternSewing.c **** #include "lib/externalFlash.h"
  15:userProjectPatternSewing.c **** 
  16:userProjectPatternSewing.c **** #ifdef USER_PROJECT_PATTERN_SEWING_MACHINE
  17:userProjectPatternSewing.c **** 
  18:userProjectPatternSewing.c **** MACHINE_PARAMETER *g_ptrMachineParameter = NULL;
  19:userProjectPatternSewing.c **** MACHINE_PARAMETER g_DefaultMachineParameter = {
  20:userProjectPatternSewing.c ****     .machineType = PATTERN_MACHINE,
  21:userProjectPatternSewing.c ****     .patternTarget    = 1000,
  22:userProjectPatternSewing.c ****     .patternPairCount =    1,
  23:userProjectPatternSewing.c ****     .patternPair      =   10,
  24:userProjectPatternSewing.c **** 
  25:userProjectPatternSewing.c ****     .sewingTarget     = 1000,
  26:userProjectPatternSewing.c ****     .sewingPairTrim   =    2,
  27:userProjectPatternSewing.c ****     .sewingPair       =   10,
  28:userProjectPatternSewing.c **** 
  29:userProjectPatternSewing.c ****     .andon_enable     =    TRUE,
  30:userProjectPatternSewing.c ****     .current_enable   =    FALSE,
ARM GAS  C:\Users\luvsd\AppData\Local\Temp\ccS6HmRQ.s 			page 2


  31:userProjectPatternSewing.c ****     .current_sensor_threshold = 13,
  32:userProjectPatternSewing.c ****     .bAutoReset       =    ON,
  33:userProjectPatternSewing.c **** };
  34:userProjectPatternSewing.c **** 
  35:userProjectPatternSewing.c **** void initUserProject()
  36:userProjectPatternSewing.c **** {
  28              		.loc 1 36 0
  29              		.cfi_startproc
  30              		@ args = 0, pretend = 0, frame = 0
  31              		@ frame_needed = 0, uses_anonymous_args = 0
  32 0000 10B5     		push	{r4, lr}
  33              		.cfi_def_cfa_offset 8
  34              		.cfi_offset 4, -8
  35              		.cfi_offset 14, -4
  37:userProjectPatternSewing.c ****     g_ptrMachineParameter = (MACHINE_PARAMETER *) getExternalConfigUserData();
  36              		.loc 1 37 0
  37 0002 FFF7FEFF 		bl	getExternalConfigUserData
  38              	.LVL0:
  39 0006 014B     		ldr	r3, .L2
  40 0008 1860     		str	r0, [r3]
  38:userProjectPatternSewing.c **** }
  41              		.loc 1 38 0
  42              		@ sp needed
  43 000a 10BD     		pop	{r4, pc}
  44              	.L3:
  45              		.align	2
  46              	.L2:
  47 000c 00000000 		.word	.LANCHOR0
  48              		.cfi_endproc
  49              	.LFE62:
  50              		.size	initUserProject, .-initUserProject
  51              		.section	.text.SetUserProjectDefaultExternalFlashConfig,"ax",%progbits
  52              		.align	2
  53              		.global	SetUserProjectDefaultExternalFlashConfig
  54              		.code	16
  55              		.thumb_func
  56              		.type	SetUserProjectDefaultExternalFlashConfig, %function
  57              	SetUserProjectDefaultExternalFlashConfig:
  58              	.LFB63:
  39:userProjectPatternSewing.c **** 
  40:userProjectPatternSewing.c **** void SetUserProjectDefaultExternalFlashConfig() // refer to externalFlash.h
  41:userProjectPatternSewing.c **** {
  59              		.loc 1 41 0
  60              		.cfi_startproc
  61              		@ args = 0, pretend = 0, frame = 0
  62              		@ frame_needed = 0, uses_anonymous_args = 0
  63 0000 10B5     		push	{r4, lr}
  64              		.cfi_def_cfa_offset 8
  65              		.cfi_offset 4, -8
  66              		.cfi_offset 14, -4
  42:userProjectPatternSewing.c ****     memcpy(getExternalConfigUserData(), &g_DefaultMachineParameter, sizeof(g_DefaultMachineParamete
  67              		.loc 1 42 0
  68 0002 FFF7FEFF 		bl	getExternalConfigUserData
  69              	.LVL1:
  70 0006 1C22     		movs	r2, #28
  71 0008 0149     		ldr	r1, .L5
  72 000a FFF7FEFF 		bl	memcpy
ARM GAS  C:\Users\luvsd\AppData\Local\Temp\ccS6HmRQ.s 			page 3


  73              	.LVL2:
  43:userProjectPatternSewing.c **** }
  74              		.loc 1 43 0
  75              		@ sp needed
  76 000e 10BD     		pop	{r4, pc}
  77              	.L6:
  78              		.align	2
  79              	.L5:
  80 0010 00000000 		.word	.LANCHOR1
  81              		.cfi_endproc
  82              	.LFE63:
  83              		.size	SetUserProjectDefaultExternalFlashConfig, .-SetUserProjectDefaultExternalFlashConfig
  84              		.section	.text.userProjectDataValidation,"ax",%progbits
  85              		.align	2
  86              		.global	userProjectDataValidation
  87              		.code	16
  88              		.thumb_func
  89              		.type	userProjectDataValidation, %function
  90              	userProjectDataValidation:
  91              	.LFB64:
  44:userProjectPatternSewing.c **** 
  45:userProjectPatternSewing.c **** uint8 userProjectDataValidation()
  46:userProjectPatternSewing.c **** {
  92              		.loc 1 46 0
  93              		.cfi_startproc
  94              		@ args = 0, pretend = 0, frame = 0
  95              		@ frame_needed = 0, uses_anonymous_args = 0
  96 0000 10B5     		push	{r4, lr}
  97              		.cfi_def_cfa_offset 8
  98              		.cfi_offset 4, -8
  99              		.cfi_offset 14, -4
  47:userProjectPatternSewing.c ****     /* BLACK_CPU 전용: PATTERN_MACHINE 고정 */
  48:userProjectPatternSewing.c ****     if(g_ptrMachineParameter->machineType != PATTERN_MACHINE)
 100              		.loc 1 48 0
 101 0002 164B     		ldr	r3, .L12
 102 0004 1868     		ldr	r0, [r3]
 103 0006 0378     		ldrb	r3, [r0]
 104 0008 002B     		cmp	r3, #0
 105 000a 07D0     		beq	.L8
  49:userProjectPatternSewing.c ****     {
  50:userProjectPatternSewing.c ****         memcpy(&g_ptrMachineParameter->machineType, &g_DefaultMachineParameter, sizeof(MACHINE_PARA
 106              		.loc 1 50 0
 107 000c 1C22     		movs	r2, #28
 108 000e 1449     		ldr	r1, .L12+4
 109 0010 FFF7FEFF 		bl	memcpy
 110              	.LVL3:
  51:userProjectPatternSewing.c ****         g_ptrMachineParameter->machineType = PATTERN_MACHINE;
 111              		.loc 1 51 0
 112 0014 114B     		ldr	r3, .L12
 113 0016 1B68     		ldr	r3, [r3]
 114 0018 0022     		movs	r2, #0
 115 001a 1A70     		strb	r2, [r3]
 116              	.L8:
  52:userProjectPatternSewing.c ****     }
  53:userProjectPatternSewing.c **** 
  54:userProjectPatternSewing.c ****     if(g_ptrMachineParameter->patternTarget  >= UINT16_MAX || g_ptrMachineParameter->patternTarget 
 117              		.loc 1 54 0
ARM GAS  C:\Users\luvsd\AppData\Local\Temp\ccS6HmRQ.s 			page 4


 118 001c 0F4B     		ldr	r3, .L12
 119 001e 1A68     		ldr	r2, [r3]
 120 0020 5388     		ldrh	r3, [r2, #2]
 121 0022 013B     		subs	r3, r3, #1
 122 0024 9BB2     		uxth	r3, r3
 123 0026 0F49     		ldr	r1, .L12+8
 124 0028 8B42     		cmp	r3, r1
 125 002a 02D9     		bls	.L9
  55:userProjectPatternSewing.c ****         g_ptrMachineParameter->patternTarget = g_DefaultMachineParameter.patternTarget;
 126              		.loc 1 55 0
 127 002c 0C4B     		ldr	r3, .L12+4
 128 002e 5B88     		ldrh	r3, [r3, #2]
 129 0030 5380     		strh	r3, [r2, #2]
 130              	.L9:
  56:userProjectPatternSewing.c ****     if(g_ptrMachineParameter->patternPairCount > 99 || g_ptrMachineParameter->patternPairCount == 0
 131              		.loc 1 56 0
 132 0032 0A4B     		ldr	r3, .L12
 133 0034 1A68     		ldr	r2, [r3]
 134 0036 9388     		ldrh	r3, [r2, #4]
 135 0038 013B     		subs	r3, r3, #1
 136 003a 9BB2     		uxth	r3, r3
 137 003c 622B     		cmp	r3, #98
 138 003e 02D9     		bls	.L10
  57:userProjectPatternSewing.c ****         g_ptrMachineParameter->patternPairCount = g_DefaultMachineParameter.patternPairCount;
 139              		.loc 1 57 0
 140 0040 074B     		ldr	r3, .L12+4
 141 0042 9B88     		ldrh	r3, [r3, #4]
 142 0044 9380     		strh	r3, [r2, #4]
 143              	.L10:
  58:userProjectPatternSewing.c ****     if(g_ptrMachineParameter->patternPair > 999 || g_ptrMachineParameter->patternPair == 0)
 144              		.loc 1 58 0
 145 0046 D388     		ldrh	r3, [r2, #6]
 146 0048 013B     		subs	r3, r3, #1
 147 004a 9BB2     		uxth	r3, r3
 148 004c 0649     		ldr	r1, .L12+12
 149 004e 8B42     		cmp	r3, r1
 150 0050 02D9     		bls	.L11
  59:userProjectPatternSewing.c ****         g_ptrMachineParameter->patternPair = g_DefaultMachineParameter.patternPair;
 151              		.loc 1 59 0
 152 0052 034B     		ldr	r3, .L12+4
 153 0054 DB88     		ldrh	r3, [r3, #6]
 154 0056 D380     		strh	r3, [r2, #6]
 155              	.L11:
  60:userProjectPatternSewing.c **** 
  61:userProjectPatternSewing.c ****     return TRUE;
  62:userProjectPatternSewing.c **** }
 156              		.loc 1 62 0
 157 0058 0120     		movs	r0, #1
 158              		@ sp needed
 159 005a 10BD     		pop	{r4, pc}
 160              	.L13:
 161              		.align	2
 162              	.L12:
 163 005c 00000000 		.word	.LANCHOR0
 164 0060 00000000 		.word	.LANCHOR1
 165 0064 FDFF0000 		.word	65533
 166 0068 E6030000 		.word	998
ARM GAS  C:\Users\luvsd\AppData\Local\Temp\ccS6HmRQ.s 			page 5


 167              		.cfi_endproc
 168              	.LFE64:
 169              		.size	userProjectDataValidation, .-userProjectDataValidation
 170              		.global	g_DefaultMachineParameter
 171              		.global	g_ptrMachineParameter
 172              		.comm	Param,6,4
 173              		.data
 174              		.align	2
 175              		.set	.LANCHOR1,. + 0
 176              		.type	g_DefaultMachineParameter, %object
 177              		.size	g_DefaultMachineParameter, 28
 178              	g_DefaultMachineParameter:
 179 0000 00       		.byte	0
 180 0001 00       		.space	1
 181 0002 E803     		.short	1000
 182 0004 0100     		.short	1
 183 0006 0A00     		.short	10
 184 0008 E803     		.short	1000
 185 000a 0200     		.short	2
 186 000c 0A00     		.short	10
 187 000e 00000000 		.space	6
 187      0000
 188 0014 0100     		.short	1
 189 0016 0000     		.short	0
 190 0018 0D00     		.short	13
 191 001a 01       		.byte	1
 192 001b 00       		.space	1
 193              		.bss
 194              		.align	2
 195              		.set	.LANCHOR0,. + 0
 196              		.type	g_ptrMachineParameter, %object
 197              		.size	g_ptrMachineParameter, 4
 198              	g_ptrMachineParameter:
 199 0000 00000000 		.space	4
 200              		.text
 201              	.Letext0:
 202              		.file 2 "Generated_Source\\PSoC4/cytypes.h"
 203              		.file 3 "main.h"
 204              		.file 4 "userProjectPatternSewing.h"
 205              		.file 5 "Generated_Source\\PSoC4/RTC.h"
 206              		.file 6 "lib/externalFlash.h"