ARM GAS  C:\Users\luvsd\AppData\Local\Temp\ccM1uNpo.s 			page 1


   1              		.syntax unified
   2              		.cpu cortex-m0
   3              		.fpu softvfp
   4              		.eabi_attribute 20, 1
   5              		.eabi_attribute 21, 1
   6              		.eabi_attribute 23, 3
   7              		.eabi_attribute 24, 1
   8              		.eabi_attribute 25, 1
   9              		.eabi_attribute 26, 1
  10              		.eabi_attribute 30, 1
  11              		.eabi_attribute 34, 0
  12              		.eabi_attribute 18, 4
  13              		.thumb
  14              		.syntax unified
  15              		.file	"userMenuPatternSewingMachine.c"
  16              		.text
  17              	.Ltext0:
  18              		.cfi_sections	.debug_frame
  19              		.section	.text.doTargetInfoMenu,"ax",%progbits
  20              		.align	2
  21              		.global	doTargetInfoMenu
  22              		.code	16
  23              		.thumb_func
  24              		.type	doTargetInfoMenu, %function
  25              	doTargetInfoMenu:
  26              	.LFB71:
  27              		.file 1 "userMenuPatternSewingMachine.c"
   1:userMenuPatternSewingMachine.c **** /* ========================================
   2:userMenuPatternSewingMachine.c ****  *
   3:userMenuPatternSewingMachine.c ****  * Copyright Suntech, 2023.02.01
   4:userMenuPatternSewingMachine.c ****  * All Rights Reserved
   5:userMenuPatternSewingMachine.c ****  * UNPUBLISHED, LICENSED SOFTWARE.
   6:userMenuPatternSewingMachine.c ****  *
   7:userMenuPatternSewingMachine.c ****  * CONFIDENTIAL AND PROPRIETARY INFORMATION
   8:userMenuPatternSewingMachine.c ****  * WHICH IS THE PROPERTY OF Suntech.
   9:userMenuPatternSewingMachine.c ****  *
  10:userMenuPatternSewingMachine.c ****  * ========================================
  11:userMenuPatternSewingMachine.c **** */
  12:userMenuPatternSewingMachine.c **** //#include "userMenu.h"
  13:userMenuPatternSewingMachine.c **** #include "lib/widget.h"
  14:userMenuPatternSewingMachine.c **** #include "lib/image.h"
  15:userMenuPatternSewingMachine.c **** #include "lib/externalFlash.h"
  16:userMenuPatternSewingMachine.c **** #include "lib/internalFlash.h"
  17:userMenuPatternSewingMachine.c **** #include "menuDesign.h"
  18:userMenuPatternSewingMachine.c **** #include "package.h"
  19:userMenuPatternSewingMachine.c **** ///#include "WIFI.h"
  20:userMenuPatternSewingMachine.c **** #include "count.h"
  21:userMenuPatternSewingMachine.c **** 
  22:userMenuPatternSewingMachine.c **** #ifdef USER_PROJECT_PATTERN_SEWING_MACHINE
  23:userMenuPatternSewingMachine.c **** 
  24:userMenuPatternSewingMachine.c **** #include "userProjectPatternSewing.h"
  25:userMenuPatternSewingMachine.c **** #include "lib/manageMenu.h"
  26:userMenuPatternSewingMachine.c **** #include "andonMenu.h"
  27:userMenuPatternSewingMachine.c ****     
  28:userMenuPatternSewingMachine.c **** char *g_patternString[] = {"Target", "Actual", "Rate", "CT", "MRT", "TB"};
  29:userMenuPatternSewingMachine.c **** uint8 g_noPatternString = 6;
  30:userMenuPatternSewingMachine.c **** 
ARM GAS  C:\Users\luvsd\AppData\Local\Temp\ccM1uNpo.s 			page 2


  31:userMenuPatternSewingMachine.c **** //////////////////////
  32:userMenuPatternSewingMachine.c **** //// doTopMenu    ////
  33:userMenuPatternSewingMachine.c **** //////////////////////
  34:userMenuPatternSewingMachine.c **** void DisplayDoTopMenu(MONITORING_MENU *menu);
  35:userMenuPatternSewingMachine.c **** void TopMenuPageUpdate(MONITORING_MENU *menu, uint8 page);
  36:userMenuPatternSewingMachine.c **** void TopMenuPageUpdateValue(MONITORING_MENU *menu, uint8 page);
  37:userMenuPatternSewingMachine.c **** 
  38:userMenuPatternSewingMachine.c **** int doTopMenu(void *this, uint8 reflash)
  39:userMenuPatternSewingMachine.c **** {    
  40:userMenuPatternSewingMachine.c ****     MENUNODE *thisMenu = (MENUNODE *) this;    
  41:userMenuPatternSewingMachine.c ****     static MONITORING_MENU menu;
  42:userMenuPatternSewingMachine.c ****     static uint8 patternPage = 0;
  43:userMenuPatternSewingMachine.c ****     static uint8 sewingPage = 0;
  44:userMenuPatternSewingMachine.c ****     static uint8 page = 0, oldPage = 0xFF;
  45:userMenuPatternSewingMachine.c **** 
  46:userMenuPatternSewingMachine.c ****     switch(reflash)
  47:userMenuPatternSewingMachine.c ****     {
  48:userMenuPatternSewingMachine.c ****         case TRUE: // ĒÖöļ®┤ņØ┤ ļ░öļĆöļĢī ņŗżĒ¢ē
  49:userMenuPatternSewingMachine.c ****             {
  50:userMenuPatternSewingMachine.c ****                 switch(g_ptrMachineParameter->machineType)
  51:userMenuPatternSewingMachine.c ****                 {
  52:userMenuPatternSewingMachine.c ****                     case PATTERN_MACHINE:  page = patternPage; break;
  53:userMenuPatternSewingMachine.c ****                     // case SEWING_MACHINE :  page = sewingPage;  break;
  54:userMenuPatternSewingMachine.c ****                 }
  55:userMenuPatternSewingMachine.c ****                 
  56:userMenuPatternSewingMachine.c ****                 oldPage = 0xFF;
  57:userMenuPatternSewingMachine.c ****                 g_updateCountMenu = TRUE;                
  58:userMenuPatternSewingMachine.c ****                 DisplayDoTopMenu(&menu);                
  59:userMenuPatternSewingMachine.c ****             }
  60:userMenuPatternSewingMachine.c ****             break;  
  61:userMenuPatternSewingMachine.c ****         
  62:userMenuPatternSewingMachine.c ****         case FALSE: // Cliking Check
  63:userMenuPatternSewingMachine.c ****             {
  64:userMenuPatternSewingMachine.c ****                 TOUCH tc = GetTouch();
  65:userMenuPatternSewingMachine.c ****                 if(tc.isClick == FALSE) break;
  66:userMenuPatternSewingMachine.c ****                 
  67:userMenuPatternSewingMachine.c ****                 switch(getIndexOfClickedButton(&tc, menu.btn,7))
  68:userMenuPatternSewingMachine.c ****                 {
  69:userMenuPatternSewingMachine.c ****                     case 0: return 2; break;
  70:userMenuPatternSewingMachine.c ****                     
  71:userMenuPatternSewingMachine.c ****                     case 1:
  72:userMenuPatternSewingMachine.c ****                     case 2:
  73:userMenuPatternSewingMachine.c ****                         switch(g_ptrMachineParameter->machineType)
  74:userMenuPatternSewingMachine.c ****                         {
  75:userMenuPatternSewingMachine.c ****                             case PATTERN_MACHINE:
  76:userMenuPatternSewingMachine.c ****                                 if     (page == 0) return 3;
  77:userMenuPatternSewingMachine.c ****                                 else if(page > 0 ) page--;
  78:userMenuPatternSewingMachine.c ****                                 break;
  79:userMenuPatternSewingMachine.c ****                             /* case SEWING_MACHINE :
  80:userMenuPatternSewingMachine.c ****                                 if     (page == 0) return 3;
  81:userMenuPatternSewingMachine.c ****                                 else if(page > 0 ) page--;
  82:userMenuPatternSewingMachine.c ****                                 break;  */                               
  83:userMenuPatternSewingMachine.c ****                         }
  84:userMenuPatternSewingMachine.c ****                         break;
  85:userMenuPatternSewingMachine.c ****                         
  86:userMenuPatternSewingMachine.c ****                     case 3:                        
  87:userMenuPatternSewingMachine.c ****                     case 4:
ARM GAS  C:\Users\luvsd\AppData\Local\Temp\ccM1uNpo.s 			page 3


  88:userMenuPatternSewingMachine.c ****                         switch(g_ptrMachineParameter->machineType)
  89:userMenuPatternSewingMachine.c ****                         {
  90:userMenuPatternSewingMachine.c ****                             case PATTERN_MACHINE:
  91:userMenuPatternSewingMachine.c ****                                 if (page == 0) return 4;
  92:userMenuPatternSewingMachine.c ****                                 //else if(page > 0 ) page--;
  93:userMenuPatternSewingMachine.c ****                                 break;
  94:userMenuPatternSewingMachine.c ****                             /* case SEWING_MACHINE :
  95:userMenuPatternSewingMachine.c ****                                 if (page == 0) return 4;
  96:userMenuPatternSewingMachine.c ****                                 //else if(page > 0 ) page--;
  97:userMenuPatternSewingMachine.c ****                                 break; */                                
  98:userMenuPatternSewingMachine.c ****                         }                       
  99:userMenuPatternSewingMachine.c ****                         break;
 100:userMenuPatternSewingMachine.c ****                         
 101:userMenuPatternSewingMachine.c ****                     case 5:
 102:userMenuPatternSewingMachine.c ****                     case 6:
 103:userMenuPatternSewingMachine.c ****                         switch(g_ptrMachineParameter->machineType)
 104:userMenuPatternSewingMachine.c ****                         {
 105:userMenuPatternSewingMachine.c ****                             case PATTERN_MACHINE:
 106:userMenuPatternSewingMachine.c ****                                 if (page < 1)  page++;
 107:userMenuPatternSewingMachine.c ****                                 break;
 108:userMenuPatternSewingMachine.c ****                             /*case SEWING_MACHINE : // ņØ╝ļ░śņ×¼ļ┤ēĻĖ░ 1ĒÄśņØ┤ņ¦Ćļ¦ī ņé¼ņÜ®ņŗ£ ņŻ╝ņ
 109:userMenuPatternSewingMachine.c ****                                 if     (page < 1)  page++;
 110:userMenuPatternSewingMachine.c ****                                 break;*/                            
 111:userMenuPatternSewingMachine.c ****                         }
 112:userMenuPatternSewingMachine.c ****                         break;             
 113:userMenuPatternSewingMachine.c ****                     default:
 114:userMenuPatternSewingMachine.c ****                         switch(getIndexOfClickedButton(&tc,g_btnBottom,2))
 115:userMenuPatternSewingMachine.c ****                         {
 116:userMenuPatternSewingMachine.c ****                             case BOTTOM_LEFT:  return 0;
 117:userMenuPatternSewingMachine.c ****                             case BOTTOM_RIGHT: return 1;                            
 118:userMenuPatternSewingMachine.c ****                         }
 119:userMenuPatternSewingMachine.c ****                     break;
 120:userMenuPatternSewingMachine.c ****                 }
 121:userMenuPatternSewingMachine.c ****                 
 122:userMenuPatternSewingMachine.c ****             }
 123:userMenuPatternSewingMachine.c ****             break;
 124:userMenuPatternSewingMachine.c ****         default:
 125:userMenuPatternSewingMachine.c ****             g_updateCountMenu = TRUE;
 126:userMenuPatternSewingMachine.c ****             break;
 127:userMenuPatternSewingMachine.c ****     }
 128:userMenuPatternSewingMachine.c ****     
 129:userMenuPatternSewingMachine.c ****    if(oldPage != page || g_updateCountMenu == TRUE) TopMenuPageUpdate(&menu, page);
 130:userMenuPatternSewingMachine.c ****     
 131:userMenuPatternSewingMachine.c ****     oldPage = page;
 132:userMenuPatternSewingMachine.c ****     g_updateCountMenu = FALSE;
 133:userMenuPatternSewingMachine.c ****     return MENU_RETURN_THIS;    
 134:userMenuPatternSewingMachine.c **** }
 135:userMenuPatternSewingMachine.c **** 
 136:userMenuPatternSewingMachine.c **** void TopMenuPageUpdate(MONITORING_MENU *menu, uint8 page)
 137:userMenuPatternSewingMachine.c **** {
 138:userMenuPatternSewingMachine.c ****     switch(g_ptrMachineParameter->machineType)
 139:userMenuPatternSewingMachine.c ****     {
 140:userMenuPatternSewingMachine.c ****         case PATTERN_MACHINE:
 141:userMenuPatternSewingMachine.c ****         {
 142:userMenuPatternSewingMachine.c ****             switch(page)
 143:userMenuPatternSewingMachine.c ****             {
 144:userMenuPatternSewingMachine.c ****                 case 0:
ARM GAS  C:\Users\luvsd\AppData\Local\Temp\ccM1uNpo.s 			page 4


 145:userMenuPatternSewingMachine.c ****                     SetButtonText(&menu->btn[1],g_patternString[0]);
 146:userMenuPatternSewingMachine.c ****                     SetButtonText(&menu->btn[3],g_patternString[1]);
 147:userMenuPatternSewingMachine.c ****                     SetButtonText(&menu->btn[5],g_patternString[2]);
 148:userMenuPatternSewingMachine.c ****                     break;
 149:userMenuPatternSewingMachine.c ****                 case 1:
 150:userMenuPatternSewingMachine.c ****                     SetButtonText(&menu->btn[1],g_patternString[3]);  /* "CT"  */
 151:userMenuPatternSewingMachine.c ****                     SetButtonText(&menu->btn[3],g_patternString[4]);  /* "MRT" */
 152:userMenuPatternSewingMachine.c ****                     SetButtonText(&menu->btn[5],g_patternString[5]);  /* "TB"  */
 153:userMenuPatternSewingMachine.c ****                     break;
 154:userMenuPatternSewingMachine.c ****             }
 155:userMenuPatternSewingMachine.c ****         }
 156:userMenuPatternSewingMachine.c ****         break;
 157:userMenuPatternSewingMachine.c ****         /* case SEWING_MACHINE:
 158:userMenuPatternSewingMachine.c ****         {
 159:userMenuPatternSewingMachine.c ****             switch(page)
 160:userMenuPatternSewingMachine.c ****             {
 161:userMenuPatternSewingMachine.c ****                 case 0:
 162:userMenuPatternSewingMachine.c ****                     SetButtonText(&menu->btn[1],g_patternString[0]);
 163:userMenuPatternSewingMachine.c ****                     SetButtonText(&menu->btn[3],g_patternString[1]);
 164:userMenuPatternSewingMachine.c ****                     SetButtonText(&menu->btn[5],g_patternString[2]);
 165:userMenuPatternSewingMachine.c ****                     break;
 166:userMenuPatternSewingMachine.c ****                 case 1:   // ņØ╝ļ░śņ×¼ļ┤ēĻĖ░ 1ĒÄśņØ┤ņ¦Ćļ¦ī ņé¼ņÜ®ņŗ£ ņŻ╝ņäØ ņ▓śļ”¼.
 167:userMenuPatternSewingMachine.c ****                     SetButtonText(&menu->btn[1],g_patternString[3]);
 168:userMenuPatternSewingMachine.c ****                     SetButtonText(&menu->btn[3],g_patternString[4]);
 169:userMenuPatternSewingMachine.c ****                     SetButtonText(&menu->btn[5],g_patternString[5]);                    
 170:userMenuPatternSewingMachine.c ****                     break;     
 171:userMenuPatternSewingMachine.c ****             }
 172:userMenuPatternSewingMachine.c ****         }
 173:userMenuPatternSewingMachine.c ****         break; */        
 174:userMenuPatternSewingMachine.c ****     }
 175:userMenuPatternSewingMachine.c **** 
 176:userMenuPatternSewingMachine.c ****     //menu->btn[3].disable = TRUE; // for no click second line
 177:userMenuPatternSewingMachine.c ****     //menu->btn[4].disable = TRUE; // for no click second line 
 178:userMenuPatternSewingMachine.c ****         
 179:userMenuPatternSewingMachine.c ****     DrawButton(&menu->btn[1]);
 180:userMenuPatternSewingMachine.c ****     DrawButton(&menu->btn[3]);
 181:userMenuPatternSewingMachine.c ****     DrawButton(&menu->btn[5]); 
 182:userMenuPatternSewingMachine.c **** 
 183:userMenuPatternSewingMachine.c ****     TopMenuPageUpdateValue(menu,page);
 184:userMenuPatternSewingMachine.c ****     
 185:userMenuPatternSewingMachine.c **** }
 186:userMenuPatternSewingMachine.c **** 
 187:userMenuPatternSewingMachine.c **** void DisplayDoTopMenu(MONITORING_MENU *menu)
 188:userMenuPatternSewingMachine.c **** {
 189:userMenuPatternSewingMachine.c ****     /* BLACK_CPU: PATTERN_MACHINE Ļ│ĀņĀĢ */
 190:userMenuPatternSewingMachine.c ****     SetDrawMonitoringMenu(menu, "EMBROIDERY");
 191:userMenuPatternSewingMachine.c **** 
 192:userMenuPatternSewingMachine.c ****     SetDrawBottomButtons("MENU", (g_ptrMachineParameter->andon_enable==TRUE ) ? "ANDON" : "RESET", 
 193:userMenuPatternSewingMachine.c **** }
 194:userMenuPatternSewingMachine.c **** 
 195:userMenuPatternSewingMachine.c **** void TopMenuPageUpdateValue(MONITORING_MENU *menu, uint8 page)
 196:userMenuPatternSewingMachine.c **** {
 197:userMenuPatternSewingMachine.c ****     BUTTON *btn;
 198:userMenuPatternSewingMachine.c ****     uint8 persent = FALSE;
 199:userMenuPatternSewingMachine.c ****     uint8 rate100 = FALSE;
 200:userMenuPatternSewingMachine.c ****     float spi = 0.0;
 201:userMenuPatternSewingMachine.c ****     COUNT *ptrCount = getCount();
ARM GAS  C:\Users\luvsd\AppData\Local\Temp\ccM1uNpo.s 			page 5


 202:userMenuPatternSewingMachine.c ****     if((uint32) CONVERT_TO_4BYTE(ptrCount->patternNoStitchSumH,ptrCount->patternNoStitchSumL) > 0 &
 203:userMenuPatternSewingMachine.c ****        (uint32) CONVERT_TO_4BYTE(ptrCount->patternStitchLengthSumH,ptrCount->patternStitchLengthSum
 204:userMenuPatternSewingMachine.c ****     {
 205:userMenuPatternSewingMachine.c ****         spi = 25.4 / (((float) ((uint32) CONVERT_TO_4BYTE(ptrCount->patternStitchLengthSumH,ptrCoun
 206:userMenuPatternSewingMachine.c ****                       ((float) ((uint32) CONVERT_TO_4BYTE(ptrCount->patternNoStitchSumH,ptrCount->p
 207:userMenuPatternSewingMachine.c ****         
 208:userMenuPatternSewingMachine.c ****     }
 209:userMenuPatternSewingMachine.c ****     //printf("%lu, %lu\r\n", (uint32) CONVERT_TO_4BYTE(g_ptrCount->patternStitchLengthSumH,g_ptrCou
 210:userMenuPatternSewingMachine.c ****     
 211:userMenuPatternSewingMachine.c ****     /* BLACK_CPU: PATTERN_MACHINE Ļ│ĀņĀĢ */
 212:userMenuPatternSewingMachine.c ****     switch(page)
 213:userMenuPatternSewingMachine.c ****     {
 214:userMenuPatternSewingMachine.c ****         case 0:
 215:userMenuPatternSewingMachine.c ****             SetButtonText(&menu->btn[2],"%u",g_ptrMachineParameter->patternTarget);
 216:userMenuPatternSewingMachine.c ****             SetButtonText(&menu->btn[4],"%lu",   ((uint32) CONVERT_TO_4BYTE(ptrCount->patternActual
 217:userMenuPatternSewingMachine.c ****             SetButtonText(&menu->btn[6],"%4.1f",((uint32) CONVERT_TO_4BYTE(ptrCount->patternActualH
 218:userMenuPatternSewingMachine.c ****             if(strcmp("100.0",menu->btn[6].text)==0) rate100 = TRUE;
 219:userMenuPatternSewingMachine.c ****             persent = TRUE;
 220:userMenuPatternSewingMachine.c ****             break;
 221:userMenuPatternSewingMachine.c ****         case 1:
 222:userMenuPatternSewingMachine.c ****             /* CT: ļłäņé░ĒĢ®(ņ┤ł ļŗ©ņ£ä) */
 223:userMenuPatternSewingMachine.c ****             SetButtonText(&menu->btn[2],"%lu",
 224:userMenuPatternSewingMachine.c ****                 (uint32)CONVERT_TO_4BYTE(ptrCount->patternCycleTimeSumH,
 225:userMenuPatternSewingMachine.c ****                                          ptrCount->patternCycleTimeSumL));
 226:userMenuPatternSewingMachine.c ****             /* MRT: ļłäņé░ĒĢ®(ņ┤ł ļŗ©ņ£ä) */
 227:userMenuPatternSewingMachine.c ****             SetButtonText(&menu->btn[4],"%lu",
 228:userMenuPatternSewingMachine.c ****                 (uint32)CONVERT_TO_4BYTE(ptrCount->patternMotorRunTimeSumH,
 229:userMenuPatternSewingMachine.c ****                                          ptrCount->patternMotorRunTimeSumL));
 230:userMenuPatternSewingMachine.c ****             /* TB: ņŗżļüŖņ¢┤ņ¦äĒÜ¤ņłś ļłäņé░ĒĢ® */
 231:userMenuPatternSewingMachine.c ****             SetButtonText(&menu->btn[6],"%lu",
 232:userMenuPatternSewingMachine.c ****                 (uint32)CONVERT_TO_4BYTE(ptrCount->embThreadBreakageQtySumH,
 233:userMenuPatternSewingMachine.c ****                                          ptrCount->embThreadBreakageQtySumL));
 234:userMenuPatternSewingMachine.c ****             break;
 235:userMenuPatternSewingMachine.c ****     }
 236:userMenuPatternSewingMachine.c ****     
 237:userMenuPatternSewingMachine.c ****     DrawButton(&menu->btn[2]);
 238:userMenuPatternSewingMachine.c ****     DrawButton(&menu->btn[4]);
 239:userMenuPatternSewingMachine.c ****     DrawButton(&menu->btn[6]);
 240:userMenuPatternSewingMachine.c ****     
 241:userMenuPatternSewingMachine.c ****     ///if(rate100) Buzzer(BUZZER_WARNING_CONTINUOUS,0);
 242:userMenuPatternSewingMachine.c ****     
 243:userMenuPatternSewingMachine.c ****     if( persent)
 244:userMenuPatternSewingMachine.c ****     {
 245:userMenuPatternSewingMachine.c ****         BUTTON *b = &menu->btn[6];
 246:userMenuPatternSewingMachine.c ****         LCD_DrawFont(b->rect.right-16,(b->rect.top+b->rect.bottom)*.5-10,b->foregroundColor,b->back
 247:userMenuPatternSewingMachine.c ****     }
 248:userMenuPatternSewingMachine.c **** }
 249:userMenuPatternSewingMachine.c **** 
 250:userMenuPatternSewingMachine.c **** /////////////////////////
 251:userMenuPatternSewingMachine.c **** //// doPairsInfoMenu ////
 252:userMenuPatternSewingMachine.c **** /////////////////////////
 253:userMenuPatternSewingMachine.c **** void DisplayDoPairsInfoMenu(UP_DOWN_TWO_MENU *menu);
 254:userMenuPatternSewingMachine.c **** void DisplayDoPairsInfoMenuSelectValue(UP_DOWN_TWO_MENU *menu, uint8 selectValue, uint16 leftValue,
 255:userMenuPatternSewingMachine.c **** void DisplayDoPairsInfoMenuLeftValueChange(UP_DOWN_TWO_MENU *menu, uint16 leftValue);
 256:userMenuPatternSewingMachine.c **** void DisplayDoPairsInfoMenuRightValueChange(UP_DOWN_TWO_MENU *menu, uint16 rightValue); // rightVal
 257:userMenuPatternSewingMachine.c **** 
 258:userMenuPatternSewingMachine.c **** int doPairsInfoMenu(void *this, uint8 reflash)
ARM GAS  C:\Users\luvsd\AppData\Local\Temp\ccM1uNpo.s 			page 6


 259:userMenuPatternSewingMachine.c **** {    
 260:userMenuPatternSewingMachine.c ****     MENUNODE *thisMenu = (MENUNODE *) this;    
 261:userMenuPatternSewingMachine.c ****     static UP_DOWN_TWO_MENU menu;    
 262:userMenuPatternSewingMachine.c ****     static uint16 selectValue = 0;
 263:userMenuPatternSewingMachine.c ****     static uint16 leftValue = 2;
 264:userMenuPatternSewingMachine.c ****     static uint16  rightValue = 25;
 265:userMenuPatternSewingMachine.c **** 
 266:userMenuPatternSewingMachine.c ****     switch(reflash)
 267:userMenuPatternSewingMachine.c ****     {
 268:userMenuPatternSewingMachine.c ****         case TRUE: // ĒÖöļ®┤ņØ┤ ļ░öļĆöļĢī ņŗżĒ¢ē
 269:userMenuPatternSewingMachine.c ****             {
 270:userMenuPatternSewingMachine.c ****                 DisplayDoPairsInfoMenu(&menu);
 271:userMenuPatternSewingMachine.c ****                 
 272:userMenuPatternSewingMachine.c ****                 /* BLACK_CPU: PATTERN_MACHINE Ļ│ĀņĀĢ */
 273:userMenuPatternSewingMachine.c ****                 leftValue  = g_ptrMachineParameter->patternPairCount;
 274:userMenuPatternSewingMachine.c ****                 rightValue = g_ptrMachineParameter->patternPair;
 275:userMenuPatternSewingMachine.c ****     
 276:userMenuPatternSewingMachine.c ****                 DisplayDoPairsInfoMenuSelectValue(&menu, selectValue, leftValue, rightValue);
 277:userMenuPatternSewingMachine.c ****             }
 278:userMenuPatternSewingMachine.c ****             break;  
 279:userMenuPatternSewingMachine.c **** 
 280:userMenuPatternSewingMachine.c ****         case FALSE: // Cliking Check
 281:userMenuPatternSewingMachine.c ****             {
 282:userMenuPatternSewingMachine.c ****                 TOUCH tc = GetTouch();
 283:userMenuPatternSewingMachine.c ****                 if(tc.isClick == FALSE) break;
 284:userMenuPatternSewingMachine.c ****                 uint16 indexClick = getIndexOfClickedButton(&tc, menu.btn,7);
 285:userMenuPatternSewingMachine.c ****                 switch(indexClick)
 286:userMenuPatternSewingMachine.c ****                 {
 287:userMenuPatternSewingMachine.c ****                     case UPDOWNTWO_FIRST_TEXT:  // left
 288:userMenuPatternSewingMachine.c ****                     case UPDOWNTWO_FIRST_VALUE:
 289:userMenuPatternSewingMachine.c ****                         selectValue = 0;
 290:userMenuPatternSewingMachine.c ****                         DisplayDoPairsInfoMenuSelectValue(&menu,selectValue, leftValue, rightValue)
 291:userMenuPatternSewingMachine.c ****                         break;
 292:userMenuPatternSewingMachine.c ****                     case UPDOWNTWO_SECOND_TEXT:  // right
 293:userMenuPatternSewingMachine.c ****                     case UPDOWNTWO_SECOND_VALUE:
 294:userMenuPatternSewingMachine.c ****                         selectValue = 1;
 295:userMenuPatternSewingMachine.c ****                         DisplayDoPairsInfoMenuSelectValue(&menu,selectValue, leftValue, rightValue)
 296:userMenuPatternSewingMachine.c ****                         break;                    
 297:userMenuPatternSewingMachine.c ****                     case UPDOWNTWO_UP_BUTTON: // for up
 298:userMenuPatternSewingMachine.c ****                         if      (selectValue==0 && leftValue < 10000)
 299:userMenuPatternSewingMachine.c ****                         {
 300:userMenuPatternSewingMachine.c ****                             leftValue++;
 301:userMenuPatternSewingMachine.c ****                             DisplayDoPairsInfoMenuLeftValueChange(&menu,leftValue);
 302:userMenuPatternSewingMachine.c ****                         }
 303:userMenuPatternSewingMachine.c ****                         else if (selectValue==1 && rightValue < 10000)
 304:userMenuPatternSewingMachine.c ****                         {
 305:userMenuPatternSewingMachine.c ****                             rightValue++;
 306:userMenuPatternSewingMachine.c ****                             DisplayDoPairsInfoMenuRightValueChange(&menu,rightValue);
 307:userMenuPatternSewingMachine.c ****                         }
 308:userMenuPatternSewingMachine.c ****                         break;                       
 309:userMenuPatternSewingMachine.c ****                     case UPDOWNTWO_DOWN_BUTTON: // for down
 310:userMenuPatternSewingMachine.c ****                         if      (selectValue==0 && leftValue > 1)
 311:userMenuPatternSewingMachine.c ****                         {
 312:userMenuPatternSewingMachine.c ****                             leftValue--;
 313:userMenuPatternSewingMachine.c ****                             DisplayDoPairsInfoMenuLeftValueChange(&menu,leftValue);
 314:userMenuPatternSewingMachine.c ****                         }                        
 315:userMenuPatternSewingMachine.c ****                         else if (selectValue==1 && rightValue > 1) 
ARM GAS  C:\Users\luvsd\AppData\Local\Temp\ccM1uNpo.s 			page 7


 316:userMenuPatternSewingMachine.c ****                         {
 317:userMenuPatternSewingMachine.c ****                             rightValue--;
 318:userMenuPatternSewingMachine.c ****                             DisplayDoPairsInfoMenuRightValueChange(&menu,rightValue);
 319:userMenuPatternSewingMachine.c ****                         }                 
 320:userMenuPatternSewingMachine.c ****                         break;                    
 321:userMenuPatternSewingMachine.c ****                     default:
 322:userMenuPatternSewingMachine.c ****                         switch(getIndexOfClickedButton(&tc,g_btnBottom,2))
 323:userMenuPatternSewingMachine.c ****                         {
 324:userMenuPatternSewingMachine.c ****                             case BOTTOM_LEFT:  return MENU_RETURN_PARENT;
 325:userMenuPatternSewingMachine.c ****                             case BOTTOM_RIGHT:
 326:userMenuPatternSewingMachine.c ****                             {
 327:userMenuPatternSewingMachine.c ****                                 /* BLACK_CPU: PATTERN_MACHINE Ļ│ĀņĀĢ */
 328:userMenuPatternSewingMachine.c ****                                 g_ptrMachineParameter->patternPairCount = leftValue;
 329:userMenuPatternSewingMachine.c ****                                 g_ptrMachineParameter->patternPair      = rightValue;
 330:userMenuPatternSewingMachine.c ****                                 ShowWaitMessage();
 331:userMenuPatternSewingMachine.c ****                                 SaveExternalFlashConfig();
 332:userMenuPatternSewingMachine.c ****                                 return MENU_RETURN_PARENT;
 333:userMenuPatternSewingMachine.c ****                             }
 334:userMenuPatternSewingMachine.c ****                         }
 335:userMenuPatternSewingMachine.c ****                     break;
 336:userMenuPatternSewingMachine.c ****                 }                                  
 337:userMenuPatternSewingMachine.c ****             }
 338:userMenuPatternSewingMachine.c ****             break;
 339:userMenuPatternSewingMachine.c ****     }
 340:userMenuPatternSewingMachine.c ****     return MENU_RETURN_THIS;    
 341:userMenuPatternSewingMachine.c **** }
 342:userMenuPatternSewingMachine.c **** 
 343:userMenuPatternSewingMachine.c **** void DisplayDoPairsInfoMenu(UP_DOWN_TWO_MENU *menu)
 344:userMenuPatternSewingMachine.c **** {
 345:userMenuPatternSewingMachine.c ****     /* BLACK_CPU: PATTERN_MACHINE Ļ│ĀņĀĢ */
 346:userMenuPatternSewingMachine.c ****     SetDrawUpDownTwoMenu(menu, "Count", "Pair(s)", "Pairs info.");
 347:userMenuPatternSewingMachine.c **** 
 348:userMenuPatternSewingMachine.c ****     menu->btn[0].disable = TRUE; // for no click title
 349:userMenuPatternSewingMachine.c **** 
 350:userMenuPatternSewingMachine.c ****     SetDrawBottomButtons("QUIT", "SAVE", BUTTON_STYLE_R_GREEN, BUTTON_STYLE_R_BLUE);
 351:userMenuPatternSewingMachine.c **** }
 352:userMenuPatternSewingMachine.c **** 
 353:userMenuPatternSewingMachine.c **** void DisplayDoPairsInfoMenuSelectValue(UP_DOWN_TWO_MENU *menu, uint8 selectValue, uint16 firstValue
 354:userMenuPatternSewingMachine.c **** {
 355:userMenuPatternSewingMachine.c ****     SetButtonStyleColor(&menu->btn[UPDOWNTWO_FIRST_TEXT],  (selectValue==0) ? BUTTON_STYLE_WHITE : 
 356:userMenuPatternSewingMachine.c ****     SetButtonStyleColor(&menu->btn[UPDOWNTWO_FIRST_VALUE], (selectValue==0) ? BUTTON_STYLE_YELLOW: 
 357:userMenuPatternSewingMachine.c ****     SetButtonStyleColor(&menu->btn[UPDOWNTWO_SECOND_TEXT], (selectValue==1) ? BUTTON_STYLE_WHITE : 
 358:userMenuPatternSewingMachine.c ****     SetButtonStyleColor(&menu->btn[UPDOWNTWO_SECOND_VALUE],(selectValue==1) ? BUTTON_STYLE_YELLOW: 
 359:userMenuPatternSewingMachine.c ****     
 360:userMenuPatternSewingMachine.c ****     DrawButton(&menu->btn[UPDOWNTWO_FIRST_TEXT]);
 361:userMenuPatternSewingMachine.c ****     DrawButton(&menu->btn[UPDOWNTWO_SECOND_TEXT]);
 362:userMenuPatternSewingMachine.c ****     
 363:userMenuPatternSewingMachine.c ****     DisplayDoPairsInfoMenuLeftValueChange(menu,firstValue);
 364:userMenuPatternSewingMachine.c ****     DisplayDoPairsInfoMenuRightValueChange(menu,secondValue);    
 365:userMenuPatternSewingMachine.c **** }
 366:userMenuPatternSewingMachine.c **** void DisplayDoPairsInfoMenuLeftValueChange(UP_DOWN_TWO_MENU *menu, uint16 value)
 367:userMenuPatternSewingMachine.c **** {  
 368:userMenuPatternSewingMachine.c ****     SetButtonText(&menu->btn[UPDOWNTWO_FIRST_VALUE],"%d",value);    // left value   
 369:userMenuPatternSewingMachine.c ****     DrawButton(&menu->btn[UPDOWNTWO_FIRST_VALUE]);
 370:userMenuPatternSewingMachine.c **** }
 371:userMenuPatternSewingMachine.c **** void DisplayDoPairsInfoMenuRightValueChange(UP_DOWN_TWO_MENU *menu, uint16 value)
 372:userMenuPatternSewingMachine.c **** {
ARM GAS  C:\Users\luvsd\AppData\Local\Temp\ccM1uNpo.s 			page 8


 373:userMenuPatternSewingMachine.c ****     SetButtonText(&menu->btn[UPDOWNTWO_SECOND_VALUE],"%3.1f",value/10.); // right value   
 374:userMenuPatternSewingMachine.c ****     DrawButton(&menu->btn[UPDOWNTWO_SECOND_VALUE]);     
 375:userMenuPatternSewingMachine.c **** }
 376:userMenuPatternSewingMachine.c **** int doTargetInfoMenu(void *this, uint8 reflash)
 377:userMenuPatternSewingMachine.c **** {
  28              		.loc 1 377 0
  29              		.cfi_startproc
  30              		@ args = 0, pretend = 0, frame = 0
  31              		@ frame_needed = 0, uses_anonymous_args = 0
  32              	.LVL0:
  33 0000 00B5     		push	{lr}
  34              		.cfi_def_cfa_offset 4
  35              		.cfi_offset 14, -4
  36 0002 85B0     		sub	sp, sp, #20
  37              		.cfi_def_cfa_offset 24
  38 0004 0800     		movs	r0, r1
  39              	.LVL1:
 378:userMenuPatternSewingMachine.c ****     MENUNODE *thisMenu = (MENUNODE *) this;
 379:userMenuPatternSewingMachine.c ****     static char *strTitle = "Target info.";
 380:userMenuPatternSewingMachine.c ****     static char *strValue = "Target";
 381:userMenuPatternSewingMachine.c ****     static int32 minValue = 0, maxValue = 99999;
 382:userMenuPatternSewingMachine.c ****     static int32 incr[] = {1, 100, 500};
 383:userMenuPatternSewingMachine.c ****     static uint16 selectIncre = 0;
 384:userMenuPatternSewingMachine.c ****     static int32 value = 0;
 385:userMenuPatternSewingMachine.c **** 
 386:userMenuPatternSewingMachine.c ****     switch(doIncreseNumberMenu(reflash, strTitle, strValue, incr, &value, minValue, maxValue, &sele
  40              		.loc 1 386 0
  41 0006 104B     		ldr	r3, .L7
  42 0008 0393     		str	r3, [sp, #12]
  43 000a 104A     		ldr	r2, .L7+4
  44 000c 0292     		str	r2, [sp, #8]
  45 000e 0022     		movs	r2, #0
  46 0010 0192     		str	r2, [sp, #4]
  47 0012 0433     		adds	r3, r3, #4
  48 0014 0093     		str	r3, [sp]
  49 0016 0E4B     		ldr	r3, .L7+8
  50 0018 0E4A     		ldr	r2, .L7+12
  51 001a 0F49     		ldr	r1, .L7+16
  52              	.LVL2:
  53 001c FFF7FEFF 		bl	doIncreseNumberMenu
  54              	.LVL3:
  55 0020 0E4B     		ldr	r3, .L7+20
  56 0022 9842     		cmp	r0, r3
  57 0024 03D0     		beq	.L3
  58 0026 0E4B     		ldr	r3, .L7+24
  59 0028 9842     		cmp	r0, r3
  60 002a 03D0     		beq	.L4
  61 002c 09E0     		b	.L6
  62              	.L3:
 387:userMenuPatternSewingMachine.c ****     {
 388:userMenuPatternSewingMachine.c ****         case MENU_BOTTOM_LEFT:
 389:userMenuPatternSewingMachine.c ****             return MENU_RETURN_PARENT;
  63              		.loc 1 389 0
  64 002e 8020     		movs	r0, #128
  65 0030 0006     		lsls	r0, r0, #24
  66 0032 07E0     		b	.L2
  67              	.L4:
ARM GAS  C:\Users\luvsd\AppData\Local\Temp\ccM1uNpo.s 			page 9


 390:userMenuPatternSewingMachine.c ****         case MENU_BOTTOM_RIGHT:
 391:userMenuPatternSewingMachine.c ****             ShowWaitMessage();
  68              		.loc 1 391 0
  69 0034 FFF7FEFF 		bl	ShowWaitMessage
  70              	.LVL4:
 392:userMenuPatternSewingMachine.c ****             SaveExternalFlashConfig();
  71              		.loc 1 392 0
  72 0038 FFF7FEFF 		bl	SaveExternalFlashConfig
  73              	.LVL5:
 393:userMenuPatternSewingMachine.c ****             return MENU_RETURN_PARENT;
  74              		.loc 1 393 0
  75 003c 8020     		movs	r0, #128
  76 003e 0006     		lsls	r0, r0, #24
  77 0040 00E0     		b	.L2
  78              	.L6:
 394:userMenuPatternSewingMachine.c ****     }
 395:userMenuPatternSewingMachine.c ****     return MENU_RETURN_THIS;
  79              		.loc 1 395 0
  80 0042 0848     		ldr	r0, .L7+28
  81              	.L2:
 396:userMenuPatternSewingMachine.c **** }
  82              		.loc 1 396 0
  83 0044 05B0     		add	sp, sp, #20
  84              		@ sp needed
  85 0046 00BD     		pop	{pc}
  86              	.L8:
  87              		.align	2
  88              	.L7:
  89 0048 00000000 		.word	.LANCHOR1
  90 004c 9F860100 		.word	99999
  91 0050 00000000 		.word	.LANCHOR0
  92 0054 00000000 		.word	.LC1
  93 0058 08000000 		.word	.LC3
  94 005c 03000080 		.word	-2147483645
  95 0060 04000080 		.word	-2147483644
  96 0064 01000080 		.word	-2147483647
  97              		.cfi_endproc
  98              	.LFE71:
  99              		.size	doTargetInfoMenu, .-doTargetInfoMenu
 100              		.global	__aeabi_uidiv
 101              		.section	.text.doActualInfoMenu,"ax",%progbits
 102              		.align	2
 103              		.global	doActualInfoMenu
 104              		.code	16
 105              		.thumb_func
 106              		.type	doActualInfoMenu, %function
 107              	doActualInfoMenu:
 108              	.LFB72:
 397:userMenuPatternSewingMachine.c **** 
 398:userMenuPatternSewingMachine.c **** //////////////////////////
 399:userMenuPatternSewingMachine.c **** //// doActualInfoMenu ////
 400:userMenuPatternSewingMachine.c **** //////////////////////////
 401:userMenuPatternSewingMachine.c **** int doActualInfoMenu(void *this, uint8 reflash)
 402:userMenuPatternSewingMachine.c **** {
 109              		.loc 1 402 0
 110              		.cfi_startproc
 111              		@ args = 0, pretend = 0, frame = 0
ARM GAS  C:\Users\luvsd\AppData\Local\Temp\ccM1uNpo.s 			page 10


 112              		@ frame_needed = 0, uses_anonymous_args = 0
 113              	.LVL6:
 114 0000 30B5     		push	{r4, r5, lr}
 115              		.cfi_def_cfa_offset 12
 116              		.cfi_offset 4, -12
 117              		.cfi_offset 5, -8
 118              		.cfi_offset 14, -4
 119 0002 85B0     		sub	sp, sp, #20
 120              		.cfi_def_cfa_offset 32
 121 0004 0C00     		movs	r4, r1
 122              	.LVL7:
 403:userMenuPatternSewingMachine.c ****     MENUNODE *thisMenu = (MENUNODE *) this;
 404:userMenuPatternSewingMachine.c ****     static char *strTitle = "Actual Q'ty";
 405:userMenuPatternSewingMachine.c ****     static char *strValue = "Value";
 406:userMenuPatternSewingMachine.c ****     static int32 minValue = 0, maxValue = 99999;
 407:userMenuPatternSewingMachine.c ****     static int32 incr[] ={1, 10, 100};
 408:userMenuPatternSewingMachine.c ****     
 409:userMenuPatternSewingMachine.c ****     static uint16 selectIncre = 0;
 410:userMenuPatternSewingMachine.c ****     static int32 value = 0;
 411:userMenuPatternSewingMachine.c ****     COUNT *ptrCount = getCount();
 123              		.loc 1 411 0
 124 0006 FFF7FEFF 		bl	getCount
 125              	.LVL8:
 126 000a 0500     		movs	r5, r0
 127              	.LVL9:
 412:userMenuPatternSewingMachine.c ****     
 413:userMenuPatternSewingMachine.c ****     switch(reflash)
 128              		.loc 1 413 0
 129 000c 012C     		cmp	r4, #1
 130 000e 08D1     		bne	.L10
 414:userMenuPatternSewingMachine.c ****     {
 415:userMenuPatternSewingMachine.c ****         case TRUE: // ĒÖöļ®┤ņØ┤ ļ░öļĆöļĢī ņŗżĒ¢ē
 416:userMenuPatternSewingMachine.c ****             {
 417:userMenuPatternSewingMachine.c ****                 /* BLACK_CPU: PATTERN_MACHINE Ļ│ĀņĀĢ */
 418:userMenuPatternSewingMachine.c ****                 value = (uint32) CONVERT_TO_4BYTE(ptrCount->patternActualH, ptrCount->patternActual
 131              		.loc 1 418 0
 132 0010 808B     		ldrh	r0, [r0, #28]
 133              	.LVL10:
 134 0012 0004     		lsls	r0, r0, #16
 135 0014 EB8B     		ldrh	r3, [r5, #30]
 136 0016 1843     		orrs	r0, r3
 137 0018 0A21     		movs	r1, #10
 138 001a FFF7FEFF 		bl	__aeabi_uidiv
 139              	.LVL11:
 140 001e 174B     		ldr	r3, .L17
 141 0020 9860     		str	r0, [r3, #8]
 142              	.L10:
 419:userMenuPatternSewingMachine.c ****             }
 420:userMenuPatternSewingMachine.c ****             break;
 421:userMenuPatternSewingMachine.c ****     }
 422:userMenuPatternSewingMachine.c **** 
 423:userMenuPatternSewingMachine.c ****     switch(doIncreseNumberMenu(reflash, strTitle, strValue, incr, &value, minValue, maxValue, &sele
 143              		.loc 1 423 0
 144 0022 164B     		ldr	r3, .L17
 145 0024 1A00     		movs	r2, r3
 146 0026 0C32     		adds	r2, r2, #12
 147 0028 0392     		str	r2, [sp, #12]
ARM GAS  C:\Users\luvsd\AppData\Local\Temp\ccM1uNpo.s 			page 11


 148 002a 154A     		ldr	r2, .L17+4
 149 002c 0292     		str	r2, [sp, #8]
 150 002e 0022     		movs	r2, #0
 151 0030 0192     		str	r2, [sp, #4]
 152 0032 0833     		adds	r3, r3, #8
 153 0034 0093     		str	r3, [sp]
 154 0036 134B     		ldr	r3, .L17+8
 155 0038 0C33     		adds	r3, r3, #12
 156 003a 134A     		ldr	r2, .L17+12
 157 003c 1349     		ldr	r1, .L17+16
 158 003e 2000     		movs	r0, r4
 159 0040 FFF7FEFF 		bl	doIncreseNumberMenu
 160              	.LVL12:
 161 0044 124B     		ldr	r3, .L17+20
 162 0046 9842     		cmp	r0, r3
 163 0048 03D0     		beq	.L13
 164 004a 124B     		ldr	r3, .L17+24
 165 004c 9842     		cmp	r0, r3
 166 004e 03D0     		beq	.L14
 167 0050 10E0     		b	.L16
 168              	.L13:
 424:userMenuPatternSewingMachine.c ****     {
 425:userMenuPatternSewingMachine.c ****     case MENU_BOTTOM_LEFT:
 426:userMenuPatternSewingMachine.c ****         return MENU_RETURN_PARENT;
 169              		.loc 1 426 0
 170 0052 8020     		movs	r0, #128
 171 0054 0006     		lsls	r0, r0, #24
 172 0056 0EE0     		b	.L12
 173              	.L14:
 427:userMenuPatternSewingMachine.c ****         break;
 428:userMenuPatternSewingMachine.c ****     case MENU_BOTTOM_RIGHT:
 429:userMenuPatternSewingMachine.c ****         {
 430:userMenuPatternSewingMachine.c ****             /* BLACK_CPU: PATTERN_MACHINE Ļ│ĀņĀĢ */
 431:userMenuPatternSewingMachine.c ****             ptrCount->patternActualH = CONVERT_TO_HIGH(value*10);
 174              		.loc 1 431 0
 175 0058 084B     		ldr	r3, .L17
 176 005a 9A68     		ldr	r2, [r3, #8]
 177 005c 9100     		lsls	r1, r2, #2
 178 005e 8918     		adds	r1, r1, r2
 179 0060 4B00     		lsls	r3, r1, #1
 180 0062 1900     		movs	r1, r3
 181 0064 1B0C     		lsrs	r3, r3, #16
 182 0066 AB83     		strh	r3, [r5, #28]
 432:userMenuPatternSewingMachine.c ****             ptrCount->patternActualL = CONVERT_TO_LOW(value*10);
 183              		.loc 1 432 0
 184 0068 E983     		strh	r1, [r5, #30]
 433:userMenuPatternSewingMachine.c ****             SaveInternalFlash();
 185              		.loc 1 433 0
 186 006a FFF7FEFF 		bl	SaveInternalFlash
 187              	.LVL13:
 434:userMenuPatternSewingMachine.c ****             return MENU_RETURN_PARENT;
 188              		.loc 1 434 0
 189 006e 8020     		movs	r0, #128
 190 0070 0006     		lsls	r0, r0, #24
 191 0072 00E0     		b	.L12
 192              	.L16:
 435:userMenuPatternSewingMachine.c ****         }
ARM GAS  C:\Users\luvsd\AppData\Local\Temp\ccM1uNpo.s 			page 12


 436:userMenuPatternSewingMachine.c ****         break;
 437:userMenuPatternSewingMachine.c ****     }
 438:userMenuPatternSewingMachine.c ****     return MENU_RETURN_THIS;    
 193              		.loc 1 438 0
 194 0074 0848     		ldr	r0, .L17+28
 195              	.L12:
 439:userMenuPatternSewingMachine.c **** }
 196              		.loc 1 439 0
 197 0076 05B0     		add	sp, sp, #20
 198              		@ sp needed
 199              	.LVL14:
 200 0078 30BD     		pop	{r4, r5, pc}
 201              	.L18:
 202 007a C046     		.align	2
 203              	.L17:
 204 007c 00000000 		.word	.LANCHOR1
 205 0080 9F860100 		.word	99999
 206 0084 00000000 		.word	.LANCHOR0
 207 0088 18000000 		.word	.LC9
 208 008c 20000000 		.word	.LC11
 209 0090 03000080 		.word	-2147483645
 210 0094 04000080 		.word	-2147483644
 211 0098 01000080 		.word	-2147483647
 212              		.cfi_endproc
 213              	.LFE72:
 214              		.size	doActualInfoMenu, .-doActualInfoMenu
 215              		.section	.text.doResetData,"ax",%progbits
 216              		.align	2
 217              		.global	doResetData
 218              		.code	16
 219              		.thumb_func
 220              		.type	doResetData, %function
 221              	doResetData:
 222              	.LFB74:
 440:userMenuPatternSewingMachine.c **** 
 441:userMenuPatternSewingMachine.c **** ///////////////////
 442:userMenuPatternSewingMachine.c **** //// doMachine ////
 443:userMenuPatternSewingMachine.c **** ///////////////////
 444:userMenuPatternSewingMachine.c **** int doMachine(void *this, uint8 reflash)
 445:userMenuPatternSewingMachine.c **** {    
 446:userMenuPatternSewingMachine.c ****     MENUNODE *thisMenu = (MENUNODE *) this;    
 447:userMenuPatternSewingMachine.c ****     //static LIST_MENU menu;
 448:userMenuPatternSewingMachine.c ****     static char *listText[] = {"PATTERN", "SEWING"};
 449:userMenuPatternSewingMachine.c ****     static uint16 indexSelect = 0;
 450:userMenuPatternSewingMachine.c ****     static uint16 displayDir;
 451:userMenuPatternSewingMachine.c ****     static uint16 page = 0;
 452:userMenuPatternSewingMachine.c ****     
 453:userMenuPatternSewingMachine.c ****     if(reflash)
 454:userMenuPatternSewingMachine.c ****     {
 455:userMenuPatternSewingMachine.c ****         indexSelect = g_ptrMachineParameter->machineType;
 456:userMenuPatternSewingMachine.c ****         displayDir  = getMiscConfig()->bDisplayDir;  
 457:userMenuPatternSewingMachine.c ****     }
 458:userMenuPatternSewingMachine.c ****     
 459:userMenuPatternSewingMachine.c ****     switch(doSelectList(this, reflash, listText, 2, &indexSelect, &page))
 460:userMenuPatternSewingMachine.c ****     {
 461:userMenuPatternSewingMachine.c ****         case 0:
 462:userMenuPatternSewingMachine.c ****             setDisplayDirection(DISPLAY_DIRECTION_PORTRAIT);         
ARM GAS  C:\Users\luvsd\AppData\Local\Temp\ccM1uNpo.s 			page 13


 463:userMenuPatternSewingMachine.c ****             doSelectList(this, TRUE, listText, 2, &indexSelect, &page);
 464:userMenuPatternSewingMachine.c ****             break;
 465:userMenuPatternSewingMachine.c ****         case 1:
 466:userMenuPatternSewingMachine.c ****             setDisplayDirection(DISPLAY_DIRECTION_LANDSCAPE);
 467:userMenuPatternSewingMachine.c ****             doSelectList(this, TRUE, listText, 2, &indexSelect, &page);
 468:userMenuPatternSewingMachine.c ****             break; 
 469:userMenuPatternSewingMachine.c ****         case MENU_BOTTOM_LEFT:
 470:userMenuPatternSewingMachine.c ****         {
 471:userMenuPatternSewingMachine.c ****             switch(g_ptrMachineParameter->machineType)
 472:userMenuPatternSewingMachine.c ****             {
 473:userMenuPatternSewingMachine.c ****                 case 0: setDisplayDirection(DISPLAY_DIRECTION_PORTRAIT);  break;
 474:userMenuPatternSewingMachine.c ****                 case 1: setDisplayDirection(DISPLAY_DIRECTION_LANDSCAPE); break;
 475:userMenuPatternSewingMachine.c ****             }      
 476:userMenuPatternSewingMachine.c ****             return MENU_RETURN_PARENT;
 477:userMenuPatternSewingMachine.c ****         }
 478:userMenuPatternSewingMachine.c ****         case MENU_BOTTOM_RIGHT:
 479:userMenuPatternSewingMachine.c ****         {
 480:userMenuPatternSewingMachine.c ****             g_ptrMachineParameter->machineType = indexSelect;
 481:userMenuPatternSewingMachine.c ****             switch(g_ptrMachineParameter->machineType)
 482:userMenuPatternSewingMachine.c ****             {
 483:userMenuPatternSewingMachine.c ****                 case 0: setDisplayDirection(DISPLAY_DIRECTION_PORTRAIT);  break;
 484:userMenuPatternSewingMachine.c ****                 case 1: setDisplayDirection(DISPLAY_DIRECTION_LANDSCAPE); break;
 485:userMenuPatternSewingMachine.c ****             }  
 486:userMenuPatternSewingMachine.c ****             
 487:userMenuPatternSewingMachine.c ****             SetCountLoop();
 488:userMenuPatternSewingMachine.c ****             ShowWaitMessage();                                    
 489:userMenuPatternSewingMachine.c ****             SaveExternalFlashConfig();
 490:userMenuPatternSewingMachine.c **** 
 491:userMenuPatternSewingMachine.c ****             return MENU_RETURN_PARENT;
 492:userMenuPatternSewingMachine.c ****         }            
 493:userMenuPatternSewingMachine.c ****     }
 494:userMenuPatternSewingMachine.c ****     return MENU_RETURN_THIS;    
 495:userMenuPatternSewingMachine.c **** }
 496:userMenuPatternSewingMachine.c **** 
 497:userMenuPatternSewingMachine.c **** /////////////////////
 498:userMenuPatternSewingMachine.c **** //// doResetData ////
 499:userMenuPatternSewingMachine.c **** /////////////////////
 500:userMenuPatternSewingMachine.c **** int doResetData(void *this, uint8 reflash)
 501:userMenuPatternSewingMachine.c **** {
 223              		.loc 1 501 0
 224              		.cfi_startproc
 225              		@ args = 0, pretend = 0, frame = 8
 226              		@ frame_needed = 0, uses_anonymous_args = 0
 227              	.LVL15:
 228 0000 10B5     		push	{r4, lr}
 229              		.cfi_def_cfa_offset 8
 230              		.cfi_offset 4, -8
 231              		.cfi_offset 14, -4
 232 0002 82B0     		sub	sp, sp, #8
 233              		.cfi_def_cfa_offset 16
 234              	.LVL16:
 502:userMenuPatternSewingMachine.c ****     MENUNODE *thisMenu = (MENUNODE *) this;
 503:userMenuPatternSewingMachine.c ****  
 504:userMenuPatternSewingMachine.c ****     switch(reflash)
 235              		.loc 1 504 0
 236 0004 0029     		cmp	r1, #0
 237 0006 13D0     		beq	.L21
ARM GAS  C:\Users\luvsd\AppData\Local\Temp\ccM1uNpo.s 			page 14


 238 0008 0129     		cmp	r1, #1
 239 000a 2FD1     		bne	.L28
 505:userMenuPatternSewingMachine.c ****     {
 506:userMenuPatternSewingMachine.c ****         case TRUE: // ĒÖöļ®┤ņØ┤ ļ░öļĆöļĢī ņŗżĒ¢ē
 507:userMenuPatternSewingMachine.c ****             {                
 508:userMenuPatternSewingMachine.c ****                 strcpy(g_YesNoMenu.title,thisMenu->nodeName);
 240              		.loc 1 508 0
 241 000c 0100     		movs	r1, r0
 242              	.LVL17:
 243 000e 1031     		adds	r1, r1, #16
 244 0010 184C     		ldr	r4, .L30
 245 0012 2000     		movs	r0, r4
 246              	.LVL18:
 247 0014 FFF7FEFF 		bl	strcpy
 248              	.LVL19:
 509:userMenuPatternSewingMachine.c ****                 SetDrawYesNoButtons(&g_YesNoMenu, "Do you want ?");
 249              		.loc 1 509 0
 250 0018 1749     		ldr	r1, .L30+4
 251 001a 2000     		movs	r0, r4
 252 001c FFF7FEFF 		bl	SetDrawYesNoButtons
 253              	.LVL20:
 510:userMenuPatternSewingMachine.c ****                 
 511:userMenuPatternSewingMachine.c ****                 SetDrawBottomButtons("QUIT", "YES", BUTTON_STYLE_R_GREEN, BUTTON_STYLE_R_BLUE);  
 254              		.loc 1 511 0
 255 0020 1223     		movs	r3, #18
 256 0022 1122     		movs	r2, #17
 257 0024 1549     		ldr	r1, .L30+8
 258 0026 1648     		ldr	r0, .L30+12
 259 0028 FFF7FEFF 		bl	SetDrawBottomButtons
 260              	.LVL21:
 512:userMenuPatternSewingMachine.c ****             }
 513:userMenuPatternSewingMachine.c ****             break;  
 514:userMenuPatternSewingMachine.c ****         
 515:userMenuPatternSewingMachine.c ****         case FALSE: // Cliking Check
 516:userMenuPatternSewingMachine.c ****             {
 517:userMenuPatternSewingMachine.c ****                 TOUCH tc = GetTouch();
 518:userMenuPatternSewingMachine.c ****                 if(tc.isClick == FALSE) break;
 519:userMenuPatternSewingMachine.c **** 
 520:userMenuPatternSewingMachine.c ****                 switch(getIndexOfClickedButton(&tc,g_btnBottom,2))
 521:userMenuPatternSewingMachine.c ****                 {
 522:userMenuPatternSewingMachine.c ****                     case BOTTOM_LEFT:
 523:userMenuPatternSewingMachine.c ****                     {
 524:userMenuPatternSewingMachine.c ****                         return MENU_RETURN_PARENT;
 525:userMenuPatternSewingMachine.c ****                     }
 526:userMenuPatternSewingMachine.c ****                     case BOTTOM_RIGHT: 
 527:userMenuPatternSewingMachine.c ****                     {
 528:userMenuPatternSewingMachine.c ****                         Buzzer(BUZZER_STOP,0);
 529:userMenuPatternSewingMachine.c ****                         ResetInternalFlash();                        
 530:userMenuPatternSewingMachine.c ****                         return MENU_RETURN_PARENT;                                
 531:userMenuPatternSewingMachine.c ****                     }                            
 532:userMenuPatternSewingMachine.c ****                 }                               
 533:userMenuPatternSewingMachine.c ****             }
 534:userMenuPatternSewingMachine.c ****             break;
 535:userMenuPatternSewingMachine.c ****     }
 536:userMenuPatternSewingMachine.c ****     return MENU_RETURN_THIS;    
 261              		.loc 1 536 0
 262 002c 1548     		ldr	r0, .L30+16
ARM GAS  C:\Users\luvsd\AppData\Local\Temp\ccM1uNpo.s 			page 15


 513:userMenuPatternSewingMachine.c ****         
 263              		.loc 1 513 0
 264 002e 1EE0     		b	.L20
 265              	.LVL22:
 266              	.L21:
 267              	.LBB2:
 517:userMenuPatternSewingMachine.c ****                 if(tc.isClick == FALSE) break;
 268              		.loc 1 517 0
 269 0030 6846     		mov	r0, sp
 270              	.LVL23:
 271 0032 FFF7FEFF 		bl	GetTouch
 272              	.LVL24:
 518:userMenuPatternSewingMachine.c **** 
 273              		.loc 1 518 0
 274 0036 6B46     		mov	r3, sp
 275 0038 1B88     		ldrh	r3, [r3]
 276 003a 002B     		cmp	r3, #0
 277 003c 11D0     		beq	.L23
 520:userMenuPatternSewingMachine.c ****                 {
 278              		.loc 1 520 0
 279 003e 0222     		movs	r2, #2
 280 0040 1149     		ldr	r1, .L30+20
 281 0042 6846     		mov	r0, sp
 282 0044 FFF7FEFF 		bl	getIndexOfClickedButton
 283              	.LVL25:
 284 0048 0028     		cmp	r0, #0
 285 004a 0CD0     		beq	.L25
 286 004c 0128     		cmp	r0, #1
 287 004e 06D1     		bne	.L29
 528:userMenuPatternSewingMachine.c ****                         ResetInternalFlash();                        
 288              		.loc 1 528 0
 289 0050 0021     		movs	r1, #0
 290 0052 0020     		movs	r0, #0
 291 0054 FFF7FEFF 		bl	Buzzer
 292              	.LVL26:
 529:userMenuPatternSewingMachine.c ****                         return MENU_RETURN_PARENT;                                
 293              		.loc 1 529 0
 294 0058 FFF7FEFF 		bl	ResetInternalFlash
 295              	.LVL27:
 530:userMenuPatternSewingMachine.c ****                     }                            
 296              		.loc 1 530 0
 297 005c 03E0     		b	.L25
 298              	.L29:
 299              	.LBE2:
 300              		.loc 1 536 0
 301 005e 0948     		ldr	r0, .L30+16
 534:userMenuPatternSewingMachine.c ****     }
 302              		.loc 1 534 0
 303 0060 05E0     		b	.L20
 304              	.L23:
 305              		.loc 1 536 0
 306 0062 0848     		ldr	r0, .L30+16
 307 0064 03E0     		b	.L20
 308              	.L25:
 309              	.LBB3:
 524:userMenuPatternSewingMachine.c ****                     }
 310              		.loc 1 524 0 discriminator 1
ARM GAS  C:\Users\luvsd\AppData\Local\Temp\ccM1uNpo.s 			page 16


 311 0066 8020     		movs	r0, #128
 312 0068 0006     		lsls	r0, r0, #24
 313 006a 00E0     		b	.L20
 314              	.LVL28:
 315              	.L28:
 316              	.LBE3:
 317              		.loc 1 536 0
 318 006c 0548     		ldr	r0, .L30+16
 319              	.LVL29:
 320              	.L20:
 537:userMenuPatternSewingMachine.c **** }
 321              		.loc 1 537 0
 322 006e 02B0     		add	sp, sp, #8
 323              		@ sp needed
 324 0070 10BD     		pop	{r4, pc}
 325              	.L31:
 326 0072 C046     		.align	2
 327              	.L30:
 328 0074 00000000 		.word	g_YesNoMenu
 329 0078 2C000000 		.word	.LC16
 330 007c 3C000000 		.word	.LC18
 331 0080 40000000 		.word	.LC20
 332 0084 01000080 		.word	-2147483647
 333 0088 00000000 		.word	g_btnBottom
 334              		.cfi_endproc
 335              	.LFE74:
 336              		.size	doResetData, .-doResetData
 337              		.section	.text.doAutoReset,"ax",%progbits
 338              		.align	2
 339              		.global	doAutoReset
 340              		.code	16
 341              		.thumb_func
 342              		.type	doAutoReset, %function
 343              	doAutoReset:
 344              	.LFB79:
 538:userMenuPatternSewingMachine.c **** 
 539:userMenuPatternSewingMachine.c **** uint32 getTarget()
 540:userMenuPatternSewingMachine.c **** {
 541:userMenuPatternSewingMachine.c ****     /* BLACK_CPU: PATTERN_MACHINE Ļ│ĀņĀĢ */
 542:userMenuPatternSewingMachine.c ****     return g_ptrMachineParameter->patternTarget;
 543:userMenuPatternSewingMachine.c **** }
 544:userMenuPatternSewingMachine.c **** 
 545:userMenuPatternSewingMachine.c **** void setTarget(uint32 value)
 546:userMenuPatternSewingMachine.c **** {
 547:userMenuPatternSewingMachine.c ****     /* BLACK_CPU: PATTERN_MACHINE Ļ│ĀņĀĢ */
 548:userMenuPatternSewingMachine.c ****     g_ptrMachineParameter->patternTarget = value;
 549:userMenuPatternSewingMachine.c **** }
 550:userMenuPatternSewingMachine.c **** 
 551:userMenuPatternSewingMachine.c **** uint32 getActual()
 552:userMenuPatternSewingMachine.c **** {
 553:userMenuPatternSewingMachine.c ****     COUNT *ptrCount = getCount();
 554:userMenuPatternSewingMachine.c ****     /* BLACK_CPU: PATTERN_MACHINE Ļ│ĀņĀĢ */
 555:userMenuPatternSewingMachine.c ****     return (uint32) CONVERT_TO_4BYTE(ptrCount->patternActualH, ptrCount->patternActualL)/10;
 556:userMenuPatternSewingMachine.c **** }
 557:userMenuPatternSewingMachine.c **** 
 558:userMenuPatternSewingMachine.c **** void setActual(uint32 value)
 559:userMenuPatternSewingMachine.c **** {
ARM GAS  C:\Users\luvsd\AppData\Local\Temp\ccM1uNpo.s 			page 17


 560:userMenuPatternSewingMachine.c ****     COUNT *ptrCount = getCount();
 561:userMenuPatternSewingMachine.c ****     /* BLACK_CPU: PATTERN_MACHINE Ļ│ĀņĀĢ */
 562:userMenuPatternSewingMachine.c ****     ptrCount->patternActualH = CONVERT_TO_HIGH(value*10);
 563:userMenuPatternSewingMachine.c ****     ptrCount->patternActualL = CONVERT_TO_LOW(value*10);
 564:userMenuPatternSewingMachine.c **** }
 565:userMenuPatternSewingMachine.c **** 
 566:userMenuPatternSewingMachine.c **** int doAutoReset(void *this, uint8 reflash) ////////////////////////////////////////////////////////
 567:userMenuPatternSewingMachine.c **** /////////////////////////////////////////////////////////////////////////////////////////////////
 568:userMenuPatternSewingMachine.c **** {    
 345              		.loc 1 568 0
 346              		.cfi_startproc
 347              		@ args = 0, pretend = 0, frame = 0
 348              		@ frame_needed = 0, uses_anonymous_args = 0
 349              	.LVL30:
 350 0000 10B5     		push	{r4, lr}
 351              		.cfi_def_cfa_offset 8
 352              		.cfi_offset 4, -8
 353              		.cfi_offset 14, -4
 354 0002 82B0     		sub	sp, sp, #8
 355              		.cfi_def_cfa_offset 16
 356 0004 0400     		movs	r4, r0
 357              	.LVL31:
 569:userMenuPatternSewingMachine.c ****     MENUNODE *thisMenu = (MENUNODE *) this;    
 570:userMenuPatternSewingMachine.c **** 
 571:userMenuPatternSewingMachine.c ****     static char *listText[] = {"ON", "OFF"};
 572:userMenuPatternSewingMachine.c ****     static uint16 indexSelect = 0;
 573:userMenuPatternSewingMachine.c ****     static uint16 page = 0;
 574:userMenuPatternSewingMachine.c ****     
 575:userMenuPatternSewingMachine.c ****     if(reflash)
 358              		.loc 1 575 0
 359 0006 0029     		cmp	r1, #0
 360 0008 0BD0     		beq	.L33
 576:userMenuPatternSewingMachine.c ****     {
 577:userMenuPatternSewingMachine.c ****         if(g_ptrMachineParameter->bAutoReset)
 361              		.loc 1 577 0
 362 000a 264B     		ldr	r3, .L44
 363 000c 1B68     		ldr	r3, [r3]
 364 000e 9B7E     		ldrb	r3, [r3, #26]
 365 0010 002B     		cmp	r3, #0
 366 0012 03D0     		beq	.L34
 578:userMenuPatternSewingMachine.c ****             indexSelect = 0;
 367              		.loc 1 578 0
 368 0014 0022     		movs	r2, #0
 369 0016 244B     		ldr	r3, .L44+4
 370 0018 DA81     		strh	r2, [r3, #14]
 371 001a 02E0     		b	.L33
 372              	.L34:
 579:userMenuPatternSewingMachine.c ****         else                       
 580:userMenuPatternSewingMachine.c ****             indexSelect = 1;
 373              		.loc 1 580 0
 374 001c 0122     		movs	r2, #1
 375 001e 224B     		ldr	r3, .L44+4
 376 0020 DA81     		strh	r2, [r3, #14]
 377              	.L33:
 581:userMenuPatternSewingMachine.c ****     }
 582:userMenuPatternSewingMachine.c ****     
 583:userMenuPatternSewingMachine.c ****     switch(doSelectList(this, reflash, listText, 2, &indexSelect, &page))
ARM GAS  C:\Users\luvsd\AppData\Local\Temp\ccM1uNpo.s 			page 18


 378              		.loc 1 583 0
 379 0022 214B     		ldr	r3, .L44+4
 380 0024 1A00     		movs	r2, r3
 381 0026 1032     		adds	r2, r2, #16
 382 0028 0192     		str	r2, [sp, #4]
 383 002a 0E33     		adds	r3, r3, #14
 384 002c 0093     		str	r3, [sp]
 385 002e 0223     		movs	r3, #2
 386 0030 1E4A     		ldr	r2, .L44+8
 387 0032 1832     		adds	r2, r2, #24
 388 0034 2000     		movs	r0, r4
 389              	.LVL32:
 390 0036 FFF7FEFF 		bl	doSelectList
 391              	.LVL33:
 392 003a 1D4B     		ldr	r3, .L44+12
 393 003c 9842     		cmp	r0, r3
 394 003e 19D0     		beq	.L36
 395 0040 03DC     		bgt	.L37
 396 0042 1C4B     		ldr	r3, .L44+16
 397 0044 9842     		cmp	r0, r3
 398 0046 03D0     		beq	.L38
 399 0048 29E0     		b	.L42
 400              	.L37:
 401 004a 0128     		cmp	r0, #1
 402 004c 03D9     		bls	.L43
 403 004e 26E0     		b	.L42
 404              	.L38:
 584:userMenuPatternSewingMachine.c ****     {
 585:userMenuPatternSewingMachine.c ****         case 0:
 586:userMenuPatternSewingMachine.c ****         case 1:
 587:userMenuPatternSewingMachine.c ****             doSelectList(this, TRUE, listText, 2, &indexSelect, &page);
 588:userMenuPatternSewingMachine.c ****             break; 
 589:userMenuPatternSewingMachine.c ****         case MENU_BOTTOM_LEFT: // QUIT
 590:userMenuPatternSewingMachine.c ****         {
 591:userMenuPatternSewingMachine.c ****             return MENU_RETURN_PARENT;
 405              		.loc 1 591 0
 406 0050 8020     		movs	r0, #128
 407 0052 0006     		lsls	r0, r0, #24
 408 0054 24E0     		b	.L35
 409              	.L43:
 587:userMenuPatternSewingMachine.c ****             break; 
 410              		.loc 1 587 0
 411 0056 144B     		ldr	r3, .L44+4
 412 0058 1A00     		movs	r2, r3
 413 005a 1032     		adds	r2, r2, #16
 414 005c 0192     		str	r2, [sp, #4]
 415 005e 0E33     		adds	r3, r3, #14
 416 0060 0093     		str	r3, [sp]
 417 0062 0223     		movs	r3, #2
 418 0064 114A     		ldr	r2, .L44+8
 419 0066 1832     		adds	r2, r2, #24
 420 0068 0121     		movs	r1, #1
 421 006a 2000     		movs	r0, r4
 422 006c FFF7FEFF 		bl	doSelectList
 423              	.LVL34:
 592:userMenuPatternSewingMachine.c ****         }
 593:userMenuPatternSewingMachine.c ****         case MENU_BOTTOM_RIGHT: // SAVE
ARM GAS  C:\Users\luvsd\AppData\Local\Temp\ccM1uNpo.s 			page 19


 594:userMenuPatternSewingMachine.c ****         {
 595:userMenuPatternSewingMachine.c ****             if(indexSelect == 0)
 596:userMenuPatternSewingMachine.c ****                 g_ptrMachineParameter->bAutoReset = TRUE;
 597:userMenuPatternSewingMachine.c ****             else
 598:userMenuPatternSewingMachine.c ****                  g_ptrMachineParameter->bAutoReset = FALSE;
 599:userMenuPatternSewingMachine.c ****             ShowWaitMessage();                                    
 600:userMenuPatternSewingMachine.c ****             SaveExternalFlashConfig();
 601:userMenuPatternSewingMachine.c ****             CySoftwareReset();
 602:userMenuPatternSewingMachine.c ****         }            
 603:userMenuPatternSewingMachine.c ****     }
 604:userMenuPatternSewingMachine.c ****     return MENU_RETURN_THIS;    
 424              		.loc 1 604 0
 425 0070 1148     		ldr	r0, .L44+20
 588:userMenuPatternSewingMachine.c ****         case MENU_BOTTOM_LEFT: // QUIT
 426              		.loc 1 588 0
 427 0072 15E0     		b	.L35
 428              	.L36:
 595:userMenuPatternSewingMachine.c ****                 g_ptrMachineParameter->bAutoReset = TRUE;
 429              		.loc 1 595 0
 430 0074 0C4B     		ldr	r3, .L44+4
 431 0076 DB89     		ldrh	r3, [r3, #14]
 432 0078 002B     		cmp	r3, #0
 433 007a 04D1     		bne	.L40
 596:userMenuPatternSewingMachine.c ****             else
 434              		.loc 1 596 0
 435 007c 094B     		ldr	r3, .L44
 436 007e 1B68     		ldr	r3, [r3]
 437 0080 0122     		movs	r2, #1
 438 0082 9A76     		strb	r2, [r3, #26]
 439 0084 03E0     		b	.L41
 440              	.L40:
 598:userMenuPatternSewingMachine.c ****             ShowWaitMessage();                                    
 441              		.loc 1 598 0
 442 0086 074B     		ldr	r3, .L44
 443 0088 1B68     		ldr	r3, [r3]
 444 008a 0022     		movs	r2, #0
 445 008c 9A76     		strb	r2, [r3, #26]
 446              	.L41:
 599:userMenuPatternSewingMachine.c ****             SaveExternalFlashConfig();
 447              		.loc 1 599 0
 448 008e FFF7FEFF 		bl	ShowWaitMessage
 449              	.LVL35:
 600:userMenuPatternSewingMachine.c ****             CySoftwareReset();
 450              		.loc 1 600 0
 451 0092 FFF7FEFF 		bl	SaveExternalFlashConfig
 452              	.LVL36:
 601:userMenuPatternSewingMachine.c ****         }            
 453              		.loc 1 601 0
 454 0096 FFF7FEFF 		bl	CySoftwareReset
 455              	.LVL37:
 456              		.loc 1 604 0
 457 009a 0748     		ldr	r0, .L44+20
 458 009c 00E0     		b	.L35
 459              	.L42:
 460 009e 0648     		ldr	r0, .L44+20
 461              	.L35:
 605:userMenuPatternSewingMachine.c **** }
ARM GAS  C:\Users\luvsd\AppData\Local\Temp\ccM1uNpo.s 			page 20


 462              		.loc 1 605 0
 463 00a0 02B0     		add	sp, sp, #8
 464              		@ sp needed
 465              	.LVL38:
 466 00a2 10BD     		pop	{r4, pc}
 467              	.L45:
 468              		.align	2
 469              	.L44:
 470 00a4 00000000 		.word	g_ptrMachineParameter
 471 00a8 00000000 		.word	.LANCHOR1
 472 00ac 00000000 		.word	.LANCHOR0
 473 00b0 04000080 		.word	-2147483644
 474 00b4 03000080 		.word	-2147483645
 475 00b8 01000080 		.word	-2147483647
 476              		.cfi_endproc
 477              	.LFE79:
 478              		.size	doAutoReset, .-doAutoReset
 479              		.section	.text.DisplayDoTopMenu,"ax",%progbits
 480              		.align	2
 481              		.global	DisplayDoTopMenu
 482              		.code	16
 483              		.thumb_func
 484              		.type	DisplayDoTopMenu, %function
 485              	DisplayDoTopMenu:
 486              	.LFB64:
 188:userMenuPatternSewingMachine.c ****     /* BLACK_CPU: PATTERN_MACHINE Ļ│ĀņĀĢ */
 487              		.loc 1 188 0
 488              		.cfi_startproc
 489              		@ args = 0, pretend = 0, frame = 0
 490              		@ frame_needed = 0, uses_anonymous_args = 0
 491              	.LVL39:
 492 0000 10B5     		push	{r4, lr}
 493              		.cfi_def_cfa_offset 8
 494              		.cfi_offset 4, -8
 495              		.cfi_offset 14, -4
 190:userMenuPatternSewingMachine.c **** 
 496              		.loc 1 190 0
 497 0002 0849     		ldr	r1, .L49
 498 0004 FFF7FEFF 		bl	SetDrawMonitoringMenu
 499              	.LVL40:
 192:userMenuPatternSewingMachine.c **** }
 500              		.loc 1 192 0
 501 0008 074B     		ldr	r3, .L49+4
 502 000a 1B68     		ldr	r3, [r3]
 503 000c 9B8A     		ldrh	r3, [r3, #20]
 504 000e 012B     		cmp	r3, #1
 505 0010 01D1     		bne	.L48
 506 0012 0649     		ldr	r1, .L49+8
 507 0014 00E0     		b	.L47
 508              	.L48:
 509 0016 0649     		ldr	r1, .L49+12
 510              	.L47:
 192:userMenuPatternSewingMachine.c **** }
 511              		.loc 1 192 0 is_stmt 0 discriminator 4
 512 0018 0E23     		movs	r3, #14
 513 001a 1222     		movs	r2, #18
 514 001c 0548     		ldr	r0, .L49+16
ARM GAS  C:\Users\luvsd\AppData\Local\Temp\ccM1uNpo.s 			page 21


 515 001e FFF7FEFF 		bl	SetDrawBottomButtons
 516              	.LVL41:
 193:userMenuPatternSewingMachine.c **** 
 517              		.loc 1 193 0 is_stmt 1 discriminator 4
 518              		@ sp needed
 519 0022 10BD     		pop	{r4, pc}
 520              	.L50:
 521              		.align	2
 522              	.L49:
 523 0024 58000000 		.word	.LC32
 524 0028 00000000 		.word	g_ptrMachineParameter
 525 002c 48000000 		.word	.LC28
 526 0030 50000000 		.word	.LC30
 527 0034 64000000 		.word	.LC35
 528              		.cfi_endproc
 529              	.LFE64:
 530              		.size	DisplayDoTopMenu, .-DisplayDoTopMenu
 531              		.global	__aeabi_ui2d
 532              		.global	__aeabi_dmul
 533              		.global	__aeabi_i2d
 534              		.global	__aeabi_ddiv
 535              		.global	__aeabi_dsub
 536              		.global	__aeabi_d2uiz
 537              		.section	.text.TopMenuPageUpdateValue,"ax",%progbits
 538              		.align	2
 539              		.global	TopMenuPageUpdateValue
 540              		.code	16
 541              		.thumb_func
 542              		.type	TopMenuPageUpdateValue, %function
 543              	TopMenuPageUpdateValue:
 544              	.LFB65:
 196:userMenuPatternSewingMachine.c ****     BUTTON *btn;
 545              		.loc 1 196 0
 546              		.cfi_startproc
 547              		@ args = 0, pretend = 0, frame = 8
 548              		@ frame_needed = 0, uses_anonymous_args = 0
 549              	.LVL42:
 550 0000 F0B5     		push	{r4, r5, r6, r7, lr}
 551              		.cfi_def_cfa_offset 20
 552              		.cfi_offset 4, -20
 553              		.cfi_offset 5, -16
 554              		.cfi_offset 6, -12
 555              		.cfi_offset 7, -8
 556              		.cfi_offset 14, -4
 557 0002 85B0     		sub	sp, sp, #20
 558              		.cfi_def_cfa_offset 40
 559 0004 0400     		movs	r4, r0
 560 0006 0E00     		movs	r6, r1
 561              	.LVL43:
 201:userMenuPatternSewingMachine.c ****     if((uint32) CONVERT_TO_4BYTE(ptrCount->patternNoStitchSumH,ptrCount->patternNoStitchSumL) > 0 &
 562              		.loc 1 201 0
 563 0008 FFF7FEFF 		bl	getCount
 564              	.LVL44:
 565 000c 0500     		movs	r5, r0
 566              	.LVL45:
 212:userMenuPatternSewingMachine.c ****     {
 567              		.loc 1 212 0
ARM GAS  C:\Users\luvsd\AppData\Local\Temp\ccM1uNpo.s 			page 22


 568 000e 002E     		cmp	r6, #0
 569 0010 02D0     		beq	.L53
 570 0012 012E     		cmp	r6, #1
 571 0014 37D0     		beq	.L54
 572 0016 57E0     		b	.L57
 573              	.L53:
 215:userMenuPatternSewingMachine.c ****             SetButtonText(&menu->btn[4],"%lu",   ((uint32) CONVERT_TO_4BYTE(ptrCount->patternActual
 574              		.loc 1 215 0
 575 0018 444E     		ldr	r6, .L58
 576 001a 3368     		ldr	r3, [r6]
 577 001c 5A88     		ldrh	r2, [r3, #2]
 578 001e 2000     		movs	r0, r4
 579              	.LVL46:
 580 0020 8030     		adds	r0, r0, #128
 581 0022 4349     		ldr	r1, .L58+4
 582 0024 FFF7FEFF 		bl	SetButtonText
 583              	.LVL47:
 216:userMenuPatternSewingMachine.c ****             SetButtonText(&menu->btn[6],"%4.1f",((uint32) CONVERT_TO_4BYTE(ptrCount->patternActualH
 584              		.loc 1 216 0
 585 0028 A88B     		ldrh	r0, [r5, #28]
 586 002a 0004     		lsls	r0, r0, #16
 587 002c EB8B     		ldrh	r3, [r5, #30]
 588 002e 1843     		orrs	r0, r3
 589 0030 0A21     		movs	r1, #10
 590 0032 FFF7FEFF 		bl	__aeabi_uidiv
 591              	.LVL48:
 592 0036 0200     		movs	r2, r0
 593 0038 631C     		adds	r3, r4, #1
 594 003a FF33     		adds	r3, r3, #255
 595 003c 3D49     		ldr	r1, .L58+8
 596 003e 1800     		movs	r0, r3
 597 0040 FFF7FEFF 		bl	SetButtonText
 598              	.LVL49:
 217:userMenuPatternSewingMachine.c ****             if(strcmp("100.0",menu->btn[6].text)==0) rate100 = TRUE;
 599              		.loc 1 217 0
 600 0044 A88B     		ldrh	r0, [r5, #28]
 601 0046 0004     		lsls	r0, r0, #16
 602 0048 EB8B     		ldrh	r3, [r5, #30]
 603 004a 1843     		orrs	r0, r3
 604 004c FFF7FEFF 		bl	__aeabi_ui2d
 605              	.LVL50:
 606 0050 0022     		movs	r2, #0
 607 0052 394B     		ldr	r3, .L58+12
 608 0054 FFF7FEFF 		bl	__aeabi_dmul
 609              	.LVL51:
 610 0058 0290     		str	r0, [sp, #8]
 611 005a 0391     		str	r1, [sp, #12]
 612 005c 3368     		ldr	r3, [r6]
 613 005e 5888     		ldrh	r0, [r3, #2]
 614 0060 FFF7FEFF 		bl	__aeabi_i2d
 615              	.LVL52:
 616 0064 0200     		movs	r2, r0
 617 0066 0B00     		movs	r3, r1
 618 0068 0298     		ldr	r0, [sp, #8]
 619 006a 0399     		ldr	r1, [sp, #12]
 620 006c FFF7FEFF 		bl	__aeabi_ddiv
 621              	.LVL53:
ARM GAS  C:\Users\luvsd\AppData\Local\Temp\ccM1uNpo.s 			page 23


 622 0070 0200     		movs	r2, r0
 623 0072 0B00     		movs	r3, r1
 624 0074 2500     		movs	r5, r4
 625              	.LVL54:
 626 0076 8135     		adds	r5, r5, #129
 627 0078 FF35     		adds	r5, r5, #255
 628 007a 3049     		ldr	r1, .L58+16
 629 007c 2800     		movs	r0, r5
 630 007e FFF7FEFF 		bl	SetButtonText
 631              	.LVL55:
 219:userMenuPatternSewingMachine.c ****             break;
 632              		.loc 1 219 0
 633 0082 0125     		movs	r5, #1
 634 0084 21E0     		b	.L52
 635              	.LVL56:
 636              	.L54:
 224:userMenuPatternSewingMachine.c ****                                          ptrCount->patternCycleTimeSumL));
 637              		.loc 1 224 0
 638 0086 828D     		ldrh	r2, [r0, #44]
 639 0088 1204     		lsls	r2, r2, #16
 640 008a C38D     		ldrh	r3, [r0, #46]
 223:userMenuPatternSewingMachine.c ****                 (uint32)CONVERT_TO_4BYTE(ptrCount->patternCycleTimeSumH,
 641              		.loc 1 223 0
 642 008c 1A43     		orrs	r2, r3
 643 008e 294E     		ldr	r6, .L58+8
 644 0090 2000     		movs	r0, r4
 645              	.LVL57:
 646 0092 8030     		adds	r0, r0, #128
 647 0094 3100     		movs	r1, r6
 648 0096 FFF7FEFF 		bl	SetButtonText
 649              	.LVL58:
 228:userMenuPatternSewingMachine.c ****                                          ptrCount->patternMotorRunTimeSumL));
 650              		.loc 1 228 0
 651 009a 6A8E     		ldrh	r2, [r5, #50]
 652 009c 1204     		lsls	r2, r2, #16
 653 009e AB8E     		ldrh	r3, [r5, #52]
 227:userMenuPatternSewingMachine.c ****                 (uint32)CONVERT_TO_4BYTE(ptrCount->patternMotorRunTimeSumH,
 654              		.loc 1 227 0
 655 00a0 1A43     		orrs	r2, r3
 656 00a2 601C     		adds	r0, r4, #1
 657 00a4 FF30     		adds	r0, r0, #255
 658 00a6 3100     		movs	r1, r6
 659 00a8 FFF7FEFF 		bl	SetButtonText
 660              	.LVL59:
 232:userMenuPatternSewingMachine.c ****                                          ptrCount->embThreadBreakageQtySumL));
 661              		.loc 1 232 0
 662 00ac 4C23     		movs	r3, #76
 663 00ae EA5A     		ldrh	r2, [r5, r3]
 664 00b0 1204     		lsls	r2, r2, #16
 665 00b2 0233     		adds	r3, r3, #2
 666 00b4 EB5A     		ldrh	r3, [r5, r3]
 231:userMenuPatternSewingMachine.c ****                 (uint32)CONVERT_TO_4BYTE(ptrCount->embThreadBreakageQtySumH,
 667              		.loc 1 231 0
 668 00b6 1A43     		orrs	r2, r3
 669 00b8 2000     		movs	r0, r4
 670 00ba 8130     		adds	r0, r0, #129
 671 00bc FF30     		adds	r0, r0, #255
ARM GAS  C:\Users\luvsd\AppData\Local\Temp\ccM1uNpo.s 			page 24


 672 00be 3100     		movs	r1, r6
 673 00c0 FFF7FEFF 		bl	SetButtonText
 674              	.LVL60:
 198:userMenuPatternSewingMachine.c ****     uint8 rate100 = FALSE;
 675              		.loc 1 198 0
 676 00c4 0025     		movs	r5, #0
 677              	.LVL61:
 234:userMenuPatternSewingMachine.c ****     }
 678              		.loc 1 234 0
 679 00c6 00E0     		b	.L52
 680              	.LVL62:
 681              	.L57:
 198:userMenuPatternSewingMachine.c ****     uint8 rate100 = FALSE;
 682              		.loc 1 198 0
 683 00c8 0025     		movs	r5, #0
 684              	.LVL63:
 685              	.L52:
 237:userMenuPatternSewingMachine.c ****     DrawButton(&menu->btn[4]);
 686              		.loc 1 237 0
 687 00ca 2000     		movs	r0, r4
 688 00cc 8030     		adds	r0, r0, #128
 689 00ce FFF7FEFF 		bl	DrawButton
 690              	.LVL64:
 238:userMenuPatternSewingMachine.c ****     DrawButton(&menu->btn[6]);
 691              		.loc 1 238 0
 692 00d2 601C     		adds	r0, r4, #1
 693 00d4 FF30     		adds	r0, r0, #255
 694 00d6 FFF7FEFF 		bl	DrawButton
 695              	.LVL65:
 239:userMenuPatternSewingMachine.c ****     
 696              		.loc 1 239 0
 697 00da 2000     		movs	r0, r4
 698 00dc 8130     		adds	r0, r0, #129
 699 00de FF30     		adds	r0, r0, #255
 700 00e0 FFF7FEFF 		bl	DrawButton
 701              	.LVL66:
 243:userMenuPatternSewingMachine.c ****     {
 702              		.loc 1 243 0
 703 00e4 002D     		cmp	r5, #0
 704 00e6 1ED0     		beq	.L51
 705              	.LVL67:
 706              	.LBB4:
 246:userMenuPatternSewingMachine.c ****     }
 707              		.loc 1 246 0
 708 00e8 8134     		adds	r4, r4, #129
 709              	.LVL68:
 710 00ea FF34     		adds	r4, r4, #255
 711              	.LVL69:
 712 00ec E588     		ldrh	r5, [r4, #6]
 713              	.LVL70:
 714 00ee 2089     		ldrh	r0, [r4, #8]
 715 00f0 6389     		ldrh	r3, [r4, #10]
 716 00f2 C018     		adds	r0, r0, r3
 717 00f4 FFF7FEFF 		bl	__aeabi_i2d
 718              	.LVL71:
 719 00f8 0022     		movs	r2, #0
 720 00fa 114B     		ldr	r3, .L58+20
ARM GAS  C:\Users\luvsd\AppData\Local\Temp\ccM1uNpo.s 			page 25


 721 00fc FFF7FEFF 		bl	__aeabi_dmul
 722              	.LVL72:
 723 0100 0022     		movs	r2, #0
 724 0102 0D4B     		ldr	r3, .L58+12
 725 0104 FFF7FEFF 		bl	__aeabi_dsub
 726              	.LVL73:
 727 0108 678E     		ldrh	r7, [r4, #50]
 728 010a 268E     		ldrh	r6, [r4, #48]
 729 010c FFF7FEFF 		bl	__aeabi_d2uiz
 730              	.LVL74:
 731 0110 81B2     		uxth	r1, r0
 732 0112 103D     		subs	r5, r5, #16
 733 0114 A8B2     		uxth	r0, r5
 734 0116 2523     		movs	r3, #37
 735 0118 0193     		str	r3, [sp, #4]
 736 011a E36A     		ldr	r3, [r4, #44]
 737 011c 0093     		str	r3, [sp]
 738 011e 3B00     		movs	r3, r7
 739 0120 3200     		movs	r2, r6
 740 0122 FFF7FEFF 		bl	LCD_DrawFont
 741              	.LVL75:
 742              	.L51:
 743              	.LBE4:
 248:userMenuPatternSewingMachine.c **** 
 744              		.loc 1 248 0
 745 0126 05B0     		add	sp, sp, #20
 746              		@ sp needed
 747 0128 F0BD     		pop	{r4, r5, r6, r7, pc}
 748              	.L59:
 749 012a C046     		.align	2
 750              	.L58:
 751 012c 00000000 		.word	g_ptrMachineParameter
 752 0130 6C000000 		.word	.LC38
 753 0134 70000000 		.word	.LC40
 754 0138 00002440 		.word	1076101120
 755 013c 74000000 		.word	.LC42
 756 0140 0000E03F 		.word	1071644672
 757              		.cfi_endproc
 758              	.LFE65:
 759              		.size	TopMenuPageUpdateValue, .-TopMenuPageUpdateValue
 760              		.section	.text.TopMenuPageUpdate,"ax",%progbits
 761              		.align	2
 762              		.global	TopMenuPageUpdate
 763              		.code	16
 764              		.thumb_func
 765              		.type	TopMenuPageUpdate, %function
 766              	TopMenuPageUpdate:
 767              	.LFB63:
 137:userMenuPatternSewingMachine.c ****     switch(g_ptrMachineParameter->machineType)
 768              		.loc 1 137 0
 769              		.cfi_startproc
 770              		@ args = 0, pretend = 0, frame = 0
 771              		@ frame_needed = 0, uses_anonymous_args = 0
 772              	.LVL76:
 773 0000 70B5     		push	{r4, r5, r6, lr}
 774              		.cfi_def_cfa_offset 16
 775              		.cfi_offset 4, -16
ARM GAS  C:\Users\luvsd\AppData\Local\Temp\ccM1uNpo.s 			page 26


 776              		.cfi_offset 5, -12
 777              		.cfi_offset 6, -8
 778              		.cfi_offset 14, -4
 779 0002 0400     		movs	r4, r0
 780 0004 0D00     		movs	r5, r1
 138:userMenuPatternSewingMachine.c ****     {
 781              		.loc 1 138 0
 782 0006 1E4B     		ldr	r3, .L65
 783 0008 1B68     		ldr	r3, [r3]
 784 000a 1B78     		ldrb	r3, [r3]
 785 000c 002B     		cmp	r3, #0
 786 000e 25D1     		bne	.L61
 142:userMenuPatternSewingMachine.c ****             {
 787              		.loc 1 142 0
 788 0010 0029     		cmp	r1, #0
 789 0012 02D0     		beq	.L63
 790 0014 0129     		cmp	r1, #1
 791 0016 11D0     		beq	.L64
 792 0018 20E0     		b	.L61
 793              	.L63:
 145:userMenuPatternSewingMachine.c ****                     SetButtonText(&menu->btn[3],g_patternString[1]);
 794              		.loc 1 145 0
 795 001a 1A4E     		ldr	r6, .L65+4
 796 001c 4030     		adds	r0, r0, #64
 797              	.LVL77:
 798 001e 316A     		ldr	r1, [r6, #32]
 799              	.LVL78:
 800 0020 FFF7FEFF 		bl	SetButtonText
 801              	.LVL79:
 146:userMenuPatternSewingMachine.c ****                     SetButtonText(&menu->btn[5],g_patternString[2]);
 802              		.loc 1 146 0
 803 0024 2000     		movs	r0, r4
 804 0026 C030     		adds	r0, r0, #192
 805 0028 716A     		ldr	r1, [r6, #36]
 806 002a FFF7FEFF 		bl	SetButtonText
 807              	.LVL80:
 147:userMenuPatternSewingMachine.c ****                     break;
 808              		.loc 1 147 0
 809 002e B16A     		ldr	r1, [r6, #40]
 810 0030 2000     		movs	r0, r4
 811 0032 4130     		adds	r0, r0, #65
 812 0034 FF30     		adds	r0, r0, #255
 813 0036 FFF7FEFF 		bl	SetButtonText
 814              	.LVL81:
 148:userMenuPatternSewingMachine.c ****                 case 1:
 815              		.loc 1 148 0
 816 003a 0FE0     		b	.L61
 817              	.LVL82:
 818              	.L64:
 150:userMenuPatternSewingMachine.c ****                     SetButtonText(&menu->btn[3],g_patternString[4]);  /* "MRT" */
 819              		.loc 1 150 0
 820 003c 114E     		ldr	r6, .L65+4
 821 003e 4030     		adds	r0, r0, #64
 822              	.LVL83:
 823 0040 F16A     		ldr	r1, [r6, #44]
 824              	.LVL84:
 825 0042 FFF7FEFF 		bl	SetButtonText
ARM GAS  C:\Users\luvsd\AppData\Local\Temp\ccM1uNpo.s 			page 27


 826              	.LVL85:
 151:userMenuPatternSewingMachine.c ****                     SetButtonText(&menu->btn[5],g_patternString[5]);  /* "TB"  */
 827              		.loc 1 151 0
 828 0046 2000     		movs	r0, r4
 829 0048 C030     		adds	r0, r0, #192
 830 004a 316B     		ldr	r1, [r6, #48]
 831 004c FFF7FEFF 		bl	SetButtonText
 832              	.LVL86:
 152:userMenuPatternSewingMachine.c ****                     break;
 833              		.loc 1 152 0
 834 0050 716B     		ldr	r1, [r6, #52]
 835 0052 2000     		movs	r0, r4
 836 0054 4130     		adds	r0, r0, #65
 837 0056 FF30     		adds	r0, r0, #255
 838 0058 FFF7FEFF 		bl	SetButtonText
 839              	.LVL87:
 840              	.L61:
 179:userMenuPatternSewingMachine.c ****     DrawButton(&menu->btn[3]);
 841              		.loc 1 179 0
 842 005c 2000     		movs	r0, r4
 843 005e 4030     		adds	r0, r0, #64
 844 0060 FFF7FEFF 		bl	DrawButton
 845              	.LVL88:
 180:userMenuPatternSewingMachine.c ****     DrawButton(&menu->btn[5]); 
 846              		.loc 1 180 0
 847 0064 2000     		movs	r0, r4
 848 0066 C030     		adds	r0, r0, #192
 849 0068 FFF7FEFF 		bl	DrawButton
 850              	.LVL89:
 181:userMenuPatternSewingMachine.c **** 
 851              		.loc 1 181 0
 852 006c 2000     		movs	r0, r4
 853 006e 4130     		adds	r0, r0, #65
 854 0070 FF30     		adds	r0, r0, #255
 855 0072 FFF7FEFF 		bl	DrawButton
 856              	.LVL90:
 183:userMenuPatternSewingMachine.c ****     
 857              		.loc 1 183 0
 858 0076 2900     		movs	r1, r5
 859 0078 2000     		movs	r0, r4
 860 007a FFF7FEFF 		bl	TopMenuPageUpdateValue
 861              	.LVL91:
 185:userMenuPatternSewingMachine.c **** 
 862              		.loc 1 185 0
 863              		@ sp needed
 864              	.LVL92:
 865 007e 70BD     		pop	{r4, r5, r6, pc}
 866              	.L66:
 867              		.align	2
 868              	.L65:
 869 0080 00000000 		.word	g_ptrMachineParameter
 870 0084 00000000 		.word	.LANCHOR0
 871              		.cfi_endproc
 872              	.LFE63:
 873              		.size	TopMenuPageUpdate, .-TopMenuPageUpdate
 874              		.section	.text.doTopMenu,"ax",%progbits
 875              		.align	2
ARM GAS  C:\Users\luvsd\AppData\Local\Temp\ccM1uNpo.s 			page 28


 876              		.global	doTopMenu
 877              		.code	16
 878              		.thumb_func
 879              		.type	doTopMenu, %function
 880              	doTopMenu:
 881              	.LFB62:
  39:userMenuPatternSewingMachine.c ****     MENUNODE *thisMenu = (MENUNODE *) this;    
 882              		.loc 1 39 0
 883              		.cfi_startproc
 884              		@ args = 0, pretend = 0, frame = 8
 885              		@ frame_needed = 0, uses_anonymous_args = 0
 886              	.LVL93:
 887 0000 00B5     		push	{lr}
 888              		.cfi_def_cfa_offset 4
 889              		.cfi_offset 14, -4
 890 0002 83B0     		sub	sp, sp, #12
 891              		.cfi_def_cfa_offset 16
 892              	.LVL94:
  46:userMenuPatternSewingMachine.c ****     {
 893              		.loc 1 46 0
 894 0004 0029     		cmp	r1, #0
 895 0006 15D0     		beq	.L69
 896 0008 0129     		cmp	r1, #1
 897 000a 5FD1     		bne	.L93
  50:userMenuPatternSewingMachine.c ****                 {
 898              		.loc 1 50 0
 899 000c 3E4B     		ldr	r3, .L94
 900 000e 1B68     		ldr	r3, [r3]
 901 0010 1B78     		ldrb	r3, [r3]
 902 0012 002B     		cmp	r3, #0
 903 0014 02D1     		bne	.L71
  52:userMenuPatternSewingMachine.c ****                     // case SEWING_MACHINE :  page = sewingPage;  break;
 904              		.loc 1 52 0
 905 0016 0022     		movs	r2, #0
 906 0018 3C4B     		ldr	r3, .L94+4
 907 001a 9A74     		strb	r2, [r3, #18]
 908              	.L71:
  56:userMenuPatternSewingMachine.c ****                 g_updateCountMenu = TRUE;                
 909              		.loc 1 56 0
 910 001c FF21     		movs	r1, #255
 911              	.LVL95:
 912 001e 3823     		movs	r3, #56
 913 0020 3B4A     		ldr	r2, .L94+8
 914 0022 D154     		strb	r1, [r2, r3]
  57:userMenuPatternSewingMachine.c ****                 DisplayDoTopMenu(&menu);                
 915              		.loc 1 57 0
 916 0024 0122     		movs	r2, #1
 917 0026 3B4B     		ldr	r3, .L94+12
 918 0028 1A70     		strb	r2, [r3]
  58:userMenuPatternSewingMachine.c ****             }
 919              		.loc 1 58 0
 920 002a 3848     		ldr	r0, .L94+4
 921              	.LVL96:
 922 002c 1430     		adds	r0, r0, #20
 923 002e FFF7FEFF 		bl	DisplayDoTopMenu
 924              	.LVL97:
  60:userMenuPatternSewingMachine.c ****         
ARM GAS  C:\Users\luvsd\AppData\Local\Temp\ccM1uNpo.s 			page 29


 925              		.loc 1 60 0
 926 0032 4EE0     		b	.L73
 927              	.LVL98:
 928              	.L69:
 929              	.LBB5:
  64:userMenuPatternSewingMachine.c ****                 if(tc.isClick == FALSE) break;
 930              		.loc 1 64 0
 931 0034 6846     		mov	r0, sp
 932              	.LVL99:
 933 0036 FFF7FEFF 		bl	GetTouch
 934              	.LVL100:
  65:userMenuPatternSewingMachine.c ****                 
 935              		.loc 1 65 0
 936 003a 6B46     		mov	r3, sp
 937 003c 1B88     		ldrh	r3, [r3]
 938 003e 002B     		cmp	r3, #0
 939 0040 47D0     		beq	.L73
  67:userMenuPatternSewingMachine.c ****                 {
 940              		.loc 1 67 0
 941 0042 0722     		movs	r2, #7
 942 0044 3149     		ldr	r1, .L94+4
 943 0046 1431     		adds	r1, r1, #20
 944 0048 6846     		mov	r0, sp
 945 004a FFF7FEFF 		bl	getIndexOfClickedButton
 946              	.LVL101:
 947 004e 0628     		cmp	r0, #6
 948 0050 28D8     		bhi	.L75
 949 0052 8000     		lsls	r0, r0, #2
 950 0054 304B     		ldr	r3, .L94+16
 951 0056 1B58     		ldr	r3, [r3, r0]
 952 0058 9F46     		mov	pc, r3
 953              		.section	.rodata
 954              		.align	2
 955              	.L77:
 956 0000 BC000000 		.word	.L89
 957 0004 5A000000 		.word	.L78
 958 0008 5A000000 		.word	.L78
 959 000c 76000000 		.word	.L79
 960 0010 76000000 		.word	.L79
 961 0014 8A000000 		.word	.L80
 962 0018 8A000000 		.word	.L80
 963              		.section	.text.doTopMenu
 964              	.L78:
  73:userMenuPatternSewingMachine.c ****                         {
 965              		.loc 1 73 0
 966 005a 2B4B     		ldr	r3, .L94
 967 005c 1B68     		ldr	r3, [r3]
 968 005e 1B78     		ldrb	r3, [r3]
 969 0060 002B     		cmp	r3, #0
 970 0062 36D1     		bne	.L73
  76:userMenuPatternSewingMachine.c ****                                 else if(page > 0 ) page--;
 971              		.loc 1 76 0
 972 0064 294B     		ldr	r3, .L94+4
 973 0066 9B7C     		ldrb	r3, [r3, #18]
 974 0068 002B     		cmp	r3, #0
 975 006a 29D0     		beq	.L90
  77:userMenuPatternSewingMachine.c ****                                 break;
ARM GAS  C:\Users\luvsd\AppData\Local\Temp\ccM1uNpo.s 			page 30


 976              		.loc 1 77 0
 977 006c 31D0     		beq	.L73
  77:userMenuPatternSewingMachine.c ****                                 break;
 978              		.loc 1 77 0 is_stmt 0 discriminator 1
 979 006e 013B     		subs	r3, r3, #1
 980 0070 264A     		ldr	r2, .L94+4
 981 0072 9374     		strb	r3, [r2, #18]
 982 0074 2DE0     		b	.L73
 983              	.L79:
  88:userMenuPatternSewingMachine.c ****                         {
 984              		.loc 1 88 0 is_stmt 1
 985 0076 244B     		ldr	r3, .L94
 986 0078 1B68     		ldr	r3, [r3]
 987 007a 1B78     		ldrb	r3, [r3]
 988 007c 002B     		cmp	r3, #0
 989 007e 28D1     		bne	.L73
  91:userMenuPatternSewingMachine.c ****                                 //else if(page > 0 ) page--;
 990              		.loc 1 91 0
 991 0080 224B     		ldr	r3, .L94+4
 992 0082 9B7C     		ldrb	r3, [r3, #18]
 993 0084 002B     		cmp	r3, #0
 994 0086 1DD0     		beq	.L91
 995 0088 23E0     		b	.L73
 996              	.L80:
 103:userMenuPatternSewingMachine.c ****                         {
 997              		.loc 1 103 0
 998 008a 1F4B     		ldr	r3, .L94
 999 008c 1B68     		ldr	r3, [r3]
 1000 008e 1B78     		ldrb	r3, [r3]
 1001 0090 002B     		cmp	r3, #0
 1002 0092 1ED1     		bne	.L73
 106:userMenuPatternSewingMachine.c ****                                 break;
 1003              		.loc 1 106 0
 1004 0094 1D4B     		ldr	r3, .L94+4
 1005 0096 9B7C     		ldrb	r3, [r3, #18]
 1006 0098 002B     		cmp	r3, #0
 1007 009a 1AD1     		bne	.L73
 106:userMenuPatternSewingMachine.c ****                                 break;
 1008              		.loc 1 106 0 is_stmt 0 discriminator 1
 1009 009c 0133     		adds	r3, r3, #1
 1010 009e 1B4A     		ldr	r2, .L94+4
 1011 00a0 9374     		strb	r3, [r2, #18]
 1012 00a2 16E0     		b	.L73
 1013              	.L75:
 114:userMenuPatternSewingMachine.c ****                         {
 1014              		.loc 1 114 0 is_stmt 1
 1015 00a4 0222     		movs	r2, #2
 1016 00a6 1D49     		ldr	r1, .L94+20
 1017 00a8 6846     		mov	r0, sp
 1018 00aa FFF7FEFF 		bl	getIndexOfClickedButton
 1019              	.LVL102:
 1020 00ae 0028     		cmp	r0, #0
 1021 00b0 02D0     		beq	.L85
 1022 00b2 0128     		cmp	r0, #1
 1023 00b4 08D0     		beq	.L92
 1024 00b6 0CE0     		b	.L73
 1025              	.L85:
ARM GAS  C:\Users\luvsd\AppData\Local\Temp\ccM1uNpo.s 			page 31


 116:userMenuPatternSewingMachine.c ****                             case BOTTOM_RIGHT: return 1;                            
 1026              		.loc 1 116 0
 1027 00b8 0020     		movs	r0, #0
 1028 00ba 22E0     		b	.L86
 1029              	.L89:
  69:userMenuPatternSewingMachine.c ****                     
 1030              		.loc 1 69 0
 1031 00bc 0220     		movs	r0, #2
 1032 00be 20E0     		b	.L86
 1033              	.L90:
  76:userMenuPatternSewingMachine.c ****                                 else if(page > 0 ) page--;
 1034              		.loc 1 76 0
 1035 00c0 0320     		movs	r0, #3
 1036 00c2 1EE0     		b	.L86
 1037              	.L91:
  91:userMenuPatternSewingMachine.c ****                                 //else if(page > 0 ) page--;
 1038              		.loc 1 91 0
 1039 00c4 0420     		movs	r0, #4
 1040 00c6 1CE0     		b	.L86
 1041              	.L92:
 117:userMenuPatternSewingMachine.c ****                         }
 1042              		.loc 1 117 0
 1043 00c8 0120     		movs	r0, #1
 1044 00ca 1AE0     		b	.L86
 1045              	.LVL103:
 1046              	.L93:
 1047              	.LBE5:
 125:userMenuPatternSewingMachine.c ****             break;
 1048              		.loc 1 125 0
 1049 00cc 0122     		movs	r2, #1
 1050 00ce 114B     		ldr	r3, .L94+12
 1051 00d0 1A70     		strb	r2, [r3]
 1052              	.LVL104:
 1053              	.L73:
 129:userMenuPatternSewingMachine.c ****     
 1054              		.loc 1 129 0
 1055 00d2 3823     		movs	r3, #56
 1056 00d4 0E4A     		ldr	r2, .L94+8
 1057 00d6 D35C     		ldrb	r3, [r2, r3]
 1058 00d8 0C4A     		ldr	r2, .L94+4
 1059 00da 917C     		ldrb	r1, [r2, #18]
 1060 00dc 8B42     		cmp	r3, r1
 1061 00de 03D1     		bne	.L87
 129:userMenuPatternSewingMachine.c ****     
 1062              		.loc 1 129 0 is_stmt 0 discriminator 2
 1063 00e0 0C4B     		ldr	r3, .L94+12
 1064 00e2 1B78     		ldrb	r3, [r3]
 1065 00e4 012B     		cmp	r3, #1
 1066 00e6 03D1     		bne	.L88
 1067              	.L87:
 129:userMenuPatternSewingMachine.c ****     
 1068              		.loc 1 129 0 discriminator 3
 1069 00e8 0848     		ldr	r0, .L94+4
 1070 00ea 1430     		adds	r0, r0, #20
 1071 00ec FFF7FEFF 		bl	TopMenuPageUpdate
 1072              	.LVL105:
 1073              	.L88:
ARM GAS  C:\Users\luvsd\AppData\Local\Temp\ccM1uNpo.s 			page 32


 131:userMenuPatternSewingMachine.c ****     g_updateCountMenu = FALSE;
 1074              		.loc 1 131 0 is_stmt 1
 1075 00f0 064B     		ldr	r3, .L94+4
 1076 00f2 997C     		ldrb	r1, [r3, #18]
 1077 00f4 3823     		movs	r3, #56
 1078 00f6 064A     		ldr	r2, .L94+8
 1079 00f8 D154     		strb	r1, [r2, r3]
 132:userMenuPatternSewingMachine.c ****     return MENU_RETURN_THIS;    
 1080              		.loc 1 132 0
 1081 00fa 0022     		movs	r2, #0
 1082 00fc 054B     		ldr	r3, .L94+12
 1083 00fe 1A70     		strb	r2, [r3]
 133:userMenuPatternSewingMachine.c **** }
 1084              		.loc 1 133 0
 1085 0100 0748     		ldr	r0, .L94+24
 1086              	.L86:
 134:userMenuPatternSewingMachine.c **** 
 1087              		.loc 1 134 0
 1088 0102 03B0     		add	sp, sp, #12
 1089              		@ sp needed
 1090 0104 00BD     		pop	{pc}
 1091              	.L95:
 1092 0106 C046     		.align	2
 1093              	.L94:
 1094 0108 00000000 		.word	g_ptrMachineParameter
 1095 010c 00000000 		.word	.LANCHOR1
 1096 0110 00000000 		.word	.LANCHOR0
 1097 0114 00000000 		.word	g_updateCountMenu
 1098 0118 00000000 		.word	.L77
 1099 011c 00000000 		.word	g_btnBottom
 1100 0120 01000080 		.word	-2147483647
 1101              		.cfi_endproc
 1102              	.LFE62:
 1103              		.size	doTopMenu, .-doTopMenu
 1104              		.section	.text.DisplayDoPairsInfoMenu,"ax",%progbits
 1105              		.align	2
 1106              		.global	DisplayDoPairsInfoMenu
 1107              		.code	16
 1108              		.thumb_func
 1109              		.type	DisplayDoPairsInfoMenu, %function
 1110              	DisplayDoPairsInfoMenu:
 1111              	.LFB67:
 344:userMenuPatternSewingMachine.c ****     /* BLACK_CPU: PATTERN_MACHINE Ļ│ĀņĀĢ */
 1112              		.loc 1 344 0
 1113              		.cfi_startproc
 1114              		@ args = 0, pretend = 0, frame = 0
 1115              		@ frame_needed = 0, uses_anonymous_args = 0
 1116              	.LVL106:
 1117 0000 10B5     		push	{r4, lr}
 1118              		.cfi_def_cfa_offset 8
 1119              		.cfi_offset 4, -8
 1120              		.cfi_offset 14, -4
 1121 0002 0400     		movs	r4, r0
 346:userMenuPatternSewingMachine.c **** 
 1122              		.loc 1 346 0
 1123 0004 074B     		ldr	r3, .L97
 1124 0006 084A     		ldr	r2, .L97+4
ARM GAS  C:\Users\luvsd\AppData\Local\Temp\ccM1uNpo.s 			page 33


 1125 0008 0849     		ldr	r1, .L97+8
 1126 000a FFF7FEFF 		bl	SetDrawUpDownTwoMenu
 1127              	.LVL107:
 348:userMenuPatternSewingMachine.c **** 
 1128              		.loc 1 348 0
 1129 000e 0122     		movs	r2, #1
 1130 0010 3B23     		movs	r3, #59
 1131 0012 E254     		strb	r2, [r4, r3]
 350:userMenuPatternSewingMachine.c **** }
 1132              		.loc 1 350 0
 1133 0014 293B     		subs	r3, r3, #41
 1134 0016 1032     		adds	r2, r2, #16
 1135 0018 0549     		ldr	r1, .L97+12
 1136 001a 0648     		ldr	r0, .L97+16
 1137 001c FFF7FEFF 		bl	SetDrawBottomButtons
 1138              	.LVL108:
 351:userMenuPatternSewingMachine.c **** 
 1139              		.loc 1 351 0
 1140              		@ sp needed
 1141              	.LVL109:
 1142 0020 10BD     		pop	{r4, pc}
 1143              	.L98:
 1144 0022 C046     		.align	2
 1145              	.L97:
 1146 0024 7C000000 		.word	.LC52
 1147 0028 88000000 		.word	.LC54
 1148 002c 90000000 		.word	.LC56
 1149 0030 98000000 		.word	.LC58
 1150 0034 40000000 		.word	.LC20
 1151              		.cfi_endproc
 1152              	.LFE67:
 1153              		.size	DisplayDoPairsInfoMenu, .-DisplayDoPairsInfoMenu
 1154              		.section	.text.DisplayDoPairsInfoMenuLeftValueChange,"ax",%progbits
 1155              		.align	2
 1156              		.global	DisplayDoPairsInfoMenuLeftValueChange
 1157              		.code	16
 1158              		.thumb_func
 1159              		.type	DisplayDoPairsInfoMenuLeftValueChange, %function
 1160              	DisplayDoPairsInfoMenuLeftValueChange:
 1161              	.LFB69:
 367:userMenuPatternSewingMachine.c ****     SetButtonText(&menu->btn[UPDOWNTWO_FIRST_VALUE],"%d",value);    // left value   
 1162              		.loc 1 367 0
 1163              		.cfi_startproc
 1164              		@ args = 0, pretend = 0, frame = 0
 1165              		@ frame_needed = 0, uses_anonymous_args = 0
 1166              	.LVL110:
 1167 0000 10B5     		push	{r4, lr}
 1168              		.cfi_def_cfa_offset 8
 1169              		.cfi_offset 4, -8
 1170              		.cfi_offset 14, -4
 1171 0002 0A00     		movs	r2, r1
 368:userMenuPatternSewingMachine.c ****     DrawButton(&menu->btn[UPDOWNTWO_FIRST_VALUE]);
 1172              		.loc 1 368 0
 1173 0004 C030     		adds	r0, r0, #192
 1174              	.LVL111:
 1175 0006 0400     		movs	r4, r0
 1176 0008 0349     		ldr	r1, .L100
ARM GAS  C:\Users\luvsd\AppData\Local\Temp\ccM1uNpo.s 			page 34


 1177              	.LVL112:
 1178 000a FFF7FEFF 		bl	SetButtonText
 1179              	.LVL113:
 369:userMenuPatternSewingMachine.c **** }
 1180              		.loc 1 369 0
 1181 000e 2000     		movs	r0, r4
 1182 0010 FFF7FEFF 		bl	DrawButton
 1183              	.LVL114:
 370:userMenuPatternSewingMachine.c **** void DisplayDoPairsInfoMenuRightValueChange(UP_DOWN_TWO_MENU *menu, uint16 value)
 1184              		.loc 1 370 0
 1185              		@ sp needed
 1186              	.LVL115:
 1187 0014 10BD     		pop	{r4, pc}
 1188              	.L101:
 1189 0016 C046     		.align	2
 1190              	.L100:
 1191 0018 A0000000 		.word	.LC61
 1192              		.cfi_endproc
 1193              	.LFE69:
 1194              		.size	DisplayDoPairsInfoMenuLeftValueChange, .-DisplayDoPairsInfoMenuLeftValueChange
 1195              		.section	.text.DisplayDoPairsInfoMenuRightValueChange,"ax",%progbits
 1196              		.align	2
 1197              		.global	DisplayDoPairsInfoMenuRightValueChange
 1198              		.code	16
 1199              		.thumb_func
 1200              		.type	DisplayDoPairsInfoMenuRightValueChange, %function
 1201              	DisplayDoPairsInfoMenuRightValueChange:
 1202              	.LFB70:
 372:userMenuPatternSewingMachine.c ****     SetButtonText(&menu->btn[UPDOWNTWO_SECOND_VALUE],"%3.1f",value/10.); // right value   
 1203              		.loc 1 372 0
 1204              		.cfi_startproc
 1205              		@ args = 0, pretend = 0, frame = 0
 1206              		@ frame_needed = 0, uses_anonymous_args = 0
 1207              	.LVL116:
 1208 0000 10B5     		push	{r4, lr}
 1209              		.cfi_def_cfa_offset 8
 1210              		.cfi_offset 4, -8
 1211              		.cfi_offset 14, -4
 373:userMenuPatternSewingMachine.c ****     DrawButton(&menu->btn[UPDOWNTWO_SECOND_VALUE]);     
 1212              		.loc 1 373 0
 1213 0002 441C     		adds	r4, r0, #1
 1214 0004 FF34     		adds	r4, r4, #255
 1215 0006 0800     		movs	r0, r1
 1216              	.LVL117:
 1217 0008 FFF7FEFF 		bl	__aeabi_i2d
 1218              	.LVL118:
 1219 000c 0022     		movs	r2, #0
 1220 000e 064B     		ldr	r3, .L103
 1221 0010 FFF7FEFF 		bl	__aeabi_ddiv
 1222              	.LVL119:
 1223 0014 0200     		movs	r2, r0
 1224 0016 0B00     		movs	r3, r1
 1225 0018 0449     		ldr	r1, .L103+4
 1226 001a 2000     		movs	r0, r4
 1227 001c FFF7FEFF 		bl	SetButtonText
 1228              	.LVL120:
 374:userMenuPatternSewingMachine.c **** }
ARM GAS  C:\Users\luvsd\AppData\Local\Temp\ccM1uNpo.s 			page 35


 1229              		.loc 1 374 0
 1230 0020 2000     		movs	r0, r4
 1231 0022 FFF7FEFF 		bl	DrawButton
 1232              	.LVL121:
 375:userMenuPatternSewingMachine.c **** int doTargetInfoMenu(void *this, uint8 reflash)
 1233              		.loc 1 375 0
 1234              		@ sp needed
 1235              	.LVL122:
 1236 0026 10BD     		pop	{r4, pc}
 1237              	.L104:
 1238              		.align	2
 1239              	.L103:
 1240 0028 00002440 		.word	1076101120
 1241 002c A4000000 		.word	.LC63
 1242              		.cfi_endproc
 1243              	.LFE70:
 1244              		.size	DisplayDoPairsInfoMenuRightValueChange, .-DisplayDoPairsInfoMenuRightValueChange
 1245              		.global	__aeabi_f2uiz
 1246              		.section	.text.DisplayDoPairsInfoMenuSelectValue,"ax",%progbits
 1247              		.align	2
 1248              		.global	DisplayDoPairsInfoMenuSelectValue
 1249              		.code	16
 1250              		.thumb_func
 1251              		.type	DisplayDoPairsInfoMenuSelectValue, %function
 1252              	DisplayDoPairsInfoMenuSelectValue:
 1253              	.LFB68:
 354:userMenuPatternSewingMachine.c ****     SetButtonStyleColor(&menu->btn[UPDOWNTWO_FIRST_TEXT],  (selectValue==0) ? BUTTON_STYLE_WHITE : 
 1254              		.loc 1 354 0
 1255              		.cfi_startproc
 1256              		@ args = 0, pretend = 0, frame = 8
 1257              		@ frame_needed = 0, uses_anonymous_args = 0
 1258              	.LVL123:
 1259 0000 F0B5     		push	{r4, r5, r6, r7, lr}
 1260              		.cfi_def_cfa_offset 20
 1261              		.cfi_offset 4, -20
 1262              		.cfi_offset 5, -16
 1263              		.cfi_offset 6, -12
 1264              		.cfi_offset 7, -8
 1265              		.cfi_offset 14, -4
 1266 0002 83B0     		sub	sp, sp, #12
 1267              		.cfi_def_cfa_offset 32
 1268 0004 0600     		movs	r6, r0
 1269 0006 0F00     		movs	r7, r1
 1270 0008 0092     		str	r2, [sp]
 1271 000a 0193     		str	r3, [sp, #4]
 355:userMenuPatternSewingMachine.c ****     SetButtonStyleColor(&menu->btn[UPDOWNTWO_FIRST_VALUE], (selectValue==0) ? BUTTON_STYLE_YELLOW: 
 1272              		.loc 1 355 0
 1273 000c 0500     		movs	r5, r0
 1274 000e 4035     		adds	r5, r5, #64
 1275 0010 0029     		cmp	r1, #0
 1276 0012 01D1     		bne	.L110
 1277 0014 0521     		movs	r1, #5
 1278              	.LVL124:
 1279 0016 00E0     		b	.L106
 1280              	.LVL125:
 1281              	.L110:
 1282 0018 0C21     		movs	r1, #12
ARM GAS  C:\Users\luvsd\AppData\Local\Temp\ccM1uNpo.s 			page 36


 1283              	.LVL126:
 1284              	.L106:
 355:userMenuPatternSewingMachine.c ****     SetButtonStyleColor(&menu->btn[UPDOWNTWO_FIRST_VALUE], (selectValue==0) ? BUTTON_STYLE_YELLOW: 
 1285              		.loc 1 355 0 is_stmt 0 discriminator 4
 1286 001a 2800     		movs	r0, r5
 1287              	.LVL127:
 1288 001c FFF7FEFF 		bl	SetButtonStyleColor
 1289              	.LVL128:
 356:userMenuPatternSewingMachine.c ****     SetButtonStyleColor(&menu->btn[UPDOWNTWO_SECOND_TEXT], (selectValue==1) ? BUTTON_STYLE_WHITE : 
 1290              		.loc 1 356 0 is_stmt 1 discriminator 4
 1291 0020 3000     		movs	r0, r6
 1292 0022 C030     		adds	r0, r0, #192
 1293 0024 002F     		cmp	r7, #0
 1294 0026 01D1     		bne	.L111
 356:userMenuPatternSewingMachine.c ****     SetButtonStyleColor(&menu->btn[UPDOWNTWO_SECOND_TEXT], (selectValue==1) ? BUTTON_STYLE_WHITE : 
 1295              		.loc 1 356 0 is_stmt 0
 1296 0028 0821     		movs	r1, #8
 1297 002a 00E0     		b	.L107
 1298              	.L111:
 1299 002c 0C21     		movs	r1, #12
 1300              	.L107:
 356:userMenuPatternSewingMachine.c ****     SetButtonStyleColor(&menu->btn[UPDOWNTWO_SECOND_TEXT], (selectValue==1) ? BUTTON_STYLE_WHITE : 
 1301              		.loc 1 356 0 discriminator 4
 1302 002e FFF7FEFF 		bl	SetButtonStyleColor
 1303              	.LVL129:
 357:userMenuPatternSewingMachine.c ****     SetButtonStyleColor(&menu->btn[UPDOWNTWO_SECOND_VALUE],(selectValue==1) ? BUTTON_STYLE_YELLOW: 
 1304              		.loc 1 357 0 is_stmt 1 discriminator 4
 1305 0032 3400     		movs	r4, r6
 1306 0034 8034     		adds	r4, r4, #128
 1307 0036 012F     		cmp	r7, #1
 1308 0038 01D1     		bne	.L112
 357:userMenuPatternSewingMachine.c ****     SetButtonStyleColor(&menu->btn[UPDOWNTWO_SECOND_VALUE],(selectValue==1) ? BUTTON_STYLE_YELLOW: 
 1309              		.loc 1 357 0 is_stmt 0
 1310 003a 0521     		movs	r1, #5
 1311 003c 00E0     		b	.L108
 1312              	.L112:
 1313 003e 0C21     		movs	r1, #12
 1314              	.L108:
 357:userMenuPatternSewingMachine.c ****     SetButtonStyleColor(&menu->btn[UPDOWNTWO_SECOND_VALUE],(selectValue==1) ? BUTTON_STYLE_YELLOW: 
 1315              		.loc 1 357 0 discriminator 4
 1316 0040 2000     		movs	r0, r4
 1317 0042 FFF7FEFF 		bl	SetButtonStyleColor
 1318              	.LVL130:
 358:userMenuPatternSewingMachine.c ****     
 1319              		.loc 1 358 0 is_stmt 1 discriminator 4
 1320 0046 701C     		adds	r0, r6, #1
 1321 0048 FF30     		adds	r0, r0, #255
 1322 004a 012F     		cmp	r7, #1
 1323 004c 01D1     		bne	.L113
 358:userMenuPatternSewingMachine.c ****     
 1324              		.loc 1 358 0 is_stmt 0
 1325 004e 0821     		movs	r1, #8
 1326 0050 00E0     		b	.L109
 1327              	.L113:
 1328 0052 0C21     		movs	r1, #12
 1329              	.L109:
 358:userMenuPatternSewingMachine.c ****     
ARM GAS  C:\Users\luvsd\AppData\Local\Temp\ccM1uNpo.s 			page 37


 1330              		.loc 1 358 0 discriminator 4
 1331 0054 FFF7FEFF 		bl	SetButtonStyleColor
 1332              	.LVL131:
 360:userMenuPatternSewingMachine.c ****     DrawButton(&menu->btn[UPDOWNTWO_SECOND_TEXT]);
 1333              		.loc 1 360 0 is_stmt 1 discriminator 4
 1334 0058 2800     		movs	r0, r5
 1335 005a FFF7FEFF 		bl	DrawButton
 1336              	.LVL132:
 361:userMenuPatternSewingMachine.c ****     
 1337              		.loc 1 361 0 discriminator 4
 1338 005e 2000     		movs	r0, r4
 1339 0060 FFF7FEFF 		bl	DrawButton
 1340              	.LVL133:
 363:userMenuPatternSewingMachine.c ****     DisplayDoPairsInfoMenuRightValueChange(menu,secondValue);    
 1341              		.loc 1 363 0 discriminator 4
 1342 0064 0099     		ldr	r1, [sp]
 1343 0066 3000     		movs	r0, r6
 1344 0068 FFF7FEFF 		bl	DisplayDoPairsInfoMenuLeftValueChange
 1345              	.LVL134:
 364:userMenuPatternSewingMachine.c **** }
 1346              		.loc 1 364 0 discriminator 4
 1347 006c 0198     		ldr	r0, [sp, #4]
 1348 006e FFF7FEFF 		bl	__aeabi_f2uiz
 1349              	.LVL135:
 1350 0072 81B2     		uxth	r1, r0
 1351 0074 3000     		movs	r0, r6
 1352 0076 FFF7FEFF 		bl	DisplayDoPairsInfoMenuRightValueChange
 1353              	.LVL136:
 365:userMenuPatternSewingMachine.c **** void DisplayDoPairsInfoMenuLeftValueChange(UP_DOWN_TWO_MENU *menu, uint16 value)
 1354              		.loc 1 365 0 discriminator 4
 1355 007a 03B0     		add	sp, sp, #12
 1356              		@ sp needed
 1357              	.LVL137:
 1358 007c F0BD     		pop	{r4, r5, r6, r7, pc}
 1359              		.cfi_endproc
 1360              	.LFE68:
 1361              		.size	DisplayDoPairsInfoMenuSelectValue, .-DisplayDoPairsInfoMenuSelectValue
 1362              		.global	__aeabi_ui2f
 1363 007e C046     		.section	.text.doPairsInfoMenu,"ax",%progbits
 1364              		.align	2
 1365              		.global	doPairsInfoMenu
 1366              		.code	16
 1367              		.thumb_func
 1368              		.type	doPairsInfoMenu, %function
 1369              	doPairsInfoMenu:
 1370              	.LFB66:
 259:userMenuPatternSewingMachine.c ****     MENUNODE *thisMenu = (MENUNODE *) this;    
 1371              		.loc 1 259 0
 1372              		.cfi_startproc
 1373              		@ args = 0, pretend = 0, frame = 8
 1374              		@ frame_needed = 0, uses_anonymous_args = 0
 1375              	.LVL138:
 1376 0000 30B5     		push	{r4, r5, lr}
 1377              		.cfi_def_cfa_offset 12
 1378              		.cfi_offset 4, -12
 1379              		.cfi_offset 5, -8
 1380              		.cfi_offset 14, -4
ARM GAS  C:\Users\luvsd\AppData\Local\Temp\ccM1uNpo.s 			page 38


 1381 0002 83B0     		sub	sp, sp, #12
 1382              		.cfi_def_cfa_offset 24
 1383              	.LVL139:
 266:userMenuPatternSewingMachine.c ****     {
 1384              		.loc 1 266 0
 1385 0004 0029     		cmp	r1, #0
 1386 0006 19D0     		beq	.L116
 1387 0008 0129     		cmp	r1, #1
 1388 000a 00D0     		beq	.LCB1317
 1389 000c A4E0     		b	.L131	@long jump
 1390              	.LCB1317:
 270:userMenuPatternSewingMachine.c ****                 
 1391              		.loc 1 270 0
 1392 000e 544C     		ldr	r4, .L132
 1393 0010 5434     		adds	r4, r4, #84
 1394 0012 2000     		movs	r0, r4
 1395              	.LVL140:
 1396 0014 FFF7FEFF 		bl	DisplayDoPairsInfoMenu
 1397              	.LVL141:
 273:userMenuPatternSewingMachine.c ****                 rightValue = g_ptrMachineParameter->patternPair;
 1398              		.loc 1 273 0
 1399 0018 524B     		ldr	r3, .L132+4
 1400 001a 1A68     		ldr	r2, [r3]
 1401 001c 9588     		ldrh	r5, [r2, #4]
 1402 001e 524B     		ldr	r3, .L132+8
 1403 0020 5D87     		strh	r5, [r3, #58]
 274:userMenuPatternSewingMachine.c ****     
 1404              		.loc 1 274 0
 1405 0022 D088     		ldrh	r0, [r2, #6]
 1406 0024 9887     		strh	r0, [r3, #60]
 276:userMenuPatternSewingMachine.c ****             }
 1407              		.loc 1 276 0
 1408 0026 FFF7FEFF 		bl	__aeabi_ui2f
 1409              	.LVL142:
 1410 002a 031C     		adds	r3, r0, #0
 1411 002c 4F4A     		ldr	r2, .L132+12
 1412 002e 117D     		ldrb	r1, [r2, #20]
 1413 0030 2A00     		movs	r2, r5
 1414 0032 2000     		movs	r0, r4
 1415 0034 FFF7FEFF 		bl	DisplayDoPairsInfoMenuSelectValue
 1416              	.LVL143:
 340:userMenuPatternSewingMachine.c **** }
 1417              		.loc 1 340 0
 1418 0038 4D48     		ldr	r0, .L132+16
 278:userMenuPatternSewingMachine.c **** 
 1419              		.loc 1 278 0
 1420 003a 8EE0     		b	.L115
 1421              	.LVL144:
 1422              	.L116:
 1423              	.LBB6:
 282:userMenuPatternSewingMachine.c ****                 if(tc.isClick == FALSE) break;
 1424              		.loc 1 282 0
 1425 003c 6846     		mov	r0, sp
 1426              	.LVL145:
 1427 003e FFF7FEFF 		bl	GetTouch
 1428              	.LVL146:
 283:userMenuPatternSewingMachine.c ****                 uint16 indexClick = getIndexOfClickedButton(&tc, menu.btn,7);
ARM GAS  C:\Users\luvsd\AppData\Local\Temp\ccM1uNpo.s 			page 39


 1429              		.loc 1 283 0
 1430 0042 6B46     		mov	r3, sp
 1431 0044 1B88     		ldrh	r3, [r3]
 1432 0046 002B     		cmp	r3, #0
 1433 0048 00D1     		bne	.LCB1362
 1434 004a 80E0     		b	.L118	@long jump
 1435              	.LCB1362:
 284:userMenuPatternSewingMachine.c ****                 switch(indexClick)
 1436              		.loc 1 284 0
 1437 004c 0722     		movs	r2, #7
 1438 004e 4449     		ldr	r1, .L132
 1439 0050 5431     		adds	r1, r1, #84
 1440 0052 6846     		mov	r0, sp
 1441 0054 FFF7FEFF 		bl	getIndexOfClickedButton
 1442              	.LVL147:
 285:userMenuPatternSewingMachine.c ****                 {
 1443              		.loc 1 285 0
 1444 0058 0628     		cmp	r0, #6
 1445 005a 61D8     		bhi	.L119
 1446 005c 8000     		lsls	r0, r0, #2
 1447              	.LVL148:
 1448 005e 454B     		ldr	r3, .L132+20
 1449 0060 1B58     		ldr	r3, [r3, r0]
 1450 0062 9F46     		mov	pc, r3
 1451              		.section	.rodata
 1452              		.align	2
 1453              	.L121:
 1454 001c 20010000 		.word	.L119
 1455 0020 64000000 		.word	.L120
 1456 0024 82000000 		.word	.L122
 1457 0028 64000000 		.word	.L120
 1458 002c 82000000 		.word	.L122
 1459 0030 A0000000 		.word	.L123
 1460 0034 E4000000 		.word	.L124
 1461              		.section	.text.doPairsInfoMenu
 1462              	.L120:
 289:userMenuPatternSewingMachine.c ****                         DisplayDoPairsInfoMenuSelectValue(&menu,selectValue, leftValue, rightValue)
 1463              		.loc 1 289 0
 1464 0064 0022     		movs	r2, #0
 1465 0066 414B     		ldr	r3, .L132+12
 1466 0068 9A82     		strh	r2, [r3, #20]
 290:userMenuPatternSewingMachine.c ****                         break;
 1467              		.loc 1 290 0
 1468 006a 3F4C     		ldr	r4, .L132+8
 1469 006c A08F     		ldrh	r0, [r4, #60]
 1470 006e FFF7FEFF 		bl	__aeabi_ui2f
 1471              	.LVL149:
 1472 0072 031C     		adds	r3, r0, #0
 1473 0074 628F     		ldrh	r2, [r4, #58]
 1474 0076 0021     		movs	r1, #0
 1475 0078 3948     		ldr	r0, .L132
 1476 007a 5430     		adds	r0, r0, #84
 1477 007c FFF7FEFF 		bl	DisplayDoPairsInfoMenuSelectValue
 1478              	.LVL150:
 291:userMenuPatternSewingMachine.c ****                     case UPDOWNTWO_SECOND_TEXT:  // right
 1479              		.loc 1 291 0
 1480 0080 63E0     		b	.L125
ARM GAS  C:\Users\luvsd\AppData\Local\Temp\ccM1uNpo.s 			page 40


 1481              	.L122:
 294:userMenuPatternSewingMachine.c ****                         DisplayDoPairsInfoMenuSelectValue(&menu,selectValue, leftValue, rightValue)
 1482              		.loc 1 294 0
 1483 0082 0122     		movs	r2, #1
 1484 0084 394B     		ldr	r3, .L132+12
 1485 0086 9A82     		strh	r2, [r3, #20]
 295:userMenuPatternSewingMachine.c ****                         break;                    
 1486              		.loc 1 295 0
 1487 0088 374C     		ldr	r4, .L132+8
 1488 008a A08F     		ldrh	r0, [r4, #60]
 1489 008c FFF7FEFF 		bl	__aeabi_ui2f
 1490              	.LVL151:
 1491 0090 031C     		adds	r3, r0, #0
 1492 0092 628F     		ldrh	r2, [r4, #58]
 1493 0094 0121     		movs	r1, #1
 1494 0096 3248     		ldr	r0, .L132
 1495 0098 5430     		adds	r0, r0, #84
 1496 009a FFF7FEFF 		bl	DisplayDoPairsInfoMenuSelectValue
 1497              	.LVL152:
 296:userMenuPatternSewingMachine.c ****                     case UPDOWNTWO_UP_BUTTON: // for up
 1498              		.loc 1 296 0
 1499 009e 54E0     		b	.L125
 1500              	.L123:
 298:userMenuPatternSewingMachine.c ****                         {
 1501              		.loc 1 298 0
 1502 00a0 324B     		ldr	r3, .L132+12
 1503 00a2 9B8A     		ldrh	r3, [r3, #20]
 1504 00a4 002B     		cmp	r3, #0
 1505 00a6 0DD1     		bne	.L126
 298:userMenuPatternSewingMachine.c ****                         {
 1506              		.loc 1 298 0 is_stmt 0 discriminator 1
 1507 00a8 2F4A     		ldr	r2, .L132+8
 1508 00aa 528F     		ldrh	r2, [r2, #58]
 1509 00ac 3249     		ldr	r1, .L132+24
 1510 00ae 8A42     		cmp	r2, r1
 1511 00b0 08D8     		bhi	.L126
 300:userMenuPatternSewingMachine.c ****                             DisplayDoPairsInfoMenuLeftValueChange(&menu,leftValue);
 1512              		.loc 1 300 0 is_stmt 1
 1513 00b2 0132     		adds	r2, r2, #1
 1514 00b4 91B2     		uxth	r1, r2
 1515 00b6 2C4B     		ldr	r3, .L132+8
 1516 00b8 5987     		strh	r1, [r3, #58]
 301:userMenuPatternSewingMachine.c ****                         }
 1517              		.loc 1 301 0
 1518 00ba 2948     		ldr	r0, .L132
 1519 00bc 5430     		adds	r0, r0, #84
 1520 00be FFF7FEFF 		bl	DisplayDoPairsInfoMenuLeftValueChange
 1521              	.LVL153:
 1522 00c2 42E0     		b	.L125
 1523              	.L126:
 303:userMenuPatternSewingMachine.c ****                         {
 1524              		.loc 1 303 0
 1525 00c4 012B     		cmp	r3, #1
 1526 00c6 40D1     		bne	.L125
 303:userMenuPatternSewingMachine.c ****                         {
 1527              		.loc 1 303 0 is_stmt 0 discriminator 1
 1528 00c8 274B     		ldr	r3, .L132+8
ARM GAS  C:\Users\luvsd\AppData\Local\Temp\ccM1uNpo.s 			page 41


 1529 00ca 9B8F     		ldrh	r3, [r3, #60]
 1530 00cc 2A4A     		ldr	r2, .L132+24
 1531 00ce 9342     		cmp	r3, r2
 1532 00d0 3BD8     		bhi	.L125
 305:userMenuPatternSewingMachine.c ****                             DisplayDoPairsInfoMenuRightValueChange(&menu,rightValue);
 1533              		.loc 1 305 0 is_stmt 1
 1534 00d2 0133     		adds	r3, r3, #1
 1535 00d4 99B2     		uxth	r1, r3
 1536 00d6 244B     		ldr	r3, .L132+8
 1537 00d8 9987     		strh	r1, [r3, #60]
 306:userMenuPatternSewingMachine.c ****                         }
 1538              		.loc 1 306 0
 1539 00da 2148     		ldr	r0, .L132
 1540 00dc 5430     		adds	r0, r0, #84
 1541 00de FFF7FEFF 		bl	DisplayDoPairsInfoMenuRightValueChange
 1542              	.LVL154:
 1543 00e2 32E0     		b	.L125
 1544              	.L124:
 310:userMenuPatternSewingMachine.c ****                         {
 1545              		.loc 1 310 0
 1546 00e4 214B     		ldr	r3, .L132+12
 1547 00e6 9B8A     		ldrh	r3, [r3, #20]
 1548 00e8 002B     		cmp	r3, #0
 1549 00ea 0BD1     		bne	.L127
 310:userMenuPatternSewingMachine.c ****                         {
 1550              		.loc 1 310 0 is_stmt 0 discriminator 1
 1551 00ec 1E4A     		ldr	r2, .L132+8
 1552 00ee 518F     		ldrh	r1, [r2, #58]
 1553 00f0 0129     		cmp	r1, #1
 1554 00f2 07D9     		bls	.L127
 312:userMenuPatternSewingMachine.c ****                             DisplayDoPairsInfoMenuLeftValueChange(&menu,leftValue);
 1555              		.loc 1 312 0 is_stmt 1
 1556 00f4 0139     		subs	r1, r1, #1
 1557 00f6 89B2     		uxth	r1, r1
 1558 00f8 5187     		strh	r1, [r2, #58]
 313:userMenuPatternSewingMachine.c ****                         }                        
 1559              		.loc 1 313 0
 1560 00fa 1948     		ldr	r0, .L132
 1561 00fc 5430     		adds	r0, r0, #84
 1562 00fe FFF7FEFF 		bl	DisplayDoPairsInfoMenuLeftValueChange
 1563              	.LVL155:
 1564 0102 22E0     		b	.L125
 1565              	.L127:
 315:userMenuPatternSewingMachine.c ****                         {
 1566              		.loc 1 315 0
 1567 0104 012B     		cmp	r3, #1
 1568 0106 20D1     		bne	.L125
 315:userMenuPatternSewingMachine.c ****                         {
 1569              		.loc 1 315 0 is_stmt 0 discriminator 1
 1570 0108 174B     		ldr	r3, .L132+8
 1571 010a 998F     		ldrh	r1, [r3, #60]
 1572 010c 0129     		cmp	r1, #1
 1573 010e 1CD9     		bls	.L125
 317:userMenuPatternSewingMachine.c ****                             DisplayDoPairsInfoMenuRightValueChange(&menu,rightValue);
 1574              		.loc 1 317 0 is_stmt 1
 1575 0110 0139     		subs	r1, r1, #1
 1576 0112 89B2     		uxth	r1, r1
ARM GAS  C:\Users\luvsd\AppData\Local\Temp\ccM1uNpo.s 			page 42


 1577 0114 9987     		strh	r1, [r3, #60]
 318:userMenuPatternSewingMachine.c ****                         }                 
 1578              		.loc 1 318 0
 1579 0116 1248     		ldr	r0, .L132
 1580 0118 5430     		adds	r0, r0, #84
 1581 011a FFF7FEFF 		bl	DisplayDoPairsInfoMenuRightValueChange
 1582              	.LVL156:
 1583 011e 14E0     		b	.L125
 1584              	.L119:
 322:userMenuPatternSewingMachine.c ****                         {
 1585              		.loc 1 322 0
 1586 0120 0222     		movs	r2, #2
 1587 0122 1649     		ldr	r1, .L132+28
 1588 0124 6846     		mov	r0, sp
 1589 0126 FFF7FEFF 		bl	getIndexOfClickedButton
 1590              	.LVL157:
 1591 012a 0028     		cmp	r0, #0
 1592 012c 11D0     		beq	.L128
 1593 012e 0128     		cmp	r0, #1
 1594 0130 0BD1     		bne	.L125
 328:userMenuPatternSewingMachine.c ****                                 g_ptrMachineParameter->patternPair      = rightValue;
 1595              		.loc 1 328 0
 1596 0132 0C4B     		ldr	r3, .L132+4
 1597 0134 1B68     		ldr	r3, [r3]
 1598 0136 0C4A     		ldr	r2, .L132+8
 1599 0138 518F     		ldrh	r1, [r2, #58]
 1600 013a 9980     		strh	r1, [r3, #4]
 329:userMenuPatternSewingMachine.c ****                                 ShowWaitMessage();
 1601              		.loc 1 329 0
 1602 013c 928F     		ldrh	r2, [r2, #60]
 1603 013e DA80     		strh	r2, [r3, #6]
 330:userMenuPatternSewingMachine.c ****                                 SaveExternalFlashConfig();
 1604              		.loc 1 330 0
 1605 0140 FFF7FEFF 		bl	ShowWaitMessage
 1606              	.LVL158:
 331:userMenuPatternSewingMachine.c ****                                 return MENU_RETURN_PARENT;
 1607              		.loc 1 331 0
 1608 0144 FFF7FEFF 		bl	SaveExternalFlashConfig
 1609              	.LVL159:
 332:userMenuPatternSewingMachine.c ****                             }
 1610              		.loc 1 332 0
 1611 0148 03E0     		b	.L128
 1612              	.L125:
 1613              	.LBE6:
 340:userMenuPatternSewingMachine.c **** }
 1614              		.loc 1 340 0 discriminator 1
 1615 014a 0948     		ldr	r0, .L132+16
 338:userMenuPatternSewingMachine.c ****     }
 1616              		.loc 1 338 0 discriminator 1
 1617 014c 05E0     		b	.L115
 1618              	.L118:
 340:userMenuPatternSewingMachine.c **** }
 1619              		.loc 1 340 0
 1620 014e 0848     		ldr	r0, .L132+16
 1621 0150 03E0     		b	.L115
 1622              	.L128:
 1623              	.LBB7:
ARM GAS  C:\Users\luvsd\AppData\Local\Temp\ccM1uNpo.s 			page 43


 324:userMenuPatternSewingMachine.c ****                             case BOTTOM_RIGHT:
 1624              		.loc 1 324 0 discriminator 1
 1625 0152 8020     		movs	r0, #128
 1626 0154 0006     		lsls	r0, r0, #24
 1627 0156 00E0     		b	.L115
 1628              	.LVL160:
 1629              	.L131:
 1630              	.LBE7:
 340:userMenuPatternSewingMachine.c **** }
 1631              		.loc 1 340 0
 1632 0158 0548     		ldr	r0, .L132+16
 1633              	.LVL161:
 1634              	.L115:
 341:userMenuPatternSewingMachine.c **** 
 1635              		.loc 1 341 0
 1636 015a 03B0     		add	sp, sp, #12
 1637              		@ sp needed
 1638 015c 30BD     		pop	{r4, r5, pc}
 1639              	.L133:
 1640 015e C046     		.align	2
 1641              	.L132:
 1642 0160 80010000 		.word	.LANCHOR2
 1643 0164 00000000 		.word	g_ptrMachineParameter
 1644 0168 00000000 		.word	.LANCHOR0
 1645 016c 80030000 		.word	.LANCHOR3
 1646 0170 01000080 		.word	-2147483647
 1647 0174 1C000000 		.word	.L121
 1648 0178 0F270000 		.word	9999
 1649 017c 00000000 		.word	g_btnBottom
 1650              		.cfi_endproc
 1651              	.LFE66:
 1652              		.size	doPairsInfoMenu, .-doPairsInfoMenu
 1653              		.section	.text.doMachine,"ax",%progbits
 1654              		.align	2
 1655              		.global	doMachine
 1656              		.code	16
 1657              		.thumb_func
 1658              		.type	doMachine, %function
 1659              	doMachine:
 1660              	.LFB73:
 445:userMenuPatternSewingMachine.c ****     MENUNODE *thisMenu = (MENUNODE *) this;    
 1661              		.loc 1 445 0
 1662              		.cfi_startproc
 1663              		@ args = 0, pretend = 0, frame = 0
 1664              		@ frame_needed = 0, uses_anonymous_args = 0
 1665              	.LVL162:
 1666 0000 30B5     		push	{r4, r5, lr}
 1667              		.cfi_def_cfa_offset 12
 1668              		.cfi_offset 4, -12
 1669              		.cfi_offset 5, -8
 1670              		.cfi_offset 14, -4
 1671 0002 83B0     		sub	sp, sp, #12
 1672              		.cfi_def_cfa_offset 24
 1673 0004 0400     		movs	r4, r0
 1674 0006 0D1E     		subs	r5, r1, #0
 1675              	.LVL163:
 453:userMenuPatternSewingMachine.c ****     {
ARM GAS  C:\Users\luvsd\AppData\Local\Temp\ccM1uNpo.s 			page 44


 1676              		.loc 1 453 0
 1677 0008 06D0     		beq	.L135
 455:userMenuPatternSewingMachine.c ****         displayDir  = getMiscConfig()->bDisplayDir;  
 1678              		.loc 1 455 0
 1679 000a 3D4B     		ldr	r3, .L150
 1680 000c 1B68     		ldr	r3, [r3]
 1681 000e 1A78     		ldrb	r2, [r3]
 1682 0010 3C4B     		ldr	r3, .L150+4
 1683 0012 DA82     		strh	r2, [r3, #22]
 456:userMenuPatternSewingMachine.c ****     }
 1684              		.loc 1 456 0
 1685 0014 FFF7FEFF 		bl	getMiscConfig
 1686              	.LVL164:
 1687              	.L135:
 459:userMenuPatternSewingMachine.c ****     {
 1688              		.loc 1 459 0
 1689 0018 3A4B     		ldr	r3, .L150+4
 1690 001a 1A00     		movs	r2, r3
 1691 001c 1832     		adds	r2, r2, #24
 1692 001e 0192     		str	r2, [sp, #4]
 1693 0020 1633     		adds	r3, r3, #22
 1694 0022 0093     		str	r3, [sp]
 1695 0024 0223     		movs	r3, #2
 1696 0026 384A     		ldr	r2, .L150+8
 1697 0028 4032     		adds	r2, r2, #64
 1698 002a 2900     		movs	r1, r5
 1699 002c 2000     		movs	r0, r4
 1700 002e FFF7FEFF 		bl	doSelectList
 1701              	.LVL165:
 1702 0032 364B     		ldr	r3, .L150+12
 1703 0034 9842     		cmp	r0, r3
 1704 0036 41D0     		beq	.L137
 1705 0038 03DC     		bgt	.L138
 1706 003a 354B     		ldr	r3, .L150+16
 1707 003c 9842     		cmp	r0, r3
 1708 003e 29D0     		beq	.L139
 1709 0040 58E0     		b	.L147
 1710              	.L138:
 1711 0042 0028     		cmp	r0, #0
 1712 0044 02D0     		beq	.L140
 1713 0046 0128     		cmp	r0, #1
 1714 0048 12D0     		beq	.L141
 1715 004a 53E0     		b	.L147
 1716              	.L140:
 462:userMenuPatternSewingMachine.c ****             doSelectList(this, TRUE, listText, 2, &indexSelect, &page);
 1717              		.loc 1 462 0
 1718 004c 0020     		movs	r0, #0
 1719 004e FFF7FEFF 		bl	setDisplayDirection
 1720              	.LVL166:
 463:userMenuPatternSewingMachine.c ****             break;
 1721              		.loc 1 463 0
 1722 0052 2C4B     		ldr	r3, .L150+4
 1723 0054 1A00     		movs	r2, r3
 1724 0056 1832     		adds	r2, r2, #24
 1725 0058 0192     		str	r2, [sp, #4]
 1726 005a 1633     		adds	r3, r3, #22
 1727 005c 0093     		str	r3, [sp]
ARM GAS  C:\Users\luvsd\AppData\Local\Temp\ccM1uNpo.s 			page 45


 1728 005e 0223     		movs	r3, #2
 1729 0060 294A     		ldr	r2, .L150+8
 1730 0062 4032     		adds	r2, r2, #64
 1731 0064 0121     		movs	r1, #1
 1732 0066 2000     		movs	r0, r4
 1733 0068 FFF7FEFF 		bl	doSelectList
 1734              	.LVL167:
 494:userMenuPatternSewingMachine.c **** }
 1735              		.loc 1 494 0
 1736 006c 2948     		ldr	r0, .L150+20
 464:userMenuPatternSewingMachine.c ****         case 1:
 1737              		.loc 1 464 0
 1738 006e 45E0     		b	.L136
 1739              	.L141:
 466:userMenuPatternSewingMachine.c ****             doSelectList(this, TRUE, listText, 2, &indexSelect, &page);
 1740              		.loc 1 466 0
 1741 0070 0120     		movs	r0, #1
 1742 0072 FFF7FEFF 		bl	setDisplayDirection
 1743              	.LVL168:
 467:userMenuPatternSewingMachine.c ****             break; 
 1744              		.loc 1 467 0
 1745 0076 234B     		ldr	r3, .L150+4
 1746 0078 1A00     		movs	r2, r3
 1747 007a 1832     		adds	r2, r2, #24
 1748 007c 0192     		str	r2, [sp, #4]
 1749 007e 1633     		adds	r3, r3, #22
 1750 0080 0093     		str	r3, [sp]
 1751 0082 0223     		movs	r3, #2
 1752 0084 204A     		ldr	r2, .L150+8
 1753 0086 4032     		adds	r2, r2, #64
 1754 0088 0121     		movs	r1, #1
 1755 008a 2000     		movs	r0, r4
 1756 008c FFF7FEFF 		bl	doSelectList
 1757              	.LVL169:
 494:userMenuPatternSewingMachine.c **** }
 1758              		.loc 1 494 0
 1759 0090 2048     		ldr	r0, .L150+20
 468:userMenuPatternSewingMachine.c ****         case MENU_BOTTOM_LEFT:
 1760              		.loc 1 468 0
 1761 0092 33E0     		b	.L136
 1762              	.L139:
 471:userMenuPatternSewingMachine.c ****             {
 1763              		.loc 1 471 0
 1764 0094 1A4B     		ldr	r3, .L150
 1765 0096 1B68     		ldr	r3, [r3]
 1766 0098 1B78     		ldrb	r3, [r3]
 1767 009a 002B     		cmp	r3, #0
 1768 009c 02D0     		beq	.L142
 1769 009e 012B     		cmp	r3, #1
 1770 00a0 06D0     		beq	.L143
 1771 00a2 29E0     		b	.L149
 1772              	.L142:
 473:userMenuPatternSewingMachine.c ****                 case 1: setDisplayDirection(DISPLAY_DIRECTION_LANDSCAPE); break;
 1773              		.loc 1 473 0
 1774 00a4 0020     		movs	r0, #0
 1775 00a6 FFF7FEFF 		bl	setDisplayDirection
 1776              	.LVL170:
ARM GAS  C:\Users\luvsd\AppData\Local\Temp\ccM1uNpo.s 			page 46


 476:userMenuPatternSewingMachine.c ****         }
 1777              		.loc 1 476 0
 1778 00aa 8020     		movs	r0, #128
 1779 00ac 0006     		lsls	r0, r0, #24
 473:userMenuPatternSewingMachine.c ****                 case 1: setDisplayDirection(DISPLAY_DIRECTION_LANDSCAPE); break;
 1780              		.loc 1 473 0
 1781 00ae 25E0     		b	.L136
 1782              	.L143:
 474:userMenuPatternSewingMachine.c ****             }      
 1783              		.loc 1 474 0
 1784 00b0 0120     		movs	r0, #1
 1785 00b2 FFF7FEFF 		bl	setDisplayDirection
 1786              	.LVL171:
 476:userMenuPatternSewingMachine.c ****         }
 1787              		.loc 1 476 0
 1788 00b6 8020     		movs	r0, #128
 1789 00b8 0006     		lsls	r0, r0, #24
 474:userMenuPatternSewingMachine.c ****             }      
 1790              		.loc 1 474 0
 1791 00ba 1FE0     		b	.L136
 1792              	.L137:
 480:userMenuPatternSewingMachine.c ****             switch(g_ptrMachineParameter->machineType)
 1793              		.loc 1 480 0
 1794 00bc 104B     		ldr	r3, .L150
 1795 00be 114A     		ldr	r2, .L150+4
 1796 00c0 D28A     		ldrh	r2, [r2, #22]
 1797 00c2 1968     		ldr	r1, [r3]
 1798 00c4 0A70     		strb	r2, [r1]
 481:userMenuPatternSewingMachine.c ****             {
 1799              		.loc 1 481 0
 1800 00c6 1B68     		ldr	r3, [r3]
 1801 00c8 1B78     		ldrb	r3, [r3]
 1802 00ca 002B     		cmp	r3, #0
 1803 00cc 02D0     		beq	.L145
 1804 00ce 012B     		cmp	r3, #1
 1805 00d0 04D0     		beq	.L146
 1806 00d2 06E0     		b	.L144
 1807              	.L145:
 483:userMenuPatternSewingMachine.c ****                 case 1: setDisplayDirection(DISPLAY_DIRECTION_LANDSCAPE); break;
 1808              		.loc 1 483 0
 1809 00d4 0020     		movs	r0, #0
 1810 00d6 FFF7FEFF 		bl	setDisplayDirection
 1811              	.LVL172:
 1812 00da 02E0     		b	.L144
 1813              	.L146:
 484:userMenuPatternSewingMachine.c ****             }  
 1814              		.loc 1 484 0
 1815 00dc 0120     		movs	r0, #1
 1816 00de FFF7FEFF 		bl	setDisplayDirection
 1817              	.LVL173:
 1818              	.L144:
 487:userMenuPatternSewingMachine.c ****             ShowWaitMessage();                                    
 1819              		.loc 1 487 0
 1820 00e2 FFF7FEFF 		bl	SetCountLoop
 1821              	.LVL174:
 488:userMenuPatternSewingMachine.c ****             SaveExternalFlashConfig();
 1822              		.loc 1 488 0
ARM GAS  C:\Users\luvsd\AppData\Local\Temp\ccM1uNpo.s 			page 47


 1823 00e6 FFF7FEFF 		bl	ShowWaitMessage
 1824              	.LVL175:
 489:userMenuPatternSewingMachine.c **** 
 1825              		.loc 1 489 0
 1826 00ea FFF7FEFF 		bl	SaveExternalFlashConfig
 1827              	.LVL176:
 491:userMenuPatternSewingMachine.c ****         }            
 1828              		.loc 1 491 0
 1829 00ee 8020     		movs	r0, #128
 1830 00f0 0006     		lsls	r0, r0, #24
 1831 00f2 03E0     		b	.L136
 1832              	.L147:
 494:userMenuPatternSewingMachine.c **** }
 1833              		.loc 1 494 0
 1834 00f4 0748     		ldr	r0, .L150+20
 1835 00f6 01E0     		b	.L136
 1836              	.L149:
 476:userMenuPatternSewingMachine.c ****         }
 1837              		.loc 1 476 0
 1838 00f8 8020     		movs	r0, #128
 1839 00fa 0006     		lsls	r0, r0, #24
 1840              	.L136:
 495:userMenuPatternSewingMachine.c **** 
 1841              		.loc 1 495 0
 1842 00fc 03B0     		add	sp, sp, #12
 1843              		@ sp needed
 1844              	.LVL177:
 1845 00fe 30BD     		pop	{r4, r5, pc}
 1846              	.L151:
 1847              		.align	2
 1848              	.L150:
 1849 0100 00000000 		.word	g_ptrMachineParameter
 1850 0104 80030000 		.word	.LANCHOR3
 1851 0108 00000000 		.word	.LANCHOR0
 1852 010c 04000080 		.word	-2147483644
 1853 0110 03000080 		.word	-2147483645
 1854 0114 01000080 		.word	-2147483647
 1855              		.cfi_endproc
 1856              	.LFE73:
 1857              		.size	doMachine, .-doMachine
 1858              		.section	.text.getTarget,"ax",%progbits
 1859              		.align	2
 1860              		.global	getTarget
 1861              		.code	16
 1862              		.thumb_func
 1863              		.type	getTarget, %function
 1864              	getTarget:
 1865              	.LFB75:
 540:userMenuPatternSewingMachine.c ****     /* BLACK_CPU: PATTERN_MACHINE Ļ│ĀņĀĢ */
 1866              		.loc 1 540 0
 1867              		.cfi_startproc
 1868              		@ args = 0, pretend = 0, frame = 0
 1869              		@ frame_needed = 0, uses_anonymous_args = 0
 1870              		@ link register save eliminated.
 542:userMenuPatternSewingMachine.c **** }
 1871              		.loc 1 542 0
 1872 0000 014B     		ldr	r3, .L153
ARM GAS  C:\Users\luvsd\AppData\Local\Temp\ccM1uNpo.s 			page 48


 1873 0002 1B68     		ldr	r3, [r3]
 1874 0004 5888     		ldrh	r0, [r3, #2]
 543:userMenuPatternSewingMachine.c **** 
 1875              		.loc 1 543 0
 1876              		@ sp needed
 1877 0006 7047     		bx	lr
 1878              	.L154:
 1879              		.align	2
 1880              	.L153:
 1881 0008 00000000 		.word	g_ptrMachineParameter
 1882              		.cfi_endproc
 1883              	.LFE75:
 1884              		.size	getTarget, .-getTarget
 1885              		.section	.text.setTarget,"ax",%progbits
 1886              		.align	2
 1887              		.global	setTarget
 1888              		.code	16
 1889              		.thumb_func
 1890              		.type	setTarget, %function
 1891              	setTarget:
 1892              	.LFB76:
 546:userMenuPatternSewingMachine.c ****     /* BLACK_CPU: PATTERN_MACHINE Ļ│ĀņĀĢ */
 1893              		.loc 1 546 0
 1894              		.cfi_startproc
 1895              		@ args = 0, pretend = 0, frame = 0
 1896              		@ frame_needed = 0, uses_anonymous_args = 0
 1897              		@ link register save eliminated.
 1898              	.LVL178:
 548:userMenuPatternSewingMachine.c **** }
 1899              		.loc 1 548 0
 1900 0000 014B     		ldr	r3, .L156
 1901 0002 1B68     		ldr	r3, [r3]
 1902 0004 5880     		strh	r0, [r3, #2]
 549:userMenuPatternSewingMachine.c **** 
 1903              		.loc 1 549 0
 1904              		@ sp needed
 1905 0006 7047     		bx	lr
 1906              	.L157:
 1907              		.align	2
 1908              	.L156:
 1909 0008 00000000 		.word	g_ptrMachineParameter
 1910              		.cfi_endproc
 1911              	.LFE76:
 1912              		.size	setTarget, .-setTarget
 1913              		.section	.text.getActual,"ax",%progbits
 1914              		.align	2
 1915              		.global	getActual
 1916              		.code	16
 1917              		.thumb_func
 1918              		.type	getActual, %function
 1919              	getActual:
 1920              	.LFB77:
 552:userMenuPatternSewingMachine.c ****     COUNT *ptrCount = getCount();
 1921              		.loc 1 552 0
 1922              		.cfi_startproc
 1923              		@ args = 0, pretend = 0, frame = 0
 1924              		@ frame_needed = 0, uses_anonymous_args = 0
ARM GAS  C:\Users\luvsd\AppData\Local\Temp\ccM1uNpo.s 			page 49


 1925 0000 10B5     		push	{r4, lr}
 1926              		.cfi_def_cfa_offset 8
 1927              		.cfi_offset 4, -8
 1928              		.cfi_offset 14, -4
 553:userMenuPatternSewingMachine.c ****     /* BLACK_CPU: PATTERN_MACHINE Ļ│ĀņĀĢ */
 1929              		.loc 1 553 0
 1930 0002 FFF7FEFF 		bl	getCount
 1931              	.LVL179:
 555:userMenuPatternSewingMachine.c **** }
 1932              		.loc 1 555 0
 1933 0006 838B     		ldrh	r3, [r0, #28]
 1934 0008 1B04     		lsls	r3, r3, #16
 1935 000a C08B     		ldrh	r0, [r0, #30]
 1936              	.LVL180:
 1937 000c 1843     		orrs	r0, r3
 1938 000e 0A21     		movs	r1, #10
 1939 0010 FFF7FEFF 		bl	__aeabi_uidiv
 1940              	.LVL181:
 556:userMenuPatternSewingMachine.c **** 
 1941              		.loc 1 556 0
 1942              		@ sp needed
 1943 0014 10BD     		pop	{r4, pc}
 1944              		.cfi_endproc
 1945              	.LFE77:
 1946              		.size	getActual, .-getActual
 1947 0016 C046     		.section	.text.setActual,"ax",%progbits
 1948              		.align	2
 1949              		.global	setActual
 1950              		.code	16
 1951              		.thumb_func
 1952              		.type	setActual, %function
 1953              	setActual:
 1954              	.LFB78:
 559:userMenuPatternSewingMachine.c ****     COUNT *ptrCount = getCount();
 1955              		.loc 1 559 0
 1956              		.cfi_startproc
 1957              		@ args = 0, pretend = 0, frame = 0
 1958              		@ frame_needed = 0, uses_anonymous_args = 0
 1959              	.LVL182:
 1960 0000 10B5     		push	{r4, lr}
 1961              		.cfi_def_cfa_offset 8
 1962              		.cfi_offset 4, -8
 1963              		.cfi_offset 14, -4
 1964 0002 0400     		movs	r4, r0
 560:userMenuPatternSewingMachine.c ****     /* BLACK_CPU: PATTERN_MACHINE Ļ│ĀņĀĢ */
 1965              		.loc 1 560 0
 1966 0004 FFF7FEFF 		bl	getCount
 1967              	.LVL183:
 562:userMenuPatternSewingMachine.c ****     ptrCount->patternActualL = CONVERT_TO_LOW(value*10);
 1968              		.loc 1 562 0
 1969 0008 A200     		lsls	r2, r4, #2
 1970 000a 1219     		adds	r2, r2, r4
 1971 000c 5300     		lsls	r3, r2, #1
 1972 000e 1B0C     		lsrs	r3, r3, #16
 1973 0010 8383     		strh	r3, [r0, #28]
 563:userMenuPatternSewingMachine.c **** }
 1974              		.loc 1 563 0
ARM GAS  C:\Users\luvsd\AppData\Local\Temp\ccM1uNpo.s 			page 50


 1975 0012 5200     		lsls	r2, r2, #1
 1976 0014 C283     		strh	r2, [r0, #30]
 564:userMenuPatternSewingMachine.c **** 
 1977              		.loc 1 564 0
 1978              		@ sp needed
 1979              	.LVL184:
 1980 0016 10BD     		pop	{r4, pc}
 1981              		.cfi_endproc
 1982              	.LFE78:
 1983              		.size	setActual, .-setActual
 1984              		.section	.text.menuCreate,"ax",%progbits
 1985              		.align	2
 1986              		.global	menuCreate
 1987              		.code	16
 1988              		.thumb_func
 1989              		.type	menuCreate, %function
 1990              	menuCreate:
 1991              	.LFB80:
 606:userMenuPatternSewingMachine.c **** 
 607:userMenuPatternSewingMachine.c **** MENUNODE * menuCreate()
 608:userMenuPatternSewingMachine.c **** {
 1992              		.loc 1 608 0
 1993              		.cfi_startproc
 1994              		@ args = 0, pretend = 0, frame = 0
 1995              		@ frame_needed = 0, uses_anonymous_args = 0
 1996 0000 F8B5     		push	{r3, r4, r5, r6, r7, lr}
 1997              		.cfi_def_cfa_offset 24
 1998              		.cfi_offset 3, -24
 1999              		.cfi_offset 4, -20
 2000              		.cfi_offset 5, -16
 2001              		.cfi_offset 6, -12
 2002              		.cfi_offset 7, -8
 2003              		.cfi_offset 14, -4
 2004              	.LVL185:
 609:userMenuPatternSewingMachine.c ****     MENUNODE *g_ptrAndonMenuNode = NULL;
 610:userMenuPatternSewingMachine.c ****     
 611:userMenuPatternSewingMachine.c ****     setDisplayDirection(getMiscConfig()->bDisplayDir);
 2005              		.loc 1 611 0
 2006 0002 FFF7FEFF 		bl	getMiscConfig
 2007              	.LVL186:
 2008 0006 0078     		ldrb	r0, [r0]
 2009 0008 FFF7FEFF 		bl	setDisplayDirection
 2010              	.LVL187:
 612:userMenuPatternSewingMachine.c **** 
 613:userMenuPatternSewingMachine.c ****     // Main Menu  ............................................
 614:userMenuPatternSewingMachine.c ****     MENUNODE *root                        = createMENUNODE(NULL,      "TOP MENU",     &doTopMenu);
 2011              		.loc 1 614 0
 2012 000c 204A     		ldr	r2, .L167
 2013 000e 2149     		ldr	r1, .L167+4
 2014 0010 0020     		movs	r0, #0
 2015 0012 FFF7FEFF 		bl	createMENUNODE
 2016              	.LVL188:
 2017 0016 0600     		movs	r6, r0
 2018              	.LVL189:
 615:userMenuPatternSewingMachine.c ****     MENUNODE    *manage                   = manageMenuCreate(root);
 2019              		.loc 1 615 0
 2020 0018 FFF7FEFF 		bl	manageMenuCreate
ARM GAS  C:\Users\luvsd\AppData\Local\Temp\ccM1uNpo.s 			page 51


 2021              	.LVL190:
 2022 001c 0500     		movs	r5, r0
 2023              	.LVL191:
 2024              	.LBB8:
 616:userMenuPatternSewingMachine.c ****     for(int i=0; i < getNoOfChild(manage); i++) 
 2025              		.loc 1 616 0
 2026 001e 0024     		movs	r4, #0
 2027 0020 16E0     		b	.L161
 2028              	.LVL192:
 2029              	.L164:
 2030              	.LBB9:
 617:userMenuPatternSewingMachine.c ****     {
 618:userMenuPatternSewingMachine.c ****         MENUNODE *node = getNthChild(manage,i);
 2031              		.loc 1 618 0
 2032 0022 2100     		movs	r1, r4
 2033 0024 2800     		movs	r0, r5
 2034 0026 FFF7FEFF 		bl	getNthChild
 2035              	.LVL193:
 2036 002a 0700     		movs	r7, r0
 2037              	.LVL194:
 619:userMenuPatternSewingMachine.c ****         if(strcmp(node->nodeName,"SETTINGS") == 0)
 2038              		.loc 1 619 0
 2039 002c 1030     		adds	r0, r0, #16
 2040              	.LVL195:
 2041 002e 1A49     		ldr	r1, .L167+8
 2042 0030 FFF7FEFF 		bl	strcmp
 2043              	.LVL196:
 2044 0034 0028     		cmp	r0, #0
 2045 0036 0AD1     		bne	.L162
 2046              	.LBB10:
 620:userMenuPatternSewingMachine.c ****         {
 621:userMenuPatternSewingMachine.c ****             // MENUNODE        *machine              = createMENUNODE  (node,  "MACHINE",      &doM
 622:userMenuPatternSewingMachine.c ****             MENUNODE        *andonSetting         = createMENUNODE  (node,  "ANDON",        &doAndo
 2047              		.loc 1 622 0
 2048 0038 184A     		ldr	r2, .L167+12
 2049 003a 1949     		ldr	r1, .L167+16
 2050 003c 3800     		movs	r0, r7
 2051 003e FFF7FEFF 		bl	createMENUNODE
 2052              	.LVL197:
 623:userMenuPatternSewingMachine.c ****             // MENUNODE        *curSet               = currentSensorMenuCreate(node);  
 624:userMenuPatternSewingMachine.c ****             MENUNODE        *autoReset            = createMENUNODE  (node,  "AUTO RESET",   &doAuto
 2053              		.loc 1 624 0
 2054 0042 184A     		ldr	r2, .L167+20
 2055 0044 1849     		ldr	r1, .L167+24
 2056 0046 3800     		movs	r0, r7
 2057 0048 FFF7FEFF 		bl	createMENUNODE
 2058              	.LVL198:
 625:userMenuPatternSewingMachine.c ****             break;
 2059              		.loc 1 625 0
 2060 004c 05E0     		b	.L163
 2061              	.L162:
 2062              	.LBE10:
 2063              	.LBE9:
 616:userMenuPatternSewingMachine.c ****     {
 2064              		.loc 1 616 0 discriminator 2
 2065 004e 0134     		adds	r4, r4, #1
 2066              	.LVL199:
ARM GAS  C:\Users\luvsd\AppData\Local\Temp\ccM1uNpo.s 			page 52


 2067              	.L161:
 616:userMenuPatternSewingMachine.c ****     {
 2068              		.loc 1 616 0 is_stmt 0 discriminator 1
 2069 0050 2800     		movs	r0, r5
 2070 0052 FFF7FEFF 		bl	getNoOfChild
 2071              	.LVL200:
 2072 0056 8442     		cmp	r4, r0
 2073 0058 E3DB     		blt	.L164
 2074              	.L163:
 2075              	.LBE8:
 626:userMenuPatternSewingMachine.c ****         }
 627:userMenuPatternSewingMachine.c ****     }
 628:userMenuPatternSewingMachine.c ****                        
 629:userMenuPatternSewingMachine.c ****     if(g_ptrMachineParameter->andon_enable==TRUE)
 2076              		.loc 1 629 0 is_stmt 1
 2077 005a 144B     		ldr	r3, .L167+28
 2078 005c 1B68     		ldr	r3, [r3]
 2079 005e 9B8A     		ldrh	r3, [r3, #20]
 2080 0060 012B     		cmp	r3, #1
 2081 0062 03D1     		bne	.L165
 630:userMenuPatternSewingMachine.c ****     {
 631:userMenuPatternSewingMachine.c ****         g_ptrAndonMenuNode = andonMenuCreate (root); 
 2082              		.loc 1 631 0
 2083 0064 3000     		movs	r0, r6
 2084 0066 FFF7FEFF 		bl	andonMenuCreate
 2085              	.LVL201:
 2086 006a 04E0     		b	.L166
 2087              	.LVL202:
 2088              	.L165:
 632:userMenuPatternSewingMachine.c ****     }
 633:userMenuPatternSewingMachine.c ****     else 
 634:userMenuPatternSewingMachine.c ****     {
 635:userMenuPatternSewingMachine.c ****         createMENUNODE  (root,    "RESET",        &doResetData);
 2089              		.loc 1 635 0
 2090 006c 104A     		ldr	r2, .L167+32
 2091 006e 1149     		ldr	r1, .L167+36
 2092 0070 3000     		movs	r0, r6
 2093 0072 FFF7FEFF 		bl	createMENUNODE
 2094              	.LVL203:
 2095              	.L166:
 636:userMenuPatternSewingMachine.c ****     }
 637:userMenuPatternSewingMachine.c ****         
 638:userMenuPatternSewingMachine.c ****     MENUNODE    *targetInfoMenuNode       = createMENUNODE  (root,    "TARGET",       &doTargetInfo
 2096              		.loc 1 638 0
 2097 0076 104A     		ldr	r2, .L167+40
 2098 0078 1049     		ldr	r1, .L167+44
 2099 007a 3000     		movs	r0, r6
 2100 007c FFF7FEFF 		bl	createMENUNODE
 2101              	.LVL204:
 639:userMenuPatternSewingMachine.c ****     MENUNODE    *actualtInfoMenuNode      = createMENUNODE  (root,    "ACTUAL",       &doActualInfo
 2102              		.loc 1 639 0
 2103 0080 0F4A     		ldr	r2, .L167+48
 2104 0082 1049     		ldr	r1, .L167+52
 2105 0084 3000     		movs	r0, r6
 2106 0086 FFF7FEFF 		bl	createMENUNODE
 2107              	.LVL205:
 640:userMenuPatternSewingMachine.c ****     
ARM GAS  C:\Users\luvsd\AppData\Local\Temp\ccM1uNpo.s 			page 53


 641:userMenuPatternSewingMachine.c ****     /*
 642:userMenuPatternSewingMachine.c ****     printf("---%d\r\n",getCount()->andonEntry==TRUE);
 643:userMenuPatternSewingMachine.c ****     
 644:userMenuPatternSewingMachine.c ****     if(getCount()->andonEntry==TRUE && g_ptrAndonMenuNode != NULL)
 645:userMenuPatternSewingMachine.c ****     {
 646:userMenuPatternSewingMachine.c ****         //printf("ANNNNNN\r\n");
 647:userMenuPatternSewingMachine.c ****         return g_ptrAndonMenuNode;
 648:userMenuPatternSewingMachine.c ****     }
 649:userMenuPatternSewingMachine.c ****     */
 650:userMenuPatternSewingMachine.c ****     
 651:userMenuPatternSewingMachine.c ****    return root;
 652:userMenuPatternSewingMachine.c **** }
 2108              		.loc 1 652 0
 2109 008a 3000     		movs	r0, r6
 2110              		@ sp needed
 2111              	.LVL206:
 2112              	.LVL207:
 2113              	.LVL208:
 2114 008c F8BD     		pop	{r3, r4, r5, r6, r7, pc}
 2115              	.L168:
 2116 008e C046     		.align	2
 2117              	.L167:
 2118 0090 00000000 		.word	doTopMenu
 2119 0094 AC000000 		.word	.LC80
 2120 0098 B8000000 		.word	.LC82
 2121 009c 00000000 		.word	doAndonSet
 2122 00a0 48000000 		.word	.LC28
 2123 00a4 00000000 		.word	doAutoReset
 2124 00a8 C4000000 		.word	.LC87
 2125 00ac 00000000 		.word	g_ptrMachineParameter
 2126 00b0 00000000 		.word	doResetData
 2127 00b4 50000000 		.word	.LC30
 2128 00b8 00000000 		.word	doTargetInfoMenu
 2129 00bc D0000000 		.word	.LC93
 2130 00c0 00000000 		.word	doActualInfoMenu
 2131 00c4 D8000000 		.word	.LC96
 2132              		.cfi_endproc
 2133              	.LFE80:
 2134              		.size	menuCreate, .-menuCreate
 2135              		.global	g_noPatternString
 2136              		.global	g_patternString
 2137              		.comm	Param,6,4
 2138              		.data
 2139              		.align	2
 2140              		.set	.LANCHOR0,. + 0
 2141              		.type	incr.9518, %object
 2142              		.size	incr.9518, 12
 2143              	incr.9518:
 2144 0000 01000000 		.word	1
 2145 0004 64000000 		.word	100
 2146 0008 F4010000 		.word	500
 2147              		.type	incr.9532, %object
 2148              		.size	incr.9532, 12
 2149              	incr.9532:
 2150 000c 01000000 		.word	1
 2151 0010 0A000000 		.word	10
 2152 0014 64000000 		.word	100
ARM GAS  C:\Users\luvsd\AppData\Local\Temp\ccM1uNpo.s 			page 54


 2153              		.type	listText.9588, %object
 2154              		.size	listText.9588, 8
 2155              	listText.9588:
 2156 0018 E0000000 		.word	.LC98
 2157 001c E4000000 		.word	.LC99
 2158              		.type	g_patternString, %object
 2159              		.size	g_patternString, 24
 2160              	g_patternString:
 2161 0020 00000000 		.word	.LC1
 2162 0024 F8000000 		.word	.LC102
 2163 0028 00010000 		.word	.LC103
 2164 002c 08010000 		.word	.LC104
 2165 0030 0C010000 		.word	.LC105
 2166 0034 10010000 		.word	.LC106
 2167              		.type	oldPage.9405, %object
 2168              		.size	oldPage.9405, 1
 2169              	oldPage.9405:
 2170 0038 FF       		.byte	-1
 2171 0039 00       		.space	1
 2172              		.type	leftValue.9475, %object
 2173              		.size	leftValue.9475, 2
 2174              	leftValue.9475:
 2175 003a 0200     		.short	2
 2176              		.type	rightValue.9476, %object
 2177              		.size	rightValue.9476, 2
 2178              	rightValue.9476:
 2179 003c 1900     		.short	25
 2180 003e 0000     		.space	2
 2181              		.type	listText.9545, %object
 2182              		.size	listText.9545, 8
 2183              	listText.9545:
 2184 0040 E8000000 		.word	.LC100
 2185 0044 F0000000 		.word	.LC101
 2186              		.type	g_noPatternString, %object
 2187              		.size	g_noPatternString, 1
 2188              	g_noPatternString:
 2189 0048 06       		.byte	6
 2190              		.section	.rodata.str1.4,"aMS",%progbits,1
 2191              		.align	2
 2192              	.LC1:
 2193 0000 54617267 		.ascii	"Target\000"
 2193      657400
 2194 0007 00       		.space	1
 2195              	.LC3:
 2196 0008 54617267 		.ascii	"Target info.\000"
 2196      65742069 
 2196      6E666F2E 
 2196      00
 2197 0015 000000   		.space	3
 2198              	.LC9:
 2199 0018 56616C75 		.ascii	"Value\000"
 2199      6500
 2200 001e 0000     		.space	2
 2201              	.LC11:
 2202 0020 41637475 		.ascii	"Actual Q'ty\000"
 2202      616C2051 
 2202      27747900 
ARM GAS  C:\Users\luvsd\AppData\Local\Temp\ccM1uNpo.s 			page 55


 2203              	.LC16:
 2204 002c 446F2079 		.ascii	"Do you want ?\000"
 2204      6F752077 
 2204      616E7420 
 2204      3F00
 2205 003a 0000     		.space	2
 2206              	.LC18:
 2207 003c 59455300 		.ascii	"YES\000"
 2208              	.LC20:
 2209 0040 51554954 		.ascii	"QUIT\000"
 2209      00
 2210 0045 000000   		.space	3
 2211              	.LC28:
 2212 0048 414E444F 		.ascii	"ANDON\000"
 2212      4E00
 2213 004e 0000     		.space	2
 2214              	.LC30:
 2215 0050 52455345 		.ascii	"RESET\000"
 2215      5400
 2216 0056 0000     		.space	2
 2217              	.LC32:
 2218 0058 454D4252 		.ascii	"EMBROIDERY\000"
 2218      4F494445 
 2218      525900
 2219 0063 00       		.space	1
 2220              	.LC35:
 2221 0064 4D454E55 		.ascii	"MENU\000"
 2221      00
 2222 0069 000000   		.space	3
 2223              	.LC38:
 2224 006c 257500   		.ascii	"%u\000"
 2225 006f 00       		.space	1
 2226              	.LC40:
 2227 0070 256C7500 		.ascii	"%lu\000"
 2228              	.LC42:
 2229 0074 25342E31 		.ascii	"%4.1f\000"
 2229      6600
 2230 007a 0000     		.space	2
 2231              	.LC52:
 2232 007c 50616972 		.ascii	"Pairs info.\000"
 2232      7320696E 
 2232      666F2E00 
 2233              	.LC54:
 2234 0088 50616972 		.ascii	"Pair(s)\000"
 2234      28732900 
 2235              	.LC56:
 2236 0090 436F756E 		.ascii	"Count\000"
 2236      7400
 2237 0096 0000     		.space	2
 2238              	.LC58:
 2239 0098 53415645 		.ascii	"SAVE\000"
 2239      00
 2240 009d 000000   		.space	3
 2241              	.LC61:
 2242 00a0 256400   		.ascii	"%d\000"
 2243 00a3 00       		.space	1
 2244              	.LC63:
ARM GAS  C:\Users\luvsd\AppData\Local\Temp\ccM1uNpo.s 			page 56


 2245 00a4 25332E31 		.ascii	"%3.1f\000"
 2245      6600
 2246 00aa 0000     		.space	2
 2247              	.LC80:
 2248 00ac 544F5020 		.ascii	"TOP MENU\000"
 2248      4D454E55 
 2248      00
 2249 00b5 000000   		.space	3
 2250              	.LC82:
 2251 00b8 53455454 		.ascii	"SETTINGS\000"
 2251      494E4753 
 2251      00
 2252 00c1 000000   		.space	3
 2253              	.LC87:
 2254 00c4 4155544F 		.ascii	"AUTO RESET\000"
 2254      20524553 
 2254      455400
 2255 00cf 00       		.space	1
 2256              	.LC93:
 2257 00d0 54415247 		.ascii	"TARGET\000"
 2257      455400
 2258 00d7 00       		.space	1
 2259              	.LC96:
 2260 00d8 41435455 		.ascii	"ACTUAL\000"
 2260      414C00
 2261 00df 00       		.space	1
 2262              	.LC98:
 2263 00e0 4F4E00   		.ascii	"ON\000"
 2264 00e3 00       		.space	1
 2265              	.LC99:
 2266 00e4 4F464600 		.ascii	"OFF\000"
 2267              	.LC100:
 2268 00e8 50415454 		.ascii	"PATTERN\000"
 2268      45524E00 
 2269              	.LC101:
 2270 00f0 53455749 		.ascii	"SEWING\000"
 2270      4E4700
 2271 00f7 00       		.space	1
 2272              	.LC102:
 2273 00f8 41637475 		.ascii	"Actual\000"
 2273      616C00
 2274 00ff 00       		.space	1
 2275              	.LC103:
 2276 0100 52617465 		.ascii	"Rate\000"
 2276      00
 2277 0105 000000   		.space	3
 2278              	.LC104:
 2279 0108 435400   		.ascii	"CT\000"
 2280 010b 00       		.space	1
 2281              	.LC105:
 2282 010c 4D525400 		.ascii	"MRT\000"
 2283              	.LC106:
 2284 0110 544200   		.ascii	"TB\000"
 2285              		.bss
 2286              		.align	2
 2287              		.set	.LANCHOR1,. + 0
 2288              		.set	.LANCHOR2,. + 384
ARM GAS  C:\Users\luvsd\AppData\Local\Temp\ccM1uNpo.s 			page 57


 2289              		.set	.LANCHOR3,. + 896
 2290              		.type	selectIncre.9519, %object
 2291              		.size	selectIncre.9519, 2
 2292              	selectIncre.9519:
 2293 0000 0000     		.space	2
 2294 0002 0000     		.space	2
 2295              		.type	value.9520, %object
 2296              		.size	value.9520, 4
 2297              	value.9520:
 2298 0004 00000000 		.space	4
 2299              		.type	value.9534, %object
 2300              		.size	value.9534, 4
 2301              	value.9534:
 2302 0008 00000000 		.space	4
 2303              		.type	selectIncre.9533, %object
 2304              		.size	selectIncre.9533, 2
 2305              	selectIncre.9533:
 2306 000c 0000     		.space	2
 2307              		.type	indexSelect.9589, %object
 2308              		.size	indexSelect.9589, 2
 2309              	indexSelect.9589:
 2310 000e 0000     		.space	2
 2311              		.type	page.9590, %object
 2312              		.size	page.9590, 2
 2313              	page.9590:
 2314 0010 0000     		.space	2
 2315              		.type	page.9404, %object
 2316              		.size	page.9404, 1
 2317              	page.9404:
 2318 0012 00       		.space	1
 2319 0013 00       		.space	1
 2320              		.type	menu.9401, %object
 2321              		.size	menu.9401, 448
 2322              	menu.9401:
 2323 0014 00000000 		.space	448
 2323      00000000 
 2323      00000000 
 2323      00000000 
 2323      00000000 
 2324              		.type	menu.9473, %object
 2325              		.size	menu.9473, 448
 2326              	menu.9473:
 2327 01d4 00000000 		.space	448
 2327      00000000 
 2327      00000000 
 2327      00000000 
 2327      00000000 
 2328              		.type	selectValue.9474, %object
 2329              		.size	selectValue.9474, 2
 2330              	selectValue.9474:
 2331 0394 0000     		.space	2
 2332              		.type	indexSelect.9546, %object
 2333              		.size	indexSelect.9546, 2
 2334              	indexSelect.9546:
 2335 0396 0000     		.space	2
 2336              		.type	page.9548, %object
 2337              		.size	page.9548, 2
ARM GAS  C:\Users\luvsd\AppData\Local\Temp\ccM1uNpo.s 			page 58


 2338              	page.9548:
 2339 0398 0000     		.space	2
 2340              		.text
 2341              	.Letext0:
 2342              		.file 2 "c:\\program files (x86)\\cypress\\psoc creator\\4.4\\psoc creator\\import\\gnu\\arm\\5.4.
 2343              		.file 3 "c:\\program files (x86)\\cypress\\psoc creator\\4.4\\psoc creator\\import\\gnu\\arm\\5.4.
 2344              		.file 4 "Generated_Source\\PSoC4/cytypes.h"
 2345              		.file 5 "./main.h"
 2346              		.file 6 "lib/menu.h"
 2347              		.file 7 "lib/UI.h"
 2348              		.file 8 "lib/button.h"
 2349              		.file 9 "lib/widget.h"
 2350              		.file 10 "count.h"
 2351              		.file 11 "userProjectPatternSewing.h"
 2352              		.file 12 "lib/fonts.h"
 2353              		.file 13 "lib/image.h"
 2354              		.file 14 "Generated_Source\\PSoC4/RTC.h"
 2355              		.file 15 "lib/externalFlash.h"
 2356              		.file 16 "lib/internalFlash.h"
 2357              		.file 17 "c:\\program files (x86)\\cypress\\psoc creator\\4.4\\psoc creator\\import\\gnu\\arm\\5.4
 2358              		.file 18 "Generated_Source\\PSoC4/CyLib.h"
 2359              		.file 19 "lib/manageMenu.h"
 2360              		.file 20 "andonMenu.h"