ARM GAS  C:\Users\luvsd\AppData\Local\Temp\ccHG7fWv.s 			page 1


   1              		.syntax unified
   2              		.cpu cortex-m0
   3              		.fpu softvfp
   4              		.eabi_attribute 20, 1
   5              		.eabi_attribute 21, 1
   6              		.eabi_attribute 23, 3
   7              		.eabi_attribute 24, 1
   8              		.eabi_attribute 25, 1
   9              		.eabi_attribute 26, 1
  10              		.eabi_attribute 30, 1
  11              		.eabi_attribute 34, 0
  12              		.eabi_attribute 18, 4
  13              		.thumb
  14              		.syntax unified
  15              		.file	"userTimer.c"
  16              		.text
  17              	.Ltext0:
  18              		.cfi_sections	.debug_frame
  19              		.section	.text.OneMilliSecond_ISR,"ax",%progbits
  20              		.align	2
  21              		.global	OneMilliSecond_ISR
  22              		.code	16
  23              		.thumb_func
  24              		.type	OneMilliSecond_ISR, %function
  25              	OneMilliSecond_ISR:
  26              	.LFB62:
  27              		.file 1 "userTimer.c"
   1:userTimer.c   **** /* ========================================
   2:userTimer.c   ****  *
   3:userTimer.c   ****  * Copyright Suntech, 2023.02.01
   4:userTimer.c   ****  * All Rights Reserved
   5:userTimer.c   ****  * UNPUBLISHED, LICENSED SOFTWARE.
   6:userTimer.c   ****  *
   7:userTimer.c   ****  * CONFIDENTIAL AND PROPRIETARY INFORMATION
   8:userTimer.c   ****  * WHICH IS THE PROPERTY OF Suntech.
   9:userTimer.c   ****  *
  10:userTimer.c   ****  * ========================================
  11:userTimer.c   **** */
  12:userTimer.c   **** #include "lib/sysTick.h"
  13:userTimer.c   **** #include "lib/RealTimeClock.h"
  14:userTimer.c   **** #include "lib/UI.h"
  15:userTimer.c   **** #include "userTimer.h"
  16:userTimer.c   **** #include "main.h"
  17:userTimer.c   **** 
  18:userTimer.c   **** ///////////////////////////////////////////////////////////////
  19:userTimer.c   **** // 1msņŚÉ Ļ┤ĆļĀ©ļÉ£ Ļ▓āļōż  //////////////////////////////////////////////
  20:userTimer.c   **** ///////////////////////////////////////////////////////////////
  21:userTimer.c   **** uint8 g_bIsElapsed_1ms = FALSE;
  22:userTimer.c   **** 
  23:userTimer.c   **** // sysTick.hņŚÉņä£ ņé¼ņÜ® 1msļ¦łļŗż ņØĖĒä░ļ¤ĮĒŖĖņŚÉņä£ ĒśĖņČ£ļÉ£ļŗż. (ņĀĢĒÖĢĒĢ£ ņŗ£Ļ░ä)
  24:userTimer.c   **** void OneMilliSecond_ISR() 
  25:userTimer.c   **** {
  28              		.loc 1 25 0
  29              		.cfi_startproc
  30              		@ args = 0, pretend = 0, frame = 0
  31              		@ frame_needed = 0, uses_anonymous_args = 0
  32 0000 10B5     		push	{r4, lr}
ARM GAS  C:\Users\luvsd\AppData\Local\Temp\ccHG7fWv.s 			page 2


  33              		.cfi_def_cfa_offset 8
  34              		.cfi_offset 4, -8
  35              		.cfi_offset 14, -4
  26:userTimer.c   ****     g_bIsElapsed_1ms = TRUE;
  36              		.loc 1 26 0
  37 0002 0122     		movs	r2, #1
  38 0004 024B     		ldr	r3, .L2
  39 0006 1A70     		strb	r2, [r3]
  27:userTimer.c   ****     
  28:userTimer.c   ****     BuzzerTimer();    
  40              		.loc 1 28 0
  41 0008 FFF7FEFF 		bl	BuzzerTimer
  42              	.LVL0:
  29:userTimer.c   **** }
  43              		.loc 1 29 0
  44              		@ sp needed
  45 000c 10BD     		pop	{r4, pc}
  46              	.L3:
  47 000e C046     		.align	2
  48              	.L2:
  49 0010 00000000 		.word	.LANCHOR0
  50              		.cfi_endproc
  51              	.LFE62:
  52              		.size	OneMilliSecond_ISR, .-OneMilliSecond_ISR
  53              		.section	.text.isElasped_1ms,"ax",%progbits
  54              		.align	2
  55              		.global	isElasped_1ms
  56              		.code	16
  57              		.thumb_func
  58              		.type	isElasped_1ms, %function
  59              	isElasped_1ms:
  60              	.LFB63:
  30:userTimer.c   **** 
  31:userTimer.c   **** uint8 isElasped_1ms()
  32:userTimer.c   **** {
  61              		.loc 1 32 0
  62              		.cfi_startproc
  63              		@ args = 0, pretend = 0, frame = 0
  64              		@ frame_needed = 0, uses_anonymous_args = 0
  65              		@ link register save eliminated.
  33:userTimer.c   ****     return g_bIsElapsed_1ms;
  66              		.loc 1 33 0
  67 0000 014B     		ldr	r3, .L5
  68 0002 1878     		ldrb	r0, [r3]
  34:userTimer.c   **** }
  69              		.loc 1 34 0
  70              		@ sp needed
  71 0004 7047     		bx	lr
  72              	.L6:
  73 0006 C046     		.align	2
  74              	.L5:
  75 0008 00000000 		.word	.LANCHOR0
  76              		.cfi_endproc
  77              	.LFE63:
  78              		.size	isElasped_1ms, .-isElasped_1ms
  79              		.section	.text.OneMilliSecond_MainLoop,"ax",%progbits
  80              		.align	2
ARM GAS  C:\Users\luvsd\AppData\Local\Temp\ccHG7fWv.s 			page 3


  81              		.global	OneMilliSecond_MainLoop
  82              		.code	16
  83              		.thumb_func
  84              		.type	OneMilliSecond_MainLoop, %function
  85              	OneMilliSecond_MainLoop:
  86              	.LFB64:
  35:userTimer.c   **** 
  36:userTimer.c   **** // main loopņŚÉņä£ 1ms ļ¦łļŗż ņ×æļÅÖĒĢśļŖö ĒĢ©ņłś (delay ļ░£ņāØĒĢĀ ņłś ņ×łņØī, ņĀĢĒÖĢĒĢ£ ņŗ£Ļ░äņØ┤ 
  37:userTimer.c   **** void OneMilliSecond_MainLoop() 
  38:userTimer.c   **** {
  87              		.loc 1 38 0
  88              		.cfi_startproc
  89              		@ args = 0, pretend = 0, frame = 0
  90              		@ frame_needed = 0, uses_anonymous_args = 0
  91              		@ link register save eliminated.
  39:userTimer.c   ****     if(g_bIsElapsed_1ms)
  92              		.loc 1 39 0
  93 0000 034B     		ldr	r3, .L9
  94 0002 1B78     		ldrb	r3, [r3]
  95 0004 002B     		cmp	r3, #0
  96 0006 02D0     		beq	.L7
  40:userTimer.c   ****     {
  41:userTimer.c   ****         g_bIsElapsed_1ms = FALSE;    
  97              		.loc 1 41 0
  98 0008 0022     		movs	r2, #0
  99 000a 014B     		ldr	r3, .L9
 100 000c 1A70     		strb	r2, [r3]
 101              	.L7:
  42:userTimer.c   ****     }
  43:userTimer.c   **** }
 102              		.loc 1 43 0
 103              		@ sp needed
 104 000e 7047     		bx	lr
 105              	.L10:
 106              		.align	2
 107              	.L9:
 108 0010 00000000 		.word	.LANCHOR0
 109              		.cfi_endproc
 110              	.LFE64:
 111              		.size	OneMilliSecond_MainLoop, .-OneMilliSecond_MainLoop
 112              		.section	.text.OneSecond_ISR,"ax",%progbits
 113              		.align	2
 114              		.global	OneSecond_ISR
 115              		.code	16
 116              		.thumb_func
 117              		.type	OneSecond_ISR, %function
 118              	OneSecond_ISR:
 119              	.LFB65:
  44:userTimer.c   **** 
  45:userTimer.c   **** ///////////////////////////////////////////////////////////////
  46:userTimer.c   **** // 1sņŚÉ Ļ┤ĆļĀ©ļÉ£ Ļ▓āļōż  ///////////////////////////////////////////////
  47:userTimer.c   **** ///////////////////////////////////////////////////////////////
  48:userTimer.c   **** uint8 g_bIsElapsed_1s  = FALSE;
  49:userTimer.c   **** void OneSecond_ISR() 
  50:userTimer.c   **** {
 120              		.loc 1 50 0
 121              		.cfi_startproc
ARM GAS  C:\Users\luvsd\AppData\Local\Temp\ccHG7fWv.s 			page 4


 122              		@ args = 0, pretend = 0, frame = 0
 123              		@ frame_needed = 0, uses_anonymous_args = 0
 124              		@ link register save eliminated.
  51:userTimer.c   ****     g_bIsElapsed_1s = TRUE;    
 125              		.loc 1 51 0
 126 0000 0122     		movs	r2, #1
 127 0002 014B     		ldr	r3, .L12
 128 0004 5A70     		strb	r2, [r3, #1]
  52:userTimer.c   **** }
 129              		.loc 1 52 0
 130              		@ sp needed
 131 0006 7047     		bx	lr
 132              	.L13:
 133              		.align	2
 134              	.L12:
 135 0008 00000000 		.word	.LANCHOR0
 136              		.cfi_endproc
 137              	.LFE65:
 138              		.size	OneSecond_ISR, .-OneSecond_ISR
 139              		.section	.text.isElasped_1s,"ax",%progbits
 140              		.align	2
 141              		.global	isElasped_1s
 142              		.code	16
 143              		.thumb_func
 144              		.type	isElasped_1s, %function
 145              	isElasped_1s:
 146              	.LFB66:
  53:userTimer.c   **** 
  54:userTimer.c   **** uint8 isElasped_1s()
  55:userTimer.c   **** {
 147              		.loc 1 55 0
 148              		.cfi_startproc
 149              		@ args = 0, pretend = 0, frame = 0
 150              		@ frame_needed = 0, uses_anonymous_args = 0
 151              		@ link register save eliminated.
  56:userTimer.c   ****     return g_bIsElapsed_1s;
 152              		.loc 1 56 0
 153 0000 014B     		ldr	r3, .L15
 154 0002 5878     		ldrb	r0, [r3, #1]
  57:userTimer.c   **** }
 155              		.loc 1 57 0
 156              		@ sp needed
 157 0004 7047     		bx	lr
 158              	.L16:
 159 0006 C046     		.align	2
 160              	.L15:
 161 0008 00000000 		.word	.LANCHOR0
 162              		.cfi_endproc
 163              	.LFE66:
 164              		.size	isElasped_1s, .-isElasped_1s
 165              		.section	.text.OneSecond_MainLoop,"ax",%progbits
 166              		.align	2
 167              		.global	OneSecond_MainLoop
 168              		.code	16
 169              		.thumb_func
 170              		.type	OneSecond_MainLoop, %function
 171              	OneSecond_MainLoop:
ARM GAS  C:\Users\luvsd\AppData\Local\Temp\ccHG7fWv.s 			page 5


 172              	.LFB67:
  58:userTimer.c   **** 
  59:userTimer.c   **** // main loopņŚÉņä£ 1s ļ¦łļŗż ņ×æļÅÖĒĢśļŖö ĒĢ©ņłś (delay ļ░£ņāØĒĢĀ ņłś ņ×łņØī, ņĀĢĒÖĢĒĢ£ ņŗ£Ļ░äņØ┤ ņ
  60:userTimer.c   **** void OneSecond_MainLoop() 
  61:userTimer.c   **** {
 173              		.loc 1 61 0
 174              		.cfi_startproc
 175              		@ args = 0, pretend = 0, frame = 0
 176              		@ frame_needed = 0, uses_anonymous_args = 0
 177 0000 10B5     		push	{r4, lr}
 178              		.cfi_def_cfa_offset 8
 179              		.cfi_offset 4, -8
 180              		.cfi_offset 14, -4
  62:userTimer.c   ****     if(g_bIsElapsed_1s)
 181              		.loc 1 62 0
 182 0002 054B     		ldr	r3, .L19
 183 0004 5B78     		ldrb	r3, [r3, #1]
 184 0006 002B     		cmp	r3, #0
 185 0008 04D0     		beq	.L17
  63:userTimer.c   ****     {
  64:userTimer.c   ****         g_bIsElapsed_1s = FALSE;
 186              		.loc 1 64 0
 187 000a 0022     		movs	r2, #0
 188 000c 024B     		ldr	r3, .L19
 189 000e 5A70     		strb	r2, [r3, #1]
  65:userTimer.c   ****         
  66:userTimer.c   ****         RTC_Update();
 190              		.loc 1 66 0
 191 0010 FFF7FEFF 		bl	RTC_Update
 192              	.LVL1:
 193              	.L17:
  67:userTimer.c   ****     }    
  68:userTimer.c   **** }
 194              		.loc 1 68 0
 195              		@ sp needed
 196 0014 10BD     		pop	{r4, pc}
 197              	.L20:
 198 0016 C046     		.align	2
 199              	.L19:
 200 0018 00000000 		.word	.LANCHOR0
 201              		.cfi_endproc
 202              	.LFE67:
 203              		.size	OneSecond_MainLoop, .-OneSecond_MainLoop
 204              		.section	.text.initTimer,"ax",%progbits
 205              		.align	2
 206              		.global	initTimer
 207              		.code	16
 208              		.thumb_func
 209              		.type	initTimer, %function
 210              	initTimer:
 211              	.LFB68:
  69:userTimer.c   **** ///////////////////////////////////////////////////////////////
  70:userTimer.c   **** // ņ┤łĻĖ░ĒÖö  ///////////////////////////////////////////////
  71:userTimer.c   **** ///////////////////////////////////////////////////////////////
  72:userTimer.c   **** void initTimer()
  73:userTimer.c   **** {
 212              		.loc 1 73 0
ARM GAS  C:\Users\luvsd\AppData\Local\Temp\ccHG7fWv.s 			page 6


 213              		.cfi_startproc
 214              		@ args = 0, pretend = 0, frame = 0
 215              		@ frame_needed = 0, uses_anonymous_args = 0
 216 0000 10B5     		push	{r4, lr}
 217              		.cfi_def_cfa_offset 8
 218              		.cfi_offset 4, -8
 219              		.cfi_offset 14, -4
  74:userTimer.c   ****     setSysTick();
 220              		.loc 1 74 0
 221 0002 FFF7FEFF 		bl	setSysTick
 222              	.LVL2:
  75:userTimer.c   ****     initRealTimeClock();
 223              		.loc 1 75 0
 224 0006 FFF7FEFF 		bl	initRealTimeClock
 225              	.LVL3:
  76:userTimer.c   **** }
 226              		.loc 1 76 0
 227              		@ sp needed
 228 000a 10BD     		pop	{r4, pc}
 229              		.cfi_endproc
 230              	.LFE68:
 231              		.size	initTimer, .-initTimer
 232              		.global	g_bIsElapsed_1s
 233              		.global	g_bIsElapsed_1ms
 234              		.comm	Param,6,4
 235              		.bss
 236              		.set	.LANCHOR0,. + 0
 237              		.type	g_bIsElapsed_1ms, %object
 238              		.size	g_bIsElapsed_1ms, 1
 239              	g_bIsElapsed_1ms:
 240 0000 00       		.space	1
 241              		.type	g_bIsElapsed_1s, %object
 242              		.size	g_bIsElapsed_1s, 1
 243              	g_bIsElapsed_1s:
 244 0001 00       		.space	1
 245              		.text
 246              	.Letext0:
 247              		.file 2 "Generated_Source\\PSoC4/cytypes.h"
 248              		.file 3 "./main.h"
 249              		.file 4 "lib/fonts.h"
 250              		.file 5 "Generated_Source\\PSoC4/RTC.h"
 251              		.file 6 "lib/UI.h"
 252              		.file 7 "lib/sysTick.h"
 253              		.file 8 "lib/RealTimeClock.h"