ARM GAS  C:\Users\theGu\AppData\Local\Temp\cc36yOg2.s 			page 1


   1              		.syntax unified
   2              		.cpu cortex-m0
   3              		.fpu softvfp
   4              		.eabi_attribute 20, 1
   5              		.eabi_attribute 21, 1
   6              		.eabi_attribute 23, 3
   7              		.eabi_attribute 24, 1
   8              		.eabi_attribute 25, 1
   9              		.eabi_attribute 26, 1
  10              		.eabi_attribute 30, 1
  11              		.eabi_attribute 34, 0
  12              		.eabi_attribute 18, 4
  13              		.thumb
  14              		.syntax unified
  15              		.file	"WIFI_SPI_UART.c"
  16              		.text
  17              	.Ltext0:
  18              		.cfi_sections	.debug_frame
  19              		.section	.text.WIFI_SpiUartReadRxData,"ax",%progbits
  20              		.align	2
  21              		.global	WIFI_SpiUartReadRxData
  22              		.code	16
  23              		.thumb_func
  24              		.type	WIFI_SpiUartReadRxData, %function
  25              	WIFI_SpiUartReadRxData:
  26              	.LFB1:
  27              		.file 1 "Generated_Source\\PSoC4\\WIFI_SPI_UART.c"
   1:Generated_Source\PSoC4/WIFI_SPI_UART.c **** /***************************************************************************//**
   2:Generated_Source\PSoC4/WIFI_SPI_UART.c **** * \file WIFI_SPI_UART.c
   3:Generated_Source\PSoC4/WIFI_SPI_UART.c **** * \version 4.0
   4:Generated_Source\PSoC4/WIFI_SPI_UART.c **** *
   5:Generated_Source\PSoC4/WIFI_SPI_UART.c **** * \brief
   6:Generated_Source\PSoC4/WIFI_SPI_UART.c **** *  This file provides the source code to the API for the SCB Component in
   7:Generated_Source\PSoC4/WIFI_SPI_UART.c **** *  SPI and UART modes.
   8:Generated_Source\PSoC4/WIFI_SPI_UART.c **** *
   9:Generated_Source\PSoC4/WIFI_SPI_UART.c **** * Note:
  10:Generated_Source\PSoC4/WIFI_SPI_UART.c **** *
  11:Generated_Source\PSoC4/WIFI_SPI_UART.c **** *******************************************************************************
  12:Generated_Source\PSoC4/WIFI_SPI_UART.c **** * \copyright
  13:Generated_Source\PSoC4/WIFI_SPI_UART.c **** * Copyright 2013-2017, Cypress Semiconductor Corporation.  All rights reserved.
  14:Generated_Source\PSoC4/WIFI_SPI_UART.c **** * You may use this file only in accordance with the license, terms, conditions,
  15:Generated_Source\PSoC4/WIFI_SPI_UART.c **** * disclaimers, and limitations in the end user license agreement accompanying
  16:Generated_Source\PSoC4/WIFI_SPI_UART.c **** * the software package with which this file was provided.
  17:Generated_Source\PSoC4/WIFI_SPI_UART.c **** *******************************************************************************/
  18:Generated_Source\PSoC4/WIFI_SPI_UART.c **** 
  19:Generated_Source\PSoC4/WIFI_SPI_UART.c **** #include "WIFI_PVT.h"
  20:Generated_Source\PSoC4/WIFI_SPI_UART.c **** #include "WIFI_SPI_UART_PVT.h"
  21:Generated_Source\PSoC4/WIFI_SPI_UART.c **** 
  22:Generated_Source\PSoC4/WIFI_SPI_UART.c **** /***************************************
  23:Generated_Source\PSoC4/WIFI_SPI_UART.c **** *        SPI/UART Private Vars
  24:Generated_Source\PSoC4/WIFI_SPI_UART.c **** ***************************************/
  25:Generated_Source\PSoC4/WIFI_SPI_UART.c **** 
  26:Generated_Source\PSoC4/WIFI_SPI_UART.c **** #if(WIFI_INTERNAL_RX_SW_BUFFER_CONST)
  27:Generated_Source\PSoC4/WIFI_SPI_UART.c ****     /* Start index to put data into the software receive buffer.*/
  28:Generated_Source\PSoC4/WIFI_SPI_UART.c ****     volatile uint32 WIFI_rxBufferHead;
  29:Generated_Source\PSoC4/WIFI_SPI_UART.c ****     /* Start index to get data from the software receive buffer.*/
  30:Generated_Source\PSoC4/WIFI_SPI_UART.c ****     volatile uint32 WIFI_rxBufferTail;
ARM GAS  C:\Users\theGu\AppData\Local\Temp\cc36yOg2.s 			page 2


  31:Generated_Source\PSoC4/WIFI_SPI_UART.c ****     /**
  32:Generated_Source\PSoC4/WIFI_SPI_UART.c ****     * \addtogroup group_globals
  33:Generated_Source\PSoC4/WIFI_SPI_UART.c ****     * \{
  34:Generated_Source\PSoC4/WIFI_SPI_UART.c ****     */
  35:Generated_Source\PSoC4/WIFI_SPI_UART.c ****     /** Sets when internal software receive buffer overflow
  36:Generated_Source\PSoC4/WIFI_SPI_UART.c ****     *  was occurred.
  37:Generated_Source\PSoC4/WIFI_SPI_UART.c ****     */
  38:Generated_Source\PSoC4/WIFI_SPI_UART.c ****     volatile uint8  WIFI_rxBufferOverflow;
  39:Generated_Source\PSoC4/WIFI_SPI_UART.c ****     /** \} globals */
  40:Generated_Source\PSoC4/WIFI_SPI_UART.c **** #endif /* (WIFI_INTERNAL_RX_SW_BUFFER_CONST) */
  41:Generated_Source\PSoC4/WIFI_SPI_UART.c **** 
  42:Generated_Source\PSoC4/WIFI_SPI_UART.c **** #if(WIFI_INTERNAL_TX_SW_BUFFER_CONST)
  43:Generated_Source\PSoC4/WIFI_SPI_UART.c ****     /* Start index to put data into the software transmit buffer.*/
  44:Generated_Source\PSoC4/WIFI_SPI_UART.c ****     volatile uint32 WIFI_txBufferHead;
  45:Generated_Source\PSoC4/WIFI_SPI_UART.c ****     /* Start index to get data from the software transmit buffer.*/
  46:Generated_Source\PSoC4/WIFI_SPI_UART.c ****     volatile uint32 WIFI_txBufferTail;
  47:Generated_Source\PSoC4/WIFI_SPI_UART.c **** #endif /* (WIFI_INTERNAL_TX_SW_BUFFER_CONST) */
  48:Generated_Source\PSoC4/WIFI_SPI_UART.c **** 
  49:Generated_Source\PSoC4/WIFI_SPI_UART.c **** #if(WIFI_INTERNAL_RX_SW_BUFFER)
  50:Generated_Source\PSoC4/WIFI_SPI_UART.c ****     /* Add one element to the buffer to receive full packet. One byte in receive buffer is always e
  51:Generated_Source\PSoC4/WIFI_SPI_UART.c ****     volatile uint8 WIFI_rxBufferInternal[WIFI_INTERNAL_RX_BUFFER_SIZE];
  52:Generated_Source\PSoC4/WIFI_SPI_UART.c **** #endif /* (WIFI_INTERNAL_RX_SW_BUFFER) */
  53:Generated_Source\PSoC4/WIFI_SPI_UART.c **** 
  54:Generated_Source\PSoC4/WIFI_SPI_UART.c **** #if(WIFI_INTERNAL_TX_SW_BUFFER)
  55:Generated_Source\PSoC4/WIFI_SPI_UART.c ****     volatile uint8 WIFI_txBufferInternal[WIFI_TX_BUFFER_SIZE];
  56:Generated_Source\PSoC4/WIFI_SPI_UART.c **** #endif /* (WIFI_INTERNAL_TX_SW_BUFFER) */
  57:Generated_Source\PSoC4/WIFI_SPI_UART.c **** 
  58:Generated_Source\PSoC4/WIFI_SPI_UART.c **** 
  59:Generated_Source\PSoC4/WIFI_SPI_UART.c **** #if(WIFI_RX_DIRECTION)
  60:Generated_Source\PSoC4/WIFI_SPI_UART.c ****     /*******************************************************************************
  61:Generated_Source\PSoC4/WIFI_SPI_UART.c ****     * Function Name: WIFI_SpiUartReadRxData
  62:Generated_Source\PSoC4/WIFI_SPI_UART.c ****     ****************************************************************************//**
  63:Generated_Source\PSoC4/WIFI_SPI_UART.c ****     *
  64:Generated_Source\PSoC4/WIFI_SPI_UART.c ****     *  Retrieves the next data element from the receive buffer.
  65:Generated_Source\PSoC4/WIFI_SPI_UART.c ****     *   - RX software buffer is disabled: Returns data element retrieved from
  66:Generated_Source\PSoC4/WIFI_SPI_UART.c ****     *     RX FIFO. Undefined data will be returned if the RX FIFO is empty.
  67:Generated_Source\PSoC4/WIFI_SPI_UART.c ****     *   - RX software buffer is enabled: Returns data element from the software
  68:Generated_Source\PSoC4/WIFI_SPI_UART.c ****     *     receive buffer. Zero value is returned if the software receive buffer
  69:Generated_Source\PSoC4/WIFI_SPI_UART.c ****     *     is empty.
  70:Generated_Source\PSoC4/WIFI_SPI_UART.c ****     *
  71:Generated_Source\PSoC4/WIFI_SPI_UART.c ****     * \return
  72:Generated_Source\PSoC4/WIFI_SPI_UART.c ****     *  Next data element from the receive buffer. 
  73:Generated_Source\PSoC4/WIFI_SPI_UART.c ****     *  The amount of data bits to be received depends on RX data bits selection 
  74:Generated_Source\PSoC4/WIFI_SPI_UART.c ****     *  (the data bit counting starts from LSB of return value).
  75:Generated_Source\PSoC4/WIFI_SPI_UART.c ****     *
  76:Generated_Source\PSoC4/WIFI_SPI_UART.c ****     * \globalvars
  77:Generated_Source\PSoC4/WIFI_SPI_UART.c ****     *  WIFI_rxBufferHead - the start index to put data into the 
  78:Generated_Source\PSoC4/WIFI_SPI_UART.c ****     *  software receive buffer.
  79:Generated_Source\PSoC4/WIFI_SPI_UART.c ****     *  WIFI_rxBufferTail - the start index to get data from the 
  80:Generated_Source\PSoC4/WIFI_SPI_UART.c ****     *  software receive buffer.
  81:Generated_Source\PSoC4/WIFI_SPI_UART.c ****     *
  82:Generated_Source\PSoC4/WIFI_SPI_UART.c ****     *******************************************************************************/
  83:Generated_Source\PSoC4/WIFI_SPI_UART.c ****     uint32 WIFI_SpiUartReadRxData(void)
  84:Generated_Source\PSoC4/WIFI_SPI_UART.c ****     {
  28              		.loc 1 84 0
  29              		.cfi_startproc
  30              		@ args = 0, pretend = 0, frame = 0
ARM GAS  C:\Users\theGu\AppData\Local\Temp\cc36yOg2.s 			page 3


  31              		@ frame_needed = 0, uses_anonymous_args = 0
  32              		@ link register save eliminated.
  33              	.LVL0:
  85:Generated_Source\PSoC4/WIFI_SPI_UART.c ****         uint32 rxData = 0u;
  86:Generated_Source\PSoC4/WIFI_SPI_UART.c **** 
  87:Generated_Source\PSoC4/WIFI_SPI_UART.c ****     #if (WIFI_INTERNAL_RX_SW_BUFFER_CONST)
  88:Generated_Source\PSoC4/WIFI_SPI_UART.c ****         uint32 locTail;
  89:Generated_Source\PSoC4/WIFI_SPI_UART.c ****     #endif /* (WIFI_INTERNAL_RX_SW_BUFFER_CONST) */
  90:Generated_Source\PSoC4/WIFI_SPI_UART.c **** 
  91:Generated_Source\PSoC4/WIFI_SPI_UART.c ****         #if (WIFI_CHECK_RX_SW_BUFFER)
  92:Generated_Source\PSoC4/WIFI_SPI_UART.c ****         {
  93:Generated_Source\PSoC4/WIFI_SPI_UART.c ****             if (WIFI_rxBufferHead != WIFI_rxBufferTail)
  34              		.loc 1 93 0
  35 0000 0A4B     		ldr	r3, .L6
  36 0002 1A68     		ldr	r2, [r3]
  37 0004 0A4B     		ldr	r3, .L6+4
  38 0006 1B68     		ldr	r3, [r3]
  39 0008 9A42     		cmp	r2, r3
  40 000a 0CD0     		beq	.L4
  94:Generated_Source\PSoC4/WIFI_SPI_UART.c ****             {
  95:Generated_Source\PSoC4/WIFI_SPI_UART.c ****                 /* There is data in RX software buffer */
  96:Generated_Source\PSoC4/WIFI_SPI_UART.c **** 
  97:Generated_Source\PSoC4/WIFI_SPI_UART.c ****                 /* Calculate index to read from */
  98:Generated_Source\PSoC4/WIFI_SPI_UART.c ****                 locTail = (WIFI_rxBufferTail + 1u);
  41              		.loc 1 98 0
  42 000c 084B     		ldr	r3, .L6+4
  43 000e 1B68     		ldr	r3, [r3]
  44 0010 0133     		adds	r3, r3, #1
  45              	.LVL1:
  99:Generated_Source\PSoC4/WIFI_SPI_UART.c **** 
 100:Generated_Source\PSoC4/WIFI_SPI_UART.c ****                 if (WIFI_INTERNAL_RX_BUFFER_SIZE == locTail)
  46              		.loc 1 100 0
  47 0012 084A     		ldr	r2, .L6+8
  48 0014 9342     		cmp	r3, r2
  49 0016 00D1     		bne	.L3
 101:Generated_Source\PSoC4/WIFI_SPI_UART.c ****                 {
 102:Generated_Source\PSoC4/WIFI_SPI_UART.c ****                     locTail = 0u;
  50              		.loc 1 102 0
  51 0018 0023     		movs	r3, #0
  52              	.LVL2:
  53              	.L3:
 103:Generated_Source\PSoC4/WIFI_SPI_UART.c ****                 }
 104:Generated_Source\PSoC4/WIFI_SPI_UART.c **** 
 105:Generated_Source\PSoC4/WIFI_SPI_UART.c ****                 /* Get data from RX software buffer */
 106:Generated_Source\PSoC4/WIFI_SPI_UART.c ****                 rxData = WIFI_GetWordFromRxBuffer(locTail);
  54              		.loc 1 106 0
  55 001a 074A     		ldr	r2, .L6+12
  56 001c D05C     		ldrb	r0, [r2, r3]
  57 001e C0B2     		uxtb	r0, r0
  58              	.LVL3:
 107:Generated_Source\PSoC4/WIFI_SPI_UART.c **** 
 108:Generated_Source\PSoC4/WIFI_SPI_UART.c ****                 /* Change index in the buffer */
 109:Generated_Source\PSoC4/WIFI_SPI_UART.c ****                 WIFI_rxBufferTail = locTail;
  59              		.loc 1 109 0
  60 0020 034A     		ldr	r2, .L6+4
  61 0022 1360     		str	r3, [r2]
  62 0024 00E0     		b	.L2
ARM GAS  C:\Users\theGu\AppData\Local\Temp\cc36yOg2.s 			page 4


  63              	.LVL4:
  64              	.L4:
  85:Generated_Source\PSoC4/WIFI_SPI_UART.c **** 
  65              		.loc 1 85 0
  66 0026 0020     		movs	r0, #0
  67              	.LVL5:
  68              	.L2:
 110:Generated_Source\PSoC4/WIFI_SPI_UART.c **** 
 111:Generated_Source\PSoC4/WIFI_SPI_UART.c ****                 #if (WIFI_CHECK_UART_RTS_CONTROL_FLOW)
 112:Generated_Source\PSoC4/WIFI_SPI_UART.c ****                 {
 113:Generated_Source\PSoC4/WIFI_SPI_UART.c ****                     /* Check if RX Not Empty is disabled in the interrupt */
 114:Generated_Source\PSoC4/WIFI_SPI_UART.c ****                     if (0u == (WIFI_INTR_RX_MASK_REG & WIFI_INTR_RX_NOT_EMPTY))
 115:Generated_Source\PSoC4/WIFI_SPI_UART.c ****                     {
 116:Generated_Source\PSoC4/WIFI_SPI_UART.c ****                         /* Enable RX Not Empty interrupt source to continue
 117:Generated_Source\PSoC4/WIFI_SPI_UART.c ****                         * receiving data into software buffer.
 118:Generated_Source\PSoC4/WIFI_SPI_UART.c ****                         */
 119:Generated_Source\PSoC4/WIFI_SPI_UART.c ****                         WIFI_INTR_RX_MASK_REG |= WIFI_INTR_RX_NOT_EMPTY;
 120:Generated_Source\PSoC4/WIFI_SPI_UART.c ****                     }
 121:Generated_Source\PSoC4/WIFI_SPI_UART.c ****                 }
 122:Generated_Source\PSoC4/WIFI_SPI_UART.c ****                 #endif
 123:Generated_Source\PSoC4/WIFI_SPI_UART.c **** 
 124:Generated_Source\PSoC4/WIFI_SPI_UART.c ****             }
 125:Generated_Source\PSoC4/WIFI_SPI_UART.c ****         }
 126:Generated_Source\PSoC4/WIFI_SPI_UART.c ****         #else
 127:Generated_Source\PSoC4/WIFI_SPI_UART.c ****         {
 128:Generated_Source\PSoC4/WIFI_SPI_UART.c ****             /* Read data from RX FIFO */
 129:Generated_Source\PSoC4/WIFI_SPI_UART.c ****             rxData = WIFI_RX_FIFO_RD_REG;
 130:Generated_Source\PSoC4/WIFI_SPI_UART.c ****         }
 131:Generated_Source\PSoC4/WIFI_SPI_UART.c ****         #endif
 132:Generated_Source\PSoC4/WIFI_SPI_UART.c **** 
 133:Generated_Source\PSoC4/WIFI_SPI_UART.c ****         return (rxData);
 134:Generated_Source\PSoC4/WIFI_SPI_UART.c ****     }
  69              		.loc 1 134 0
  70              		@ sp needed
  71 0028 7047     		bx	lr
  72              	.L7:
  73 002a C046     		.align	2
  74              	.L6:
  75 002c 00000000 		.word	WIFI_rxBufferHead
  76 0030 00000000 		.word	WIFI_rxBufferTail
  77 0034 01020000 		.word	513
  78 0038 00000000 		.word	WIFI_rxBufferInternal
  79              		.cfi_endproc
  80              	.LFE1:
  81              		.size	WIFI_SpiUartReadRxData, .-WIFI_SpiUartReadRxData
  82              		.section	.text.WIFI_SpiUartGetRxBufferSize,"ax",%progbits
  83              		.align	2
  84              		.global	WIFI_SpiUartGetRxBufferSize
  85              		.code	16
  86              		.thumb_func
  87              		.type	WIFI_SpiUartGetRxBufferSize, %function
  88              	WIFI_SpiUartGetRxBufferSize:
  89              	.LFB2:
 135:Generated_Source\PSoC4/WIFI_SPI_UART.c **** 
 136:Generated_Source\PSoC4/WIFI_SPI_UART.c **** 
 137:Generated_Source\PSoC4/WIFI_SPI_UART.c ****     /*******************************************************************************
 138:Generated_Source\PSoC4/WIFI_SPI_UART.c ****     * Function Name: WIFI_SpiUartGetRxBufferSize
ARM GAS  C:\Users\theGu\AppData\Local\Temp\cc36yOg2.s 			page 5


 139:Generated_Source\PSoC4/WIFI_SPI_UART.c ****     ****************************************************************************//**
 140:Generated_Source\PSoC4/WIFI_SPI_UART.c ****     *
 141:Generated_Source\PSoC4/WIFI_SPI_UART.c ****     *  Returns the number of received data elements in the receive buffer.
 142:Generated_Source\PSoC4/WIFI_SPI_UART.c ****     *   - RX software buffer disabled: returns the number of used entries in
 143:Generated_Source\PSoC4/WIFI_SPI_UART.c ****     *     RX FIFO.
 144:Generated_Source\PSoC4/WIFI_SPI_UART.c ****     *   - RX software buffer enabled: returns the number of elements which were
 145:Generated_Source\PSoC4/WIFI_SPI_UART.c ****     *     placed in the receive buffer. This does not include the hardware RX FIFO.
 146:Generated_Source\PSoC4/WIFI_SPI_UART.c ****     *
 147:Generated_Source\PSoC4/WIFI_SPI_UART.c ****     * \return
 148:Generated_Source\PSoC4/WIFI_SPI_UART.c ****     *  Number of received data elements.
 149:Generated_Source\PSoC4/WIFI_SPI_UART.c ****     *
 150:Generated_Source\PSoC4/WIFI_SPI_UART.c ****     * \globalvars
 151:Generated_Source\PSoC4/WIFI_SPI_UART.c ****     *  WIFI_rxBufferHead - the start index to put data into the 
 152:Generated_Source\PSoC4/WIFI_SPI_UART.c ****     *  software receive buffer.
 153:Generated_Source\PSoC4/WIFI_SPI_UART.c ****     *  WIFI_rxBufferTail - the start index to get data from the 
 154:Generated_Source\PSoC4/WIFI_SPI_UART.c ****     *  software receive buffer.
 155:Generated_Source\PSoC4/WIFI_SPI_UART.c ****     *
 156:Generated_Source\PSoC4/WIFI_SPI_UART.c ****     *******************************************************************************/
 157:Generated_Source\PSoC4/WIFI_SPI_UART.c ****     uint32 WIFI_SpiUartGetRxBufferSize(void)
 158:Generated_Source\PSoC4/WIFI_SPI_UART.c ****     {
  90              		.loc 1 158 0
  91              		.cfi_startproc
  92              		@ args = 0, pretend = 0, frame = 0
  93              		@ frame_needed = 0, uses_anonymous_args = 0
  94              		@ link register save eliminated.
 159:Generated_Source\PSoC4/WIFI_SPI_UART.c ****         uint32 size;
 160:Generated_Source\PSoC4/WIFI_SPI_UART.c ****     #if (WIFI_INTERNAL_RX_SW_BUFFER_CONST)
 161:Generated_Source\PSoC4/WIFI_SPI_UART.c ****         uint32 locHead;
 162:Generated_Source\PSoC4/WIFI_SPI_UART.c ****     #endif /* (WIFI_INTERNAL_RX_SW_BUFFER_CONST) */
 163:Generated_Source\PSoC4/WIFI_SPI_UART.c **** 
 164:Generated_Source\PSoC4/WIFI_SPI_UART.c ****         #if (WIFI_CHECK_RX_SW_BUFFER)
 165:Generated_Source\PSoC4/WIFI_SPI_UART.c ****         {
 166:Generated_Source\PSoC4/WIFI_SPI_UART.c ****             locHead = WIFI_rxBufferHead;
  95              		.loc 1 166 0
  96 0000 074B     		ldr	r3, .L11
  97 0002 1B68     		ldr	r3, [r3]
  98              	.LVL6:
 167:Generated_Source\PSoC4/WIFI_SPI_UART.c **** 
 168:Generated_Source\PSoC4/WIFI_SPI_UART.c ****             if(locHead >= WIFI_rxBufferTail)
  99              		.loc 1 168 0
 100 0004 074A     		ldr	r2, .L11+4
 101 0006 1268     		ldr	r2, [r2]
 102 0008 9342     		cmp	r3, r2
 103 000a 03D3     		bcc	.L9
 169:Generated_Source\PSoC4/WIFI_SPI_UART.c ****             {
 170:Generated_Source\PSoC4/WIFI_SPI_UART.c ****                 size = (locHead - WIFI_rxBufferTail);
 104              		.loc 1 170 0
 105 000c 054A     		ldr	r2, .L11+4
 106 000e 1068     		ldr	r0, [r2]
 107 0010 181A     		subs	r0, r3, r0
 108              	.LVL7:
 109 0012 04E0     		b	.L10
 110              	.LVL8:
 111              	.L9:
 171:Generated_Source\PSoC4/WIFI_SPI_UART.c ****             }
 172:Generated_Source\PSoC4/WIFI_SPI_UART.c ****             else
 173:Generated_Source\PSoC4/WIFI_SPI_UART.c ****             {
ARM GAS  C:\Users\theGu\AppData\Local\Temp\cc36yOg2.s 			page 6


 174:Generated_Source\PSoC4/WIFI_SPI_UART.c ****                 size = (locHead + (WIFI_INTERNAL_RX_BUFFER_SIZE - WIFI_rxBufferTail));
 112              		.loc 1 174 0
 113 0014 034A     		ldr	r2, .L11+4
 114 0016 1068     		ldr	r0, [r2]
 115 0018 1B1A     		subs	r3, r3, r0
 116              	.LVL9:
 117 001a 034A     		ldr	r2, .L11+8
 118 001c 9818     		adds	r0, r3, r2
 119              	.LVL10:
 120              	.L10:
 175:Generated_Source\PSoC4/WIFI_SPI_UART.c ****             }
 176:Generated_Source\PSoC4/WIFI_SPI_UART.c ****         }
 177:Generated_Source\PSoC4/WIFI_SPI_UART.c ****         #else
 178:Generated_Source\PSoC4/WIFI_SPI_UART.c ****         {
 179:Generated_Source\PSoC4/WIFI_SPI_UART.c ****             size = WIFI_GET_RX_FIFO_ENTRIES;
 180:Generated_Source\PSoC4/WIFI_SPI_UART.c ****         }
 181:Generated_Source\PSoC4/WIFI_SPI_UART.c ****         #endif
 182:Generated_Source\PSoC4/WIFI_SPI_UART.c **** 
 183:Generated_Source\PSoC4/WIFI_SPI_UART.c ****         return (size);
 184:Generated_Source\PSoC4/WIFI_SPI_UART.c ****     }
 121              		.loc 1 184 0
 122              		@ sp needed
 123 001e 7047     		bx	lr
 124              	.L12:
 125              		.align	2
 126              	.L11:
 127 0020 00000000 		.word	WIFI_rxBufferHead
 128 0024 00000000 		.word	WIFI_rxBufferTail
 129 0028 01020000 		.word	513
 130              		.cfi_endproc
 131              	.LFE2:
 132              		.size	WIFI_SpiUartGetRxBufferSize, .-WIFI_SpiUartGetRxBufferSize
 133              		.section	.text.WIFI_SpiUartClearRxBuffer,"ax",%progbits
 134              		.align	2
 135              		.global	WIFI_SpiUartClearRxBuffer
 136              		.code	16
 137              		.thumb_func
 138              		.type	WIFI_SpiUartClearRxBuffer, %function
 139              	WIFI_SpiUartClearRxBuffer:
 140              	.LFB3:
 185:Generated_Source\PSoC4/WIFI_SPI_UART.c **** 
 186:Generated_Source\PSoC4/WIFI_SPI_UART.c **** 
 187:Generated_Source\PSoC4/WIFI_SPI_UART.c ****     /*******************************************************************************
 188:Generated_Source\PSoC4/WIFI_SPI_UART.c ****     * Function Name: WIFI_SpiUartClearRxBuffer
 189:Generated_Source\PSoC4/WIFI_SPI_UART.c ****     ****************************************************************************//**
 190:Generated_Source\PSoC4/WIFI_SPI_UART.c ****     *
 191:Generated_Source\PSoC4/WIFI_SPI_UART.c ****     *  Clears the receive buffer and RX FIFO.
 192:Generated_Source\PSoC4/WIFI_SPI_UART.c ****     *
 193:Generated_Source\PSoC4/WIFI_SPI_UART.c ****     * \globalvars
 194:Generated_Source\PSoC4/WIFI_SPI_UART.c ****     *  WIFI_rxBufferHead - the start index to put data into the 
 195:Generated_Source\PSoC4/WIFI_SPI_UART.c ****     *  software receive buffer.
 196:Generated_Source\PSoC4/WIFI_SPI_UART.c ****     *  WIFI_rxBufferTail - the start index to get data from the 
 197:Generated_Source\PSoC4/WIFI_SPI_UART.c ****     *  software receive buffer.
 198:Generated_Source\PSoC4/WIFI_SPI_UART.c ****     *
 199:Generated_Source\PSoC4/WIFI_SPI_UART.c ****     *******************************************************************************/
 200:Generated_Source\PSoC4/WIFI_SPI_UART.c ****     void WIFI_SpiUartClearRxBuffer(void)
 201:Generated_Source\PSoC4/WIFI_SPI_UART.c ****     {
ARM GAS  C:\Users\theGu\AppData\Local\Temp\cc36yOg2.s 			page 7


 141              		.loc 1 201 0
 142              		.cfi_startproc
 143              		@ args = 0, pretend = 0, frame = 0
 144              		@ frame_needed = 0, uses_anonymous_args = 0
 145 0000 10B5     		push	{r4, lr}
 146              		.cfi_def_cfa_offset 8
 147              		.cfi_offset 4, -8
 148              		.cfi_offset 14, -4
 202:Generated_Source\PSoC4/WIFI_SPI_UART.c ****         #if (WIFI_CHECK_RX_SW_BUFFER)
 203:Generated_Source\PSoC4/WIFI_SPI_UART.c ****         {
 204:Generated_Source\PSoC4/WIFI_SPI_UART.c ****             /* Lock from component interruption */
 205:Generated_Source\PSoC4/WIFI_SPI_UART.c ****             WIFI_DisableInt();
 149              		.loc 1 205 0
 150 0002 0A20     		movs	r0, #10
 151 0004 FFF7FEFF 		bl	CyIntDisable
 152              	.LVL11:
 206:Generated_Source\PSoC4/WIFI_SPI_UART.c **** 
 207:Generated_Source\PSoC4/WIFI_SPI_UART.c ****             /* Flush RX software buffer */
 208:Generated_Source\PSoC4/WIFI_SPI_UART.c ****             WIFI_rxBufferHead = WIFI_rxBufferTail;
 153              		.loc 1 208 0
 154 0008 0B4B     		ldr	r3, .L14
 155 000a 1A68     		ldr	r2, [r3]
 156 000c 0B4B     		ldr	r3, .L14+4
 157 000e 1A60     		str	r2, [r3]
 209:Generated_Source\PSoC4/WIFI_SPI_UART.c ****             WIFI_rxBufferOverflow = 0u;
 158              		.loc 1 209 0
 159 0010 0022     		movs	r2, #0
 160 0012 0B4B     		ldr	r3, .L14+8
 161 0014 1A70     		strb	r2, [r3]
 210:Generated_Source\PSoC4/WIFI_SPI_UART.c **** 
 211:Generated_Source\PSoC4/WIFI_SPI_UART.c ****             WIFI_CLEAR_RX_FIFO;
 162              		.loc 1 211 0
 163 0016 0B4B     		ldr	r3, .L14+12
 164 0018 1A68     		ldr	r2, [r3]
 165 001a 8021     		movs	r1, #128
 166 001c 4902     		lsls	r1, r1, #9
 167 001e 0A43     		orrs	r2, r1
 168 0020 1A60     		str	r2, [r3]
 169 0022 1968     		ldr	r1, [r3]
 170 0024 084A     		ldr	r2, .L14+16
 171 0026 0A40     		ands	r2, r1
 172 0028 1A60     		str	r2, [r3]
 212:Generated_Source\PSoC4/WIFI_SPI_UART.c ****             WIFI_ClearRxInterruptSource(WIFI_INTR_RX_ALL);
 173              		.loc 1 212 0
 174 002a 084A     		ldr	r2, .L14+20
 175 002c 084B     		ldr	r3, .L14+24
 176 002e 1A60     		str	r2, [r3]
 213:Generated_Source\PSoC4/WIFI_SPI_UART.c **** 
 214:Generated_Source\PSoC4/WIFI_SPI_UART.c ****             #if (WIFI_CHECK_UART_RTS_CONTROL_FLOW)
 215:Generated_Source\PSoC4/WIFI_SPI_UART.c ****             {
 216:Generated_Source\PSoC4/WIFI_SPI_UART.c ****                 /* Enable RX Not Empty interrupt source to continue receiving
 217:Generated_Source\PSoC4/WIFI_SPI_UART.c ****                 * data into software buffer.
 218:Generated_Source\PSoC4/WIFI_SPI_UART.c ****                 */
 219:Generated_Source\PSoC4/WIFI_SPI_UART.c ****                 WIFI_INTR_RX_MASK_REG |= WIFI_INTR_RX_NOT_EMPTY;
 220:Generated_Source\PSoC4/WIFI_SPI_UART.c ****             }
 221:Generated_Source\PSoC4/WIFI_SPI_UART.c ****             #endif
 222:Generated_Source\PSoC4/WIFI_SPI_UART.c ****             
ARM GAS  C:\Users\theGu\AppData\Local\Temp\cc36yOg2.s 			page 8


 223:Generated_Source\PSoC4/WIFI_SPI_UART.c ****             /* Release lock */
 224:Generated_Source\PSoC4/WIFI_SPI_UART.c ****             WIFI_EnableInt();
 177              		.loc 1 224 0
 178 0030 0A20     		movs	r0, #10
 179 0032 FFF7FEFF 		bl	CyIntEnable
 180              	.LVL12:
 225:Generated_Source\PSoC4/WIFI_SPI_UART.c ****         }
 226:Generated_Source\PSoC4/WIFI_SPI_UART.c ****         #else
 227:Generated_Source\PSoC4/WIFI_SPI_UART.c ****         {
 228:Generated_Source\PSoC4/WIFI_SPI_UART.c ****             WIFI_CLEAR_RX_FIFO;
 229:Generated_Source\PSoC4/WIFI_SPI_UART.c ****         }
 230:Generated_Source\PSoC4/WIFI_SPI_UART.c ****         #endif
 231:Generated_Source\PSoC4/WIFI_SPI_UART.c ****     }
 181              		.loc 1 231 0
 182              		@ sp needed
 183 0036 10BD     		pop	{r4, pc}
 184              	.L15:
 185              		.align	2
 186              	.L14:
 187 0038 00000000 		.word	WIFI_rxBufferTail
 188 003c 00000000 		.word	WIFI_rxBufferHead
 189 0040 00000000 		.word	WIFI_rxBufferOverflow
 190 0044 04032540 		.word	1076167428
 191 0048 FFFFFEFF 		.word	-65537
 192 004c ED0F0000 		.word	4077
 193 0050 C00F2540 		.word	1076170688
 194              		.cfi_endproc
 195              	.LFE3:
 196              		.size	WIFI_SpiUartClearRxBuffer, .-WIFI_SpiUartClearRxBuffer
 197              		.section	.text.WIFI_SpiUartWriteTxData,"ax",%progbits
 198              		.align	2
 199              		.global	WIFI_SpiUartWriteTxData
 200              		.code	16
 201              		.thumb_func
 202              		.type	WIFI_SpiUartWriteTxData, %function
 203              	WIFI_SpiUartWriteTxData:
 204              	.LFB4:
 232:Generated_Source\PSoC4/WIFI_SPI_UART.c **** 
 233:Generated_Source\PSoC4/WIFI_SPI_UART.c **** #endif /* (WIFI_RX_DIRECTION) */
 234:Generated_Source\PSoC4/WIFI_SPI_UART.c **** 
 235:Generated_Source\PSoC4/WIFI_SPI_UART.c **** 
 236:Generated_Source\PSoC4/WIFI_SPI_UART.c **** #if(WIFI_TX_DIRECTION)
 237:Generated_Source\PSoC4/WIFI_SPI_UART.c ****     /*******************************************************************************
 238:Generated_Source\PSoC4/WIFI_SPI_UART.c ****     * Function Name: WIFI_SpiUartWriteTxData
 239:Generated_Source\PSoC4/WIFI_SPI_UART.c ****     ****************************************************************************//**
 240:Generated_Source\PSoC4/WIFI_SPI_UART.c ****     *
 241:Generated_Source\PSoC4/WIFI_SPI_UART.c ****     *  Places a data entry into the transmit buffer to be sent at the next available
 242:Generated_Source\PSoC4/WIFI_SPI_UART.c ****     *  bus time.
 243:Generated_Source\PSoC4/WIFI_SPI_UART.c ****     *  This function is blocking and waits until there is space available to put the
 244:Generated_Source\PSoC4/WIFI_SPI_UART.c ****     *  requested data in the transmit buffer.
 245:Generated_Source\PSoC4/WIFI_SPI_UART.c ****     *
 246:Generated_Source\PSoC4/WIFI_SPI_UART.c ****     *  \param txDataByte: the data to be transmitted.
 247:Generated_Source\PSoC4/WIFI_SPI_UART.c ****     *   The amount of data bits to be transmitted depends on TX data bits selection 
 248:Generated_Source\PSoC4/WIFI_SPI_UART.c ****     *   (the data bit counting starts from LSB of txDataByte).
 249:Generated_Source\PSoC4/WIFI_SPI_UART.c ****     *
 250:Generated_Source\PSoC4/WIFI_SPI_UART.c ****     * \globalvars
 251:Generated_Source\PSoC4/WIFI_SPI_UART.c ****     *  WIFI_txBufferHead - the start index to put data into the 
ARM GAS  C:\Users\theGu\AppData\Local\Temp\cc36yOg2.s 			page 9


 252:Generated_Source\PSoC4/WIFI_SPI_UART.c ****     *  software transmit buffer.
 253:Generated_Source\PSoC4/WIFI_SPI_UART.c ****     *  WIFI_txBufferTail - start index to get data from the software
 254:Generated_Source\PSoC4/WIFI_SPI_UART.c ****     *  transmit buffer.
 255:Generated_Source\PSoC4/WIFI_SPI_UART.c ****     *
 256:Generated_Source\PSoC4/WIFI_SPI_UART.c ****     *******************************************************************************/
 257:Generated_Source\PSoC4/WIFI_SPI_UART.c ****     void WIFI_SpiUartWriteTxData(uint32 txData)
 258:Generated_Source\PSoC4/WIFI_SPI_UART.c ****     {
 205              		.loc 1 258 0
 206              		.cfi_startproc
 207              		@ args = 0, pretend = 0, frame = 0
 208              		@ frame_needed = 0, uses_anonymous_args = 0
 209              		@ link register save eliminated.
 210              	.LVL13:
 259:Generated_Source\PSoC4/WIFI_SPI_UART.c ****     #if (WIFI_INTERNAL_TX_SW_BUFFER_CONST)
 260:Generated_Source\PSoC4/WIFI_SPI_UART.c ****         uint32 locHead;
 261:Generated_Source\PSoC4/WIFI_SPI_UART.c ****     #endif /* (WIFI_INTERNAL_TX_SW_BUFFER_CONST) */
 262:Generated_Source\PSoC4/WIFI_SPI_UART.c **** 
 263:Generated_Source\PSoC4/WIFI_SPI_UART.c ****         #if (WIFI_CHECK_TX_SW_BUFFER)
 264:Generated_Source\PSoC4/WIFI_SPI_UART.c ****         {
 265:Generated_Source\PSoC4/WIFI_SPI_UART.c ****             /* Put data directly into the TX FIFO */
 266:Generated_Source\PSoC4/WIFI_SPI_UART.c ****             if ((WIFI_txBufferHead == WIFI_txBufferTail) &&
 211              		.loc 1 266 0
 212 0000 154B     		ldr	r3, .L22
 213 0002 1A68     		ldr	r2, [r3]
 214 0004 154B     		ldr	r3, .L22+4
 215 0006 1B68     		ldr	r3, [r3]
 216 0008 9A42     		cmp	r2, r3
 217 000a 08D1     		bne	.L17
 267:Generated_Source\PSoC4/WIFI_SPI_UART.c ****                 (WIFI_SPI_UART_FIFO_SIZE != WIFI_GET_TX_FIFO_ENTRIES))
 218              		.loc 1 267 0 discriminator 1
 219 000c 144B     		ldr	r3, .L22+8
 220 000e 1B68     		ldr	r3, [r3]
 221 0010 1F22     		movs	r2, #31
 222 0012 1340     		ands	r3, r2
 266:Generated_Source\PSoC4/WIFI_SPI_UART.c ****                 (WIFI_SPI_UART_FIFO_SIZE != WIFI_GET_TX_FIFO_ENTRIES))
 223              		.loc 1 266 0 discriminator 1
 224 0014 082B     		cmp	r3, #8
 225 0016 02D0     		beq	.L17
 268:Generated_Source\PSoC4/WIFI_SPI_UART.c ****             {
 269:Generated_Source\PSoC4/WIFI_SPI_UART.c ****                 /* TX software buffer is empty: put data directly in TX FIFO */
 270:Generated_Source\PSoC4/WIFI_SPI_UART.c ****                 WIFI_TX_FIFO_WR_REG = txData;
 226              		.loc 1 270 0
 227 0018 124B     		ldr	r3, .L22+12
 228 001a 1860     		str	r0, [r3]
 229 001c 1BE0     		b	.L16
 230              	.L17:
 271:Generated_Source\PSoC4/WIFI_SPI_UART.c ****             }
 272:Generated_Source\PSoC4/WIFI_SPI_UART.c ****             /* Put data into TX software buffer */
 273:Generated_Source\PSoC4/WIFI_SPI_UART.c ****             else
 274:Generated_Source\PSoC4/WIFI_SPI_UART.c ****             {
 275:Generated_Source\PSoC4/WIFI_SPI_UART.c ****                 /* Head index to put data */
 276:Generated_Source\PSoC4/WIFI_SPI_UART.c ****                 locHead = (WIFI_txBufferHead + 1u);
 231              		.loc 1 276 0
 232 001e 0E4B     		ldr	r3, .L22
 233 0020 1A68     		ldr	r2, [r3]
 234 0022 0132     		adds	r2, r2, #1
 235              	.LVL14:
ARM GAS  C:\Users\theGu\AppData\Local\Temp\cc36yOg2.s 			page 10


 277:Generated_Source\PSoC4/WIFI_SPI_UART.c **** 
 278:Generated_Source\PSoC4/WIFI_SPI_UART.c ****                 /* Adjust TX software buffer index */
 279:Generated_Source\PSoC4/WIFI_SPI_UART.c ****                 if (WIFI_TX_BUFFER_SIZE == locHead)
 236              		.loc 1 279 0
 237 0024 8023     		movs	r3, #128
 238 0026 5B00     		lsls	r3, r3, #1
 239 0028 9A42     		cmp	r2, r3
 240 002a 00D1     		bne	.L20
 280:Generated_Source\PSoC4/WIFI_SPI_UART.c ****                 {
 281:Generated_Source\PSoC4/WIFI_SPI_UART.c ****                     locHead = 0u;
 241              		.loc 1 281 0
 242 002c 0022     		movs	r2, #0
 243              	.LVL15:
 244              	.L20:
 282:Generated_Source\PSoC4/WIFI_SPI_UART.c ****                 }
 283:Generated_Source\PSoC4/WIFI_SPI_UART.c **** 
 284:Generated_Source\PSoC4/WIFI_SPI_UART.c ****                 /* Wait for space in TX software buffer */
 285:Generated_Source\PSoC4/WIFI_SPI_UART.c ****                 while (locHead == WIFI_txBufferTail)
 245              		.loc 1 285 0 discriminator 1
 246 002e 0B4B     		ldr	r3, .L22+4
 247 0030 1B68     		ldr	r3, [r3]
 248 0032 9A42     		cmp	r2, r3
 249 0034 FBD0     		beq	.L20
 286:Generated_Source\PSoC4/WIFI_SPI_UART.c ****                 {
 287:Generated_Source\PSoC4/WIFI_SPI_UART.c ****                 }
 288:Generated_Source\PSoC4/WIFI_SPI_UART.c **** 
 289:Generated_Source\PSoC4/WIFI_SPI_UART.c ****                 /* TX software buffer has at least one room */
 290:Generated_Source\PSoC4/WIFI_SPI_UART.c **** 
 291:Generated_Source\PSoC4/WIFI_SPI_UART.c ****                 /* Clear old status of INTR_TX_NOT_FULL. It sets at the end of transfer when TX FIF
 292:Generated_Source\PSoC4/WIFI_SPI_UART.c ****                 WIFI_ClearTxInterruptSource(WIFI_INTR_TX_NOT_FULL);
 250              		.loc 1 292 0
 251 0036 0223     		movs	r3, #2
 252 0038 0B49     		ldr	r1, .L22+16
 253 003a 0B60     		str	r3, [r1]
 293:Generated_Source\PSoC4/WIFI_SPI_UART.c **** 
 294:Generated_Source\PSoC4/WIFI_SPI_UART.c ****                 WIFI_PutWordInTxBuffer(locHead, txData);
 254              		.loc 1 294 0
 255 003c C0B2     		uxtb	r0, r0
 256              	.LVL16:
 257 003e 0B49     		ldr	r1, .L22+20
 258 0040 8854     		strb	r0, [r1, r2]
 295:Generated_Source\PSoC4/WIFI_SPI_UART.c **** 
 296:Generated_Source\PSoC4/WIFI_SPI_UART.c ****                 WIFI_txBufferHead = locHead;
 259              		.loc 1 296 0
 260 0042 0549     		ldr	r1, .L22
 261 0044 0A60     		str	r2, [r1]
 297:Generated_Source\PSoC4/WIFI_SPI_UART.c **** 
 298:Generated_Source\PSoC4/WIFI_SPI_UART.c ****                 /* Check if TX Not Full is disabled in interrupt */
 299:Generated_Source\PSoC4/WIFI_SPI_UART.c ****                 if (0u == (WIFI_INTR_TX_MASK_REG & WIFI_INTR_TX_NOT_FULL))
 262              		.loc 1 299 0
 263 0046 0A4A     		ldr	r2, .L22+24
 264              	.LVL17:
 265 0048 1268     		ldr	r2, [r2]
 266 004a 1342     		tst	r3, r2
 267 004c 03D1     		bne	.L16
 300:Generated_Source\PSoC4/WIFI_SPI_UART.c ****                 {
 301:Generated_Source\PSoC4/WIFI_SPI_UART.c ****                     /* Enable TX Not Full interrupt source to transmit from software buffer */
ARM GAS  C:\Users\theGu\AppData\Local\Temp\cc36yOg2.s 			page 11


 302:Generated_Source\PSoC4/WIFI_SPI_UART.c ****                     WIFI_INTR_TX_MASK_REG |= (uint32) WIFI_INTR_TX_NOT_FULL;
 268              		.loc 1 302 0
 269 004e 084A     		ldr	r2, .L22+24
 270 0050 1168     		ldr	r1, [r2]
 271 0052 0B43     		orrs	r3, r1
 272 0054 1360     		str	r3, [r2]
 273              	.LVL18:
 274              	.L16:
 303:Generated_Source\PSoC4/WIFI_SPI_UART.c ****                 }
 304:Generated_Source\PSoC4/WIFI_SPI_UART.c ****             }
 305:Generated_Source\PSoC4/WIFI_SPI_UART.c ****         }
 306:Generated_Source\PSoC4/WIFI_SPI_UART.c ****         #else
 307:Generated_Source\PSoC4/WIFI_SPI_UART.c ****         {
 308:Generated_Source\PSoC4/WIFI_SPI_UART.c ****             /* Wait until TX FIFO has space to put data element */
 309:Generated_Source\PSoC4/WIFI_SPI_UART.c ****             while (WIFI_SPI_UART_FIFO_SIZE == WIFI_GET_TX_FIFO_ENTRIES)
 310:Generated_Source\PSoC4/WIFI_SPI_UART.c ****             {
 311:Generated_Source\PSoC4/WIFI_SPI_UART.c ****             }
 312:Generated_Source\PSoC4/WIFI_SPI_UART.c **** 
 313:Generated_Source\PSoC4/WIFI_SPI_UART.c ****             WIFI_TX_FIFO_WR_REG = txData;
 314:Generated_Source\PSoC4/WIFI_SPI_UART.c ****         }
 315:Generated_Source\PSoC4/WIFI_SPI_UART.c ****         #endif
 316:Generated_Source\PSoC4/WIFI_SPI_UART.c ****     }
 275              		.loc 1 316 0
 276              		@ sp needed
 277 0056 7047     		bx	lr
 278              	.L23:
 279              		.align	2
 280              	.L22:
 281 0058 00000000 		.word	WIFI_txBufferHead
 282 005c 00000000 		.word	WIFI_txBufferTail
 283 0060 08022540 		.word	1076167176
 284 0064 40022540 		.word	1076167232
 285 0068 800F2540 		.word	1076170624
 286 006c 00000000 		.word	WIFI_txBufferInternal
 287 0070 880F2540 		.word	1076170632
 288              		.cfi_endproc
 289              	.LFE4:
 290              		.size	WIFI_SpiUartWriteTxData, .-WIFI_SpiUartWriteTxData
 291              		.section	.text.WIFI_SpiUartPutArray,"ax",%progbits
 292              		.align	2
 293              		.global	WIFI_SpiUartPutArray
 294              		.code	16
 295              		.thumb_func
 296              		.type	WIFI_SpiUartPutArray, %function
 297              	WIFI_SpiUartPutArray:
 298              	.LFB5:
 317:Generated_Source\PSoC4/WIFI_SPI_UART.c **** 
 318:Generated_Source\PSoC4/WIFI_SPI_UART.c **** 
 319:Generated_Source\PSoC4/WIFI_SPI_UART.c ****     /*******************************************************************************
 320:Generated_Source\PSoC4/WIFI_SPI_UART.c ****     * Function Name: WIFI_SpiUartPutArray
 321:Generated_Source\PSoC4/WIFI_SPI_UART.c ****     ****************************************************************************//**
 322:Generated_Source\PSoC4/WIFI_SPI_UART.c ****     *
 323:Generated_Source\PSoC4/WIFI_SPI_UART.c ****     *  Places an array of data into the transmit buffer to be sent.
 324:Generated_Source\PSoC4/WIFI_SPI_UART.c ****     *  This function is blocking and waits until there is a space available to put
 325:Generated_Source\PSoC4/WIFI_SPI_UART.c ****     *  all the requested data in the transmit buffer. The array size can be greater
 326:Generated_Source\PSoC4/WIFI_SPI_UART.c ****     *  than transmit buffer size.
 327:Generated_Source\PSoC4/WIFI_SPI_UART.c ****     *
ARM GAS  C:\Users\theGu\AppData\Local\Temp\cc36yOg2.s 			page 12


 328:Generated_Source\PSoC4/WIFI_SPI_UART.c ****     * \param wrBuf: pointer to an array of data to be placed in transmit buffer. 
 329:Generated_Source\PSoC4/WIFI_SPI_UART.c ****     *  The width of the data to be transmitted depends on TX data width selection 
 330:Generated_Source\PSoC4/WIFI_SPI_UART.c ****     *  (the data bit counting starts from LSB for each array element).
 331:Generated_Source\PSoC4/WIFI_SPI_UART.c ****     * \param count: number of data elements to be placed in the transmit buffer.
 332:Generated_Source\PSoC4/WIFI_SPI_UART.c ****     *
 333:Generated_Source\PSoC4/WIFI_SPI_UART.c ****     * \globalvars
 334:Generated_Source\PSoC4/WIFI_SPI_UART.c ****     *  WIFI_txBufferHead - the start index to put data into the 
 335:Generated_Source\PSoC4/WIFI_SPI_UART.c ****     *  software transmit buffer.
 336:Generated_Source\PSoC4/WIFI_SPI_UART.c ****     *  WIFI_txBufferTail - start index to get data from the software
 337:Generated_Source\PSoC4/WIFI_SPI_UART.c ****     *  transmit buffer.
 338:Generated_Source\PSoC4/WIFI_SPI_UART.c ****     *
 339:Generated_Source\PSoC4/WIFI_SPI_UART.c ****     *******************************************************************************/
 340:Generated_Source\PSoC4/WIFI_SPI_UART.c ****     void WIFI_SpiUartPutArray(const uint8 wrBuf[], uint32 count)
 341:Generated_Source\PSoC4/WIFI_SPI_UART.c ****     {
 299              		.loc 1 341 0
 300              		.cfi_startproc
 301              		@ args = 0, pretend = 0, frame = 0
 302              		@ frame_needed = 0, uses_anonymous_args = 0
 303              	.LVL19:
 304 0000 70B5     		push	{r4, r5, r6, lr}
 305              		.cfi_def_cfa_offset 16
 306              		.cfi_offset 4, -16
 307              		.cfi_offset 5, -12
 308              		.cfi_offset 6, -8
 309              		.cfi_offset 14, -4
 310 0002 0600     		movs	r6, r0
 311 0004 0D00     		movs	r5, r1
 312              	.LVL20:
 342:Generated_Source\PSoC4/WIFI_SPI_UART.c ****         uint32 i;
 343:Generated_Source\PSoC4/WIFI_SPI_UART.c **** 
 344:Generated_Source\PSoC4/WIFI_SPI_UART.c ****         for (i=0u; i < count; i++)
 313              		.loc 1 344 0
 314 0006 0024     		movs	r4, #0
 315 0008 03E0     		b	.L25
 316              	.LVL21:
 317              	.L26:
 345:Generated_Source\PSoC4/WIFI_SPI_UART.c ****         {
 346:Generated_Source\PSoC4/WIFI_SPI_UART.c ****             WIFI_SpiUartWriteTxData((uint32) wrBuf[i]);
 318              		.loc 1 346 0 discriminator 3
 319 000a 305D     		ldrb	r0, [r6, r4]
 320 000c FFF7FEFF 		bl	WIFI_SpiUartWriteTxData
 321              	.LVL22:
 344:Generated_Source\PSoC4/WIFI_SPI_UART.c ****         {
 322              		.loc 1 344 0 discriminator 3
 323 0010 0134     		adds	r4, r4, #1
 324              	.LVL23:
 325              	.L25:
 344:Generated_Source\PSoC4/WIFI_SPI_UART.c ****         {
 326              		.loc 1 344 0 is_stmt 0 discriminator 1
 327 0012 AC42     		cmp	r4, r5
 328 0014 F9D3     		bcc	.L26
 347:Generated_Source\PSoC4/WIFI_SPI_UART.c ****         }
 348:Generated_Source\PSoC4/WIFI_SPI_UART.c ****     }
 329              		.loc 1 348 0 is_stmt 1
 330              		@ sp needed
 331              	.LVL24:
 332              	.LVL25:
ARM GAS  C:\Users\theGu\AppData\Local\Temp\cc36yOg2.s 			page 13


 333              	.LVL26:
 334 0016 70BD     		pop	{r4, r5, r6, pc}
 335              		.cfi_endproc
 336              	.LFE5:
 337              		.size	WIFI_SpiUartPutArray, .-WIFI_SpiUartPutArray
 338              		.section	.text.WIFI_SpiUartGetTxBufferSize,"ax",%progbits
 339              		.align	2
 340              		.global	WIFI_SpiUartGetTxBufferSize
 341              		.code	16
 342              		.thumb_func
 343              		.type	WIFI_SpiUartGetTxBufferSize, %function
 344              	WIFI_SpiUartGetTxBufferSize:
 345              	.LFB6:
 349:Generated_Source\PSoC4/WIFI_SPI_UART.c **** 
 350:Generated_Source\PSoC4/WIFI_SPI_UART.c **** 
 351:Generated_Source\PSoC4/WIFI_SPI_UART.c ****     /*******************************************************************************
 352:Generated_Source\PSoC4/WIFI_SPI_UART.c ****     * Function Name: WIFI_SpiUartGetTxBufferSize
 353:Generated_Source\PSoC4/WIFI_SPI_UART.c ****     ****************************************************************************//**
 354:Generated_Source\PSoC4/WIFI_SPI_UART.c ****     *
 355:Generated_Source\PSoC4/WIFI_SPI_UART.c ****     *  Returns the number of elements currently in the transmit buffer.
 356:Generated_Source\PSoC4/WIFI_SPI_UART.c ****     *   - TX software buffer is disabled: returns the number of used entries in
 357:Generated_Source\PSoC4/WIFI_SPI_UART.c ****     *     TX FIFO.
 358:Generated_Source\PSoC4/WIFI_SPI_UART.c ****     *   - TX software buffer is enabled: returns the number of elements currently
 359:Generated_Source\PSoC4/WIFI_SPI_UART.c ****     *     used in the transmit buffer. This number does not include used entries in
 360:Generated_Source\PSoC4/WIFI_SPI_UART.c ****     *     the TX FIFO. The transmit buffer size is zero until the TX FIFO is
 361:Generated_Source\PSoC4/WIFI_SPI_UART.c ****     *     not full.
 362:Generated_Source\PSoC4/WIFI_SPI_UART.c ****     *
 363:Generated_Source\PSoC4/WIFI_SPI_UART.c ****     * \return
 364:Generated_Source\PSoC4/WIFI_SPI_UART.c ****     *  Number of data elements ready to transmit.
 365:Generated_Source\PSoC4/WIFI_SPI_UART.c ****     *
 366:Generated_Source\PSoC4/WIFI_SPI_UART.c ****     * \globalvars
 367:Generated_Source\PSoC4/WIFI_SPI_UART.c ****     *  WIFI_txBufferHead - the start index to put data into the 
 368:Generated_Source\PSoC4/WIFI_SPI_UART.c ****     *  software transmit buffer.
 369:Generated_Source\PSoC4/WIFI_SPI_UART.c ****     *  WIFI_txBufferTail - start index to get data from the software
 370:Generated_Source\PSoC4/WIFI_SPI_UART.c ****     *  transmit buffer.
 371:Generated_Source\PSoC4/WIFI_SPI_UART.c ****     *
 372:Generated_Source\PSoC4/WIFI_SPI_UART.c ****     *******************************************************************************/
 373:Generated_Source\PSoC4/WIFI_SPI_UART.c ****     uint32 WIFI_SpiUartGetTxBufferSize(void)
 374:Generated_Source\PSoC4/WIFI_SPI_UART.c ****     {
 346              		.loc 1 374 0
 347              		.cfi_startproc
 348              		@ args = 0, pretend = 0, frame = 0
 349              		@ frame_needed = 0, uses_anonymous_args = 0
 350              		@ link register save eliminated.
 375:Generated_Source\PSoC4/WIFI_SPI_UART.c ****         uint32 size;
 376:Generated_Source\PSoC4/WIFI_SPI_UART.c ****     #if (WIFI_INTERNAL_TX_SW_BUFFER_CONST)
 377:Generated_Source\PSoC4/WIFI_SPI_UART.c ****         uint32 locTail;
 378:Generated_Source\PSoC4/WIFI_SPI_UART.c ****     #endif /* (WIFI_INTERNAL_TX_SW_BUFFER_CONST) */
 379:Generated_Source\PSoC4/WIFI_SPI_UART.c **** 
 380:Generated_Source\PSoC4/WIFI_SPI_UART.c ****         #if (WIFI_CHECK_TX_SW_BUFFER)
 381:Generated_Source\PSoC4/WIFI_SPI_UART.c ****         {
 382:Generated_Source\PSoC4/WIFI_SPI_UART.c ****             /* Get current Tail index */
 383:Generated_Source\PSoC4/WIFI_SPI_UART.c ****             locTail = WIFI_txBufferTail;
 351              		.loc 1 383 0
 352 0000 074B     		ldr	r3, .L30
 353 0002 1868     		ldr	r0, [r3]
 354              	.LVL27:
ARM GAS  C:\Users\theGu\AppData\Local\Temp\cc36yOg2.s 			page 14


 384:Generated_Source\PSoC4/WIFI_SPI_UART.c **** 
 385:Generated_Source\PSoC4/WIFI_SPI_UART.c ****             if (WIFI_txBufferHead >= locTail)
 355              		.loc 1 385 0
 356 0004 074B     		ldr	r3, .L30+4
 357 0006 1B68     		ldr	r3, [r3]
 358 0008 9842     		cmp	r0, r3
 359 000a 03D8     		bhi	.L28
 386:Generated_Source\PSoC4/WIFI_SPI_UART.c ****             {
 387:Generated_Source\PSoC4/WIFI_SPI_UART.c ****                 size = (WIFI_txBufferHead - locTail);
 360              		.loc 1 387 0
 361 000c 054B     		ldr	r3, .L30+4
 362 000e 1B68     		ldr	r3, [r3]
 363 0010 181A     		subs	r0, r3, r0
 364              	.LVL28:
 365 0012 04E0     		b	.L29
 366              	.LVL29:
 367              	.L28:
 388:Generated_Source\PSoC4/WIFI_SPI_UART.c ****             }
 389:Generated_Source\PSoC4/WIFI_SPI_UART.c ****             else
 390:Generated_Source\PSoC4/WIFI_SPI_UART.c ****             {
 391:Generated_Source\PSoC4/WIFI_SPI_UART.c ****                 size = (WIFI_txBufferHead + (WIFI_TX_BUFFER_SIZE - locTail));
 368              		.loc 1 391 0
 369 0014 034B     		ldr	r3, .L30+4
 370 0016 1B68     		ldr	r3, [r3]
 371 0018 181A     		subs	r0, r3, r0
 372              	.LVL30:
 373 001a 0130     		adds	r0, r0, #1
 374 001c FF30     		adds	r0, r0, #255
 375              	.LVL31:
 376              	.L29:
 392:Generated_Source\PSoC4/WIFI_SPI_UART.c ****             }
 393:Generated_Source\PSoC4/WIFI_SPI_UART.c ****         }
 394:Generated_Source\PSoC4/WIFI_SPI_UART.c ****         #else
 395:Generated_Source\PSoC4/WIFI_SPI_UART.c ****         {
 396:Generated_Source\PSoC4/WIFI_SPI_UART.c ****             size = WIFI_GET_TX_FIFO_ENTRIES;
 397:Generated_Source\PSoC4/WIFI_SPI_UART.c ****         }
 398:Generated_Source\PSoC4/WIFI_SPI_UART.c ****         #endif
 399:Generated_Source\PSoC4/WIFI_SPI_UART.c **** 
 400:Generated_Source\PSoC4/WIFI_SPI_UART.c ****         return (size);
 401:Generated_Source\PSoC4/WIFI_SPI_UART.c ****     }
 377              		.loc 1 401 0
 378              		@ sp needed
 379 001e 7047     		bx	lr
 380              	.L31:
 381              		.align	2
 382              	.L30:
 383 0020 00000000 		.word	WIFI_txBufferTail
 384 0024 00000000 		.word	WIFI_txBufferHead
 385              		.cfi_endproc
 386              	.LFE6:
 387              		.size	WIFI_SpiUartGetTxBufferSize, .-WIFI_SpiUartGetTxBufferSize
 388              		.section	.text.WIFI_SpiUartClearTxBuffer,"ax",%progbits
 389              		.align	2
 390              		.global	WIFI_SpiUartClearTxBuffer
 391              		.code	16
 392              		.thumb_func
 393              		.type	WIFI_SpiUartClearTxBuffer, %function
ARM GAS  C:\Users\theGu\AppData\Local\Temp\cc36yOg2.s 			page 15


 394              	WIFI_SpiUartClearTxBuffer:
 395              	.LFB7:
 402:Generated_Source\PSoC4/WIFI_SPI_UART.c **** 
 403:Generated_Source\PSoC4/WIFI_SPI_UART.c **** 
 404:Generated_Source\PSoC4/WIFI_SPI_UART.c ****     /*******************************************************************************
 405:Generated_Source\PSoC4/WIFI_SPI_UART.c ****     * Function Name: WIFI_SpiUartClearTxBuffer
 406:Generated_Source\PSoC4/WIFI_SPI_UART.c ****     ****************************************************************************//**
 407:Generated_Source\PSoC4/WIFI_SPI_UART.c ****     *
 408:Generated_Source\PSoC4/WIFI_SPI_UART.c ****     *  Clears the transmit buffer and TX FIFO.
 409:Generated_Source\PSoC4/WIFI_SPI_UART.c ****     *
 410:Generated_Source\PSoC4/WIFI_SPI_UART.c ****     * \globalvars
 411:Generated_Source\PSoC4/WIFI_SPI_UART.c ****     *  WIFI_txBufferHead - the start index to put data into the 
 412:Generated_Source\PSoC4/WIFI_SPI_UART.c ****     *  software transmit buffer.
 413:Generated_Source\PSoC4/WIFI_SPI_UART.c ****     *  WIFI_txBufferTail - start index to get data from the software
 414:Generated_Source\PSoC4/WIFI_SPI_UART.c ****     *  transmit buffer.
 415:Generated_Source\PSoC4/WIFI_SPI_UART.c ****     *
 416:Generated_Source\PSoC4/WIFI_SPI_UART.c ****     *******************************************************************************/
 417:Generated_Source\PSoC4/WIFI_SPI_UART.c ****     void WIFI_SpiUartClearTxBuffer(void)
 418:Generated_Source\PSoC4/WIFI_SPI_UART.c ****     {
 396              		.loc 1 418 0
 397              		.cfi_startproc
 398              		@ args = 0, pretend = 0, frame = 0
 399              		@ frame_needed = 0, uses_anonymous_args = 0
 400 0000 10B5     		push	{r4, lr}
 401              		.cfi_def_cfa_offset 8
 402              		.cfi_offset 4, -8
 403              		.cfi_offset 14, -4
 419:Generated_Source\PSoC4/WIFI_SPI_UART.c ****         #if (WIFI_CHECK_TX_SW_BUFFER)
 420:Generated_Source\PSoC4/WIFI_SPI_UART.c ****         {
 421:Generated_Source\PSoC4/WIFI_SPI_UART.c ****             /* Lock from component interruption */
 422:Generated_Source\PSoC4/WIFI_SPI_UART.c ****             WIFI_DisableInt();
 404              		.loc 1 422 0
 405 0002 0A20     		movs	r0, #10
 406 0004 FFF7FEFF 		bl	CyIntDisable
 407              	.LVL32:
 423:Generated_Source\PSoC4/WIFI_SPI_UART.c **** 
 424:Generated_Source\PSoC4/WIFI_SPI_UART.c ****             /* Flush TX software buffer */
 425:Generated_Source\PSoC4/WIFI_SPI_UART.c ****             WIFI_txBufferHead = WIFI_txBufferTail;
 408              		.loc 1 425 0
 409 0008 0C4B     		ldr	r3, .L33
 410 000a 1A68     		ldr	r2, [r3]
 411 000c 0C4B     		ldr	r3, .L33+4
 412 000e 1A60     		str	r2, [r3]
 426:Generated_Source\PSoC4/WIFI_SPI_UART.c **** 
 427:Generated_Source\PSoC4/WIFI_SPI_UART.c ****             WIFI_INTR_TX_MASK_REG &= (uint32) ~WIFI_INTR_TX_NOT_FULL;
 413              		.loc 1 427 0
 414 0010 0C4A     		ldr	r2, .L33+8
 415 0012 1368     		ldr	r3, [r2]
 416 0014 0221     		movs	r1, #2
 417 0016 8B43     		bics	r3, r1
 418 0018 1360     		str	r3, [r2]
 428:Generated_Source\PSoC4/WIFI_SPI_UART.c ****             WIFI_CLEAR_TX_FIFO;
 419              		.loc 1 428 0
 420 001a 0B4B     		ldr	r3, .L33+12
 421 001c 1A68     		ldr	r2, [r3]
 422 001e 8021     		movs	r1, #128
 423 0020 4902     		lsls	r1, r1, #9
ARM GAS  C:\Users\theGu\AppData\Local\Temp\cc36yOg2.s 			page 16


 424 0022 0A43     		orrs	r2, r1
 425 0024 1A60     		str	r2, [r3]
 426 0026 1968     		ldr	r1, [r3]
 427 0028 084A     		ldr	r2, .L33+16
 428 002a 0A40     		ands	r2, r1
 429 002c 1A60     		str	r2, [r3]
 429:Generated_Source\PSoC4/WIFI_SPI_UART.c ****             WIFI_ClearTxInterruptSource(WIFI_INTR_TX_ALL);
 430              		.loc 1 429 0
 431 002e 084A     		ldr	r2, .L33+20
 432 0030 084B     		ldr	r3, .L33+24
 433 0032 1A60     		str	r2, [r3]
 430:Generated_Source\PSoC4/WIFI_SPI_UART.c **** 
 431:Generated_Source\PSoC4/WIFI_SPI_UART.c ****             /* Release lock */
 432:Generated_Source\PSoC4/WIFI_SPI_UART.c ****             WIFI_EnableInt();
 434              		.loc 1 432 0
 435 0034 0A20     		movs	r0, #10
 436 0036 FFF7FEFF 		bl	CyIntEnable
 437              	.LVL33:
 433:Generated_Source\PSoC4/WIFI_SPI_UART.c ****         }
 434:Generated_Source\PSoC4/WIFI_SPI_UART.c ****         #else
 435:Generated_Source\PSoC4/WIFI_SPI_UART.c ****         {
 436:Generated_Source\PSoC4/WIFI_SPI_UART.c ****             WIFI_CLEAR_TX_FIFO;
 437:Generated_Source\PSoC4/WIFI_SPI_UART.c ****         }
 438:Generated_Source\PSoC4/WIFI_SPI_UART.c ****         #endif
 439:Generated_Source\PSoC4/WIFI_SPI_UART.c ****     }
 438              		.loc 1 439 0
 439              		@ sp needed
 440 003a 10BD     		pop	{r4, pc}
 441              	.L34:
 442              		.align	2
 443              	.L33:
 444 003c 00000000 		.word	WIFI_txBufferTail
 445 0040 00000000 		.word	WIFI_txBufferHead
 446 0044 880F2540 		.word	1076170632
 447 0048 04022540 		.word	1076167172
 448 004c FFFFFEFF 		.word	-65537
 449 0050 F3070000 		.word	2035
 450 0054 800F2540 		.word	1076170624
 451              		.cfi_endproc
 452              	.LFE7:
 453              		.size	WIFI_SpiUartClearTxBuffer, .-WIFI_SpiUartClearTxBuffer
 454              		.section	.text.WIFI_SpiUartDisableIntRx,"ax",%progbits
 455              		.align	2
 456              		.global	WIFI_SpiUartDisableIntRx
 457              		.code	16
 458              		.thumb_func
 459              		.type	WIFI_SpiUartDisableIntRx, %function
 460              	WIFI_SpiUartDisableIntRx:
 461              	.LFB8:
 440:Generated_Source\PSoC4/WIFI_SPI_UART.c **** 
 441:Generated_Source\PSoC4/WIFI_SPI_UART.c **** #endif /* (WIFI_TX_DIRECTION) */
 442:Generated_Source\PSoC4/WIFI_SPI_UART.c **** 
 443:Generated_Source\PSoC4/WIFI_SPI_UART.c **** 
 444:Generated_Source\PSoC4/WIFI_SPI_UART.c **** /*******************************************************************************
 445:Generated_Source\PSoC4/WIFI_SPI_UART.c **** * Function Name: WIFI_SpiUartDisableIntRx
 446:Generated_Source\PSoC4/WIFI_SPI_UART.c **** ****************************************************************************//**
 447:Generated_Source\PSoC4/WIFI_SPI_UART.c **** *
ARM GAS  C:\Users\theGu\AppData\Local\Temp\cc36yOg2.s 			page 17


 448:Generated_Source\PSoC4/WIFI_SPI_UART.c **** *  Disables the RX interrupt sources.
 449:Generated_Source\PSoC4/WIFI_SPI_UART.c **** *
 450:Generated_Source\PSoC4/WIFI_SPI_UART.c **** *  \return
 451:Generated_Source\PSoC4/WIFI_SPI_UART.c **** *   Returns the RX interrupt sources enabled before the function call.
 452:Generated_Source\PSoC4/WIFI_SPI_UART.c **** *
 453:Generated_Source\PSoC4/WIFI_SPI_UART.c **** *******************************************************************************/
 454:Generated_Source\PSoC4/WIFI_SPI_UART.c **** uint32 WIFI_SpiUartDisableIntRx(void)
 455:Generated_Source\PSoC4/WIFI_SPI_UART.c **** {
 462              		.loc 1 455 0
 463              		.cfi_startproc
 464              		@ args = 0, pretend = 0, frame = 0
 465              		@ frame_needed = 0, uses_anonymous_args = 0
 466              		@ link register save eliminated.
 456:Generated_Source\PSoC4/WIFI_SPI_UART.c ****     uint32 intSource;
 457:Generated_Source\PSoC4/WIFI_SPI_UART.c **** 
 458:Generated_Source\PSoC4/WIFI_SPI_UART.c ****     intSource = WIFI_GetRxInterruptMode();
 467              		.loc 1 458 0
 468 0000 024B     		ldr	r3, .L36
 469 0002 1868     		ldr	r0, [r3]
 470              	.LVL34:
 459:Generated_Source\PSoC4/WIFI_SPI_UART.c **** 
 460:Generated_Source\PSoC4/WIFI_SPI_UART.c ****     WIFI_SetRxInterruptMode(WIFI_NO_INTR_SOURCES);
 471              		.loc 1 460 0
 472 0004 0022     		movs	r2, #0
 473 0006 1A60     		str	r2, [r3]
 461:Generated_Source\PSoC4/WIFI_SPI_UART.c **** 
 462:Generated_Source\PSoC4/WIFI_SPI_UART.c ****     return (intSource);
 463:Generated_Source\PSoC4/WIFI_SPI_UART.c **** }
 474              		.loc 1 463 0
 475              		@ sp needed
 476 0008 7047     		bx	lr
 477              	.L37:
 478 000a C046     		.align	2
 479              	.L36:
 480 000c C80F2540 		.word	1076170696
 481              		.cfi_endproc
 482              	.LFE8:
 483              		.size	WIFI_SpiUartDisableIntRx, .-WIFI_SpiUartDisableIntRx
 484              		.section	.text.WIFI_SpiUartDisableIntTx,"ax",%progbits
 485              		.align	2
 486              		.global	WIFI_SpiUartDisableIntTx
 487              		.code	16
 488              		.thumb_func
 489              		.type	WIFI_SpiUartDisableIntTx, %function
 490              	WIFI_SpiUartDisableIntTx:
 491              	.LFB9:
 464:Generated_Source\PSoC4/WIFI_SPI_UART.c **** 
 465:Generated_Source\PSoC4/WIFI_SPI_UART.c **** 
 466:Generated_Source\PSoC4/WIFI_SPI_UART.c **** /*******************************************************************************
 467:Generated_Source\PSoC4/WIFI_SPI_UART.c **** * Function Name: WIFI_SpiUartDisableIntTx
 468:Generated_Source\PSoC4/WIFI_SPI_UART.c **** ****************************************************************************//**
 469:Generated_Source\PSoC4/WIFI_SPI_UART.c **** *
 470:Generated_Source\PSoC4/WIFI_SPI_UART.c **** *  Disables TX interrupt sources.
 471:Generated_Source\PSoC4/WIFI_SPI_UART.c **** *
 472:Generated_Source\PSoC4/WIFI_SPI_UART.c **** *  \return
 473:Generated_Source\PSoC4/WIFI_SPI_UART.c **** *   Returns TX interrupt sources enabled before function call.
 474:Generated_Source\PSoC4/WIFI_SPI_UART.c **** *
ARM GAS  C:\Users\theGu\AppData\Local\Temp\cc36yOg2.s 			page 18


 475:Generated_Source\PSoC4/WIFI_SPI_UART.c **** *******************************************************************************/
 476:Generated_Source\PSoC4/WIFI_SPI_UART.c **** uint32 WIFI_SpiUartDisableIntTx(void)
 477:Generated_Source\PSoC4/WIFI_SPI_UART.c **** {
 492              		.loc 1 477 0
 493              		.cfi_startproc
 494              		@ args = 0, pretend = 0, frame = 0
 495              		@ frame_needed = 0, uses_anonymous_args = 0
 496              		@ link register save eliminated.
 478:Generated_Source\PSoC4/WIFI_SPI_UART.c ****     uint32 intSourceMask;
 479:Generated_Source\PSoC4/WIFI_SPI_UART.c **** 
 480:Generated_Source\PSoC4/WIFI_SPI_UART.c ****     intSourceMask = WIFI_GetTxInterruptMode();
 497              		.loc 1 480 0
 498 0000 024B     		ldr	r3, .L39
 499 0002 1868     		ldr	r0, [r3]
 500              	.LVL35:
 481:Generated_Source\PSoC4/WIFI_SPI_UART.c **** 
 482:Generated_Source\PSoC4/WIFI_SPI_UART.c ****     WIFI_SetTxInterruptMode(WIFI_NO_INTR_SOURCES);
 501              		.loc 1 482 0
 502 0004 0022     		movs	r2, #0
 503 0006 1A60     		str	r2, [r3]
 483:Generated_Source\PSoC4/WIFI_SPI_UART.c **** 
 484:Generated_Source\PSoC4/WIFI_SPI_UART.c ****     return (intSourceMask);
 485:Generated_Source\PSoC4/WIFI_SPI_UART.c **** }
 504              		.loc 1 485 0
 505              		@ sp needed
 506 0008 7047     		bx	lr
 507              	.L40:
 508 000a C046     		.align	2
 509              	.L39:
 510 000c 880F2540 		.word	1076170632
 511              		.cfi_endproc
 512              	.LFE9:
 513              		.size	WIFI_SpiUartDisableIntTx, .-WIFI_SpiUartDisableIntTx
 514              		.comm	WIFI_txBufferInternal,256,4
 515              		.comm	WIFI_rxBufferInternal,513,4
 516              		.comm	WIFI_txBufferTail,4,4
 517              		.comm	WIFI_txBufferHead,4,4
 518              		.comm	WIFI_rxBufferOverflow,1,1
 519              		.comm	WIFI_rxBufferTail,4,4
 520              		.comm	WIFI_rxBufferHead,4,4
 521              		.text
 522              	.Letext0:
 523              		.file 2 "Generated_Source\\PSoC4/cytypes.h"
 524              		.file 3 "Generated_Source\\PSoC4/CyLib.h"