ARM GAS  C:\Users\theGu\AppData\Local\Temp\cce4Ss8I.s 			page 1


   1              		.syntax unified
   2              		.cpu cortex-m0
   3              		.fpu softvfp
   4              		.eabi_attribute 20, 1
   5              		.eabi_attribute 21, 1
   6              		.eabi_attribute 23, 3
   7              		.eabi_attribute 24, 1
   8              		.eabi_attribute 25, 1
   9              		.eabi_attribute 26, 1
  10              		.eabi_attribute 30, 4
  11              		.eabi_attribute 34, 0
  12              		.eabi_attribute 18, 4
  13              		.thumb
  14              		.syntax unified
  15              		.file	"CyLib.c"
  16              		.text
  17              	.Ltext0:
  18              		.cfi_sections	.debug_frame
  19              		.section	.text.CySysClkImoStart,"ax",%progbits
  20              		.align	1
  21              		.global	CySysClkImoStart
  22              		.code	16
  23              		.thumb_func
  24              		.type	CySysClkImoStart, %function
  25              	CySysClkImoStart:
  26              	.LFB1:
  27              		.file 1 "Generated_Source\\PSoC4\\CyLib.c"
   1:Generated_Source\PSoC4/CyLib.c **** /***************************************************************************//**
   2:Generated_Source\PSoC4/CyLib.c **** * \file CyLib.c
   3:Generated_Source\PSoC4/CyLib.c **** * \version 5.60
   4:Generated_Source\PSoC4/CyLib.c **** *
   5:Generated_Source\PSoC4/CyLib.c **** * \brief Provides a system API for the Clocking, Interrupts, SysTick, and
   6:Generated_Source\PSoC4/CyLib.c **** * Voltage Detect.
   7:Generated_Source\PSoC4/CyLib.c **** *
   8:Generated_Source\PSoC4/CyLib.c **** * \note Documentation of the API's in this file is located in the PSoC 4 System
   9:Generated_Source\PSoC4/CyLib.c **** * Reference Guide provided with PSoC Creator.
  10:Generated_Source\PSoC4/CyLib.c **** *
  11:Generated_Source\PSoC4/CyLib.c **** ********************************************************************************
  12:Generated_Source\PSoC4/CyLib.c **** * \copyright
  13:Generated_Source\PSoC4/CyLib.c **** * Copyright 2010-2017, Cypress Semiconductor Corporation.  All rights reserved.
  14:Generated_Source\PSoC4/CyLib.c **** * You may use this file only in accordance with the license, terms, conditions,
  15:Generated_Source\PSoC4/CyLib.c **** * disclaimers, and limitations in the end user license agreement accompanying
  16:Generated_Source\PSoC4/CyLib.c **** * the software package with which this file was provided.
  17:Generated_Source\PSoC4/CyLib.c **** *******************************************************************************/
  18:Generated_Source\PSoC4/CyLib.c **** 
  19:Generated_Source\PSoC4/CyLib.c **** #include "CyLib.h"
  20:Generated_Source\PSoC4/CyLib.c **** 
  21:Generated_Source\PSoC4/CyLib.c **** /* CySysClkWriteImoFreq() || CySysClkImoEnableWcoLock() */
  22:Generated_Source\PSoC4/CyLib.c **** #if ((CY_IP_SRSSV2 && CY_IP_FMLT) || CY_IP_IMO_TRIMMABLE_BY_WCO)
  23:Generated_Source\PSoC4/CyLib.c ****     #include "CyFlash.h"
  24:Generated_Source\PSoC4/CyLib.c **** #endif /* (CY_IP_SRSSV2 && CY_IP_FMLT) */
  25:Generated_Source\PSoC4/CyLib.c **** 
  26:Generated_Source\PSoC4/CyLib.c **** /* Do not use these definitions directly in your application */
  27:Generated_Source\PSoC4/CyLib.c **** uint32 cydelayFreqHz  = CYDEV_BCLK__SYSCLK__HZ;
  28:Generated_Source\PSoC4/CyLib.c **** uint32 cydelayFreqKhz = (CYDEV_BCLK__SYSCLK__HZ + CY_DELAY_1K_MINUS_1_THRESHOLD) / CY_DELAY_1K_THRE
  29:Generated_Source\PSoC4/CyLib.c **** uint8  cydelayFreqMhz = (uint8)((CYDEV_BCLK__SYSCLK__HZ + CY_DELAY_1M_MINUS_1_THRESHOLD) / CY_DELAY
  30:Generated_Source\PSoC4/CyLib.c **** uint32 cydelay32kMs   = CY_DELAY_MS_OVERFLOW * ((CYDEV_BCLK__SYSCLK__HZ + CY_DELAY_1K_MINUS_1_THRES
ARM GAS  C:\Users\theGu\AppData\Local\Temp\cce4Ss8I.s 			page 2


  31:Generated_Source\PSoC4/CyLib.c ****                         CY_DELAY_1K_THRESHOLD);
  32:Generated_Source\PSoC4/CyLib.c **** 
  33:Generated_Source\PSoC4/CyLib.c **** 
  34:Generated_Source\PSoC4/CyLib.c **** static cySysTickCallback CySysTickCallbacks[CY_SYS_SYST_NUM_OF_CALLBACKS];
  35:Generated_Source\PSoC4/CyLib.c **** static void CySysTickServiceCallbacks(void);
  36:Generated_Source\PSoC4/CyLib.c **** 
  37:Generated_Source\PSoC4/CyLib.c **** #if (CY_IP_SRSSV2 && CY_IP_PLL)
  38:Generated_Source\PSoC4/CyLib.c ****     static uint32 CySysClkPllGetBypassMode(uint32 pll);
  39:Generated_Source\PSoC4/CyLib.c ****     static cystatus CySysClkPllConfigChangeAllowed(uint32 pll);
  40:Generated_Source\PSoC4/CyLib.c **** #endif /* #if (CY_IP_SRSSV2 && CY_IP_PLL) */
  41:Generated_Source\PSoC4/CyLib.c **** 
  42:Generated_Source\PSoC4/CyLib.c **** 
  43:Generated_Source\PSoC4/CyLib.c **** /***************************************************************************//**
  44:Generated_Source\PSoC4/CyLib.c **** * Indicates whether or not the SysTick has been initialized. The variable is
  45:Generated_Source\PSoC4/CyLib.c **** * initialized to 0 and set to 1 the first time CySysTickStart() is called.
  46:Generated_Source\PSoC4/CyLib.c **** *
  47:Generated_Source\PSoC4/CyLib.c **** * This allows the component to restart without reinitialization after the first
  48:Generated_Source\PSoC4/CyLib.c **** * call to the CySysTickStart() routine.
  49:Generated_Source\PSoC4/CyLib.c **** *
  50:Generated_Source\PSoC4/CyLib.c **** * If reinitialization of the SysTick is required, call CySysTickInit() before
  51:Generated_Source\PSoC4/CyLib.c **** * calling CySysTickStart(). Alternatively, the SysTick can be reinitialized by
  52:Generated_Source\PSoC4/CyLib.c **** * calling the CySysTickInit() and CySysTickEnable() functions.
  53:Generated_Source\PSoC4/CyLib.c **** *******************************************************************************/
  54:Generated_Source\PSoC4/CyLib.c **** uint32 CySysTickInitVar = 0u;
  55:Generated_Source\PSoC4/CyLib.c **** 
  56:Generated_Source\PSoC4/CyLib.c **** 
  57:Generated_Source\PSoC4/CyLib.c **** #if(CY_IP_SRSSV2)
  58:Generated_Source\PSoC4/CyLib.c ****         /* Conversion between CySysClkWriteImoFreq() parameter and register's value */
  59:Generated_Source\PSoC4/CyLib.c ****         const uint8 cyImoFreqMhz2Reg[CY_SYS_CLK_IMO_FREQ_TABLE_SIZE] = {
  60:Generated_Source\PSoC4/CyLib.c ****             /*  3 MHz */ 0x03u,  /*  4 MHz */ 0x04u,  /*  5 MHz */ 0x05u,  /*  6 MHz */ 0x06u,
  61:Generated_Source\PSoC4/CyLib.c ****             /*  7 MHz */ 0x07u,  /*  8 MHz */ 0x08u,  /*  9 MHz */ 0x09u,  /* 10 MHz */ 0x0Au,
  62:Generated_Source\PSoC4/CyLib.c ****             /* 11 MHz */ 0x0Bu,  /* 12 MHz */ 0x0Cu,  /* 13 MHz */ 0x0Eu,  /* 14 MHz */ 0x0Fu,
  63:Generated_Source\PSoC4/CyLib.c ****             /* 15 MHz */ 0x10u,  /* 16 MHz */ 0x11u,  /* 17 MHz */ 0x12u,  /* 18 MHz */ 0x13u,
  64:Generated_Source\PSoC4/CyLib.c ****             /* 19 MHz */ 0x14u,  /* 20 MHz */ 0x15u,  /* 21 MHz */ 0x16u,  /* 22 MHz */ 0x17u,
  65:Generated_Source\PSoC4/CyLib.c ****             /* 23 MHz */ 0x18u,  /* 24 MHz */ 0x19u,  /* 25 MHz */ 0x1Bu,  /* 26 MHz */ 0x1Cu,
  66:Generated_Source\PSoC4/CyLib.c ****             /* 27 MHz */ 0x1Du,  /* 28 MHz */ 0x1Eu,  /* 29 MHz */ 0x1Fu,  /* 30 MHz */ 0x20u,
  67:Generated_Source\PSoC4/CyLib.c ****             /* 31 MHz */ 0x21u,  /* 32 MHz */ 0x22u,  /* 33 MHz */ 0x23u,  /* 34 MHz */ 0x25u,
  68:Generated_Source\PSoC4/CyLib.c ****             /* 35 MHz */ 0x26u,  /* 36 MHz */ 0x27u,  /* 37 MHz */ 0x28u,  /* 38 MHz */ 0x29u,
  69:Generated_Source\PSoC4/CyLib.c ****             /* 39 MHz */ 0x2Au,  /* 40 MHz */ 0x2Bu,  /* 41 MHz */ 0x2Eu,  /* 42 MHz */ 0x2Fu,
  70:Generated_Source\PSoC4/CyLib.c ****             /* 43 MHz */ 0x30u,  /* 44 MHz */ 0x31u,  /* 45 MHz */ 0x32u,  /* 46 MHz */ 0x33u,
  71:Generated_Source\PSoC4/CyLib.c ****             /* 47 MHz */ 0x34u,  /* 48 MHz */ 0x35u };
  72:Generated_Source\PSoC4/CyLib.c **** #endif /* (CY_IP_SRSSV2) */
  73:Generated_Source\PSoC4/CyLib.c **** 
  74:Generated_Source\PSoC4/CyLib.c **** #if (CY_IP_IMO_TRIMMABLE_BY_WCO)
  75:Generated_Source\PSoC4/CyLib.c ****         /* Conversion between IMO frequency and WCO DPLL max offset steps */
  76:Generated_Source\PSoC4/CyLib.c ****         const uint8 cyImoFreqMhz2DpllOffset[CY_SYS_CLK_IMO_FREQ_WCO_DPLL_TABLE_SIZE] = {
  77:Generated_Source\PSoC4/CyLib.c ****             /* 26 MHz */  238u, /* 27 MHz */  219u, /* 28 MHz */  201u, /* 29 MHz */  185u,
  78:Generated_Source\PSoC4/CyLib.c ****             /* 30 MHz */  170u, /* 31 MHz */  155u, /* 32 MHz */  142u, /* 33 MHz */  130u,
  79:Generated_Source\PSoC4/CyLib.c ****             /* 34 MHz */  118u, /* 35 MHz */  107u, /* 36 MHz */   96u, /* 37 MHz */  86u,
  80:Generated_Source\PSoC4/CyLib.c ****             /* 38 MHz */   77u, /* 39 MHz */   68u, /* 40 MHz */   59u, /* 41 MHz */  51u,
  81:Generated_Source\PSoC4/CyLib.c ****             /* 42 MHz */   44u, /* 43 MHz */   36u, /* 44 MHz */   29u, /* 45 MHz */  23u,
  82:Generated_Source\PSoC4/CyLib.c ****             /* 46 MHz */   16u, /* 47 MHz */   10u, /* 48 MHz */   4u };
  83:Generated_Source\PSoC4/CyLib.c **** #endif /* (CY_IP_IMO_TRIMMABLE_BY_WCO) */
  84:Generated_Source\PSoC4/CyLib.c **** 
  85:Generated_Source\PSoC4/CyLib.c **** /* Stored CY_SYS_CLK_IMO_TRIM4_REG when modified for USB lock */
  86:Generated_Source\PSoC4/CyLib.c **** #if (CY_IP_IMO_TRIMMABLE_BY_USB && CY_IP_SRSSV2)
  87:Generated_Source\PSoC4/CyLib.c ****     uint32 CySysClkImoTrim4 = 0u;
ARM GAS  C:\Users\theGu\AppData\Local\Temp\cce4Ss8I.s 			page 3


  88:Generated_Source\PSoC4/CyLib.c **** #endif /* (CY_IP_IMO_TRIMMABLE_BY_USB && CY_IP_SRSSV2) */
  89:Generated_Source\PSoC4/CyLib.c **** 
  90:Generated_Source\PSoC4/CyLib.c **** /* Stored PUMP_SEL configuration during disable (IMO output by default) */
  91:Generated_Source\PSoC4/CyLib.c **** uint32 CySysClkPumpConfig = CY_SYS_CLK_PUMP_ENABLE;
  92:Generated_Source\PSoC4/CyLib.c **** 
  93:Generated_Source\PSoC4/CyLib.c **** /*******************************************************************************
  94:Generated_Source\PSoC4/CyLib.c **** * Function Name: CySysClkImoStart
  95:Generated_Source\PSoC4/CyLib.c **** ****************************************************************************//**
  96:Generated_Source\PSoC4/CyLib.c **** *
  97:Generated_Source\PSoC4/CyLib.c **** * Enables the IMO.
  98:Generated_Source\PSoC4/CyLib.c **** *
  99:Generated_Source\PSoC4/CyLib.c **** * For PSoC 4100M / PSoC 4200M / PSoC 4000S / PSoC 4100S / PSoC 4400 devices,
 100:Generated_Source\PSoC4/CyLib.c **** * this function will also enable WCO lock if selected in the Design Wide
 101:Generated_Source\PSoC4/CyLib.c **** * Resources tab.
 102:Generated_Source\PSoC4/CyLib.c **** *
 103:Generated_Source\PSoC4/CyLib.c **** * For PSoC 4200L / devices, this function will also enable USB lock if selected
 104:Generated_Source\PSoC4/CyLib.c **** * in the Design Wide Resources tab.
 105:Generated_Source\PSoC4/CyLib.c **** *
 106:Generated_Source\PSoC4/CyLib.c **** *******************************************************************************/
 107:Generated_Source\PSoC4/CyLib.c **** void CySysClkImoStart(void)
 108:Generated_Source\PSoC4/CyLib.c **** {
  28              		.loc 1 108 0
  29              		.cfi_startproc
  30              		@ args = 0, pretend = 0, frame = 0
  31              		@ frame_needed = 0, uses_anonymous_args = 0
  32              		@ link register save eliminated.
 109:Generated_Source\PSoC4/CyLib.c ****     CY_SYS_CLK_IMO_CONFIG_REG |= CY_SYS_CLK_IMO_CONFIG_ENABLE;
  33              		.loc 1 109 0
  34 0000 8021     		movs	r1, #128
  35 0002 034A     		ldr	r2, .L2
  36 0004 0906     		lsls	r1, r1, #24
  37 0006 1368     		ldr	r3, [r2]
 110:Generated_Source\PSoC4/CyLib.c **** 
 111:Generated_Source\PSoC4/CyLib.c ****     #if (CY_IP_IMO_TRIMMABLE_BY_WCO)
 112:Generated_Source\PSoC4/CyLib.c ****         #if (CYDEV_IMO_TRIMMED_BY_WCO == 1u)
 113:Generated_Source\PSoC4/CyLib.c ****             CySysClkImoEnableWcoLock();
 114:Generated_Source\PSoC4/CyLib.c ****         #endif  /* (CYDEV_IMO_TRIMMED_BY_WCO == 1u) */
 115:Generated_Source\PSoC4/CyLib.c ****     #endif  /* (CY_IP_IMO_TRIMMABLE_BY_WCO) */
 116:Generated_Source\PSoC4/CyLib.c **** 
 117:Generated_Source\PSoC4/CyLib.c **** 
 118:Generated_Source\PSoC4/CyLib.c ****     #if (CY_IP_IMO_TRIMMABLE_BY_USB)
 119:Generated_Source\PSoC4/CyLib.c ****         #if (CYDEV_IMO_TRIMMED_BY_USB == 1u)
 120:Generated_Source\PSoC4/CyLib.c ****             CySysClkImoEnableUsbLock();
 121:Generated_Source\PSoC4/CyLib.c ****         #endif  /* (CYDEV_IMO_TRIMMED_BY_USB == 1u) */
 122:Generated_Source\PSoC4/CyLib.c ****     #endif  /* (CY_IP_IMO_TRIMMABLE_BY_USB) */
 123:Generated_Source\PSoC4/CyLib.c **** 
 124:Generated_Source\PSoC4/CyLib.c **** }
  38              		.loc 1 124 0
  39              		@ sp needed
 109:Generated_Source\PSoC4/CyLib.c ****     CY_SYS_CLK_IMO_CONFIG_REG |= CY_SYS_CLK_IMO_CONFIG_ENABLE;
  40              		.loc 1 109 0
  41 0008 0B43     		orrs	r3, r1
  42 000a 1360     		str	r3, [r2]
  43              		.loc 1 124 0
  44 000c 7047     		bx	lr
  45              	.L3:
  46 000e C046     		.align	2
ARM GAS  C:\Users\theGu\AppData\Local\Temp\cce4Ss8I.s 			page 4


  47              	.L2:
  48 0010 08010B40 		.word	1074462984
  49              		.cfi_endproc
  50              	.LFE1:
  51              		.size	CySysClkImoStart, .-CySysClkImoStart
  52              		.section	.text.CySysClkImoDisableWcoLock,"ax",%progbits
  53              		.align	1
  54              		.global	CySysClkImoDisableWcoLock
  55              		.code	16
  56              		.thumb_func
  57              		.type	CySysClkImoDisableWcoLock, %function
  58              	CySysClkImoDisableWcoLock:
  59              	.LFB4:
 125:Generated_Source\PSoC4/CyLib.c **** 
 126:Generated_Source\PSoC4/CyLib.c **** 
 127:Generated_Source\PSoC4/CyLib.c **** /*******************************************************************************
 128:Generated_Source\PSoC4/CyLib.c **** * Function Name: CySysClkImoStop
 129:Generated_Source\PSoC4/CyLib.c **** ****************************************************************************//**
 130:Generated_Source\PSoC4/CyLib.c **** *
 131:Generated_Source\PSoC4/CyLib.c **** * Disables the IMO.
 132:Generated_Source\PSoC4/CyLib.c **** *
 133:Generated_Source\PSoC4/CyLib.c **** * For PSoC 4100M / PSoC 4200M / PSoC 4000S / PSoC 4100S / PSoC 4400 devices,
 134:Generated_Source\PSoC4/CyLib.c **** * this function will also disable WCO lock.
 135:Generated_Source\PSoC4/CyLib.c **** *
 136:Generated_Source\PSoC4/CyLib.c **** * For PSoC PSoC 4200L devices, this function will also disable USB lock.
 137:Generated_Source\PSoC4/CyLib.c **** *
 138:Generated_Source\PSoC4/CyLib.c **** *******************************************************************************/
 139:Generated_Source\PSoC4/CyLib.c **** void CySysClkImoStop(void)
 140:Generated_Source\PSoC4/CyLib.c **** {
 141:Generated_Source\PSoC4/CyLib.c ****     #if (CY_IP_IMO_TRIMMABLE_BY_WCO)
 142:Generated_Source\PSoC4/CyLib.c ****         CySysClkImoDisableWcoLock();
 143:Generated_Source\PSoC4/CyLib.c ****     #endif  /* (CY_IP_IMO_TRIMMABLE_BY_WCO) */
 144:Generated_Source\PSoC4/CyLib.c **** 
 145:Generated_Source\PSoC4/CyLib.c ****     #if (CY_IP_IMO_TRIMMABLE_BY_USB)
 146:Generated_Source\PSoC4/CyLib.c ****         CySysClkImoDisableUsbLock();
 147:Generated_Source\PSoC4/CyLib.c ****     #endif  /* (CY_IP_IMO_TRIMMABLE_BY_USB) */
 148:Generated_Source\PSoC4/CyLib.c **** 
 149:Generated_Source\PSoC4/CyLib.c ****     CY_SYS_CLK_IMO_CONFIG_REG &= ( uint32 ) ( ~( uint32 )CY_SYS_CLK_IMO_CONFIG_ENABLE);
 150:Generated_Source\PSoC4/CyLib.c **** }
 151:Generated_Source\PSoC4/CyLib.c **** 
 152:Generated_Source\PSoC4/CyLib.c **** #if (CY_IP_IMO_TRIMMABLE_BY_WCO)
 153:Generated_Source\PSoC4/CyLib.c **** 
 154:Generated_Source\PSoC4/CyLib.c ****     /*******************************************************************************
 155:Generated_Source\PSoC4/CyLib.c ****     * Function Name: CySysClkImoEnableWcoLock
 156:Generated_Source\PSoC4/CyLib.c ****     ****************************************************************************//**
 157:Generated_Source\PSoC4/CyLib.c ****     *
 158:Generated_Source\PSoC4/CyLib.c ****     * Enables the IMO to WCO lock feature. This function works only if the WCO is
 159:Generated_Source\PSoC4/CyLib.c ****     * already enabled. If the WCO is not enabled then this function returns
 160:Generated_Source\PSoC4/CyLib.c ****     * without enabling the lock feature.
 161:Generated_Source\PSoC4/CyLib.c ****     *
 162:Generated_Source\PSoC4/CyLib.c ****     * It takes up to 20 ms for the IMO to stabilize. The delay is implemented with
 163:Generated_Source\PSoC4/CyLib.c ****     * CyDelay() function. The delay interval is measured based on the system
 164:Generated_Source\PSoC4/CyLib.c ****     * frequency defined by PSoC Creator at build time. If System clock frequency
 165:Generated_Source\PSoC4/CyLib.c ****     * is changed in runtime, the CyDelayFreq() with the appropriate parameter
 166:Generated_Source\PSoC4/CyLib.c ****     * should be called.
 167:Generated_Source\PSoC4/CyLib.c ****     *
 168:Generated_Source\PSoC4/CyLib.c ****     * For PSoC 4200L devices, note that the IMO can lock to either WCO or USB
ARM GAS  C:\Users\theGu\AppData\Local\Temp\cce4Ss8I.s 			page 5


 169:Generated_Source\PSoC4/CyLib.c ****     * but not both.
 170:Generated_Source\PSoC4/CyLib.c ****     *
 171:Generated_Source\PSoC4/CyLib.c ****     * This function is applicable for PSoC 4100M / PSoC 4200M / PSoC 4000S /
 172:Generated_Source\PSoC4/CyLib.c ****     * PSoC 4100S / PSoC 4400 / PSoC 4200L.
 173:Generated_Source\PSoC4/CyLib.c ****     *
 174:Generated_Source\PSoC4/CyLib.c ****     *******************************************************************************/
 175:Generated_Source\PSoC4/CyLib.c ****     void CySysClkImoEnableWcoLock(void)
 176:Generated_Source\PSoC4/CyLib.c ****     {
 177:Generated_Source\PSoC4/CyLib.c ****         #if(CY_IP_SRSSV2)
 178:Generated_Source\PSoC4/CyLib.c ****             uint32 i;
 179:Generated_Source\PSoC4/CyLib.c ****         #endif  /* (CY_IP_SRSSV2) */
 180:Generated_Source\PSoC4/CyLib.c **** 
 181:Generated_Source\PSoC4/CyLib.c ****         uint32 freq;
 182:Generated_Source\PSoC4/CyLib.c ****         uint8  interruptState;
 183:Generated_Source\PSoC4/CyLib.c ****         uint32 regTmp;
 184:Generated_Source\PSoC4/CyLib.c ****         uint32 lfLimit = 0u;
 185:Generated_Source\PSoC4/CyLib.c ****         volatile uint32 flashCtlReg;
 186:Generated_Source\PSoC4/CyLib.c **** 
 187:Generated_Source\PSoC4/CyLib.c ****         if (0u != CySysClkWcoEnabled())
 188:Generated_Source\PSoC4/CyLib.c ****         {
 189:Generated_Source\PSoC4/CyLib.c ****             interruptState = CyEnterCriticalSection();
 190:Generated_Source\PSoC4/CyLib.c **** 
 191:Generated_Source\PSoC4/CyLib.c ****             /* Set oscillator interface control port to WCO */
 192:Generated_Source\PSoC4/CyLib.c ****             #if (CY_IP_IMO_TRIMMABLE_BY_WCO && CY_IP_IMO_TRIMMABLE_BY_USB)
 193:Generated_Source\PSoC4/CyLib.c ****                 CY_SYS_CLK_OSCINTF_CTL_REG =
 194:Generated_Source\PSoC4/CyLib.c ****                     (CY_SYS_CLK_OSCINTF_CTL_REG & (uint32) ~CY_SYS_CLK_OSCINTF_CTL_PORT_SEL_MASK) |
 195:Generated_Source\PSoC4/CyLib.c ****                     CY_SYS_CLK_OSCINTF_CTL_PORT_SEL_WCO;
 196:Generated_Source\PSoC4/CyLib.c ****             #endif /* (CY_IP_IMO_TRIMMABLE_BY_WCO && CY_IP_IMO_TRIMMABLE_BY_USB) */
 197:Generated_Source\PSoC4/CyLib.c **** 
 198:Generated_Source\PSoC4/CyLib.c ****             /* Get current IMO frequency based on the register value */
 199:Generated_Source\PSoC4/CyLib.c ****             #if(CY_IP_SRSSV2)
 200:Generated_Source\PSoC4/CyLib.c ****                 freq = CY_SYS_CLK_IMO_MIN_FREQ_MHZ;
 201:Generated_Source\PSoC4/CyLib.c ****                 for(i = 0u; i < CY_SYS_CLK_IMO_FREQ_TABLE_SIZE; i++)
 202:Generated_Source\PSoC4/CyLib.c ****                 {
 203:Generated_Source\PSoC4/CyLib.c ****                     if ((uint8) (CY_SYS_CLK_IMO_TRIM2_REG & CY_SYS_CLK_IMO_FREQ_BITS_MASK) == cyImo
 204:Generated_Source\PSoC4/CyLib.c ****                     {
 205:Generated_Source\PSoC4/CyLib.c ****                         freq = i + CY_SYS_CLK_IMO_FREQ_TABLE_OFFSET;
 206:Generated_Source\PSoC4/CyLib.c ****                         break;
 207:Generated_Source\PSoC4/CyLib.c ****                     }
 208:Generated_Source\PSoC4/CyLib.c ****                 }
 209:Generated_Source\PSoC4/CyLib.c ****             #else
 210:Generated_Source\PSoC4/CyLib.c ****                 /* Calculate frequency by shifting register field value and adding constant. */
 211:Generated_Source\PSoC4/CyLib.c ****                 #if(CY_IP_SRSSLT)
 212:Generated_Source\PSoC4/CyLib.c ****                     freq = (((uint32) ((CY_SYS_CLK_IMO_SELECT_REG & ((uint32) CY_SYS_CLK_IMO_SELECT
 213:Generated_Source\PSoC4/CyLib.c ****                                         CY_SYS_CLK_IMO_SELECT_FREQ_SHIFT) + CY_SYS_CLK_IMO_MIN_FREQ
 214:Generated_Source\PSoC4/CyLib.c ****                                       ((CY_SYS_CLK_SELECT_REG >> CY_SYS_CLK_SELECT_HFCLK_DIV_SHIFT)
 215:Generated_Source\PSoC4/CyLib.c ****                                        (uint32) CY_SYS_CLK_SELECT_HFCLK_DIV_MASK));
 216:Generated_Source\PSoC4/CyLib.c ****                 #else
 217:Generated_Source\PSoC4/CyLib.c ****                     freq = ((uint32) ((CY_SYS_CLK_IMO_SELECT_REG & ((uint32) CY_SYS_CLK_IMO_SELECT_
 218:Generated_Source\PSoC4/CyLib.c ****                                        CY_SYS_CLK_IMO_SELECT_FREQ_SHIFT) + CY_SYS_CLK_IMO_MIN_FREQ_
 219:Generated_Source\PSoC4/CyLib.c ****                 #endif  /* (CY_IP_SRSSLT) */
 220:Generated_Source\PSoC4/CyLib.c **** 
 221:Generated_Source\PSoC4/CyLib.c ****             #endif  /* (CY_IP_SRSSV2) */
 222:Generated_Source\PSoC4/CyLib.c **** 
 223:Generated_Source\PSoC4/CyLib.c ****             /* For the WCO locking mode, the IMO gain needs to be CY_SYS_CLK_IMO_TRIM4_GAIN */
 224:Generated_Source\PSoC4/CyLib.c ****             #if(CY_IP_SRSSV2)
 225:Generated_Source\PSoC4/CyLib.c ****                 if ((CY_SYS_CLK_IMO_TRIM4_REG & CY_SYS_CLK_IMO_TRIM4_GAIN_MASK) == 0u)
ARM GAS  C:\Users\theGu\AppData\Local\Temp\cce4Ss8I.s 			page 6


 226:Generated_Source\PSoC4/CyLib.c ****                 {
 227:Generated_Source\PSoC4/CyLib.c **** 			         CY_SYS_CLK_IMO_TRIM4_REG = (CY_SYS_CLK_IMO_TRIM4_REG & (uint32) ~CY_SYS_CLK_IMO_TRIM4_G
 228:Generated_Source\PSoC4/CyLib.c **** 			                  				     CY_SYS_CLK_IMO_TRIM4_WCO_GAIN;
 229:Generated_Source\PSoC4/CyLib.c ****                 }
 230:Generated_Source\PSoC4/CyLib.c ****             #endif /* (CY_IP_SRSSV2) */
 231:Generated_Source\PSoC4/CyLib.c **** 
 232:Generated_Source\PSoC4/CyLib.c ****             regTmp  = CY_SYS_CLK_WCO_DPLL_REG & ~(CY_SYS_CLK_WCO_DPLL_MULT_MASK |
 233:Generated_Source\PSoC4/CyLib.c ****                                                   CY_SYS_CLK_WCO_CONFIG_DPLL_LF_IGAIN_MASK |
 234:Generated_Source\PSoC4/CyLib.c ****                                                   CY_SYS_CLK_WCO_CONFIG_DPLL_LF_PGAIN_MASK |
 235:Generated_Source\PSoC4/CyLib.c ****                                                   CY_SYS_CLK_WCO_CONFIG_DPLL_LF_LIMIT_MASK);
 236:Generated_Source\PSoC4/CyLib.c **** 
 237:Generated_Source\PSoC4/CyLib.c ****             /* Set multiplier to determine IMO frequency in multiples of the WCO frequency */
 238:Generated_Source\PSoC4/CyLib.c ****             regTmp |= (CY_SYS_CLK_WCO_DPLL_MULT_VALUE(freq) & CY_SYS_CLK_WCO_DPLL_MULT_MASK);
 239:Generated_Source\PSoC4/CyLib.c **** 
 240:Generated_Source\PSoC4/CyLib.c ****             /* Set DPLL Loop Filter Integral and Proportional Gains Setting */
 241:Generated_Source\PSoC4/CyLib.c ****             regTmp |= (CY_SYS_CLK_WCO_CONFIG_DPLL_LF_IGAIN | CY_SYS_CLK_WCO_CONFIG_DPLL_LF_PGAIN);
 242:Generated_Source\PSoC4/CyLib.c **** 
 243:Generated_Source\PSoC4/CyLib.c ****             /* Set maximum allowed IMO offset */
 244:Generated_Source\PSoC4/CyLib.c ****             if (freq < CY_SYS_CLK_IMO_FREQ_WCO_DPLL_SAFE_POINT)
 245:Generated_Source\PSoC4/CyLib.c ****             {
 246:Generated_Source\PSoC4/CyLib.c ****                 regTmp |= (CY_SYS_CLK_WCO_CONFIG_DPLL_LF_LIMIT_MAX << CY_SYS_CLK_WCO_CONFIG_DPLL_LF
 247:Generated_Source\PSoC4/CyLib.c ****             }
 248:Generated_Source\PSoC4/CyLib.c ****             else
 249:Generated_Source\PSoC4/CyLib.c ****             {
 250:Generated_Source\PSoC4/CyLib.c ****                 lfLimit = (uint32) CY_SFLASH_IMO_TRIM_REG(freq - CY_SYS_CLK_IMO_MIN_FREQ_MHZ) +
 251:Generated_Source\PSoC4/CyLib.c ****                     cyImoFreqMhz2DpllOffset[freq - CY_SYS_CLK_IMO_FREQ_WCO_DPLL_TABLE_OFFSET];
 252:Generated_Source\PSoC4/CyLib.c **** 
 253:Generated_Source\PSoC4/CyLib.c ****                 lfLimit = (lfLimit > CY_SYS_CLK_WCO_CONFIG_DPLL_LF_LIMIT_MAX) ?
 254:Generated_Source\PSoC4/CyLib.c ****                     CY_SYS_CLK_WCO_CONFIG_DPLL_LF_LIMIT_MAX : lfLimit;
 255:Generated_Source\PSoC4/CyLib.c **** 
 256:Generated_Source\PSoC4/CyLib.c ****                 regTmp |= (lfLimit << CY_SYS_CLK_WCO_CONFIG_DPLL_LF_LIMIT_SHIFT);
 257:Generated_Source\PSoC4/CyLib.c ****             }
 258:Generated_Source\PSoC4/CyLib.c **** 
 259:Generated_Source\PSoC4/CyLib.c ****             CY_SYS_CLK_WCO_DPLL_REG = regTmp;
 260:Generated_Source\PSoC4/CyLib.c **** 
 261:Generated_Source\PSoC4/CyLib.c ****             flashCtlReg = CY_FLASH_CTL_REG;
 262:Generated_Source\PSoC4/CyLib.c ****             CySysFlashSetWaitCycles(CY_SYS_CLK_IMO_MAX_FREQ_MHZ);
 263:Generated_Source\PSoC4/CyLib.c ****             CY_SYS_CLK_WCO_CONFIG_REG |= CY_SYS_CLK_WCO_CONFIG_DPLL_ENABLE;
 264:Generated_Source\PSoC4/CyLib.c ****             CyDelay(CY_SYS_CLK_WCO_IMO_TIMEOUT_MS);
 265:Generated_Source\PSoC4/CyLib.c ****             CY_FLASH_CTL_REG = flashCtlReg;
 266:Generated_Source\PSoC4/CyLib.c **** 
 267:Generated_Source\PSoC4/CyLib.c ****             CyExitCriticalSection(interruptState);
 268:Generated_Source\PSoC4/CyLib.c ****         }
 269:Generated_Source\PSoC4/CyLib.c ****     }
 270:Generated_Source\PSoC4/CyLib.c **** 
 271:Generated_Source\PSoC4/CyLib.c **** 
 272:Generated_Source\PSoC4/CyLib.c ****     /*******************************************************************************
 273:Generated_Source\PSoC4/CyLib.c ****     * Function Name: CySysClkImoDisableWcoLock
 274:Generated_Source\PSoC4/CyLib.c ****     ****************************************************************************//**
 275:Generated_Source\PSoC4/CyLib.c ****     *
 276:Generated_Source\PSoC4/CyLib.c ****     * Disables the IMO to WCO lock feature.
 277:Generated_Source\PSoC4/CyLib.c ****     *
 278:Generated_Source\PSoC4/CyLib.c ****     * For PSoC 4200L devices, note that the IMO can lock to either WCO or USB
 279:Generated_Source\PSoC4/CyLib.c ****     * but not both.
 280:Generated_Source\PSoC4/CyLib.c ****     *
 281:Generated_Source\PSoC4/CyLib.c ****     * This function is applicable for PSoC 4100M / PSoC 4200M / PSoC 4000S /
 282:Generated_Source\PSoC4/CyLib.c ****     * PSoC 4100S / PSoC 4400 / PSoC 4200L.
ARM GAS  C:\Users\theGu\AppData\Local\Temp\cce4Ss8I.s 			page 7


 283:Generated_Source\PSoC4/CyLib.c ****     *
 284:Generated_Source\PSoC4/CyLib.c ****     *******************************************************************************/
 285:Generated_Source\PSoC4/CyLib.c ****     void CySysClkImoDisableWcoLock(void)
 286:Generated_Source\PSoC4/CyLib.c ****     {
  60              		.loc 1 286 0
  61              		.cfi_startproc
  62              		@ args = 0, pretend = 0, frame = 0
  63              		@ frame_needed = 0, uses_anonymous_args = 0
  64              		@ link register save eliminated.
 287:Generated_Source\PSoC4/CyLib.c ****         CY_SYS_CLK_WCO_CONFIG_REG &= (uint32) ~CY_SYS_CLK_WCO_CONFIG_DPLL_ENABLE;
  65              		.loc 1 287 0
  66 0000 024A     		ldr	r2, .L5
  67 0002 034B     		ldr	r3, .L5+4
  68 0004 1168     		ldr	r1, [r2]
 288:Generated_Source\PSoC4/CyLib.c ****     }
  69              		.loc 1 288 0
  70              		@ sp needed
 287:Generated_Source\PSoC4/CyLib.c ****         CY_SYS_CLK_WCO_CONFIG_REG &= (uint32) ~CY_SYS_CLK_WCO_CONFIG_DPLL_ENABLE;
  71              		.loc 1 287 0
  72 0006 0B40     		ands	r3, r1
  73 0008 1360     		str	r3, [r2]
  74              		.loc 1 288 0
  75 000a 7047     		bx	lr
  76              	.L6:
  77              		.align	2
  78              	.L5:
  79 000c 00002240 		.word	1075970048
  80 0010 FFFFFFBF 		.word	-1073741825
  81              		.cfi_endproc
  82              	.LFE4:
  83              		.size	CySysClkImoDisableWcoLock, .-CySysClkImoDisableWcoLock
  84              		.section	.text.CySysClkImoGetWcoLock,"ax",%progbits
  85              		.align	1
  86              		.global	CySysClkImoGetWcoLock
  87              		.code	16
  88              		.thumb_func
  89              		.type	CySysClkImoGetWcoLock, %function
  90              	CySysClkImoGetWcoLock:
  91              	.LFB5:
 289:Generated_Source\PSoC4/CyLib.c **** 
 290:Generated_Source\PSoC4/CyLib.c **** 
 291:Generated_Source\PSoC4/CyLib.c ****     /*******************************************************************************
 292:Generated_Source\PSoC4/CyLib.c ****     * Function Name: CySysClkImoGetWcoLock
 293:Generated_Source\PSoC4/CyLib.c ****     ****************************************************************************//**
 294:Generated_Source\PSoC4/CyLib.c ****     *
 295:Generated_Source\PSoC4/CyLib.c ****     * Reports the IMO to WCO lock enable state.
 296:Generated_Source\PSoC4/CyLib.c ****     *
 297:Generated_Source\PSoC4/CyLib.c ****     * This function is applicable for PSoC 4100M / PSoC 4200M / PSoC 4000S /
 298:Generated_Source\PSoC4/CyLib.c ****     * PSoC 4100S / PSoC 4400 / PSoC 4200L.
 299:Generated_Source\PSoC4/CyLib.c ****     *
 300:Generated_Source\PSoC4/CyLib.c ****     * \return 1 if IMO to WCO lock is enabled.
 301:Generated_Source\PSoC4/CyLib.c ****     * \return 0 if IMO to WCO lock is disabled.
 302:Generated_Source\PSoC4/CyLib.c ****     *
 303:Generated_Source\PSoC4/CyLib.c ****     *******************************************************************************/
 304:Generated_Source\PSoC4/CyLib.c ****     uint32 CySysClkImoGetWcoLock(void)
 305:Generated_Source\PSoC4/CyLib.c ****     {
  92              		.loc 1 305 0
ARM GAS  C:\Users\theGu\AppData\Local\Temp\cce4Ss8I.s 			page 8


  93              		.cfi_startproc
  94              		@ args = 0, pretend = 0, frame = 0
  95              		@ frame_needed = 0, uses_anonymous_args = 0
  96              		@ link register save eliminated.
 306:Generated_Source\PSoC4/CyLib.c ****         return ((0u != (CY_SYS_CLK_WCO_CONFIG_REG & CY_SYS_CLK_WCO_CONFIG_DPLL_ENABLE)) ?
  97              		.loc 1 306 0
  98 0000 024B     		ldr	r3, .L8
 307:Generated_Source\PSoC4/CyLib.c ****                 (uint32) 1u :
 308:Generated_Source\PSoC4/CyLib.c ****                 (uint32) 0u);
 309:Generated_Source\PSoC4/CyLib.c ****     }
  99              		.loc 1 309 0
 100              		@ sp needed
 306:Generated_Source\PSoC4/CyLib.c ****         return ((0u != (CY_SYS_CLK_WCO_CONFIG_REG & CY_SYS_CLK_WCO_CONFIG_DPLL_ENABLE)) ?
 101              		.loc 1 306 0
 102 0002 1868     		ldr	r0, [r3]
 103 0004 4000     		lsls	r0, r0, #1
 104 0006 C00F     		lsrs	r0, r0, #31
 105              		.loc 1 309 0
 106 0008 7047     		bx	lr
 107              	.L9:
 108 000a C046     		.align	2
 109              	.L8:
 110 000c 00002240 		.word	1075970048
 111              		.cfi_endproc
 112              	.LFE5:
 113              		.size	CySysClkImoGetWcoLock, .-CySysClkImoGetWcoLock
 114              		.section	.text.CySysClkImoEnableUsbLock,"ax",%progbits
 115              		.align	1
 116              		.global	CySysClkImoEnableUsbLock
 117              		.code	16
 118              		.thumb_func
 119              		.type	CySysClkImoEnableUsbLock, %function
 120              	CySysClkImoEnableUsbLock:
 121              	.LFB6:
 310:Generated_Source\PSoC4/CyLib.c **** 
 311:Generated_Source\PSoC4/CyLib.c **** #endif /* (CY_IP_IMO_TRIMMABLE_BY_WCO) */
 312:Generated_Source\PSoC4/CyLib.c **** 
 313:Generated_Source\PSoC4/CyLib.c **** 
 314:Generated_Source\PSoC4/CyLib.c **** #if (CY_IP_IMO_TRIMMABLE_BY_USB)
 315:Generated_Source\PSoC4/CyLib.c **** 
 316:Generated_Source\PSoC4/CyLib.c ****     /*******************************************************************************
 317:Generated_Source\PSoC4/CyLib.c ****     * Function Name: CySysClkImoEnableUsbLock
 318:Generated_Source\PSoC4/CyLib.c ****     ****************************************************************************//**
 319:Generated_Source\PSoC4/CyLib.c ****     *
 320:Generated_Source\PSoC4/CyLib.c ****     * Enables the IMO to USB lock feature.
 321:Generated_Source\PSoC4/CyLib.c ****     *
 322:Generated_Source\PSoC4/CyLib.c ****     * This function must be called before CySysClkWriteImoFreq().
 323:Generated_Source\PSoC4/CyLib.c ****     *
 324:Generated_Source\PSoC4/CyLib.c ****     * This function is called from CySysClkImoStart() function if USB lock
 325:Generated_Source\PSoC4/CyLib.c ****     * selected in the Design Wide Resources tab.
 326:Generated_Source\PSoC4/CyLib.c ****     *
 327:Generated_Source\PSoC4/CyLib.c ****     * This is applicable for PSoC 4200L family of devices only. For PSoC 4200L
 328:Generated_Source\PSoC4/CyLib.c ****     * devices, the IMO can lock to either WCO or USB, but not both.
 329:Generated_Source\PSoC4/CyLib.c ****     *
 330:Generated_Source\PSoC4/CyLib.c ****     *******************************************************************************/
 331:Generated_Source\PSoC4/CyLib.c ****     void CySysClkImoEnableUsbLock(void)
 332:Generated_Source\PSoC4/CyLib.c ****     {
ARM GAS  C:\Users\theGu\AppData\Local\Temp\cce4Ss8I.s 			page 9


 122              		.loc 1 332 0
 123              		.cfi_startproc
 124              		@ args = 0, pretend = 0, frame = 0
 125              		@ frame_needed = 0, uses_anonymous_args = 0
 126              		@ link register save eliminated.
 333:Generated_Source\PSoC4/CyLib.c ****         /* Set oscillator interface control port to USB */
 334:Generated_Source\PSoC4/CyLib.c ****         #if (CY_IP_IMO_TRIMMABLE_BY_WCO && CY_IP_IMO_TRIMMABLE_BY_USB)
 335:Generated_Source\PSoC4/CyLib.c ****             CY_SYS_CLK_OSCINTF_CTL_REG = (CY_SYS_CLK_OSCINTF_CTL_REG & (uint32) ~CY_SYS_CLK_OSCINTF
 127              		.loc 1 335 0
 128 0000 0121     		movs	r1, #1
 129 0002 0A4A     		ldr	r2, .L11
 336:Generated_Source\PSoC4/CyLib.c ****                                           CY_SYS_CLK_OSCINTF_CTL_PORT_SEL_USB;
 337:Generated_Source\PSoC4/CyLib.c ****         #endif /* (CY_IP_IMO_TRIMMABLE_BY_WCO && CY_IP_IMO_TRIMMABLE_BY_USB) */
 338:Generated_Source\PSoC4/CyLib.c **** 
 339:Generated_Source\PSoC4/CyLib.c ****         #if(CY_IP_SRSSV2)
 340:Generated_Source\PSoC4/CyLib.c ****             /* Save CY_SYS_CLK_IMO_TRIM4_REG and set IMO gain for USB lock */
 341:Generated_Source\PSoC4/CyLib.c ****             CySysClkImoTrim4 = CY_SYS_CLK_IMO_TRIM4_REG & (uint32) ~CY_SYS_CLK_IMO_TRIM4_GAIN_MASK;
 130              		.loc 1 341 0
 131 0004 0A48     		ldr	r0, .L11+4
 335:Generated_Source\PSoC4/CyLib.c ****                                           CY_SYS_CLK_OSCINTF_CTL_PORT_SEL_USB;
 132              		.loc 1 335 0
 133 0006 1368     		ldr	r3, [r2]
 342:Generated_Source\PSoC4/CyLib.c ****             CY_SYS_CLK_IMO_TRIM4_REG = (CY_SYS_CLK_IMO_TRIM4_REG & (uint32) ~CY_SYS_CLK_IMO_TRIM4_G
 343:Generated_Source\PSoC4/CyLib.c ****                                         CY_SYS_CLK_IMO_TRIM4_USB_GAIN;
 344:Generated_Source\PSoC4/CyLib.c ****         #endif  /* (CY_IP_SRSSV2) */
 345:Generated_Source\PSoC4/CyLib.c **** 
 346:Generated_Source\PSoC4/CyLib.c ****         CY_SYS_CLK_USBDEVv2_CR1_REG |= CY_SYS_CLK_USBDEVv2_CR1_ENABLE_LOCK;
 347:Generated_Source\PSoC4/CyLib.c ****     }
 134              		.loc 1 347 0
 135              		@ sp needed
 335:Generated_Source\PSoC4/CyLib.c ****                                           CY_SYS_CLK_OSCINTF_CTL_PORT_SEL_USB;
 136              		.loc 1 335 0
 137 0008 8B43     		bics	r3, r1
 138 000a 1360     		str	r3, [r2]
 341:Generated_Source\PSoC4/CyLib.c ****             CY_SYS_CLK_IMO_TRIM4_REG = (CY_SYS_CLK_IMO_TRIM4_REG & (uint32) ~CY_SYS_CLK_IMO_TRIM4_G
 139              		.loc 1 341 0
 140 000c 094A     		ldr	r2, .L11+8
 141 000e 1E31     		adds	r1, r1, #30
 142 0010 1368     		ldr	r3, [r2]
 143 0012 8B43     		bics	r3, r1
 144 0014 0360     		str	r3, [r0]
 342:Generated_Source\PSoC4/CyLib.c ****             CY_SYS_CLK_IMO_TRIM4_REG = (CY_SYS_CLK_IMO_TRIM4_REG & (uint32) ~CY_SYS_CLK_IMO_TRIM4_G
 145              		.loc 1 342 0
 146 0016 1368     		ldr	r3, [r2]
 147 0018 8B43     		bics	r3, r1
 148 001a 1739     		subs	r1, r1, #23
 149 001c 0B43     		orrs	r3, r1
 150 001e 1360     		str	r3, [r2]
 346:Generated_Source\PSoC4/CyLib.c ****     }
 151              		.loc 1 346 0
 152 0020 054A     		ldr	r2, .L11+12
 153 0022 0639     		subs	r1, r1, #6
 154 0024 1368     		ldr	r3, [r2]
 155 0026 0B43     		orrs	r3, r1
 156 0028 1360     		str	r3, [r2]
 157              		.loc 1 347 0
 158 002a 7047     		bx	lr
ARM GAS  C:\Users\theGu\AppData\Local\Temp\cce4Ss8I.s 			page 10


 159              	.L12:
 160              		.align	2
 161              	.L11:
 162 002c 50000C40 		.word	1074528336
 163 0030 00000000 		.word	.LANCHOR0
 164 0034 34FF0B40 		.word	1074528052
 165 0038 24002C40 		.word	1076625444
 166              		.cfi_endproc
 167              	.LFE6:
 168              		.size	CySysClkImoEnableUsbLock, .-CySysClkImoEnableUsbLock
 169              		.section	.text.CySysClkImoDisableUsbLock,"ax",%progbits
 170              		.align	1
 171              		.global	CySysClkImoDisableUsbLock
 172              		.code	16
 173              		.thumb_func
 174              		.type	CySysClkImoDisableUsbLock, %function
 175              	CySysClkImoDisableUsbLock:
 176              	.LFB7:
 348:Generated_Source\PSoC4/CyLib.c **** 
 349:Generated_Source\PSoC4/CyLib.c **** 
 350:Generated_Source\PSoC4/CyLib.c ****     /*******************************************************************************
 351:Generated_Source\PSoC4/CyLib.c ****     * Function Name: CySysClkImoDisableUsbLock
 352:Generated_Source\PSoC4/CyLib.c ****     ****************************************************************************//**
 353:Generated_Source\PSoC4/CyLib.c ****     *
 354:Generated_Source\PSoC4/CyLib.c ****     * Disables the IMO to USB lock feature.
 355:Generated_Source\PSoC4/CyLib.c ****     *
 356:Generated_Source\PSoC4/CyLib.c ****     * This function is called from CySysClkImoStop() function if USB lock selected
 357:Generated_Source\PSoC4/CyLib.c ****     * in the Design Wide Resources tab.
 358:Generated_Source\PSoC4/CyLib.c ****     *
 359:Generated_Source\PSoC4/CyLib.c ****     * This is applicable for PSoC 4200L family of devices only. For PSoC 4200L
 360:Generated_Source\PSoC4/CyLib.c ****     * devices, the IMO can lock to either WCO or USB, but not both.
 361:Generated_Source\PSoC4/CyLib.c ****     *
 362:Generated_Source\PSoC4/CyLib.c ****     *******************************************************************************/
 363:Generated_Source\PSoC4/CyLib.c ****     void CySysClkImoDisableUsbLock(void)
 364:Generated_Source\PSoC4/CyLib.c ****     {
 177              		.loc 1 364 0
 178              		.cfi_startproc
 179              		@ args = 0, pretend = 0, frame = 0
 180              		@ frame_needed = 0, uses_anonymous_args = 0
 181              		@ link register save eliminated.
 365:Generated_Source\PSoC4/CyLib.c ****         CY_SYS_CLK_USBDEVv2_CR1_REG &= (uint32) ~CY_SYS_CLK_USBDEVv2_CR1_ENABLE_LOCK;
 182              		.loc 1 365 0
 183 0000 0221     		movs	r1, #2
 184 0002 064A     		ldr	r2, .L14
 366:Generated_Source\PSoC4/CyLib.c **** 
 367:Generated_Source\PSoC4/CyLib.c ****         #if(CY_IP_SRSSV2)
 368:Generated_Source\PSoC4/CyLib.c ****             /* Restore CY_SYS_CLK_IMO_TRIM4_REG */
 369:Generated_Source\PSoC4/CyLib.c ****             CY_SYS_CLK_IMO_TRIM4_REG = (CY_SYS_CLK_IMO_TRIM4_REG & (uint32) ~CY_SYS_CLK_IMO_TRIM4_G
 370:Generated_Source\PSoC4/CyLib.c ****                                     CySysClkImoTrim4;
 371:Generated_Source\PSoC4/CyLib.c ****         #endif  /* (CY_IP_SRSSV2) */
 372:Generated_Source\PSoC4/CyLib.c ****     }
 185              		.loc 1 372 0
 186              		@ sp needed
 365:Generated_Source\PSoC4/CyLib.c ****         CY_SYS_CLK_USBDEVv2_CR1_REG &= (uint32) ~CY_SYS_CLK_USBDEVv2_CR1_ENABLE_LOCK;
 187              		.loc 1 365 0
 188 0004 1368     		ldr	r3, [r2]
 189 0006 8B43     		bics	r3, r1
ARM GAS  C:\Users\theGu\AppData\Local\Temp\cce4Ss8I.s 			page 11


 190 0008 1360     		str	r3, [r2]
 369:Generated_Source\PSoC4/CyLib.c ****                                     CySysClkImoTrim4;
 191              		.loc 1 369 0
 192 000a 1F22     		movs	r2, #31
 193 000c 0449     		ldr	r1, .L14+4
 194 000e 0B68     		ldr	r3, [r1]
 195 0010 9343     		bics	r3, r2
 196 0012 044A     		ldr	r2, .L14+8
 197 0014 1268     		ldr	r2, [r2]
 198 0016 1343     		orrs	r3, r2
 199 0018 0B60     		str	r3, [r1]
 200              		.loc 1 372 0
 201 001a 7047     		bx	lr
 202              	.L15:
 203              		.align	2
 204              	.L14:
 205 001c 24002C40 		.word	1076625444
 206 0020 34FF0B40 		.word	1074528052
 207 0024 00000000 		.word	.LANCHOR0
 208              		.cfi_endproc
 209              	.LFE7:
 210              		.size	CySysClkImoDisableUsbLock, .-CySysClkImoDisableUsbLock
 211              		.section	.text.CySysClkImoStop,"ax",%progbits
 212              		.align	1
 213              		.global	CySysClkImoStop
 214              		.code	16
 215              		.thumb_func
 216              		.type	CySysClkImoStop, %function
 217              	CySysClkImoStop:
 218              	.LFB2:
 140:Generated_Source\PSoC4/CyLib.c ****     #if (CY_IP_IMO_TRIMMABLE_BY_WCO)
 219              		.loc 1 140 0
 220              		.cfi_startproc
 221              		@ args = 0, pretend = 0, frame = 0
 222              		@ frame_needed = 0, uses_anonymous_args = 0
 223 0000 10B5     		push	{r4, lr}
 224              		.cfi_def_cfa_offset 8
 225              		.cfi_offset 4, -8
 226              		.cfi_offset 14, -4
 142:Generated_Source\PSoC4/CyLib.c ****     #endif  /* (CY_IP_IMO_TRIMMABLE_BY_WCO) */
 227              		.loc 1 142 0
 228 0002 FFF7FEFF 		bl	CySysClkImoDisableWcoLock
 229              	.LVL0:
 146:Generated_Source\PSoC4/CyLib.c ****     #endif  /* (CY_IP_IMO_TRIMMABLE_BY_USB) */
 230              		.loc 1 146 0
 231 0006 FFF7FEFF 		bl	CySysClkImoDisableUsbLock
 232              	.LVL1:
 149:Generated_Source\PSoC4/CyLib.c **** }
 233              		.loc 1 149 0
 234 000a 034A     		ldr	r2, .L17
 150:Generated_Source\PSoC4/CyLib.c **** 
 235              		.loc 1 150 0
 236              		@ sp needed
 149:Generated_Source\PSoC4/CyLib.c **** }
 237              		.loc 1 149 0
 238 000c 1368     		ldr	r3, [r2]
 239 000e 5B00     		lsls	r3, r3, #1
ARM GAS  C:\Users\theGu\AppData\Local\Temp\cce4Ss8I.s 			page 12


 240 0010 5B08     		lsrs	r3, r3, #1
 241 0012 1360     		str	r3, [r2]
 150:Generated_Source\PSoC4/CyLib.c **** 
 242              		.loc 1 150 0
 243 0014 10BD     		pop	{r4, pc}
 244              	.L18:
 245 0016 C046     		.align	2
 246              	.L17:
 247 0018 08010B40 		.word	1074462984
 248              		.cfi_endproc
 249              	.LFE2:
 250              		.size	CySysClkImoStop, .-CySysClkImoStop
 251              		.section	.text.CySysClkImoGetUsbLock,"ax",%progbits
 252              		.align	1
 253              		.global	CySysClkImoGetUsbLock
 254              		.code	16
 255              		.thumb_func
 256              		.type	CySysClkImoGetUsbLock, %function
 257              	CySysClkImoGetUsbLock:
 258              	.LFB8:
 373:Generated_Source\PSoC4/CyLib.c **** 
 374:Generated_Source\PSoC4/CyLib.c **** 
 375:Generated_Source\PSoC4/CyLib.c ****     /*******************************************************************************
 376:Generated_Source\PSoC4/CyLib.c ****     * Function Name: CySysClkImoGetUsbLock
 377:Generated_Source\PSoC4/CyLib.c ****     ****************************************************************************//**
 378:Generated_Source\PSoC4/CyLib.c ****     *
 379:Generated_Source\PSoC4/CyLib.c ****     * Reports the IMO to USB lock enable state.
 380:Generated_Source\PSoC4/CyLib.c ****     *
 381:Generated_Source\PSoC4/CyLib.c ****     * This is applicable for PSoC 4200L family of devices only. For PSoC 4200L
 382:Generated_Source\PSoC4/CyLib.c ****     * devices, the IMO can lock to either WCO or USB, but not both.
 383:Generated_Source\PSoC4/CyLib.c ****     *
 384:Generated_Source\PSoC4/CyLib.c ****     * \return 1 if IMO to USB lock is enabled.
 385:Generated_Source\PSoC4/CyLib.c ****     * \return 0 if IMO to USB lock is disabled.
 386:Generated_Source\PSoC4/CyLib.c ****     *
 387:Generated_Source\PSoC4/CyLib.c ****     *******************************************************************************/
 388:Generated_Source\PSoC4/CyLib.c ****     uint32 CySysClkImoGetUsbLock(void)
 389:Generated_Source\PSoC4/CyLib.c ****     {
 259              		.loc 1 389 0
 260              		.cfi_startproc
 261              		@ args = 0, pretend = 0, frame = 0
 262              		@ frame_needed = 0, uses_anonymous_args = 0
 263              		@ link register save eliminated.
 390:Generated_Source\PSoC4/CyLib.c ****         return ((0u != (CY_SYS_CLK_USBDEVv2_CR1_REG & CY_SYS_CLK_USBDEVv2_CR1_ENABLE_LOCK)) ?
 264              		.loc 1 390 0
 265 0000 024B     		ldr	r3, .L20
 391:Generated_Source\PSoC4/CyLib.c ****                 (uint32) 1u :
 392:Generated_Source\PSoC4/CyLib.c ****                 (uint32) 0u);
 393:Generated_Source\PSoC4/CyLib.c ****     }
 266              		.loc 1 393 0
 267              		@ sp needed
 390:Generated_Source\PSoC4/CyLib.c ****         return ((0u != (CY_SYS_CLK_USBDEVv2_CR1_REG & CY_SYS_CLK_USBDEVv2_CR1_ENABLE_LOCK)) ?
 268              		.loc 1 390 0
 269 0002 1868     		ldr	r0, [r3]
 270 0004 8007     		lsls	r0, r0, #30
 271 0006 C00F     		lsrs	r0, r0, #31
 272              		.loc 1 393 0
 273 0008 7047     		bx	lr
ARM GAS  C:\Users\theGu\AppData\Local\Temp\cce4Ss8I.s 			page 13


 274              	.L21:
 275 000a C046     		.align	2
 276              	.L20:
 277 000c 24002C40 		.word	1076625444
 278              		.cfi_endproc
 279              	.LFE8:
 280              		.size	CySysClkImoGetUsbLock, .-CySysClkImoGetUsbLock
 281              		.section	.text.CySysClkWriteHfclkDirect,"ax",%progbits
 282              		.align	1
 283              		.global	CySysClkWriteHfclkDirect
 284              		.code	16
 285              		.thumb_func
 286              		.type	CySysClkWriteHfclkDirect, %function
 287              	CySysClkWriteHfclkDirect:
 288              	.LFB9:
 394:Generated_Source\PSoC4/CyLib.c **** #endif  /* (CY_IP_IMO_TRIMMABLE_BY_USB) */
 395:Generated_Source\PSoC4/CyLib.c **** 
 396:Generated_Source\PSoC4/CyLib.c **** 
 397:Generated_Source\PSoC4/CyLib.c **** 
 398:Generated_Source\PSoC4/CyLib.c **** /*******************************************************************************
 399:Generated_Source\PSoC4/CyLib.c **** * Function Name: CySysClkWriteHfclkDirect
 400:Generated_Source\PSoC4/CyLib.c **** ****************************************************************************//**
 401:Generated_Source\PSoC4/CyLib.c **** *
 402:Generated_Source\PSoC4/CyLib.c **** * Selects the direct source for the HFCLK.
 403:Generated_Source\PSoC4/CyLib.c **** *
 404:Generated_Source\PSoC4/CyLib.c **** * The new source must be running and stable before calling this function.
 405:Generated_Source\PSoC4/CyLib.c **** *
 406:Generated_Source\PSoC4/CyLib.c **** * PSoC 4000:
 407:Generated_Source\PSoC4/CyLib.c **** * The SYSCLK has a maximum speed of 16 MHz, so HFCLK and SYSCLK dividers should
 408:Generated_Source\PSoC4/CyLib.c **** * be selected in a way to not to exceed 16 MHz for the System clock.
 409:Generated_Source\PSoC4/CyLib.c **** *
 410:Generated_Source\PSoC4/CyLib.c **** * If the SYSCLK clock frequency increases during device operation, call
 411:Generated_Source\PSoC4/CyLib.c **** * CySysFlashSetWaitCycles() with the appropriate parameter to adjust the number
 412:Generated_Source\PSoC4/CyLib.c **** * of clock cycles the cache will wait before sampling data comes back from
 413:Generated_Source\PSoC4/CyLib.c **** * Flash. If the SYSCLK clock frequency decreases, you can call
 414:Generated_Source\PSoC4/CyLib.c **** * CySysFlashSetWaitCycles() to improve the CPU performance. See
 415:Generated_Source\PSoC4/CyLib.c **** * CySysFlashSetWaitCycles() description for more information.
 416:Generated_Source\PSoC4/CyLib.c **** *
 417:Generated_Source\PSoC4/CyLib.c **** * Do not select PLL as the source for HFCLK if PLL output frequency exceeds
 418:Generated_Source\PSoC4/CyLib.c **** * maximum permissible value for HFCLK.
 419:Generated_Source\PSoC4/CyLib.c **** *
 420:Generated_Source\PSoC4/CyLib.c **** * \param clkSelect One of the available HFCLK direct sources.
 421:Generated_Source\PSoC4/CyLib.c **** * CY_SYS_CLK_HFCLK_IMO     IMO.
 422:Generated_Source\PSoC4/CyLib.c **** * CY_SYS_CLK_HFCLK_EXTCLK  External clock pin.
 423:Generated_Source\PSoC4/CyLib.c **** * CY_SYS_CLK_HFCLK_ECO     External crystal oscillator. Applicable for
 424:Generated_Source\PSoC4/CyLib.c **** *                          PSoC 4100 BLE / PSoC 4200 BLE / PSoC 4200L.
 425:Generated_Source\PSoC4/CyLib.c **** * CY_SYS_CLK_HFCLK_PLL0    PLL#0. Applicable for PSoC 4200L.
 426:Generated_Source\PSoC4/CyLib.c **** * CY_SYS_CLK_HFCLK_PLL1    PLL#1. Applicable for PSoC 4200L.
 427:Generated_Source\PSoC4/CyLib.c **** *
 428:Generated_Source\PSoC4/CyLib.c **** *******************************************************************************/
 429:Generated_Source\PSoC4/CyLib.c **** void CySysClkWriteHfclkDirect(uint32 clkSelect)
 430:Generated_Source\PSoC4/CyLib.c **** {
 289              		.loc 1 430 0
 290              		.cfi_startproc
 291              		@ args = 0, pretend = 0, frame = 0
 292              		@ frame_needed = 0, uses_anonymous_args = 0
 293              	.LVL2:
ARM GAS  C:\Users\theGu\AppData\Local\Temp\cce4Ss8I.s 			page 14


 294 0000 70B5     		push	{r4, r5, r6, lr}
 295              		.cfi_def_cfa_offset 16
 296              		.cfi_offset 4, -16
 297              		.cfi_offset 5, -12
 298              		.cfi_offset 6, -8
 299              		.cfi_offset 14, -4
 300              		.loc 1 430 0
 301 0002 0400     		movs	r4, r0
 431:Generated_Source\PSoC4/CyLib.c ****     uint8  interruptState;
 432:Generated_Source\PSoC4/CyLib.c ****     uint32 tmpReg;
 433:Generated_Source\PSoC4/CyLib.c **** 
 434:Generated_Source\PSoC4/CyLib.c ****     interruptState = CyEnterCriticalSection();
 302              		.loc 1 434 0
 303 0004 FFF7FEFF 		bl	CyEnterCriticalSection
 304              	.LVL3:
 435:Generated_Source\PSoC4/CyLib.c **** 
 436:Generated_Source\PSoC4/CyLib.c **** 
 437:Generated_Source\PSoC4/CyLib.c ****     tmpReg = CY_SYS_CLK_SELECT_REG & ~(CY_SYS_CLK_SELECT_DIRECT_SEL_MASK |
 305              		.loc 1 437 0
 306 0008 0949     		ldr	r1, .L27
 307 000a 0A4B     		ldr	r3, .L27+4
 308 000c 0A68     		ldr	r2, [r1]
 309 000e 1A40     		ands	r2, r3
 310              	.LVL4:
 438:Generated_Source\PSoC4/CyLib.c ****                                        CY_SYS_CLK_SELECT_HFCLK_SEL_MASK);
 439:Generated_Source\PSoC4/CyLib.c **** 
 440:Generated_Source\PSoC4/CyLib.c **** #if (CY_IP_SRSSV2 && CY_IP_PLL)
 441:Generated_Source\PSoC4/CyLib.c ****     if ((CY_SYS_CLK_HFCLK_PLL0 == clkSelect) || (CY_SYS_CLK_HFCLK_PLL1 == clkSelect))
 311              		.loc 1 441 0
 312 0010 094B     		ldr	r3, .L27+8
 313 0012 E518     		adds	r5, r4, r3
 314 0014 094B     		ldr	r3, .L27+12
 315 0016 1D42     		tst	r5, r3
 316 0018 02D1     		bne	.L23
 442:Generated_Source\PSoC4/CyLib.c ****     {
 443:Generated_Source\PSoC4/CyLib.c ****         tmpReg |= (clkSelect & CY_SYS_CLK_SELECT_HFCLK_SEL_MASK);
 317              		.loc 1 443 0
 318 001a C023     		movs	r3, #192
 319 001c 9B02     		lsls	r3, r3, #10
 320 001e 00E0     		b	.L25
 321              	.L23:
 444:Generated_Source\PSoC4/CyLib.c ****     }
 445:Generated_Source\PSoC4/CyLib.c ****     else
 446:Generated_Source\PSoC4/CyLib.c **** #endif /* (CY_IP_SRSSV2 && CY_IP_PLL) */
 447:Generated_Source\PSoC4/CyLib.c ****     {
 448:Generated_Source\PSoC4/CyLib.c ****         tmpReg |= (clkSelect & CY_SYS_CLK_SELECT_DIRECT_SEL_MASK);
 322              		.loc 1 448 0
 323 0020 0723     		movs	r3, #7
 324              	.L25:
 325 0022 2340     		ands	r3, r4
 326 0024 1343     		orrs	r3, r2
 327              	.LVL5:
 449:Generated_Source\PSoC4/CyLib.c ****     }
 450:Generated_Source\PSoC4/CyLib.c **** 
 451:Generated_Source\PSoC4/CyLib.c ****     CY_SYS_CLK_SELECT_REG = tmpReg;
 328              		.loc 1 451 0
 329 0026 0B60     		str	r3, [r1]
ARM GAS  C:\Users\theGu\AppData\Local\Temp\cce4Ss8I.s 			page 15


 452:Generated_Source\PSoC4/CyLib.c **** 
 453:Generated_Source\PSoC4/CyLib.c ****     CyExitCriticalSection(interruptState);
 330              		.loc 1 453 0
 331 0028 FFF7FEFF 		bl	CyExitCriticalSection
 332              	.LVL6:
 454:Generated_Source\PSoC4/CyLib.c **** }
 333              		.loc 1 454 0
 334              		@ sp needed
 335              	.LVL7:
 336              	.LVL8:
 337 002c 70BD     		pop	{r4, r5, r6, pc}
 338              	.L28:
 339 002e C046     		.align	2
 340              	.L27:
 341 0030 00010B40 		.word	1074462976
 342 0034 F8FFFCFF 		.word	-196616
 343 0038 0000FFFF 		.word	-65536
 344 003c FFFFFEFF 		.word	-65537
 345              		.cfi_endproc
 346              	.LFE9:
 347              		.size	CySysClkWriteHfclkDirect, .-CySysClkWriteHfclkDirect
 348              		.section	.text.CySysEnablePumpClock,"ax",%progbits
 349              		.align	1
 350              		.global	CySysEnablePumpClock
 351              		.code	16
 352              		.thumb_func
 353              		.type	CySysEnablePumpClock, %function
 354              	CySysEnablePumpClock:
 355              	.LFB10:
 455:Generated_Source\PSoC4/CyLib.c **** 
 456:Generated_Source\PSoC4/CyLib.c **** 
 457:Generated_Source\PSoC4/CyLib.c **** /*******************************************************************************
 458:Generated_Source\PSoC4/CyLib.c **** * Function Name: CySysEnablePumpClock
 459:Generated_Source\PSoC4/CyLib.c **** ****************************************************************************//**
 460:Generated_Source\PSoC4/CyLib.c **** *
 461:Generated_Source\PSoC4/CyLib.c **** * Enables / disables the pump clock.
 462:Generated_Source\PSoC4/CyLib.c **** *
 463:Generated_Source\PSoC4/CyLib.c **** * \param enable  
 464:Generated_Source\PSoC4/CyLib.c **** * CY_SYS_CLK_PUMP_DISABLE - Disables the pump clock
 465:Generated_Source\PSoC4/CyLib.c **** * CY_SYS_CLK_PUMP_ENABLE - Enables and restores the operating source of 
 466:Generated_Source\PSoC4/CyLib.c **** * the pump clock.
 467:Generated_Source\PSoC4/CyLib.c **** *
 468:Generated_Source\PSoC4/CyLib.c **** * \sideeffect
 469:Generated_Source\PSoC4/CyLib.c **** *  Enabling/disabling the pump clock does not guarantee glitch free operation 
 470:Generated_Source\PSoC4/CyLib.c **** *  when changing the IMO parameters or clock divider settings.
 471:Generated_Source\PSoC4/CyLib.c **** *
 472:Generated_Source\PSoC4/CyLib.c **** *******************************************************************************/
 473:Generated_Source\PSoC4/CyLib.c **** void CySysEnablePumpClock(uint32 enable)
 474:Generated_Source\PSoC4/CyLib.c **** {
 356              		.loc 1 474 0
 357              		.cfi_startproc
 358              		@ args = 0, pretend = 0, frame = 0
 359              		@ frame_needed = 0, uses_anonymous_args = 0
 360              	.LVL9:
 361 0000 10B5     		push	{r4, lr}
 362              		.cfi_def_cfa_offset 8
 363              		.cfi_offset 4, -8
ARM GAS  C:\Users\theGu\AppData\Local\Temp\cce4Ss8I.s 			page 16


 364              		.cfi_offset 14, -4
 365 0002 094B     		ldr	r3, .L33
 366 0004 094C     		ldr	r4, .L33+4
 475:Generated_Source\PSoC4/CyLib.c ****     #if(CY_IP_SRSSV2)
 476:Generated_Source\PSoC4/CyLib.c ****         if (0u != (CY_SYS_CLK_PUMP_ENABLE & enable))
 367              		.loc 1 476 0
 368 0006 C207     		lsls	r2, r0, #31
 369 0008 04D5     		bpl	.L30
 477:Generated_Source\PSoC4/CyLib.c ****         {
 478:Generated_Source\PSoC4/CyLib.c ****             CY_SYS_CLK_IMO_CONFIG_REG |= (CySysClkPumpConfig << CY_SYS_CLK_IMO_CONFIG_PUMP_SEL_SHIF
 370              		.loc 1 478 0
 371 000a 2268     		ldr	r2, [r4]
 372 000c 1968     		ldr	r1, [r3]
 373 000e 5206     		lsls	r2, r2, #25
 374 0010 0A43     		orrs	r2, r1
 375 0012 06E0     		b	.L32
 376              	.L30:
 479:Generated_Source\PSoC4/CyLib.c ****         }
 480:Generated_Source\PSoC4/CyLib.c ****         else
 481:Generated_Source\PSoC4/CyLib.c ****         {
 482:Generated_Source\PSoC4/CyLib.c ****             CySysClkPumpConfig = (CY_SYS_CLK_IMO_CONFIG_REG >> CY_SYS_CLK_IMO_CONFIG_PUMP_SEL_SHIFT
 377              		.loc 1 482 0
 378 0014 1A68     		ldr	r2, [r3]
 379 0016 1201     		lsls	r2, r2, #4
 380 0018 520F     		lsrs	r2, r2, #29
 381 001a 2260     		str	r2, [r4]
 483:Generated_Source\PSoC4/CyLib.c ****                                   CY_SYS_CLK_IMO_CONFIG_PUMP_SEL_MASK;
 484:Generated_Source\PSoC4/CyLib.c ****             CY_SYS_CLK_IMO_CONFIG_REG &= ~(CY_SYS_CLK_IMO_CONFIG_PUMP_SEL_MASK << CY_SYS_CLK_IMO_CO
 382              		.loc 1 484 0
 383 001c 1968     		ldr	r1, [r3]
 384 001e 044A     		ldr	r2, .L33+8
 385 0020 0A40     		ands	r2, r1
 386              	.L32:
 387 0022 1A60     		str	r2, [r3]
 485:Generated_Source\PSoC4/CyLib.c ****         }
 486:Generated_Source\PSoC4/CyLib.c ****     #else /* CY_IP_SRSSLT */
 487:Generated_Source\PSoC4/CyLib.c ****         if (0u != (CY_SYS_CLK_PUMP_ENABLE & enable))
 488:Generated_Source\PSoC4/CyLib.c ****         {
 489:Generated_Source\PSoC4/CyLib.c ****             CY_SYS_CLK_SELECT_REG |= (CySysClkPumpConfig << CY_SYS_CLK_SELECT_PUMP_SEL_SHIFT);
 490:Generated_Source\PSoC4/CyLib.c ****         }
 491:Generated_Source\PSoC4/CyLib.c ****         else
 492:Generated_Source\PSoC4/CyLib.c ****         {
 493:Generated_Source\PSoC4/CyLib.c ****             CySysClkPumpConfig = (CY_SYS_CLK_SELECT_REG >> CY_SYS_CLK_SELECT_PUMP_SEL_SHIFT) & 
 494:Generated_Source\PSoC4/CyLib.c ****                                   CY_SYS_CLK_SELECT_PUMP_SEL_MASK;
 495:Generated_Source\PSoC4/CyLib.c ****             CY_SYS_CLK_SELECT_REG &= ~(CY_SYS_CLK_SELECT_PUMP_SEL_MASK << CY_SYS_CLK_SELECT_PUMP_SE
 496:Generated_Source\PSoC4/CyLib.c ****         }
 497:Generated_Source\PSoC4/CyLib.c ****     #endif  /* (CY_IP_SRSSV2) */
 498:Generated_Source\PSoC4/CyLib.c **** }
 388              		.loc 1 498 0
 389              		@ sp needed
 390 0024 10BD     		pop	{r4, pc}
 391              	.L34:
 392 0026 C046     		.align	2
 393              	.L33:
 394 0028 08010B40 		.word	1074462984
 395 002c 00000000 		.word	.LANCHOR1
 396 0030 FFFFFFF1 		.word	-234881025
ARM GAS  C:\Users\theGu\AppData\Local\Temp\cce4Ss8I.s 			page 17


 397              		.cfi_endproc
 398              	.LFE10:
 399              		.size	CySysEnablePumpClock, .-CySysEnablePumpClock
 400              		.section	.text.CySysClkGetSysclkSource,"ax",%progbits
 401              		.align	1
 402              		.global	CySysClkGetSysclkSource
 403              		.code	16
 404              		.thumb_func
 405              		.type	CySysClkGetSysclkSource, %function
 406              	CySysClkGetSysclkSource:
 407              	.LFB11:
 499:Generated_Source\PSoC4/CyLib.c **** 
 500:Generated_Source\PSoC4/CyLib.c **** 
 501:Generated_Source\PSoC4/CyLib.c **** /*******************************************************************************
 502:Generated_Source\PSoC4/CyLib.c **** * Function Name: CySysClkGetSysclkSource
 503:Generated_Source\PSoC4/CyLib.c **** ****************************************************************************//**
 504:Generated_Source\PSoC4/CyLib.c **** *
 505:Generated_Source\PSoC4/CyLib.c **** * Returns the source of the System clock.
 506:Generated_Source\PSoC4/CyLib.c **** *
 507:Generated_Source\PSoC4/CyLib.c **** * \return The same as \ref CySysClkWriteHfclkDirect() function parameters.
 508:Generated_Source\PSoC4/CyLib.c **** *
 509:Generated_Source\PSoC4/CyLib.c **** *******************************************************************************/
 510:Generated_Source\PSoC4/CyLib.c **** uint32 CySysClkGetSysclkSource(void)
 511:Generated_Source\PSoC4/CyLib.c **** {
 408              		.loc 1 511 0
 409              		.cfi_startproc
 410              		@ args = 0, pretend = 0, frame = 0
 411              		@ frame_needed = 0, uses_anonymous_args = 0
 412 0000 10B5     		push	{r4, lr}
 413              		.cfi_def_cfa_offset 8
 414              		.cfi_offset 4, -8
 415              		.cfi_offset 14, -4
 512:Generated_Source\PSoC4/CyLib.c ****     uint8  interruptState;
 513:Generated_Source\PSoC4/CyLib.c ****     uint32 sysclkSource;
 514:Generated_Source\PSoC4/CyLib.c **** 
 515:Generated_Source\PSoC4/CyLib.c ****     interruptState = CyEnterCriticalSection();
 416              		.loc 1 515 0
 417 0002 FFF7FEFF 		bl	CyEnterCriticalSection
 418              	.LVL10:
 516:Generated_Source\PSoC4/CyLib.c **** 
 517:Generated_Source\PSoC4/CyLib.c **** #if (CY_IP_SRSSV2 && CY_IP_PLL)
 518:Generated_Source\PSoC4/CyLib.c ****     if ((CY_SYS_CLK_SELECT_REG & CY_SYS_CLK_SELECT_HFCLK_SEL_MASK) != 0u)
 419              		.loc 1 518 0
 420 0006 C023     		movs	r3, #192
 421 0008 054A     		ldr	r2, .L39
 422 000a 9B02     		lsls	r3, r3, #10
 423 000c 1168     		ldr	r1, [r2]
 519:Generated_Source\PSoC4/CyLib.c ****     {
 520:Generated_Source\PSoC4/CyLib.c ****         sysclkSource = (CY_SYS_CLK_SELECT_REG & CY_SYS_CLK_SELECT_HFCLK_SEL_MASK);
 424              		.loc 1 520 0
 425 000e 1468     		ldr	r4, [r2]
 518:Generated_Source\PSoC4/CyLib.c ****     {
 426              		.loc 1 518 0
 427 0010 1942     		tst	r1, r3
 428 0012 00D1     		bne	.L38
 521:Generated_Source\PSoC4/CyLib.c ****     }
 522:Generated_Source\PSoC4/CyLib.c ****     else
ARM GAS  C:\Users\theGu\AppData\Local\Temp\cce4Ss8I.s 			page 18


 523:Generated_Source\PSoC4/CyLib.c **** #endif /* (CY_IP_SRSSV2 && CY_IP_PLL) */
 524:Generated_Source\PSoC4/CyLib.c ****     {
 525:Generated_Source\PSoC4/CyLib.c ****         sysclkSource = (CY_SYS_CLK_SELECT_REG & CY_SYS_CLK_SELECT_DIRECT_SEL_MASK);
 429              		.loc 1 525 0
 430 0014 0723     		movs	r3, #7
 431              	.L38:
 432 0016 1C40     		ands	r4, r3
 433              	.LVL11:
 526:Generated_Source\PSoC4/CyLib.c ****     }
 527:Generated_Source\PSoC4/CyLib.c **** 
 528:Generated_Source\PSoC4/CyLib.c ****     CyExitCriticalSection(interruptState);
 529:Generated_Source\PSoC4/CyLib.c **** 
 530:Generated_Source\PSoC4/CyLib.c ****     return (sysclkSource);
 531:Generated_Source\PSoC4/CyLib.c **** }
 434              		.loc 1 531 0
 435              		@ sp needed
 528:Generated_Source\PSoC4/CyLib.c **** 
 436              		.loc 1 528 0
 437 0018 FFF7FEFF 		bl	CyExitCriticalSection
 438              	.LVL12:
 439              		.loc 1 531 0
 440 001c 2000     		movs	r0, r4
 441              	.LVL13:
 442 001e 10BD     		pop	{r4, pc}
 443              	.L40:
 444              		.align	2
 445              	.L39:
 446 0020 00010B40 		.word	1074462976
 447              		.cfi_endproc
 448              	.LFE11:
 449              		.size	CySysClkGetSysclkSource, .-CySysClkGetSysclkSource
 450              		.section	.text.CySysClkPllConfigChangeAllowed,"ax",%progbits
 451              		.align	1
 452              		.code	16
 453              		.thumb_func
 454              		.type	CySysClkPllConfigChangeAllowed, %function
 455              	CySysClkPllConfigChangeAllowed:
 456              	.LFB25:
 532:Generated_Source\PSoC4/CyLib.c **** 
 533:Generated_Source\PSoC4/CyLib.c **** 
 534:Generated_Source\PSoC4/CyLib.c **** /*******************************************************************************
 535:Generated_Source\PSoC4/CyLib.c **** * Function Name: CySysClkWriteSysclkDiv
 536:Generated_Source\PSoC4/CyLib.c **** ****************************************************************************//**
 537:Generated_Source\PSoC4/CyLib.c **** *
 538:Generated_Source\PSoC4/CyLib.c **** * Selects the prescaler divide amount for SYSCLK from HFCLK.
 539:Generated_Source\PSoC4/CyLib.c **** *
 540:Generated_Source\PSoC4/CyLib.c **** * PSoC 4000: The SYSCLK has the speed of 16 MHz, so HFCLK and SYSCLK dividers
 541:Generated_Source\PSoC4/CyLib.c **** * should be selected in a way, not to exceed 16 MHz for SYSCLK.
 542:Generated_Source\PSoC4/CyLib.c **** *
 543:Generated_Source\PSoC4/CyLib.c **** * PSoC 4100 \ PSoC 4100 BLE \ PSoC 4100M: The SYSCLK has the speed of 24 MHz,
 544:Generated_Source\PSoC4/CyLib.c **** * so HFCLK and SYSCLK dividers should be selected in a way, not to exceed 24 MHz
 545:Generated_Source\PSoC4/CyLib.c **** * for SYSCLK.
 546:Generated_Source\PSoC4/CyLib.c **** *
 547:Generated_Source\PSoC4/CyLib.c **** * If the SYSCLK clock frequency increases during the device operation, call
 548:Generated_Source\PSoC4/CyLib.c **** * \ref CySysFlashSetWaitCycles() with the appropriate parameter to adjust the
 549:Generated_Source\PSoC4/CyLib.c **** * number of clock cycles the cache will wait before sampling data comes back
 550:Generated_Source\PSoC4/CyLib.c **** * from Flash. If the SYSCLK clock frequency decreases, you can call
ARM GAS  C:\Users\theGu\AppData\Local\Temp\cce4Ss8I.s 			page 19


 551:Generated_Source\PSoC4/CyLib.c **** * \ref CySysFlashSetWaitCycles() to improve the CPU performance. See
 552:Generated_Source\PSoC4/CyLib.c **** * \ref CySysFlashSetWaitCycles() description for more information.
 553:Generated_Source\PSoC4/CyLib.c **** *
 554:Generated_Source\PSoC4/CyLib.c **** * \param divider Power of 2 prescaler selection
 555:Generated_Source\PSoC4/CyLib.c **** *  CY_SYS_CLK_SYSCLK_DIV1        SYSCLK = HFCLK / 1
 556:Generated_Source\PSoC4/CyLib.c **** *  CY_SYS_CLK_SYSCLK_DIV2        SYSCLK = HFCLK / 2
 557:Generated_Source\PSoC4/CyLib.c **** *  CY_SYS_CLK_SYSCLK_DIV4        SYSCLK = HFCLK / 4
 558:Generated_Source\PSoC4/CyLib.c **** *  CY_SYS_CLK_SYSCLK_DIV8        SYSCLK = HFCLK / 8
 559:Generated_Source\PSoC4/CyLib.c **** *  CY_SYS_CLK_SYSCLK_DIV16       SYSCLK = HFCLK / 16  (N/A for 4000 Family)
 560:Generated_Source\PSoC4/CyLib.c **** *  CY_SYS_CLK_SYSCLK_DIV32       SYSCLK = HFCLK / 32  (N/A for 4000 Family)
 561:Generated_Source\PSoC4/CyLib.c **** *  CY_SYS_CLK_SYSCLK_DIV64       SYSCLK = HFCLK / 64  (N/A for 4000 Family)
 562:Generated_Source\PSoC4/CyLib.c **** *  CY_SYS_CLK_SYSCLK_DIV128      SYSCLK = HFCLK / 128 (N/A for 4000 Family)
 563:Generated_Source\PSoC4/CyLib.c **** *
 564:Generated_Source\PSoC4/CyLib.c **** *******************************************************************************/
 565:Generated_Source\PSoC4/CyLib.c **** void CySysClkWriteSysclkDiv(uint32 divider)
 566:Generated_Source\PSoC4/CyLib.c **** {
 567:Generated_Source\PSoC4/CyLib.c ****     uint8  interruptState;
 568:Generated_Source\PSoC4/CyLib.c **** 
 569:Generated_Source\PSoC4/CyLib.c ****     interruptState = CyEnterCriticalSection();
 570:Generated_Source\PSoC4/CyLib.c **** 
 571:Generated_Source\PSoC4/CyLib.c ****     CY_SYS_CLK_SELECT_REG = ((uint32)(((uint32)divider & CY_SYS_CLK_SELECT_SYSCLK_DIV_MASK) <<
 572:Generated_Source\PSoC4/CyLib.c ****                                     CY_SYS_CLK_SELECT_SYSCLK_DIV_SHIFT)) |
 573:Generated_Source\PSoC4/CyLib.c ****                             (CY_SYS_CLK_SELECT_REG & ((uint32)(~(uint32)(CY_SYS_CLK_SELECT_SYSCLK_D
 574:Generated_Source\PSoC4/CyLib.c ****                                     CY_SYS_CLK_SELECT_SYSCLK_DIV_SHIFT))));
 575:Generated_Source\PSoC4/CyLib.c **** 
 576:Generated_Source\PSoC4/CyLib.c ****     CyExitCriticalSection(interruptState);
 577:Generated_Source\PSoC4/CyLib.c **** }
 578:Generated_Source\PSoC4/CyLib.c **** 
 579:Generated_Source\PSoC4/CyLib.c **** 
 580:Generated_Source\PSoC4/CyLib.c **** /*******************************************************************************
 581:Generated_Source\PSoC4/CyLib.c **** * Function Name: CySysClkWriteImoFreq
 582:Generated_Source\PSoC4/CyLib.c **** ****************************************************************************//**
 583:Generated_Source\PSoC4/CyLib.c **** *
 584:Generated_Source\PSoC4/CyLib.c **** * Sets the frequency of the IMO.
 585:Generated_Source\PSoC4/CyLib.c **** *
 586:Generated_Source\PSoC4/CyLib.c **** * PSoC 4000: The SYSCLK has the speed of 16 MHz, so HFCLK and SYSCLK dividers
 587:Generated_Source\PSoC4/CyLib.c **** * should be selected in a way, not to exceed 16 MHz for SYSCLK.
 588:Generated_Source\PSoC4/CyLib.c **** *
 589:Generated_Source\PSoC4/CyLib.c **** * PSoC 4100 \ PSoC 4100 BLE \ PSoC 4100M: The SYSCLK has the speed of 24 MHz,
 590:Generated_Source\PSoC4/CyLib.c **** * so HFCLK and SYSCLK dividers should be selected in a way, not to exceed 24 MHz
 591:Generated_Source\PSoC4/CyLib.c **** * for SYSCLK.
 592:Generated_Source\PSoC4/CyLib.c **** *
 593:Generated_Source\PSoC4/CyLib.c **** * For PSoC 4200M and PSoC 4200L device families, if WCO lock feature is enabled
 594:Generated_Source\PSoC4/CyLib.c **** * then this API will disable the lock, write the new IMO frequency and then
 595:Generated_Source\PSoC4/CyLib.c **** * re-enable the lock.
 596:Generated_Source\PSoC4/CyLib.c **** *
 597:Generated_Source\PSoC4/CyLib.c **** * For PSoC 4200L device families, this function enables the USB lock when 24 or
 598:Generated_Source\PSoC4/CyLib.c **** * 48 MHz passed as a parameter if the USB lock option is enabled in Design Wide
 599:Generated_Source\PSoC4/CyLib.c **** * Resources tab or CySysClkImoEnableUsbLock() was called before. Note the USB
 600:Generated_Source\PSoC4/CyLib.c **** * lock is disabled during IMO frequency change.
 601:Generated_Source\PSoC4/CyLib.c **** *
 602:Generated_Source\PSoC4/CyLib.c **** * The CPU is halted if new frequency is invalid and project is compiled
 603:Generated_Source\PSoC4/CyLib.c **** * in debug mode.
 604:Generated_Source\PSoC4/CyLib.c **** *
 605:Generated_Source\PSoC4/CyLib.c **** * If the SYSCLK clock frequency increases during the device operation, call
 606:Generated_Source\PSoC4/CyLib.c **** * \ref CySysFlashSetWaitCycles() with the appropriate parameter to adjust the
 607:Generated_Source\PSoC4/CyLib.c **** * number of clock cycles the cache will wait before sampling data comes back
ARM GAS  C:\Users\theGu\AppData\Local\Temp\cce4Ss8I.s 			page 20


 608:Generated_Source\PSoC4/CyLib.c **** * from Flash. If the SYSCLK clock frequency decreases, you can call
 609:Generated_Source\PSoC4/CyLib.c **** * \ref CySysFlashSetWaitCycles() to improve the CPU performance. See
 610:Generated_Source\PSoC4/CyLib.c **** * \ref CySysFlashSetWaitCycles() description for more information.
 611:Generated_Source\PSoC4/CyLib.c **** *
 612:Generated_Source\PSoC4/CyLib.c **** * PSoC 4000: The System Clock (SYSCLK) has maximum speed of 16 MHz, so HFCLK
 613:Generated_Source\PSoC4/CyLib.c **** * and SYSCLK dividers should be selected in a way, to not to exceed 16 MHz for
 614:Generated_Source\PSoC4/CyLib.c **** * the System clock.
 615:Generated_Source\PSoC4/CyLib.c **** *
 616:Generated_Source\PSoC4/CyLib.c **** * \param freq All PSoC 4 families excluding the following: Valid range [3-48]
 617:Generated_Source\PSoC4/CyLib.c **** * with step size equals 1. PSoC 4000: Valid values are 24, 32, and 48.
 618:Generated_Source\PSoC4/CyLib.c **** * PSoC 4000S / PSoC 4100S / PSoC 4400: Valid range [24-48] with step size equals
 619:Generated_Source\PSoC4/CyLib.c **** * 4.
 620:Generated_Source\PSoC4/CyLib.c **** *
 621:Generated_Source\PSoC4/CyLib.c **** *******************************************************************************/
 622:Generated_Source\PSoC4/CyLib.c **** #if(CY_IP_SRSSV2)
 623:Generated_Source\PSoC4/CyLib.c ****     void CySysClkWriteImoFreq(uint32 freq)
 624:Generated_Source\PSoC4/CyLib.c ****     {
 625:Generated_Source\PSoC4/CyLib.c ****         #if (CY_IP_FMLT)
 626:Generated_Source\PSoC4/CyLib.c ****             volatile uint32   parameters[2u];
 627:Generated_Source\PSoC4/CyLib.c ****             volatile uint32   regValues[4u];
 628:Generated_Source\PSoC4/CyLib.c ****         #else
 629:Generated_Source\PSoC4/CyLib.c ****             uint8  bgTrim4;
 630:Generated_Source\PSoC4/CyLib.c ****             uint8  bgTrim5;
 631:Generated_Source\PSoC4/CyLib.c ****             uint8  newImoTrim2Value;
 632:Generated_Source\PSoC4/CyLib.c ****             uint8  currentImoTrim2Value;
 633:Generated_Source\PSoC4/CyLib.c ****             uint8  imoTrim1Value;
 634:Generated_Source\PSoC4/CyLib.c ****         #endif /* (CY_IP_FM) */
 635:Generated_Source\PSoC4/CyLib.c **** 
 636:Generated_Source\PSoC4/CyLib.c ****         #if (CY_IP_IMO_TRIMMABLE_BY_WCO)
 637:Generated_Source\PSoC4/CyLib.c ****             uint32 wcoLock = 0u;
 638:Generated_Source\PSoC4/CyLib.c ****         #endif  /* (CY_IP_IMO_TRIMMABLE_BY_WCO) */
 639:Generated_Source\PSoC4/CyLib.c **** 
 640:Generated_Source\PSoC4/CyLib.c ****         #if (CY_IP_IMO_TRIMMABLE_BY_USB)
 641:Generated_Source\PSoC4/CyLib.c ****             uint32 usbLock = 0u;
 642:Generated_Source\PSoC4/CyLib.c ****         #endif  /* (CY_IP_IMO_TRIMMABLE_BY_USB) */
 643:Generated_Source\PSoC4/CyLib.c **** 
 644:Generated_Source\PSoC4/CyLib.c ****         uint8  interruptState;
 645:Generated_Source\PSoC4/CyLib.c **** 
 646:Generated_Source\PSoC4/CyLib.c **** 
 647:Generated_Source\PSoC4/CyLib.c ****         interruptState = CyEnterCriticalSection();
 648:Generated_Source\PSoC4/CyLib.c **** 
 649:Generated_Source\PSoC4/CyLib.c ****         #if (CY_IP_IMO_TRIMMABLE_BY_WCO)
 650:Generated_Source\PSoC4/CyLib.c ****             if(0u != CySysClkImoGetWcoLock())
 651:Generated_Source\PSoC4/CyLib.c ****             {
 652:Generated_Source\PSoC4/CyLib.c ****                 wcoLock = 1u;
 653:Generated_Source\PSoC4/CyLib.c ****                 CySysClkImoDisableWcoLock();
 654:Generated_Source\PSoC4/CyLib.c ****             }
 655:Generated_Source\PSoC4/CyLib.c ****         #endif  /* (CY_IP_IMO_TRIMMABLE_BY_WCO) */
 656:Generated_Source\PSoC4/CyLib.c **** 
 657:Generated_Source\PSoC4/CyLib.c **** 
 658:Generated_Source\PSoC4/CyLib.c ****         #if (CY_IP_IMO_TRIMMABLE_BY_USB)
 659:Generated_Source\PSoC4/CyLib.c **** 
 660:Generated_Source\PSoC4/CyLib.c ****             #if (CYDEV_IMO_TRIMMED_BY_USB == 0u)
 661:Generated_Source\PSoC4/CyLib.c ****                 if(0u != CySysClkImoGetUsbLock())
 662:Generated_Source\PSoC4/CyLib.c ****                 {
 663:Generated_Source\PSoC4/CyLib.c ****             #endif  /* (CYDEV_IMO_TRIMMED_BY_USB == 0u) */
 664:Generated_Source\PSoC4/CyLib.c **** 
ARM GAS  C:\Users\theGu\AppData\Local\Temp\cce4Ss8I.s 			page 21


 665:Generated_Source\PSoC4/CyLib.c ****                 if ((24u == freq) || (48u == freq))
 666:Generated_Source\PSoC4/CyLib.c ****                 {
 667:Generated_Source\PSoC4/CyLib.c ****                     usbLock = 1u;
 668:Generated_Source\PSoC4/CyLib.c ****                     CySysClkImoDisableUsbLock();
 669:Generated_Source\PSoC4/CyLib.c ****                 }
 670:Generated_Source\PSoC4/CyLib.c **** 
 671:Generated_Source\PSoC4/CyLib.c ****             #if (CYDEV_IMO_TRIMMED_BY_USB == 0u)
 672:Generated_Source\PSoC4/CyLib.c ****                 }
 673:Generated_Source\PSoC4/CyLib.c ****             #endif  /* (CYDEV_IMO_TRIMMED_BY_USB == 0u) */
 674:Generated_Source\PSoC4/CyLib.c **** 
 675:Generated_Source\PSoC4/CyLib.c ****         #endif  /* (CYDEV_IMO_TRIMMED_BY_USB == 0u) */
 676:Generated_Source\PSoC4/CyLib.c **** 
 677:Generated_Source\PSoC4/CyLib.c **** 
 678:Generated_Source\PSoC4/CyLib.c ****         #if (CY_IP_FMLT)
 679:Generated_Source\PSoC4/CyLib.c **** 
 680:Generated_Source\PSoC4/CyLib.c ****             /* FM-Lite Clock Restore */
 681:Generated_Source\PSoC4/CyLib.c ****             regValues[0u] = CY_SYS_CLK_IMO_CONFIG_REG;
 682:Generated_Source\PSoC4/CyLib.c ****             regValues[1u] = CY_SYS_CLK_SELECT_REG;
 683:Generated_Source\PSoC4/CyLib.c ****             regValues[2u] = cyImoFreqMhz2Reg[freq - CY_SYS_CLK_IMO_FREQ_TABLE_OFFSET];
 684:Generated_Source\PSoC4/CyLib.c ****             regValues[3u] = CY_FLASH_CTL_REG;
 685:Generated_Source\PSoC4/CyLib.c **** 
 686:Generated_Source\PSoC4/CyLib.c ****             parameters[0u] =
 687:Generated_Source\PSoC4/CyLib.c ****                 (uint32) ((CY_FLASH_KEY_TWO(CY_FLASH_API_OPCODE_CLK_RESTORE) <<  CY_FLASH_PARAM_KEY
 688:Generated_Source\PSoC4/CyLib.c ****                             CY_FLASH_KEY_ONE);
 689:Generated_Source\PSoC4/CyLib.c ****             parameters[1u] = (uint32) &regValues[0u];
 690:Generated_Source\PSoC4/CyLib.c **** 
 691:Generated_Source\PSoC4/CyLib.c ****             CY_FLASH_CPUSS_SYSARG_REG = (uint32) &parameters[0u];
 692:Generated_Source\PSoC4/CyLib.c ****             CY_FLASH_CPUSS_SYSREQ_REG = CY_FLASH_CPUSS_REQ_START | CY_FLASH_API_OPCODE_CLK_RESTORE;
 693:Generated_Source\PSoC4/CyLib.c ****             (void) CY_FLASH_CPUSS_SYSARG_REG;
 694:Generated_Source\PSoC4/CyLib.c **** 
 695:Generated_Source\PSoC4/CyLib.c ****         #else /* (CY_IP_FM) */
 696:Generated_Source\PSoC4/CyLib.c **** 
 697:Generated_Source\PSoC4/CyLib.c ****         if ((freq >= CY_SYS_CLK_IMO_MIN_FREQ_MHZ) && (freq <= CY_SYS_CLK_IMO_MAX_FREQ_MHZ))
 698:Generated_Source\PSoC4/CyLib.c ****         {
 699:Generated_Source\PSoC4/CyLib.c ****             if(freq <= CY_SFLASH_IMO_MAXF0_REG)
 700:Generated_Source\PSoC4/CyLib.c ****             {
 701:Generated_Source\PSoC4/CyLib.c ****                 bgTrim4 = CY_SFLASH_IMO_ABS0_REG;
 702:Generated_Source\PSoC4/CyLib.c ****                 bgTrim5 = CY_SFLASH_IMO_TMPCO0_REG;
 703:Generated_Source\PSoC4/CyLib.c ****             }
 704:Generated_Source\PSoC4/CyLib.c ****             else if(freq <= CY_SFLASH_IMO_MAXF1_REG)
 705:Generated_Source\PSoC4/CyLib.c ****             {
 706:Generated_Source\PSoC4/CyLib.c ****                 bgTrim4 = CY_SFLASH_IMO_ABS1_REG;
 707:Generated_Source\PSoC4/CyLib.c ****                 bgTrim5 = CY_SFLASH_IMO_TMPCO1_REG;
 708:Generated_Source\PSoC4/CyLib.c ****             }
 709:Generated_Source\PSoC4/CyLib.c ****             else if(freq <= CY_SFLASH_IMO_MAXF2_REG)
 710:Generated_Source\PSoC4/CyLib.c ****             {
 711:Generated_Source\PSoC4/CyLib.c ****                 bgTrim4 = CY_SFLASH_IMO_ABS2_REG;
 712:Generated_Source\PSoC4/CyLib.c ****                 bgTrim5 = CY_SFLASH_IMO_TMPCO2_REG;
 713:Generated_Source\PSoC4/CyLib.c ****             }
 714:Generated_Source\PSoC4/CyLib.c ****             else if(freq <= CY_SFLASH_IMO_MAXF3_REG)
 715:Generated_Source\PSoC4/CyLib.c ****             {
 716:Generated_Source\PSoC4/CyLib.c ****                 bgTrim4 = CY_SFLASH_IMO_ABS3_REG;
 717:Generated_Source\PSoC4/CyLib.c ****                 bgTrim5 = CY_SFLASH_IMO_TMPCO3_REG;
 718:Generated_Source\PSoC4/CyLib.c ****             }
 719:Generated_Source\PSoC4/CyLib.c ****             else
 720:Generated_Source\PSoC4/CyLib.c ****             {
 721:Generated_Source\PSoC4/CyLib.c ****                 bgTrim4 = CY_SFLASH_IMO_ABS4_REG;
ARM GAS  C:\Users\theGu\AppData\Local\Temp\cce4Ss8I.s 			page 22


 722:Generated_Source\PSoC4/CyLib.c ****                 bgTrim5 = CY_SFLASH_IMO_TMPCO4_REG;
 723:Generated_Source\PSoC4/CyLib.c ****             }
 724:Generated_Source\PSoC4/CyLib.c **** 
 725:Generated_Source\PSoC4/CyLib.c ****             /* Get IMO_TRIM2 value for the new frequency */
 726:Generated_Source\PSoC4/CyLib.c ****             newImoTrim2Value = cyImoFreqMhz2Reg[freq - CY_SYS_CLK_IMO_FREQ_TABLE_OFFSET];
 727:Generated_Source\PSoC4/CyLib.c **** 
 728:Generated_Source\PSoC4/CyLib.c **** 
 729:Generated_Source\PSoC4/CyLib.c ****             /****************************************************************************
 730:Generated_Source\PSoC4/CyLib.c ****             * The IMO can have a different trim per frequency. To avoid possible corner
 731:Generated_Source\PSoC4/CyLib.c ****             * cases where a trim change can exceed the maximum frequency, the trim must
 732:Generated_Source\PSoC4/CyLib.c ****             * be applied at a frequency that is low enough.
 733:Generated_Source\PSoC4/CyLib.c ****             *
 734:Generated_Source\PSoC4/CyLib.c ****             * Comparing IMO_TRIM2 values for the current and new frequencies, since
 735:Generated_Source\PSoC4/CyLib.c ****             * IMO_TRIM2 value as a function of IMO frequency is a strictly increasing
 736:Generated_Source\PSoC4/CyLib.c ****             * function and is time-invariant.
 737:Generated_Source\PSoC4/CyLib.c ****             ***************************************************************************/
 738:Generated_Source\PSoC4/CyLib.c ****             if ((newImoTrim2Value >= CY_SYS_CLK_IMO_BOUNDARY_FREQ_TRIM2) && (freq >= CY_SYS_CLK_IMO
 739:Generated_Source\PSoC4/CyLib.c ****             {
 740:Generated_Source\PSoC4/CyLib.c ****                 /* Set boundary IMO frequency: safe for IMO above 48 MHZ trimming */
 741:Generated_Source\PSoC4/CyLib.c ****                 CY_SYS_CLK_IMO_TRIM2_REG = (uint32) cyImoFreqMhz2Reg[CY_SYS_CLK_IMO_TEMP_FREQ_MHZ -
 742:Generated_Source\PSoC4/CyLib.c ****                                                                      CY_SYS_CLK_IMO_FREQ_TABLE_OFFS
 743:Generated_Source\PSoC4/CyLib.c **** 
 744:Generated_Source\PSoC4/CyLib.c ****                 CyDelayCycles(CY_SYS_CLK_IMO_FREQ_TIMEOUT_CYCLES);
 745:Generated_Source\PSoC4/CyLib.c **** 
 746:Generated_Source\PSoC4/CyLib.c ****                 currentImoTrim2Value = CY_SYS_CLK_IMO_TEMP_FREQ_TRIM2;
 747:Generated_Source\PSoC4/CyLib.c ****             }
 748:Generated_Source\PSoC4/CyLib.c ****             else
 749:Generated_Source\PSoC4/CyLib.c ****             {
 750:Generated_Source\PSoC4/CyLib.c ****                 currentImoTrim2Value = (uint8) (CY_SYS_CLK_IMO_TRIM2_REG & CY_SYS_CLK_IMO_FREQ_BITS
 751:Generated_Source\PSoC4/CyLib.c ****             }
 752:Generated_Source\PSoC4/CyLib.c **** 
 753:Generated_Source\PSoC4/CyLib.c **** 
 754:Generated_Source\PSoC4/CyLib.c ****             /***************************************************************************
 755:Generated_Source\PSoC4/CyLib.c ****             * A trim change needs to be allowed to settle (within 5us) before the Freq
 756:Generated_Source\PSoC4/CyLib.c ****             * can be changed to a new frequency.
 757:Generated_Source\PSoC4/CyLib.c ****             *
 758:Generated_Source\PSoC4/CyLib.c ****             * Comparing IMO_TRIM2 values for the current and new frequencies, since
 759:Generated_Source\PSoC4/CyLib.c ****             * IMO_TRIM2 value as a function of IMO frequency is a strictly increasing
 760:Generated_Source\PSoC4/CyLib.c ****             * function and is time-invariant.
 761:Generated_Source\PSoC4/CyLib.c ****             ***************************************************************************/
 762:Generated_Source\PSoC4/CyLib.c ****             if (newImoTrim2Value < currentImoTrim2Value)
 763:Generated_Source\PSoC4/CyLib.c ****             {
 764:Generated_Source\PSoC4/CyLib.c ****                 /* Set new IMO frequency */
 765:Generated_Source\PSoC4/CyLib.c ****                 CY_SYS_CLK_IMO_TRIM2_REG = cyImoFreqMhz2Reg[freq - CY_SYS_CLK_IMO_FREQ_TABLE_OFFSET
 766:Generated_Source\PSoC4/CyLib.c ****                 CyDelayCycles(CY_SYS_CLK_IMO_FREQ_TIMEOUT_CYCLES);
 767:Generated_Source\PSoC4/CyLib.c ****             }
 768:Generated_Source\PSoC4/CyLib.c **** 
 769:Generated_Source\PSoC4/CyLib.c ****             /* Set trims for the new IMO frequency */
 770:Generated_Source\PSoC4/CyLib.c **** 
 771:Generated_Source\PSoC4/CyLib.c ****             #if (CY_IP_IMO_TRIMMABLE_BY_USB)
 772:Generated_Source\PSoC4/CyLib.c ****                 if ((1u == usbLock) && (48u == freq))
 773:Generated_Source\PSoC4/CyLib.c ****                 {
 774:Generated_Source\PSoC4/CyLib.c ****                     imoTrim1Value = CY_SFLASH_IMO_TRIM_USBMODE_48_REG;
 775:Generated_Source\PSoC4/CyLib.c ****                 }
 776:Generated_Source\PSoC4/CyLib.c ****                 else if ((1u == usbLock) && (24u == freq))
 777:Generated_Source\PSoC4/CyLib.c ****                 {
 778:Generated_Source\PSoC4/CyLib.c ****                     imoTrim1Value = CY_SFLASH_IMO_TRIM_USBMODE_24_REG;
ARM GAS  C:\Users\theGu\AppData\Local\Temp\cce4Ss8I.s 			page 23


 779:Generated_Source\PSoC4/CyLib.c ****                 }
 780:Generated_Source\PSoC4/CyLib.c ****                 else
 781:Generated_Source\PSoC4/CyLib.c ****                 {
 782:Generated_Source\PSoC4/CyLib.c ****                     imoTrim1Value = (uint8) CY_SFLASH_IMO_TRIM_REG(freq - CY_SYS_CLK_IMO_FREQ_TABLE
 783:Generated_Source\PSoC4/CyLib.c ****                 }
 784:Generated_Source\PSoC4/CyLib.c ****             #else
 785:Generated_Source\PSoC4/CyLib.c ****                 imoTrim1Value = (uint8) CY_SFLASH_IMO_TRIM_REG(freq - CY_SYS_CLK_IMO_FREQ_TABLE_OFF
 786:Generated_Source\PSoC4/CyLib.c ****             #endif  /* (CY_IP_IMO_TRIMMABLE_BY_USB) */
 787:Generated_Source\PSoC4/CyLib.c **** 
 788:Generated_Source\PSoC4/CyLib.c **** 
 789:Generated_Source\PSoC4/CyLib.c ****             CY_SYS_CLK_IMO_TRIM1_REG = (uint32) imoTrim1Value;
 790:Generated_Source\PSoC4/CyLib.c ****             CY_PWR_BG_TRIM4_REG  = bgTrim4;
 791:Generated_Source\PSoC4/CyLib.c ****             CY_PWR_BG_TRIM5_REG  = bgTrim5;
 792:Generated_Source\PSoC4/CyLib.c ****             CyDelayUs(CY_SYS_CLK_IMO_TRIM_TIMEOUT_US);
 793:Generated_Source\PSoC4/CyLib.c **** 
 794:Generated_Source\PSoC4/CyLib.c ****             if (newImoTrim2Value > currentImoTrim2Value)
 795:Generated_Source\PSoC4/CyLib.c ****             {
 796:Generated_Source\PSoC4/CyLib.c ****                 /* Set new IMO frequency */
 797:Generated_Source\PSoC4/CyLib.c ****                 CY_SYS_CLK_IMO_TRIM2_REG = cyImoFreqMhz2Reg[freq - CY_SYS_CLK_IMO_FREQ_TABLE_OFFSET
 798:Generated_Source\PSoC4/CyLib.c ****                 CyDelayCycles(CY_SYS_CLK_IMO_FREQ_TIMEOUT_CYCLES);
 799:Generated_Source\PSoC4/CyLib.c ****             }
 800:Generated_Source\PSoC4/CyLib.c ****         }
 801:Generated_Source\PSoC4/CyLib.c ****         else
 802:Generated_Source\PSoC4/CyLib.c ****         {
 803:Generated_Source\PSoC4/CyLib.c ****             /* Halt CPU in debug mode if new frequency is invalid */
 804:Generated_Source\PSoC4/CyLib.c ****             CYASSERT(0u != 0u);
 805:Generated_Source\PSoC4/CyLib.c ****         }
 806:Generated_Source\PSoC4/CyLib.c **** 
 807:Generated_Source\PSoC4/CyLib.c ****         #endif /* (CY_IP_FMLT) */
 808:Generated_Source\PSoC4/CyLib.c **** 
 809:Generated_Source\PSoC4/CyLib.c ****         #if (CY_IP_IMO_TRIMMABLE_BY_WCO)
 810:Generated_Source\PSoC4/CyLib.c ****             if (1u == wcoLock)
 811:Generated_Source\PSoC4/CyLib.c ****             {
 812:Generated_Source\PSoC4/CyLib.c ****                 CySysClkImoEnableWcoLock();
 813:Generated_Source\PSoC4/CyLib.c ****             }
 814:Generated_Source\PSoC4/CyLib.c ****         #endif  /* (CY_IP_IMO_TRIMMABLE_BY_WCO) */
 815:Generated_Source\PSoC4/CyLib.c **** 
 816:Generated_Source\PSoC4/CyLib.c ****         #if (CY_IP_IMO_TRIMMABLE_BY_USB)
 817:Generated_Source\PSoC4/CyLib.c ****             if (1u == usbLock)
 818:Generated_Source\PSoC4/CyLib.c ****             {
 819:Generated_Source\PSoC4/CyLib.c ****                 CySysClkImoEnableUsbLock();
 820:Generated_Source\PSoC4/CyLib.c ****             }
 821:Generated_Source\PSoC4/CyLib.c ****         #endif  /* (CY_IP_IMO_TRIMMABLE_BY_USB) */
 822:Generated_Source\PSoC4/CyLib.c **** 
 823:Generated_Source\PSoC4/CyLib.c ****         CyExitCriticalSection(interruptState);
 824:Generated_Source\PSoC4/CyLib.c ****     }
 825:Generated_Source\PSoC4/CyLib.c **** 
 826:Generated_Source\PSoC4/CyLib.c **** #else
 827:Generated_Source\PSoC4/CyLib.c **** 
 828:Generated_Source\PSoC4/CyLib.c ****     void CySysClkWriteImoFreq(uint32 freq)
 829:Generated_Source\PSoC4/CyLib.c ****     {
 830:Generated_Source\PSoC4/CyLib.c ****         uint8  interruptState;
 831:Generated_Source\PSoC4/CyLib.c ****         uint8  imoTrim1Value;
 832:Generated_Source\PSoC4/CyLib.c **** 
 833:Generated_Source\PSoC4/CyLib.c ****         #if (CY_IP_IMO_TRIMMABLE_BY_WCO)
 834:Generated_Source\PSoC4/CyLib.c ****             uint32 wcoLock = 0u;
 835:Generated_Source\PSoC4/CyLib.c ****         #endif  /* (CY_IP_IMO_TRIMMABLE_BY_WCO) */        
ARM GAS  C:\Users\theGu\AppData\Local\Temp\cce4Ss8I.s 			page 24


 836:Generated_Source\PSoC4/CyLib.c ****         
 837:Generated_Source\PSoC4/CyLib.c ****         #if (CY_IP_IMO_TRIMMABLE_BY_USB)
 838:Generated_Source\PSoC4/CyLib.c ****             uint32 usbLock = 0u;
 839:Generated_Source\PSoC4/CyLib.c ****         #endif  /* (CY_IP_IMO_TRIMMABLE_BY_USB) */
 840:Generated_Source\PSoC4/CyLib.c **** 
 841:Generated_Source\PSoC4/CyLib.c ****         #if (CY_PSOC4_4000)
 842:Generated_Source\PSoC4/CyLib.c ****             if ((freq == 24u) || (freq == 32u) || (freq == 48u))
 843:Generated_Source\PSoC4/CyLib.c ****         #elif (CY_CCG3)
 844:Generated_Source\PSoC4/CyLib.c ****             if ((freq == 24u) || (freq == 36u) || (freq == 48u))
 845:Generated_Source\PSoC4/CyLib.c ****         #else
 846:Generated_Source\PSoC4/CyLib.c ****             if ((freq == 24u) || (freq == 28u) || (freq == 32u) ||
 847:Generated_Source\PSoC4/CyLib.c ****                 (freq == 36u) || (freq == 40u) || (freq == 44u) ||
 848:Generated_Source\PSoC4/CyLib.c ****                 (freq == 48u))
 849:Generated_Source\PSoC4/CyLib.c ****         #endif /* (CY_PSOC4_4000) */
 850:Generated_Source\PSoC4/CyLib.c ****         {
 851:Generated_Source\PSoC4/CyLib.c ****             interruptState = CyEnterCriticalSection();
 852:Generated_Source\PSoC4/CyLib.c **** 
 853:Generated_Source\PSoC4/CyLib.c ****             #if (CY_IP_IMO_TRIMMABLE_BY_WCO)
 854:Generated_Source\PSoC4/CyLib.c ****                 if(0u != CySysClkImoGetWcoLock())
 855:Generated_Source\PSoC4/CyLib.c ****                 {
 856:Generated_Source\PSoC4/CyLib.c ****                     wcoLock = 1u;
 857:Generated_Source\PSoC4/CyLib.c ****                     CySysClkImoDisableWcoLock();
 858:Generated_Source\PSoC4/CyLib.c ****                 }
 859:Generated_Source\PSoC4/CyLib.c ****             #endif  /* (CY_IP_IMO_TRIMMABLE_BY_WCO) */
 860:Generated_Source\PSoC4/CyLib.c **** 
 861:Generated_Source\PSoC4/CyLib.c ****             #if (CY_IP_IMO_TRIMMABLE_BY_USB)
 862:Generated_Source\PSoC4/CyLib.c **** 
 863:Generated_Source\PSoC4/CyLib.c ****                 #if (CYDEV_IMO_TRIMMED_BY_USB == 0u)
 864:Generated_Source\PSoC4/CyLib.c ****                     if(0u != CySysClkImoGetUsbLock())
 865:Generated_Source\PSoC4/CyLib.c ****                     {
 866:Generated_Source\PSoC4/CyLib.c ****                 #endif  /* (CYDEV_IMO_TRIMMED_BY_USB == 0u) */
 867:Generated_Source\PSoC4/CyLib.c **** 
 868:Generated_Source\PSoC4/CyLib.c ****                     if (48u == freq)
 869:Generated_Source\PSoC4/CyLib.c ****                     {
 870:Generated_Source\PSoC4/CyLib.c ****                         usbLock = 1u;
 871:Generated_Source\PSoC4/CyLib.c ****                         CySysClkImoDisableUsbLock();
 872:Generated_Source\PSoC4/CyLib.c ****                     }
 873:Generated_Source\PSoC4/CyLib.c **** 
 874:Generated_Source\PSoC4/CyLib.c ****                 #if (CYDEV_IMO_TRIMMED_BY_USB == 0u)
 875:Generated_Source\PSoC4/CyLib.c ****                     }
 876:Generated_Source\PSoC4/CyLib.c ****                 #endif  /* (CYDEV_IMO_TRIMMED_BY_USB == 0u) */
 877:Generated_Source\PSoC4/CyLib.c **** 
 878:Generated_Source\PSoC4/CyLib.c ****             #endif  /* (CYDEV_IMO_TRIMMED_BY_USB == 0u) */
 879:Generated_Source\PSoC4/CyLib.c **** 
 880:Generated_Source\PSoC4/CyLib.c **** 
 881:Generated_Source\PSoC4/CyLib.c ****             /* Set IMO to 24 MHz - CLK_IMO_SELECT.FREQ = 0 */
 882:Generated_Source\PSoC4/CyLib.c ****             CY_SYS_CLK_IMO_SELECT_REG &= ((uint32) ~CY_SYS_CLK_IMO_SELECT_FREQ_MASK);
 883:Generated_Source\PSoC4/CyLib.c **** 
 884:Generated_Source\PSoC4/CyLib.c **** 
 885:Generated_Source\PSoC4/CyLib.c ****             /* Apply coarse trim */
 886:Generated_Source\PSoC4/CyLib.c ****             #if (CY_IP_IMO_TRIMMABLE_BY_USB)
 887:Generated_Source\PSoC4/CyLib.c ****                 if ((1u == usbLock) && (48u == freq))
 888:Generated_Source\PSoC4/CyLib.c ****                 {
 889:Generated_Source\PSoC4/CyLib.c ****                     imoTrim1Value = CY_SFLASH_IMO_TRIM_USBMODE_48_REG;
 890:Generated_Source\PSoC4/CyLib.c ****                 }
 891:Generated_Source\PSoC4/CyLib.c ****                 else if ((1u == usbLock) && (24u == freq))
 892:Generated_Source\PSoC4/CyLib.c ****                 {
ARM GAS  C:\Users\theGu\AppData\Local\Temp\cce4Ss8I.s 			page 25


 893:Generated_Source\PSoC4/CyLib.c ****                     imoTrim1Value = CY_SFLASH_IMO_TRIM_USBMODE_24_REG;
 894:Generated_Source\PSoC4/CyLib.c ****                 }
 895:Generated_Source\PSoC4/CyLib.c ****                 else
 896:Generated_Source\PSoC4/CyLib.c ****                 {
 897:Generated_Source\PSoC4/CyLib.c ****                     imoTrim1Value = (uint8) CY_SFLASH_IMO_TRIM_REG(freq - CY_SYS_CLK_IMO_MIN_FREQ_M
 898:Generated_Source\PSoC4/CyLib.c ****                 }
 899:Generated_Source\PSoC4/CyLib.c ****             #else
 900:Generated_Source\PSoC4/CyLib.c ****                 imoTrim1Value = (uint8) CY_SFLASH_IMO_TRIM_REG(freq - CY_SYS_CLK_IMO_MIN_FREQ_MHZ);
 901:Generated_Source\PSoC4/CyLib.c ****             #endif  /* (CY_IP_IMO_TRIMMABLE_BY_USB) */
 902:Generated_Source\PSoC4/CyLib.c ****             CY_SYS_CLK_IMO_TRIM1_REG = (uint32) imoTrim1Value;
 903:Generated_Source\PSoC4/CyLib.c **** 
 904:Generated_Source\PSoC4/CyLib.c ****             /* Zero out fine trim */
 905:Generated_Source\PSoC4/CyLib.c ****             CY_SYS_CLK_IMO_TRIM2_REG = CY_SYS_CLK_IMO_TRIM2_REG & ((uint32) ~CY_SYS_CLK_IMO_TRIM2_F
 906:Generated_Source\PSoC4/CyLib.c **** 
 907:Generated_Source\PSoC4/CyLib.c ****             /* Apply TC trim */
 908:Generated_Source\PSoC4/CyLib.c ****             CY_SYS_CLK_IMO_TRIM3_REG = (CY_SYS_CLK_IMO_TRIM3_REG & ((uint32) ~CY_SYS_CLK_IMO_TRIM3_
 909:Generated_Source\PSoC4/CyLib.c ****                 (CY_SFLASH_IMO_TCTRIM_REG(freq - CY_SYS_CLK_IMO_MIN_FREQ_MHZ) & CY_SYS_CLK_IMO_TRIM
 910:Generated_Source\PSoC4/CyLib.c **** 
 911:Generated_Source\PSoC4/CyLib.c ****             CyDelayCycles(CY_SYS_CLK_IMO_TRIM_DELAY_CYCLES);
 912:Generated_Source\PSoC4/CyLib.c **** 
 913:Generated_Source\PSoC4/CyLib.c ****             if (freq > CY_SYS_CLK_IMO_MIN_FREQ_MHZ)
 914:Generated_Source\PSoC4/CyLib.c ****             {
 915:Generated_Source\PSoC4/CyLib.c ****                 /* Select nearby intermediate frequency */
 916:Generated_Source\PSoC4/CyLib.c ****                 CY_SYS_CLK_IMO_SELECT_REG = (CY_SYS_CLK_IMO_SELECT_REG & ((uint32) ~CY_SYS_CLK_IMO_
 917:Generated_Source\PSoC4/CyLib.c ****                     (((freq - 4u - CY_SYS_CLK_IMO_MIN_FREQ_MHZ) >> 2u) & CY_SYS_CLK_IMO_SELECT_FREQ
 918:Generated_Source\PSoC4/CyLib.c **** 
 919:Generated_Source\PSoC4/CyLib.c ****                 CyDelayCycles(CY_SYS_CLK_IMO_TRIM_DELAY_CYCLES);
 920:Generated_Source\PSoC4/CyLib.c **** 
 921:Generated_Source\PSoC4/CyLib.c ****                 /* Make small step to final frequency */
 922:Generated_Source\PSoC4/CyLib.c ****                 /* Select nearby intermediate frequency */
 923:Generated_Source\PSoC4/CyLib.c ****                 CY_SYS_CLK_IMO_SELECT_REG = (CY_SYS_CLK_IMO_SELECT_REG & ((uint32) ~CY_SYS_CLK_IMO_
 924:Generated_Source\PSoC4/CyLib.c ****                     (((freq - CY_SYS_CLK_IMO_MIN_FREQ_MHZ) >> 2u) & CY_SYS_CLK_IMO_SELECT_FREQ_MASK
 925:Generated_Source\PSoC4/CyLib.c ****             }
 926:Generated_Source\PSoC4/CyLib.c **** 
 927:Generated_Source\PSoC4/CyLib.c ****             #if (CY_IP_IMO_TRIMMABLE_BY_WCO)
 928:Generated_Source\PSoC4/CyLib.c ****                 if (1u == wcoLock)
 929:Generated_Source\PSoC4/CyLib.c ****                 {
 930:Generated_Source\PSoC4/CyLib.c ****                     CySysClkImoEnableWcoLock();
 931:Generated_Source\PSoC4/CyLib.c ****                 }
 932:Generated_Source\PSoC4/CyLib.c ****             #endif  /* (CY_IP_IMO_TRIMMABLE_BY_WCO) */
 933:Generated_Source\PSoC4/CyLib.c ****         
 934:Generated_Source\PSoC4/CyLib.c ****         
 935:Generated_Source\PSoC4/CyLib.c ****             #if (CY_IP_IMO_TRIMMABLE_BY_USB)
 936:Generated_Source\PSoC4/CyLib.c ****                 if (1u == usbLock)
 937:Generated_Source\PSoC4/CyLib.c ****                 {
 938:Generated_Source\PSoC4/CyLib.c ****                     CySysClkImoEnableUsbLock();
 939:Generated_Source\PSoC4/CyLib.c ****                 }
 940:Generated_Source\PSoC4/CyLib.c ****             #endif  /* (CY_IP_IMO_TRIMMABLE_BY_USB) */
 941:Generated_Source\PSoC4/CyLib.c **** 
 942:Generated_Source\PSoC4/CyLib.c ****             CyExitCriticalSection(interruptState);
 943:Generated_Source\PSoC4/CyLib.c ****         }
 944:Generated_Source\PSoC4/CyLib.c ****         else
 945:Generated_Source\PSoC4/CyLib.c ****         {
 946:Generated_Source\PSoC4/CyLib.c ****             /* Halt CPU in debug mode if new frequency is invalid */
 947:Generated_Source\PSoC4/CyLib.c ****             CYASSERT(0u != 0u);
 948:Generated_Source\PSoC4/CyLib.c ****         }
 949:Generated_Source\PSoC4/CyLib.c ****     }
ARM GAS  C:\Users\theGu\AppData\Local\Temp\cce4Ss8I.s 			page 26


 950:Generated_Source\PSoC4/CyLib.c **** 
 951:Generated_Source\PSoC4/CyLib.c **** #endif /* (CY_IP_SRSSV2) */
 952:Generated_Source\PSoC4/CyLib.c **** 
 953:Generated_Source\PSoC4/CyLib.c **** 
 954:Generated_Source\PSoC4/CyLib.c **** #if(CY_IP_SRSSLT)
 955:Generated_Source\PSoC4/CyLib.c ****     /*******************************************************************************
 956:Generated_Source\PSoC4/CyLib.c ****     * Function Name: CySysClkWriteHfclkDiv
 957:Generated_Source\PSoC4/CyLib.c ****     ****************************************************************************//**
 958:Generated_Source\PSoC4/CyLib.c ****     *
 959:Generated_Source\PSoC4/CyLib.c ****     * Selects the pre-scaler divider value for HFCLK from IMO.
 960:Generated_Source\PSoC4/CyLib.c ****     *
 961:Generated_Source\PSoC4/CyLib.c ****     * The HFCLK predivider allows the device to divide the HFCLK selection mux
 962:Generated_Source\PSoC4/CyLib.c ****     * input before use as HFCLK. The predivider is capable of dividing the HFCLK by
 963:Generated_Source\PSoC4/CyLib.c ****     * powers of 2 between 1 and 8.
 964:Generated_Source\PSoC4/CyLib.c ****     *
 965:Generated_Source\PSoC4/CyLib.c ****     * PSoC 4000: The SYSCLK has the speed of 16 MHz, so HFCLK and SYSCLK dividers
 966:Generated_Source\PSoC4/CyLib.c ****     * should be selected in a way, not to exceed 16 MHz for SYSCLK.
 967:Generated_Source\PSoC4/CyLib.c ****     *
 968:Generated_Source\PSoC4/CyLib.c ****     * If the SYSCLK clock frequency increases during the device operation, call
 969:Generated_Source\PSoC4/CyLib.c ****     * \ref CySysFlashSetWaitCycles() with the appropriate parameter to adjust the
 970:Generated_Source\PSoC4/CyLib.c ****     * number of clock cycles the cache will wait before sampling data comes back
 971:Generated_Source\PSoC4/CyLib.c ****     * from Flash. If the SYSCLK clock frequency decreases, you can call
 972:Generated_Source\PSoC4/CyLib.c ****     * \ref CySysFlashSetWaitCycles() to improve the CPU performance. See
 973:Generated_Source\PSoC4/CyLib.c ****     * \ref CySysFlashSetWaitCycles() description for more information.
 974:Generated_Source\PSoC4/CyLib.c ****     *
 975:Generated_Source\PSoC4/CyLib.c ****     * \param \ref CY_SYS_CLK_HFCLK_DIV_NODIV    Transparent mode (w/o dividing)
 976:Generated_Source\PSoC4/CyLib.c ****     * \param \ref CY_SYS_CLK_HFCLK_DIV_2        Divide selected clock source by 2
 977:Generated_Source\PSoC4/CyLib.c ****     * \param \ref CY_SYS_CLK_HFCLK_DIV_4        Divide selected clock source by 4
 978:Generated_Source\PSoC4/CyLib.c ****     * \param \ref CY_SYS_CLK_HFCLK_DIV_8        Divide selected clock source by 8
 979:Generated_Source\PSoC4/CyLib.c ****     *
 980:Generated_Source\PSoC4/CyLib.c ****     *******************************************************************************/
 981:Generated_Source\PSoC4/CyLib.c ****     void CySysClkWriteHfclkDiv(uint32 divider)
 982:Generated_Source\PSoC4/CyLib.c ****     {
 983:Generated_Source\PSoC4/CyLib.c ****         uint8  interruptState;
 984:Generated_Source\PSoC4/CyLib.c **** 
 985:Generated_Source\PSoC4/CyLib.c ****         interruptState = CyEnterCriticalSection();
 986:Generated_Source\PSoC4/CyLib.c **** 
 987:Generated_Source\PSoC4/CyLib.c ****         CY_SYS_CLK_SELECT_REG = ((CY_SYS_CLK_SELECT_REG & ((uint32) (~(CY_SYS_CLK_SELECT_HFCLK_DIV_
 988:Generated_Source\PSoC4/CyLib.c ****                                         CY_SYS_CLK_SELECT_HFCLK_DIV_SHIFT)))) |
 989:Generated_Source\PSoC4/CyLib.c ****                     ((uint32)((divider & CY_SYS_CLK_SELECT_HFCLK_DIV_MASK) << CY_SYS_CLK_SELECT_HFC
 990:Generated_Source\PSoC4/CyLib.c **** 
 991:Generated_Source\PSoC4/CyLib.c ****         CyExitCriticalSection(interruptState);
 992:Generated_Source\PSoC4/CyLib.c ****     }
 993:Generated_Source\PSoC4/CyLib.c **** #endif /* (CY_IP_SRSSLT) */
 994:Generated_Source\PSoC4/CyLib.c **** 
 995:Generated_Source\PSoC4/CyLib.c **** 
 996:Generated_Source\PSoC4/CyLib.c **** #if (CY_IP_ECO)
 997:Generated_Source\PSoC4/CyLib.c **** 
 998:Generated_Source\PSoC4/CyLib.c ****     /*******************************************************************************
 999:Generated_Source\PSoC4/CyLib.c ****     * Function Name: CySysClkEcoStart
1000:Generated_Source\PSoC4/CyLib.c ****     ****************************************************************************//**
1001:Generated_Source\PSoC4/CyLib.c ****     *
1002:Generated_Source\PSoC4/CyLib.c ****     * Starts the External Crystal Oscillator (ECO). Refer to the device datasheet
1003:Generated_Source\PSoC4/CyLib.c ****     * for the ECO startup time.
1004:Generated_Source\PSoC4/CyLib.c ****     *
1005:Generated_Source\PSoC4/CyLib.c ****     * The timeout interval is measured based on the system frequency defined by
1006:Generated_Source\PSoC4/CyLib.c ****     * PSoC Creator at build time. If System clock frequency is changed in
ARM GAS  C:\Users\theGu\AppData\Local\Temp\cce4Ss8I.s 			page 27


1007:Generated_Source\PSoC4/CyLib.c ****     * runtime, the \ref CyDelayFreq() with the appropriate parameter should be
1008:Generated_Source\PSoC4/CyLib.c ****     * called.
1009:Generated_Source\PSoC4/CyLib.c ****     *
1010:Generated_Source\PSoC4/CyLib.c ****     * PSoC 4100 BLE / PSoC 4200 BLE: The WCO must be enabled prior to enabling ECO.
1011:Generated_Source\PSoC4/CyLib.c ****     *
1012:Generated_Source\PSoC4/CyLib.c ****     * \param timeoutUs Timeout in microseconds.
1013:Generated_Source\PSoC4/CyLib.c ****     *
1014:Generated_Source\PSoC4/CyLib.c ****     * If zero is specified, the function does not wait for timeout and returns
1015:Generated_Source\PSoC4/CyLib.c ****     * CYRET_SUCCESS. If non-zero is specified, the function waits for the timeout.
1016:Generated_Source\PSoC4/CyLib.c ****     *
1017:Generated_Source\PSoC4/CyLib.c ****     * \return \ref CYRET_SUCCESS Completed successfully. The ECO is oscillating and
1018:Generated_Source\PSoC4/CyLib.c ****     * amplitude reached 60% and it does not mean 24 MHz crystal is within 50 ppm.
1019:Generated_Source\PSoC4/CyLib.c ****     *
1020:Generated_Source\PSoC4/CyLib.c ****     * \return \ref CYRET_TIMEOUT Timeout occurred. If the crystal is not oscillating
1021:Generated_Source\PSoC4/CyLib.c ****     * or amplitude didn't reach 60% after specified amount of time, CYRET_TIMEOUT
1022:Generated_Source\PSoC4/CyLib.c ****     * is returned.
1023:Generated_Source\PSoC4/CyLib.c ****     *
1024:Generated_Source\PSoC4/CyLib.c ****     * \return \ref CYRET_BAD_PARAM One or more invalid parameters.
1025:Generated_Source\PSoC4/CyLib.c ****     *
1026:Generated_Source\PSoC4/CyLib.c ****     *******************************************************************************/
1027:Generated_Source\PSoC4/CyLib.c ****     cystatus CySysClkEcoStart(uint32 timeoutUs)
1028:Generated_Source\PSoC4/CyLib.c ****     {
1029:Generated_Source\PSoC4/CyLib.c ****         cystatus returnStatus = CYRET_SUCCESS;
1030:Generated_Source\PSoC4/CyLib.c **** 
1031:Generated_Source\PSoC4/CyLib.c ****         #if (CY_IP_ECO_BLESS)
1032:Generated_Source\PSoC4/CyLib.c ****             /* Enable the RF oscillator band gap */
1033:Generated_Source\PSoC4/CyLib.c ****             CY_SYS_XTAL_BLESS_RF_CONFIG_REG |= CY_SYS_XTAL_BLESS_RF_CONFIG_RF_ENABLE;
1034:Generated_Source\PSoC4/CyLib.c **** 
1035:Generated_Source\PSoC4/CyLib.c ****             /* Update trimming register */
1036:Generated_Source\PSoC4/CyLib.c ****             CY_SYS_XTAL_BLERD_BB_XO_REG = CY_SYS_XTAL_BLERD_BB_XO_TRIM;
1037:Generated_Source\PSoC4/CyLib.c **** 
1038:Generated_Source\PSoC4/CyLib.c ****             /* Enable the Crystal */
1039:Generated_Source\PSoC4/CyLib.c ****             CY_SYS_XTAL_BLERD_DBUS_REG |= CY_SYS_XTAL_BLERD_DBUS_XTAL_ENABLE;
1040:Generated_Source\PSoC4/CyLib.c ****         
1041:Generated_Source\PSoC4/CyLib.c ****         #elif (CY_IP_ECO_BLESSV3)
1042:Generated_Source\PSoC4/CyLib.c ****             uint32 regConfig;
1043:Generated_Source\PSoC4/CyLib.c ****             uint32 intrRegMaskStore = 0u;
1044:Generated_Source\PSoC4/CyLib.c ****             
1045:Generated_Source\PSoC4/CyLib.c ****             if (0u != (CY_SYS_BLESS_MT_CFG_REG & (CY_SYS_BLESS_MT_CFG_ENABLE_BLERD <<  CYFLD_BLE_BL
1046:Generated_Source\PSoC4/CyLib.c ****             {
1047:Generated_Source\PSoC4/CyLib.c ****                 CY_SYS_BLESS_MT_CFG_REG |= (CY_SYS_BLESS_MT_CFG_DPSLP_ECO_ON  <<  CYFLD_BLE_BLESS_D
1048:Generated_Source\PSoC4/CyLib.c ****             }
1049:Generated_Source\PSoC4/CyLib.c ****             else
1050:Generated_Source\PSoC4/CyLib.c ****             {
1051:Generated_Source\PSoC4/CyLib.c ****                 /* Init BLE core */
1052:Generated_Source\PSoC4/CyLib.c ****                 CY_SYS_BLESS_MT_DELAY_CFG_REG = CY_SYS_BLESS_MT_DELAY_CFG_INIT;
1053:Generated_Source\PSoC4/CyLib.c ****                 CY_SYS_BLESS_MT_DELAY_CFG2_REG = CY_SYS_BLESS_MT_DELAY_CFG2_INIT;
1054:Generated_Source\PSoC4/CyLib.c ****                 CY_SYS_BLESS_MT_DELAY_CFG3_REG = CY_SYS_BLESS_MT_DELAY_CFG3_INIT;
1055:Generated_Source\PSoC4/CyLib.c ****             
1056:Generated_Source\PSoC4/CyLib.c ****                 /* RCB init */
1057:Generated_Source\PSoC4/CyLib.c ****                 regConfig = CY_SYS_RCB_CTRL_REG;
1058:Generated_Source\PSoC4/CyLib.c ****                 regConfig &= CY_SYS_RCB_CTRL_CLEAR;
1059:Generated_Source\PSoC4/CyLib.c ****                 regConfig |= CY_SYS_RCB_CTRL_INIT;
1060:Generated_Source\PSoC4/CyLib.c ****                 CY_SYS_RCB_CTRL_REG = regConfig;
1061:Generated_Source\PSoC4/CyLib.c ****                 
1062:Generated_Source\PSoC4/CyLib.c ****                 intrRegMaskStore = CY_SYS_BLESS_INTR_MASK_REG;
1063:Generated_Source\PSoC4/CyLib.c ****                 if(0u != (CY_SYS_BLESS_BLERD_ACTIVE_INTR_MASK & intrRegMaskStore))
ARM GAS  C:\Users\theGu\AppData\Local\Temp\cce4Ss8I.s 			page 28


1064:Generated_Source\PSoC4/CyLib.c ****                 {
1065:Generated_Source\PSoC4/CyLib.c ****                     CY_SYS_BLESS_INTR_MASK_REG &= ~CY_SYS_BLESS_BLERD_ACTIVE_INTR_MASK;
1066:Generated_Source\PSoC4/CyLib.c ****                 }
1067:Generated_Source\PSoC4/CyLib.c ****                 
1068:Generated_Source\PSoC4/CyLib.c ****                 /* Enable BLE core */
1069:Generated_Source\PSoC4/CyLib.c ****                 regConfig = CY_SYS_BLESS_MT_CFG_REG;
1070:Generated_Source\PSoC4/CyLib.c ****                 regConfig &= CY_SYS_BLESS_MT_CFG_CLEAR;
1071:Generated_Source\PSoC4/CyLib.c ****                 regConfig |= CY_SYS_BLESS_MT_CFG_INIT;
1072:Generated_Source\PSoC4/CyLib.c ****                 CY_SYS_BLESS_MT_CFG_REG = regConfig;
1073:Generated_Source\PSoC4/CyLib.c **** 
1074:Generated_Source\PSoC4/CyLib.c ****                 while(0u == ((CY_SYS_BLESS_BLERD_ACTIVE_INTR_STAT & CY_SYS_BLESS_INTR_STAT_REG)))
1075:Generated_Source\PSoC4/CyLib.c ****                 {
1076:Generated_Source\PSoC4/CyLib.c ****                     /* Wait until BLERD55 moves to active state */
1077:Generated_Source\PSoC4/CyLib.c ****                 }
1078:Generated_Source\PSoC4/CyLib.c **** 
1079:Generated_Source\PSoC4/CyLib.c ****                 if(0u != (CY_SYS_BLESS_BLERD_ACTIVE_INTR_MASK & intrRegMaskStore))
1080:Generated_Source\PSoC4/CyLib.c ****                 {
1081:Generated_Source\PSoC4/CyLib.c ****                     CY_SYS_BLESS_INTR_MASK_REG |= CY_SYS_BLESS_BLERD_ACTIVE_INTR_MASK;
1082:Generated_Source\PSoC4/CyLib.c ****                 }
1083:Generated_Source\PSoC4/CyLib.c ****                 
1084:Generated_Source\PSoC4/CyLib.c ****                 /* Send write commands to RBUS */
1085:Generated_Source\PSoC4/CyLib.c ****                 CY_SYS_RCB_TX_FIFO_WR_REG = CY_SYS_RCB_RBUS_FREQ_NRST_SET;
1086:Generated_Source\PSoC4/CyLib.c ****                 CY_SYS_RCB_TX_FIFO_WR_REG = CY_SYS_RCB_RBUS_DIG_CLK_SET;
1087:Generated_Source\PSoC4/CyLib.c ****                 
1088:Generated_Source\PSoC4/CyLib.c ****                 #if (CY_SYS_BLE_CLK_ECO_FREQ_32MHZ == CYDEV_ECO_CLK_MHZ)
1089:Generated_Source\PSoC4/CyLib.c ****                     CY_SYS_RCB_TX_FIFO_WR_REG = CY_SYS_RCB_RBUS_FREQ_XTAL_DIV_SET;
1090:Generated_Source\PSoC4/CyLib.c ****                     CY_SYS_RCB_TX_FIFO_WR_REG = (CY_SYS_RCB_RBUS_RF_DCXO_CFG_SET | CY_SYS_RCB_RBUS_
1091:Generated_Source\PSoC4/CyLib.c ****                 #else
1092:Generated_Source\PSoC4/CyLib.c ****                     CY_SYS_RCB_TX_FIFO_WR_REG = CY_SYS_RCB_RBUS_FREQ_XTAL_NODIV_SET;
1093:Generated_Source\PSoC4/CyLib.c ****                 #endif
1094:Generated_Source\PSoC4/CyLib.c ****                 
1095:Generated_Source\PSoC4/CyLib.c ****                 intrRegMaskStore = CY_SYS_BLESS_INTR_MASK_REG;
1096:Generated_Source\PSoC4/CyLib.c ****                 if(0u != (CY_SYS_RCB_INTR_RCB_DONE & intrRegMaskStore))
1097:Generated_Source\PSoC4/CyLib.c ****                 {
1098:Generated_Source\PSoC4/CyLib.c ****                     CY_SYS_BLESS_INTR_MASK_REG &= ~(CY_SYS_RCB_INTR_RCB_DONE | CY_SYS_RCB_INTR_RCB_
1099:Generated_Source\PSoC4/CyLib.c ****                 }
1100:Generated_Source\PSoC4/CyLib.c ****                 
1101:Generated_Source\PSoC4/CyLib.c ****                 /* Send read commands to RBUS */
1102:Generated_Source\PSoC4/CyLib.c ****                 CY_SYS_RCB_TX_FIFO_WR_REG = (CY_SYS_RCB_RBUS_RD_CMD | 
1103:Generated_Source\PSoC4/CyLib.c ****                                             (CY_SYS_RCB_RBUS_RF_DCXO_CFG_SET & ~CY_SYS_RCB_RBUS_VAL
1104:Generated_Source\PSoC4/CyLib.c ****                                             
1105:Generated_Source\PSoC4/CyLib.c ****                 while (0u == (CY_SYS_RCB_INTR_RCB_RX_FIFO_NOT_EMPTY & CY_SYS_RCB_INTR_REG))
1106:Generated_Source\PSoC4/CyLib.c ****                 {
1107:Generated_Source\PSoC4/CyLib.c ****                     /* Wait until RX_FIFO_NOT_EMPTY state */
1108:Generated_Source\PSoC4/CyLib.c ****                 }
1109:Generated_Source\PSoC4/CyLib.c **** 
1110:Generated_Source\PSoC4/CyLib.c ****                 CY_SYS_RCB_INTR_REG |= CY_SYS_RCB_INTR_RCB_DONE;
1111:Generated_Source\PSoC4/CyLib.c ****                 
1112:Generated_Source\PSoC4/CyLib.c ****                 regConfig = CY_SYS_RCB_RX_FIFO_RD_REG & CY_SYS_RCB_RBUS_TRIM_MASK;
1113:Generated_Source\PSoC4/CyLib.c ****                 
1114:Generated_Source\PSoC4/CyLib.c ****                 /* Send write commands to RBUS */
1115:Generated_Source\PSoC4/CyLib.c ****                 CY_SYS_RCB_TX_FIFO_WR_REG = (CY_SYS_RCB_RBUS_RF_DCXO_CFG_SET | regConfig | CY_SYS_R
1116:Generated_Source\PSoC4/CyLib.c ****                 
1117:Generated_Source\PSoC4/CyLib.c ****                 while (0u == (CY_SYS_RCB_INTR_RCB_DONE & CY_SYS_RCB_INTR_REG))
1118:Generated_Source\PSoC4/CyLib.c ****                 {
1119:Generated_Source\PSoC4/CyLib.c ****                     /* Wait until RCB_DONE state */
1120:Generated_Source\PSoC4/CyLib.c ****                 }
ARM GAS  C:\Users\theGu\AppData\Local\Temp\cce4Ss8I.s 			page 29


1121:Generated_Source\PSoC4/CyLib.c ****                 
1122:Generated_Source\PSoC4/CyLib.c ****                 /* Clear Interrupt */
1123:Generated_Source\PSoC4/CyLib.c ****                 CY_SYS_RCB_INTR_REG = CY_SYS_RCB_INTR_CLEAR;
1124:Generated_Source\PSoC4/CyLib.c ****                 
1125:Generated_Source\PSoC4/CyLib.c ****                 if(0u != ((CY_SYS_RCB_INTR_RCB_DONE | CY_SYS_RCB_INTR_RCB_RX_FIFO_NOT_EMPTY) & intr
1126:Generated_Source\PSoC4/CyLib.c ****                 {
1127:Generated_Source\PSoC4/CyLib.c ****                     CY_SYS_BLESS_INTR_MASK_REG |= intrRegMaskStore;
1128:Generated_Source\PSoC4/CyLib.c ****                 }
1129:Generated_Source\PSoC4/CyLib.c ****                 
1130:Generated_Source\PSoC4/CyLib.c ****             }
1131:Generated_Source\PSoC4/CyLib.c ****         #else /* CY_IP_ECO_SRSSV2 */
1132:Generated_Source\PSoC4/CyLib.c ****             CY_SYS_CLK_ECO_CONFIG_REG |= CY_SYS_CLK_ECO_CONFIG_ENABLE;
1133:Generated_Source\PSoC4/CyLib.c ****             CyDelayUs(CY_SYS_CLK_ECO_CONFIG_CLK_EN_TIMEOUT_US);
1134:Generated_Source\PSoC4/CyLib.c ****             CY_SYS_CLK_ECO_CONFIG_REG |= CY_SYS_CLK_ECO_CONFIG_CLK_EN;
1135:Generated_Source\PSoC4/CyLib.c ****         #endif /* (CY_IP_ECO_BLESS) */
1136:Generated_Source\PSoC4/CyLib.c **** 
1137:Generated_Source\PSoC4/CyLib.c ****         if(timeoutUs > 0u)
1138:Generated_Source\PSoC4/CyLib.c ****         {
1139:Generated_Source\PSoC4/CyLib.c ****             returnStatus = CYRET_TIMEOUT;
1140:Generated_Source\PSoC4/CyLib.c **** 
1141:Generated_Source\PSoC4/CyLib.c ****             for( ; timeoutUs > 0u; timeoutUs--)
1142:Generated_Source\PSoC4/CyLib.c ****             {
1143:Generated_Source\PSoC4/CyLib.c ****                 CyDelayUs(1u);
1144:Generated_Source\PSoC4/CyLib.c **** 
1145:Generated_Source\PSoC4/CyLib.c ****                 if(0u != CySysClkEcoReadStatus())
1146:Generated_Source\PSoC4/CyLib.c ****                 {
1147:Generated_Source\PSoC4/CyLib.c ****                     returnStatus = CYRET_SUCCESS;
1148:Generated_Source\PSoC4/CyLib.c ****                     break;
1149:Generated_Source\PSoC4/CyLib.c ****                 }
1150:Generated_Source\PSoC4/CyLib.c ****             }
1151:Generated_Source\PSoC4/CyLib.c **** 
1152:Generated_Source\PSoC4/CyLib.c ****         }
1153:Generated_Source\PSoC4/CyLib.c **** 
1154:Generated_Source\PSoC4/CyLib.c ****         return(returnStatus);
1155:Generated_Source\PSoC4/CyLib.c ****     }
1156:Generated_Source\PSoC4/CyLib.c **** 
1157:Generated_Source\PSoC4/CyLib.c **** 
1158:Generated_Source\PSoC4/CyLib.c ****     /*******************************************************************************
1159:Generated_Source\PSoC4/CyLib.c ****     * Function Name: CySysClkEcoStop
1160:Generated_Source\PSoC4/CyLib.c ****     ****************************************************************************//**
1161:Generated_Source\PSoC4/CyLib.c ****     *
1162:Generated_Source\PSoC4/CyLib.c ****     * Stops the megahertz crystal.
1163:Generated_Source\PSoC4/CyLib.c ****     *
1164:Generated_Source\PSoC4/CyLib.c ****     * If ECO is disabled when it is sourcing HFCLK, the CPU will halt. In addition,
1165:Generated_Source\PSoC4/CyLib.c ****     * for PSoC 4100 BLE / PSoC 4200 BLE devices, the BLE sub-system will stop
1166:Generated_Source\PSoC4/CyLib.c ****     * functioning.
1167:Generated_Source\PSoC4/CyLib.c ****     *
1168:Generated_Source\PSoC4/CyLib.c ****     *******************************************************************************/
1169:Generated_Source\PSoC4/CyLib.c ****     void CySysClkEcoStop(void)
1170:Generated_Source\PSoC4/CyLib.c ****     {
1171:Generated_Source\PSoC4/CyLib.c ****         #if (CY_IP_WCO_BLESS)
1172:Generated_Source\PSoC4/CyLib.c ****             /* Disable the RF oscillator band gap */
1173:Generated_Source\PSoC4/CyLib.c ****             CY_SYS_XTAL_BLESS_RF_CONFIG_REG &= (uint32) ~CY_SYS_XTAL_BLESS_RF_CONFIG_RF_ENABLE;
1174:Generated_Source\PSoC4/CyLib.c **** 
1175:Generated_Source\PSoC4/CyLib.c ****             /* Disable the Crystal */
1176:Generated_Source\PSoC4/CyLib.c ****             CY_SYS_XTAL_BLERD_DBUS_REG &= (uint32) ~CY_SYS_XTAL_BLERD_DBUS_XTAL_ENABLE;
1177:Generated_Source\PSoC4/CyLib.c ****         #elif (CY_IP_ECO_BLESSV3)
ARM GAS  C:\Users\theGu\AppData\Local\Temp\cce4Ss8I.s 			page 30


1178:Generated_Source\PSoC4/CyLib.c ****             CY_SYS_BLESS_MT_CFG_REG &= ~(CY_SYS_BLESS_MT_CFG_DPSLP_ECO_ON  <<  CYFLD_BLE_BLESS_DPSL
1179:Generated_Source\PSoC4/CyLib.c ****         #else
1180:Generated_Source\PSoC4/CyLib.c ****             CY_SYS_CLK_ECO_CONFIG_REG &= (uint32) ~(CY_SYS_CLK_ECO_CONFIG_ENABLE | CY_SYS_CLK_ECO_C
1181:Generated_Source\PSoC4/CyLib.c ****         #endif /* (CY_IP_WCO_BLESS) */
1182:Generated_Source\PSoC4/CyLib.c ****     }
1183:Generated_Source\PSoC4/CyLib.c **** 
1184:Generated_Source\PSoC4/CyLib.c **** 
1185:Generated_Source\PSoC4/CyLib.c ****     /*******************************************************************************
1186:Generated_Source\PSoC4/CyLib.c ****     * Function Name: CySysClkEcoReadStatus
1187:Generated_Source\PSoC4/CyLib.c ****     ****************************************************************************//**
1188:Generated_Source\PSoC4/CyLib.c ****     *
1189:Generated_Source\PSoC4/CyLib.c ****     * Reads the status bit for the megahertz crystal.
1190:Generated_Source\PSoC4/CyLib.c ****     *
1191:Generated_Source\PSoC4/CyLib.c ****     * For PSoC 4100 BLE / PSoC 4200 BLE devices, the status bit is the
1192:Generated_Source\PSoC4/CyLib.c ****     * XO_AMP_DETECT bit in FSM register.
1193:Generated_Source\PSoC4/CyLib.c ****     *
1194:Generated_Source\PSoC4/CyLib.c ****     * For PSoC 4200L devices, the error status bit is the WATCHDOG_ERROR bit in
1195:Generated_Source\PSoC4/CyLib.c ****     * ECO_STATUS register.
1196:Generated_Source\PSoC4/CyLib.c ****     *
1197:Generated_Source\PSoC4/CyLib.c ****     * \return PSoC 4100 BLE/PSoC 4200 BLE: Non-zero indicates that ECO output
1198:Generated_Source\PSoC4/CyLib.c ****     * reached 50 ppm and is oscillating in valid range.
1199:Generated_Source\PSoC4/CyLib.c ****     *
1200:Generated_Source\PSoC4/CyLib.c ****     * \return PSoC 4200L: Non-zero indicates that ECO is running.
1201:Generated_Source\PSoC4/CyLib.c ****     *
1202:Generated_Source\PSoC4/CyLib.c ****     *******************************************************************************/
1203:Generated_Source\PSoC4/CyLib.c ****     uint32 CySysClkEcoReadStatus(void)
1204:Generated_Source\PSoC4/CyLib.c ****     {
1205:Generated_Source\PSoC4/CyLib.c ****         uint32 returnValue;
1206:Generated_Source\PSoC4/CyLib.c **** 
1207:Generated_Source\PSoC4/CyLib.c ****         #if (CY_IP_WCO_BLESS)
1208:Generated_Source\PSoC4/CyLib.c ****             returnValue = CY_SYS_XTAL_BLERD_FSM_REG & CY_SYS_XTAL_BLERD_FSM_XO_AMP_DETECT;
1209:Generated_Source\PSoC4/CyLib.c ****         #elif (CY_IP_ECO_BLESSV3)
1210:Generated_Source\PSoC4/CyLib.c ****             returnValue = (CY_SYS_BLESS_MT_STATUS_REG & CY_SYS_BLESS_MT_STATUS_CURR_STATE_MASK) >> 
1211:Generated_Source\PSoC4/CyLib.c **** 
1212:Generated_Source\PSoC4/CyLib.c ****             returnValue =  ((CY_SYS_BLESS_MT_STATUS_BLERD_IDLE == returnValue) || 
1213:Generated_Source\PSoC4/CyLib.c ****                             (CY_SYS_BLESS_MT_STATUS_SWITCH_EN  == returnValue) ||
1214:Generated_Source\PSoC4/CyLib.c ****                             (CY_SYS_BLESS_MT_STATUS_ACTIVE  ==  returnValue) ||
1215:Generated_Source\PSoC4/CyLib.c ****                             (CY_SYS_BLESS_MT_STATUS_ISOLATE == returnValue));
1216:Generated_Source\PSoC4/CyLib.c ****         #else
1217:Generated_Source\PSoC4/CyLib.c ****             returnValue = (0u != (CY_SYS_CLK_ECO_STATUS_REG & CY_SYS_CLK_ECO_STATUS_WATCHDOG_ERROR)
1218:Generated_Source\PSoC4/CyLib.c ****         #endif /* (CY_IP_WCO_BLESS) */
1219:Generated_Source\PSoC4/CyLib.c **** 
1220:Generated_Source\PSoC4/CyLib.c ****         return (returnValue);
1221:Generated_Source\PSoC4/CyLib.c ****     }
1222:Generated_Source\PSoC4/CyLib.c **** 
1223:Generated_Source\PSoC4/CyLib.c ****     #if (CY_IP_ECO_BLESS || CY_IP_ECO_BLESSV3)
1224:Generated_Source\PSoC4/CyLib.c ****         /*******************************************************************************
1225:Generated_Source\PSoC4/CyLib.c ****         * Function Name: CySysClkWriteEcoDiv
1226:Generated_Source\PSoC4/CyLib.c ****         ****************************************************************************//**
1227:Generated_Source\PSoC4/CyLib.c ****         *
1228:Generated_Source\PSoC4/CyLib.c ****         * Selects value for the ECO divider.
1229:Generated_Source\PSoC4/CyLib.c ****         *
1230:Generated_Source\PSoC4/CyLib.c ****         * The ECO must not be the HFCLK clock source when this function is called.
1231:Generated_Source\PSoC4/CyLib.c ****         * The HFCLK source can be changed to the other clock source by call to the
1232:Generated_Source\PSoC4/CyLib.c ****         * CySysClkWriteHfclkDirect() function. If the ECO sources the HFCLK this
1233:Generated_Source\PSoC4/CyLib.c ****         * function will not have any effect if compiler in release mode, and halt the
1234:Generated_Source\PSoC4/CyLib.c ****         * CPU when compiler in debug mode.
ARM GAS  C:\Users\theGu\AppData\Local\Temp\cce4Ss8I.s 			page 31


1235:Generated_Source\PSoC4/CyLib.c ****         *
1236:Generated_Source\PSoC4/CyLib.c ****         * If the SYSCLK clock frequency increases during the device operation, call
1237:Generated_Source\PSoC4/CyLib.c ****         * CySysFlashSetWaitCycles() with the appropriate parameter to adjust the number
1238:Generated_Source\PSoC4/CyLib.c ****         * of clock cycles the cache will wait before sampling data comes back from
1239:Generated_Source\PSoC4/CyLib.c ****         * Flash. If the SYSCLK clock frequency decreases, you can call
1240:Generated_Source\PSoC4/CyLib.c ****         * CySysFlashSetWaitCycles() to improve the CPU performance. See
1241:Generated_Source\PSoC4/CyLib.c ****         * CySysFlashSetWaitCycles() description for more information.
1242:Generated_Source\PSoC4/CyLib.c ****         *
1243:Generated_Source\PSoC4/CyLib.c ****         * \param divider Power of 2 divider selection.
1244:Generated_Source\PSoC4/CyLib.c ****         * - \ref CY_SYS_CLK_ECO_DIV1
1245:Generated_Source\PSoC4/CyLib.c ****         * - \ref CY_SYS_CLK_ECO_DIV2
1246:Generated_Source\PSoC4/CyLib.c ****         * - \ref CY_SYS_CLK_ECO_DIV4
1247:Generated_Source\PSoC4/CyLib.c ****         * - \ref CY_SYS_CLK_ECO_DIV8
1248:Generated_Source\PSoC4/CyLib.c ****         *
1249:Generated_Source\PSoC4/CyLib.c ****         *******************************************************************************/
1250:Generated_Source\PSoC4/CyLib.c ****         void CySysClkWriteEcoDiv(uint32 divider)
1251:Generated_Source\PSoC4/CyLib.c ****         {
1252:Generated_Source\PSoC4/CyLib.c ****             uint8  interruptState;
1253:Generated_Source\PSoC4/CyLib.c **** 
1254:Generated_Source\PSoC4/CyLib.c ****             if (CY_SYS_CLK_HFCLK_ECO != (CY_SYS_CLK_SELECT_REG & CY_SYS_CLK_SELECT_DIRECT_SEL_MASK)
1255:Generated_Source\PSoC4/CyLib.c ****             {
1256:Generated_Source\PSoC4/CyLib.c ****                 interruptState = CyEnterCriticalSection();
1257:Generated_Source\PSoC4/CyLib.c **** 
1258:Generated_Source\PSoC4/CyLib.c ****                 CY_SYS_CLK_XTAL_CLK_DIV_CONFIG_REG =  (divider & CY_SYS_CLK_XTAL_CLK_DIV_MASK) |
1259:Generated_Source\PSoC4/CyLib.c ****                                                       (CY_SYS_CLK_XTAL_CLK_DIV_CONFIG_REG & ((uint3
1260:Generated_Source\PSoC4/CyLib.c **** 
1261:Generated_Source\PSoC4/CyLib.c ****                 CyExitCriticalSection(interruptState);
1262:Generated_Source\PSoC4/CyLib.c ****             }
1263:Generated_Source\PSoC4/CyLib.c ****             else
1264:Generated_Source\PSoC4/CyLib.c ****             {
1265:Generated_Source\PSoC4/CyLib.c ****                 /* Halt CPU in debug mode if ECO sources HFCLK */
1266:Generated_Source\PSoC4/CyLib.c ****                 CYASSERT(0u != 0u);
1267:Generated_Source\PSoC4/CyLib.c ****             }
1268:Generated_Source\PSoC4/CyLib.c ****         }
1269:Generated_Source\PSoC4/CyLib.c **** 
1270:Generated_Source\PSoC4/CyLib.c ****     #else
1271:Generated_Source\PSoC4/CyLib.c **** 
1272:Generated_Source\PSoC4/CyLib.c ****         /*******************************************************************************
1273:Generated_Source\PSoC4/CyLib.c ****         * Function Name: CySysClkConfigureEcoTrim
1274:Generated_Source\PSoC4/CyLib.c ****         ****************************************************************************//**
1275:Generated_Source\PSoC4/CyLib.c ****         *
1276:Generated_Source\PSoC4/CyLib.c ****         * Selects trim setting values for ECO. This API is available only for PSoC
1277:Generated_Source\PSoC4/CyLib.c ****         * 4200L devices only.
1278:Generated_Source\PSoC4/CyLib.c ****         *
1279:Generated_Source\PSoC4/CyLib.c ****         * The following parameters can be trimmed for ECO. The affected registers are
1280:Generated_Source\PSoC4/CyLib.c ****         * ECO_TRIM0 and ECO_TRIM1.
1281:Generated_Source\PSoC4/CyLib.c ****         *
1282:Generated_Source\PSoC4/CyLib.c ****         * Watchdog trim - This bit field sets the error threshold below the steady
1283:Generated_Source\PSoC4/CyLib.c ****         * state amplitude level.
1284:Generated_Source\PSoC4/CyLib.c ****         *
1285:Generated_Source\PSoC4/CyLib.c ****         * Amplitude trim - This bit field is to set the crystal drive level when
1286:Generated_Source\PSoC4/CyLib.c ****         * ECO_CONFIG.AGC_EN = 1. WARNING: use care when setting this field because
1287:Generated_Source\PSoC4/CyLib.c ****         * driving a crystal beyond its rated limit can permanently damage the crystal.
1288:Generated_Source\PSoC4/CyLib.c ****         *
1289:Generated_Source\PSoC4/CyLib.c ****         * Filter frequency trim - This bit field sets LPF frequency trim and affects
1290:Generated_Source\PSoC4/CyLib.c ****         * the 3rd harmonic content.
1291:Generated_Source\PSoC4/CyLib.c ****         *
ARM GAS  C:\Users\theGu\AppData\Local\Temp\cce4Ss8I.s 			page 32


1292:Generated_Source\PSoC4/CyLib.c ****         * Feedback resistor trim - This bit field sets the feedback resistor trim and
1293:Generated_Source\PSoC4/CyLib.c ****         * impacts the oscillation amplitude.
1294:Generated_Source\PSoC4/CyLib.c ****         *
1295:Generated_Source\PSoC4/CyLib.c ****         * Amplifier gain trim - This bit field sets the amplifier gain trim and affects
1296:Generated_Source\PSoC4/CyLib.c ****         * the startup time of the crystal.
1297:Generated_Source\PSoC4/CyLib.c ****         *
1298:Generated_Source\PSoC4/CyLib.c ****         * Use care when setting the amplitude trim field because driving a crystal
1299:Generated_Source\PSoC4/CyLib.c ****         * beyond its rated limit can permanently damage the crystal.
1300:Generated_Source\PSoC4/CyLib.c ****         *
1301:Generated_Source\PSoC4/CyLib.c ****         * \param wDTrim: Watchdog trim
1302:Generated_Source\PSoC4/CyLib.c ****         * - \ref CY_SYS_CLK_ECO_WDTRIM0      Error threshold is 0.05 V
1303:Generated_Source\PSoC4/CyLib.c ****         * - \ref CY_SYS_CLK_ECO_WDTRIM1      Error threshold is 0.10 V
1304:Generated_Source\PSoC4/CyLib.c ****         * - \ref CY_SYS_CLK_ECO_WDTRIM2      Error threshold is 0.15 V
1305:Generated_Source\PSoC4/CyLib.c ****         * - \ref CY_SYS_CLK_ECO_WDTRIM3      Error threshold is 0.20 V
1306:Generated_Source\PSoC4/CyLib.c ****         *
1307:Generated_Source\PSoC4/CyLib.c ****         * \param aTrim: Amplitude trim
1308:Generated_Source\PSoC4/CyLib.c ****         * - \ref CY_SYS_CLK_ECO_ATRIM0       Amplitude is 0.3 Vpp
1309:Generated_Source\PSoC4/CyLib.c ****         * - \ref CY_SYS_CLK_ECO_ATRIM1       Amplitude is 0.4 Vpp
1310:Generated_Source\PSoC4/CyLib.c ****         * - \ref CY_SYS_CLK_ECO_ATRIM2       Amplitude is 0.5 Vpp
1311:Generated_Source\PSoC4/CyLib.c ****         * - \ref CY_SYS_CLK_ECO_ATRIM3       Amplitude is 0.6 Vpp
1312:Generated_Source\PSoC4/CyLib.c ****         * - \ref CY_SYS_CLK_ECO_ATRIM4       Amplitude is 0.7 Vpp
1313:Generated_Source\PSoC4/CyLib.c ****         * - \ref CY_SYS_CLK_ECO_ATRIM5       Amplitude is 0.8 Vpp
1314:Generated_Source\PSoC4/CyLib.c ****         * - \ref CY_SYS_CLK_ECO_ATRIM6       Amplitude is 0.9 Vpp
1315:Generated_Source\PSoC4/CyLib.c ****         * - \ref CY_SYS_CLK_ECO_ATRIM7       Amplitude is 1.0 Vpp
1316:Generated_Source\PSoC4/CyLib.c ****         *
1317:Generated_Source\PSoC4/CyLib.c ****         * \param fTrim: Filter frequency trim
1318:Generated_Source\PSoC4/CyLib.c ****         * - \ref CY_SYS_CLK_ECO_FTRIM0       Crystal frequency > 30 MHz
1319:Generated_Source\PSoC4/CyLib.c ****         * - \ref CY_SYS_CLK_ECO_FTRIM1       24 MHz < Crystal frequency <= 30 MHz
1320:Generated_Source\PSoC4/CyLib.c ****         * - \ref CY_SYS_CLK_ECO_FTRIM2       17 MHz < Crystal frequency <= 24 MHz
1321:Generated_Source\PSoC4/CyLib.c ****         * - \ref CY_SYS_CLK_ECO_FTRIM3       Crystal frequency <= 17 MHz
1322:Generated_Source\PSoC4/CyLib.c ****         *
1323:Generated_Source\PSoC4/CyLib.c ****         * \param rTrim: Feedback resistor trim
1324:Generated_Source\PSoC4/CyLib.c ****         * - \ref CY_SYS_CLK_ECO_RTRIM0       Crystal frequency > 30 MHz
1325:Generated_Source\PSoC4/CyLib.c ****         * - \ref CY_SYS_CLK_ECO_RTRIM1       24 MHz < Crystal frequency <= 30 MHz
1326:Generated_Source\PSoC4/CyLib.c ****         * - \ref CY_SYS_CLK_ECO_RTRIM2       17 MHz < Crystal frequency <= 24 MHz
1327:Generated_Source\PSoC4/CyLib.c ****         * - \ref CY_SYS_CLK_ECO_RTRIM3       Crystal frequency <= 17 MHz
1328:Generated_Source\PSoC4/CyLib.c ****         *
1329:Generated_Source\PSoC4/CyLib.c ****         * \param gTrim: Amplifier gain trim. Calculate the minimum required gm
1330:Generated_Source\PSoC4/CyLib.c ****         * (trans-conductance value). Divide the calculated gm value by 4.5 to
1331:Generated_Source\PSoC4/CyLib.c ****         * obtain an integer value 'result'. For more information please refer
1332:Generated_Source\PSoC4/CyLib.c ****         * to the device TRM.
1333:Generated_Source\PSoC4/CyLib.c ****         * - \ref CY_SYS_CLK_ECO_GTRIM0       If result = 1
1334:Generated_Source\PSoC4/CyLib.c ****         * - \ref CY_SYS_CLK_ECO_GTRIM1       If result = 0
1335:Generated_Source\PSoC4/CyLib.c ****         * - \ref CY_SYS_CLK_ECO_GTRIM2       If result = 2
1336:Generated_Source\PSoC4/CyLib.c ****         * - \ref CY_SYS_CLK_ECO_GTRIM2       If result = 3
1337:Generated_Source\PSoC4/CyLib.c ****         *
1338:Generated_Source\PSoC4/CyLib.c ****         *******************************************************************************/
1339:Generated_Source\PSoC4/CyLib.c ****         void CySysClkConfigureEcoTrim(uint32 wDTrim, uint32 aTrim, uint32 fTrim, uint32 rTrim, uint
1340:Generated_Source\PSoC4/CyLib.c ****         {
1341:Generated_Source\PSoC4/CyLib.c ****             uint8  interruptState;
1342:Generated_Source\PSoC4/CyLib.c ****             uint32 regTmp;
1343:Generated_Source\PSoC4/CyLib.c **** 
1344:Generated_Source\PSoC4/CyLib.c ****             interruptState = CyEnterCriticalSection();
1345:Generated_Source\PSoC4/CyLib.c **** 
1346:Generated_Source\PSoC4/CyLib.c ****             regTmp  = CY_SYS_CLK_ECO_TRIM0_REG & ~(CY_SYS_CLK_ECO_TRIM0_WDTRIM_MASK | CY_SYS_CLK_EC
1347:Generated_Source\PSoC4/CyLib.c ****             regTmp |= ((uint32) (wDTrim << CY_SYS_CLK_ECO_TRIM0_WDTRIM_SHIFT) & CY_SYS_CLK_ECO_TRIM
1348:Generated_Source\PSoC4/CyLib.c ****             regTmp |= ((uint32) (aTrim << CY_SYS_CLK_ECO_TRIM0_ATRIM_SHIFT) & CY_SYS_CLK_ECO_TRIM0_
ARM GAS  C:\Users\theGu\AppData\Local\Temp\cce4Ss8I.s 			page 33


1349:Generated_Source\PSoC4/CyLib.c ****             CY_SYS_CLK_ECO_TRIM0_REG = regTmp;
1350:Generated_Source\PSoC4/CyLib.c **** 
1351:Generated_Source\PSoC4/CyLib.c ****             regTmp  = CY_SYS_CLK_ECO_TRIM1_REG & ~(CY_SYS_CLK_ECO_TRIM1_FTRIM_MASK |
1352:Generated_Source\PSoC4/CyLib.c ****                                                    CY_SYS_CLK_ECO_TRIM1_RTRIM_MASK |
1353:Generated_Source\PSoC4/CyLib.c ****                                                    CY_SYS_CLK_ECO_TRIM1_GTRIM_MASK);
1354:Generated_Source\PSoC4/CyLib.c ****             regTmp |= ((uint32) (fTrim << CY_SYS_CLK_ECO_TRIM1_FTRIM_SHIFT) & CY_SYS_CLK_ECO_TRIM1_
1355:Generated_Source\PSoC4/CyLib.c ****             regTmp |= ((uint32) (rTrim << CY_SYS_CLK_ECO_TRIM1_RTRIM_SHIFT) & CY_SYS_CLK_ECO_TRIM1_
1356:Generated_Source\PSoC4/CyLib.c ****             regTmp |= ((uint32) (gTrim << CY_SYS_CLK_ECO_TRIM1_GTRIM_SHIFT) & CY_SYS_CLK_ECO_TRIM1_
1357:Generated_Source\PSoC4/CyLib.c **** 
1358:Generated_Source\PSoC4/CyLib.c ****             CY_SYS_CLK_ECO_TRIM1_REG = regTmp;
1359:Generated_Source\PSoC4/CyLib.c **** 
1360:Generated_Source\PSoC4/CyLib.c ****             CyExitCriticalSection(interruptState);
1361:Generated_Source\PSoC4/CyLib.c ****         }
1362:Generated_Source\PSoC4/CyLib.c **** 
1363:Generated_Source\PSoC4/CyLib.c **** 
1364:Generated_Source\PSoC4/CyLib.c ****         /*******************************************************************************
1365:Generated_Source\PSoC4/CyLib.c ****         * Function Name: CySysClkConfigureEcoDrive
1366:Generated_Source\PSoC4/CyLib.c ****         ****************************************************************************//**
1367:Generated_Source\PSoC4/CyLib.c ****         *
1368:Generated_Source\PSoC4/CyLib.c ****         * Selects trim setting values for ECO based on crystal parameters. Use care
1369:Generated_Source\PSoC4/CyLib.c ****         * when setting the driveLevel parameter because driving a crystal beyond its
1370:Generated_Source\PSoC4/CyLib.c ****         * rated limit can permanently damage the crystal.
1371:Generated_Source\PSoC4/CyLib.c ****         *
1372:Generated_Source\PSoC4/CyLib.c ****         * This API is available only for PSoC 4200L devices only.
1373:Generated_Source\PSoC4/CyLib.c ****         *
1374:Generated_Source\PSoC4/CyLib.c ****         * \param freq Frequency of the crystal in kHz.
1375:Generated_Source\PSoC4/CyLib.c ****         * \param cLoad Crystal load capacitance in pF.
1376:Generated_Source\PSoC4/CyLib.c ****         * \param esr Equivalent series resistance of the crystal in ohm.
1377:Generated_Source\PSoC4/CyLib.c ****         *  maxAmplitude: maximum amplitude level in mV. Calculate as
1378:Generated_Source\PSoC4/CyLib.c ****         *  ((sqrt(driveLevel in uW / 2 / esr))/(3.14 * freq * cLoad)) * 10^9.
1379:Generated_Source\PSoC4/CyLib.c ****         *
1380:Generated_Source\PSoC4/CyLib.c ****         *  The Automatic Gain Control (AGC) is disabled when the specified maximum
1381:Generated_Source\PSoC4/CyLib.c ****         *  amplitude level equals or above 2. In this case the amplitude is not
1382:Generated_Source\PSoC4/CyLib.c ****         *  explicitly controlled and will grow until it saturates to the supply rail
1383:Generated_Source\PSoC4/CyLib.c ****         *  (1.8V nom). WARNING: use care when disabling AGC because driving a crystal
1384:Generated_Source\PSoC4/CyLib.c ****         *  beyond its rated limit can permanently damage the crystal.
1385:Generated_Source\PSoC4/CyLib.c ****         *
1386:Generated_Source\PSoC4/CyLib.c ****         * \return \ref CYRET_SUCCESS ECO configuration completed successfully.
1387:Generated_Source\PSoC4/CyLib.c ****         * \return \ref CYRET_BAD_PARAM One or more invalid parameters.
1388:Generated_Source\PSoC4/CyLib.c ****         *
1389:Generated_Source\PSoC4/CyLib.c ****         *******************************************************************************/
1390:Generated_Source\PSoC4/CyLib.c ****         cystatus CySysClkConfigureEcoDrive(uint32 freq, uint32 cLoad, uint32 esr, uint32 maxAmplitu
1391:Generated_Source\PSoC4/CyLib.c ****         {
1392:Generated_Source\PSoC4/CyLib.c ****             cystatus returnStatus = CYRET_SUCCESS;
1393:Generated_Source\PSoC4/CyLib.c **** 
1394:Generated_Source\PSoC4/CyLib.c ****             uint32 wDTrim;
1395:Generated_Source\PSoC4/CyLib.c ****             uint32 aTrim;
1396:Generated_Source\PSoC4/CyLib.c ****             uint32 fTrim;
1397:Generated_Source\PSoC4/CyLib.c ****             uint32 rTrim;
1398:Generated_Source\PSoC4/CyLib.c ****             uint32 gTrim;
1399:Generated_Source\PSoC4/CyLib.c **** 
1400:Generated_Source\PSoC4/CyLib.c ****             uint32 gmMin;
1401:Generated_Source\PSoC4/CyLib.c **** 
1402:Generated_Source\PSoC4/CyLib.c **** 
1403:Generated_Source\PSoC4/CyLib.c ****             if ((maxAmplitude < CY_SYS_CLK_ECO_MAX_AMPL_MIN_mV) ||
1404:Generated_Source\PSoC4/CyLib.c ****                 (freq < CY_SYS_CLK_ECO_FREQ_KHZ_MIN) || (freq > CY_SYS_CLK_ECO_FREQ_KHZ_MAX))
1405:Generated_Source\PSoC4/CyLib.c ****             {
ARM GAS  C:\Users\theGu\AppData\Local\Temp\cce4Ss8I.s 			page 34


1406:Generated_Source\PSoC4/CyLib.c ****                 returnStatus = CYRET_BAD_PARAM;
1407:Generated_Source\PSoC4/CyLib.c ****             }
1408:Generated_Source\PSoC4/CyLib.c ****             else
1409:Generated_Source\PSoC4/CyLib.c ****             {
1410:Generated_Source\PSoC4/CyLib.c ****                 /* Calculate amplitude trim */
1411:Generated_Source\PSoC4/CyLib.c ****                 aTrim = (maxAmplitude < CY_SYS_CLK_ECO_TRIM_BOUNDARY) ? ((maxAmplitude/100u) - 4u) 
1412:Generated_Source\PSoC4/CyLib.c **** 
1413:Generated_Source\PSoC4/CyLib.c ****                 if (maxAmplitude < CY_SYS_CLK_ECO_AMPL_FOR_ATRIM0)
1414:Generated_Source\PSoC4/CyLib.c ****                 {
1415:Generated_Source\PSoC4/CyLib.c ****                     aTrim = CY_SYS_CLK_ECO_ATRIM0;
1416:Generated_Source\PSoC4/CyLib.c ****                 }
1417:Generated_Source\PSoC4/CyLib.c ****                 else if (maxAmplitude < CY_SYS_CLK_ECO_AMPL_FOR_ATRIM1)
1418:Generated_Source\PSoC4/CyLib.c ****                 {
1419:Generated_Source\PSoC4/CyLib.c ****                     aTrim = CY_SYS_CLK_ECO_ATRIM1;
1420:Generated_Source\PSoC4/CyLib.c ****                 }
1421:Generated_Source\PSoC4/CyLib.c ****                 else if (maxAmplitude < CY_SYS_CLK_ECO_AMPL_FOR_ATRIM2)
1422:Generated_Source\PSoC4/CyLib.c ****                 {
1423:Generated_Source\PSoC4/CyLib.c ****                     aTrim = CY_SYS_CLK_ECO_ATRIM2;
1424:Generated_Source\PSoC4/CyLib.c ****                 }
1425:Generated_Source\PSoC4/CyLib.c ****                 else if (maxAmplitude < CY_SYS_CLK_ECO_AMPL_FOR_ATRIM3)
1426:Generated_Source\PSoC4/CyLib.c ****                 {
1427:Generated_Source\PSoC4/CyLib.c ****                     aTrim = CY_SYS_CLK_ECO_ATRIM3;
1428:Generated_Source\PSoC4/CyLib.c ****                 }
1429:Generated_Source\PSoC4/CyLib.c ****                 else if (maxAmplitude < CY_SYS_CLK_ECO_AMPL_FOR_ATRIM4)
1430:Generated_Source\PSoC4/CyLib.c ****                 {
1431:Generated_Source\PSoC4/CyLib.c ****                     aTrim = CY_SYS_CLK_ECO_ATRIM4;
1432:Generated_Source\PSoC4/CyLib.c ****                 }
1433:Generated_Source\PSoC4/CyLib.c ****                 else if (maxAmplitude < CY_SYS_CLK_ECO_AMPL_FOR_ATRIM5)
1434:Generated_Source\PSoC4/CyLib.c ****                 {
1435:Generated_Source\PSoC4/CyLib.c ****                     aTrim = CY_SYS_CLK_ECO_ATRIM5;
1436:Generated_Source\PSoC4/CyLib.c ****                 }
1437:Generated_Source\PSoC4/CyLib.c ****                 else if (maxAmplitude < CY_SYS_CLK_ECO_AMPL_FOR_ATRIM6)
1438:Generated_Source\PSoC4/CyLib.c ****                 {
1439:Generated_Source\PSoC4/CyLib.c ****                     aTrim = CY_SYS_CLK_ECO_ATRIM6;
1440:Generated_Source\PSoC4/CyLib.c ****                 }
1441:Generated_Source\PSoC4/CyLib.c ****                 else
1442:Generated_Source\PSoC4/CyLib.c ****                 {
1443:Generated_Source\PSoC4/CyLib.c ****                     aTrim = CY_SYS_CLK_ECO_ATRIM7;
1444:Generated_Source\PSoC4/CyLib.c ****                 }
1445:Generated_Source\PSoC4/CyLib.c **** 
1446:Generated_Source\PSoC4/CyLib.c ****                 /* Calculate Watchdog trim. */
1447:Generated_Source\PSoC4/CyLib.c ****                 wDTrim = (maxAmplitude < CY_SYS_CLK_ECO_TRIM_BOUNDARY) ? ((maxAmplitude/200u) - 2u)
1448:Generated_Source\PSoC4/CyLib.c **** 
1449:Generated_Source\PSoC4/CyLib.c ****                 /* Calculate amplifier gain trim. */
1450:Generated_Source\PSoC4/CyLib.c ****                 gmMin = (uint32) (((((CY_SYS_CLK_ECO_GMMIN_COEFFICIENT * freq * cLoad) / 1000) * ((
1451:Generated_Source\PSoC4/CyLib.c ****                 if (gmMin > 3u)
1452:Generated_Source\PSoC4/CyLib.c ****                 {
1453:Generated_Source\PSoC4/CyLib.c ****                     returnStatus = CYRET_BAD_PARAM;
1454:Generated_Source\PSoC4/CyLib.c ****                     gTrim = 0u;
1455:Generated_Source\PSoC4/CyLib.c ****                 }
1456:Generated_Source\PSoC4/CyLib.c ****                 else if (gmMin > 1u)
1457:Generated_Source\PSoC4/CyLib.c ****                 {
1458:Generated_Source\PSoC4/CyLib.c ****                     gTrim = gmMin;
1459:Generated_Source\PSoC4/CyLib.c ****                 }
1460:Generated_Source\PSoC4/CyLib.c ****                 else
1461:Generated_Source\PSoC4/CyLib.c ****                 {
1462:Generated_Source\PSoC4/CyLib.c ****                     gTrim = (gmMin == 1u) ? 0u : 1u;
ARM GAS  C:\Users\theGu\AppData\Local\Temp\cce4Ss8I.s 			page 35


1463:Generated_Source\PSoC4/CyLib.c ****                 }
1464:Generated_Source\PSoC4/CyLib.c **** 
1465:Generated_Source\PSoC4/CyLib.c ****                 /* Calculate feedback resistor trim */
1466:Generated_Source\PSoC4/CyLib.c ****                 if (freq > CY_SYS_CLK_ECO_FREQ_FOR_FTRIM0)
1467:Generated_Source\PSoC4/CyLib.c ****                 {
1468:Generated_Source\PSoC4/CyLib.c ****                     rTrim = CY_SYS_CLK_ECO_FTRIM0;
1469:Generated_Source\PSoC4/CyLib.c ****                 }
1470:Generated_Source\PSoC4/CyLib.c ****                 else if (freq > CY_SYS_CLK_ECO_FREQ_FOR_FTRIM1)
1471:Generated_Source\PSoC4/CyLib.c ****                 {
1472:Generated_Source\PSoC4/CyLib.c ****                     rTrim = CY_SYS_CLK_ECO_FTRIM1;
1473:Generated_Source\PSoC4/CyLib.c ****                 }
1474:Generated_Source\PSoC4/CyLib.c ****                 else if (freq > CY_SYS_CLK_ECO_FREQ_FOR_FTRIM2)
1475:Generated_Source\PSoC4/CyLib.c ****                 {
1476:Generated_Source\PSoC4/CyLib.c ****                     rTrim = CY_SYS_CLK_ECO_FTRIM2;
1477:Generated_Source\PSoC4/CyLib.c ****                 }
1478:Generated_Source\PSoC4/CyLib.c ****                 else
1479:Generated_Source\PSoC4/CyLib.c ****                 {
1480:Generated_Source\PSoC4/CyLib.c ****                     rTrim = CY_SYS_CLK_ECO_FTRIM3;
1481:Generated_Source\PSoC4/CyLib.c ****                 }
1482:Generated_Source\PSoC4/CyLib.c **** 
1483:Generated_Source\PSoC4/CyLib.c ****                 /* Calculate filter frequency trim */
1484:Generated_Source\PSoC4/CyLib.c ****                 fTrim = rTrim;
1485:Generated_Source\PSoC4/CyLib.c **** 
1486:Generated_Source\PSoC4/CyLib.c ****                 CySysClkConfigureEcoTrim(wDTrim, aTrim, fTrim, rTrim, gTrim);
1487:Generated_Source\PSoC4/CyLib.c **** 
1488:Generated_Source\PSoC4/CyLib.c ****                 /* Automatic Gain Control (AGC) enable */
1489:Generated_Source\PSoC4/CyLib.c ****                 if (maxAmplitude < 2u)
1490:Generated_Source\PSoC4/CyLib.c ****                 {
1491:Generated_Source\PSoC4/CyLib.c ****                     /* The oscillation amplitude is controlled to the level selected by amplitude t
1492:Generated_Source\PSoC4/CyLib.c ****                     CY_SYS_CLK_ECO_CONFIG_REG |= CY_SYS_CLK_ECO_CONFIG_AGC_EN;
1493:Generated_Source\PSoC4/CyLib.c ****                 }
1494:Generated_Source\PSoC4/CyLib.c ****                 else
1495:Generated_Source\PSoC4/CyLib.c ****                 {
1496:Generated_Source\PSoC4/CyLib.c ****                     /* The amplitude is not explicitly controlled and will grow until it saturates 
1497:Generated_Source\PSoC4/CyLib.c ****                     * supply rail (1.8V nom).
1498:Generated_Source\PSoC4/CyLib.c ****                     */
1499:Generated_Source\PSoC4/CyLib.c ****                     CY_SYS_CLK_ECO_CONFIG_REG &= (uint32) ~CY_SYS_CLK_ECO_CONFIG_AGC_EN;
1500:Generated_Source\PSoC4/CyLib.c ****                 }
1501:Generated_Source\PSoC4/CyLib.c ****             }
1502:Generated_Source\PSoC4/CyLib.c **** 
1503:Generated_Source\PSoC4/CyLib.c ****             return (returnStatus);
1504:Generated_Source\PSoC4/CyLib.c ****         }
1505:Generated_Source\PSoC4/CyLib.c **** 
1506:Generated_Source\PSoC4/CyLib.c ****     #endif /* CY_IP_ECO_BLESS */
1507:Generated_Source\PSoC4/CyLib.c **** 
1508:Generated_Source\PSoC4/CyLib.c **** #endif /* (CY_IP_ECO) */
1509:Generated_Source\PSoC4/CyLib.c **** 
1510:Generated_Source\PSoC4/CyLib.c **** 
1511:Generated_Source\PSoC4/CyLib.c **** #if (CY_IP_SRSSV2 && CY_IP_PLL)
1512:Generated_Source\PSoC4/CyLib.c ****     /*******************************************************************************
1513:Generated_Source\PSoC4/CyLib.c ****     * Function Name: CySysClkPllStart
1514:Generated_Source\PSoC4/CyLib.c ****     ****************************************************************************//**
1515:Generated_Source\PSoC4/CyLib.c ****     *
1516:Generated_Source\PSoC4/CyLib.c ****     * Enables the PLL. Optionally waits for it to become stable. Waits at least
1517:Generated_Source\PSoC4/CyLib.c ****     * 250 us or until it is detected that the PLL is stable.
1518:Generated_Source\PSoC4/CyLib.c ****     *
1519:Generated_Source\PSoC4/CyLib.c ****     * Clears the unlock occurred status bit by calling CySysClkPllGetUnlockStatus(),
ARM GAS  C:\Users\theGu\AppData\Local\Temp\cce4Ss8I.s 			page 36


1520:Generated_Source\PSoC4/CyLib.c ****     * once the PLL is locked if the wait parameter is 1).
1521:Generated_Source\PSoC4/CyLib.c ****     *
1522:Generated_Source\PSoC4/CyLib.c ****     * This API is available only for PSoC 4200L devices.
1523:Generated_Source\PSoC4/CyLib.c ****     *
1524:Generated_Source\PSoC4/CyLib.c ****     * \param PLL:
1525:Generated_Source\PSoC4/CyLib.c ****     * 0   PLL#0
1526:Generated_Source\PSoC4/CyLib.c ****     * 1   PLL#1
1527:Generated_Source\PSoC4/CyLib.c ****     *
1528:Generated_Source\PSoC4/CyLib.c ****     * \param wait:
1529:Generated_Source\PSoC4/CyLib.c ****     * 0 - Return immediately after configuration.
1530:Generated_Source\PSoC4/CyLib.c ****     * 1 - Wait for PLL lock or timeout. This API shall use the CyDelayUs() to
1531:Generated_Source\PSoC4/CyLib.c ****     * implement the timeout feature.
1532:Generated_Source\PSoC4/CyLib.c ****     *
1533:Generated_Source\PSoC4/CyLib.c ****     * \return CYRET_SUCCESS Completed successfully.
1534:Generated_Source\PSoC4/CyLib.c ****     * \return CYRET_TIMEOUT The timeout occurred without detecting a stable clock.
1535:Generated_Source\PSoC4/CyLib.c ****     * If the input source of the clock is jittery, then the lock indication may
1536:Generated_Source\PSoC4/CyLib.c ****     * not occur. However, after the timeout has expired, the generated PLL clock can
1537:Generated_Source\PSoC4/CyLib.c ****     * still be used.
1538:Generated_Source\PSoC4/CyLib.c ****     * \return CYRET_BAD_PARAM - Either the PLL or wait parameter is invalid.
1539:Generated_Source\PSoC4/CyLib.c ****     *
1540:Generated_Source\PSoC4/CyLib.c ****     *******************************************************************************/
1541:Generated_Source\PSoC4/CyLib.c ****     cystatus CySysClkPllStart(uint32 pll, uint32 wait)
1542:Generated_Source\PSoC4/CyLib.c ****     {
1543:Generated_Source\PSoC4/CyLib.c ****         uint32 counts = CY_SYS_CLK_PLL_MAX_STARTUP_US;
1544:Generated_Source\PSoC4/CyLib.c ****         uint8  interruptState;
1545:Generated_Source\PSoC4/CyLib.c ****         cystatus returnStatus = CYRET_SUCCESS;
1546:Generated_Source\PSoC4/CyLib.c **** 
1547:Generated_Source\PSoC4/CyLib.c ****         if((pll < CY_IP_PLL_NR) && (wait <= 1u))
1548:Generated_Source\PSoC4/CyLib.c ****         {
1549:Generated_Source\PSoC4/CyLib.c ****             interruptState = CyEnterCriticalSection();
1550:Generated_Source\PSoC4/CyLib.c **** 
1551:Generated_Source\PSoC4/CyLib.c ****             /* Isolate PLL outputs */
1552:Generated_Source\PSoC4/CyLib.c ****             CY_SYS_CLK_PLL_BASE.pll[pll].config &= (uint32) ~CY_SYS_CLK_PLL_CONFIG_ISOLATE;
1553:Generated_Source\PSoC4/CyLib.c **** 
1554:Generated_Source\PSoC4/CyLib.c ****             /* Enable PLL */
1555:Generated_Source\PSoC4/CyLib.c ****             CY_SYS_CLK_PLL_BASE.pll[pll].config |= CY_SYS_CLK_PLL_CONFIG_ENABLE;
1556:Generated_Source\PSoC4/CyLib.c **** 
1557:Generated_Source\PSoC4/CyLib.c ****             CyExitCriticalSection(interruptState);
1558:Generated_Source\PSoC4/CyLib.c **** 
1559:Generated_Source\PSoC4/CyLib.c ****             /* De-isolate >= CY_SYS_CLK_PLL_MIN_STARTUP_US after PLL enabled */
1560:Generated_Source\PSoC4/CyLib.c ****             CyDelayUs(CY_SYS_CLK_PLL_MIN_STARTUP_US);
1561:Generated_Source\PSoC4/CyLib.c ****             interruptState = CyEnterCriticalSection();
1562:Generated_Source\PSoC4/CyLib.c ****             CY_SYS_CLK_PLL_BASE.pll[pll].config |= CY_SYS_CLK_PLL_CONFIG_ISOLATE;
1563:Generated_Source\PSoC4/CyLib.c ****             CyExitCriticalSection(interruptState);
1564:Generated_Source\PSoC4/CyLib.c **** 
1565:Generated_Source\PSoC4/CyLib.c ****             if(wait != 0u)
1566:Generated_Source\PSoC4/CyLib.c ****             {
1567:Generated_Source\PSoC4/CyLib.c ****                 returnStatus = CYRET_TIMEOUT;
1568:Generated_Source\PSoC4/CyLib.c **** 
1569:Generated_Source\PSoC4/CyLib.c ****                 while(0u != counts)
1570:Generated_Source\PSoC4/CyLib.c ****                 {
1571:Generated_Source\PSoC4/CyLib.c **** 
1572:Generated_Source\PSoC4/CyLib.c ****                     if(0u != CySysClkPllGetLockStatus(pll))
1573:Generated_Source\PSoC4/CyLib.c ****                     {
1574:Generated_Source\PSoC4/CyLib.c ****                         returnStatus = CYRET_SUCCESS;
1575:Generated_Source\PSoC4/CyLib.c ****                         (void) CySysClkPllGetUnlockStatus(pll);
1576:Generated_Source\PSoC4/CyLib.c ****                         break;
ARM GAS  C:\Users\theGu\AppData\Local\Temp\cce4Ss8I.s 			page 37


1577:Generated_Source\PSoC4/CyLib.c ****                     }
1578:Generated_Source\PSoC4/CyLib.c **** 
1579:Generated_Source\PSoC4/CyLib.c ****                     CyDelayUs(1u);
1580:Generated_Source\PSoC4/CyLib.c ****                     counts--;
1581:Generated_Source\PSoC4/CyLib.c ****                 }
1582:Generated_Source\PSoC4/CyLib.c ****             }
1583:Generated_Source\PSoC4/CyLib.c ****         }
1584:Generated_Source\PSoC4/CyLib.c ****         else
1585:Generated_Source\PSoC4/CyLib.c ****         {
1586:Generated_Source\PSoC4/CyLib.c ****             returnStatus = CYRET_BAD_PARAM;
1587:Generated_Source\PSoC4/CyLib.c ****         }
1588:Generated_Source\PSoC4/CyLib.c **** 
1589:Generated_Source\PSoC4/CyLib.c ****         return (returnStatus);
1590:Generated_Source\PSoC4/CyLib.c ****     }
1591:Generated_Source\PSoC4/CyLib.c **** 
1592:Generated_Source\PSoC4/CyLib.c **** 
1593:Generated_Source\PSoC4/CyLib.c ****     /*******************************************************************************
1594:Generated_Source\PSoC4/CyLib.c ****     * Function Name: CySysClkPllGetLockStatus
1595:Generated_Source\PSoC4/CyLib.c ****     ****************************************************************************//**
1596:Generated_Source\PSoC4/CyLib.c ****     *
1597:Generated_Source\PSoC4/CyLib.c ****     * Returns non-zero if the output of the specified PLL output is locked.
1598:Generated_Source\PSoC4/CyLib.c ****     *
1599:Generated_Source\PSoC4/CyLib.c ****     * This API is available only for PSoC 4200L devices.
1600:Generated_Source\PSoC4/CyLib.c ****     *
1601:Generated_Source\PSoC4/CyLib.c ****     * PLL:
1602:Generated_Source\PSoC4/CyLib.c ****     *  0   PLL#0
1603:Generated_Source\PSoC4/CyLib.c ****     *  1   PLL#1
1604:Generated_Source\PSoC4/CyLib.c ****     *
1605:Generated_Source\PSoC4/CyLib.c ****     * \return A non-zero value when the specified PLL is locked.
1606:Generated_Source\PSoC4/CyLib.c ****     *
1607:Generated_Source\PSoC4/CyLib.c ****     *******************************************************************************/
1608:Generated_Source\PSoC4/CyLib.c ****     uint32 CySysClkPllGetLockStatus(uint32 pll)
1609:Generated_Source\PSoC4/CyLib.c ****     {
1610:Generated_Source\PSoC4/CyLib.c ****         uint8  interruptState;
1611:Generated_Source\PSoC4/CyLib.c ****         uint32 returnStatus;
1612:Generated_Source\PSoC4/CyLib.c **** 
1613:Generated_Source\PSoC4/CyLib.c ****         CYASSERT(pll < CY_IP_PLL_NR);
1614:Generated_Source\PSoC4/CyLib.c **** 
1615:Generated_Source\PSoC4/CyLib.c ****         interruptState = CyEnterCriticalSection();
1616:Generated_Source\PSoC4/CyLib.c **** 
1617:Generated_Source\PSoC4/CyLib.c ****         /* PLL is locked if reported so for two consecutive read. */
1618:Generated_Source\PSoC4/CyLib.c ****         returnStatus = CY_SYS_CLK_PLL_BASE.pll[pll].status & CY_SYS_CLK_PLL_STATUS_LOCKED;
1619:Generated_Source\PSoC4/CyLib.c ****         if(0u != returnStatus)
1620:Generated_Source\PSoC4/CyLib.c ****         {
1621:Generated_Source\PSoC4/CyLib.c ****             returnStatus = CY_SYS_CLK_PLL_BASE.pll[pll].status & CY_SYS_CLK_PLL_STATUS_LOCKED;
1622:Generated_Source\PSoC4/CyLib.c ****         }
1623:Generated_Source\PSoC4/CyLib.c **** 
1624:Generated_Source\PSoC4/CyLib.c ****         CyExitCriticalSection(interruptState);
1625:Generated_Source\PSoC4/CyLib.c **** 
1626:Generated_Source\PSoC4/CyLib.c ****         return (returnStatus);
1627:Generated_Source\PSoC4/CyLib.c ****     }
1628:Generated_Source\PSoC4/CyLib.c **** 
1629:Generated_Source\PSoC4/CyLib.c ****     /*******************************************************************************
1630:Generated_Source\PSoC4/CyLib.c ****     * Function Name: CySysClkPllStop
1631:Generated_Source\PSoC4/CyLib.c ****     ****************************************************************************//**
1632:Generated_Source\PSoC4/CyLib.c ****     *
1633:Generated_Source\PSoC4/CyLib.c ****     * Disables the PLL.
ARM GAS  C:\Users\theGu\AppData\Local\Temp\cce4Ss8I.s 			page 38


1634:Generated_Source\PSoC4/CyLib.c ****     *
1635:Generated_Source\PSoC4/CyLib.c ****     * Ensures that either PLL is not the source of HFCLK before it is disabled,
1636:Generated_Source\PSoC4/CyLib.c ****     * otherwise, the CPU will halt.
1637:Generated_Source\PSoC4/CyLib.c ****     *
1638:Generated_Source\PSoC4/CyLib.c ****     * This API is available only for PSoC 4200L devices.
1639:Generated_Source\PSoC4/CyLib.c ****     *
1640:Generated_Source\PSoC4/CyLib.c ****     * PLL:
1641:Generated_Source\PSoC4/CyLib.c ****     *  0   PLL#0
1642:Generated_Source\PSoC4/CyLib.c ****     *  1   PLL#1
1643:Generated_Source\PSoC4/CyLib.c ****     *
1644:Generated_Source\PSoC4/CyLib.c ****     *******************************************************************************/
1645:Generated_Source\PSoC4/CyLib.c ****     void CySysClkPllStop(uint32 pll)
1646:Generated_Source\PSoC4/CyLib.c ****     {
1647:Generated_Source\PSoC4/CyLib.c ****         uint8  interruptState;
1648:Generated_Source\PSoC4/CyLib.c **** 
1649:Generated_Source\PSoC4/CyLib.c ****         if (pll < CY_IP_PLL_NR)
1650:Generated_Source\PSoC4/CyLib.c ****         {
1651:Generated_Source\PSoC4/CyLib.c ****             interruptState = CyEnterCriticalSection();
1652:Generated_Source\PSoC4/CyLib.c ****             CY_SYS_CLK_PLL_BASE.pll[pll].config &= (uint32) ~(CY_SYS_CLK_PLL_CONFIG_ISOLATE | CY_SY
1653:Generated_Source\PSoC4/CyLib.c ****             CyExitCriticalSection(interruptState);
1654:Generated_Source\PSoC4/CyLib.c ****         }
1655:Generated_Source\PSoC4/CyLib.c ****     }
1656:Generated_Source\PSoC4/CyLib.c **** 
1657:Generated_Source\PSoC4/CyLib.c **** 
1658:Generated_Source\PSoC4/CyLib.c ****     /*******************************************************************************
1659:Generated_Source\PSoC4/CyLib.c ****     * Function Name: CySysClkPllSetPQ
1660:Generated_Source\PSoC4/CyLib.c ****     ****************************************************************************//**
1661:Generated_Source\PSoC4/CyLib.c ****     *
1662:Generated_Source\PSoC4/CyLib.c ****     * Sets feedback (P) and reference the (Q) divider value. This API also sets the
1663:Generated_Source\PSoC4/CyLib.c ****     * programmable charge pump current value. Note that the PLL has to be disabled
1664:Generated_Source\PSoC4/CyLib.c ****     * before calling this API. If this function is called while any PLL is sourcing,
1665:Generated_Source\PSoC4/CyLib.c ****     * the SYSCLK will return an error.
1666:Generated_Source\PSoC4/CyLib.c ****     *
1667:Generated_Source\PSoC4/CyLib.c ****     * The PLL must not be the system clock source when calling this function. The
1668:Generated_Source\PSoC4/CyLib.c ****     * PLL output will glitch during this function call.
1669:Generated_Source\PSoC4/CyLib.c ****     *
1670:Generated_Source\PSoC4/CyLib.c ****     * This API is available only for PSoC 4200L devices.
1671:Generated_Source\PSoC4/CyLib.c ****     *
1672:Generated_Source\PSoC4/CyLib.c ****     * \param PLL:
1673:Generated_Source\PSoC4/CyLib.c ****     *  0   PLL#0
1674:Generated_Source\PSoC4/CyLib.c ****     *  1   PLL#1
1675:Generated_Source\PSoC4/CyLib.c ****     *
1676:Generated_Source\PSoC4/CyLib.c ****     * \param feedback The P divider. Range 4 - 259. Control bits for the feedback
1677:Generated_Source\PSoC4/CyLib.c ****     * divider.
1678:Generated_Source\PSoC4/CyLib.c ****     *
1679:Generated_Source\PSoC4/CyLib.c ****     * \param reference The Q divider. Range 1 - 64. Divide by the reference.
1680:Generated_Source\PSoC4/CyLib.c ****     *
1681:Generated_Source\PSoC4/CyLib.c ****     * \param current Charge the pump current in uA. The 2 uA for output frequencies
1682:Generated_Source\PSoC4/CyLib.c ****     * of 67 MHz or less, and 3 uA for higher output frequencies. The default
1683:Generated_Source\PSoC4/CyLib.c ****     * value is 2 uA.
1684:Generated_Source\PSoC4/CyLib.c ****     *
1685:Generated_Source\PSoC4/CyLib.c ****     * \return CYRET_SUCCESS Completed successfully.
1686:Generated_Source\PSoC4/CyLib.c ****     * \return CYRET_BAD_PARAM The parameters are out of range or the specified PLL
1687:Generated_Source\PSoC4/CyLib.c ****     * sources the system clock.
1688:Generated_Source\PSoC4/CyLib.c ****     *
1689:Generated_Source\PSoC4/CyLib.c ****     *******************************************************************************/
1690:Generated_Source\PSoC4/CyLib.c ****     cystatus CySysClkPllSetPQ(uint32 pll, uint32 feedback, uint32 reference, uint32 current)
ARM GAS  C:\Users\theGu\AppData\Local\Temp\cce4Ss8I.s 			page 39


1691:Generated_Source\PSoC4/CyLib.c ****     {
1692:Generated_Source\PSoC4/CyLib.c ****         uint32   regTmp;
1693:Generated_Source\PSoC4/CyLib.c ****         cystatus tmp;
1694:Generated_Source\PSoC4/CyLib.c ****         uint8    interruptState;
1695:Generated_Source\PSoC4/CyLib.c ****         cystatus returnStatus = CYRET_BAD_PARAM;
1696:Generated_Source\PSoC4/CyLib.c **** 
1697:Generated_Source\PSoC4/CyLib.c ****         interruptState = CyEnterCriticalSection();
1698:Generated_Source\PSoC4/CyLib.c **** 
1699:Generated_Source\PSoC4/CyLib.c ****         tmp = CySysClkPllConfigChangeAllowed(pll);
1700:Generated_Source\PSoC4/CyLib.c **** 
1701:Generated_Source\PSoC4/CyLib.c ****         if ((pll < CY_IP_PLL_NR) &&
1702:Generated_Source\PSoC4/CyLib.c ****             (feedback  >= CY_SYS_CLK_PLL_CONFIG_FEEDBACK_DIV_MIN)  && (feedback  <= CY_SYS_CLK_PLL_
1703:Generated_Source\PSoC4/CyLib.c ****             (reference >= CY_SYS_CLK_PLL_CONFIG_REFERENCE_DIV_MIN) && (reference <= CY_SYS_CLK_PLL_
1704:Generated_Source\PSoC4/CyLib.c ****             (current   >= CY_SYS_CLK_PLL_CONFIG_ICP_SEL_MIN )      && (current   <= CY_SYS_CLK_PLL_
1705:Generated_Source\PSoC4/CyLib.c ****             (CYRET_SUCCESS == tmp))
1706:Generated_Source\PSoC4/CyLib.c ****         {
1707:Generated_Source\PSoC4/CyLib.c ****             /* Set new feedback, reference and current values */
1708:Generated_Source\PSoC4/CyLib.c ****             regTmp  = CY_SYS_CLK_PLL_BASE.pll[pll].config & (uint32) ~(CY_SYS_CLK_PLL_CONFIG_FEEDBA
1709:Generated_Source\PSoC4/CyLib.c ****                                                                        CY_SYS_CLK_PLL_CONFIG_REFERE
1710:Generated_Source\PSoC4/CyLib.c ****                                                                        CY_SYS_CLK_PLL_CONFIG_ICP_SE
1711:Generated_Source\PSoC4/CyLib.c **** 
1712:Generated_Source\PSoC4/CyLib.c ****             regTmp |= ((feedback << CY_SYS_CLK_PLL_CONFIG_FEEDBACK_DIV_SHIFT) & CY_SYS_CLK_PLL_CONF
1713:Generated_Source\PSoC4/CyLib.c ****             regTmp |= (((reference - 1u) << CY_SYS_CLK_PLL_CONFIG_REFERENCE_DIV_SHIFT) & CY_SYS_CLK
1714:Generated_Source\PSoC4/CyLib.c ****             regTmp |= ((current << CY_SYS_CLK_PLL_CONFIG_ICP_SEL_SHIFT) & CY_SYS_CLK_PLL_CONFIG_ICP
1715:Generated_Source\PSoC4/CyLib.c **** 
1716:Generated_Source\PSoC4/CyLib.c ****             CY_SYS_CLK_PLL_BASE.pll[pll].config = regTmp;
1717:Generated_Source\PSoC4/CyLib.c **** 
1718:Generated_Source\PSoC4/CyLib.c ****             returnStatus = CYRET_SUCCESS;
1719:Generated_Source\PSoC4/CyLib.c ****         }
1720:Generated_Source\PSoC4/CyLib.c **** 
1721:Generated_Source\PSoC4/CyLib.c ****         CyExitCriticalSection(interruptState);
1722:Generated_Source\PSoC4/CyLib.c **** 
1723:Generated_Source\PSoC4/CyLib.c ****         return (returnStatus);
1724:Generated_Source\PSoC4/CyLib.c ****     }
1725:Generated_Source\PSoC4/CyLib.c **** 
1726:Generated_Source\PSoC4/CyLib.c **** 
1727:Generated_Source\PSoC4/CyLib.c ****     /*******************************************************************************
1728:Generated_Source\PSoC4/CyLib.c ****     * Function Name: CySysClkPllSetBypassMode
1729:Generated_Source\PSoC4/CyLib.c ****     ****************************************************************************//**
1730:Generated_Source\PSoC4/CyLib.c ****     *
1731:Generated_Source\PSoC4/CyLib.c ****     * Sets the bypass mode for the specified PLL.
1732:Generated_Source\PSoC4/CyLib.c ****     *
1733:Generated_Source\PSoC4/CyLib.c ****     * The PLL must not be the system clock source when calling this function.
1734:Generated_Source\PSoC4/CyLib.c ****     * The PLL output will glitch during this function call.
1735:Generated_Source\PSoC4/CyLib.c ****     *
1736:Generated_Source\PSoC4/CyLib.c ****     * When the PLL's reference input is higher than HFCLK frequency the device may 
1737:Generated_Source\PSoC4/CyLib.c ****     * lock due to incorrect flash wait cycle configuration and bypass switches from 
1738:Generated_Source\PSoC4/CyLib.c ****     * PLL output to the reference input. See description of 
1739:Generated_Source\PSoC4/CyLib.c ****     * CySysFlashSetWaitCycles() for more information.
1740:Generated_Source\PSoC4/CyLib.c ****     *
1741:Generated_Source\PSoC4/CyLib.c ****     * This API is available only for PSoC 4200L devices.
1742:Generated_Source\PSoC4/CyLib.c ****     *
1743:Generated_Source\PSoC4/CyLib.c ****     * \param PLL:
1744:Generated_Source\PSoC4/CyLib.c ****     *  0   PLL#0
1745:Generated_Source\PSoC4/CyLib.c ****     *  1   PLL#1
1746:Generated_Source\PSoC4/CyLib.c ****     *
1747:Generated_Source\PSoC4/CyLib.c ****     * \param bypass: The bypass mode.
ARM GAS  C:\Users\theGu\AppData\Local\Temp\cce4Ss8I.s 			page 40


1748:Generated_Source\PSoC4/CyLib.c ****     * CY_SYS_PLL_BYPASS_AUTO - Automatic usage of the lock indicator. When unlocked,
1749:Generated_Source\PSoC4/CyLib.c ****     * automatically selects PLL the reference input (bypass mode). When locked,
1750:Generated_Source\PSoC4/CyLib.c ****     * automatically selects the PLL output.
1751:Generated_Source\PSoC4/CyLib.c ****     *
1752:Generated_Source\PSoC4/CyLib.c ****     * CY_SYS_PLL_BYPASS_PLL_REF - Selects the PLL reference input (bypass mode).
1753:Generated_Source\PSoC4/CyLib.c ****     * Ignores the lock indicator.
1754:Generated_Source\PSoC4/CyLib.c ****     *
1755:Generated_Source\PSoC4/CyLib.c ****     * CY_SYS_PLL_BYPASS_PLL_OUT - Selects the PLL output.  Ignores the lock indicator.
1756:Generated_Source\PSoC4/CyLib.c ****     *
1757:Generated_Source\PSoC4/CyLib.c ****     *******************************************************************************/
1758:Generated_Source\PSoC4/CyLib.c ****     void CySysClkPllSetBypassMode(uint32 pll, uint32 bypass)
1759:Generated_Source\PSoC4/CyLib.c ****     {
1760:Generated_Source\PSoC4/CyLib.c ****         uint32 regTmp;
1761:Generated_Source\PSoC4/CyLib.c ****         uint8  interruptState;
1762:Generated_Source\PSoC4/CyLib.c **** 
1763:Generated_Source\PSoC4/CyLib.c ****         interruptState = CyEnterCriticalSection();
1764:Generated_Source\PSoC4/CyLib.c **** 
1765:Generated_Source\PSoC4/CyLib.c ****         if ((pll < CY_IP_PLL_NR) && (bypass <= CY_SYS_PLL_BYPASS_PLL_OUT))
1766:Generated_Source\PSoC4/CyLib.c ****         {
1767:Generated_Source\PSoC4/CyLib.c ****             regTmp  = CY_SYS_CLK_PLL_BASE.pll[pll].config & (uint32) ~CY_SYS_CLK_PLL_CONFIG_BYPASS_
1768:Generated_Source\PSoC4/CyLib.c ****             regTmp |=  (uint32)(bypass << CY_SYS_CLK_PLL_CONFIG_BYPASS_SEL_SHIFT);
1769:Generated_Source\PSoC4/CyLib.c ****             CY_SYS_CLK_PLL_BASE.pll[pll].config = regTmp;
1770:Generated_Source\PSoC4/CyLib.c ****         }
1771:Generated_Source\PSoC4/CyLib.c **** 
1772:Generated_Source\PSoC4/CyLib.c ****         CyExitCriticalSection(interruptState);
1773:Generated_Source\PSoC4/CyLib.c ****     }
1774:Generated_Source\PSoC4/CyLib.c **** 
1775:Generated_Source\PSoC4/CyLib.c **** 
1776:Generated_Source\PSoC4/CyLib.c ****     /*******************************************************************************
1777:Generated_Source\PSoC4/CyLib.c ****     * Function Name: CySysClkPllGetBypassMode
1778:Generated_Source\PSoC4/CyLib.c ****     ****************************************************************************//**
1779:Generated_Source\PSoC4/CyLib.c ****     *
1780:Generated_Source\PSoC4/CyLib.c ****     *  Gets the bypass mode for the specified PLL.
1781:Generated_Source\PSoC4/CyLib.c ****     *  This API is available only for PSoC 4200L devices.
1782:Generated_Source\PSoC4/CyLib.c ****     *
1783:Generated_Source\PSoC4/CyLib.c ****     *  \param PLL:
1784:Generated_Source\PSoC4/CyLib.c ****     *   0   PLL#0
1785:Generated_Source\PSoC4/CyLib.c ****     *   1   PLL#1
1786:Generated_Source\PSoC4/CyLib.c ****     *
1787:Generated_Source\PSoC4/CyLib.c ****     *  \param bypass: Bypass mode.
1788:Generated_Source\PSoC4/CyLib.c ****     *   The same as the parameter of the CySysClkPllSetBypassMode().
1789:Generated_Source\PSoC4/CyLib.c ****     *
1790:Generated_Source\PSoC4/CyLib.c ****     *******************************************************************************/
1791:Generated_Source\PSoC4/CyLib.c ****     static uint32 CySysClkPllGetBypassMode(uint32 pll)
1792:Generated_Source\PSoC4/CyLib.c ****     {
1793:Generated_Source\PSoC4/CyLib.c ****         uint32 returnValue;
1794:Generated_Source\PSoC4/CyLib.c ****         uint8  interruptState;
1795:Generated_Source\PSoC4/CyLib.c **** 
1796:Generated_Source\PSoC4/CyLib.c ****         CYASSERT(pll < CY_IP_PLL_NR);
1797:Generated_Source\PSoC4/CyLib.c **** 
1798:Generated_Source\PSoC4/CyLib.c ****         interruptState = CyEnterCriticalSection();
1799:Generated_Source\PSoC4/CyLib.c **** 
1800:Generated_Source\PSoC4/CyLib.c ****         returnValue = CY_SYS_CLK_PLL_BASE.pll[pll].config & CY_SYS_CLK_PLL_CONFIG_BYPASS_SEL_MASK;
1801:Generated_Source\PSoC4/CyLib.c ****         returnValue =  returnValue >> CY_SYS_CLK_PLL_CONFIG_BYPASS_SEL_SHIFT;
1802:Generated_Source\PSoC4/CyLib.c **** 
1803:Generated_Source\PSoC4/CyLib.c ****         CyExitCriticalSection(interruptState);
1804:Generated_Source\PSoC4/CyLib.c **** 
ARM GAS  C:\Users\theGu\AppData\Local\Temp\cce4Ss8I.s 			page 41


1805:Generated_Source\PSoC4/CyLib.c ****         return (returnValue);
1806:Generated_Source\PSoC4/CyLib.c ****     }
1807:Generated_Source\PSoC4/CyLib.c **** 
1808:Generated_Source\PSoC4/CyLib.c **** 
1809:Generated_Source\PSoC4/CyLib.c ****     /*******************************************************************************
1810:Generated_Source\PSoC4/CyLib.c ****     * Function Name: CySysClkPllConfigChangeAllowed
1811:Generated_Source\PSoC4/CyLib.c ****     ****************************************************************************//**
1812:Generated_Source\PSoC4/CyLib.c ****     *
1813:Generated_Source\PSoC4/CyLib.c ****     *  The function returns non-zero value if the specified PLL sources the System
1814:Generated_Source\PSoC4/CyLib.c ****     *  clock and the PLL is not in the bypass mode.
1815:Generated_Source\PSoC4/CyLib.c ****     *
1816:Generated_Source\PSoC4/CyLib.c ****     *  This API is available only for PSoC 4200L devices.
1817:Generated_Source\PSoC4/CyLib.c ****     *
1818:Generated_Source\PSoC4/CyLib.c ****     *  \param PLL:
1819:Generated_Source\PSoC4/CyLib.c ****     *   0   PLL#0
1820:Generated_Source\PSoC4/CyLib.c ****     *   1   PLL#1
1821:Generated_Source\PSoC4/CyLib.c ****     *
1822:Generated_Source\PSoC4/CyLib.c ****     * \return Non-zero value when the specified PLL sources the System clock and
1823:Generated_Source\PSoC4/CyLib.c ****     * the PLL is not in the bypass mode.
1824:Generated_Source\PSoC4/CyLib.c ****     *
1825:Generated_Source\PSoC4/CyLib.c ****     *******************************************************************************/
1826:Generated_Source\PSoC4/CyLib.c ****     static cystatus CySysClkPllConfigChangeAllowed(uint32 pll)
1827:Generated_Source\PSoC4/CyLib.c ****     {
 457              		.loc 1 1827 0
 458              		.cfi_startproc
 459              		@ args = 0, pretend = 0, frame = 0
 460              		@ frame_needed = 0, uses_anonymous_args = 0
 461              	.LVL14:
 462 0000 70B5     		push	{r4, r5, r6, lr}
 463              		.cfi_def_cfa_offset 16
 464              		.cfi_offset 4, -16
 465              		.cfi_offset 5, -12
 466              		.cfi_offset 6, -8
 467              		.cfi_offset 14, -4
 468              		.loc 1 1827 0
 469 0002 0400     		movs	r4, r0
1828:Generated_Source\PSoC4/CyLib.c ****         uint32   pllBypassMode;
1829:Generated_Source\PSoC4/CyLib.c ****         uint32   sysclkSource;
1830:Generated_Source\PSoC4/CyLib.c ****         cystatus returnValue = CYRET_LOCKED;
1831:Generated_Source\PSoC4/CyLib.c **** 
1832:Generated_Source\PSoC4/CyLib.c ****         sysclkSource  = CySysClkGetSysclkSource();
 470              		.loc 1 1832 0
 471 0004 FFF7FEFF 		bl	CySysClkGetSysclkSource
 472              	.LVL15:
 473 0008 0600     		movs	r6, r0
 474              	.LVL16:
 475              	.LBB14:
 476              	.LBB15:
1798:Generated_Source\PSoC4/CyLib.c **** 
 477              		.loc 1 1798 0
 478 000a FFF7FEFF 		bl	CyEnterCriticalSection
 479              	.LVL17:
1800:Generated_Source\PSoC4/CyLib.c ****         returnValue =  returnValue >> CY_SYS_CLK_PLL_CONFIG_BYPASS_SEL_SHIFT;
 480              		.loc 1 1800 0
 481 000e 0C23     		movs	r3, #12
 482 0010 6343     		muls	r3, r4
 483 0012 0C4A     		ldr	r2, .L49
ARM GAS  C:\Users\theGu\AppData\Local\Temp\cce4Ss8I.s 			page 42


 484 0014 9D58     		ldr	r5, [r3, r2]
 485              	.LVL18:
1803:Generated_Source\PSoC4/CyLib.c **** 
 486              		.loc 1 1803 0
 487 0016 FFF7FEFF 		bl	CyExitCriticalSection
 488              	.LVL19:
 489              	.LBE15:
 490              	.LBE14:
1833:Generated_Source\PSoC4/CyLib.c ****         pllBypassMode = CySysClkPllGetBypassMode(pll);
1834:Generated_Source\PSoC4/CyLib.c **** 
1835:Generated_Source\PSoC4/CyLib.c ****         if ((CY_SYS_PLL_BYPASS_PLL_REF == pllBypassMode)             ||
 491              		.loc 1 1835 0
 492 001a AD02     		lsls	r5, r5, #10
 493 001c AD0F     		lsrs	r5, r5, #30
1836:Generated_Source\PSoC4/CyLib.c ****             ((CY_SYS_CLK_HFCLK_PLL0 != sysclkSource) && (0u == pll)) ||
1837:Generated_Source\PSoC4/CyLib.c ****             ((CY_SYS_CLK_HFCLK_PLL1 != sysclkSource) && (1u == pll)))
1838:Generated_Source\PSoC4/CyLib.c ****         {
1839:Generated_Source\PSoC4/CyLib.c ****             returnValue = CYRET_SUCCESS;
 494              		.loc 1 1839 0
 495 001e 0020     		movs	r0, #0
1835:Generated_Source\PSoC4/CyLib.c ****             ((CY_SYS_CLK_HFCLK_PLL0 != sysclkSource) && (0u == pll)) ||
 496              		.loc 1 1835 0
 497 0020 022D     		cmp	r5, #2
 498 0022 0ED0     		beq	.L42
1835:Generated_Source\PSoC4/CyLib.c ****             ((CY_SYS_CLK_HFCLK_PLL0 != sysclkSource) && (0u == pll)) ||
 499              		.loc 1 1835 0 is_stmt 0 discriminator 1
 500 0024 8023     		movs	r3, #128
 501 0026 9B02     		lsls	r3, r3, #10
 502 0028 9E42     		cmp	r6, r3
 503 002a 06D0     		beq	.L43
1836:Generated_Source\PSoC4/CyLib.c ****             ((CY_SYS_CLK_HFCLK_PLL0 != sysclkSource) && (0u == pll)) ||
 504              		.loc 1 1836 0 is_stmt 1
 505 002c 8442     		cmp	r4, r0
 506 002e 08D0     		beq	.L42
1836:Generated_Source\PSoC4/CyLib.c ****             ((CY_SYS_CLK_HFCLK_PLL0 != sysclkSource) && (0u == pll)) ||
 507              		.loc 1 1836 0 is_stmt 0 discriminator 1
 508 0030 8023     		movs	r3, #128
1830:Generated_Source\PSoC4/CyLib.c **** 
 509              		.loc 1 1830 0 is_stmt 1 discriminator 1
 510 0032 0430     		adds	r0, r0, #4
1836:Generated_Source\PSoC4/CyLib.c ****             ((CY_SYS_CLK_HFCLK_PLL0 != sysclkSource) && (0u == pll)) ||
 511              		.loc 1 1836 0 discriminator 1
 512 0034 5B02     		lsls	r3, r3, #9
 513 0036 9E42     		cmp	r6, r3
 514 0038 03D0     		beq	.L42
 515              	.L43:
 516              		.loc 1 1839 0
 517 003a 601E     		subs	r0, r4, #1
 518 003c 441E     		subs	r4, r0, #1
 519 003e A041     		sbcs	r0, r0, r4
 520              	.LVL20:
 521 0040 8000     		lsls	r0, r0, #2
 522              	.L42:
 523              	.LVL21:
1840:Generated_Source\PSoC4/CyLib.c ****         }
1841:Generated_Source\PSoC4/CyLib.c **** 
1842:Generated_Source\PSoC4/CyLib.c ****         return (returnValue);
ARM GAS  C:\Users\theGu\AppData\Local\Temp\cce4Ss8I.s 			page 43


1843:Generated_Source\PSoC4/CyLib.c ****     }
 524              		.loc 1 1843 0
 525              		@ sp needed
 526              	.LVL22:
 527 0042 70BD     		pop	{r4, r5, r6, pc}
 528              	.L50:
 529              		.align	2
 530              	.L49:
 531 0044 14000C40 		.word	1074528276
 532              		.cfi_endproc
 533              	.LFE25:
 534              		.size	CySysClkPllConfigChangeAllowed, .-CySysClkPllConfigChangeAllowed
 535              		.section	.text.CySysClkWriteSysclkDiv,"ax",%progbits
 536              		.align	1
 537              		.global	CySysClkWriteSysclkDiv
 538              		.code	16
 539              		.thumb_func
 540              		.type	CySysClkWriteSysclkDiv, %function
 541              	CySysClkWriteSysclkDiv:
 542              	.LFB12:
 566:Generated_Source\PSoC4/CyLib.c ****     uint8  interruptState;
 543              		.loc 1 566 0
 544              		.cfi_startproc
 545              		@ args = 0, pretend = 0, frame = 0
 546              		@ frame_needed = 0, uses_anonymous_args = 0
 547              	.LVL23:
 548 0000 70B5     		push	{r4, r5, r6, lr}
 549              		.cfi_def_cfa_offset 16
 550              		.cfi_offset 4, -16
 551              		.cfi_offset 5, -12
 552              		.cfi_offset 6, -8
 553              		.cfi_offset 14, -4
 566:Generated_Source\PSoC4/CyLib.c ****     uint8  interruptState;
 554              		.loc 1 566 0
 555 0002 0400     		movs	r4, r0
 569:Generated_Source\PSoC4/CyLib.c **** 
 556              		.loc 1 569 0
 557 0004 FFF7FEFF 		bl	CyEnterCriticalSection
 558              	.LVL24:
 572:Generated_Source\PSoC4/CyLib.c ****                             (CY_SYS_CLK_SELECT_REG & ((uint32)(~(uint32)(CY_SYS_CLK_SELECT_SYSCLK_D
 559              		.loc 1 572 0
 560 0008 E104     		lsls	r1, r4, #19
 561 000a E024     		movs	r4, #224
 562              	.LVL25:
 573:Generated_Source\PSoC4/CyLib.c ****                                     CY_SYS_CLK_SELECT_SYSCLK_DIV_SHIFT))));
 563              		.loc 1 573 0
 564 000c 054D     		ldr	r5, .L52
 572:Generated_Source\PSoC4/CyLib.c ****                             (CY_SYS_CLK_SELECT_REG & ((uint32)(~(uint32)(CY_SYS_CLK_SELECT_SYSCLK_D
 565              		.loc 1 572 0
 566 000e A403     		lsls	r4, r4, #14
 573:Generated_Source\PSoC4/CyLib.c ****                                     CY_SYS_CLK_SELECT_SYSCLK_DIV_SHIFT))));
 567              		.loc 1 573 0
 568 0010 2B68     		ldr	r3, [r5]
 572:Generated_Source\PSoC4/CyLib.c ****                             (CY_SYS_CLK_SELECT_REG & ((uint32)(~(uint32)(CY_SYS_CLK_SELECT_SYSCLK_D
 569              		.loc 1 572 0
 570 0012 054A     		ldr	r2, .L52+4
 571 0014 2140     		ands	r1, r4
ARM GAS  C:\Users\theGu\AppData\Local\Temp\cce4Ss8I.s 			page 44


 572 0016 1A40     		ands	r2, r3
 573 0018 0B00     		movs	r3, r1
 574 001a 1343     		orrs	r3, r2
 571:Generated_Source\PSoC4/CyLib.c ****                                     CY_SYS_CLK_SELECT_SYSCLK_DIV_SHIFT)) |
 575              		.loc 1 571 0
 576 001c 2B60     		str	r3, [r5]
 576:Generated_Source\PSoC4/CyLib.c **** }
 577              		.loc 1 576 0
 578 001e FFF7FEFF 		bl	CyExitCriticalSection
 579              	.LVL26:
 577:Generated_Source\PSoC4/CyLib.c **** 
 580              		.loc 1 577 0
 581              		@ sp needed
 582 0022 70BD     		pop	{r4, r5, r6, pc}
 583              	.L53:
 584              		.align	2
 585              	.L52:
 586 0024 00010B40 		.word	1074462976
 587 0028 FFFFC7FF 		.word	-3670017
 588              		.cfi_endproc
 589              	.LFE12:
 590              		.size	CySysClkWriteSysclkDiv, .-CySysClkWriteSysclkDiv
 591              		.section	.text.CySysClkEcoStop,"ax",%progbits
 592              		.align	1
 593              		.global	CySysClkEcoStop
 594              		.code	16
 595              		.thumb_func
 596              		.type	CySysClkEcoStop, %function
 597              	CySysClkEcoStop:
 598              	.LFB15:
1170:Generated_Source\PSoC4/CyLib.c ****         #if (CY_IP_WCO_BLESS)
 599              		.loc 1 1170 0
 600              		.cfi_startproc
 601              		@ args = 0, pretend = 0, frame = 0
 602              		@ frame_needed = 0, uses_anonymous_args = 0
 603              		@ link register save eliminated.
1180:Generated_Source\PSoC4/CyLib.c ****         #endif /* (CY_IP_WCO_BLESS) */
 604              		.loc 1 1180 0
 605 0000 024A     		ldr	r2, .L55
 606 0002 034B     		ldr	r3, .L55+4
 607 0004 1168     		ldr	r1, [r2]
1182:Generated_Source\PSoC4/CyLib.c **** 
 608              		.loc 1 1182 0
 609              		@ sp needed
1180:Generated_Source\PSoC4/CyLib.c ****         #endif /* (CY_IP_WCO_BLESS) */
 610              		.loc 1 1180 0
 611 0006 0B40     		ands	r3, r1
 612 0008 1360     		str	r3, [r2]
1182:Generated_Source\PSoC4/CyLib.c **** 
 613              		.loc 1 1182 0
 614 000a 7047     		bx	lr
 615              	.L56:
 616              		.align	2
 617              	.L55:
 618 000c 08000C40 		.word	1074528264
 619 0010 FEFFFF7F 		.word	2147483646
 620              		.cfi_endproc
ARM GAS  C:\Users\theGu\AppData\Local\Temp\cce4Ss8I.s 			page 45


 621              	.LFE15:
 622              		.size	CySysClkEcoStop, .-CySysClkEcoStop
 623              		.section	.text.CySysClkEcoReadStatus,"ax",%progbits
 624              		.align	1
 625              		.global	CySysClkEcoReadStatus
 626              		.code	16
 627              		.thumb_func
 628              		.type	CySysClkEcoReadStatus, %function
 629              	CySysClkEcoReadStatus:
 630              	.LFB16:
1204:Generated_Source\PSoC4/CyLib.c ****         uint32 returnValue;
 631              		.loc 1 1204 0
 632              		.cfi_startproc
 633              		@ args = 0, pretend = 0, frame = 0
 634              		@ frame_needed = 0, uses_anonymous_args = 0
 635              		@ link register save eliminated.
 636 0000 0120     		movs	r0, #1
1217:Generated_Source\PSoC4/CyLib.c ****         #endif /* (CY_IP_WCO_BLESS) */
 637              		.loc 1 1217 0
 638 0002 024B     		ldr	r3, .L58
1221:Generated_Source\PSoC4/CyLib.c **** 
 639              		.loc 1 1221 0
 640              		@ sp needed
1217:Generated_Source\PSoC4/CyLib.c ****         #endif /* (CY_IP_WCO_BLESS) */
 641              		.loc 1 1217 0
 642 0004 1B68     		ldr	r3, [r3]
 643              	.LVL27:
 644 0006 9843     		bics	r0, r3
 645              	.LVL28:
1221:Generated_Source\PSoC4/CyLib.c **** 
 646              		.loc 1 1221 0
 647 0008 7047     		bx	lr
 648              	.L59:
 649 000a C046     		.align	2
 650              	.L58:
 651 000c 0C000C40 		.word	1074528268
 652              		.cfi_endproc
 653              	.LFE16:
 654              		.size	CySysClkEcoReadStatus, .-CySysClkEcoReadStatus
 655              		.section	.text.CySysClkConfigureEcoTrim,"ax",%progbits
 656              		.align	1
 657              		.global	CySysClkConfigureEcoTrim
 658              		.code	16
 659              		.thumb_func
 660              		.type	CySysClkConfigureEcoTrim, %function
 661              	CySysClkConfigureEcoTrim:
 662              	.LFB17:
1340:Generated_Source\PSoC4/CyLib.c ****             uint8  interruptState;
 663              		.loc 1 1340 0
 664              		.cfi_startproc
 665              		@ args = 4, pretend = 0, frame = 0
 666              		@ frame_needed = 0, uses_anonymous_args = 0
 667              	.LVL29:
 668 0000 F8B5     		push	{r3, r4, r5, r6, r7, lr}
 669              		.cfi_def_cfa_offset 24
 670              		.cfi_offset 3, -24
 671              		.cfi_offset 4, -20
ARM GAS  C:\Users\theGu\AppData\Local\Temp\cce4Ss8I.s 			page 46


 672              		.cfi_offset 5, -16
 673              		.cfi_offset 6, -12
 674              		.cfi_offset 7, -8
 675              		.cfi_offset 14, -4
1340:Generated_Source\PSoC4/CyLib.c ****             uint8  interruptState;
 676              		.loc 1 1340 0
 677 0002 1600     		movs	r6, r2
 678 0004 1C00     		movs	r4, r3
 679 0006 0F00     		movs	r7, r1
 680 0008 0500     		movs	r5, r0
1344:Generated_Source\PSoC4/CyLib.c **** 
 681              		.loc 1 1344 0
 682 000a FFF7FEFF 		bl	CyEnterCriticalSection
 683              	.LVL30:
1346:Generated_Source\PSoC4/CyLib.c ****             regTmp |= ((uint32) (wDTrim << CY_SYS_CLK_ECO_TRIM0_WDTRIM_SHIFT) & CY_SYS_CLK_ECO_TRIM
 684              		.loc 1 1346 0
 685 000e 1F22     		movs	r2, #31
 686 0010 0E49     		ldr	r1, .L61
1348:Generated_Source\PSoC4/CyLib.c ****             CY_SYS_CLK_ECO_TRIM0_REG = regTmp;
 687              		.loc 1 1348 0
 688 0012 BF00     		lsls	r7, r7, #2
 689              	.LVL31:
1346:Generated_Source\PSoC4/CyLib.c ****             regTmp |= ((uint32) (wDTrim << CY_SYS_CLK_ECO_TRIM0_WDTRIM_SHIFT) & CY_SYS_CLK_ECO_TRIM
 690              		.loc 1 1346 0
 691 0014 0B68     		ldr	r3, [r1]
1361:Generated_Source\PSoC4/CyLib.c **** 
 692              		.loc 1 1361 0
 693              		@ sp needed
1346:Generated_Source\PSoC4/CyLib.c ****             regTmp |= ((uint32) (wDTrim << CY_SYS_CLK_ECO_TRIM0_WDTRIM_SHIFT) & CY_SYS_CLK_ECO_TRIM
 694              		.loc 1 1346 0
 695 0016 9343     		bics	r3, r2
 696              	.LVL32:
1348:Generated_Source\PSoC4/CyLib.c ****             CY_SYS_CLK_ECO_TRIM0_REG = regTmp;
 697              		.loc 1 1348 0
 698 0018 033A     		subs	r2, r2, #3
 699 001a 1740     		ands	r7, r2
 700 001c 193A     		subs	r2, r2, #25
 701 001e 1540     		ands	r5, r2
 702              	.LVL33:
 703 0020 3D43     		orrs	r5, r7
 704 0022 1D43     		orrs	r5, r3
 705              	.LVL34:
1349:Generated_Source\PSoC4/CyLib.c **** 
 706              		.loc 1 1349 0
 707 0024 0D60     		str	r5, [r1]
 708 0026 0699     		ldr	r1, [sp, #24]
1351:Generated_Source\PSoC4/CyLib.c ****                                                    CY_SYS_CLK_ECO_TRIM1_RTRIM_MASK |
 709              		.loc 1 1351 0
 710 0028 094B     		ldr	r3, .L61+4
 711 002a 0F01     		lsls	r7, r1, #4
 712 002c 3021     		movs	r1, #48
 713 002e 3940     		ands	r1, r7
 714 0030 3F27     		movs	r7, #63
 715 0032 1D68     		ldr	r5, [r3]
 716              	.LVL35:
 717 0034 3240     		ands	r2, r6
 718 0036 BD43     		bics	r5, r7
ARM GAS  C:\Users\theGu\AppData\Local\Temp\cce4Ss8I.s 			page 47


 719              	.LVL36:
 720 0038 2943     		orrs	r1, r5
1356:Generated_Source\PSoC4/CyLib.c **** 
 721              		.loc 1 1356 0
 722 003a 0C25     		movs	r5, #12
 723 003c 1143     		orrs	r1, r2
 724 003e A200     		lsls	r2, r4, #2
 725 0040 2A40     		ands	r2, r5
 726 0042 0A43     		orrs	r2, r1
 727              	.LVL37:
1358:Generated_Source\PSoC4/CyLib.c **** 
 728              		.loc 1 1358 0
 729 0044 1A60     		str	r2, [r3]
1360:Generated_Source\PSoC4/CyLib.c ****         }
 730              		.loc 1 1360 0
 731 0046 FFF7FEFF 		bl	CyExitCriticalSection
 732              	.LVL38:
 733              	.LVL39:
 734              	.LVL40:
1361:Generated_Source\PSoC4/CyLib.c **** 
 735              		.loc 1 1361 0
 736 004a F8BD     		pop	{r3, r4, r5, r6, r7, pc}
 737              	.L62:
 738              		.align	2
 739              	.L61:
 740 004c 0CFF0C40 		.word	1074593548
 741 0050 10FF0C40 		.word	1074593552
 742              		.cfi_endproc
 743              	.LFE17:
 744              		.size	CySysClkConfigureEcoTrim, .-CySysClkConfigureEcoTrim
 745              		.global	__aeabi_uidiv
 746              		.section	.text.CySysClkConfigureEcoDrive,"ax",%progbits
 747              		.align	1
 748              		.global	CySysClkConfigureEcoDrive
 749              		.code	16
 750              		.thumb_func
 751              		.type	CySysClkConfigureEcoDrive, %function
 752              	CySysClkConfigureEcoDrive:
 753              	.LFB18:
1391:Generated_Source\PSoC4/CyLib.c ****             cystatus returnStatus = CYRET_SUCCESS;
 754              		.loc 1 1391 0
 755              		.cfi_startproc
 756              		@ args = 0, pretend = 0, frame = 8
 757              		@ frame_needed = 0, uses_anonymous_args = 0
 758              	.LVL41:
 759 0000 F0B5     		push	{r4, r5, r6, r7, lr}
 760              		.cfi_def_cfa_offset 20
 761              		.cfi_offset 4, -20
 762              		.cfi_offset 5, -16
 763              		.cfi_offset 6, -12
 764              		.cfi_offset 7, -8
 765              		.cfi_offset 14, -4
 766 0002 85B0     		sub	sp, sp, #20
 767              		.cfi_def_cfa_offset 40
1391:Generated_Source\PSoC4/CyLib.c ****             cystatus returnStatus = CYRET_SUCCESS;
 768              		.loc 1 1391 0
 769 0004 0392     		str	r2, [sp, #12]
ARM GAS  C:\Users\theGu\AppData\Local\Temp\cce4Ss8I.s 			page 48


1403:Generated_Source\PSoC4/CyLib.c ****                 (freq < CY_SYS_CLK_ECO_FREQ_KHZ_MIN) || (freq > CY_SYS_CLK_ECO_FREQ_KHZ_MAX))
 770              		.loc 1 1403 0
 771 0006 F422     		movs	r2, #244
 772              	.LVL42:
 773 0008 FF32     		adds	r2, r2, #255
1391:Generated_Source\PSoC4/CyLib.c ****             cystatus returnStatus = CYRET_SUCCESS;
 774              		.loc 1 1391 0
 775 000a 0600     		movs	r6, r0
 776 000c 0291     		str	r1, [sp, #8]
1406:Generated_Source\PSoC4/CyLib.c ****             }
 777              		.loc 1 1406 0
 778 000e 0127     		movs	r7, #1
1403:Generated_Source\PSoC4/CyLib.c ****                 (freq < CY_SYS_CLK_ECO_FREQ_KHZ_MIN) || (freq > CY_SYS_CLK_ECO_FREQ_KHZ_MAX))
 779              		.loc 1 1403 0
 780 0010 9342     		cmp	r3, r2
 781 0012 68D9     		bls	.L87
1403:Generated_Source\PSoC4/CyLib.c ****                 (freq < CY_SYS_CLK_ECO_FREQ_KHZ_MIN) || (freq > CY_SYS_CLK_ECO_FREQ_KHZ_MAX))
 782              		.loc 1 1403 0 is_stmt 0 discriminator 1
 783 0014 354A     		ldr	r2, .L90
 784 0016 3649     		ldr	r1, .L90+4
 785              	.LVL43:
 786 0018 8218     		adds	r2, r0, r2
 787 001a 8A42     		cmp	r2, r1
 788 001c 63D8     		bhi	.L87
 789              	.LVL44:
1413:Generated_Source\PSoC4/CyLib.c ****                 {
 790              		.loc 1 1413 0 is_stmt 1 discriminator 4
 791 001e 354A     		ldr	r2, .L90+8
 792 0020 9342     		cmp	r3, r2
 793 0022 1DD9     		bls	.L75
1417:Generated_Source\PSoC4/CyLib.c ****                 {
 794              		.loc 1 1417 0
 795 0024 344A     		ldr	r2, .L90+12
 796 0026 9342     		cmp	r3, r2
 797 0028 1CD9     		bls	.L76
1421:Generated_Source\PSoC4/CyLib.c ****                 {
 798              		.loc 1 1421 0
 799 002a 344A     		ldr	r2, .L90+16
1423:Generated_Source\PSoC4/CyLib.c ****                 }
 800              		.loc 1 1423 0
 801 002c 0224     		movs	r4, #2
1421:Generated_Source\PSoC4/CyLib.c ****                 {
 802              		.loc 1 1421 0
 803 002e 9342     		cmp	r3, r2
 804 0030 11D9     		bls	.L66
1425:Generated_Source\PSoC4/CyLib.c ****                 {
 805              		.loc 1 1425 0
 806 0032 334A     		ldr	r2, .L90+20
1427:Generated_Source\PSoC4/CyLib.c ****                 }
 807              		.loc 1 1427 0
 808 0034 E419     		adds	r4, r4, r7
1425:Generated_Source\PSoC4/CyLib.c ****                 {
 809              		.loc 1 1425 0
 810 0036 9342     		cmp	r3, r2
 811 0038 0DD9     		bls	.L66
1429:Generated_Source\PSoC4/CyLib.c ****                 {
 812              		.loc 1 1429 0
ARM GAS  C:\Users\theGu\AppData\Local\Temp\cce4Ss8I.s 			page 49


 813 003a 7D32     		adds	r2, r2, #125
1431:Generated_Source\PSoC4/CyLib.c ****                 }
 814              		.loc 1 1431 0
 815 003c E419     		adds	r4, r4, r7
1429:Generated_Source\PSoC4/CyLib.c ****                 {
 816              		.loc 1 1429 0
 817 003e 9342     		cmp	r3, r2
 818 0040 09D9     		bls	.L66
1433:Generated_Source\PSoC4/CyLib.c ****                 {
 819              		.loc 1 1433 0
 820 0042 304A     		ldr	r2, .L90+24
1435:Generated_Source\PSoC4/CyLib.c ****                 }
 821              		.loc 1 1435 0
 822 0044 E419     		adds	r4, r4, r7
1433:Generated_Source\PSoC4/CyLib.c ****                 {
 823              		.loc 1 1433 0
 824 0046 9342     		cmp	r3, r2
 825 0048 05D9     		bls	.L66
1443:Generated_Source\PSoC4/CyLib.c ****                 }
 826              		.loc 1 1443 0
 827 004a 0024     		movs	r4, #0
 828 004c 2E4A     		ldr	r2, .L90+28
 829 004e 9A42     		cmp	r2, r3
 830 0050 6441     		adcs	r4, r4, r4
 831 0052 0722     		movs	r2, #7
 832 0054 141B     		subs	r4, r2, r4
 833              	.L66:
 834              	.LVL45:
1447:Generated_Source\PSoC4/CyLib.c **** 
 835              		.loc 1 1447 0
 836 0056 2D4A     		ldr	r2, .L90+32
 837 0058 0325     		movs	r5, #3
 838 005a 9342     		cmp	r3, r2
 839 005c 08D8     		bhi	.L67
 840 005e 02E0     		b	.L65
 841              	.LVL46:
 842              	.L75:
1415:Generated_Source\PSoC4/CyLib.c ****                 }
 843              		.loc 1 1415 0
 844 0060 0024     		movs	r4, #0
 845 0062 00E0     		b	.L65
 846              	.L76:
1419:Generated_Source\PSoC4/CyLib.c ****                 }
 847              		.loc 1 1419 0
 848 0064 3C00     		movs	r4, r7
 849              	.LVL47:
 850              	.L65:
1447:Generated_Source\PSoC4/CyLib.c **** 
 851              		.loc 1 1447 0 discriminator 1
 852 0066 C821     		movs	r1, #200
 853 0068 1800     		movs	r0, r3
 854              	.LVL48:
 855 006a FFF7FEFF 		bl	__aeabi_uidiv
 856              	.LVL49:
 857 006e 851E     		subs	r5, r0, #2
 858              	.L67:
 859              	.LVL50:
ARM GAS  C:\Users\theGu\AppData\Local\Temp\cce4Ss8I.s 			page 50


1450:Generated_Source\PSoC4/CyLib.c ****                 if (gmMin > 3u)
 860              		.loc 1 1450 0 discriminator 4
 861 0070 4F20     		movs	r0, #79
 862 0072 FA21     		movs	r1, #250
 863 0074 029F     		ldr	r7, [sp, #8]
 864 0076 8900     		lsls	r1, r1, #2
 865 0078 7743     		muls	r7, r6
 866 007a 7843     		muls	r0, r7
 867 007c FFF7FEFF 		bl	__aeabi_uidiv
 868              	.LVL51:
 869 0080 FA21     		movs	r1, #250
 870 0082 0290     		str	r0, [sp, #8]
 871              	.LVL52:
 872 0084 0398     		ldr	r0, [sp, #12]
 873 0086 8900     		lsls	r1, r1, #2
 874 0088 7843     		muls	r0, r7
 875 008a FFF7FEFF 		bl	__aeabi_uidiv
 876              	.LVL53:
 877 008e 029B     		ldr	r3, [sp, #8]
 878 0090 1F49     		ldr	r1, .L90+36
 879 0092 5843     		muls	r0, r3
 880 0094 FFF7FEFF 		bl	__aeabi_uidiv
 881              	.LVL54:
1451:Generated_Source\PSoC4/CyLib.c ****                 {
 882              		.loc 1 1451 0 discriminator 4
 883 0098 0328     		cmp	r0, #3
 884 009a 05D8     		bhi	.L83
1392:Generated_Source\PSoC4/CyLib.c **** 
 885              		.loc 1 1392 0
 886 009c 0027     		movs	r7, #0
1456:Generated_Source\PSoC4/CyLib.c ****                 {
 887              		.loc 1 1456 0
 888 009e 0128     		cmp	r0, #1
 889 00a0 04D8     		bhi	.L68
 890 00a2 0123     		movs	r3, #1
 891 00a4 5840     		eors	r0, r3
 892              	.LVL55:
 893 00a6 01E0     		b	.L68
 894              	.LVL56:
 895              	.L83:
1454:Generated_Source\PSoC4/CyLib.c ****                 }
 896              		.loc 1 1454 0
 897 00a8 0020     		movs	r0, #0
 898              	.LVL57:
1453:Generated_Source\PSoC4/CyLib.c ****                     gTrim = 0u;
 899              		.loc 1 1453 0
 900 00aa 0127     		movs	r7, #1
 901              	.L68:
 902              	.LVL58:
1466:Generated_Source\PSoC4/CyLib.c ****                 {
 903              		.loc 1 1466 0
 904 00ac 194B     		ldr	r3, .L90+40
 905 00ae 9E42     		cmp	r6, r3
 906 00b0 15D8     		bhi	.L71
1470:Generated_Source\PSoC4/CyLib.c ****                 {
 907              		.loc 1 1470 0
 908 00b2 194B     		ldr	r3, .L90+44
ARM GAS  C:\Users\theGu\AppData\Local\Temp\cce4Ss8I.s 			page 51


1472:Generated_Source\PSoC4/CyLib.c ****                 }
 909              		.loc 1 1472 0
 910 00b4 0122     		movs	r2, #1
1470:Generated_Source\PSoC4/CyLib.c ****                 {
 911              		.loc 1 1470 0
 912 00b6 9E42     		cmp	r6, r3
 913 00b8 05D8     		bhi	.L69
1474:Generated_Source\PSoC4/CyLib.c ****                 {
 914              		.loc 1 1474 0
 915 00ba 184A     		ldr	r2, .L90+48
1480:Generated_Source\PSoC4/CyLib.c ****                 }
 916              		.loc 1 1480 0
 917 00bc 0323     		movs	r3, #3
 918 00be B242     		cmp	r2, r6
 919 00c0 9241     		sbcs	r2, r2, r2
 920 00c2 5242     		rsbs	r2, r2, #0
 921 00c4 9A1A     		subs	r2, r3, r2
 922              	.L69:
 923              	.LVL59:
1486:Generated_Source\PSoC4/CyLib.c **** 
 924              		.loc 1 1486 0
 925 00c6 1300     		movs	r3, r2
 926 00c8 0090     		str	r0, [sp]
 927              	.LVL60:
 928              	.L89:
 929 00ca 2100     		movs	r1, r4
 930 00cc 2800     		movs	r0, r5
 931              	.LVL61:
 932 00ce FFF7FEFF 		bl	CySysClkConfigureEcoTrim
 933              	.LVL62:
1499:Generated_Source\PSoC4/CyLib.c ****                 }
 934              		.loc 1 1499 0
 935 00d2 0221     		movs	r1, #2
 936 00d4 124A     		ldr	r2, .L90+52
 937 00d6 1368     		ldr	r3, [r2]
 938 00d8 8B43     		bics	r3, r1
 939 00da 1360     		str	r3, [r2]
 940 00dc 03E0     		b	.L87
 941              	.LVL63:
 942              	.L71:
1486:Generated_Source\PSoC4/CyLib.c **** 
 943              		.loc 1 1486 0
 944 00de 0023     		movs	r3, #0
 945 00e0 0090     		str	r0, [sp]
 946 00e2 1A00     		movs	r2, r3
 947 00e4 F1E7     		b	.L89
 948              	.LVL64:
 949              	.L87:
1504:Generated_Source\PSoC4/CyLib.c **** 
 950              		.loc 1 1504 0
 951 00e6 3800     		movs	r0, r7
 952 00e8 05B0     		add	sp, sp, #20
 953              		@ sp needed
 954              	.LVL65:
 955 00ea F0BD     		pop	{r4, r5, r6, r7, pc}
 956              	.L91:
 957              		.align	2
ARM GAS  C:\Users\theGu\AppData\Local\Temp\cce4Ss8I.s 			page 52


 958              	.L90:
 959 00ec 60F0FFFF 		.word	-4000
 960 00f0 95720000 		.word	29333
 961 00f4 57020000 		.word	599
 962 00f8 BB020000 		.word	699
 963 00fc 1F030000 		.word	799
 964 0100 83030000 		.word	899
 965 0104 7D040000 		.word	1149
 966 0108 FA040000 		.word	1274
 967 010c AF040000 		.word	1199
 968 0110 8074D21A 		.word	450000000
 969 0114 30750000 		.word	30000
 970 0118 C05D0000 		.word	24000
 971 011c 68420000 		.word	17000
 972 0120 08000C40 		.word	1074528264
 973              		.cfi_endproc
 974              	.LFE18:
 975              		.size	CySysClkConfigureEcoDrive, .-CySysClkConfigureEcoDrive
 976              		.section	.text.CySysClkPllGetLockStatus,"ax",%progbits
 977              		.align	1
 978              		.global	CySysClkPllGetLockStatus
 979              		.code	16
 980              		.thumb_func
 981              		.type	CySysClkPllGetLockStatus, %function
 982              	CySysClkPllGetLockStatus:
 983              	.LFB20:
1609:Generated_Source\PSoC4/CyLib.c ****         uint8  interruptState;
 984              		.loc 1 1609 0
 985              		.cfi_startproc
 986              		@ args = 0, pretend = 0, frame = 0
 987              		@ frame_needed = 0, uses_anonymous_args = 0
 988              	.LVL66:
 989 0000 10B5     		push	{r4, lr}
 990              		.cfi_def_cfa_offset 8
 991              		.cfi_offset 4, -8
 992              		.cfi_offset 14, -4
1609:Generated_Source\PSoC4/CyLib.c ****         uint8  interruptState;
 993              		.loc 1 1609 0
 994 0002 0400     		movs	r4, r0
1615:Generated_Source\PSoC4/CyLib.c **** 
 995              		.loc 1 1615 0
 996 0004 FFF7FEFF 		bl	CyEnterCriticalSection
 997              	.LVL67:
 998 0008 0C23     		movs	r3, #12
 999 000a 6343     		muls	r3, r4
 1000 000c 054A     		ldr	r2, .L97
 1001 000e 9B18     		adds	r3, r3, r2
1618:Generated_Source\PSoC4/CyLib.c ****         if(0u != returnStatus)
 1002              		.loc 1 1618 0
 1003 0010 0122     		movs	r2, #1
 1004 0012 5C68     		ldr	r4, [r3, #4]
 1005              	.LVL68:
 1006 0014 1440     		ands	r4, r2
 1007              	.LVL69:
1619:Generated_Source\PSoC4/CyLib.c ****         {
 1008              		.loc 1 1619 0
 1009 0016 01D0     		beq	.L93
ARM GAS  C:\Users\theGu\AppData\Local\Temp\cce4Ss8I.s 			page 53


1621:Generated_Source\PSoC4/CyLib.c ****         }
 1010              		.loc 1 1621 0
 1011 0018 5C68     		ldr	r4, [r3, #4]
 1012              	.LVL70:
 1013 001a 1440     		ands	r4, r2
 1014              	.LVL71:
 1015              	.L93:
1624:Generated_Source\PSoC4/CyLib.c **** 
 1016              		.loc 1 1624 0
 1017 001c FFF7FEFF 		bl	CyExitCriticalSection
 1018              	.LVL72:
1627:Generated_Source\PSoC4/CyLib.c **** 
 1019              		.loc 1 1627 0
 1020              		@ sp needed
 1021 0020 2000     		movs	r0, r4
 1022              	.LVL73:
 1023 0022 10BD     		pop	{r4, pc}
 1024              	.L98:
 1025              		.align	2
 1026              	.L97:
 1027 0024 14000C40 		.word	1074528276
 1028              		.cfi_endproc
 1029              	.LFE20:
 1030              		.size	CySysClkPllGetLockStatus, .-CySysClkPllGetLockStatus
 1031              		.section	.text.CySysClkPllStop,"ax",%progbits
 1032              		.align	1
 1033              		.global	CySysClkPllStop
 1034              		.code	16
 1035              		.thumb_func
 1036              		.type	CySysClkPllStop, %function
 1037              	CySysClkPllStop:
 1038              	.LFB21:
1646:Generated_Source\PSoC4/CyLib.c ****         uint8  interruptState;
 1039              		.loc 1 1646 0
 1040              		.cfi_startproc
 1041              		@ args = 0, pretend = 0, frame = 0
 1042              		@ frame_needed = 0, uses_anonymous_args = 0
 1043              	.LVL74:
 1044 0000 10B5     		push	{r4, lr}
 1045              		.cfi_def_cfa_offset 8
 1046              		.cfi_offset 4, -8
 1047              		.cfi_offset 14, -4
1646:Generated_Source\PSoC4/CyLib.c ****         uint8  interruptState;
 1048              		.loc 1 1646 0
 1049 0002 0400     		movs	r4, r0
1649:Generated_Source\PSoC4/CyLib.c ****         {
 1050              		.loc 1 1649 0
 1051 0004 0128     		cmp	r0, #1
 1052 0006 0BD8     		bhi	.L99
1651:Generated_Source\PSoC4/CyLib.c ****             CY_SYS_CLK_PLL_BASE.pll[pll].config &= (uint32) ~(CY_SYS_CLK_PLL_CONFIG_ISOLATE | CY_SY
 1053              		.loc 1 1651 0
 1054 0008 FFF7FEFF 		bl	CyEnterCriticalSection
 1055              	.LVL75:
 1056 000c 0C23     		movs	r3, #12
 1057 000e 6343     		muls	r3, r4
 1058 0010 044A     		ldr	r2, .L101
 1059 0012 9B18     		adds	r3, r3, r2
ARM GAS  C:\Users\theGu\AppData\Local\Temp\cce4Ss8I.s 			page 54


1652:Generated_Source\PSoC4/CyLib.c ****             CyExitCriticalSection(interruptState);
 1060              		.loc 1 1652 0
 1061 0014 1A68     		ldr	r2, [r3]
 1062 0016 9200     		lsls	r2, r2, #2
 1063 0018 9208     		lsrs	r2, r2, #2
 1064 001a 1A60     		str	r2, [r3]
1653:Generated_Source\PSoC4/CyLib.c ****         }
 1065              		.loc 1 1653 0
 1066 001c FFF7FEFF 		bl	CyExitCriticalSection
 1067              	.LVL76:
 1068              	.L99:
1655:Generated_Source\PSoC4/CyLib.c **** 
 1069              		.loc 1 1655 0
 1070              		@ sp needed
 1071              	.LVL77:
 1072 0020 10BD     		pop	{r4, pc}
 1073              	.L102:
 1074 0022 C046     		.align	2
 1075              	.L101:
 1076 0024 14000C40 		.word	1074528276
 1077              		.cfi_endproc
 1078              	.LFE21:
 1079              		.size	CySysClkPllStop, .-CySysClkPllStop
 1080              		.section	.text.CySysClkPllSetPQ,"ax",%progbits
 1081              		.align	1
 1082              		.global	CySysClkPllSetPQ
 1083              		.code	16
 1084              		.thumb_func
 1085              		.type	CySysClkPllSetPQ, %function
 1086              	CySysClkPllSetPQ:
 1087              	.LFB22:
1691:Generated_Source\PSoC4/CyLib.c ****         uint32   regTmp;
 1088              		.loc 1 1691 0
 1089              		.cfi_startproc
 1090              		@ args = 0, pretend = 0, frame = 8
 1091              		@ frame_needed = 0, uses_anonymous_args = 0
 1092              	.LVL78:
 1093 0000 F7B5     		push	{r0, r1, r2, r4, r5, r6, r7, lr}
 1094              		.cfi_def_cfa_offset 32
 1095              		.cfi_offset 0, -32
 1096              		.cfi_offset 1, -28
 1097              		.cfi_offset 2, -24
 1098              		.cfi_offset 4, -20
 1099              		.cfi_offset 5, -16
 1100              		.cfi_offset 6, -12
 1101              		.cfi_offset 7, -8
 1102              		.cfi_offset 14, -4
1691:Generated_Source\PSoC4/CyLib.c ****         uint32   regTmp;
 1103              		.loc 1 1691 0
 1104 0002 0500     		movs	r5, r0
 1105 0004 0F00     		movs	r7, r1
 1106 0006 0092     		str	r2, [sp]
 1107 0008 1C00     		movs	r4, r3
1697:Generated_Source\PSoC4/CyLib.c **** 
 1108              		.loc 1 1697 0
 1109 000a FFF7FEFF 		bl	CyEnterCriticalSection
 1110              	.LVL79:
ARM GAS  C:\Users\theGu\AppData\Local\Temp\cce4Ss8I.s 			page 55


1695:Generated_Source\PSoC4/CyLib.c **** 
 1111              		.loc 1 1695 0
 1112 000e 0126     		movs	r6, #1
1697:Generated_Source\PSoC4/CyLib.c **** 
 1113              		.loc 1 1697 0
 1114 0010 0190     		str	r0, [sp, #4]
 1115              	.LVL80:
1699:Generated_Source\PSoC4/CyLib.c **** 
 1116              		.loc 1 1699 0
 1117 0012 2800     		movs	r0, r5
 1118 0014 FFF7FEFF 		bl	CySysClkPllConfigChangeAllowed
 1119              	.LVL81:
1701:Generated_Source\PSoC4/CyLib.c ****             (feedback  >= CY_SYS_CLK_PLL_CONFIG_FEEDBACK_DIV_MIN)  && (feedback  <= CY_SYS_CLK_PLL_
 1120              		.loc 1 1701 0
 1121 0018 B542     		cmp	r5, r6
 1122 001a 22D8     		bhi	.L104
1701:Generated_Source\PSoC4/CyLib.c ****             (feedback  >= CY_SYS_CLK_PLL_CONFIG_FEEDBACK_DIV_MIN)  && (feedback  <= CY_SYS_CLK_PLL_
 1123              		.loc 1 1701 0 is_stmt 0 discriminator 1
 1124 001c 3B1F     		subs	r3, r7, #4
 1125 001e FF2B     		cmp	r3, #255
 1126 0020 1FD8     		bhi	.L104
1702:Generated_Source\PSoC4/CyLib.c ****             (reference >= CY_SYS_CLK_PLL_CONFIG_REFERENCE_DIV_MIN) && (reference <= CY_SYS_CLK_PLL_
 1127              		.loc 1 1702 0 is_stmt 1 discriminator 1
 1128 0022 0099     		ldr	r1, [sp]
 1129 0024 0139     		subs	r1, r1, #1
 1130 0026 3F29     		cmp	r1, #63
 1131 0028 1BD8     		bhi	.L104
1703:Generated_Source\PSoC4/CyLib.c ****             (current   >= CY_SYS_CLK_PLL_CONFIG_ICP_SEL_MIN )      && (current   <= CY_SYS_CLK_PLL_
 1132              		.loc 1 1703 0 discriminator 1
 1133 002a A31E     		subs	r3, r4, #2
 1134 002c B342     		cmp	r3, r6
 1135 002e 18D8     		bhi	.L104
1704:Generated_Source\PSoC4/CyLib.c ****             (CYRET_SUCCESS == tmp))
 1136              		.loc 1 1704 0 discriminator 1
 1137 0030 0028     		cmp	r0, #0
 1138 0032 16D1     		bne	.L104
 1139 0034 0C23     		movs	r3, #12
 1140 0036 5D43     		muls	r5, r3
 1141              	.LVL82:
 1142 0038 0C4B     		ldr	r3, .L110
 1143 003a 2204     		lsls	r2, r4, #16
 1144 003c ED18     		adds	r5, r5, r3
 1145 003e E024     		movs	r4, #224
 1146              	.LVL83:
1708:Generated_Source\PSoC4/CyLib.c ****                                                                        CY_SYS_CLK_PLL_CONFIG_REFERE
 1147              		.loc 1 1708 0
 1148 0040 2E68     		ldr	r6, [r5]
 1149              	.LVL84:
 1150 0042 E402     		lsls	r4, r4, #11
 1151 0044 3300     		movs	r3, r6
 1152 0046 1440     		ands	r4, r2
 1153 0048 094A     		ldr	r2, .L110+4
1718:Generated_Source\PSoC4/CyLib.c ****         }
 1154              		.loc 1 1718 0
 1155 004a 0600     		movs	r6, r0
 1156              	.LVL85:
 1157 004c 1340     		ands	r3, r2
ARM GAS  C:\Users\theGu\AppData\Local\Temp\cce4Ss8I.s 			page 56


 1158              	.LVL86:
 1159 004e 1C43     		orrs	r4, r3
 1160 0050 2300     		movs	r3, r4
1714:Generated_Source\PSoC4/CyLib.c **** 
 1161              		.loc 1 1714 0
 1162 0052 0C02     		lsls	r4, r1, #8
 1163 0054 FC21     		movs	r1, #252
 1164 0056 FAB2     		uxtb	r2, r7
 1165 0058 8901     		lsls	r1, r1, #6
 1166 005a 1343     		orrs	r3, r2
 1167 005c 0C40     		ands	r4, r1
 1168 005e 1C43     		orrs	r4, r3
 1169              	.LVL87:
1716:Generated_Source\PSoC4/CyLib.c **** 
 1170              		.loc 1 1716 0
 1171 0060 2C60     		str	r4, [r5]
 1172              	.LVL88:
 1173              	.L104:
1721:Generated_Source\PSoC4/CyLib.c **** 
 1174              		.loc 1 1721 0
 1175 0062 0198     		ldr	r0, [sp, #4]
 1176              	.LVL89:
 1177 0064 FFF7FEFF 		bl	CyExitCriticalSection
 1178              	.LVL90:
1724:Generated_Source\PSoC4/CyLib.c **** 
 1179              		.loc 1 1724 0
 1180              		@ sp needed
 1181 0068 3000     		movs	r0, r6
 1182              	.LVL91:
 1183              	.LVL92:
 1184 006a FEBD     		pop	{r1, r2, r3, r4, r5, r6, r7, pc}
 1185              	.L111:
 1186              		.align	2
 1187              	.L110:
 1188 006c 14000C40 		.word	1074528276
 1189 0070 00C0F8FF 		.word	-475136
 1190              		.cfi_endproc
 1191              	.LFE22:
 1192              		.size	CySysClkPllSetPQ, .-CySysClkPllSetPQ
 1193              		.section	.text.CySysClkPllSetBypassMode,"ax",%progbits
 1194              		.align	1
 1195              		.global	CySysClkPllSetBypassMode
 1196              		.code	16
 1197              		.thumb_func
 1198              		.type	CySysClkPllSetBypassMode, %function
 1199              	CySysClkPllSetBypassMode:
 1200              	.LFB23:
1759:Generated_Source\PSoC4/CyLib.c ****         uint32 regTmp;
 1201              		.loc 1 1759 0
 1202              		.cfi_startproc
 1203              		@ args = 0, pretend = 0, frame = 0
 1204              		@ frame_needed = 0, uses_anonymous_args = 0
 1205              	.LVL93:
 1206 0000 70B5     		push	{r4, r5, r6, lr}
 1207              		.cfi_def_cfa_offset 16
 1208              		.cfi_offset 4, -16
 1209              		.cfi_offset 5, -12
ARM GAS  C:\Users\theGu\AppData\Local\Temp\cce4Ss8I.s 			page 57


 1210              		.cfi_offset 6, -8
 1211              		.cfi_offset 14, -4
1759:Generated_Source\PSoC4/CyLib.c ****         uint32 regTmp;
 1212              		.loc 1 1759 0
 1213 0002 0500     		movs	r5, r0
 1214 0004 0C00     		movs	r4, r1
1763:Generated_Source\PSoC4/CyLib.c **** 
 1215              		.loc 1 1763 0
 1216 0006 FFF7FEFF 		bl	CyEnterCriticalSection
 1217              	.LVL94:
1765:Generated_Source\PSoC4/CyLib.c ****         {
 1218              		.loc 1 1765 0
 1219 000a 012D     		cmp	r5, #1
 1220 000c 0BD8     		bhi	.L113
1765:Generated_Source\PSoC4/CyLib.c ****         {
 1221              		.loc 1 1765 0 is_stmt 0 discriminator 1
 1222 000e 032C     		cmp	r4, #3
 1223 0010 09D8     		bhi	.L113
 1224 0012 0C23     		movs	r3, #12
 1225 0014 6B43     		muls	r3, r5
 1226 0016 054A     		ldr	r2, .L114
 1227 0018 9B18     		adds	r3, r3, r2
1767:Generated_Source\PSoC4/CyLib.c ****             regTmp |=  (uint32)(bypass << CY_SYS_CLK_PLL_CONFIG_BYPASS_SEL_SHIFT);
 1228              		.loc 1 1767 0 is_stmt 1
 1229 001a 1968     		ldr	r1, [r3]
 1230 001c 044A     		ldr	r2, .L114+4
 1231 001e 0A40     		ands	r2, r1
 1232              	.LVL95:
1768:Generated_Source\PSoC4/CyLib.c ****             CY_SYS_CLK_PLL_BASE.pll[pll].config = regTmp;
 1233              		.loc 1 1768 0
 1234 0020 2105     		lsls	r1, r4, #20
 1235 0022 1143     		orrs	r1, r2
 1236              	.LVL96:
1769:Generated_Source\PSoC4/CyLib.c ****         }
 1237              		.loc 1 1769 0
 1238 0024 1960     		str	r1, [r3]
 1239              	.LVL97:
 1240              	.L113:
1772:Generated_Source\PSoC4/CyLib.c ****     }
 1241              		.loc 1 1772 0
 1242 0026 FFF7FEFF 		bl	CyExitCriticalSection
 1243              	.LVL98:
1773:Generated_Source\PSoC4/CyLib.c **** 
 1244              		.loc 1 1773 0
 1245              		@ sp needed
 1246              	.LVL99:
 1247              	.LVL100:
 1248 002a 70BD     		pop	{r4, r5, r6, pc}
 1249              	.L115:
 1250              		.align	2
 1251              	.L114:
 1252 002c 14000C40 		.word	1074528276
 1253 0030 FFFFCFFF 		.word	-3145729
 1254              		.cfi_endproc
 1255              	.LFE23:
 1256              		.size	CySysClkPllSetBypassMode, .-CySysClkPllSetBypassMode
 1257              		.section	.text.CySysClkPllGetUnlockStatus,"ax",%progbits
ARM GAS  C:\Users\theGu\AppData\Local\Temp\cce4Ss8I.s 			page 58


 1258              		.align	1
 1259              		.global	CySysClkPllGetUnlockStatus
 1260              		.code	16
 1261              		.thumb_func
 1262              		.type	CySysClkPllGetUnlockStatus, %function
 1263              	CySysClkPllGetUnlockStatus:
 1264              	.LFB26:
1844:Generated_Source\PSoC4/CyLib.c **** 
1845:Generated_Source\PSoC4/CyLib.c **** 
1846:Generated_Source\PSoC4/CyLib.c ****     /*******************************************************************************
1847:Generated_Source\PSoC4/CyLib.c ****     * Function Name: CySysClkPllGetUnlockStatus
1848:Generated_Source\PSoC4/CyLib.c ****     ****************************************************************************//**
1849:Generated_Source\PSoC4/CyLib.c ****     *
1850:Generated_Source\PSoC4/CyLib.c ****     *  Returns a non-zero value if the specified PLL output was unlocked.
1851:Generated_Source\PSoC4/CyLib.c ****     *  The unlock status is an indicator that the PLL has lost a lock at least once
1852:Generated_Source\PSoC4/CyLib.c ****     *  during its operation. The unlock status is cleared once it is read using
1853:Generated_Source\PSoC4/CyLib.c ****     *  this API.
1854:Generated_Source\PSoC4/CyLib.c ****     *
1855:Generated_Source\PSoC4/CyLib.c ****     *  This API is available only for PSoC 4200L devices.
1856:Generated_Source\PSoC4/CyLib.c ****     *
1857:Generated_Source\PSoC4/CyLib.c ****     *  \param PLL:
1858:Generated_Source\PSoC4/CyLib.c ****     *   0   PLL#0
1859:Generated_Source\PSoC4/CyLib.c ****     *   1   PLL#1
1860:Generated_Source\PSoC4/CyLib.c ****     *
1861:Generated_Source\PSoC4/CyLib.c ****     * \return Non-zero value when the specified PLL was unlocked.
1862:Generated_Source\PSoC4/CyLib.c ****     *
1863:Generated_Source\PSoC4/CyLib.c ****     *******************************************************************************/
1864:Generated_Source\PSoC4/CyLib.c ****     uint32 CySysClkPllGetUnlockStatus(uint32 pll)
1865:Generated_Source\PSoC4/CyLib.c ****     {
 1265              		.loc 1 1865 0
 1266              		.cfi_startproc
 1267              		@ args = 0, pretend = 0, frame = 0
 1268              		@ frame_needed = 0, uses_anonymous_args = 0
 1269              	.LVL101:
 1270 0000 70B5     		push	{r4, r5, r6, lr}
 1271              		.cfi_def_cfa_offset 16
 1272              		.cfi_offset 4, -16
 1273              		.cfi_offset 5, -12
 1274              		.cfi_offset 6, -8
 1275              		.cfi_offset 14, -4
 1276              		.loc 1 1865 0
 1277 0002 0400     		movs	r4, r0
1866:Generated_Source\PSoC4/CyLib.c ****         uint32 returnStatus = 0u;
1867:Generated_Source\PSoC4/CyLib.c ****         uint8  interruptState;
1868:Generated_Source\PSoC4/CyLib.c **** 
1869:Generated_Source\PSoC4/CyLib.c ****         interruptState = CyEnterCriticalSection();
 1278              		.loc 1 1869 0
 1279 0004 FFF7FEFF 		bl	CyEnterCriticalSection
 1280              	.LVL102:
1870:Generated_Source\PSoC4/CyLib.c **** 
1871:Generated_Source\PSoC4/CyLib.c ****         returnStatus = CY_SYS_CLK_PLL_BASE.pll[pll].test & CY_SYS_CLK_PLL_TEST_UNLOCK_OCCURRED_MASK
 1281              		.loc 1 1871 0
 1282 0008 0C23     		movs	r3, #12
 1283 000a 6343     		muls	r3, r4
1872:Generated_Source\PSoC4/CyLib.c ****         CY_SYS_CLK_PLL_BASE.pll[pll].test |= CY_SYS_CLK_PLL_TEST_UNLOCK_OCCURRED_MASK;
 1284              		.loc 1 1872 0
 1285 000c 1024     		movs	r4, #16
ARM GAS  C:\Users\theGu\AppData\Local\Temp\cce4Ss8I.s 			page 59


 1286              	.LVL103:
1871:Generated_Source\PSoC4/CyLib.c ****         CY_SYS_CLK_PLL_BASE.pll[pll].test |= CY_SYS_CLK_PLL_TEST_UNLOCK_OCCURRED_MASK;
 1287              		.loc 1 1871 0
 1288 000e 054A     		ldr	r2, .L117
1873:Generated_Source\PSoC4/CyLib.c **** 
1874:Generated_Source\PSoC4/CyLib.c ****         CyExitCriticalSection(interruptState);
1875:Generated_Source\PSoC4/CyLib.c **** 
1876:Generated_Source\PSoC4/CyLib.c ****         return (returnStatus);
1877:Generated_Source\PSoC4/CyLib.c ****     }
 1289              		.loc 1 1877 0
 1290              		@ sp needed
1871:Generated_Source\PSoC4/CyLib.c ****         CY_SYS_CLK_PLL_BASE.pll[pll].test |= CY_SYS_CLK_PLL_TEST_UNLOCK_OCCURRED_MASK;
 1291              		.loc 1 1871 0
 1292 0010 9B18     		adds	r3, r3, r2
 1293 0012 9D68     		ldr	r5, [r3, #8]
 1294              	.LVL104:
1872:Generated_Source\PSoC4/CyLib.c **** 
 1295              		.loc 1 1872 0
 1296 0014 9A68     		ldr	r2, [r3, #8]
 1297 0016 2243     		orrs	r2, r4
 1298 0018 9A60     		str	r2, [r3, #8]
1874:Generated_Source\PSoC4/CyLib.c **** 
 1299              		.loc 1 1874 0
 1300 001a FFF7FEFF 		bl	CyExitCriticalSection
 1301              	.LVL105:
1876:Generated_Source\PSoC4/CyLib.c ****     }
 1302              		.loc 1 1876 0
 1303 001e 2800     		movs	r0, r5
 1304 0020 2040     		ands	r0, r4
 1305              	.LVL106:
 1306              		.loc 1 1877 0
 1307 0022 70BD     		pop	{r4, r5, r6, pc}
 1308              	.L118:
 1309              		.align	2
 1310              	.L117:
 1311 0024 14000C40 		.word	1074528276
 1312              		.cfi_endproc
 1313              	.LFE26:
 1314              		.size	CySysClkPllGetUnlockStatus, .-CySysClkPllGetUnlockStatus
 1315              		.section	.text.CySysClkPllSetSource,"ax",%progbits
 1316              		.align	1
 1317              		.global	CySysClkPllSetSource
 1318              		.code	16
 1319              		.thumb_func
 1320              		.type	CySysClkPllSetSource, %function
 1321              	CySysClkPllSetSource:
 1322              	.LFB28:
1878:Generated_Source\PSoC4/CyLib.c **** 
1879:Generated_Source\PSoC4/CyLib.c **** 
1880:Generated_Source\PSoC4/CyLib.c ****     /*******************************************************************************
1881:Generated_Source\PSoC4/CyLib.c ****     * Function Name: CySysClkPllSetFrequency
1882:Generated_Source\PSoC4/CyLib.c ****     ****************************************************************************//**
1883:Generated_Source\PSoC4/CyLib.c ****     *
1884:Generated_Source\PSoC4/CyLib.c ****     * Configures either PLL#0 or PLL#1 for the requested input/output frequencies.
1885:Generated_Source\PSoC4/CyLib.c ****     * The input frequency is the frequency of the source to the PLL. The source is
1886:Generated_Source\PSoC4/CyLib.c ****     * set using the CySysClkPllSetSource() function.
1887:Generated_Source\PSoC4/CyLib.c ****     *
ARM GAS  C:\Users\theGu\AppData\Local\Temp\cce4Ss8I.s 			page 60


1888:Generated_Source\PSoC4/CyLib.c ****     * The PLL must not be the system clock source when calling this function. The
1889:Generated_Source\PSoC4/CyLib.c ****     * PLL output will glitch during this function call.
1890:Generated_Source\PSoC4/CyLib.c ****     *
1891:Generated_Source\PSoC4/CyLib.c ****     * This API is available only for PSoC 4200L devices.
1892:Generated_Source\PSoC4/CyLib.c ****     *
1893:Generated_Source\PSoC4/CyLib.c ****     * \param pll:
1894:Generated_Source\PSoC4/CyLib.c ****     *  0   PLL#0
1895:Generated_Source\PSoC4/CyLib.c ****     *  1   PLL#1
1896:Generated_Source\PSoC4/CyLib.c ****     *
1897:Generated_Source\PSoC4/CyLib.c ****     * \param inputFreq The reference frequency in KHz. The valid range is from 1000 to 49152 KHz.
1898:Generated_Source\PSoC4/CyLib.c ****     *
1899:Generated_Source\PSoC4/CyLib.c ****     * \param pllFreq The target frequency in KHz. The valid range is from 22500 to 49152 KHz.
1900:Generated_Source\PSoC4/CyLib.c ****     *
1901:Generated_Source\PSoC4/CyLib.c ****     * \param divider The output clock divider for the PLL:
1902:Generated_Source\PSoC4/CyLib.c ****     * CY_SYS_PLL_OUTPUT_DIVPASS    Pass Through
1903:Generated_Source\PSoC4/CyLib.c ****     * CY_SYS_PLL_OUTPUT_DIV2       Divide by 2
1904:Generated_Source\PSoC4/CyLib.c ****     * CY_SYS_PLL_OUTPUT_DIV4       Divide by 4
1905:Generated_Source\PSoC4/CyLib.c ****     * CY_SYS_PLL_OUTPUT_DIV8       Divide by 8
1906:Generated_Source\PSoC4/CyLib.c ****     *
1907:Generated_Source\PSoC4/CyLib.c ****     * \param freqTol The tolerance in ppm, 10 ppm is equal to 0.001%.
1908:Generated_Source\PSoC4/CyLib.c ****     *
1909:Generated_Source\PSoC4/CyLib.c ****     * \return CYRET_SUCCESS The PLL was successfully configured for the requested
1910:Generated_Source\PSoC4/CyLib.c ****     * frequency.
1911:Generated_Source\PSoC4/CyLib.c ****     *
1912:Generated_Source\PSoC4/CyLib.c ****     * \return CYRET_BAD_PARAM The PLL was not able to successfully configure for the
1913:Generated_Source\PSoC4/CyLib.c ****     * requested frequency.
1914:Generated_Source\PSoC4/CyLib.c ****     *
1915:Generated_Source\PSoC4/CyLib.c ****     *******************************************************************************/
1916:Generated_Source\PSoC4/CyLib.c ****     cystatus CySysClkPllSetFrequency(uint32 pll, uint32 inputFreq, uint32 pllFreq, uint32 divider, 
1917:Generated_Source\PSoC4/CyLib.c ****     {
1918:Generated_Source\PSoC4/CyLib.c ****         uint32 qMin;
1919:Generated_Source\PSoC4/CyLib.c ****         uint32 qMax;
1920:Generated_Source\PSoC4/CyLib.c **** 
1921:Generated_Source\PSoC4/CyLib.c ****         uint32 qVal = CY_SYS_CLK_PLL_INVALID;
1922:Generated_Source\PSoC4/CyLib.c ****         uint32 pVal = CY_SYS_CLK_PLL_INVALID;
1923:Generated_Source\PSoC4/CyLib.c **** 
1924:Generated_Source\PSoC4/CyLib.c ****         uint32 q;
1925:Generated_Source\PSoC4/CyLib.c ****         uint32 p;
1926:Generated_Source\PSoC4/CyLib.c **** 
1927:Generated_Source\PSoC4/CyLib.c ****         uint32 fvco;
1928:Generated_Source\PSoC4/CyLib.c ****         int32 ferr;
1929:Generated_Source\PSoC4/CyLib.c **** 
1930:Generated_Source\PSoC4/CyLib.c ****         cystatus tmp;
1931:Generated_Source\PSoC4/CyLib.c ****         cystatus returnStatus = CYRET_BAD_PARAM;
1932:Generated_Source\PSoC4/CyLib.c **** 
1933:Generated_Source\PSoC4/CyLib.c **** 
1934:Generated_Source\PSoC4/CyLib.c ****         tmp = CySysClkPllConfigChangeAllowed(pll);
1935:Generated_Source\PSoC4/CyLib.c **** 
1936:Generated_Source\PSoC4/CyLib.c ****         if ((pll < CY_IP_PLL_NR) &&
1937:Generated_Source\PSoC4/CyLib.c ****             (inputFreq  >= CY_SYS_CLK_PLL_INPUT_FREQ_MIN )  && (inputFreq  <= CY_SYS_CLK_PLL_INPUT_
1938:Generated_Source\PSoC4/CyLib.c ****             (pllFreq >= CY_SYS_CLK_PLL_OUTPUT_FREQ_MIN ) && (pllFreq <= CY_SYS_CLK_PLL_OUTPUT_FREQ_
1939:Generated_Source\PSoC4/CyLib.c ****             (divider <= CY_SYS_PLL_OUTPUT_DIV8) &&
1940:Generated_Source\PSoC4/CyLib.c ****             (CYRET_SUCCESS == tmp))
1941:Generated_Source\PSoC4/CyLib.c ****         {
1942:Generated_Source\PSoC4/CyLib.c **** 
1943:Generated_Source\PSoC4/CyLib.c ****             /* Minimum feed forward loop divisor */
1944:Generated_Source\PSoC4/CyLib.c ****             qMin = (inputFreq + (CY_SYS_CLK_PLL_FPFDMAX - 1u)) / CY_SYS_CLK_PLL_FPFDMAX;
ARM GAS  C:\Users\theGu\AppData\Local\Temp\cce4Ss8I.s 			page 61


1945:Generated_Source\PSoC4/CyLib.c ****             qMin = (qMin < CY_SYS_CLK_PLL_QMINIP) ? CY_SYS_CLK_PLL_QMINIP : qMin;
1946:Generated_Source\PSoC4/CyLib.c **** 
1947:Generated_Source\PSoC4/CyLib.c ****             /* Maximum feed forward loop divisor */
1948:Generated_Source\PSoC4/CyLib.c ****             qMax = inputFreq / CY_SYS_CLK_PLL_FPFDMIN;
1949:Generated_Source\PSoC4/CyLib.c ****             qMax = (qMax > CY_SYS_CLK_PLL_QMAXIP) ? CY_SYS_CLK_PLL_QMAXIP : qMax;
1950:Generated_Source\PSoC4/CyLib.c **** 
1951:Generated_Source\PSoC4/CyLib.c ****             if (qMin <= qMax)
1952:Generated_Source\PSoC4/CyLib.c ****             {
1953:Generated_Source\PSoC4/CyLib.c ****                 for(q = qMin; q <= qMax; q++)
1954:Generated_Source\PSoC4/CyLib.c ****                 {
1955:Generated_Source\PSoC4/CyLib.c ****                     /* Solve for the feedback divisor value */
1956:Generated_Source\PSoC4/CyLib.c **** 
1957:Generated_Source\PSoC4/CyLib.c ****                     /* INT((pllFreq * q ) / inputFreq), where INT is normal rounding  */
1958:Generated_Source\PSoC4/CyLib.c ****                     p = ((pllFreq * q) + (inputFreq / 2u)) / inputFreq;
1959:Generated_Source\PSoC4/CyLib.c **** 
1960:Generated_Source\PSoC4/CyLib.c ****                     /* Calculate the actual VCO frequency (FVCO) */
1961:Generated_Source\PSoC4/CyLib.c ****                     fvco = ((inputFreq * p) / q);
1962:Generated_Source\PSoC4/CyLib.c **** 
1963:Generated_Source\PSoC4/CyLib.c ****                     /* Calculate the frequency error (FERR) */
1964:Generated_Source\PSoC4/CyLib.c ****                     ferr = ((1000000 * ((int32) fvco - (int32) pllFreq))/ (int32) pllFreq);
1965:Generated_Source\PSoC4/CyLib.c **** 
1966:Generated_Source\PSoC4/CyLib.c ****                     /* Bound check the frequency error and decide next action */
1967:Generated_Source\PSoC4/CyLib.c ****                     if ((( -1 * (int32) freqTol) <= ferr) && (ferr <= (int32) freqTol))
1968:Generated_Source\PSoC4/CyLib.c ****                     {
1969:Generated_Source\PSoC4/CyLib.c ****                         qVal = q;
1970:Generated_Source\PSoC4/CyLib.c ****                         pVal = p;
1971:Generated_Source\PSoC4/CyLib.c ****                         break;
1972:Generated_Source\PSoC4/CyLib.c ****                     }
1973:Generated_Source\PSoC4/CyLib.c ****                 }
1974:Generated_Source\PSoC4/CyLib.c **** 
1975:Generated_Source\PSoC4/CyLib.c **** 
1976:Generated_Source\PSoC4/CyLib.c ****                 if ((pVal != CY_SYS_CLK_PLL_INVALID) && (qVal != CY_SYS_CLK_PLL_INVALID))
1977:Generated_Source\PSoC4/CyLib.c ****                 {
1978:Generated_Source\PSoC4/CyLib.c ****                     if (CySysClkPllSetPQ(pll, pVal, qVal, CY_SYS_CLK_PLL_CURRENT_DEFAULT) == CYRET_
1979:Generated_Source\PSoC4/CyLib.c ****                     {
1980:Generated_Source\PSoC4/CyLib.c ****                         returnStatus = CySysClkPllSetOutputDivider(pll, divider);
1981:Generated_Source\PSoC4/CyLib.c ****                     }
1982:Generated_Source\PSoC4/CyLib.c ****                 }
1983:Generated_Source\PSoC4/CyLib.c ****             }
1984:Generated_Source\PSoC4/CyLib.c **** 
1985:Generated_Source\PSoC4/CyLib.c ****         }
1986:Generated_Source\PSoC4/CyLib.c **** 
1987:Generated_Source\PSoC4/CyLib.c ****         return (returnStatus);
1988:Generated_Source\PSoC4/CyLib.c ****     }
1989:Generated_Source\PSoC4/CyLib.c **** 
1990:Generated_Source\PSoC4/CyLib.c **** 
1991:Generated_Source\PSoC4/CyLib.c ****     /*******************************************************************************
1992:Generated_Source\PSoC4/CyLib.c ****     * Function Name: CySysClkPllSetSource
1993:Generated_Source\PSoC4/CyLib.c ****     ****************************************************************************//**
1994:Generated_Source\PSoC4/CyLib.c ****     *
1995:Generated_Source\PSoC4/CyLib.c ****     *  Sets the input clock source to the PLL. The PLL must be disabled before
1996:Generated_Source\PSoC4/CyLib.c ****     *  calling this function.
1997:Generated_Source\PSoC4/CyLib.c ****     *
1998:Generated_Source\PSoC4/CyLib.c ****     *  This API is available only for PSoC 4200L devices.
1999:Generated_Source\PSoC4/CyLib.c ****     *
2000:Generated_Source\PSoC4/CyLib.c ****     *  \param PLL:
2001:Generated_Source\PSoC4/CyLib.c ****     *  0   PLL#0
ARM GAS  C:\Users\theGu\AppData\Local\Temp\cce4Ss8I.s 			page 62


2002:Generated_Source\PSoC4/CyLib.c ****     *  1   PLL#1
2003:Generated_Source\PSoC4/CyLib.c ****     *
2004:Generated_Source\PSoC4/CyLib.c ****     * \param source:
2005:Generated_Source\PSoC4/CyLib.c ****     *  CY_SYS_PLL_SOURCE_IMO        IMO
2006:Generated_Source\PSoC4/CyLib.c ****     *  CY_SYS_PLL_SOURCE_EXTCLK     External Clock
2007:Generated_Source\PSoC4/CyLib.c ****     *  CY_SYS_PLL_SOURCE_ECO        ECO
2008:Generated_Source\PSoC4/CyLib.c ****     *  CY_SYS_PLL_SOURCE_DSI0       DSI_OUT[0]
2009:Generated_Source\PSoC4/CyLib.c ****     *  CY_SYS_PLL_SOURCE_DSI1       DSI_OUT[1]
2010:Generated_Source\PSoC4/CyLib.c ****     *  CY_SYS_PLL_SOURCE_DSI2       DSI_OUT[2]
2011:Generated_Source\PSoC4/CyLib.c ****     *  CY_SYS_PLL_SOURCE_DSI3       DSI_OUT[3]
2012:Generated_Source\PSoC4/CyLib.c ****     *
2013:Generated_Source\PSoC4/CyLib.c ****     *******************************************************************************/
2014:Generated_Source\PSoC4/CyLib.c ****     void CySysClkPllSetSource(uint32 pll, uint32 source)
2015:Generated_Source\PSoC4/CyLib.c ****     {
 1323              		.loc 1 2015 0
 1324              		.cfi_startproc
 1325              		@ args = 0, pretend = 0, frame = 0
 1326              		@ frame_needed = 0, uses_anonymous_args = 0
 1327              	.LVL107:
 1328 0000 70B5     		push	{r4, r5, r6, lr}
 1329              		.cfi_def_cfa_offset 16
 1330              		.cfi_offset 4, -16
 1331              		.cfi_offset 5, -12
 1332              		.cfi_offset 6, -8
 1333              		.cfi_offset 14, -4
 1334              		.loc 1 2015 0
 1335 0002 0500     		movs	r5, r0
 1336 0004 0C00     		movs	r4, r1
2016:Generated_Source\PSoC4/CyLib.c ****         uint32 regTmp;
2017:Generated_Source\PSoC4/CyLib.c ****         uint8  interruptState;
2018:Generated_Source\PSoC4/CyLib.c **** 
2019:Generated_Source\PSoC4/CyLib.c ****         interruptState = CyEnterCriticalSection();
 1337              		.loc 1 2019 0
 1338 0006 FFF7FEFF 		bl	CyEnterCriticalSection
 1339              	.LVL108:
2020:Generated_Source\PSoC4/CyLib.c **** 
2021:Generated_Source\PSoC4/CyLib.c ****         if (pll < CY_IP_PLL_NR)
 1340              		.loc 1 2021 0
 1341 000a 012D     		cmp	r5, #1
 1342 000c 0CD8     		bhi	.L120
2022:Generated_Source\PSoC4/CyLib.c ****         {
2023:Generated_Source\PSoC4/CyLib.c ****             regTmp = CY_SYS_CLK_SELECT_REG & (uint32) ~CY_SYS_CLK_SELECT_PLL_MASK(pll);
 1343              		.loc 1 2023 0
 1344 000e 0323     		movs	r3, #3
 1345 0010 0135     		adds	r5, r5, #1
 1346              	.LVL109:
 1347 0012 5D43     		muls	r5, r3
 1348              	.LVL110:
2024:Generated_Source\PSoC4/CyLib.c ****             regTmp |= ((source << CY_SYS_CLK_SELECT_PLL_SHIFT(pll)) & CY_SYS_CLK_SELECT_PLL_MASK(pl
 1349              		.loc 1 2024 0
 1350 0014 AC40     		lsls	r4, r4, r5
 1351              	.LVL111:
 1352 0016 2300     		movs	r3, r4
 1353 0018 0724     		movs	r4, #7
 1354 001a AC40     		lsls	r4, r4, r5
2023:Generated_Source\PSoC4/CyLib.c ****             regTmp |= ((source << CY_SYS_CLK_SELECT_PLL_SHIFT(pll)) & CY_SYS_CLK_SELECT_PLL_MASK(pl
 1355              		.loc 1 2023 0
ARM GAS  C:\Users\theGu\AppData\Local\Temp\cce4Ss8I.s 			page 63


 1356 001c 0449     		ldr	r1, .L121
 1357 001e 0A68     		ldr	r2, [r1]
 1358              	.LVL112:
 1359              		.loc 1 2024 0
 1360 0020 5340     		eors	r3, r2
 1361 0022 1C40     		ands	r4, r3
 1362 0024 5440     		eors	r4, r2
 1363              	.LVL113:
2025:Generated_Source\PSoC4/CyLib.c ****             CY_SYS_CLK_SELECT_REG = regTmp;
 1364              		.loc 1 2025 0
 1365 0026 0C60     		str	r4, [r1]
 1366              	.LVL114:
 1367              	.L120:
2026:Generated_Source\PSoC4/CyLib.c ****         }
2027:Generated_Source\PSoC4/CyLib.c **** 
2028:Generated_Source\PSoC4/CyLib.c ****         CyExitCriticalSection(interruptState);
 1368              		.loc 1 2028 0
 1369 0028 FFF7FEFF 		bl	CyExitCriticalSection
 1370              	.LVL115:
2029:Generated_Source\PSoC4/CyLib.c ****     }
 1371              		.loc 1 2029 0
 1372              		@ sp needed
 1373 002c 70BD     		pop	{r4, r5, r6, pc}
 1374              	.L122:
 1375 002e C046     		.align	2
 1376              	.L121:
 1377 0030 00010B40 		.word	1074462976
 1378              		.cfi_endproc
 1379              	.LFE28:
 1380              		.size	CySysClkPllSetSource, .-CySysClkPllSetSource
 1381              		.section	.text.CySysClkPllSetOutputDivider,"ax",%progbits
 1382              		.align	1
 1383              		.global	CySysClkPllSetOutputDivider
 1384              		.code	16
 1385              		.thumb_func
 1386              		.type	CySysClkPllSetOutputDivider, %function
 1387              	CySysClkPllSetOutputDivider:
 1388              	.LFB29:
2030:Generated_Source\PSoC4/CyLib.c **** 
2031:Generated_Source\PSoC4/CyLib.c **** 
2032:Generated_Source\PSoC4/CyLib.c ****     /*******************************************************************************
2033:Generated_Source\PSoC4/CyLib.c ****     * Function Name: CySysClkPllSetOutputDivider
2034:Generated_Source\PSoC4/CyLib.c ****     ****************************************************************************//**
2035:Generated_Source\PSoC4/CyLib.c ****     *
2036:Generated_Source\PSoC4/CyLib.c ****     *  Sets the output clock divider for the PLL.
2037:Generated_Source\PSoC4/CyLib.c ****     *
2038:Generated_Source\PSoC4/CyLib.c ****     *  The PLL must not be the System Clock source when calling this function. The
2039:Generated_Source\PSoC4/CyLib.c ****     *  PLL output will glitch during this function call.
2040:Generated_Source\PSoC4/CyLib.c ****     *
2041:Generated_Source\PSoC4/CyLib.c ****     *  This API is available only for PSoC 4200L devices.
2042:Generated_Source\PSoC4/CyLib.c ****     *
2043:Generated_Source\PSoC4/CyLib.c ****     *  \param PLL:
2044:Generated_Source\PSoC4/CyLib.c ****     *   0   PLL#0
2045:Generated_Source\PSoC4/CyLib.c ****     *   1   PLL#1
2046:Generated_Source\PSoC4/CyLib.c ****     *
2047:Generated_Source\PSoC4/CyLib.c ****     * \param divider:
2048:Generated_Source\PSoC4/CyLib.c ****     *  CY_SYS_PLL_OUTPUT_DIVPASS    Pass through
ARM GAS  C:\Users\theGu\AppData\Local\Temp\cce4Ss8I.s 			page 64


2049:Generated_Source\PSoC4/CyLib.c ****     *  CY_SYS_PLL_OUTPUT_DIV2       Divide by 2
2050:Generated_Source\PSoC4/CyLib.c ****     *  CY_SYS_PLL_OUTPUT_DIV4       Divide by 4
2051:Generated_Source\PSoC4/CyLib.c ****     *  CY_SYS_PLL_OUTPUT_DIV8       Divide by 8
2052:Generated_Source\PSoC4/CyLib.c ****     *
2053:Generated_Source\PSoC4/CyLib.c ****     * \return \ref CYRET_SUCCESS    Completed successfully.
2054:Generated_Source\PSoC4/CyLib.c ****     * \return \ref CYRET_BAD_PARAM  The parameters are out of range or the
2055:Generated_Source\PSoC4/CyLib.c ****     * specified PLL sources the System clock.
2056:Generated_Source\PSoC4/CyLib.c ****     *
2057:Generated_Source\PSoC4/CyLib.c ****     *******************************************************************************/
2058:Generated_Source\PSoC4/CyLib.c ****     cystatus CySysClkPllSetOutputDivider(uint32 pll, uint32 divider)
2059:Generated_Source\PSoC4/CyLib.c ****     {
 1389              		.loc 1 2059 0
 1390              		.cfi_startproc
 1391              		@ args = 0, pretend = 0, frame = 0
 1392              		@ frame_needed = 0, uses_anonymous_args = 0
 1393              	.LVL116:
 1394 0000 F8B5     		push	{r3, r4, r5, r6, r7, lr}
 1395              		.cfi_def_cfa_offset 24
 1396              		.cfi_offset 3, -24
 1397              		.cfi_offset 4, -20
 1398              		.cfi_offset 5, -16
 1399              		.cfi_offset 6, -12
 1400              		.cfi_offset 7, -8
 1401              		.cfi_offset 14, -4
 1402              		.loc 1 2059 0
 1403 0002 0600     		movs	r6, r0
 1404 0004 0C00     		movs	r4, r1
2060:Generated_Source\PSoC4/CyLib.c ****         uint32   tmpReg;
2061:Generated_Source\PSoC4/CyLib.c ****         uint8    interruptState;
2062:Generated_Source\PSoC4/CyLib.c ****         cystatus returnStatus = CYRET_BAD_PARAM;
2063:Generated_Source\PSoC4/CyLib.c ****         cystatus tmp;
2064:Generated_Source\PSoC4/CyLib.c **** 
2065:Generated_Source\PSoC4/CyLib.c **** 
2066:Generated_Source\PSoC4/CyLib.c ****         interruptState = CyEnterCriticalSection();
 1405              		.loc 1 2066 0
 1406 0006 FFF7FEFF 		bl	CyEnterCriticalSection
 1407              	.LVL117:
2062:Generated_Source\PSoC4/CyLib.c ****         cystatus tmp;
 1408              		.loc 1 2062 0
 1409 000a 0127     		movs	r7, #1
 1410              		.loc 1 2066 0
 1411 000c 0500     		movs	r5, r0
 1412              	.LVL118:
2067:Generated_Source\PSoC4/CyLib.c **** 
2068:Generated_Source\PSoC4/CyLib.c ****         tmp = CySysClkPllConfigChangeAllowed(pll);
 1413              		.loc 1 2068 0
 1414 000e 3000     		movs	r0, r6
 1415 0010 FFF7FEFF 		bl	CySysClkPllConfigChangeAllowed
 1416              	.LVL119:
2069:Generated_Source\PSoC4/CyLib.c **** 
2070:Generated_Source\PSoC4/CyLib.c ****         if ((pll < CY_IP_PLL_NR) && (CYRET_SUCCESS == tmp) && (divider <= CY_SYS_PLL_OUTPUT_DIV8))
 1417              		.loc 1 2070 0
 1418 0014 BE42     		cmp	r6, r7
 1419 0016 0ED8     		bhi	.L124
 1420              		.loc 1 2070 0 is_stmt 0 discriminator 1
 1421 0018 0028     		cmp	r0, #0
 1422 001a 0CD1     		bne	.L124
ARM GAS  C:\Users\theGu\AppData\Local\Temp\cce4Ss8I.s 			page 65


 1423              		.loc 1 2070 0 discriminator 2
 1424 001c 032C     		cmp	r4, #3
 1425 001e 0AD8     		bhi	.L124
 1426 0020 0C23     		movs	r3, #12
2071:Generated_Source\PSoC4/CyLib.c ****         {
2072:Generated_Source\PSoC4/CyLib.c ****             tmpReg  = CY_SYS_CLK_PLL_BASE.pll[pll].config & (uint32) ~(CY_SYS_CLK_PLL_CONFIG_OUTPUT
2073:Generated_Source\PSoC4/CyLib.c ****             tmpReg |= ((divider << CY_SYS_CLK_PLL_CONFIG_OUTPUT_DIV_SHIFT) & CY_SYS_CLK_PLL_CONFIG_
2074:Generated_Source\PSoC4/CyLib.c **** 
2075:Generated_Source\PSoC4/CyLib.c ****             CY_SYS_CLK_PLL_BASE.pll[pll].config = tmpReg;
2076:Generated_Source\PSoC4/CyLib.c **** 
2077:Generated_Source\PSoC4/CyLib.c ****             returnStatus = CYRET_SUCCESS;
 1427              		.loc 1 2077 0 is_stmt 1
 1428 0022 0700     		movs	r7, r0
 1429 0024 7343     		muls	r3, r6
 1430 0026 064A     		ldr	r2, .L128
2073:Generated_Source\PSoC4/CyLib.c **** 
 1431              		.loc 1 2073 0
 1432 0028 A403     		lsls	r4, r4, #14
 1433              	.LVL120:
 1434 002a 9B18     		adds	r3, r3, r2
2072:Generated_Source\PSoC4/CyLib.c ****             tmpReg |= ((divider << CY_SYS_CLK_PLL_CONFIG_OUTPUT_DIV_SHIFT) & CY_SYS_CLK_PLL_CONFIG_
 1435              		.loc 1 2072 0
 1436 002c 1968     		ldr	r1, [r3]
 1437 002e 054A     		ldr	r2, .L128+4
 1438 0030 0A40     		ands	r2, r1
 1439              	.LVL121:
2073:Generated_Source\PSoC4/CyLib.c **** 
 1440              		.loc 1 2073 0
 1441 0032 1443     		orrs	r4, r2
 1442              	.LVL122:
2075:Generated_Source\PSoC4/CyLib.c **** 
 1443              		.loc 1 2075 0
 1444 0034 1C60     		str	r4, [r3]
 1445              	.LVL123:
 1446              	.L124:
2078:Generated_Source\PSoC4/CyLib.c ****         }
2079:Generated_Source\PSoC4/CyLib.c **** 
2080:Generated_Source\PSoC4/CyLib.c ****         CyExitCriticalSection(interruptState);
 1447              		.loc 1 2080 0
 1448 0036 2800     		movs	r0, r5
 1449              	.LVL124:
 1450 0038 FFF7FEFF 		bl	CyExitCriticalSection
 1451              	.LVL125:
2081:Generated_Source\PSoC4/CyLib.c **** 
2082:Generated_Source\PSoC4/CyLib.c ****         return (returnStatus);
2083:Generated_Source\PSoC4/CyLib.c ****     }
 1452              		.loc 1 2083 0
 1453              		@ sp needed
 1454 003c 3800     		movs	r0, r7
 1455              	.LVL126:
 1456              	.LVL127:
 1457              	.LVL128:
 1458 003e F8BD     		pop	{r3, r4, r5, r6, r7, pc}
 1459              	.L129:
 1460              		.align	2
 1461              	.L128:
 1462 0040 14000C40 		.word	1074528276
ARM GAS  C:\Users\theGu\AppData\Local\Temp\cce4Ss8I.s 			page 66


 1463 0044 FF3FFFFF 		.word	-49153
 1464              		.cfi_endproc
 1465              	.LFE29:
 1466              		.size	CySysClkPllSetOutputDivider, .-CySysClkPllSetOutputDivider
 1467              		.global	__aeabi_idiv
 1468              		.section	.text.CySysClkPllSetFrequency,"ax",%progbits
 1469              		.align	1
 1470              		.global	CySysClkPllSetFrequency
 1471              		.code	16
 1472              		.thumb_func
 1473              		.type	CySysClkPllSetFrequency, %function
 1474              	CySysClkPllSetFrequency:
 1475              	.LFB27:
1917:Generated_Source\PSoC4/CyLib.c ****         uint32 qMin;
 1476              		.loc 1 1917 0
 1477              		.cfi_startproc
 1478              		@ args = 4, pretend = 0, frame = 24
 1479              		@ frame_needed = 0, uses_anonymous_args = 0
 1480              	.LVL129:
 1481 0000 F0B5     		push	{r4, r5, r6, r7, lr}
 1482              		.cfi_def_cfa_offset 20
 1483              		.cfi_offset 4, -20
 1484              		.cfi_offset 5, -16
 1485              		.cfi_offset 6, -12
 1486              		.cfi_offset 7, -8
 1487              		.cfi_offset 14, -4
 1488 0002 87B0     		sub	sp, sp, #28
 1489              		.cfi_def_cfa_offset 48
1917:Generated_Source\PSoC4/CyLib.c ****         uint32 qMin;
 1490              		.loc 1 1917 0
 1491 0004 0493     		str	r3, [sp, #16]
 1492 0006 0190     		str	r0, [sp, #4]
 1493 0008 0D00     		movs	r5, r1
 1494 000a 1600     		movs	r6, r2
1934:Generated_Source\PSoC4/CyLib.c **** 
 1495              		.loc 1 1934 0
 1496 000c FFF7FEFF 		bl	CySysClkPllConfigChangeAllowed
 1497              	.LVL130:
1936:Generated_Source\PSoC4/CyLib.c ****             (inputFreq  >= CY_SYS_CLK_PLL_INPUT_FREQ_MIN )  && (inputFreq  <= CY_SYS_CLK_PLL_INPUT_
 1498              		.loc 1 1936 0
 1499 0010 019B     		ldr	r3, [sp, #4]
 1500 0012 012B     		cmp	r3, #1
 1501 0014 01D9     		bls	.L131
 1502              	.LVL131:
 1503              	.L133:
1931:Generated_Source\PSoC4/CyLib.c **** 
 1504              		.loc 1 1931 0
 1505 0016 0120     		movs	r0, #1
 1506 0018 52E0     		b	.L140
 1507              	.LVL132:
 1508              	.L131:
1936:Generated_Source\PSoC4/CyLib.c ****             (inputFreq  >= CY_SYS_CLK_PLL_INPUT_FREQ_MIN )  && (inputFreq  <= CY_SYS_CLK_PLL_INPUT_
 1509              		.loc 1 1936 0 discriminator 1
 1510 001a 2A4B     		ldr	r3, .L141
 1511 001c 2A4A     		ldr	r2, .L141+4
 1512 001e EB18     		adds	r3, r5, r3
 1513 0020 9342     		cmp	r3, r2
ARM GAS  C:\Users\theGu\AppData\Local\Temp\cce4Ss8I.s 			page 67


 1514 0022 F8D8     		bhi	.L133
1937:Generated_Source\PSoC4/CyLib.c ****             (pllFreq >= CY_SYS_CLK_PLL_OUTPUT_FREQ_MIN ) && (pllFreq <= CY_SYS_CLK_PLL_OUTPUT_FREQ_
 1515              		.loc 1 1937 0 discriminator 1
 1516 0024 294B     		ldr	r3, .L141+8
 1517 0026 2A4A     		ldr	r2, .L141+12
 1518 0028 F318     		adds	r3, r6, r3
 1519 002a 9342     		cmp	r3, r2
 1520 002c F3D8     		bhi	.L133
1938:Generated_Source\PSoC4/CyLib.c ****             (divider <= CY_SYS_PLL_OUTPUT_DIV8) &&
 1521              		.loc 1 1938 0 discriminator 1
 1522 002e 049B     		ldr	r3, [sp, #16]
 1523 0030 032B     		cmp	r3, #3
 1524 0032 F0D8     		bhi	.L133
1939:Generated_Source\PSoC4/CyLib.c ****             (CYRET_SUCCESS == tmp))
 1525              		.loc 1 1939 0
 1526 0034 0028     		cmp	r0, #0
 1527 0036 EED1     		bne	.L133
1944:Generated_Source\PSoC4/CyLib.c ****             qMin = (qMin < CY_SYS_CLK_PLL_QMINIP) ? CY_SYS_CLK_PLL_QMINIP : qMin;
 1528              		.loc 1 1944 0
 1529 0038 264B     		ldr	r3, .L141+16
 1530 003a 2749     		ldr	r1, .L141+20
 1531 003c E818     		adds	r0, r5, r3
 1532              	.LVL133:
 1533 003e FFF7FEFF 		bl	__aeabi_uidiv
 1534              	.LVL134:
1948:Generated_Source\PSoC4/CyLib.c ****             qMax = (qMax > CY_SYS_CLK_PLL_QMAXIP) ? CY_SYS_CLK_PLL_QMAXIP : qMax;
 1535              		.loc 1 1948 0
 1536 0042 FA21     		movs	r1, #250
1944:Generated_Source\PSoC4/CyLib.c ****             qMin = (qMin < CY_SYS_CLK_PLL_QMINIP) ? CY_SYS_CLK_PLL_QMINIP : qMin;
 1537              		.loc 1 1944 0
 1538 0044 0400     		movs	r4, r0
 1539              	.LVL135:
1948:Generated_Source\PSoC4/CyLib.c ****             qMax = (qMax > CY_SYS_CLK_PLL_QMAXIP) ? CY_SYS_CLK_PLL_QMAXIP : qMax;
 1540              		.loc 1 1948 0
 1541 0046 8900     		lsls	r1, r1, #2
 1542 0048 2800     		movs	r0, r5
 1543              	.LVL136:
 1544 004a FFF7FEFF 		bl	__aeabi_uidiv
 1545              	.LVL137:
 1546 004e 0700     		movs	r7, r0
 1547              	.LVL138:
1949:Generated_Source\PSoC4/CyLib.c **** 
 1548              		.loc 1 1949 0
 1549 0050 4028     		cmp	r0, #64
 1550 0052 00D9     		bls	.L134
 1551 0054 4027     		movs	r7, #64
 1552              	.L134:
 1553              	.LVL139:
1951:Generated_Source\PSoC4/CyLib.c ****             {
 1554              		.loc 1 1951 0
 1555 0056 BC42     		cmp	r4, r7
 1556 0058 DDD8     		bhi	.L133
 1557 005a 2200     		movs	r2, r4
 1558 005c 7243     		muls	r2, r6
 1559 005e 6B08     		lsrs	r3, r5, #1
 1560 0060 9B18     		adds	r3, r3, r2
 1561 0062 0293     		str	r3, [sp, #8]
ARM GAS  C:\Users\theGu\AppData\Local\Temp\cce4Ss8I.s 			page 68


1967:Generated_Source\PSoC4/CyLib.c ****                     {
 1562              		.loc 1 1967 0
 1563 0064 0C9B     		ldr	r3, [sp, #48]
 1564 0066 5B42     		rsbs	r3, r3, #0
 1565 0068 0593     		str	r3, [sp, #20]
 1566              	.LVL140:
 1567              	.L137:
1958:Generated_Source\PSoC4/CyLib.c **** 
 1568              		.loc 1 1958 0
 1569 006a 2900     		movs	r1, r5
 1570 006c 0298     		ldr	r0, [sp, #8]
 1571 006e FFF7FEFF 		bl	__aeabi_uidiv
 1572              	.LVL141:
1964:Generated_Source\PSoC4/CyLib.c **** 
 1573              		.loc 1 1964 0
 1574 0072 2100     		movs	r1, r4
1958:Generated_Source\PSoC4/CyLib.c **** 
 1575              		.loc 1 1958 0
 1576 0074 0390     		str	r0, [sp, #12]
 1577              	.LVL142:
1964:Generated_Source\PSoC4/CyLib.c **** 
 1578              		.loc 1 1964 0
 1579 0076 6843     		muls	r0, r5
 1580              	.LVL143:
 1581 0078 FFF7FEFF 		bl	__aeabi_uidiv
 1582              	.LVL144:
 1583 007c 174B     		ldr	r3, .L141+24
 1584 007e 801B     		subs	r0, r0, r6
 1585 0080 5843     		muls	r0, r3
 1586 0082 3100     		movs	r1, r6
 1587 0084 FFF7FEFF 		bl	__aeabi_idiv
 1588              	.LVL145:
1967:Generated_Source\PSoC4/CyLib.c ****                     {
 1589              		.loc 1 1967 0
 1590 0088 059B     		ldr	r3, [sp, #20]
 1591 008a 9842     		cmp	r0, r3
 1592 008c 02DB     		blt	.L135
1967:Generated_Source\PSoC4/CyLib.c ****                     {
 1593              		.loc 1 1967 0 is_stmt 0 discriminator 1
 1594 008e 0C9B     		ldr	r3, [sp, #48]
 1595 0090 9842     		cmp	r0, r3
 1596 0092 06DD     		ble	.L136
 1597              	.L135:
 1598 0094 029B     		ldr	r3, [sp, #8]
1953:Generated_Source\PSoC4/CyLib.c ****                 {
 1599              		.loc 1 1953 0 is_stmt 1 discriminator 2
 1600 0096 0134     		adds	r4, r4, #1
 1601              	.LVL146:
 1602 0098 9B19     		adds	r3, r3, r6
 1603 009a 0293     		str	r3, [sp, #8]
 1604 009c A742     		cmp	r7, r4
 1605 009e E4D2     		bcs	.L137
 1606 00a0 B9E7     		b	.L133
 1607              	.LVL147:
 1608              	.L136:
1976:Generated_Source\PSoC4/CyLib.c ****                 {
 1609              		.loc 1 1976 0
ARM GAS  C:\Users\theGu\AppData\Local\Temp\cce4Ss8I.s 			page 69


 1610 00a2 039B     		ldr	r3, [sp, #12]
 1611 00a4 002B     		cmp	r3, #0
 1612 00a6 B6D0     		beq	.L133
1978:Generated_Source\PSoC4/CyLib.c ****                     {
 1613              		.loc 1 1978 0
 1614 00a8 0223     		movs	r3, #2
 1615 00aa 2200     		movs	r2, r4
 1616 00ac 0399     		ldr	r1, [sp, #12]
 1617 00ae 0198     		ldr	r0, [sp, #4]
 1618              	.LVL148:
 1619 00b0 FFF7FEFF 		bl	CySysClkPllSetPQ
 1620              	.LVL149:
 1621 00b4 0028     		cmp	r0, #0
 1622 00b6 AED1     		bne	.L133
1980:Generated_Source\PSoC4/CyLib.c ****                     }
 1623              		.loc 1 1980 0
 1624 00b8 0499     		ldr	r1, [sp, #16]
 1625 00ba 0198     		ldr	r0, [sp, #4]
 1626 00bc FFF7FEFF 		bl	CySysClkPllSetOutputDivider
 1627              	.LVL150:
 1628              	.L140:
1988:Generated_Source\PSoC4/CyLib.c **** 
 1629              		.loc 1 1988 0
 1630 00c0 07B0     		add	sp, sp, #28
 1631              		@ sp needed
 1632              	.LVL151:
 1633              	.LVL152:
 1634 00c2 F0BD     		pop	{r4, r5, r6, r7, pc}
 1635              	.L142:
 1636              		.align	2
 1637              	.L141:
 1638 00c4 18FCFFFF 		.word	-1000
 1639 00c8 18BC0000 		.word	48152
 1640 00cc 1CA8FFFF 		.word	-22500
 1641 00d0 1C680000 		.word	26652
 1642 00d4 B70B0000 		.word	2999
 1643 00d8 B80B0000 		.word	3000
 1644 00dc 40420F00 		.word	1000000
 1645              		.cfi_endproc
 1646              	.LFE27:
 1647              		.size	CySysClkPllSetFrequency, .-CySysClkPllSetFrequency
 1648              		.section	.text.CySysLvdDisable,"ax",%progbits
 1649              		.align	1
 1650              		.global	CySysLvdDisable
 1651              		.code	16
 1652              		.thumb_func
 1653              		.type	CySysLvdDisable, %function
 1654              	CySysLvdDisable:
 1655              	.LFB31:
2084:Generated_Source\PSoC4/CyLib.c **** #endif /* (CY_IP_SRSSV2 && CY_IP_PLL) */
2085:Generated_Source\PSoC4/CyLib.c **** 
2086:Generated_Source\PSoC4/CyLib.c **** 
2087:Generated_Source\PSoC4/CyLib.c **** #if(CY_IP_SRSSV2)
2088:Generated_Source\PSoC4/CyLib.c **** 
2089:Generated_Source\PSoC4/CyLib.c ****     /*******************************************************************************
2090:Generated_Source\PSoC4/CyLib.c ****     * Function Name: CySysLvdEnable
2091:Generated_Source\PSoC4/CyLib.c ****     ****************************************************************************//**
ARM GAS  C:\Users\theGu\AppData\Local\Temp\cce4Ss8I.s 			page 70


2092:Generated_Source\PSoC4/CyLib.c ****     *
2093:Generated_Source\PSoC4/CyLib.c ****     *  Enables the output of the low-voltage monitor when Vddd is at or below the
2094:Generated_Source\PSoC4/CyLib.c ****     *  trip point, configures the device to generate an interrupt, and sets the
