ARM GAS  C:\Users\theGu\AppData\Local\Temp\ccssehMe.s 			page 1


   1              		.syntax unified
   2              		.cpu cortex-m0
   3              		.fpu softvfp
   4              		.eabi_attribute 20, 1
   5              		.eabi_attribute 21, 1
   6              		.eabi_attribute 23, 3
   7              		.eabi_attribute 24, 1
   8              		.eabi_attribute 25, 1
   9              		.eabi_attribute 26, 1
  10              		.eabi_attribute 30, 4
  11              		.eabi_attribute 34, 0
  12              		.eabi_attribute 18, 4
  13              		.thumb
  14              		.syntax unified
  15              		.file	"CyDMA.c"
  16              		.text
  17              	.Ltext0:
  18              		.cfi_sections	.debug_frame
  19              		.section	.text.CyDmaInterrupt,"ax",%progbits
  20              		.align	1
  21              		.global	CyDmaInterrupt
  22              		.code	16
  23              		.thumb_func
  24              		.type	CyDmaInterrupt, %function
  25              	CyDmaInterrupt:
  26              	.LFB15:
  27              		.file 1 "Generated_Source\\PSoC4\\CyDMA.c"
   1:Generated_Source\PSoC4/CyDMA.c **** /*******************************************************************************
   2:Generated_Source\PSoC4/CyDMA.c **** * File Name: CyDMA.c
   3:Generated_Source\PSoC4/CyDMA.c **** * Version 1.10
   4:Generated_Source\PSoC4/CyDMA.c **** *
   5:Generated_Source\PSoC4/CyDMA.c **** * Description:
   6:Generated_Source\PSoC4/CyDMA.c **** *  This file contains all of the global DMA API functions.
   7:Generated_Source\PSoC4/CyDMA.c **** *
   8:Generated_Source\PSoC4/CyDMA.c **** ********************************************************************************
   9:Generated_Source\PSoC4/CyDMA.c **** * Copyright 2015, Cypress Semiconductor Corporation. All rights reserved.
  10:Generated_Source\PSoC4/CyDMA.c **** * You may use this file only in accordance with the license, terms, conditions,
  11:Generated_Source\PSoC4/CyDMA.c **** * disclaimers, and limitations in the end user license agreement accompanying
  12:Generated_Source\PSoC4/CyDMA.c **** * the software package with which this file was provided.
  13:Generated_Source\PSoC4/CyDMA.c **** *******************************************************************************/
  14:Generated_Source\PSoC4/CyDMA.c **** 
  15:Generated_Source\PSoC4/CyDMA.c **** #include "CyDMA.h"
  16:Generated_Source\PSoC4/CyDMA.c **** #include "CyLib.h"
  17:Generated_Source\PSoC4/CyDMA.c **** 
  18:Generated_Source\PSoC4/CyDMA.c **** /* Default callback function. It is invoked if the user callback function is
  19:Generated_Source\PSoC4/CyDMA.c **** * undefined.
  20:Generated_Source\PSoC4/CyDMA.c **** */
  21:Generated_Source\PSoC4/CyDMA.c **** static void CyDmaDefaultInterruptCallback(void);
  22:Generated_Source\PSoC4/CyDMA.c **** 
  23:Generated_Source\PSoC4/CyDMA.c **** /* Array of pointers to user defined callback functions to be called
  24:Generated_Source\PSoC4/CyDMA.c **** * from DMA interrupt.
  25:Generated_Source\PSoC4/CyDMA.c **** */
  26:Generated_Source\PSoC4/CyDMA.c **** static cydma_callback_t CyDmaInterruptCallback[CYDMA_CH_NR] = {
  27:Generated_Source\PSoC4/CyDMA.c ****     &CyDmaDefaultInterruptCallback, &CyDmaDefaultInterruptCallback,
  28:Generated_Source\PSoC4/CyDMA.c ****     &CyDmaDefaultInterruptCallback, &CyDmaDefaultInterruptCallback,
  29:Generated_Source\PSoC4/CyDMA.c ****     &CyDmaDefaultInterruptCallback, &CyDmaDefaultInterruptCallback,
  30:Generated_Source\PSoC4/CyDMA.c ****     &CyDmaDefaultInterruptCallback, &CyDmaDefaultInterruptCallback,
ARM GAS  C:\Users\theGu\AppData\Local\Temp\ccssehMe.s 			page 2


  31:Generated_Source\PSoC4/CyDMA.c ****     &CyDmaDefaultInterruptCallback, &CyDmaDefaultInterruptCallback,
  32:Generated_Source\PSoC4/CyDMA.c ****     &CyDmaDefaultInterruptCallback, &CyDmaDefaultInterruptCallback,
  33:Generated_Source\PSoC4/CyDMA.c ****     &CyDmaDefaultInterruptCallback, &CyDmaDefaultInterruptCallback,
  34:Generated_Source\PSoC4/CyDMA.c ****     &CyDmaDefaultInterruptCallback, &CyDmaDefaultInterruptCallback,
  35:Generated_Source\PSoC4/CyDMA.c ****     &CyDmaDefaultInterruptCallback, &CyDmaDefaultInterruptCallback,
  36:Generated_Source\PSoC4/CyDMA.c ****     &CyDmaDefaultInterruptCallback, &CyDmaDefaultInterruptCallback,
  37:Generated_Source\PSoC4/CyDMA.c ****     &CyDmaDefaultInterruptCallback, &CyDmaDefaultInterruptCallback,
  38:Generated_Source\PSoC4/CyDMA.c ****     &CyDmaDefaultInterruptCallback, &CyDmaDefaultInterruptCallback,
  39:Generated_Source\PSoC4/CyDMA.c ****     &CyDmaDefaultInterruptCallback, &CyDmaDefaultInterruptCallback,
  40:Generated_Source\PSoC4/CyDMA.c ****     &CyDmaDefaultInterruptCallback, &CyDmaDefaultInterruptCallback,
  41:Generated_Source\PSoC4/CyDMA.c ****     &CyDmaDefaultInterruptCallback, &CyDmaDefaultInterruptCallback,
  42:Generated_Source\PSoC4/CyDMA.c ****     &CyDmaDefaultInterruptCallback, &CyDmaDefaultInterruptCallback
  43:Generated_Source\PSoC4/CyDMA.c **** };
  44:Generated_Source\PSoC4/CyDMA.c **** 
  45:Generated_Source\PSoC4/CyDMA.c **** /* The live status of all DMA channels usage. Bit i is associated to channel i,
  46:Generated_Source\PSoC4/CyDMA.c **** * with i = 0..CYDMA_CH_NR-1. '0' - channel is free. '1' - channel is in use.
  47:Generated_Source\PSoC4/CyDMA.c **** * All the channels allocated for DMA instances placed on a schematic are in use
  48:Generated_Source\PSoC4/CyDMA.c **** * by default and cannot be freed. 
  49:Generated_Source\PSoC4/CyDMA.c **** * DMA_CHANNELS_USED__MASK is generated during the build time and is a bit field
  50:Generated_Source\PSoC4/CyDMA.c **** * corresponding to the DMA channels placed on a design schematic.
  51:Generated_Source\PSoC4/CyDMA.c **** */
  52:Generated_Source\PSoC4/CyDMA.c **** static uint32 CyDmaChannelUsedMask = DMA_CHANNELS_USED__MASK;
  53:Generated_Source\PSoC4/CyDMA.c **** 
  54:Generated_Source\PSoC4/CyDMA.c **** 
  55:Generated_Source\PSoC4/CyDMA.c **** /*******************************************************************************
  56:Generated_Source\PSoC4/CyDMA.c **** * Function Name: CyDmaEnable
  57:Generated_Source\PSoC4/CyDMA.c **** ********************************************************************************
  58:Generated_Source\PSoC4/CyDMA.c **** *
  59:Generated_Source\PSoC4/CyDMA.c **** * Summary:
  60:Generated_Source\PSoC4/CyDMA.c **** *  Sets the default ISR to be called by the DMA interrupt and enables the DMA
  61:Generated_Source\PSoC4/CyDMA.c **** *  transfer engine.
  62:Generated_Source\PSoC4/CyDMA.c **** *
  63:Generated_Source\PSoC4/CyDMA.c **** * Parameters:
  64:Generated_Source\PSoC4/CyDMA.c **** *  None.
  65:Generated_Source\PSoC4/CyDMA.c **** *                   
  66:Generated_Source\PSoC4/CyDMA.c **** * Return:
  67:Generated_Source\PSoC4/CyDMA.c **** *  None.
  68:Generated_Source\PSoC4/CyDMA.c **** *
  69:Generated_Source\PSoC4/CyDMA.c **** * Side effect:
  70:Generated_Source\PSoC4/CyDMA.c **** *  Does not affect the channel enable status. Overrides the interrupt vector
  71:Generated_Source\PSoC4/CyDMA.c **** *  set prior the first time CyDmaEnable() is called.
  72:Generated_Source\PSoC4/CyDMA.c **** *
  73:Generated_Source\PSoC4/CyDMA.c **** *******************************************************************************/
  74:Generated_Source\PSoC4/CyDMA.c **** void CyDmaEnable(void)
  75:Generated_Source\PSoC4/CyDMA.c **** {
  76:Generated_Source\PSoC4/CyDMA.c ****     static uint8 initIntrVector = 0u;
  77:Generated_Source\PSoC4/CyDMA.c **** 
  78:Generated_Source\PSoC4/CyDMA.c ****     if(0u == initIntrVector)
  79:Generated_Source\PSoC4/CyDMA.c ****     {
  80:Generated_Source\PSoC4/CyDMA.c ****         CyDmaSetInterruptVector(&CyDmaInterrupt);
  81:Generated_Source\PSoC4/CyDMA.c ****         CyIntSetPriority(CYDMA_INTR_NUMBER, CYDMA_INTR_PRIO);
  82:Generated_Source\PSoC4/CyDMA.c ****         initIntrVector = 1u;
  83:Generated_Source\PSoC4/CyDMA.c ****     }
  84:Generated_Source\PSoC4/CyDMA.c ****     CYDMA_CTL_REG = CYDMA_ENABLED;
  85:Generated_Source\PSoC4/CyDMA.c **** }
  86:Generated_Source\PSoC4/CyDMA.c **** 
  87:Generated_Source\PSoC4/CyDMA.c **** 
ARM GAS  C:\Users\theGu\AppData\Local\Temp\ccssehMe.s 			page 3


  88:Generated_Source\PSoC4/CyDMA.c **** /*******************************************************************************
  89:Generated_Source\PSoC4/CyDMA.c **** * Function Name: CyDmaDisable
  90:Generated_Source\PSoC4/CyDMA.c **** ********************************************************************************
  91:Generated_Source\PSoC4/CyDMA.c **** *
  92:Generated_Source\PSoC4/CyDMA.c **** * Summary:
  93:Generated_Source\PSoC4/CyDMA.c **** *  Disables the DMA transfer engine.
  94:Generated_Source\PSoC4/CyDMA.c **** *
  95:Generated_Source\PSoC4/CyDMA.c **** * Parameters:
  96:Generated_Source\PSoC4/CyDMA.c **** *  None.
  97:Generated_Source\PSoC4/CyDMA.c **** *                   
  98:Generated_Source\PSoC4/CyDMA.c **** * Return:
  99:Generated_Source\PSoC4/CyDMA.c **** *  None.
 100:Generated_Source\PSoC4/CyDMA.c **** *
 101:Generated_Source\PSoC4/CyDMA.c **** * Side effect:
 102:Generated_Source\PSoC4/CyDMA.c **** *  Does not affect the channel enable status.
 103:Generated_Source\PSoC4/CyDMA.c **** *
 104:Generated_Source\PSoC4/CyDMA.c **** *******************************************************************************/
 105:Generated_Source\PSoC4/CyDMA.c **** void CyDmaDisable(void)
 106:Generated_Source\PSoC4/CyDMA.c **** {
 107:Generated_Source\PSoC4/CyDMA.c ****     CYDMA_CTL_REG = (uint32)~CYDMA_ENABLED;
 108:Generated_Source\PSoC4/CyDMA.c **** }
 109:Generated_Source\PSoC4/CyDMA.c **** 
 110:Generated_Source\PSoC4/CyDMA.c **** 
 111:Generated_Source\PSoC4/CyDMA.c **** /*******************************************************************************
 112:Generated_Source\PSoC4/CyDMA.c **** * Function Name: CyDmaGetStatus
 113:Generated_Source\PSoC4/CyDMA.c **** ********************************************************************************
 114:Generated_Source\PSoC4/CyDMA.c **** *
 115:Generated_Source\PSoC4/CyDMA.c **** * Summary:
 116:Generated_Source\PSoC4/CyDMA.c **** *  Returns the status of the DMA transfer engine.
 117:Generated_Source\PSoC4/CyDMA.c **** *
 118:Generated_Source\PSoC4/CyDMA.c **** * Parameters:
 119:Generated_Source\PSoC4/CyDMA.c **** *  None.
 120:Generated_Source\PSoC4/CyDMA.c **** *                   
 121:Generated_Source\PSoC4/CyDMA.c **** * Return:
 122:Generated_Source\PSoC4/CyDMA.c **** *  The contents of the DMA status register. Refer to the status register bit
 123:Generated_Source\PSoC4/CyDMA.c **** *  definitions in CyDMA_P4.h or the API description in the DMA channel
 124:Generated_Source\PSoC4/CyDMA.c **** *  datasheet.
 125:Generated_Source\PSoC4/CyDMA.c **** *
 126:Generated_Source\PSoC4/CyDMA.c **** * Side effect:
 127:Generated_Source\PSoC4/CyDMA.c **** *  The series of function calls CyDmaGetActiveSrcAddress(),
 128:Generated_Source\PSoC4/CyDMA.c **** *  CyDmaGetActiveDstAddress(), CyDmaGetStatus() are not atomic, the DMA
 129:Generated_Source\PSoC4/CyDMA.c **** *  engine may have advanced after one or more of these function calls. Meaning
 130:Generated_Source\PSoC4/CyDMA.c **** *  the returns from these three functions may not be related to each other.
 131:Generated_Source\PSoC4/CyDMA.c **** *
 132:Generated_Source\PSoC4/CyDMA.c **** *******************************************************************************/
 133:Generated_Source\PSoC4/CyDMA.c **** uint32 CyDmaGetStatus(void)
 134:Generated_Source\PSoC4/CyDMA.c **** {
 135:Generated_Source\PSoC4/CyDMA.c ****     return (CYDMA_STATUS_REG);
 136:Generated_Source\PSoC4/CyDMA.c **** }
 137:Generated_Source\PSoC4/CyDMA.c **** 
 138:Generated_Source\PSoC4/CyDMA.c **** 
 139:Generated_Source\PSoC4/CyDMA.c **** /*******************************************************************************
 140:Generated_Source\PSoC4/CyDMA.c **** * Function Name: CyDmaGetActiveChannels
 141:Generated_Source\PSoC4/CyDMA.c **** ********************************************************************************
 142:Generated_Source\PSoC4/CyDMA.c **** *
 143:Generated_Source\PSoC4/CyDMA.c **** * Summary:
 144:Generated_Source\PSoC4/CyDMA.c **** *  Returns a bit field of all the DMA channels that are either active or
ARM GAS  C:\Users\theGu\AppData\Local\Temp\ccssehMe.s 			page 4


 145:Generated_Source\PSoC4/CyDMA.c **** *  pending.
 146:Generated_Source\PSoC4/CyDMA.c **** *
 147:Generated_Source\PSoC4/CyDMA.c **** * Parameters:
 148:Generated_Source\PSoC4/CyDMA.c **** *  None.
 149:Generated_Source\PSoC4/CyDMA.c **** *                   
 150:Generated_Source\PSoC4/CyDMA.c **** * Return:
 151:Generated_Source\PSoC4/CyDMA.c **** *  Bit field of active and pending channels. 
 152:Generated_Source\PSoC4/CyDMA.c **** *
 153:Generated_Source\PSoC4/CyDMA.c **** *******************************************************************************/
 154:Generated_Source\PSoC4/CyDMA.c **** uint32 CyDmaGetActiveChannels(void)
 155:Generated_Source\PSoC4/CyDMA.c **** {
 156:Generated_Source\PSoC4/CyDMA.c ****     return (CYDMA_STATUS_CH_ACT_REG);
 157:Generated_Source\PSoC4/CyDMA.c **** }
 158:Generated_Source\PSoC4/CyDMA.c **** 
 159:Generated_Source\PSoC4/CyDMA.c **** 
 160:Generated_Source\PSoC4/CyDMA.c **** /*******************************************************************************
 161:Generated_Source\PSoC4/CyDMA.c **** * Function Name: CyDmaGetActiveSrcAddress
 162:Generated_Source\PSoC4/CyDMA.c **** ********************************************************************************
 163:Generated_Source\PSoC4/CyDMA.c **** *
 164:Generated_Source\PSoC4/CyDMA.c **** * Summary:
 165:Generated_Source\PSoC4/CyDMA.c **** *  Returns the source address currently being used by the DMA transfer engine.
 166:Generated_Source\PSoC4/CyDMA.c **** *  This function can be used to debug the DMA, or observe where it is at in a
 167:Generated_Source\PSoC4/CyDMA.c **** *  transfer. It will not be used in normal DMA operation.
 168:Generated_Source\PSoC4/CyDMA.c **** *
 169:Generated_Source\PSoC4/CyDMA.c **** * Parameters:
 170:Generated_Source\PSoC4/CyDMA.c **** *  None.
 171:Generated_Source\PSoC4/CyDMA.c **** *                   
 172:Generated_Source\PSoC4/CyDMA.c **** * Return:
 173:Generated_Source\PSoC4/CyDMA.c **** *  Source address currently being used by the DMA transfer engine.
 174:Generated_Source\PSoC4/CyDMA.c **** *
 175:Generated_Source\PSoC4/CyDMA.c **** * Side effect:
 176:Generated_Source\PSoC4/CyDMA.c **** *  The series of function calls CyDmaGetActiveSrcAddress(),
 177:Generated_Source\PSoC4/CyDMA.c **** *  CyDmaGetActiveDstAddress(), CyDmaGetStatus() are not atomic, the DMA
 178:Generated_Source\PSoC4/CyDMA.c **** *  engine may have advanced after one or more of these function calls. Meaning
 179:Generated_Source\PSoC4/CyDMA.c **** *  the returns from these three functions may not be related to each other.
 180:Generated_Source\PSoC4/CyDMA.c **** *
 181:Generated_Source\PSoC4/CyDMA.c **** *******************************************************************************/
 182:Generated_Source\PSoC4/CyDMA.c **** void * CyDmaGetActiveSrcAddress(void)
 183:Generated_Source\PSoC4/CyDMA.c **** {
 184:Generated_Source\PSoC4/CyDMA.c ****     return ((void *)CYDMA_STATUS_SRC_ADDR_REG);
 185:Generated_Source\PSoC4/CyDMA.c **** }
 186:Generated_Source\PSoC4/CyDMA.c **** 
 187:Generated_Source\PSoC4/CyDMA.c **** 
 188:Generated_Source\PSoC4/CyDMA.c **** /*******************************************************************************
 189:Generated_Source\PSoC4/CyDMA.c **** * Function Name: CyDmaGetActiveDstAddress
 190:Generated_Source\PSoC4/CyDMA.c **** ********************************************************************************
 191:Generated_Source\PSoC4/CyDMA.c **** *
 192:Generated_Source\PSoC4/CyDMA.c **** * Summary:
 193:Generated_Source\PSoC4/CyDMA.c **** *  Returns the destination address currently being used by the DMA transfer
 194:Generated_Source\PSoC4/CyDMA.c **** *  engine. This function can be used to debug the DMA, or observe where it is at
 195:Generated_Source\PSoC4/CyDMA.c **** *  in a transfer. It will not be used in normal DMA operation.
 196:Generated_Source\PSoC4/CyDMA.c **** *
 197:Generated_Source\PSoC4/CyDMA.c **** * Parameters:
 198:Generated_Source\PSoC4/CyDMA.c **** *  None.
 199:Generated_Source\PSoC4/CyDMA.c **** *                   
 200:Generated_Source\PSoC4/CyDMA.c **** * Return:
 201:Generated_Source\PSoC4/CyDMA.c **** *  Destination address currently being used by the DMA transfer engine.
ARM GAS  C:\Users\theGu\AppData\Local\Temp\ccssehMe.s 			page 5


 202:Generated_Source\PSoC4/CyDMA.c **** *
 203:Generated_Source\PSoC4/CyDMA.c **** * Side effect:
 204:Generated_Source\PSoC4/CyDMA.c **** *  The series of function calls CyDmaGetActiveSrcAddress(),
 205:Generated_Source\PSoC4/CyDMA.c **** *  CyDmaGetActiveDstAddress(), CyDmaGetStatus() are not atomic, the DMA
 206:Generated_Source\PSoC4/CyDMA.c **** *  engine may have advanced after one or more of these function calls. Meaning
 207:Generated_Source\PSoC4/CyDMA.c **** *  the returns from these three functions may not be related to each other.
 208:Generated_Source\PSoC4/CyDMA.c **** *
 209:Generated_Source\PSoC4/CyDMA.c **** *******************************************************************************/
 210:Generated_Source\PSoC4/CyDMA.c **** void * CyDmaGetActiveDstAddress(void)
 211:Generated_Source\PSoC4/CyDMA.c **** {
 212:Generated_Source\PSoC4/CyDMA.c ****     return ((void *)CYDMA_STATUS_DST_ADDR_REG);
 213:Generated_Source\PSoC4/CyDMA.c **** }
 214:Generated_Source\PSoC4/CyDMA.c **** 
 215:Generated_Source\PSoC4/CyDMA.c **** 
 216:Generated_Source\PSoC4/CyDMA.c **** /*******************************************************************************
 217:Generated_Source\PSoC4/CyDMA.c **** * Function Name: CyDmaSetInterruptVector
 218:Generated_Source\PSoC4/CyDMA.c **** ********************************************************************************
 219:Generated_Source\PSoC4/CyDMA.c **** *
 220:Generated_Source\PSoC4/CyDMA.c **** * Summary:
 221:Generated_Source\PSoC4/CyDMA.c **** *  Sets the function that will be called by the DMA interrupt. Note, calling
 222:Generated_Source\PSoC4/CyDMA.c **** *  CyDmaEnable() for the first time overrides any effect this API could have.
 223:Generated_Source\PSoC4/CyDMA.c **** *  Call CyDmaSetInterruptVector() after calling CyDmaEnable() to change
 224:Generated_Source\PSoC4/CyDMA.c **** *  the default ISR.
 225:Generated_Source\PSoC4/CyDMA.c **** *
 226:Generated_Source\PSoC4/CyDMA.c **** * Parameters:
 227:Generated_Source\PSoC4/CyDMA.c **** *  interruptVector: Address of the function that will be called by the DMA
 228:Generated_Source\PSoC4/CyDMA.c **** *                   interrupt.
 229:Generated_Source\PSoC4/CyDMA.c **** * Return:
 230:Generated_Source\PSoC4/CyDMA.c **** *  None.
 231:Generated_Source\PSoC4/CyDMA.c **** *
 232:Generated_Source\PSoC4/CyDMA.c **** * Side effect:
 233:Generated_Source\PSoC4/CyDMA.c **** *  Other components that use DMA may register their callback functions to be
 234:Generated_Source\PSoC4/CyDMA.c **** *  called from the default DMA ISR. Therefore, changing the DMA ISR to a user
 235:Generated_Source\PSoC4/CyDMA.c **** *  defined ISR using this API may prevent these other components from
 236:Generated_Source\PSoC4/CyDMA.c **** *  functioning correctly.
 237:Generated_Source\PSoC4/CyDMA.c **** *
 238:Generated_Source\PSoC4/CyDMA.c **** *******************************************************************************/
 239:Generated_Source\PSoC4/CyDMA.c **** void CyDmaSetInterruptVector(cyisraddress interruptVector)
 240:Generated_Source\PSoC4/CyDMA.c **** {
 241:Generated_Source\PSoC4/CyDMA.c ****     (void)CyIntSetVector(CYDMA_INTR_NUMBER, interruptVector);
 242:Generated_Source\PSoC4/CyDMA.c **** }
 243:Generated_Source\PSoC4/CyDMA.c **** 
 244:Generated_Source\PSoC4/CyDMA.c **** 
 245:Generated_Source\PSoC4/CyDMA.c **** /*******************************************************************************
 246:Generated_Source\PSoC4/CyDMA.c **** * Function Name: CyDmaGetInterruptSource
 247:Generated_Source\PSoC4/CyDMA.c **** ********************************************************************************
 248:Generated_Source\PSoC4/CyDMA.c **** *
 249:Generated_Source\PSoC4/CyDMA.c **** * Summary:
 250:Generated_Source\PSoC4/CyDMA.c **** *  Returns the bit field of which channels generated an interrupt request.
 251:Generated_Source\PSoC4/CyDMA.c **** *
 252:Generated_Source\PSoC4/CyDMA.c **** * Parameters:
 253:Generated_Source\PSoC4/CyDMA.c **** *  None.
 254:Generated_Source\PSoC4/CyDMA.c **** *                   
 255:Generated_Source\PSoC4/CyDMA.c **** * Return:
 256:Generated_Source\PSoC4/CyDMA.c **** *  Bit filed of which channels generated an interrupt request.
 257:Generated_Source\PSoC4/CyDMA.c **** *
 258:Generated_Source\PSoC4/CyDMA.c **** *******************************************************************************/
ARM GAS  C:\Users\theGu\AppData\Local\Temp\ccssehMe.s 			page 6


 259:Generated_Source\PSoC4/CyDMA.c **** uint32 CyDmaGetInterruptSource(void)
 260:Generated_Source\PSoC4/CyDMA.c **** {
 261:Generated_Source\PSoC4/CyDMA.c ****     return (CYDMA_INTR_REG);
 262:Generated_Source\PSoC4/CyDMA.c **** }
 263:Generated_Source\PSoC4/CyDMA.c **** 
 264:Generated_Source\PSoC4/CyDMA.c **** 
 265:Generated_Source\PSoC4/CyDMA.c **** /*******************************************************************************
 266:Generated_Source\PSoC4/CyDMA.c **** * Function Name: CyDmaClearInterruptSource
 267:Generated_Source\PSoC4/CyDMA.c **** ********************************************************************************
 268:Generated_Source\PSoC4/CyDMA.c **** *
 269:Generated_Source\PSoC4/CyDMA.c **** * Summary:
 270:Generated_Source\PSoC4/CyDMA.c **** *  Clears the pending interrupts.
 271:Generated_Source\PSoC4/CyDMA.c **** *
 272:Generated_Source\PSoC4/CyDMA.c **** * Parameters:
 273:Generated_Source\PSoC4/CyDMA.c **** *  interruptMask: Bit field of interrupts to clear.
 274:Generated_Source\PSoC4/CyDMA.c **** *                   
 275:Generated_Source\PSoC4/CyDMA.c **** * Return:
 276:Generated_Source\PSoC4/CyDMA.c **** *  None.
 277:Generated_Source\PSoC4/CyDMA.c **** *
 278:Generated_Source\PSoC4/CyDMA.c **** *******************************************************************************/
 279:Generated_Source\PSoC4/CyDMA.c **** void CyDmaClearInterruptSource(uint32 interruptMask)
 280:Generated_Source\PSoC4/CyDMA.c **** {
 281:Generated_Source\PSoC4/CyDMA.c ****     CYDMA_INTR_REG = interruptMask;
 282:Generated_Source\PSoC4/CyDMA.c **** }
 283:Generated_Source\PSoC4/CyDMA.c **** 
 284:Generated_Source\PSoC4/CyDMA.c **** 
 285:Generated_Source\PSoC4/CyDMA.c **** /*******************************************************************************
 286:Generated_Source\PSoC4/CyDMA.c **** * Function Name: CyDmaSetInterruptSourceMask
 287:Generated_Source\PSoC4/CyDMA.c **** ********************************************************************************
 288:Generated_Source\PSoC4/CyDMA.c **** *
 289:Generated_Source\PSoC4/CyDMA.c **** * Summary:
 290:Generated_Source\PSoC4/CyDMA.c **** *  Sets mask for interrupt source.
 291:Generated_Source\PSoC4/CyDMA.c **** *
 292:Generated_Source\PSoC4/CyDMA.c **** * Parameters:
 293:Generated_Source\PSoC4/CyDMA.c **** *  interruptmask: Mask corresponding to interrupt bit field.
 294:Generated_Source\PSoC4/CyDMA.c **** *                   
 295:Generated_Source\PSoC4/CyDMA.c **** * Return:
 296:Generated_Source\PSoC4/CyDMA.c **** *  None.
 297:Generated_Source\PSoC4/CyDMA.c **** *
 298:Generated_Source\PSoC4/CyDMA.c **** *******************************************************************************/
 299:Generated_Source\PSoC4/CyDMA.c **** void CyDmaSetInterruptSourceMask(uint32 interruptMask)
 300:Generated_Source\PSoC4/CyDMA.c **** {
 301:Generated_Source\PSoC4/CyDMA.c ****     CYDMA_INTR_MASK_REG = interruptMask;
 302:Generated_Source\PSoC4/CyDMA.c **** }
 303:Generated_Source\PSoC4/CyDMA.c **** 
 304:Generated_Source\PSoC4/CyDMA.c **** 
 305:Generated_Source\PSoC4/CyDMA.c **** /*******************************************************************************
 306:Generated_Source\PSoC4/CyDMA.c **** * Function Name: CyDmaGetInterruptSourceMask
 307:Generated_Source\PSoC4/CyDMA.c **** ********************************************************************************
 308:Generated_Source\PSoC4/CyDMA.c **** *
 309:Generated_Source\PSoC4/CyDMA.c **** * Summary:
 310:Generated_Source\PSoC4/CyDMA.c **** *  Returns mask for interrupt source.
 311:Generated_Source\PSoC4/CyDMA.c **** *
 312:Generated_Source\PSoC4/CyDMA.c **** * Parameters:
 313:Generated_Source\PSoC4/CyDMA.c **** *  None.
 314:Generated_Source\PSoC4/CyDMA.c **** *                   
 315:Generated_Source\PSoC4/CyDMA.c **** * Return:
ARM GAS  C:\Users\theGu\AppData\Local\Temp\ccssehMe.s 			page 7


 316:Generated_Source\PSoC4/CyDMA.c **** *  Mask corresponding to interrupt bit field.
 317:Generated_Source\PSoC4/CyDMA.c **** *
 318:Generated_Source\PSoC4/CyDMA.c **** *******************************************************************************/
 319:Generated_Source\PSoC4/CyDMA.c **** uint32 CyDmaGetInterruptSourceMask(void)
 320:Generated_Source\PSoC4/CyDMA.c **** {
 321:Generated_Source\PSoC4/CyDMA.c ****     return (CYDMA_INTR_MASK_REG);
 322:Generated_Source\PSoC4/CyDMA.c **** }
 323:Generated_Source\PSoC4/CyDMA.c **** 
 324:Generated_Source\PSoC4/CyDMA.c **** 
 325:Generated_Source\PSoC4/CyDMA.c **** /*******************************************************************************
 326:Generated_Source\PSoC4/CyDMA.c **** * Function Name: CyDmaGetInterruptSourceMasked
 327:Generated_Source\PSoC4/CyDMA.c **** ********************************************************************************
 328:Generated_Source\PSoC4/CyDMA.c **** *
 329:Generated_Source\PSoC4/CyDMA.c **** * Summary:
 330:Generated_Source\PSoC4/CyDMA.c **** *  Returns the bitwise AND of the interrupt source and the interrupt mask.
 331:Generated_Source\PSoC4/CyDMA.c **** *
 332:Generated_Source\PSoC4/CyDMA.c **** * Parameters:
 333:Generated_Source\PSoC4/CyDMA.c **** *  None.
 334:Generated_Source\PSoC4/CyDMA.c **** *                   
 335:Generated_Source\PSoC4/CyDMA.c **** * Return:
 336:Generated_Source\PSoC4/CyDMA.c **** *  Bitwise AND of the interrupt source and the interrupt mask.
 337:Generated_Source\PSoC4/CyDMA.c **** *
 338:Generated_Source\PSoC4/CyDMA.c **** *******************************************************************************/
 339:Generated_Source\PSoC4/CyDMA.c **** uint32 CyDmaGetInterruptSourceMasked(void)
 340:Generated_Source\PSoC4/CyDMA.c **** {
 341:Generated_Source\PSoC4/CyDMA.c ****     return (CYDMA_INTR_MASKED_REG);
 342:Generated_Source\PSoC4/CyDMA.c **** }
 343:Generated_Source\PSoC4/CyDMA.c **** 
 344:Generated_Source\PSoC4/CyDMA.c **** 
 345:Generated_Source\PSoC4/CyDMA.c **** /*******************************************************************************
 346:Generated_Source\PSoC4/CyDMA.c **** * Function Name: CyDmaSetInterruptCallback
 347:Generated_Source\PSoC4/CyDMA.c **** ********************************************************************************
 348:Generated_Source\PSoC4/CyDMA.c **** *
 349:Generated_Source\PSoC4/CyDMA.c **** * Summary:
 350:Generated_Source\PSoC4/CyDMA.c **** *  Sets a user defined callback function to be called by the DMA interrupt. The
 351:Generated_Source\PSoC4/CyDMA.c **** *  function should contain code to process the interrupt request for the 
 352:Generated_Source\PSoC4/CyDMA.c **** *  associated DMA channel.
 353:Generated_Source\PSoC4/CyDMA.c **** *
 354:Generated_Source\PSoC4/CyDMA.c **** * Parameters:
 355:Generated_Source\PSoC4/CyDMA.c **** *  channel:  Channel used by this function.
 356:Generated_Source\PSoC4/CyDMA.c **** *  callback: Pointer to the user defined callback function.
 357:Generated_Source\PSoC4/CyDMA.c **** *
 358:Generated_Source\PSoC4/CyDMA.c **** * Return:
 359:Generated_Source\PSoC4/CyDMA.c **** *  Pointer to the function previously set for the specified channel. 
 360:Generated_Source\PSoC4/CyDMA.c **** *
 361:Generated_Source\PSoC4/CyDMA.c **** *******************************************************************************/
 362:Generated_Source\PSoC4/CyDMA.c **** cydma_callback_t CyDmaSetInterruptCallback(int32 channel, cydma_callback_t callback)
 363:Generated_Source\PSoC4/CyDMA.c **** {
 364:Generated_Source\PSoC4/CyDMA.c ****     cydma_callback_t prevCallback;
 365:Generated_Source\PSoC4/CyDMA.c **** 
 366:Generated_Source\PSoC4/CyDMA.c ****     CYASSERT((channel >= 0) && (channel < CYDMA_CH_NR));
 367:Generated_Source\PSoC4/CyDMA.c **** 
 368:Generated_Source\PSoC4/CyDMA.c ****     prevCallback = CyDmaInterruptCallback[channel];
 369:Generated_Source\PSoC4/CyDMA.c ****     CyDmaInterruptCallback[channel] = callback;
 370:Generated_Source\PSoC4/CyDMA.c ****     return (prevCallback);
 371:Generated_Source\PSoC4/CyDMA.c **** }
 372:Generated_Source\PSoC4/CyDMA.c **** 
ARM GAS  C:\Users\theGu\AppData\Local\Temp\ccssehMe.s 			page 8


 373:Generated_Source\PSoC4/CyDMA.c **** 
 374:Generated_Source\PSoC4/CyDMA.c **** /*******************************************************************************
 375:Generated_Source\PSoC4/CyDMA.c **** * Function Name: CyDmaGetInterruptCallback
 376:Generated_Source\PSoC4/CyDMA.c **** ********************************************************************************
 377:Generated_Source\PSoC4/CyDMA.c **** *
 378:Generated_Source\PSoC4/CyDMA.c **** * Summary:
 379:Generated_Source\PSoC4/CyDMA.c **** *  Returns the pointer to the interrupt callback function for the specified DMA
 380:Generated_Source\PSoC4/CyDMA.c **** *  channel.
 381:Generated_Source\PSoC4/CyDMA.c **** *
 382:Generated_Source\PSoC4/CyDMA.c **** * Parameters:
 383:Generated_Source\PSoC4/CyDMA.c **** *  channel: Channel used by this function.
 384:Generated_Source\PSoC4/CyDMA.c **** *
 385:Generated_Source\PSoC4/CyDMA.c **** * Return:
 386:Generated_Source\PSoC4/CyDMA.c **** *  Callback function pointer for the specified channel.
 387:Generated_Source\PSoC4/CyDMA.c **** *
 388:Generated_Source\PSoC4/CyDMA.c **** *******************************************************************************/
 389:Generated_Source\PSoC4/CyDMA.c **** cydma_callback_t CyDmaGetInterruptCallback(int32 channel)
 390:Generated_Source\PSoC4/CyDMA.c **** {
 391:Generated_Source\PSoC4/CyDMA.c ****     CYASSERT((channel >= 0) && (channel < CYDMA_CH_NR));
 392:Generated_Source\PSoC4/CyDMA.c ****     
 393:Generated_Source\PSoC4/CyDMA.c ****     return (CyDmaInterruptCallback[channel]);
 394:Generated_Source\PSoC4/CyDMA.c **** }
 395:Generated_Source\PSoC4/CyDMA.c **** 
 396:Generated_Source\PSoC4/CyDMA.c **** 
 397:Generated_Source\PSoC4/CyDMA.c **** /*******************************************************************************
 398:Generated_Source\PSoC4/CyDMA.c **** * Function Name: CyDmaInterrupt
 399:Generated_Source\PSoC4/CyDMA.c **** ********************************************************************************
 400:Generated_Source\PSoC4/CyDMA.c **** *
 401:Generated_Source\PSoC4/CyDMA.c **** * Summary:
 402:Generated_Source\PSoC4/CyDMA.c **** *  The default ISR for DMA interrupts. The handler checks which DMA channel has
 403:Generated_Source\PSoC4/CyDMA.c **** *  triggered the interrupt and calls the user defined callback function.
 404:Generated_Source\PSoC4/CyDMA.c **** *  The callback function is set using CyDmaSetInteruptCallback() API.
 405:Generated_Source\PSoC4/CyDMA.c **** *
 406:Generated_Source\PSoC4/CyDMA.c **** * Parameters:
 407:Generated_Source\PSoC4/CyDMA.c **** *  None.
 408:Generated_Source\PSoC4/CyDMA.c **** *
 409:Generated_Source\PSoC4/CyDMA.c **** * Return:
 410:Generated_Source\PSoC4/CyDMA.c **** *  None.
 411:Generated_Source\PSoC4/CyDMA.c **** *
 412:Generated_Source\PSoC4/CyDMA.c **** * Side Effects:
 413:Generated_Source\PSoC4/CyDMA.c **** *  This function clears the pending interrupts.
 414:Generated_Source\PSoC4/CyDMA.c **** *
 415:Generated_Source\PSoC4/CyDMA.c **** *******************************************************************************/
 416:Generated_Source\PSoC4/CyDMA.c **** CY_ISR(CyDmaInterrupt)
 417:Generated_Source\PSoC4/CyDMA.c **** {
  28              		.loc 1 417 0
  29              		.cfi_startproc
  30              		@ args = 0, pretend = 0, frame = 0
  31              		@ frame_needed = 0, uses_anonymous_args = 0
  32              	.LVL0:
  33 0000 70B5     		push	{r4, r5, r6, lr}
  34              		.cfi_def_cfa_offset 16
  35              		.cfi_offset 4, -16
  36              		.cfi_offset 5, -12
  37              		.cfi_offset 6, -8
  38              		.cfi_offset 14, -4
 418:Generated_Source\PSoC4/CyDMA.c ****     uint32 intr;
ARM GAS  C:\Users\theGu\AppData\Local\Temp\ccssehMe.s 			page 9


 419:Generated_Source\PSoC4/CyDMA.c ****     uint32 cbIdx = 0u;
 420:Generated_Source\PSoC4/CyDMA.c **** 
 421:Generated_Source\PSoC4/CyDMA.c ****     /* Get interrupt source. */
 422:Generated_Source\PSoC4/CyDMA.c ****     intr = CYDMA_INTR_MASKED_REG;
 423:Generated_Source\PSoC4/CyDMA.c **** 
 424:Generated_Source\PSoC4/CyDMA.c ****     /* Clear pending interrupts. */
 425:Generated_Source\PSoC4/CyDMA.c ****     CYDMA_INTR_REG = intr;
 426:Generated_Source\PSoC4/CyDMA.c **** 
 427:Generated_Source\PSoC4/CyDMA.c ****     /* Call user defined callback functions for triggered interrupt sources. */
 428:Generated_Source\PSoC4/CyDMA.c ****     while(0u != intr)
  39              		.loc 1 428 0
  40 0002 0025     		movs	r5, #0
 429:Generated_Source\PSoC4/CyDMA.c ****     {
 430:Generated_Source\PSoC4/CyDMA.c ****         if(0u != (intr & 0x1u))
  41              		.loc 1 430 0
  42 0004 0126     		movs	r6, #1
 422:Generated_Source\PSoC4/CyDMA.c **** 
  43              		.loc 1 422 0
  44 0006 074B     		ldr	r3, .L10
  45 0008 1C68     		ldr	r4, [r3]
  46              	.LVL1:
 425:Generated_Source\PSoC4/CyDMA.c **** 
  47              		.loc 1 425 0
  48 000a 074B     		ldr	r3, .L10+4
  49 000c 1C60     		str	r4, [r3]
  50              	.LVL2:
  51              	.L2:
 428:Generated_Source\PSoC4/CyDMA.c ****     {
  52              		.loc 1 428 0
  53 000e 002C     		cmp	r4, #0
  54 0010 07D0     		beq	.L9
  55              		.loc 1 430 0
  56 0012 3442     		tst	r4, r6
  57 0014 02D0     		beq	.L3
 431:Generated_Source\PSoC4/CyDMA.c ****         {
 432:Generated_Source\PSoC4/CyDMA.c ****             CyDmaInterruptCallback[cbIdx]();
  58              		.loc 1 432 0
  59 0016 054B     		ldr	r3, .L10+8
  60 0018 EB58     		ldr	r3, [r5, r3]
  61 001a 9847     		blx	r3
  62              	.LVL3:
  63              	.L3:
 433:Generated_Source\PSoC4/CyDMA.c ****         }
 434:Generated_Source\PSoC4/CyDMA.c ****         intr >>= 1;
  64              		.loc 1 434 0
  65 001c 6408     		lsrs	r4, r4, #1
  66              	.LVL4:
  67 001e 0435     		adds	r5, r5, #4
  68 0020 F5E7     		b	.L2
  69              	.L9:
 435:Generated_Source\PSoC4/CyDMA.c ****         ++cbIdx;
 436:Generated_Source\PSoC4/CyDMA.c ****     }
 437:Generated_Source\PSoC4/CyDMA.c **** }
  70              		.loc 1 437 0
  71              		@ sp needed
  72              	.LVL5:
  73 0022 70BD     		pop	{r4, r5, r6, pc}
ARM GAS  C:\Users\theGu\AppData\Local\Temp\ccssehMe.s 			page 10


  74              	.L11:
  75              		.align	2
  76              	.L10:
  77 0024 FC171040 		.word	1074796540
  78 0028 F0171040 		.word	1074796528
  79 002c 00000000 		.word	.LANCHOR0
  80              		.cfi_endproc
  81              	.LFE15:
  82              		.size	CyDmaInterrupt, .-CyDmaInterrupt
  83              		.section	.text.CyDmaDefaultInterruptCallback,"ax",%progbits
  84              		.align	1
  85              		.code	16
  86              		.thumb_func
  87              		.type	CyDmaDefaultInterruptCallback, %function
  88              	CyDmaDefaultInterruptCallback:
  89              	.LFB16:
 438:Generated_Source\PSoC4/CyDMA.c **** 
 439:Generated_Source\PSoC4/CyDMA.c **** 
 440:Generated_Source\PSoC4/CyDMA.c **** /*******************************************************************************
 441:Generated_Source\PSoC4/CyDMA.c **** * Function Name: CyDmaDefaultInterruptCallback
 442:Generated_Source\PSoC4/CyDMA.c **** ********************************************************************************
 443:Generated_Source\PSoC4/CyDMA.c **** *
 444:Generated_Source\PSoC4/CyDMA.c **** * Summary:
 445:Generated_Source\PSoC4/CyDMA.c **** *  This function is invoked when the user defined callback function is undefined
 446:Generated_Source\PSoC4/CyDMA.c **** *  for the interrupt source.
 447:Generated_Source\PSoC4/CyDMA.c **** *
 448:Generated_Source\PSoC4/CyDMA.c **** * Parameters:
 449:Generated_Source\PSoC4/CyDMA.c **** *  None.
 450:Generated_Source\PSoC4/CyDMA.c **** *
 451:Generated_Source\PSoC4/CyDMA.c **** * Return:
 452:Generated_Source\PSoC4/CyDMA.c **** *  None.
 453:Generated_Source\PSoC4/CyDMA.c **** *
 454:Generated_Source\PSoC4/CyDMA.c **** *******************************************************************************/
 455:Generated_Source\PSoC4/CyDMA.c **** static void CyDmaDefaultInterruptCallback(void)
 456:Generated_Source\PSoC4/CyDMA.c **** {
  90              		.loc 1 456 0
  91              		.cfi_startproc
  92              		@ args = 0, pretend = 0, frame = 0
  93              		@ frame_needed = 0, uses_anonymous_args = 0
  94              		@ link register save eliminated.
 457:Generated_Source\PSoC4/CyDMA.c ****     /* Halt CPU in debug mode. We get here because there is no user defined
 458:Generated_Source\PSoC4/CyDMA.c ****     * callback function for the interrupt source. You should either set a
 459:Generated_Source\PSoC4/CyDMA.c ****     * callback function or disable generating an interrupt from this
 460:Generated_Source\PSoC4/CyDMA.c ****     * interrupt source.
 461:Generated_Source\PSoC4/CyDMA.c ****     * To set a callback, use the CyDmaSetInterruptCallback() API function.
 462:Generated_Source\PSoC4/CyDMA.c ****     * To disable interrupt generation, write '0' to the corresponding bit
 463:Generated_Source\PSoC4/CyDMA.c ****     * in the interrupt mask by calling CyDmaSetInterruptSourceMask().
 464:Generated_Source\PSoC4/CyDMA.c ****     */
 465:Generated_Source\PSoC4/CyDMA.c ****     CYASSERT(0 != 0);
 466:Generated_Source\PSoC4/CyDMA.c **** }
  95              		.loc 1 466 0
  96              		@ sp needed
  97 0000 7047     		bx	lr
  98              		.cfi_endproc
  99              	.LFE16:
 100              		.size	CyDmaDefaultInterruptCallback, .-CyDmaDefaultInterruptCallback
 101              		.section	.text.CyDmaDisable,"ax",%progbits
ARM GAS  C:\Users\theGu\AppData\Local\Temp\ccssehMe.s 			page 11


 102              		.align	1
 103              		.global	CyDmaDisable
 104              		.code	16
 105              		.thumb_func
 106              		.type	CyDmaDisable, %function
 107              	CyDmaDisable:
 108              	.LFB2:
 106:Generated_Source\PSoC4/CyDMA.c ****     CYDMA_CTL_REG = (uint32)~CYDMA_ENABLED;
 109              		.loc 1 106 0
 110              		.cfi_startproc
 111              		@ args = 0, pretend = 0, frame = 0
 112              		@ frame_needed = 0, uses_anonymous_args = 0
 113              		@ link register save eliminated.
 107:Generated_Source\PSoC4/CyDMA.c **** }
 114              		.loc 1 107 0
 115 0000 014A     		ldr	r2, .L14
 116 0002 024B     		ldr	r3, .L14+4
 108:Generated_Source\PSoC4/CyDMA.c **** 
 117              		.loc 1 108 0
 118              		@ sp needed
 107:Generated_Source\PSoC4/CyDMA.c **** }
 119              		.loc 1 107 0
 120 0004 1A60     		str	r2, [r3]
 108:Generated_Source\PSoC4/CyDMA.c **** 
 121              		.loc 1 108 0
 122 0006 7047     		bx	lr
 123              	.L15:
 124              		.align	2
 125              	.L14:
 126 0008 FFFFFF7F 		.word	2147483647
 127 000c 00101040 		.word	1074794496
 128              		.cfi_endproc
 129              	.LFE2:
 130              		.size	CyDmaDisable, .-CyDmaDisable
 131              		.section	.text.CyDmaGetStatus,"ax",%progbits
 132              		.align	1
 133              		.global	CyDmaGetStatus
 134              		.code	16
 135              		.thumb_func
 136              		.type	CyDmaGetStatus, %function
 137              	CyDmaGetStatus:
 138              	.LFB3:
 134:Generated_Source\PSoC4/CyDMA.c ****     return (CYDMA_STATUS_REG);
 139              		.loc 1 134 0
 140              		.cfi_startproc
 141              		@ args = 0, pretend = 0, frame = 0
 142              		@ frame_needed = 0, uses_anonymous_args = 0
 143              		@ link register save eliminated.
 135:Generated_Source\PSoC4/CyDMA.c **** }
 144              		.loc 1 135 0
 145 0000 014B     		ldr	r3, .L17
 136:Generated_Source\PSoC4/CyDMA.c **** 
 146              		.loc 1 136 0
 147              		@ sp needed
 135:Generated_Source\PSoC4/CyDMA.c **** }
 148              		.loc 1 135 0
 149 0002 1868     		ldr	r0, [r3]
ARM GAS  C:\Users\theGu\AppData\Local\Temp\ccssehMe.s 			page 12


 136:Generated_Source\PSoC4/CyDMA.c **** 
 150              		.loc 1 136 0
 151 0004 7047     		bx	lr
 152              	.L18:
 153 0006 C046     		.align	2
 154              	.L17:
 155 0008 10101040 		.word	1074794512
 156              		.cfi_endproc
 157              	.LFE3:
 158              		.size	CyDmaGetStatus, .-CyDmaGetStatus
 159              		.section	.text.CyDmaGetActiveChannels,"ax",%progbits
 160              		.align	1
 161              		.global	CyDmaGetActiveChannels
 162              		.code	16
 163              		.thumb_func
 164              		.type	CyDmaGetActiveChannels, %function
 165              	CyDmaGetActiveChannels:
 166              	.LFB4:
 155:Generated_Source\PSoC4/CyDMA.c ****     return (CYDMA_STATUS_CH_ACT_REG);
 167              		.loc 1 155 0
 168              		.cfi_startproc
 169              		@ args = 0, pretend = 0, frame = 0
 170              		@ frame_needed = 0, uses_anonymous_args = 0
 171              		@ link register save eliminated.
 156:Generated_Source\PSoC4/CyDMA.c **** }
 172              		.loc 1 156 0
 173 0000 014B     		ldr	r3, .L20
 157:Generated_Source\PSoC4/CyDMA.c **** 
 174              		.loc 1 157 0
 175              		@ sp needed
 156:Generated_Source\PSoC4/CyDMA.c **** }
 176              		.loc 1 156 0
 177 0002 1868     		ldr	r0, [r3]
 157:Generated_Source\PSoC4/CyDMA.c **** 
 178              		.loc 1 157 0
 179 0004 7047     		bx	lr
 180              	.L21:
 181 0006 C046     		.align	2
 182              	.L20:
 183 0008 1C101040 		.word	1074794524
 184              		.cfi_endproc
 185              	.LFE4:
 186              		.size	CyDmaGetActiveChannels, .-CyDmaGetActiveChannels
 187              		.section	.text.CyDmaGetActiveSrcAddress,"ax",%progbits
 188              		.align	1
 189              		.global	CyDmaGetActiveSrcAddress
 190              		.code	16
 191              		.thumb_func
 192              		.type	CyDmaGetActiveSrcAddress, %function
 193              	CyDmaGetActiveSrcAddress:
 194              	.LFB5:
 183:Generated_Source\PSoC4/CyDMA.c ****     return ((void *)CYDMA_STATUS_SRC_ADDR_REG);
 195              		.loc 1 183 0
 196              		.cfi_startproc
 197              		@ args = 0, pretend = 0, frame = 0
 198              		@ frame_needed = 0, uses_anonymous_args = 0
 199              		@ link register save eliminated.
ARM GAS  C:\Users\theGu\AppData\Local\Temp\ccssehMe.s 			page 13


 184:Generated_Source\PSoC4/CyDMA.c **** }
 200              		.loc 1 184 0
 201 0000 014B     		ldr	r3, .L23
 185:Generated_Source\PSoC4/CyDMA.c **** 
 202              		.loc 1 185 0
 203              		@ sp needed
 184:Generated_Source\PSoC4/CyDMA.c **** }
 204              		.loc 1 184 0
 205 0002 1868     		ldr	r0, [r3]
 185:Generated_Source\PSoC4/CyDMA.c **** 
 206              		.loc 1 185 0
 207 0004 7047     		bx	lr
 208              	.L24:
 209 0006 C046     		.align	2
 210              	.L23:
 211 0008 14101040 		.word	1074794516
 212              		.cfi_endproc
 213              	.LFE5:
 214              		.size	CyDmaGetActiveSrcAddress, .-CyDmaGetActiveSrcAddress
 215              		.section	.text.CyDmaGetActiveDstAddress,"ax",%progbits
 216              		.align	1
 217              		.global	CyDmaGetActiveDstAddress
 218              		.code	16
 219              		.thumb_func
 220              		.type	CyDmaGetActiveDstAddress, %function
 221              	CyDmaGetActiveDstAddress:
 222              	.LFB6:
 211:Generated_Source\PSoC4/CyDMA.c ****     return ((void *)CYDMA_STATUS_DST_ADDR_REG);
 223              		.loc 1 211 0
 224              		.cfi_startproc
 225              		@ args = 0, pretend = 0, frame = 0
 226              		@ frame_needed = 0, uses_anonymous_args = 0
 227              		@ link register save eliminated.
 212:Generated_Source\PSoC4/CyDMA.c **** }
 228              		.loc 1 212 0
 229 0000 014B     		ldr	r3, .L26
 213:Generated_Source\PSoC4/CyDMA.c **** 
 230              		.loc 1 213 0
 231              		@ sp needed
 212:Generated_Source\PSoC4/CyDMA.c **** }
 232              		.loc 1 212 0
 233 0002 1868     		ldr	r0, [r3]
 213:Generated_Source\PSoC4/CyDMA.c **** 
 234              		.loc 1 213 0
 235 0004 7047     		bx	lr
 236              	.L27:
 237 0006 C046     		.align	2
 238              	.L26:
 239 0008 18101040 		.word	1074794520
 240              		.cfi_endproc
 241              	.LFE6:
 242              		.size	CyDmaGetActiveDstAddress, .-CyDmaGetActiveDstAddress
 243              		.section	.text.CyDmaSetInterruptVector,"ax",%progbits
 244              		.align	1
 245              		.global	CyDmaSetInterruptVector
 246              		.code	16
 247              		.thumb_func
ARM GAS  C:\Users\theGu\AppData\Local\Temp\ccssehMe.s 			page 14


 248              		.type	CyDmaSetInterruptVector, %function
 249              	CyDmaSetInterruptVector:
 250              	.LFB7:
 240:Generated_Source\PSoC4/CyDMA.c ****     (void)CyIntSetVector(CYDMA_INTR_NUMBER, interruptVector);
 251              		.loc 1 240 0
 252              		.cfi_startproc
 253              		@ args = 0, pretend = 0, frame = 0
 254              		@ frame_needed = 0, uses_anonymous_args = 0
 255              	.LVL6:
 256 0000 10B5     		push	{r4, lr}
 257              		.cfi_def_cfa_offset 8
 258              		.cfi_offset 4, -8
 259              		.cfi_offset 14, -4
 240:Generated_Source\PSoC4/CyDMA.c ****     (void)CyIntSetVector(CYDMA_INTR_NUMBER, interruptVector);
 260              		.loc 1 240 0
 261 0002 0100     		movs	r1, r0
 241:Generated_Source\PSoC4/CyDMA.c **** }
 262              		.loc 1 241 0
 263 0004 0E20     		movs	r0, #14
 264              	.LVL7:
 265 0006 FFF7FEFF 		bl	CyIntSetVector
 266              	.LVL8:
 242:Generated_Source\PSoC4/CyDMA.c **** 
 267              		.loc 1 242 0
 268              		@ sp needed
 269 000a 10BD     		pop	{r4, pc}
 270              		.cfi_endproc
 271              	.LFE7:
 272              		.size	CyDmaSetInterruptVector, .-CyDmaSetInterruptVector
 273              		.section	.text.CyDmaEnable,"ax",%progbits
 274              		.align	1
 275              		.global	CyDmaEnable
 276              		.code	16
 277              		.thumb_func
 278              		.type	CyDmaEnable, %function
 279              	CyDmaEnable:
 280              	.LFB1:
  75:Generated_Source\PSoC4/CyDMA.c ****     static uint8 initIntrVector = 0u;
 281              		.loc 1 75 0
 282              		.cfi_startproc
 283              		@ args = 0, pretend = 0, frame = 0
 284              		@ frame_needed = 0, uses_anonymous_args = 0
 285 0000 10B5     		push	{r4, lr}
 286              		.cfi_def_cfa_offset 8
 287              		.cfi_offset 4, -8
 288              		.cfi_offset 14, -4
  78:Generated_Source\PSoC4/CyDMA.c ****     {
 289              		.loc 1 78 0
 290 0002 094C     		ldr	r4, .L31
 291 0004 2378     		ldrb	r3, [r4]
 292 0006 002B     		cmp	r3, #0
 293 0008 08D1     		bne	.L30
  80:Generated_Source\PSoC4/CyDMA.c ****         CyIntSetPriority(CYDMA_INTR_NUMBER, CYDMA_INTR_PRIO);
 294              		.loc 1 80 0
 295 000a 0848     		ldr	r0, .L31+4
 296 000c FFF7FEFF 		bl	CyDmaSetInterruptVector
 297              	.LVL9:
ARM GAS  C:\Users\theGu\AppData\Local\Temp\ccssehMe.s 			page 15


  81:Generated_Source\PSoC4/CyDMA.c ****         initIntrVector = 1u;
 298              		.loc 1 81 0
 299 0010 0321     		movs	r1, #3
 300 0012 0E20     		movs	r0, #14
 301 0014 FFF7FEFF 		bl	CyIntSetPriority
 302              	.LVL10:
  82:Generated_Source\PSoC4/CyDMA.c ****     }
 303              		.loc 1 82 0
 304 0018 0123     		movs	r3, #1
 305 001a 2370     		strb	r3, [r4]
 306              	.L30:
  84:Generated_Source\PSoC4/CyDMA.c **** }
 307              		.loc 1 84 0
 308 001c 8022     		movs	r2, #128
 309 001e 044B     		ldr	r3, .L31+8
 310 0020 1206     		lsls	r2, r2, #24
 311 0022 1A60     		str	r2, [r3]
  85:Generated_Source\PSoC4/CyDMA.c **** 
 312              		.loc 1 85 0
 313              		@ sp needed
 314 0024 10BD     		pop	{r4, pc}
 315              	.L32:
 316 0026 C046     		.align	2
 317              	.L31:
 318 0028 00000000 		.word	.LANCHOR1
 319 002c 00000000 		.word	CyDmaInterrupt
 320 0030 00101040 		.word	1074794496
 321              		.cfi_endproc
 322              	.LFE1:
 323              		.size	CyDmaEnable, .-CyDmaEnable
 324              		.section	.text.CyDmaGetInterruptSource,"ax",%progbits
 325              		.align	1
 326              		.global	CyDmaGetInterruptSource
 327              		.code	16
 328              		.thumb_func
 329              		.type	CyDmaGetInterruptSource, %function
 330              	CyDmaGetInterruptSource:
 331              	.LFB8:
 260:Generated_Source\PSoC4/CyDMA.c ****     return (CYDMA_INTR_REG);
 332              		.loc 1 260 0
 333              		.cfi_startproc
 334              		@ args = 0, pretend = 0, frame = 0
 335              		@ frame_needed = 0, uses_anonymous_args = 0
 336              		@ link register save eliminated.
 261:Generated_Source\PSoC4/CyDMA.c **** }
 337              		.loc 1 261 0
 338 0000 014B     		ldr	r3, .L34
 262:Generated_Source\PSoC4/CyDMA.c **** 
 339              		.loc 1 262 0
 340              		@ sp needed
 261:Generated_Source\PSoC4/CyDMA.c **** }
 341              		.loc 1 261 0
 342 0002 1868     		ldr	r0, [r3]
 262:Generated_Source\PSoC4/CyDMA.c **** 
 343              		.loc 1 262 0
 344 0004 7047     		bx	lr
 345              	.L35:
ARM GAS  C:\Users\theGu\AppData\Local\Temp\ccssehMe.s 			page 16


 346 0006 C046     		.align	2
 347              	.L34:
 348 0008 F0171040 		.word	1074796528
 349              		.cfi_endproc
 350              	.LFE8:
 351              		.size	CyDmaGetInterruptSource, .-CyDmaGetInterruptSource
 352              		.section	.text.CyDmaClearInterruptSource,"ax",%progbits
 353              		.align	1
 354              		.global	CyDmaClearInterruptSource
 355              		.code	16
 356              		.thumb_func
 357              		.type	CyDmaClearInterruptSource, %function
 358              	CyDmaClearInterruptSource:
 359              	.LFB9:
 280:Generated_Source\PSoC4/CyDMA.c ****     CYDMA_INTR_REG = interruptMask;
 360              		.loc 1 280 0
 361              		.cfi_startproc
 362              		@ args = 0, pretend = 0, frame = 0
 363              		@ frame_needed = 0, uses_anonymous_args = 0
 364              		@ link register save eliminated.
 365              	.LVL11:
 281:Generated_Source\PSoC4/CyDMA.c **** }
 366              		.loc 1 281 0
 367 0000 014B     		ldr	r3, .L37
 282:Generated_Source\PSoC4/CyDMA.c **** 
 368              		.loc 1 282 0
 369              		@ sp needed
 281:Generated_Source\PSoC4/CyDMA.c **** }
 370              		.loc 1 281 0
 371 0002 1860     		str	r0, [r3]
 282:Generated_Source\PSoC4/CyDMA.c **** 
 372              		.loc 1 282 0
 373 0004 7047     		bx	lr
 374              	.L38:
 375 0006 C046     		.align	2
 376              	.L37:
 377 0008 F0171040 		.word	1074796528
 378              		.cfi_endproc
 379              	.LFE9:
 380              		.size	CyDmaClearInterruptSource, .-CyDmaClearInterruptSource
 381              		.section	.text.CyDmaSetInterruptSourceMask,"ax",%progbits
 382              		.align	1
 383              		.global	CyDmaSetInterruptSourceMask
 384              		.code	16
 385              		.thumb_func
 386              		.type	CyDmaSetInterruptSourceMask, %function
 387              	CyDmaSetInterruptSourceMask:
 388              	.LFB10:
 300:Generated_Source\PSoC4/CyDMA.c ****     CYDMA_INTR_MASK_REG = interruptMask;
 389              		.loc 1 300 0
 390              		.cfi_startproc
 391              		@ args = 0, pretend = 0, frame = 0
 392              		@ frame_needed = 0, uses_anonymous_args = 0
 393              		@ link register save eliminated.
 394              	.LVL12:
 301:Generated_Source\PSoC4/CyDMA.c **** }
 395              		.loc 1 301 0
ARM GAS  C:\Users\theGu\AppData\Local\Temp\ccssehMe.s 			page 17


 396 0000 014B     		ldr	r3, .L40
 302:Generated_Source\PSoC4/CyDMA.c **** 
 397              		.loc 1 302 0
 398              		@ sp needed
 301:Generated_Source\PSoC4/CyDMA.c **** }
 399              		.loc 1 301 0
 400 0002 1860     		str	r0, [r3]
 302:Generated_Source\PSoC4/CyDMA.c **** 
 401              		.loc 1 302 0
 402 0004 7047     		bx	lr
 403              	.L41:
 404 0006 C046     		.align	2
 405              	.L40:
 406 0008 F8171040 		.word	1074796536
 407              		.cfi_endproc
 408              	.LFE10:
 409              		.size	CyDmaSetInterruptSourceMask, .-CyDmaSetInterruptSourceMask
 410              		.section	.text.CyDmaGetInterruptSourceMask,"ax",%progbits
 411              		.align	1
 412              		.global	CyDmaGetInterruptSourceMask
 413              		.code	16
 414              		.thumb_func
 415              		.type	CyDmaGetInterruptSourceMask, %function
 416              	CyDmaGetInterruptSourceMask:
 417              	.LFB11:
 320:Generated_Source\PSoC4/CyDMA.c ****     return (CYDMA_INTR_MASK_REG);
 418              		.loc 1 320 0
 419              		.cfi_startproc
 420              		@ args = 0, pretend = 0, frame = 0
 421              		@ frame_needed = 0, uses_anonymous_args = 0
 422              		@ link register save eliminated.
 321:Generated_Source\PSoC4/CyDMA.c **** }
 423              		.loc 1 321 0
 424 0000 014B     		ldr	r3, .L43
 322:Generated_Source\PSoC4/CyDMA.c **** 
 425              		.loc 1 322 0
 426              		@ sp needed
 321:Generated_Source\PSoC4/CyDMA.c **** }
 427              		.loc 1 321 0
 428 0002 1868     		ldr	r0, [r3]
 322:Generated_Source\PSoC4/CyDMA.c **** 
 429              		.loc 1 322 0
 430 0004 7047     		bx	lr
 431              	.L44:
 432 0006 C046     		.align	2
 433              	.L43:
 434 0008 F8171040 		.word	1074796536
 435              		.cfi_endproc
 436              	.LFE11:
 437              		.size	CyDmaGetInterruptSourceMask, .-CyDmaGetInterruptSourceMask
 438              		.section	.text.CyDmaGetInterruptSourceMasked,"ax",%progbits
 439              		.align	1
 440              		.global	CyDmaGetInterruptSourceMasked
 441              		.code	16
 442              		.thumb_func
 443              		.type	CyDmaGetInterruptSourceMasked, %function
 444              	CyDmaGetInterruptSourceMasked:
ARM GAS  C:\Users\theGu\AppData\Local\Temp\ccssehMe.s 			page 18


 445              	.LFB12:
 340:Generated_Source\PSoC4/CyDMA.c ****     return (CYDMA_INTR_MASKED_REG);
 446              		.loc 1 340 0
 447              		.cfi_startproc
 448              		@ args = 0, pretend = 0, frame = 0
 449              		@ frame_needed = 0, uses_anonymous_args = 0
 450              		@ link register save eliminated.
 341:Generated_Source\PSoC4/CyDMA.c **** }
 451              		.loc 1 341 0
 452 0000 014B     		ldr	r3, .L46
 342:Generated_Source\PSoC4/CyDMA.c **** 
 453              		.loc 1 342 0
 454              		@ sp needed
 341:Generated_Source\PSoC4/CyDMA.c **** }
 455              		.loc 1 341 0
 456 0002 1868     		ldr	r0, [r3]
 342:Generated_Source\PSoC4/CyDMA.c **** 
 457              		.loc 1 342 0
 458 0004 7047     		bx	lr
 459              	.L47:
 460 0006 C046     		.align	2
 461              	.L46:
 462 0008 FC171040 		.word	1074796540
 463              		.cfi_endproc
 464              	.LFE12:
 465              		.size	CyDmaGetInterruptSourceMasked, .-CyDmaGetInterruptSourceMasked
 466              		.section	.text.CyDmaSetInterruptCallback,"ax",%progbits
 467              		.align	1
 468              		.global	CyDmaSetInterruptCallback
 469              		.code	16
 470              		.thumb_func
 471              		.type	CyDmaSetInterruptCallback, %function
 472              	CyDmaSetInterruptCallback:
 473              	.LFB13:
 363:Generated_Source\PSoC4/CyDMA.c ****     cydma_callback_t prevCallback;
 474              		.loc 1 363 0
 475              		.cfi_startproc
 476              		@ args = 0, pretend = 0, frame = 0
 477              		@ frame_needed = 0, uses_anonymous_args = 0
 478              		@ link register save eliminated.
 479              	.LVL13:
 368:Generated_Source\PSoC4/CyDMA.c ****     CyDmaInterruptCallback[channel] = callback;
 480              		.loc 1 368 0
 481 0000 024A     		ldr	r2, .L49
 482 0002 8300     		lsls	r3, r0, #2
 483 0004 9858     		ldr	r0, [r3, r2]
 484              	.LVL14:
 371:Generated_Source\PSoC4/CyDMA.c **** 
 485              		.loc 1 371 0
 486              		@ sp needed
 369:Generated_Source\PSoC4/CyDMA.c ****     return (prevCallback);
 487              		.loc 1 369 0
 488 0006 9950     		str	r1, [r3, r2]
 371:Generated_Source\PSoC4/CyDMA.c **** 
 489              		.loc 1 371 0
 490 0008 7047     		bx	lr
 491              	.L50:
ARM GAS  C:\Users\theGu\AppData\Local\Temp\ccssehMe.s 			page 19


 492 000a C046     		.align	2
 493              	.L49:
 494 000c 00000000 		.word	.LANCHOR0
 495              		.cfi_endproc
 496              	.LFE13:
 497              		.size	CyDmaSetInterruptCallback, .-CyDmaSetInterruptCallback
 498              		.section	.text.CyDmaGetInterruptCallback,"ax",%progbits
 499              		.align	1
 500              		.global	CyDmaGetInterruptCallback
 501              		.code	16
 502              		.thumb_func
 503              		.type	CyDmaGetInterruptCallback, %function
 504              	CyDmaGetInterruptCallback:
 505              	.LFB14:
 390:Generated_Source\PSoC4/CyDMA.c ****     CYASSERT((channel >= 0) && (channel < CYDMA_CH_NR));
 506              		.loc 1 390 0
 507              		.cfi_startproc
 508              		@ args = 0, pretend = 0, frame = 0
 509              		@ frame_needed = 0, uses_anonymous_args = 0
 510              		@ link register save eliminated.
 511              	.LVL15:
 393:Generated_Source\PSoC4/CyDMA.c **** }
 512              		.loc 1 393 0
 513 0000 014B     		ldr	r3, .L52
 514 0002 8000     		lsls	r0, r0, #2
 515              	.LVL16:
 516 0004 C058     		ldr	r0, [r0, r3]
 394:Generated_Source\PSoC4/CyDMA.c **** 
 517              		.loc 1 394 0
 518              		@ sp needed
 519 0006 7047     		bx	lr
 520              	.L53:
 521              		.align	2
 522              	.L52:
 523 0008 00000000 		.word	.LANCHOR0
 524              		.cfi_endproc
 525              	.LFE14:
 526              		.size	CyDmaGetInterruptCallback, .-CyDmaGetInterruptCallback
 527              		.section	.text.CyDmaChAlloc,"ax",%progbits
 528              		.align	1
 529              		.global	CyDmaChAlloc
 530              		.code	16
 531              		.thumb_func
 532              		.type	CyDmaChAlloc, %function
 533              	CyDmaChAlloc:
 534              	.LFB17:
 467:Generated_Source\PSoC4/CyDMA.c **** 
 468:Generated_Source\PSoC4/CyDMA.c **** 
 469:Generated_Source\PSoC4/CyDMA.c **** /*******************************************************************************
 470:Generated_Source\PSoC4/CyDMA.c **** * Function Name: CyDmaChAlloc
 471:Generated_Source\PSoC4/CyDMA.c **** ********************************************************************************
 472:Generated_Source\PSoC4/CyDMA.c **** *
 473:Generated_Source\PSoC4/CyDMA.c **** * Summary:
 474:Generated_Source\PSoC4/CyDMA.c **** *  Allocates a channel number to use with later DMA functions.
 475:Generated_Source\PSoC4/CyDMA.c **** *
 476:Generated_Source\PSoC4/CyDMA.c **** * Parameters:
 477:Generated_Source\PSoC4/CyDMA.c **** *  None.
ARM GAS  C:\Users\theGu\AppData\Local\Temp\ccssehMe.s 			page 20


 478:Generated_Source\PSoC4/CyDMA.c **** *                   
 479:Generated_Source\PSoC4/CyDMA.c **** * Return:
 480:Generated_Source\PSoC4/CyDMA.c **** *  The allocated channel number. Zero is a valid channel number.
 481:Generated_Source\PSoC4/CyDMA.c **** *  CYDMA_INVALID_CHANNEL is returned if there are no channels available.
 482:Generated_Source\PSoC4/CyDMA.c **** *
 483:Generated_Source\PSoC4/CyDMA.c **** *******************************************************************************/
 484:Generated_Source\PSoC4/CyDMA.c **** int32 CyDmaChAlloc(void)
 485:Generated_Source\PSoC4/CyDMA.c **** {
 535              		.loc 1 485 0
 536              		.cfi_startproc
 537              		@ args = 0, pretend = 0, frame = 0
 538              		@ frame_needed = 0, uses_anonymous_args = 0
 539              		@ link register save eliminated.
 540              	.LVL17:
 486:Generated_Source\PSoC4/CyDMA.c ****     int32  channel = CYDMA_CH_NR-1;
 487:Generated_Source\PSoC4/CyDMA.c ****     uint32 channelMask = (uint32)(1UL << (CYDMA_CH_NR-1));
 541              		.loc 1 487 0
 542 0000 8023     		movs	r3, #128
 486:Generated_Source\PSoC4/CyDMA.c ****     int32  channel = CYDMA_CH_NR-1;
 543              		.loc 1 486 0
 544 0002 1F20     		movs	r0, #31
 488:Generated_Source\PSoC4/CyDMA.c ****     
 489:Generated_Source\PSoC4/CyDMA.c ****     while (channel >= 0)
 490:Generated_Source\PSoC4/CyDMA.c ****     {
 491:Generated_Source\PSoC4/CyDMA.c ****         if(0u == (CyDmaChannelUsedMask & channelMask))
 545              		.loc 1 491 0
 546 0004 054A     		ldr	r2, .L59
 487:Generated_Source\PSoC4/CyDMA.c ****     
 547              		.loc 1 487 0
 548 0006 1B06     		lsls	r3, r3, #24
 549              		.loc 1 491 0
 550 0008 5168     		ldr	r1, [r2, #4]
 551              	.LVL18:
 552              	.L57:
 553 000a 0B42     		tst	r3, r1
 554 000c 02D1     		bne	.L55
 492:Generated_Source\PSoC4/CyDMA.c ****         {
 493:Generated_Source\PSoC4/CyDMA.c ****             /* Mark channel as used and exit loop. */ 
 494:Generated_Source\PSoC4/CyDMA.c ****             CyDmaChannelUsedMask |= channelMask;
 555              		.loc 1 494 0
 556 000e 0B43     		orrs	r3, r1
 557              	.LVL19:
 558 0010 5360     		str	r3, [r2, #4]
 495:Generated_Source\PSoC4/CyDMA.c ****             break;
 559              		.loc 1 495 0
 560 0012 02E0     		b	.L56
 561              	.LVL20:
 562              	.L55:
 496:Generated_Source\PSoC4/CyDMA.c ****         }
 497:Generated_Source\PSoC4/CyDMA.c ****         channelMask >>= 1;
 563              		.loc 1 497 0
 564 0014 5B08     		lsrs	r3, r3, #1
 565              	.LVL21:
 489:Generated_Source\PSoC4/CyDMA.c ****     {
 566              		.loc 1 489 0
 567 0016 0138     		subs	r0, r0, #1
 568 0018 F7D2     		bcs	.L57
ARM GAS  C:\Users\theGu\AppData\Local\Temp\ccssehMe.s 			page 21


 569              	.LVL22:
 570              	.L56:
 498:Generated_Source\PSoC4/CyDMA.c ****         --channel;
 499:Generated_Source\PSoC4/CyDMA.c ****     }
 500:Generated_Source\PSoC4/CyDMA.c ****     return (channel);
 501:Generated_Source\PSoC4/CyDMA.c **** }
 571              		.loc 1 501 0
 572              		@ sp needed
 573 001a 7047     		bx	lr
 574              	.L60:
 575              		.align	2
 576              	.L59:
 577 001c 00000000 		.word	.LANCHOR1
 578              		.cfi_endproc
 579              	.LFE17:
 580              		.size	CyDmaChAlloc, .-CyDmaChAlloc
 581              		.section	.text.CyDmaChFree,"ax",%progbits
 582              		.align	1
 583              		.global	CyDmaChFree
 584              		.code	16
 585              		.thumb_func
 586              		.type	CyDmaChFree, %function
 587              	CyDmaChFree:
 588              	.LFB18:
 502:Generated_Source\PSoC4/CyDMA.c **** 
 503:Generated_Source\PSoC4/CyDMA.c **** 
 504:Generated_Source\PSoC4/CyDMA.c **** /*******************************************************************************
 505:Generated_Source\PSoC4/CyDMA.c **** * Function Name: CyDmaChFree
 506:Generated_Source\PSoC4/CyDMA.c **** ********************************************************************************
 507:Generated_Source\PSoC4/CyDMA.c **** *
 508:Generated_Source\PSoC4/CyDMA.c **** * Summary:
 509:Generated_Source\PSoC4/CyDMA.c **** *  Frees a channel handle allocated by CyDmaChAlloc(). Channels allocated for
 510:Generated_Source\PSoC4/CyDMA.c **** *  DMA instances placed on a schematic cannot be freed.
 511:Generated_Source\PSoC4/CyDMA.c **** *
 512:Generated_Source\PSoC4/CyDMA.c **** * Parameters:
 513:Generated_Source\PSoC4/CyDMA.c **** *  channel: The handle previously returned by CyDmaChAlloc().
 514:Generated_Source\PSoC4/CyDMA.c **** *                   
 515:Generated_Source\PSoC4/CyDMA.c **** * Return:
 516:Generated_Source\PSoC4/CyDMA.c **** *  CYRET_SUCCESS if successful.
 517:Generated_Source\PSoC4/CyDMA.c **** *  CYRET_BAD_PARAM if channel is invalid.
 518:Generated_Source\PSoC4/CyDMA.c **** *
 519:Generated_Source\PSoC4/CyDMA.c **** *******************************************************************************/
 520:Generated_Source\PSoC4/CyDMA.c **** cystatus CyDmaChFree(int32 channel)
 521:Generated_Source\PSoC4/CyDMA.c **** {
 589              		.loc 1 521 0
 590              		.cfi_startproc
 591              		@ args = 0, pretend = 0, frame = 0
 592              		@ frame_needed = 0, uses_anonymous_args = 0
 593              		@ link register save eliminated.
 594              	.LVL23:
 522:Generated_Source\PSoC4/CyDMA.c ****     uint32   channelMask;
 523:Generated_Source\PSoC4/CyDMA.c ****     cystatus result = CYRET_BAD_PARAM;
 524:Generated_Source\PSoC4/CyDMA.c **** 
 525:Generated_Source\PSoC4/CyDMA.c ****     CYASSERT((channel >= 0) && (channel < CYDMA_CH_NR));
 526:Generated_Source\PSoC4/CyDMA.c ****     
 527:Generated_Source\PSoC4/CyDMA.c ****     channelMask = (uint32)(1UL << channel);
 528:Generated_Source\PSoC4/CyDMA.c **** 
ARM GAS  C:\Users\theGu\AppData\Local\Temp\ccssehMe.s 			page 22


 529:Generated_Source\PSoC4/CyDMA.c ****     /* Check against attempt to free channel allocated for DMA instance
 530:Generated_Source\PSoC4/CyDMA.c ****     * placed on schematic.
 531:Generated_Source\PSoC4/CyDMA.c ****     */
 532:Generated_Source\PSoC4/CyDMA.c ****     if(0u == (channelMask & DMA_CHANNELS_USED__MASK))
 533:Generated_Source\PSoC4/CyDMA.c ****     {
 534:Generated_Source\PSoC4/CyDMA.c ****         CyDmaChannelUsedMask &= (uint32)~channelMask;
 595              		.loc 1 534 0
 596 0000 0123     		movs	r3, #1
 597 0002 8340     		lsls	r3, r3, r0
 598              	.LVL24:
 599 0004 024A     		ldr	r2, .L62
 535:Generated_Source\PSoC4/CyDMA.c ****         result = CYRET_SUCCESS;
 536:Generated_Source\PSoC4/CyDMA.c ****     }
 537:Generated_Source\PSoC4/CyDMA.c ****     
 538:Generated_Source\PSoC4/CyDMA.c ****     return (result);
 539:Generated_Source\PSoC4/CyDMA.c **** }
 600              		.loc 1 539 0
 601 0006 0020     		movs	r0, #0
 602              	.LVL25:
 534:Generated_Source\PSoC4/CyDMA.c ****         result = CYRET_SUCCESS;
 603              		.loc 1 534 0
 604 0008 5168     		ldr	r1, [r2, #4]
 605              		.loc 1 539 0
 606              		@ sp needed
 534:Generated_Source\PSoC4/CyDMA.c ****         result = CYRET_SUCCESS;
 607              		.loc 1 534 0
 608 000a 9943     		bics	r1, r3
 609 000c 5160     		str	r1, [r2, #4]
 610              	.LVL26:
 611              		.loc 1 539 0
 612 000e 7047     		bx	lr
 613              	.L63:
 614              		.align	2
 615              	.L62:
 616 0010 00000000 		.word	.LANCHOR1
 617              		.cfi_endproc
 618              	.LFE18:
 619              		.size	CyDmaChFree, .-CyDmaChFree
 620              		.section	.text.CyDmaChEnable,"ax",%progbits
 621              		.align	1
 622              		.global	CyDmaChEnable
 623              		.code	16
 624              		.thumb_func
 625              		.type	CyDmaChEnable, %function
 626              	CyDmaChEnable:
 627              	.LFB19:
 540:Generated_Source\PSoC4/CyDMA.c **** 
 541:Generated_Source\PSoC4/CyDMA.c **** 
 542:Generated_Source\PSoC4/CyDMA.c **** /*******************************************************************************
 543:Generated_Source\PSoC4/CyDMA.c **** * Function Name: CyDmaChEnable
 544:Generated_Source\PSoC4/CyDMA.c **** ********************************************************************************
 545:Generated_Source\PSoC4/CyDMA.c **** *
 546:Generated_Source\PSoC4/CyDMA.c **** * Summary:
 547:Generated_Source\PSoC4/CyDMA.c **** *  Enables the DMA channel.
 548:Generated_Source\PSoC4/CyDMA.c **** *
 549:Generated_Source\PSoC4/CyDMA.c **** * Parameters:
 550:Generated_Source\PSoC4/CyDMA.c **** *  channel: Channel used by this function.
ARM GAS  C:\Users\theGu\AppData\Local\Temp\ccssehMe.s 			page 23


 551:Generated_Source\PSoC4/CyDMA.c **** *                   
 552:Generated_Source\PSoC4/CyDMA.c **** * Return:
 553:Generated_Source\PSoC4/CyDMA.c **** *  None.
 554:Generated_Source\PSoC4/CyDMA.c **** *
 555:Generated_Source\PSoC4/CyDMA.c **** * Side effect:
 556:Generated_Source\PSoC4/CyDMA.c **** *  If this function is called before CyDmaSetConfiguration(), and
 557:Generated_Source\PSoC4/CyDMA.c **** *  CyDmaSetSrcAddress() and CyDmaSetDstAddress(), the operation of
 558:Generated_Source\PSoC4/CyDMA.c **** *  the DMA is undefined and could result in system data corruption. 
 559:Generated_Source\PSoC4/CyDMA.c **** *
 560:Generated_Source\PSoC4/CyDMA.c **** *******************************************************************************/
 561:Generated_Source\PSoC4/CyDMA.c **** void CyDmaChEnable(int32 channel)
 562:Generated_Source\PSoC4/CyDMA.c **** {
 628              		.loc 1 562 0
 629              		.cfi_startproc
 630              		@ args = 0, pretend = 0, frame = 0
 631              		@ frame_needed = 0, uses_anonymous_args = 0
 632              		@ link register save eliminated.
 633              	.LVL27:
 563:Generated_Source\PSoC4/CyDMA.c ****     CYASSERT((channel >= 0) && (channel < CYDMA_CH_NR));
 564:Generated_Source\PSoC4/CyDMA.c **** 
 565:Generated_Source\PSoC4/CyDMA.c ****     CYDMA_CH_CTL_BASE.ctl[channel] |= CYDMA_ENABLED;
 634              		.loc 1 565 0
 635 0000 8022     		movs	r2, #128
 636 0002 044B     		ldr	r3, .L65
 637 0004 8000     		lsls	r0, r0, #2
 638              	.LVL28:
 639 0006 C018     		adds	r0, r0, r3
 640 0008 0368     		ldr	r3, [r0]
 641 000a 1206     		lsls	r2, r2, #24
 642 000c 1343     		orrs	r3, r2
 643 000e 0360     		str	r3, [r0]
 566:Generated_Source\PSoC4/CyDMA.c **** }
 644              		.loc 1 566 0
 645              		@ sp needed
 646 0010 7047     		bx	lr
 647              	.L66:
 648 0012 C046     		.align	2
 649              	.L65:
 650 0014 80101040 		.word	1074794624
 651              		.cfi_endproc
 652              	.LFE19:
 653              		.size	CyDmaChEnable, .-CyDmaChEnable
 654              		.section	.text.CyDmaChDisable,"ax",%progbits
 655              		.align	1
 656              		.global	CyDmaChDisable
 657              		.code	16
 658              		.thumb_func
 659              		.type	CyDmaChDisable, %function
 660              	CyDmaChDisable:
 661              	.LFB20:
 567:Generated_Source\PSoC4/CyDMA.c **** 
 568:Generated_Source\PSoC4/CyDMA.c **** 
 569:Generated_Source\PSoC4/CyDMA.c **** /*******************************************************************************
 570:Generated_Source\PSoC4/CyDMA.c **** * Function Name: CyDmaChDisable
 571:Generated_Source\PSoC4/CyDMA.c **** ********************************************************************************
 572:Generated_Source\PSoC4/CyDMA.c **** *
 573:Generated_Source\PSoC4/CyDMA.c **** * Summary:
ARM GAS  C:\Users\theGu\AppData\Local\Temp\ccssehMe.s 			page 24


 574:Generated_Source\PSoC4/CyDMA.c **** *  Disables the DMA channel.
 575:Generated_Source\PSoC4/CyDMA.c **** *
 576:Generated_Source\PSoC4/CyDMA.c **** * Parameters:
 577:Generated_Source\PSoC4/CyDMA.c **** *  channel: Channel used by this function.
 578:Generated_Source\PSoC4/CyDMA.c **** *                   
 579:Generated_Source\PSoC4/CyDMA.c **** * Return:
 580:Generated_Source\PSoC4/CyDMA.c **** *  None.
 581:Generated_Source\PSoC4/CyDMA.c **** *
 582:Generated_Source\PSoC4/CyDMA.c **** * Side effect:
 583:Generated_Source\PSoC4/CyDMA.c **** *  If this function is called during a DMA transfer the transfer is aborted. 
 584:Generated_Source\PSoC4/CyDMA.c **** *
 585:Generated_Source\PSoC4/CyDMA.c **** *******************************************************************************/
 586:Generated_Source\PSoC4/CyDMA.c **** void CyDmaChDisable(int32 channel)
 587:Generated_Source\PSoC4/CyDMA.c **** {
 662              		.loc 1 587 0
 663              		.cfi_startproc
 664              		@ args = 0, pretend = 0, frame = 0
 665              		@ frame_needed = 0, uses_anonymous_args = 0
 666              		@ link register save eliminated.
 667              	.LVL29:
 668 0000 034B     		ldr	r3, .L68
 669 0002 8000     		lsls	r0, r0, #2
 670              	.LVL30:
 671 0004 C018     		adds	r0, r0, r3
 588:Generated_Source\PSoC4/CyDMA.c ****     CYASSERT((channel >= 0) && (channel < CYDMA_CH_NR));
 589:Generated_Source\PSoC4/CyDMA.c **** 
 590:Generated_Source\PSoC4/CyDMA.c ****     CYDMA_CH_CTL_BASE.ctl[channel] &= (uint32)~CYDMA_ENABLED;
 672              		.loc 1 590 0
 673 0006 0368     		ldr	r3, [r0]
 591:Generated_Source\PSoC4/CyDMA.c **** }
 674              		.loc 1 591 0
 675              		@ sp needed
 590:Generated_Source\PSoC4/CyDMA.c **** }
 676              		.loc 1 590 0
 677 0008 5B00     		lsls	r3, r3, #1
 678 000a 5B08     		lsrs	r3, r3, #1
 679 000c 0360     		str	r3, [r0]
 680              		.loc 1 591 0
 681 000e 7047     		bx	lr
 682              	.L69:
 683              		.align	2
 684              	.L68:
 685 0010 80101040 		.word	1074794624
 686              		.cfi_endproc
 687              	.LFE20:
 688              		.size	CyDmaChDisable, .-CyDmaChDisable
 689              		.section	.text.CyDmaTrigger,"ax",%progbits
 690              		.align	1
 691              		.global	CyDmaTrigger
 692              		.code	16
 693              		.thumb_func
 694              		.type	CyDmaTrigger, %function
 695              	CyDmaTrigger:
 696              	.LFB21:
 592:Generated_Source\PSoC4/CyDMA.c **** 
 593:Generated_Source\PSoC4/CyDMA.c **** 
 594:Generated_Source\PSoC4/CyDMA.c **** /*******************************************************************************
ARM GAS  C:\Users\theGu\AppData\Local\Temp\ccssehMe.s 			page 25


 595:Generated_Source\PSoC4/CyDMA.c **** * Function Name: CyDmaTrigger
 596:Generated_Source\PSoC4/CyDMA.c **** ********************************************************************************
 597:Generated_Source\PSoC4/CyDMA.c **** *
 598:Generated_Source\PSoC4/CyDMA.c **** * Summary:
 599:Generated_Source\PSoC4/CyDMA.c **** *  Triggers the DMA channel, this is useful only for software triggers. This is
 600:Generated_Source\PSoC4/CyDMA.c **** *  not needed when hardware triggers are used.
 601:Generated_Source\PSoC4/CyDMA.c **** *
 602:Generated_Source\PSoC4/CyDMA.c **** * Parameters:
 603:Generated_Source\PSoC4/CyDMA.c **** *  channel: Channel used by this function.
 604:Generated_Source\PSoC4/CyDMA.c **** *                   
 605:Generated_Source\PSoC4/CyDMA.c **** * Return:
 606:Generated_Source\PSoC4/CyDMA.c **** *  None. 
 607:Generated_Source\PSoC4/CyDMA.c **** *
 608:Generated_Source\PSoC4/CyDMA.c **** *******************************************************************************/
 609:Generated_Source\PSoC4/CyDMA.c **** void CyDmaTrigger(int32 channel)
 610:Generated_Source\PSoC4/CyDMA.c **** {
 697              		.loc 1 610 0
 698              		.cfi_startproc
 699              		@ args = 0, pretend = 0, frame = 0
 700              		@ frame_needed = 0, uses_anonymous_args = 0
 701              		@ link register save eliminated.
 702              	.LVL31:
 611:Generated_Source\PSoC4/CyDMA.c ****     /* The LUT is device-dependent, thus it is generated during the build process. */
 612:Generated_Source\PSoC4/CyDMA.c ****     static const uint32 trCtlLut[] = {0xC0020000U, 0xC0020100U, 0xC0020200U, 0xC0020208U};
 613:Generated_Source\PSoC4/CyDMA.c **** 
 614:Generated_Source\PSoC4/CyDMA.c ****     CYASSERT((channel >= 0) && (channel < CYDMA_CH_NR));
 615:Generated_Source\PSoC4/CyDMA.c **** 
 616:Generated_Source\PSoC4/CyDMA.c ****     CYDMA_TR_CTL_REG = trCtlLut[(uint32)channel >> CYDMA_TR_GROUP_SHR] | ((uint32)channel & CYDMA_T
 703              		.loc 1 616 0
 704 0000 0723     		movs	r3, #7
 705 0002 C208     		lsrs	r2, r0, #3
 706 0004 1840     		ands	r0, r3
 707              	.LVL32:
 708 0006 034B     		ldr	r3, .L71
 709 0008 9200     		lsls	r2, r2, #2
 710 000a D358     		ldr	r3, [r2, r3]
 617:Generated_Source\PSoC4/CyDMA.c **** }
 711              		.loc 1 617 0
 712              		@ sp needed
 616:Generated_Source\PSoC4/CyDMA.c **** }
 713              		.loc 1 616 0
 714 000c 1843     		orrs	r0, r3
 715 000e 024B     		ldr	r3, .L71+4
 716 0010 1860     		str	r0, [r3]
 717              		.loc 1 617 0
 718 0012 7047     		bx	lr
 719              	.L72:
 720              		.align	2
 721              	.L71:
 722 0014 00000000 		.word	.LANCHOR2
 723 0018 00060140 		.word	1073808896
 724              		.cfi_endproc
 725              	.LFE21:
 726              		.size	CyDmaTrigger, .-CyDmaTrigger
 727              		.section	.text.CyDmaSetPriority,"ax",%progbits
 728              		.align	1
 729              		.global	CyDmaSetPriority
ARM GAS  C:\Users\theGu\AppData\Local\Temp\ccssehMe.s 			page 26


 730              		.code	16
 731              		.thumb_func
 732              		.type	CyDmaSetPriority, %function
 733              	CyDmaSetPriority:
 734              	.LFB22:
 618:Generated_Source\PSoC4/CyDMA.c **** 
 619:Generated_Source\PSoC4/CyDMA.c **** 
 620:Generated_Source\PSoC4/CyDMA.c **** /*******************************************************************************
 621:Generated_Source\PSoC4/CyDMA.c **** * Function Name: CyDmaSetPriority
 622:Generated_Source\PSoC4/CyDMA.c **** ********************************************************************************
 623:Generated_Source\PSoC4/CyDMA.c **** *
 624:Generated_Source\PSoC4/CyDMA.c **** * Summary:
 625:Generated_Source\PSoC4/CyDMA.c **** *  Sets the priority for the channel.
 626:Generated_Source\PSoC4/CyDMA.c **** *
 627:Generated_Source\PSoC4/CyDMA.c **** * Parameters:
 628:Generated_Source\PSoC4/CyDMA.c **** *  channel:  Channel used by this function
 629:Generated_Source\PSoC4/CyDMA.c **** *  priority: Priority for channel. Priority can be 0,1,2, or 3.
 630:Generated_Source\PSoC4/CyDMA.c **** *            0 is the highest priority.
 631:Generated_Source\PSoC4/CyDMA.c **** *                   
 632:Generated_Source\PSoC4/CyDMA.c **** * Return:
 633:Generated_Source\PSoC4/CyDMA.c **** *  None.
 634:Generated_Source\PSoC4/CyDMA.c **** *
 635:Generated_Source\PSoC4/CyDMA.c **** * Side effect:
 636:Generated_Source\PSoC4/CyDMA.c **** *  This function should not be called while the channel is enabled.
 637:Generated_Source\PSoC4/CyDMA.c **** *
 638:Generated_Source\PSoC4/CyDMA.c **** *******************************************************************************/
 639:Generated_Source\PSoC4/CyDMA.c **** void CyDmaSetPriority(int32 channel, int32 priority)
 640:Generated_Source\PSoC4/CyDMA.c **** {
 735              		.loc 1 640 0
 736              		.cfi_startproc
 737              		@ args = 0, pretend = 0, frame = 0
 738              		@ frame_needed = 0, uses_anonymous_args = 0
 739              		@ link register save eliminated.
 740              	.LVL33:
 741 0000 044B     		ldr	r3, .L74
 742 0002 8000     		lsls	r0, r0, #2
 743              	.LVL34:
 744 0004 C018     		adds	r0, r0, r3
 641:Generated_Source\PSoC4/CyDMA.c ****     uint32 regValue;
 642:Generated_Source\PSoC4/CyDMA.c **** 
 643:Generated_Source\PSoC4/CyDMA.c ****     CYASSERT((channel  >= 0) && (channel  <  CYDMA_CH_NR));
 644:Generated_Source\PSoC4/CyDMA.c ****     CYASSERT((priority >= 0) && (priority <= CY_DMA_MAX_PRIO));
 645:Generated_Source\PSoC4/CyDMA.c **** 
 646:Generated_Source\PSoC4/CyDMA.c ****     regValue = CYDMA_CH_CTL_BASE.ctl[channel] & (uint32)~CYDMA_PRIO;
 745              		.loc 1 646 0
 746 0006 0268     		ldr	r2, [r0]
 747              	.LVL35:
 647:Generated_Source\PSoC4/CyDMA.c ****     CYDMA_CH_CTL_BASE.ctl[channel] = regValue | (uint32)((uint32)priority << CYDMA_PRIO_POS);
 748              		.loc 1 647 0
 749 0008 034B     		ldr	r3, .L74+4
 750 000a 0907     		lsls	r1, r1, #28
 751              	.LVL36:
 752 000c 1340     		ands	r3, r2
 753              	.LVL37:
 754 000e 1943     		orrs	r1, r3
 755 0010 0160     		str	r1, [r0]
 648:Generated_Source\PSoC4/CyDMA.c **** }
ARM GAS  C:\Users\theGu\AppData\Local\Temp\ccssehMe.s 			page 27


 756              		.loc 1 648 0
 757              		@ sp needed
 758 0012 7047     		bx	lr
 759              	.L75:
 760              		.align	2
 761              	.L74:
 762 0014 80101040 		.word	1074794624
 763 0018 FFFFFFCF 		.word	-805306369
 764              		.cfi_endproc
 765              	.LFE22:
 766              		.size	CyDmaSetPriority, .-CyDmaSetPriority
 767              		.section	.text.CyDmaGetPriority,"ax",%progbits
 768              		.align	1
 769              		.global	CyDmaGetPriority
 770              		.code	16
 771              		.thumb_func
 772              		.type	CyDmaGetPriority, %function
 773              	CyDmaGetPriority:
 774              	.LFB23:
 649:Generated_Source\PSoC4/CyDMA.c **** 
 650:Generated_Source\PSoC4/CyDMA.c **** 
 651:Generated_Source\PSoC4/CyDMA.c **** /*******************************************************************************
 652:Generated_Source\PSoC4/CyDMA.c **** * Function Name: CyDmaGetPriority
 653:Generated_Source\PSoC4/CyDMA.c **** ********************************************************************************
 654:Generated_Source\PSoC4/CyDMA.c **** *
 655:Generated_Source\PSoC4/CyDMA.c **** * Summary:
 656:Generated_Source\PSoC4/CyDMA.c **** *  Gets the priority for the channel.
 657:Generated_Source\PSoC4/CyDMA.c **** *
 658:Generated_Source\PSoC4/CyDMA.c **** * Parameters:
 659:Generated_Source\PSoC4/CyDMA.c **** *  channel: Channel used by this function.
 660:Generated_Source\PSoC4/CyDMA.c **** *                   
 661:Generated_Source\PSoC4/CyDMA.c **** * Return:
 662:Generated_Source\PSoC4/CyDMA.c **** *  Priority for channel. Priority can be 0,1,2, or 3. 0 is the highest priority.
 663:Generated_Source\PSoC4/CyDMA.c **** *
 664:Generated_Source\PSoC4/CyDMA.c **** *******************************************************************************/
 665:Generated_Source\PSoC4/CyDMA.c **** int32 CyDmaGetPriority(int32 channel)
 666:Generated_Source\PSoC4/CyDMA.c **** {
 775              		.loc 1 666 0
 776              		.cfi_startproc
 777              		@ args = 0, pretend = 0, frame = 0
 778              		@ frame_needed = 0, uses_anonymous_args = 0
 779              		@ link register save eliminated.
 780              	.LVL38:
 667:Generated_Source\PSoC4/CyDMA.c ****     uint32 priority;
 668:Generated_Source\PSoC4/CyDMA.c **** 
 669:Generated_Source\PSoC4/CyDMA.c ****     CYASSERT((channel >= 0) && (channel < CYDMA_CH_NR));
 670:Generated_Source\PSoC4/CyDMA.c **** 
 671:Generated_Source\PSoC4/CyDMA.c ****     priority = (CYDMA_CH_CTL_BASE.ctl[channel] & CYDMA_PRIO) >> CYDMA_PRIO_POS;
 781              		.loc 1 671 0
 782 0000 024B     		ldr	r3, .L77
 783 0002 8000     		lsls	r0, r0, #2
 784              	.LVL39:
 785 0004 C058     		ldr	r0, [r0, r3]
 786              	.LVL40:
 672:Generated_Source\PSoC4/CyDMA.c ****     return ((int32)priority);
 673:Generated_Source\PSoC4/CyDMA.c **** }
 787              		.loc 1 673 0
ARM GAS  C:\Users\theGu\AppData\Local\Temp\ccssehMe.s 			page 28


 788              		@ sp needed
 672:Generated_Source\PSoC4/CyDMA.c ****     return ((int32)priority);
 789              		.loc 1 672 0
 790 0006 8000     		lsls	r0, r0, #2
 791              	.LVL41:
 792 0008 800F     		lsrs	r0, r0, #30
 793              		.loc 1 673 0
 794 000a 7047     		bx	lr
 795              	.L78:
 796              		.align	2
 797              	.L77:
 798 000c 80101040 		.word	1074794624
 799              		.cfi_endproc
 800              	.LFE23:
 801              		.size	CyDmaGetPriority, .-CyDmaGetPriority
 802              		.section	.text.CyDmaSetNextDescriptor,"ax",%progbits
 803              		.align	1
 804              		.global	CyDmaSetNextDescriptor
 805              		.code	16
 806              		.thumb_func
 807              		.type	CyDmaSetNextDescriptor, %function
 808              	CyDmaSetNextDescriptor:
 809              	.LFB24:
 674:Generated_Source\PSoC4/CyDMA.c **** 
 675:Generated_Source\PSoC4/CyDMA.c **** 
 676:Generated_Source\PSoC4/CyDMA.c **** /*******************************************************************************
 677:Generated_Source\PSoC4/CyDMA.c **** * Function Name: CyDmaSetNextDescriptor
 678:Generated_Source\PSoC4/CyDMA.c **** ********************************************************************************
 679:Generated_Source\PSoC4/CyDMA.c **** *
 680:Generated_Source\PSoC4/CyDMA.c **** * Summary:
 681:Generated_Source\PSoC4/CyDMA.c **** *  Sets the descriptor that should be run the next time the channel is
 682:Generated_Source\PSoC4/CyDMA.c **** *  triggered.
 683:Generated_Source\PSoC4/CyDMA.c **** *
 684:Generated_Source\PSoC4/CyDMA.c **** * Parameters:
 685:Generated_Source\PSoC4/CyDMA.c **** *  channel:    Channel used by this function.
 686:Generated_Source\PSoC4/CyDMA.c **** *  descriptor: Next Descriptor to run (0 or 1).
 687:Generated_Source\PSoC4/CyDMA.c **** *
 688:Generated_Source\PSoC4/CyDMA.c **** * Return:
 689:Generated_Source\PSoC4/CyDMA.c **** *  None.
 690:Generated_Source\PSoC4/CyDMA.c **** *                   
 691:Generated_Source\PSoC4/CyDMA.c **** * Side effect:
 692:Generated_Source\PSoC4/CyDMA.c **** *  This function should not be called while the channel is enabled.
 693:Generated_Source\PSoC4/CyDMA.c **** *
 694:Generated_Source\PSoC4/CyDMA.c **** *******************************************************************************/
 695:Generated_Source\PSoC4/CyDMA.c **** void CyDmaSetNextDescriptor(int32 channel, int32 descriptor)
 696:Generated_Source\PSoC4/CyDMA.c **** {
 810              		.loc 1 696 0
 811              		.cfi_startproc
 812              		@ args = 0, pretend = 0, frame = 0
 813              		@ frame_needed = 0, uses_anonymous_args = 0
 814              		@ link register save eliminated.
 815              	.LVL42:
 816 0000 044B     		ldr	r3, .L80
 817 0002 8000     		lsls	r0, r0, #2
 818              	.LVL43:
 819 0004 C018     		adds	r0, r0, r3
 697:Generated_Source\PSoC4/CyDMA.c ****     uint32 regValue;
ARM GAS  C:\Users\theGu\AppData\Local\Temp\ccssehMe.s 			page 29


 698:Generated_Source\PSoC4/CyDMA.c **** 
 699:Generated_Source\PSoC4/CyDMA.c ****     CYASSERT((channel    >= 0) && (channel    < CYDMA_CH_NR));
 700:Generated_Source\PSoC4/CyDMA.c ****     CYASSERT((descriptor >= 0) && (descriptor < CYDMA_DESCR_NR));
 701:Generated_Source\PSoC4/CyDMA.c **** 
 702:Generated_Source\PSoC4/CyDMA.c ****     regValue = CYDMA_CH_CTL_BASE.ctl[channel] & (uint32)~CYDMA_DESCRIPTOR;
 820              		.loc 1 702 0
 821 0006 0268     		ldr	r2, [r0]
 822              	.LVL44:
 703:Generated_Source\PSoC4/CyDMA.c ****     CYDMA_CH_CTL_BASE.ctl[channel] = regValue | (uint32)((uint32)descriptor << CYDMA_DESCRIPTOR_POS
 823              		.loc 1 703 0
 824 0008 034B     		ldr	r3, .L80+4
 825 000a 8907     		lsls	r1, r1, #30
 826              	.LVL45:
 827 000c 1340     		ands	r3, r2
 828              	.LVL46:
 829 000e 1943     		orrs	r1, r3
 830 0010 0160     		str	r1, [r0]
 704:Generated_Source\PSoC4/CyDMA.c **** }
 831              		.loc 1 704 0
 832              		@ sp needed
 833 0012 7047     		bx	lr
 834              	.L81:
 835              		.align	2
 836              	.L80:
 837 0014 80101040 		.word	1074794624
 838 0018 FFFFFFBF 		.word	-1073741825
 839              		.cfi_endproc
 840              	.LFE24:
 841              		.size	CyDmaSetNextDescriptor, .-CyDmaSetNextDescriptor
 842              		.section	.text.CyDmaGetNextDescriptor,"ax",%progbits
 843              		.align	1
 844              		.global	CyDmaGetNextDescriptor
 845              		.code	16
 846              		.thumb_func
 847              		.type	CyDmaGetNextDescriptor, %function
 848              	CyDmaGetNextDescriptor:
 849              	.LFB25:
 705:Generated_Source\PSoC4/CyDMA.c **** 
 706:Generated_Source\PSoC4/CyDMA.c **** 
 707:Generated_Source\PSoC4/CyDMA.c **** /*******************************************************************************
 708:Generated_Source\PSoC4/CyDMA.c **** * Function Name: CyDmaGetNextDescriptor
 709:Generated_Source\PSoC4/CyDMA.c **** ********************************************************************************
 710:Generated_Source\PSoC4/CyDMA.c **** *
 711:Generated_Source\PSoC4/CyDMA.c **** * Summary:
 712:Generated_Source\PSoC4/CyDMA.c **** *  Returns the next descriptor that should be run, as set by 
 713:Generated_Source\PSoC4/CyDMA.c **** *  CyDmaSetNextDescriptor().
 714:Generated_Source\PSoC4/CyDMA.c **** *
 715:Generated_Source\PSoC4/CyDMA.c **** * Parameters:
 716:Generated_Source\PSoC4/CyDMA.c **** *  channel: channel used by this function.
 717:Generated_Source\PSoC4/CyDMA.c **** *                   
 718:Generated_Source\PSoC4/CyDMA.c **** * Return:
 719:Generated_Source\PSoC4/CyDMA.c **** *  Next Descriptor to run (0 or 1).
 720:Generated_Source\PSoC4/CyDMA.c **** *
 721:Generated_Source\PSoC4/CyDMA.c **** *******************************************************************************/
 722:Generated_Source\PSoC4/CyDMA.c **** int32 CyDmaGetNextDescriptor(int32 channel)
 723:Generated_Source\PSoC4/CyDMA.c **** {
 850              		.loc 1 723 0
ARM GAS  C:\Users\theGu\AppData\Local\Temp\ccssehMe.s 			page 30


 851              		.cfi_startproc
 852              		@ args = 0, pretend = 0, frame = 0
 853              		@ frame_needed = 0, uses_anonymous_args = 0
 854              		@ link register save eliminated.
 855              	.LVL47:
 724:Generated_Source\PSoC4/CyDMA.c ****     uint32 nextDescriptor;
 725:Generated_Source\PSoC4/CyDMA.c **** 
 726:Generated_Source\PSoC4/CyDMA.c ****     CYASSERT((channel >= 0) && (channel < CYDMA_CH_NR));
 727:Generated_Source\PSoC4/CyDMA.c **** 
 728:Generated_Source\PSoC4/CyDMA.c ****     nextDescriptor = (CYDMA_CH_CTL_BASE.ctl[channel] & CYDMA_DESCRIPTOR) >> CYDMA_DESCRIPTOR_POS;
 856              		.loc 1 728 0
 857 0000 024B     		ldr	r3, .L83
 858 0002 8000     		lsls	r0, r0, #2
 859              	.LVL48:
 860 0004 C058     		ldr	r0, [r0, r3]
 861              	.LVL49:
 729:Generated_Source\PSoC4/CyDMA.c ****     return ((int32)nextDescriptor);
 730:Generated_Source\PSoC4/CyDMA.c **** }
 862              		.loc 1 730 0
 863              		@ sp needed
 729:Generated_Source\PSoC4/CyDMA.c ****     return ((int32)nextDescriptor);
 864              		.loc 1 729 0
 865 0006 4000     		lsls	r0, r0, #1
 866              	.LVL50:
 867 0008 C00F     		lsrs	r0, r0, #31
 868              		.loc 1 730 0
 869 000a 7047     		bx	lr
 870              	.L84:
 871              		.align	2
 872              	.L83:
 873 000c 80101040 		.word	1074794624
 874              		.cfi_endproc
 875              	.LFE25:
 876              		.size	CyDmaGetNextDescriptor, .-CyDmaGetNextDescriptor
 877              		.section	.text.CyDmaSetConfiguration,"ax",%progbits
 878              		.align	1
 879              		.global	CyDmaSetConfiguration
 880              		.code	16
 881              		.thumb_func
 882              		.type	CyDmaSetConfiguration, %function
 883              	CyDmaSetConfiguration:
 884              	.LFB26:
 731:Generated_Source\PSoC4/CyDMA.c **** 
 732:Generated_Source\PSoC4/CyDMA.c **** 
 733:Generated_Source\PSoC4/CyDMA.c **** /*******************************************************************************
 734:Generated_Source\PSoC4/CyDMA.c **** * Function Name: CyDmaSetConfiguration
 735:Generated_Source\PSoC4/CyDMA.c **** ********************************************************************************
 736:Generated_Source\PSoC4/CyDMA.c **** *
 737:Generated_Source\PSoC4/CyDMA.c **** * Summary:
 738:Generated_Source\PSoC4/CyDMA.c **** *  Sets configuration information for the specified descriptor.
 739:Generated_Source\PSoC4/CyDMA.c **** *
 740:Generated_Source\PSoC4/CyDMA.c **** * Parameters:
 741:Generated_Source\PSoC4/CyDMA.c **** *  channel:    DMA channel modified by this function.
 742:Generated_Source\PSoC4/CyDMA.c **** *  descriptor: Descriptor (0 or 1) modified by this function.
 743:Generated_Source\PSoC4/CyDMA.c **** *  config:     Pointer to a configuration structure. Refer to cydma_init_struct
 744:Generated_Source\PSoC4/CyDMA.c **** *              structure definition in CyDMA_P4.h and/or DMA channel datasheet
 745:Generated_Source\PSoC4/CyDMA.c **** *              for more information.
ARM GAS  C:\Users\theGu\AppData\Local\Temp\ccssehMe.s 			page 31


 746:Generated_Source\PSoC4/CyDMA.c **** *                   
 747:Generated_Source\PSoC4/CyDMA.c **** * Return:
 748:Generated_Source\PSoC4/CyDMA.c **** *  None.
 749:Generated_Source\PSoC4/CyDMA.c **** *
 750:Generated_Source\PSoC4/CyDMA.c **** * Side effect:
 751:Generated_Source\PSoC4/CyDMA.c **** *  The status register associated with the specified descriptor is reset to
 752:Generated_Source\PSoC4/CyDMA.c **** *  zero after this function call. This function also validates the descriptor.
 753:Generated_Source\PSoC4/CyDMA.c **** *  This function should not be called while the descriptor is active.
 754:Generated_Source\PSoC4/CyDMA.c **** *  This can be checked by calling CyDmaGetStatus().
 755:Generated_Source\PSoC4/CyDMA.c **** *
 756:Generated_Source\PSoC4/CyDMA.c **** *******************************************************************************/
 757:Generated_Source\PSoC4/CyDMA.c **** void CyDmaSetConfiguration(int32 channel, int32 descriptor, const cydma_init_struct * config)
 758:Generated_Source\PSoC4/CyDMA.c **** {  
 885              		.loc 1 758 0
 886              		.cfi_startproc
 887              		@ args = 0, pretend = 0, frame = 0
 888              		@ frame_needed = 0, uses_anonymous_args = 0
 889              	.LVL51:
 890 0000 10B5     		push	{r4, lr}
 891              		.cfi_def_cfa_offset 8
 892              		.cfi_offset 4, -8
 893              		.cfi_offset 14, -4
 759:Generated_Source\PSoC4/CyDMA.c ****     CYASSERT((channel        >= 0) && (channel         < CYDMA_CH_NR));
 760:Generated_Source\PSoC4/CyDMA.c ****     CYASSERT((descriptor     >= 0) && (descriptor      < CYDMA_DESCR_NR));
 761:Generated_Source\PSoC4/CyDMA.c **** 
 762:Generated_Source\PSoC4/CyDMA.c ****     CYASSERT(0u == (config->dataElementSize     & (uint32)~CYDMA_DATA_SIZE));   
 763:Generated_Source\PSoC4/CyDMA.c ****     CYASSERT((config->numDataElements > 0)     && (config->numDataElements <= CYDMA_MAX_DATA_NR));
 764:Generated_Source\PSoC4/CyDMA.c ****     CYASSERT(0u == (config->srcDstTransferWidth & (uint32)~CYDMA_TRANSFER_WIDTH));
 765:Generated_Source\PSoC4/CyDMA.c ****     CYASSERT(0u == (config->addressIncrement    & (uint32)~CYDMA_ADDR_INCR));
 766:Generated_Source\PSoC4/CyDMA.c ****     CYASSERT(0u == (config->triggerType         & (uint32)~CYDMA_TRIGGER_TYPE));
 767:Generated_Source\PSoC4/CyDMA.c ****     CYASSERT(0u == (config->transferMode        & (uint32)~CYDMA_TRANSFER_MODE));
 768:Generated_Source\PSoC4/CyDMA.c ****     CYASSERT(0u == (config->preemptable         & (uint32)~CYDMA_PREEMPTABLE));
 769:Generated_Source\PSoC4/CyDMA.c ****     CYASSERT(0u == (config->actions             & (uint32)~CYDMA_POST_COMPLETE_ACTIONS));
 770:Generated_Source\PSoC4/CyDMA.c ****     
 771:Generated_Source\PSoC4/CyDMA.c ****     CYDMA_DESCR_BASE.descriptor[channel][descriptor].ctl = config->dataElementSize     |
 772:Generated_Source\PSoC4/CyDMA.c ****                                                   ((uint32)config->numDataElements-1u) |
 773:Generated_Source\PSoC4/CyDMA.c ****                                                            config->srcDstTransferWidth |
 774:Generated_Source\PSoC4/CyDMA.c ****                                                            config->addressIncrement    |
 775:Generated_Source\PSoC4/CyDMA.c ****                                                            config->triggerType         |
 776:Generated_Source\PSoC4/CyDMA.c ****                                                            config->transferMode        |
 777:Generated_Source\PSoC4/CyDMA.c ****                                                            config->preemptable         |
 894              		.loc 1 777 0
 895 0002 1368     		ldr	r3, [r2]
 896 0004 9468     		ldr	r4, [r2, #8]
 771:Generated_Source\PSoC4/CyDMA.c ****                                                   ((uint32)config->numDataElements-1u) |
 897              		.loc 1 771 0
 898 0006 4000     		lsls	r0, r0, #1
 899              	.LVL52:
 900              		.loc 1 777 0
 901 0008 2343     		orrs	r3, r4
 902 000a D468     		ldr	r4, [r2, #12]
 771:Generated_Source\PSoC4/CyDMA.c ****                                                   ((uint32)config->numDataElements-1u) |
 903              		.loc 1 771 0
 904 000c 4118     		adds	r1, r0, r1
 905              	.LVL53:
 906              		.loc 1 777 0
 907 000e 2343     		orrs	r3, r4
ARM GAS  C:\Users\theGu\AppData\Local\Temp\ccssehMe.s 			page 32


 908 0010 1469     		ldr	r4, [r2, #16]
 771:Generated_Source\PSoC4/CyDMA.c ****                                                   ((uint32)config->numDataElements-1u) |
 909              		.loc 1 771 0
 910 0012 0901     		lsls	r1, r1, #4
 911              		.loc 1 777 0
 912 0014 2343     		orrs	r3, r4
 913 0016 5469     		ldr	r4, [r2, #20]
 778:Generated_Source\PSoC4/CyDMA.c ****                                                            config->actions;
 779:Generated_Source\PSoC4/CyDMA.c **** 
 780:Generated_Source\PSoC4/CyDMA.c ****     CYDMA_DESCR_BASE.descriptor[channel][descriptor].status = CYDMA_VALID;
 781:Generated_Source\PSoC4/CyDMA.c **** }
 914              		.loc 1 781 0
 915              		@ sp needed
 777:Generated_Source\PSoC4/CyDMA.c ****                                                            config->actions;
 916              		.loc 1 777 0
 917 0018 2343     		orrs	r3, r4
 918 001a 9469     		ldr	r4, [r2, #24]
 919 001c 2343     		orrs	r3, r4
 920 001e D469     		ldr	r4, [r2, #28]
 921 0020 5268     		ldr	r2, [r2, #4]
 922              	.LVL54:
 923 0022 2343     		orrs	r3, r4
 924 0024 013A     		subs	r2, r2, #1
 925 0026 1343     		orrs	r3, r2
 771:Generated_Source\PSoC4/CyDMA.c ****                                                   ((uint32)config->numDataElements-1u) |
 926              		.loc 1 771 0
 927 0028 034A     		ldr	r2, .L86
 928 002a 8918     		adds	r1, r1, r2
 929 002c 8B60     		str	r3, [r1, #8]
 780:Generated_Source\PSoC4/CyDMA.c **** }
 930              		.loc 1 780 0
 931 002e 8023     		movs	r3, #128
 932 0030 1B06     		lsls	r3, r3, #24
 933 0032 CB60     		str	r3, [r1, #12]
 934              		.loc 1 781 0
 935 0034 10BD     		pop	{r4, pc}
 936              	.L87:
 937 0036 C046     		.align	2
 938              	.L86:
 939 0038 00181040 		.word	1074796544
 940              		.cfi_endproc
 941              	.LFE26:
 942              		.size	CyDmaSetConfiguration, .-CyDmaSetConfiguration
 943              		.section	.text.CyDmaValidateDescriptor,"ax",%progbits
 944              		.align	1
 945              		.global	CyDmaValidateDescriptor
 946              		.code	16
 947              		.thumb_func
 948              		.type	CyDmaValidateDescriptor, %function
 949              	CyDmaValidateDescriptor:
 950              	.LFB27:
 782:Generated_Source\PSoC4/CyDMA.c **** 
 783:Generated_Source\PSoC4/CyDMA.c **** 
 784:Generated_Source\PSoC4/CyDMA.c **** /*******************************************************************************
 785:Generated_Source\PSoC4/CyDMA.c **** * Function Name: CyDmaValidateDescriptor
 786:Generated_Source\PSoC4/CyDMA.c **** ********************************************************************************
 787:Generated_Source\PSoC4/CyDMA.c **** *
ARM GAS  C:\Users\theGu\AppData\Local\Temp\ccssehMe.s 			page 33


 788:Generated_Source\PSoC4/CyDMA.c **** * Summary:
 789:Generated_Source\PSoC4/CyDMA.c **** *  Validates the specified descriptor after it has been invalidated.
 790:Generated_Source\PSoC4/CyDMA.c **** *
 791:Generated_Source\PSoC4/CyDMA.c **** * Parameters:
 792:Generated_Source\PSoC4/CyDMA.c **** *  channel:    Channel used by this function.
 793:Generated_Source\PSoC4/CyDMA.c **** *  descriptor: Descriptor (0 or 1) modified by this function.
 794:Generated_Source\PSoC4/CyDMA.c **** *                   
 795:Generated_Source\PSoC4/CyDMA.c **** * Return:
 796:Generated_Source\PSoC4/CyDMA.c **** *  None. 
 797:Generated_Source\PSoC4/CyDMA.c **** *
 798:Generated_Source\PSoC4/CyDMA.c **** * Side effect:
 799:Generated_Source\PSoC4/CyDMA.c **** *  The status register associated with the specified descriptor is reset to
 800:Generated_Source\PSoC4/CyDMA.c **** *  zero after this function call.
 801:Generated_Source\PSoC4/CyDMA.c **** *  This function should not be called when the specified descriptor is active
 802:Generated_Source\PSoC4/CyDMA.c **** *  in the DMA transfer engine. This can be checked by calling CyDmaGetStatus().
 803:Generated_Source\PSoC4/CyDMA.c **** *
 804:Generated_Source\PSoC4/CyDMA.c **** *******************************************************************************/
 805:Generated_Source\PSoC4/CyDMA.c **** void CyDmaValidateDescriptor(int32 channel, int32 descriptor)
 806:Generated_Source\PSoC4/CyDMA.c **** {
 951              		.loc 1 806 0
 952              		.cfi_startproc
 953              		@ args = 0, pretend = 0, frame = 0
 954              		@ frame_needed = 0, uses_anonymous_args = 0
 955              		@ link register save eliminated.
 956              	.LVL55:
 807:Generated_Source\PSoC4/CyDMA.c ****     CYASSERT((channel    >= 0) && (channel    < CYDMA_CH_NR));
 808:Generated_Source\PSoC4/CyDMA.c ****     CYASSERT((descriptor >= 0) && (descriptor < CYDMA_DESCR_NR));
 809:Generated_Source\PSoC4/CyDMA.c **** 
 810:Generated_Source\PSoC4/CyDMA.c ****     CYDMA_DESCR_BASE.descriptor[channel][descriptor].status = CYDMA_VALID;
 957              		.loc 1 810 0
 958 0000 4000     		lsls	r0, r0, #1
 959              	.LVL56:
 960 0002 4118     		adds	r1, r0, r1
 961              	.LVL57:
 962 0004 034B     		ldr	r3, .L89
 963 0006 0901     		lsls	r1, r1, #4
 964 0008 C918     		adds	r1, r1, r3
 965 000a 8023     		movs	r3, #128
 966 000c 1B06     		lsls	r3, r3, #24
 967 000e CB60     		str	r3, [r1, #12]
 811:Generated_Source\PSoC4/CyDMA.c **** }
 968              		.loc 1 811 0
 969              		@ sp needed
 970 0010 7047     		bx	lr
 971              	.L90:
 972 0012 C046     		.align	2
 973              	.L89:
 974 0014 00181040 		.word	1074796544
 975              		.cfi_endproc
 976              	.LFE27:
 977              		.size	CyDmaValidateDescriptor, .-CyDmaValidateDescriptor
 978              		.section	.text.CyDmaGetDescriptorStatus,"ax",%progbits
 979              		.align	1
 980              		.global	CyDmaGetDescriptorStatus
 981              		.code	16
 982              		.thumb_func
 983              		.type	CyDmaGetDescriptorStatus, %function
ARM GAS  C:\Users\theGu\AppData\Local\Temp\ccssehMe.s 			page 34


 984              	CyDmaGetDescriptorStatus:
 985              	.LFB28:
 812:Generated_Source\PSoC4/CyDMA.c **** 
 813:Generated_Source\PSoC4/CyDMA.c **** 
 814:Generated_Source\PSoC4/CyDMA.c **** /*******************************************************************************
 815:Generated_Source\PSoC4/CyDMA.c **** * Function Name: CyDmaGetDescriptorStatus
 816:Generated_Source\PSoC4/CyDMA.c **** ********************************************************************************
 817:Generated_Source\PSoC4/CyDMA.c **** *
 818:Generated_Source\PSoC4/CyDMA.c **** * Summary:
 819:Generated_Source\PSoC4/CyDMA.c **** *  Returns the status of the specified descriptor.
 820:Generated_Source\PSoC4/CyDMA.c **** *
 821:Generated_Source\PSoC4/CyDMA.c **** * Parameters:
 822:Generated_Source\PSoC4/CyDMA.c **** *  channel:    Channel used by this function.
 823:Generated_Source\PSoC4/CyDMA.c **** *  descriptor: Descriptor (0 or 1) modified by this function.
 824:Generated_Source\PSoC4/CyDMA.c **** *                   
 825:Generated_Source\PSoC4/CyDMA.c **** * Return:
 826:Generated_Source\PSoC4/CyDMA.c **** *  Returns the contents of the specified descriptors status register. Refer to 
 827:Generated_Source\PSoC4/CyDMA.c **** *  descriptor status register bit definitions in CyDMA_P4.h or the API
 828:Generated_Source\PSoC4/CyDMA.c **** *  description in the DMA channel datasheet for more information.
 829:Generated_Source\PSoC4/CyDMA.c **** *
 830:Generated_Source\PSoC4/CyDMA.c **** *******************************************************************************/
 831:Generated_Source\PSoC4/CyDMA.c **** uint32 CyDmaGetDescriptorStatus(int32 channel, int32 descriptor)
 832:Generated_Source\PSoC4/CyDMA.c **** {
 986              		.loc 1 832 0
 987              		.cfi_startproc
 988              		@ args = 0, pretend = 0, frame = 0
 989              		@ frame_needed = 0, uses_anonymous_args = 0
 990              		@ link register save eliminated.
 991              	.LVL58:
 833:Generated_Source\PSoC4/CyDMA.c ****     CYASSERT((channel    >= 0) && (channel    < CYDMA_CH_NR));
 834:Generated_Source\PSoC4/CyDMA.c ****     CYASSERT((descriptor >= 0) && (descriptor < CYDMA_DESCR_NR));
 835:Generated_Source\PSoC4/CyDMA.c **** 
 836:Generated_Source\PSoC4/CyDMA.c ****     return (CYDMA_DESCR_BASE.descriptor[channel][descriptor].status);
 992              		.loc 1 836 0
 993 0000 4000     		lsls	r0, r0, #1
 994              	.LVL59:
 995 0002 4118     		adds	r1, r0, r1
 996              	.LVL60:
 997 0004 024B     		ldr	r3, .L92
 998 0006 0901     		lsls	r1, r1, #4
 999 0008 C918     		adds	r1, r1, r3
 1000 000a C868     		ldr	r0, [r1, #12]
 837:Generated_Source\PSoC4/CyDMA.c **** }
 1001              		.loc 1 837 0
 1002              		@ sp needed
 1003 000c 7047     		bx	lr
 1004              	.L93:
 1005 000e C046     		.align	2
 1006              	.L92:
 1007 0010 00181040 		.word	1074796544
 1008              		.cfi_endproc
 1009              	.LFE28:
 1010              		.size	CyDmaGetDescriptorStatus, .-CyDmaGetDescriptorStatus
 1011              		.section	.text.CyDmaSetSrcAddress,"ax",%progbits
 1012              		.align	1
 1013              		.global	CyDmaSetSrcAddress
 1014              		.code	16
ARM GAS  C:\Users\theGu\AppData\Local\Temp\ccssehMe.s 			page 35


 1015              		.thumb_func
 1016              		.type	CyDmaSetSrcAddress, %function
 1017              	CyDmaSetSrcAddress:
 1018              	.LFB29:
 838:Generated_Source\PSoC4/CyDMA.c **** 
 839:Generated_Source\PSoC4/CyDMA.c **** 
 840:Generated_Source\PSoC4/CyDMA.c **** /*******************************************************************************
 841:Generated_Source\PSoC4/CyDMA.c **** * Function Name: CyDmaSetSrcAddress
 842:Generated_Source\PSoC4/CyDMA.c **** ********************************************************************************
 843:Generated_Source\PSoC4/CyDMA.c **** *
 844:Generated_Source\PSoC4/CyDMA.c **** * Summary:
 845:Generated_Source\PSoC4/CyDMA.c **** *  Configures the source address for the specified descriptor.
 846:Generated_Source\PSoC4/CyDMA.c **** *
 847:Generated_Source\PSoC4/CyDMA.c **** * Parameters:
 848:Generated_Source\PSoC4/CyDMA.c **** *  channel:    Channel used by this function.
 849:Generated_Source\PSoC4/CyDMA.c **** *  descriptor: Descriptor (0 or 1) modified by this function.
 850:Generated_Source\PSoC4/CyDMA.c **** *  srcAddress: Address of DMA transfer source.
 851:Generated_Source\PSoC4/CyDMA.c **** *                   
 852:Generated_Source\PSoC4/CyDMA.c **** * Return:
 853:Generated_Source\PSoC4/CyDMA.c **** *  None.
 854:Generated_Source\PSoC4/CyDMA.c **** *
 855:Generated_Source\PSoC4/CyDMA.c **** * Side effect:
 856:Generated_Source\PSoC4/CyDMA.c **** *  This function should not be called when the specified descriptor is active
 857:Generated_Source\PSoC4/CyDMA.c **** *  in the DMA transfer engine. This can be checked by calling CyDmaGetStatus(). 
 858:Generated_Source\PSoC4/CyDMA.c **** *
 859:Generated_Source\PSoC4/CyDMA.c **** *******************************************************************************/
 860:Generated_Source\PSoC4/CyDMA.c **** void CyDmaSetSrcAddress(int32 channel, int32 descriptor, void * srcAddress)
 861:Generated_Source\PSoC4/CyDMA.c **** {
 1019              		.loc 1 861 0
 1020              		.cfi_startproc
 1021              		@ args = 0, pretend = 0, frame = 0
 1022              		@ frame_needed = 0, uses_anonymous_args = 0
 1023              		@ link register save eliminated.
 1024              	.LVL61:
 862:Generated_Source\PSoC4/CyDMA.c ****     CYASSERT((channel    >= 0) && (channel    < CYDMA_CH_NR));
 863:Generated_Source\PSoC4/CyDMA.c ****     CYASSERT((descriptor >= 0) && (descriptor < CYDMA_DESCR_NR));
 864:Generated_Source\PSoC4/CyDMA.c **** 
 865:Generated_Source\PSoC4/CyDMA.c ****     CYDMA_DESCR_BASE.descriptor[channel][descriptor].src = srcAddress;
 1025              		.loc 1 865 0
 1026 0000 4000     		lsls	r0, r0, #1
 1027              	.LVL62:
 1028 0002 4118     		adds	r1, r0, r1
 1029              	.LVL63:
 1030 0004 014B     		ldr	r3, .L95
 1031 0006 0901     		lsls	r1, r1, #4
 1032 0008 CA50     		str	r2, [r1, r3]
 866:Generated_Source\PSoC4/CyDMA.c **** }
 1033              		.loc 1 866 0
 1034              		@ sp needed
 1035 000a 7047     		bx	lr
 1036              	.L96:
 1037              		.align	2
 1038              	.L95:
 1039 000c 00181040 		.word	1074796544
 1040              		.cfi_endproc
 1041              	.LFE29:
 1042              		.size	CyDmaSetSrcAddress, .-CyDmaSetSrcAddress
ARM GAS  C:\Users\theGu\AppData\Local\Temp\ccssehMe.s 			page 36


 1043              		.section	.text.CyDmaGetSrcAddress,"ax",%progbits
 1044              		.align	1
 1045              		.global	CyDmaGetSrcAddress
 1046              		.code	16
 1047              		.thumb_func
 1048              		.type	CyDmaGetSrcAddress, %function
 1049              	CyDmaGetSrcAddress:
 1050              	.LFB30:
 867:Generated_Source\PSoC4/CyDMA.c **** 
 868:Generated_Source\PSoC4/CyDMA.c **** 
 869:Generated_Source\PSoC4/CyDMA.c **** /*******************************************************************************
 870:Generated_Source\PSoC4/CyDMA.c **** * Function Name: CyDmaGetSrcAddress
 871:Generated_Source\PSoC4/CyDMA.c **** ********************************************************************************
 872:Generated_Source\PSoC4/CyDMA.c **** *
 873:Generated_Source\PSoC4/CyDMA.c **** * Summary:
 874:Generated_Source\PSoC4/CyDMA.c **** *  Returns the source address for the specified descriptor, set by 
 875:Generated_Source\PSoC4/CyDMA.c **** *  CyDmaSetSrcAddress().
 876:Generated_Source\PSoC4/CyDMA.c **** *
 877:Generated_Source\PSoC4/CyDMA.c **** * Parameters:
 878:Generated_Source\PSoC4/CyDMA.c **** *  channel:    Channel used by this function.
 879:Generated_Source\PSoC4/CyDMA.c **** *  descriptor: Specifies descriptor (0 or 1) used by this function.
 880:Generated_Source\PSoC4/CyDMA.c **** *                   
 881:Generated_Source\PSoC4/CyDMA.c **** * Return:
 882:Generated_Source\PSoC4/CyDMA.c **** *  Source address written to specified descriptor.
 883:Generated_Source\PSoC4/CyDMA.c **** *
 884:Generated_Source\PSoC4/CyDMA.c **** *******************************************************************************/
 885:Generated_Source\PSoC4/CyDMA.c **** void * CyDmaGetSrcAddress(int32 channel, int32 descriptor)
 886:Generated_Source\PSoC4/CyDMA.c **** {
 1051              		.loc 1 886 0
 1052              		.cfi_startproc
 1053              		@ args = 0, pretend = 0, frame = 0
 1054              		@ frame_needed = 0, uses_anonymous_args = 0
 1055              		@ link register save eliminated.
 1056              	.LVL64:
 887:Generated_Source\PSoC4/CyDMA.c ****     CYASSERT((channel    >= 0) && (channel    < CYDMA_CH_NR));
 888:Generated_Source\PSoC4/CyDMA.c ****     CYASSERT((descriptor >= 0) && (descriptor < CYDMA_DESCR_NR));
 889:Generated_Source\PSoC4/CyDMA.c **** 
 890:Generated_Source\PSoC4/CyDMA.c ****     return (CYDMA_DESCR_BASE.descriptor[channel][descriptor].src);
 1057              		.loc 1 890 0
 1058 0000 4000     		lsls	r0, r0, #1
 1059              	.LVL65:
 1060 0002 4118     		adds	r1, r0, r1
 1061              	.LVL66:
 1062 0004 014B     		ldr	r3, .L98
 1063 0006 0901     		lsls	r1, r1, #4
 1064 0008 C858     		ldr	r0, [r1, r3]
 891:Generated_Source\PSoC4/CyDMA.c **** }
 1065              		.loc 1 891 0
 1066              		@ sp needed
 1067 000a 7047     		bx	lr
 1068              	.L99:
 1069              		.align	2
 1070              	.L98:
 1071 000c 00181040 		.word	1074796544
 1072              		.cfi_endproc
 1073              	.LFE30:
 1074              		.size	CyDmaGetSrcAddress, .-CyDmaGetSrcAddress
ARM GAS  C:\Users\theGu\AppData\Local\Temp\ccssehMe.s 			page 37


 1075              		.section	.text.CyDmaSetDstAddress,"ax",%progbits
 1076              		.align	1
 1077              		.global	CyDmaSetDstAddress
 1078              		.code	16
 1079              		.thumb_func
 1080              		.type	CyDmaSetDstAddress, %function
 1081              	CyDmaSetDstAddress:
 1082              	.LFB31:
 892:Generated_Source\PSoC4/CyDMA.c **** 
 893:Generated_Source\PSoC4/CyDMA.c **** 
 894:Generated_Source\PSoC4/CyDMA.c **** /*******************************************************************************
 895:Generated_Source\PSoC4/CyDMA.c **** * Function Name: CyDmaSetDstAddress
 896:Generated_Source\PSoC4/CyDMA.c **** ********************************************************************************
 897:Generated_Source\PSoC4/CyDMA.c **** *
 898:Generated_Source\PSoC4/CyDMA.c **** * Summary:
 899:Generated_Source\PSoC4/CyDMA.c **** *  Configures the destination address for the specified descriptor.
 900:Generated_Source\PSoC4/CyDMA.c **** *
 901:Generated_Source\PSoC4/CyDMA.c **** * Parameters:
 902:Generated_Source\PSoC4/CyDMA.c **** *  channel:    Channel used by this function.
 903:Generated_Source\PSoC4/CyDMA.c **** *  descriptor: Descriptor (0 or 1) modified by this function.
 904:Generated_Source\PSoC4/CyDMA.c **** *  dstAddress: Address of DMA transfer destination.
 905:Generated_Source\PSoC4/CyDMA.c **** *                   
 906:Generated_Source\PSoC4/CyDMA.c **** * Return:
 907:Generated_Source\PSoC4/CyDMA.c **** *  None.
 908:Generated_Source\PSoC4/CyDMA.c **** *
 909:Generated_Source\PSoC4/CyDMA.c **** * Side effect:
 910:Generated_Source\PSoC4/CyDMA.c **** *  This function should not be called when the specified descriptor is active
 911:Generated_Source\PSoC4/CyDMA.c **** *  in the DMA transfer engine. This can be checked by calling CyDmaGetStatus(). 
 912:Generated_Source\PSoC4/CyDMA.c **** *
 913:Generated_Source\PSoC4/CyDMA.c **** *******************************************************************************/
 914:Generated_Source\PSoC4/CyDMA.c **** void CyDmaSetDstAddress(int32 channel, int32 descriptor, void * dstAddress)
 915:Generated_Source\PSoC4/CyDMA.c **** {
 1083              		.loc 1 915 0
 1084              		.cfi_startproc
 1085              		@ args = 0, pretend = 0, frame = 0
 1086              		@ frame_needed = 0, uses_anonymous_args = 0
 1087              		@ link register save eliminated.
 1088              	.LVL67:
 916:Generated_Source\PSoC4/CyDMA.c ****     CYASSERT((channel    >= 0) && (channel    < CYDMA_CH_NR));
 917:Generated_Source\PSoC4/CyDMA.c ****     CYASSERT((descriptor >= 0) && (descriptor < CYDMA_DESCR_NR));
 918:Generated_Source\PSoC4/CyDMA.c **** 
 919:Generated_Source\PSoC4/CyDMA.c ****     CYDMA_DESCR_BASE.descriptor[channel][descriptor].dst = dstAddress;
 1089              		.loc 1 919 0
 1090 0000 4000     		lsls	r0, r0, #1
 1091              	.LVL68:
 1092 0002 4118     		adds	r1, r0, r1
 1093              	.LVL69:
 1094 0004 024B     		ldr	r3, .L101
 1095 0006 0901     		lsls	r1, r1, #4
 1096 0008 C918     		adds	r1, r1, r3
 1097 000a 4A60     		str	r2, [r1, #4]
 920:Generated_Source\PSoC4/CyDMA.c **** }
 1098              		.loc 1 920 0
 1099              		@ sp needed
 1100 000c 7047     		bx	lr
 1101              	.L102:
 1102 000e C046     		.align	2
ARM GAS  C:\Users\theGu\AppData\Local\Temp\ccssehMe.s 			page 38


 1103              	.L101:
 1104 0010 00181040 		.word	1074796544
 1105              		.cfi_endproc
 1106              	.LFE31:
 1107              		.size	CyDmaSetDstAddress, .-CyDmaSetDstAddress
 1108              		.section	.text.CyDmaGetDstAddress,"ax",%progbits
 1109              		.align	1
 1110              		.global	CyDmaGetDstAddress
 1111              		.code	16
 1112              		.thumb_func
 1113              		.type	CyDmaGetDstAddress, %function
 1114              	CyDmaGetDstAddress:
 1115              	.LFB32:
 921:Generated_Source\PSoC4/CyDMA.c **** 
 922:Generated_Source\PSoC4/CyDMA.c **** 
 923:Generated_Source\PSoC4/CyDMA.c **** /*******************************************************************************
 924:Generated_Source\PSoC4/CyDMA.c **** * Function Name: CyDmaGetDstAddress
 925:Generated_Source\PSoC4/CyDMA.c **** ********************************************************************************
 926:Generated_Source\PSoC4/CyDMA.c **** *
 927:Generated_Source\PSoC4/CyDMA.c **** * Summary:
 928:Generated_Source\PSoC4/CyDMA.c **** *  Returns the destination address for the specified descriptor, set by 
 929:Generated_Source\PSoC4/CyDMA.c **** *  CyDmaSetDstAddress().
 930:Generated_Source\PSoC4/CyDMA.c **** *
 931:Generated_Source\PSoC4/CyDMA.c **** * Parameters:
 932:Generated_Source\PSoC4/CyDMA.c **** *  channel:    Channel used by this function.
 933:Generated_Source\PSoC4/CyDMA.c **** *  descriptor: Specifies descriptor (0 or 1) used by this function.
 934:Generated_Source\PSoC4/CyDMA.c **** *                   
 935:Generated_Source\PSoC4/CyDMA.c **** * Return:
 936:Generated_Source\PSoC4/CyDMA.c **** *  Destination address written to specified descriptor.
 937:Generated_Source\PSoC4/CyDMA.c **** *
 938:Generated_Source\PSoC4/CyDMA.c **** *******************************************************************************/
 939:Generated_Source\PSoC4/CyDMA.c **** void * CyDmaGetDstAddress(int32 channel, int32 descriptor)
 940:Generated_Source\PSoC4/CyDMA.c **** {
 1116              		.loc 1 940 0
 1117              		.cfi_startproc
 1118              		@ args = 0, pretend = 0, frame = 0
 1119              		@ frame_needed = 0, uses_anonymous_args = 0
 1120              		@ link register save eliminated.
 1121              	.LVL70:
 941:Generated_Source\PSoC4/CyDMA.c ****     CYASSERT((channel    >= 0) && (channel    < CYDMA_CH_NR));
 942:Generated_Source\PSoC4/CyDMA.c ****     CYASSERT((descriptor >= 0) && (descriptor < CYDMA_DESCR_NR));
 943:Generated_Source\PSoC4/CyDMA.c **** 
 944:Generated_Source\PSoC4/CyDMA.c ****     return (CYDMA_DESCR_BASE.descriptor[channel][descriptor].dst);
 1122              		.loc 1 944 0
 1123 0000 4000     		lsls	r0, r0, #1
 1124              	.LVL71:
 1125 0002 4118     		adds	r1, r0, r1
 1126              	.LVL72:
 1127 0004 024B     		ldr	r3, .L104
 1128 0006 0901     		lsls	r1, r1, #4
 1129 0008 C918     		adds	r1, r1, r3
 1130 000a 4868     		ldr	r0, [r1, #4]
 945:Generated_Source\PSoC4/CyDMA.c **** }
 1131              		.loc 1 945 0
 1132              		@ sp needed
 1133 000c 7047     		bx	lr
 1134              	.L105:
ARM GAS  C:\Users\theGu\AppData\Local\Temp\ccssehMe.s 			page 39


 1135 000e C046     		.align	2
 1136              	.L104:
 1137 0010 00181040 		.word	1074796544
 1138              		.cfi_endproc
 1139              	.LFE32:
 1140              		.size	CyDmaGetDstAddress, .-CyDmaGetDstAddress
 1141              		.section	.text.CyDmaSetDataElementSize,"ax",%progbits
 1142              		.align	1
 1143              		.global	CyDmaSetDataElementSize
 1144              		.code	16
 1145              		.thumb_func
 1146              		.type	CyDmaSetDataElementSize, %function
 1147              	CyDmaSetDataElementSize:
 1148              	.LFB33:
 946:Generated_Source\PSoC4/CyDMA.c **** 
 947:Generated_Source\PSoC4/CyDMA.c **** /*******************************************************************************
 948:Generated_Source\PSoC4/CyDMA.c **** * Function Name: CyDmaSetDataElementSize
 949:Generated_Source\PSoC4/CyDMA.c **** ********************************************************************************
 950:Generated_Source\PSoC4/CyDMA.c **** *
 951:Generated_Source\PSoC4/CyDMA.c **** * Summary:
 952:Generated_Source\PSoC4/CyDMA.c **** *  Sets the data element size for the specified descriptor.
 953:Generated_Source\PSoC4/CyDMA.c **** *
 954:Generated_Source\PSoC4/CyDMA.c **** * Parameters:
 955:Generated_Source\PSoC4/CyDMA.c **** *  channel:         Channel used by this function.
 956:Generated_Source\PSoC4/CyDMA.c **** *  descriptor:      Descriptor (0 or 1) modified by this function.
 957:Generated_Source\PSoC4/CyDMA.c **** *  dataElementSize: Specifies the size of the data element. The DMA transfer
 958:Generated_Source\PSoC4/CyDMA.c **** *                   engine transfers one data element at a time. How these
 959:Generated_Source\PSoC4/CyDMA.c **** *                   transfers occur is controlled by the transfer mode.
 960:Generated_Source\PSoC4/CyDMA.c **** *                   Refer to the API bit field definitions in CyDMA_P4.h
 961:Generated_Source\PSoC4/CyDMA.c **** *                   or API description in the DMA channel datasheet for the 
 962:Generated_Source\PSoC4/CyDMA.c **** *                   parameter options.
 963:Generated_Source\PSoC4/CyDMA.c **** *
 964:Generated_Source\PSoC4/CyDMA.c **** * Return:
 965:Generated_Source\PSoC4/CyDMA.c **** *  None.
 966:Generated_Source\PSoC4/CyDMA.c **** *
 967:Generated_Source\PSoC4/CyDMA.c **** * Side effect:
 968:Generated_Source\PSoC4/CyDMA.c **** *  This function should not be called when the specified descriptor is active
 969:Generated_Source\PSoC4/CyDMA.c **** *  in the DMA transfer engine. This can be checked by calling CyDmaGetStatus(). 
 970:Generated_Source\PSoC4/CyDMA.c **** *
 971:Generated_Source\PSoC4/CyDMA.c **** *******************************************************************************/
 972:Generated_Source\PSoC4/CyDMA.c **** void CyDmaSetDataElementSize(int32 channel, int32 descriptor, uint32 dataElementSize)
 973:Generated_Source\PSoC4/CyDMA.c **** {
 1149              		.loc 1 973 0
 1150              		.cfi_startproc
 1151              		@ args = 0, pretend = 0, frame = 0
 1152              		@ frame_needed = 0, uses_anonymous_args = 0
 1153              		@ link register save eliminated.
 1154              	.LVL73:
 974:Generated_Source\PSoC4/CyDMA.c ****     uint32 regValue;
 975:Generated_Source\PSoC4/CyDMA.c ****     
 976:Generated_Source\PSoC4/CyDMA.c ****     CYASSERT((channel    >= 0) && (channel    < CYDMA_CH_NR));
 977:Generated_Source\PSoC4/CyDMA.c ****     CYASSERT((descriptor >= 0) && (descriptor < CYDMA_DESCR_NR));
 978:Generated_Source\PSoC4/CyDMA.c ****     CYASSERT(0u == (dataElementSize & (uint32)~CYDMA_DATA_SIZE));
 979:Generated_Source\PSoC4/CyDMA.c **** 
 980:Generated_Source\PSoC4/CyDMA.c ****     regValue = CYDMA_DESCR_BASE.descriptor[channel][descriptor].ctl & (uint32)~CYDMA_DATA_SIZE;
 1155              		.loc 1 980 0
 1156 0000 4000     		lsls	r0, r0, #1
ARM GAS  C:\Users\theGu\AppData\Local\Temp\ccssehMe.s 			page 40


 1157              	.LVL74:
 1158 0002 4118     		adds	r1, r0, r1
 1159              	.LVL75:
 1160 0004 044B     		ldr	r3, .L107
 1161 0006 0901     		lsls	r1, r1, #4
 1162 0008 C918     		adds	r1, r1, r3
 1163 000a 8868     		ldr	r0, [r1, #8]
 1164              	.LVL76:
 981:Generated_Source\PSoC4/CyDMA.c ****     CYDMA_DESCR_BASE.descriptor[channel][descriptor].ctl = regValue | dataElementSize;
 1165              		.loc 1 981 0
 1166 000c 034B     		ldr	r3, .L107+4
 982:Generated_Source\PSoC4/CyDMA.c **** }
 1167              		.loc 1 982 0
 1168              		@ sp needed
 981:Generated_Source\PSoC4/CyDMA.c ****     CYDMA_DESCR_BASE.descriptor[channel][descriptor].ctl = regValue | dataElementSize;
 1169              		.loc 1 981 0
 1170 000e 0340     		ands	r3, r0
 1171              	.LVL77:
 1172 0010 1A43     		orrs	r2, r3
 1173              	.LVL78:
 1174 0012 8A60     		str	r2, [r1, #8]
 1175              		.loc 1 982 0
 1176 0014 7047     		bx	lr
 1177              	.L108:
 1178 0016 C046     		.align	2
 1179              	.L107:
 1180 0018 00181040 		.word	1074796544
 1181 001c FFFFFCFF 		.word	-196609
 1182              		.cfi_endproc
 1183              	.LFE33:
 1184              		.size	CyDmaSetDataElementSize, .-CyDmaSetDataElementSize
 1185              		.section	.text.CyDmaGetDataElementSize,"ax",%progbits
 1186              		.align	1
 1187              		.global	CyDmaGetDataElementSize
 1188              		.code	16
 1189              		.thumb_func
 1190              		.type	CyDmaGetDataElementSize, %function
 1191              	CyDmaGetDataElementSize:
 1192              	.LFB34:
 983:Generated_Source\PSoC4/CyDMA.c **** 
 984:Generated_Source\PSoC4/CyDMA.c **** 
 985:Generated_Source\PSoC4/CyDMA.c **** /*******************************************************************************
 986:Generated_Source\PSoC4/CyDMA.c **** * Function Name: CyDmaGetDataElementSize
 987:Generated_Source\PSoC4/CyDMA.c **** ********************************************************************************
 988:Generated_Source\PSoC4/CyDMA.c **** *
 989:Generated_Source\PSoC4/CyDMA.c **** * Summary:
 990:Generated_Source\PSoC4/CyDMA.c **** *  Returns the data element size configured for the specified descriptor, set by
 991:Generated_Source\PSoC4/CyDMA.c **** *  CyDmaSetDataElementSize() or CyDmaSetConfiguration.
 992:Generated_Source\PSoC4/CyDMA.c **** *
 993:Generated_Source\PSoC4/CyDMA.c **** * Parameters:
 994:Generated_Source\PSoC4/CyDMA.c **** *  channel:    Channel used by this function.
 995:Generated_Source\PSoC4/CyDMA.c **** *  descriptor: Descriptor (0 or 1) modified by this function.
 996:Generated_Source\PSoC4/CyDMA.c **** *                   
 997:Generated_Source\PSoC4/CyDMA.c **** * Return:
 998:Generated_Source\PSoC4/CyDMA.c **** *  The size of the data element. The DMA transfer engine transfers one data
 999:Generated_Source\PSoC4/CyDMA.c **** *  element at a time. How these transfers occur is controlled by the transfer
1000:Generated_Source\PSoC4/CyDMA.c **** *  mode. Refer to the API bit field definitions in CyDMA_P4.h or the API 
ARM GAS  C:\Users\theGu\AppData\Local\Temp\ccssehMe.s 			page 41


1001:Generated_Source\PSoC4/CyDMA.c **** *  description in the DMA channel datasheet for more information.
1002:Generated_Source\PSoC4/CyDMA.c **** *
1003:Generated_Source\PSoC4/CyDMA.c **** * Note:
1004:Generated_Source\PSoC4/CyDMA.c **** *  The size of the source and destination can be configured to use the
1005:Generated_Source\PSoC4/CyDMA.c **** *  data element size, or a Word, this is set in CyDmaSetSrcDstTransferWidth().
1006:Generated_Source\PSoC4/CyDMA.c **** *
1007:Generated_Source\PSoC4/CyDMA.c **** *******************************************************************************/
1008:Generated_Source\PSoC4/CyDMA.c **** uint32 CyDmaGetDataElementSize(int32 channel, int32 descriptor)
1009:Generated_Source\PSoC4/CyDMA.c **** {
 1193              		.loc 1 1009 0
 1194              		.cfi_startproc
 1195              		@ args = 0, pretend = 0, frame = 0
 1196              		@ frame_needed = 0, uses_anonymous_args = 0
 1197              		@ link register save eliminated.
 1198              	.LVL79:
1010:Generated_Source\PSoC4/CyDMA.c ****     CYASSERT((channel    >= 0) && (channel    < CYDMA_CH_NR));
1011:Generated_Source\PSoC4/CyDMA.c ****     CYASSERT((descriptor >= 0) && (descriptor < CYDMA_DESCR_NR));
1012:Generated_Source\PSoC4/CyDMA.c **** 
1013:Generated_Source\PSoC4/CyDMA.c ****     return (CYDMA_DESCR_BASE.descriptor[channel][descriptor].ctl & CYDMA_DATA_SIZE);
 1199              		.loc 1 1013 0
 1200 0000 4000     		lsls	r0, r0, #1
 1201              	.LVL80:
 1202 0002 4118     		adds	r1, r0, r1
 1203              	.LVL81:
 1204 0004 034B     		ldr	r3, .L110
 1205 0006 0901     		lsls	r1, r1, #4
 1206 0008 C918     		adds	r1, r1, r3
 1207 000a C023     		movs	r3, #192
 1208 000c 8868     		ldr	r0, [r1, #8]
 1209 000e 9B02     		lsls	r3, r3, #10
 1210 0010 1840     		ands	r0, r3
1014:Generated_Source\PSoC4/CyDMA.c **** }
 1211              		.loc 1 1014 0
 1212              		@ sp needed
 1213 0012 7047     		bx	lr
 1214              	.L111:
 1215              		.align	2
 1216              	.L110:
 1217 0014 00181040 		.word	1074796544
 1218              		.cfi_endproc
 1219              	.LFE34:
 1220              		.size	CyDmaGetDataElementSize, .-CyDmaGetDataElementSize
 1221              		.section	.text.CyDmaSetNumDataElements,"ax",%progbits
 1222              		.align	1
 1223              		.global	CyDmaSetNumDataElements
 1224              		.code	16
 1225              		.thumb_func
 1226              		.type	CyDmaSetNumDataElements, %function
 1227              	CyDmaSetNumDataElements:
 1228              	.LFB35:
1015:Generated_Source\PSoC4/CyDMA.c **** 
1016:Generated_Source\PSoC4/CyDMA.c **** 
1017:Generated_Source\PSoC4/CyDMA.c **** /*******************************************************************************
1018:Generated_Source\PSoC4/CyDMA.c **** * Function Name: CyDmaSetNumDataElements
1019:Generated_Source\PSoC4/CyDMA.c **** ********************************************************************************
1020:Generated_Source\PSoC4/CyDMA.c **** *
1021:Generated_Source\PSoC4/CyDMA.c **** * Summary:
ARM GAS  C:\Users\theGu\AppData\Local\Temp\ccssehMe.s 			page 42


1022:Generated_Source\PSoC4/CyDMA.c **** *  Sets the number of data elements to transfer for specified descriptor.
1023:Generated_Source\PSoC4/CyDMA.c **** *
1024:Generated_Source\PSoC4/CyDMA.c **** * Parameters:
1025:Generated_Source\PSoC4/CyDMA.c **** *  channel:         Channel used by this function.
1026:Generated_Source\PSoC4/CyDMA.c **** *  descriptor:      Descriptor (0 or 1) modified by this function.
1027:Generated_Source\PSoC4/CyDMA.c **** *  numDataElements: Total number of data elements this descriptor transfers.
1028:Generated_Source\PSoC4/CyDMA.c **** *                   Valid ranges are 1 to 65536.
1029:Generated_Source\PSoC4/CyDMA.c **** *                   
1030:Generated_Source\PSoC4/CyDMA.c **** * Return:
1031:Generated_Source\PSoC4/CyDMA.c **** *  None.
1032:Generated_Source\PSoC4/CyDMA.c **** *
1033:Generated_Source\PSoC4/CyDMA.c **** * Side effect:
1034:Generated_Source\PSoC4/CyDMA.c **** *  This function should not be called when the specified descriptor is active
1035:Generated_Source\PSoC4/CyDMA.c **** *  in the DMA transfer engine. This can be checked by calling CyDmaGetStatus(). 
1036:Generated_Source\PSoC4/CyDMA.c **** *
1037:Generated_Source\PSoC4/CyDMA.c **** *******************************************************************************/
1038:Generated_Source\PSoC4/CyDMA.c **** void CyDmaSetNumDataElements(int32 channel, int32 descriptor, int32 numDataElements)
1039:Generated_Source\PSoC4/CyDMA.c **** {
 1229              		.loc 1 1039 0
 1230              		.cfi_startproc
 1231              		@ args = 0, pretend = 0, frame = 0
 1232              		@ frame_needed = 0, uses_anonymous_args = 0
 1233              		@ link register save eliminated.
 1234              	.LVL82:
1040:Generated_Source\PSoC4/CyDMA.c ****     uint32 regValue;
1041:Generated_Source\PSoC4/CyDMA.c ****     
1042:Generated_Source\PSoC4/CyDMA.c ****     CYASSERT((channel        >= 0) && (channel         <  CYDMA_CH_NR));
1043:Generated_Source\PSoC4/CyDMA.c ****     CYASSERT((descriptor     >= 0) && (descriptor      <  CYDMA_DESCR_NR));
1044:Generated_Source\PSoC4/CyDMA.c ****     CYASSERT((numDataElements > 0) && (numDataElements <= CYDMA_MAX_DATA_NR));
1045:Generated_Source\PSoC4/CyDMA.c ****     
1046:Generated_Source\PSoC4/CyDMA.c ****     --numDataElements;
1047:Generated_Source\PSoC4/CyDMA.c ****     regValue = CYDMA_DESCR_BASE.descriptor[channel][descriptor].ctl & (uint32)~CYDMA_DATA_NR;
 1235              		.loc 1 1047 0
 1236 0000 4000     		lsls	r0, r0, #1
 1237              	.LVL83:
 1238 0002 4118     		adds	r1, r0, r1
 1239              	.LVL84:
 1240 0004 044B     		ldr	r3, .L113
 1241 0006 0901     		lsls	r1, r1, #4
 1242 0008 C918     		adds	r1, r1, r3
 1243 000a 8B68     		ldr	r3, [r1, #8]
 1244              	.LVL85:
1048:Generated_Source\PSoC4/CyDMA.c ****     CYDMA_DESCR_BASE.descriptor[channel][descriptor].ctl = regValue | (uint32)numDataElements;
 1245              		.loc 1 1048 0
 1246 000c 013A     		subs	r2, r2, #1
 1247              	.LVL86:
 1248 000e 1B0C     		lsrs	r3, r3, #16
 1249              	.LVL87:
 1250 0010 1B04     		lsls	r3, r3, #16
 1251 0012 1A43     		orrs	r2, r3
 1252              	.LVL88:
 1253 0014 8A60     		str	r2, [r1, #8]
1049:Generated_Source\PSoC4/CyDMA.c **** }
 1254              		.loc 1 1049 0
 1255              		@ sp needed
 1256 0016 7047     		bx	lr
 1257              	.L114:
ARM GAS  C:\Users\theGu\AppData\Local\Temp\ccssehMe.s 			page 43


 1258              		.align	2
 1259              	.L113:
 1260 0018 00181040 		.word	1074796544
 1261              		.cfi_endproc
 1262              	.LFE35:
 1263              		.size	CyDmaSetNumDataElements, .-CyDmaSetNumDataElements
 1264              		.section	.text.CyDmaGetNumDataElements,"ax",%progbits
 1265              		.align	1
 1266              		.global	CyDmaGetNumDataElements
 1267              		.code	16
 1268              		.thumb_func
 1269              		.type	CyDmaGetNumDataElements, %function
 1270              	CyDmaGetNumDataElements:
 1271              	.LFB36:
1050:Generated_Source\PSoC4/CyDMA.c **** 
1051:Generated_Source\PSoC4/CyDMA.c **** 
1052:Generated_Source\PSoC4/CyDMA.c **** /*******************************************************************************
1053:Generated_Source\PSoC4/CyDMA.c **** * Function Name: CyDmaGetNumDataElements
1054:Generated_Source\PSoC4/CyDMA.c **** ********************************************************************************
1055:Generated_Source\PSoC4/CyDMA.c **** *
1056:Generated_Source\PSoC4/CyDMA.c **** * Summary:
1057:Generated_Source\PSoC4/CyDMA.c **** *  Returns the number of data elements to be transferred. Only reflects the
1058:Generated_Source\PSoC4/CyDMA.c **** *  value written by CyDmaSetNumDataElements() or CyDmaSetConfiguration(). This
1059:Generated_Source\PSoC4/CyDMA.c **** *  does not reflect how many elements have been transferred. For that
1060:Generated_Source\PSoC4/CyDMA.c **** *  information use the CyDmaGetDescriptorStatus() function.
1061:Generated_Source\PSoC4/CyDMA.c **** *
1062:Generated_Source\PSoC4/CyDMA.c **** * Parameters:
1063:Generated_Source\PSoC4/CyDMA.c **** *  channel:    Channel used by this function.
1064:Generated_Source\PSoC4/CyDMA.c **** *  descriptor: Descriptor (0 or 1) modified by this function.
1065:Generated_Source\PSoC4/CyDMA.c **** *                   
1066:Generated_Source\PSoC4/CyDMA.c **** * Return:
1067:Generated_Source\PSoC4/CyDMA.c **** *  Number of data elements to transfer.
1068:Generated_Source\PSoC4/CyDMA.c **** *
1069:Generated_Source\PSoC4/CyDMA.c **** *******************************************************************************/
1070:Generated_Source\PSoC4/CyDMA.c **** int32 CyDmaGetNumDataElements(int32 channel, int32 descriptor)
1071:Generated_Source\PSoC4/CyDMA.c **** {
 1272              		.loc 1 1071 0
 1273              		.cfi_startproc
 1274              		@ args = 0, pretend = 0, frame = 0
 1275              		@ frame_needed = 0, uses_anonymous_args = 0
 1276              		@ link register save eliminated.
 1277              	.LVL89:
1072:Generated_Source\PSoC4/CyDMA.c ****     uint32 numElements;
1073:Generated_Source\PSoC4/CyDMA.c **** 
1074:Generated_Source\PSoC4/CyDMA.c ****     CYASSERT((channel    >= 0) && (channel    < CYDMA_CH_NR));
1075:Generated_Source\PSoC4/CyDMA.c ****     CYASSERT((descriptor >= 0) && (descriptor < CYDMA_DESCR_NR));
1076:Generated_Source\PSoC4/CyDMA.c ****     
1077:Generated_Source\PSoC4/CyDMA.c ****     numElements = (CYDMA_DESCR_BASE.descriptor[channel][descriptor].ctl & CYDMA_DATA_NR) + 1u;
 1278              		.loc 1 1077 0
 1279 0000 4000     		lsls	r0, r0, #1
 1280              	.LVL90:
 1281 0002 4118     		adds	r1, r0, r1
 1282              	.LVL91:
 1283 0004 034B     		ldr	r3, .L116
 1284 0006 0901     		lsls	r1, r1, #4
 1285 0008 C918     		adds	r1, r1, r3
 1286 000a 8868     		ldr	r0, [r1, #8]
ARM GAS  C:\Users\theGu\AppData\Local\Temp\ccssehMe.s 			page 44


 1287              	.LVL92:
1078:Generated_Source\PSoC4/CyDMA.c ****     return ((int32)numElements);
1079:Generated_Source\PSoC4/CyDMA.c **** }
 1288              		.loc 1 1079 0
 1289              		@ sp needed
1078:Generated_Source\PSoC4/CyDMA.c ****     return ((int32)numElements);
 1290              		.loc 1 1078 0
 1291 000c 80B2     		uxth	r0, r0
 1292              	.LVL93:
 1293 000e 0130     		adds	r0, r0, #1
 1294              		.loc 1 1079 0
 1295 0010 7047     		bx	lr
 1296              	.L117:
 1297 0012 C046     		.align	2
 1298              	.L116:
 1299 0014 00181040 		.word	1074796544
 1300              		.cfi_endproc
 1301              	.LFE36:
 1302              		.size	CyDmaGetNumDataElements, .-CyDmaGetNumDataElements
 1303              		.section	.text.CyDmaSetSrcDstTransferWidth,"ax",%progbits
 1304              		.align	1
 1305              		.global	CyDmaSetSrcDstTransferWidth
 1306              		.code	16
 1307              		.thumb_func
 1308              		.type	CyDmaSetSrcDstTransferWidth, %function
 1309              	CyDmaSetSrcDstTransferWidth:
 1310              	.LFB37:
1080:Generated_Source\PSoC4/CyDMA.c **** 
1081:Generated_Source\PSoC4/CyDMA.c **** 
1082:Generated_Source\PSoC4/CyDMA.c **** /*******************************************************************************
1083:Generated_Source\PSoC4/CyDMA.c **** * Function Name: CyDmaSetSrcDstTransferWidth
1084:Generated_Source\PSoC4/CyDMA.c **** ********************************************************************************
1085:Generated_Source\PSoC4/CyDMA.c **** *
1086:Generated_Source\PSoC4/CyDMA.c **** * Summary:
1087:Generated_Source\PSoC4/CyDMA.c **** *  Sets the width of the source and destination. The DMA can either read and
1088:Generated_Source\PSoC4/CyDMA.c **** *  write data from the source and destination at the size specified by
1089:Generated_Source\PSoC4/CyDMA.c **** *  CyDmaSetDataElementSize() or by a word (4bytes). This also determines how
1090:Generated_Source\PSoC4/CyDMA.c **** *  many bytes the addresses are incremented if increment source and destination
1091:Generated_Source\PSoC4/CyDMA.c **** *  address are turned on.
1092:Generated_Source\PSoC4/CyDMA.c **** *
1093:Generated_Source\PSoC4/CyDMA.c **** * Parameters:
1094:Generated_Source\PSoC4/CyDMA.c **** *  channel:       Channel used by this function.
1095:Generated_Source\PSoC4/CyDMA.c **** *  descriptor:    Descriptor (0 or 1) modified by this function.
1096:Generated_Source\PSoC4/CyDMA.c **** *  transferWidth: Specifies the source and destination widths. Refer to 
1097:Generated_Source\PSoC4/CyDMA.c **** *                 the API bit field definitions in CyDMA_P4.h or the API
1098:Generated_Source\PSoC4/CyDMA.c **** *                 description in the DMA channel datasheet for the parameter
1099:Generated_Source\PSoC4/CyDMA.c **** *                 options.
1100:Generated_Source\PSoC4/CyDMA.c **** *                   
1101:Generated_Source\PSoC4/CyDMA.c **** * Return:
1102:Generated_Source\PSoC4/CyDMA.c **** *  None.
1103:Generated_Source\PSoC4/CyDMA.c **** *
1104:Generated_Source\PSoC4/CyDMA.c **** * Side effect:
1105:Generated_Source\PSoC4/CyDMA.c **** *  This function should not be called when the specified descriptor is active
1106:Generated_Source\PSoC4/CyDMA.c **** *  in the DMA transfer engine. This can be checked by calling CyDmaGetStatus(). 
1107:Generated_Source\PSoC4/CyDMA.c **** *
1108:Generated_Source\PSoC4/CyDMA.c **** *******************************************************************************/
1109:Generated_Source\PSoC4/CyDMA.c **** void CyDmaSetSrcDstTransferWidth(int32 channel, int32 descriptor, uint32 transferWidth)
ARM GAS  C:\Users\theGu\AppData\Local\Temp\ccssehMe.s 			page 45


1110:Generated_Source\PSoC4/CyDMA.c **** {
 1311              		.loc 1 1110 0
 1312              		.cfi_startproc
 1313              		@ args = 0, pretend = 0, frame = 0
 1314              		@ frame_needed = 0, uses_anonymous_args = 0
 1315              		@ link register save eliminated.
 1316              	.LVL94:
1111:Generated_Source\PSoC4/CyDMA.c ****     uint32 regValue;
1112:Generated_Source\PSoC4/CyDMA.c **** 
1113:Generated_Source\PSoC4/CyDMA.c ****     CYASSERT((channel    >= 0) && (channel    < CYDMA_CH_NR));
1114:Generated_Source\PSoC4/CyDMA.c ****     CYASSERT((descriptor >= 0) && (descriptor < CYDMA_DESCR_NR));
1115:Generated_Source\PSoC4/CyDMA.c ****     CYASSERT(0u == (transferWidth & (uint32)~CYDMA_TRANSFER_WIDTH));
1116:Generated_Source\PSoC4/CyDMA.c **** 
1117:Generated_Source\PSoC4/CyDMA.c ****     regValue = CYDMA_DESCR_BASE.descriptor[channel][descriptor].ctl & (uint32)~CYDMA_TRANSFER_WIDTH
 1317              		.loc 1 1117 0
 1318 0000 4000     		lsls	r0, r0, #1
 1319              	.LVL95:
 1320 0002 4118     		adds	r1, r0, r1
 1321              	.LVL96:
 1322 0004 044B     		ldr	r3, .L119
 1323 0006 0901     		lsls	r1, r1, #4
 1324 0008 C918     		adds	r1, r1, r3
 1325 000a 8868     		ldr	r0, [r1, #8]
 1326              	.LVL97:
1118:Generated_Source\PSoC4/CyDMA.c ****     CYDMA_DESCR_BASE.descriptor[channel][descriptor].ctl = regValue | transferWidth;
 1327              		.loc 1 1118 0
 1328 000c 034B     		ldr	r3, .L119+4
1119:Generated_Source\PSoC4/CyDMA.c **** }
 1329              		.loc 1 1119 0
 1330              		@ sp needed
1118:Generated_Source\PSoC4/CyDMA.c ****     CYDMA_DESCR_BASE.descriptor[channel][descriptor].ctl = regValue | transferWidth;
 1331              		.loc 1 1118 0
 1332 000e 0340     		ands	r3, r0
 1333              	.LVL98:
 1334 0010 1A43     		orrs	r2, r3
 1335              	.LVL99:
 1336 0012 8A60     		str	r2, [r1, #8]
 1337              		.loc 1 1119 0
 1338 0014 7047     		bx	lr
 1339              	.L120:
 1340 0016 C046     		.align	2
 1341              	.L119:
 1342 0018 00181040 		.word	1074796544
 1343 001c FFFFAFFF 		.word	-5242881
 1344              		.cfi_endproc
 1345              	.LFE37:
 1346              		.size	CyDmaSetSrcDstTransferWidth, .-CyDmaSetSrcDstTransferWidth
 1347              		.section	.text.CyDmaGetSrcDstTransferWidth,"ax",%progbits
 1348              		.align	1
 1349              		.global	CyDmaGetSrcDstTransferWidth
 1350              		.code	16
 1351              		.thumb_func
 1352              		.type	CyDmaGetSrcDstTransferWidth, %function
 1353              	CyDmaGetSrcDstTransferWidth:
 1354              	.LFB38:
1120:Generated_Source\PSoC4/CyDMA.c **** 
1121:Generated_Source\PSoC4/CyDMA.c **** 
ARM GAS  C:\Users\theGu\AppData\Local\Temp\ccssehMe.s 			page 46


1122:Generated_Source\PSoC4/CyDMA.c **** /*******************************************************************************
1123:Generated_Source\PSoC4/CyDMA.c **** * Function Name: CyDmaGetSrcDstTransferWidth
1124:Generated_Source\PSoC4/CyDMA.c **** ********************************************************************************
1125:Generated_Source\PSoC4/CyDMA.c **** *
1126:Generated_Source\PSoC4/CyDMA.c **** * Summary:
1127:Generated_Source\PSoC4/CyDMA.c **** *  Returns the width of the source and destination, as set by 
1128:Generated_Source\PSoC4/CyDMA.c **** *  CyDmaSetSrcDstTransferWidth() or CyDmaSetConfiguration().
1129:Generated_Source\PSoC4/CyDMA.c **** *
1130:Generated_Source\PSoC4/CyDMA.c **** * Parameters:
1131:Generated_Source\PSoC4/CyDMA.c **** *  channel:    Channel used by this function.
1132:Generated_Source\PSoC4/CyDMA.c **** *  descriptor: Descriptor (0 or 1) modified by this function.
1133:Generated_Source\PSoC4/CyDMA.c **** *                   
1134:Generated_Source\PSoC4/CyDMA.c **** * Return:
1135:Generated_Source\PSoC4/CyDMA.c **** *  Width of source and destination. Refer to the API bit field definitions in
1136:Generated_Source\PSoC4/CyDMA.c **** *  CyDMA_P4.h or the API description in the DMA channel datasheet for more
1137:Generated_Source\PSoC4/CyDMA.c **** *  information.
1138:Generated_Source\PSoC4/CyDMA.c **** *
1139:Generated_Source\PSoC4/CyDMA.c **** *******************************************************************************/
1140:Generated_Source\PSoC4/CyDMA.c **** uint32 CyDmaGetSrcDstTransferWidth(int32 channel, int32 descriptor)
1141:Generated_Source\PSoC4/CyDMA.c **** {
 1355              		.loc 1 1141 0
 1356              		.cfi_startproc
 1357              		@ args = 0, pretend = 0, frame = 0
 1358              		@ frame_needed = 0, uses_anonymous_args = 0
 1359              		@ link register save eliminated.
 1360              	.LVL100:
1142:Generated_Source\PSoC4/CyDMA.c ****     CYASSERT((channel    >= 0) && (channel    < CYDMA_CH_NR));
1143:Generated_Source\PSoC4/CyDMA.c ****     CYASSERT((descriptor >= 0) && (descriptor < CYDMA_DESCR_NR));
1144:Generated_Source\PSoC4/CyDMA.c ****     return (CYDMA_DESCR_BASE.descriptor[channel][descriptor].ctl & CYDMA_TRANSFER_WIDTH);
 1361              		.loc 1 1144 0
 1362 0000 4000     		lsls	r0, r0, #1
 1363              	.LVL101:
 1364 0002 4118     		adds	r1, r0, r1
 1365              	.LVL102:
 1366 0004 034B     		ldr	r3, .L122
 1367 0006 0901     		lsls	r1, r1, #4
 1368 0008 C918     		adds	r1, r1, r3
 1369 000a A023     		movs	r3, #160
 1370 000c 8868     		ldr	r0, [r1, #8]
 1371 000e DB03     		lsls	r3, r3, #15
 1372 0010 1840     		ands	r0, r3
1145:Generated_Source\PSoC4/CyDMA.c **** }
 1373              		.loc 1 1145 0
 1374              		@ sp needed
 1375 0012 7047     		bx	lr
 1376              	.L123:
 1377              		.align	2
 1378              	.L122:
 1379 0014 00181040 		.word	1074796544
 1380              		.cfi_endproc
 1381              	.LFE38:
 1382              		.size	CyDmaGetSrcDstTransferWidth, .-CyDmaGetSrcDstTransferWidth
 1383              		.section	.text.CyDmaSetAddressIncrement,"ax",%progbits
 1384              		.align	1
 1385              		.global	CyDmaSetAddressIncrement
 1386              		.code	16
 1387              		.thumb_func
ARM GAS  C:\Users\theGu\AppData\Local\Temp\ccssehMe.s 			page 47


 1388              		.type	CyDmaSetAddressIncrement, %function
 1389              	CyDmaSetAddressIncrement:
 1390              	.LFB39:
1146:Generated_Source\PSoC4/CyDMA.c **** 
1147:Generated_Source\PSoC4/CyDMA.c **** 
1148:Generated_Source\PSoC4/CyDMA.c **** /*******************************************************************************
1149:Generated_Source\PSoC4/CyDMA.c **** * Function Name: CyDmaSetAddressIncrement
1150:Generated_Source\PSoC4/CyDMA.c **** ********************************************************************************
1151:Generated_Source\PSoC4/CyDMA.c **** *
1152:Generated_Source\PSoC4/CyDMA.c **** * Summary:
1153:Generated_Source\PSoC4/CyDMA.c **** *  Sets whether the source or destination addresses are incremented after the
1154:Generated_Source\PSoC4/CyDMA.c **** *  transfer of each data element. The amount that the source and destination
1155:Generated_Source\PSoC4/CyDMA.c **** *  address are incremented is determined by the CyDmaSetSrcDstTransferWidth()
1156:Generated_Source\PSoC4/CyDMA.c **** *  function. The addresses will either be incremented by the data element size
1157:Generated_Source\PSoC4/CyDMA.c **** *  or by a word (4 bytes).
1158:Generated_Source\PSoC4/CyDMA.c **** *
1159:Generated_Source\PSoC4/CyDMA.c **** * Parameters:
1160:Generated_Source\PSoC4/CyDMA.c **** *  channel:          Channel used by this function.
1161:Generated_Source\PSoC4/CyDMA.c **** *  descriptor:       Descriptor (0 or 1) modified by this function.
1162:Generated_Source\PSoC4/CyDMA.c **** *  addressIncrement: Address increment settings. Refer to the API bit fields 
1163:Generated_Source\PSoC4/CyDMA.c **** *                    definition in CyDMA_P4.h or the API description in the DMA
1164:Generated_Source\PSoC4/CyDMA.c **** *                    channel datasheet for the parameter options.
1165:Generated_Source\PSoC4/CyDMA.c **** *    
1166:Generated_Source\PSoC4/CyDMA.c **** * Return:
1167:Generated_Source\PSoC4/CyDMA.c **** *  None.
1168:Generated_Source\PSoC4/CyDMA.c **** *
1169:Generated_Source\PSoC4/CyDMA.c **** * Side effect:
1170:Generated_Source\PSoC4/CyDMA.c **** *  This function should not be called when the specified descriptor is active
1171:Generated_Source\PSoC4/CyDMA.c **** *  in the DMA transfer engine. This can be checked by calling CyDmaGetStatus(). 
1172:Generated_Source\PSoC4/CyDMA.c **** *
1173:Generated_Source\PSoC4/CyDMA.c **** *******************************************************************************/
1174:Generated_Source\PSoC4/CyDMA.c **** void CyDmaSetAddressIncrement(int32 channel, int32 descriptor, uint32 addressIncrement)
1175:Generated_Source\PSoC4/CyDMA.c **** {
 1391              		.loc 1 1175 0
 1392              		.cfi_startproc
 1393              		@ args = 0, pretend = 0, frame = 0
 1394              		@ frame_needed = 0, uses_anonymous_args = 0
 1395              		@ link register save eliminated.
 1396              	.LVL103:
1176:Generated_Source\PSoC4/CyDMA.c ****     uint32 regValue;
1177:Generated_Source\PSoC4/CyDMA.c **** 
1178:Generated_Source\PSoC4/CyDMA.c ****     CYASSERT((channel    >= 0) && (channel    < CYDMA_CH_NR));
1179:Generated_Source\PSoC4/CyDMA.c ****     CYASSERT((descriptor >= 0) && (descriptor < CYDMA_DESCR_NR));
1180:Generated_Source\PSoC4/CyDMA.c ****     CYASSERT(0u == (addressIncrement & (uint32)~CYDMA_ADDR_INCR));
1181:Generated_Source\PSoC4/CyDMA.c **** 
1182:Generated_Source\PSoC4/CyDMA.c ****     regValue = CYDMA_DESCR_BASE.descriptor[channel][descriptor].ctl & (uint32)~CYDMA_ADDR_INCR;
 1397              		.loc 1 1182 0
 1398 0000 4000     		lsls	r0, r0, #1
 1399              	.LVL104:
 1400 0002 4118     		adds	r1, r0, r1
 1401              	.LVL105:
 1402 0004 044B     		ldr	r3, .L125
 1403 0006 0901     		lsls	r1, r1, #4
 1404 0008 C918     		adds	r1, r1, r3
 1405 000a 8868     		ldr	r0, [r1, #8]
 1406              	.LVL106:
1183:Generated_Source\PSoC4/CyDMA.c ****     CYDMA_DESCR_BASE.descriptor[channel][descriptor].ctl = regValue | addressIncrement;
ARM GAS  C:\Users\theGu\AppData\Local\Temp\ccssehMe.s 			page 48


 1407              		.loc 1 1183 0
 1408 000c 034B     		ldr	r3, .L125+4
1184:Generated_Source\PSoC4/CyDMA.c **** }
 1409              		.loc 1 1184 0
 1410              		@ sp needed
1183:Generated_Source\PSoC4/CyDMA.c ****     CYDMA_DESCR_BASE.descriptor[channel][descriptor].ctl = regValue | addressIncrement;
 1411              		.loc 1 1183 0
 1412 000e 0340     		ands	r3, r0
 1413              	.LVL107:
 1414 0010 1A43     		orrs	r2, r3
 1415              	.LVL108:
 1416 0012 8A60     		str	r2, [r1, #8]
 1417              		.loc 1 1184 0
 1418 0014 7047     		bx	lr
 1419              	.L126:
 1420 0016 C046     		.align	2
 1421              	.L125:
 1422 0018 00181040 		.word	1074796544
 1423 001c FFFF5FFF 		.word	-10485761
 1424              		.cfi_endproc
 1425              	.LFE39:
 1426              		.size	CyDmaSetAddressIncrement, .-CyDmaSetAddressIncrement
 1427              		.section	.text.CyDmaGetAddressIncrement,"ax",%progbits
 1428              		.align	1
 1429              		.global	CyDmaGetAddressIncrement
 1430              		.code	16
 1431              		.thumb_func
 1432              		.type	CyDmaGetAddressIncrement, %function
 1433              	CyDmaGetAddressIncrement:
 1434              	.LFB40:
1185:Generated_Source\PSoC4/CyDMA.c **** 
1186:Generated_Source\PSoC4/CyDMA.c **** 
1187:Generated_Source\PSoC4/CyDMA.c **** /*******************************************************************************
1188:Generated_Source\PSoC4/CyDMA.c **** * Function Name: CyDmaGetAddressIncrement
1189:Generated_Source\PSoC4/CyDMA.c **** ********************************************************************************
1190:Generated_Source\PSoC4/CyDMA.c **** *
1191:Generated_Source\PSoC4/CyDMA.c **** * Summary:
1192:Generated_Source\PSoC4/CyDMA.c **** *  Returns address increment settings as set by CyDmaSetAddressIncrement() or
1193:Generated_Source\PSoC4/CyDMA.c **** *  CyDmaSetConfiguration().
1194:Generated_Source\PSoC4/CyDMA.c **** *
1195:Generated_Source\PSoC4/CyDMA.c **** * Parameters:
1196:Generated_Source\PSoC4/CyDMA.c **** *  channel:    Channel used by this function.
1197:Generated_Source\PSoC4/CyDMA.c **** *  descriptor: Descriptor (0 or 1) modified by this function.
1198:Generated_Source\PSoC4/CyDMA.c **** *                   
1199:Generated_Source\PSoC4/CyDMA.c **** * Return:
1200:Generated_Source\PSoC4/CyDMA.c **** *  Address increment settings. Refer to the API bit field definitions in
1201:Generated_Source\PSoC4/CyDMA.c **** *  CyDMA_P4.h or the API description in the DMA channel datasheet for more
1202:Generated_Source\PSoC4/CyDMA.c **** *  information.
1203:Generated_Source\PSoC4/CyDMA.c **** *
1204:Generated_Source\PSoC4/CyDMA.c **** *******************************************************************************/
1205:Generated_Source\PSoC4/CyDMA.c **** uint32 CyDmaGetAddressIncrement(int32 channel, int32 descriptor)
1206:Generated_Source\PSoC4/CyDMA.c **** {
 1435              		.loc 1 1206 0
 1436              		.cfi_startproc
 1437              		@ args = 0, pretend = 0, frame = 0
 1438              		@ frame_needed = 0, uses_anonymous_args = 0
 1439              		@ link register save eliminated.
ARM GAS  C:\Users\theGu\AppData\Local\Temp\ccssehMe.s 			page 49


 1440              	.LVL109:
1207:Generated_Source\PSoC4/CyDMA.c ****     CYASSERT((channel    >= 0) && (channel    < CYDMA_CH_NR));
1208:Generated_Source\PSoC4/CyDMA.c ****     CYASSERT((descriptor >= 0) && (descriptor < CYDMA_DESCR_NR));
1209:Generated_Source\PSoC4/CyDMA.c **** 
1210:Generated_Source\PSoC4/CyDMA.c ****     return (CYDMA_DESCR_BASE.descriptor[channel][descriptor].ctl & CYDMA_ADDR_INCR);
 1441              		.loc 1 1210 0
 1442 0000 4000     		lsls	r0, r0, #1
 1443              	.LVL110:
 1444 0002 4118     		adds	r1, r0, r1
 1445              	.LVL111:
 1446 0004 034B     		ldr	r3, .L128
 1447 0006 0901     		lsls	r1, r1, #4
 1448 0008 C918     		adds	r1, r1, r3
 1449 000a A023     		movs	r3, #160
 1450 000c 8868     		ldr	r0, [r1, #8]
 1451 000e 1B04     		lsls	r3, r3, #16
 1452 0010 1840     		ands	r0, r3
1211:Generated_Source\PSoC4/CyDMA.c **** }
 1453              		.loc 1 1211 0
 1454              		@ sp needed
 1455 0012 7047     		bx	lr
 1456              	.L129:
 1457              		.align	2
 1458              	.L128:
 1459 0014 00181040 		.word	1074796544
 1460              		.cfi_endproc
 1461              	.LFE40:
 1462              		.size	CyDmaGetAddressIncrement, .-CyDmaGetAddressIncrement
 1463              		.section	.text.CyDmaSetTriggerType,"ax",%progbits
 1464              		.align	1
 1465              		.global	CyDmaSetTriggerType
 1466              		.code	16
 1467              		.thumb_func
 1468              		.type	CyDmaSetTriggerType, %function
 1469              	CyDmaSetTriggerType:
 1470              	.LFB41:
1212:Generated_Source\PSoC4/CyDMA.c **** 
1213:Generated_Source\PSoC4/CyDMA.c **** 
1214:Generated_Source\PSoC4/CyDMA.c **** /*******************************************************************************
1215:Generated_Source\PSoC4/CyDMA.c **** * Function Name: CyDmaSetTriggerType
1216:Generated_Source\PSoC4/CyDMA.c **** ********************************************************************************
1217:Generated_Source\PSoC4/CyDMA.c **** *
1218:Generated_Source\PSoC4/CyDMA.c **** * Summary:
1219:Generated_Source\PSoC4/CyDMA.c **** *  Sets the type of input trigger for the DMA For level sensitive triggers sets
1220:Generated_Source\PSoC4/CyDMA.c **** *  how long the DMA waits for the trigger to go low (deactivate) before
1221:Generated_Source\PSoC4/CyDMA.c **** *  triggering the channel again.
1222:Generated_Source\PSoC4/CyDMA.c **** *
1223:Generated_Source\PSoC4/CyDMA.c **** * Parameters:
1224:Generated_Source\PSoC4/CyDMA.c **** *  channel:     Channel used by this function.
1225:Generated_Source\PSoC4/CyDMA.c **** *  descriptor:  Descriptor (0 or 1) modified by this function.
1226:Generated_Source\PSoC4/CyDMA.c **** *  triggerType: Type of DMA trigger. Refer to the API bit field definitions
1227:Generated_Source\PSoC4/CyDMA.c **** *               in CyDMA_P4.h or the API description in the DMA channel
1228:Generated_Source\PSoC4/CyDMA.c **** *               datasheet for the parameter options.
1229:Generated_Source\PSoC4/CyDMA.c **** *                   
1230:Generated_Source\PSoC4/CyDMA.c **** * Return:
1231:Generated_Source\PSoC4/CyDMA.c **** *  None.
1232:Generated_Source\PSoC4/CyDMA.c **** *
ARM GAS  C:\Users\theGu\AppData\Local\Temp\ccssehMe.s 			page 50


1233:Generated_Source\PSoC4/CyDMA.c **** * Side effect:
1234:Generated_Source\PSoC4/CyDMA.c **** *  This function should not be called when the specified descriptor is active
1235:Generated_Source\PSoC4/CyDMA.c **** *  in the DMA transfer engine. This can be checked by calling CyDmaGetStatus(). 
1236:Generated_Source\PSoC4/CyDMA.c **** *
1237:Generated_Source\PSoC4/CyDMA.c **** *******************************************************************************/
1238:Generated_Source\PSoC4/CyDMA.c **** void CyDmaSetTriggerType(int32 channel, int32 descriptor, uint32 triggerType)
1239:Generated_Source\PSoC4/CyDMA.c **** {
 1471              		.loc 1 1239 0
 1472              		.cfi_startproc
 1473              		@ args = 0, pretend = 0, frame = 0
 1474              		@ frame_needed = 0, uses_anonymous_args = 0
 1475              		@ link register save eliminated.
 1476              	.LVL112:
1240:Generated_Source\PSoC4/CyDMA.c ****     uint32 regValue;
1241:Generated_Source\PSoC4/CyDMA.c **** 
1242:Generated_Source\PSoC4/CyDMA.c ****     CYASSERT((channel    >= 0) && (channel    < CYDMA_CH_NR));
1243:Generated_Source\PSoC4/CyDMA.c ****     CYASSERT((descriptor >= 0) && (descriptor < CYDMA_DESCR_NR));
1244:Generated_Source\PSoC4/CyDMA.c ****     CYASSERT(0u == (triggerType & (uint32)~CYDMA_TRIGGER_TYPE));
1245:Generated_Source\PSoC4/CyDMA.c **** 
1246:Generated_Source\PSoC4/CyDMA.c ****     regValue = CYDMA_DESCR_BASE.descriptor[channel][descriptor].ctl & (uint32)~CYDMA_TRIGGER_TYPE;
 1477              		.loc 1 1246 0
 1478 0000 4000     		lsls	r0, r0, #1
 1479              	.LVL113:
 1480 0002 4118     		adds	r1, r0, r1
 1481              	.LVL114:
 1482 0004 044B     		ldr	r3, .L131
 1483 0006 0901     		lsls	r1, r1, #4
 1484 0008 C918     		adds	r1, r1, r3
 1485 000a 8868     		ldr	r0, [r1, #8]
 1486              	.LVL115:
1247:Generated_Source\PSoC4/CyDMA.c ****     CYDMA_DESCR_BASE.descriptor[channel][descriptor].ctl = regValue | triggerType;
 1487              		.loc 1 1247 0
 1488 000c 034B     		ldr	r3, .L131+4
1248:Generated_Source\PSoC4/CyDMA.c **** }
 1489              		.loc 1 1248 0
 1490              		@ sp needed
1247:Generated_Source\PSoC4/CyDMA.c ****     CYDMA_DESCR_BASE.descriptor[channel][descriptor].ctl = regValue | triggerType;
 1491              		.loc 1 1247 0
 1492 000e 0340     		ands	r3, r0
 1493              	.LVL116:
 1494 0010 1A43     		orrs	r2, r3
 1495              	.LVL117:
 1496 0012 8A60     		str	r2, [r1, #8]
 1497              		.loc 1 1248 0
 1498 0014 7047     		bx	lr
 1499              	.L132:
 1500 0016 C046     		.align	2
 1501              	.L131:
 1502 0018 00181040 		.word	1074796544
 1503 001c FFFFFFFC 		.word	-50331649
 1504              		.cfi_endproc
 1505              	.LFE41:
 1506              		.size	CyDmaSetTriggerType, .-CyDmaSetTriggerType
 1507              		.section	.text.CyDmaGetTriggerType,"ax",%progbits
 1508              		.align	1
 1509              		.global	CyDmaGetTriggerType
 1510              		.code	16
ARM GAS  C:\Users\theGu\AppData\Local\Temp\ccssehMe.s 			page 51


 1511              		.thumb_func
 1512              		.type	CyDmaGetTriggerType, %function
 1513              	CyDmaGetTriggerType:
 1514              	.LFB42:
1249:Generated_Source\PSoC4/CyDMA.c **** 
1250:Generated_Source\PSoC4/CyDMA.c **** 
1251:Generated_Source\PSoC4/CyDMA.c **** /*******************************************************************************
1252:Generated_Source\PSoC4/CyDMA.c **** * Function Name: CyDmaGetTriggerType
1253:Generated_Source\PSoC4/CyDMA.c **** ********************************************************************************
1254:Generated_Source\PSoC4/CyDMA.c **** *
1255:Generated_Source\PSoC4/CyDMA.c **** * Summary:
1256:Generated_Source\PSoC4/CyDMA.c **** *  Returns the trigger deactivation settings as set by CyDmaSetTriggerType() or
1257:Generated_Source\PSoC4/CyDMA.c **** *  CyDmaSetConfiguration().
1258:Generated_Source\PSoC4/CyDMA.c **** *
1259:Generated_Source\PSoC4/CyDMA.c **** * Parameters:
1260:Generated_Source\PSoC4/CyDMA.c **** *  channel:    Channel used by this function.
1261:Generated_Source\PSoC4/CyDMA.c **** *  descriptor: Descriptor (0 or 1) modified by this function.
1262:Generated_Source\PSoC4/CyDMA.c **** *                   
1263:Generated_Source\PSoC4/CyDMA.c **** * Return:
1264:Generated_Source\PSoC4/CyDMA.c **** *  Trigger deactivation settings. Refer to the API bit field definitions in
1265:Generated_Source\PSoC4/CyDMA.c **** *  CyDMA_P4.h or the API description in the DMA channel datasheet for more
1266:Generated_Source\PSoC4/CyDMA.c **** *  information.
1267:Generated_Source\PSoC4/CyDMA.c **** *
1268:Generated_Source\PSoC4/CyDMA.c **** *******************************************************************************/
1269:Generated_Source\PSoC4/CyDMA.c **** uint32 CyDmaGetTriggerType(int32 channel, int32 descriptor)
1270:Generated_Source\PSoC4/CyDMA.c **** {
 1515              		.loc 1 1270 0
 1516              		.cfi_startproc
 1517              		@ args = 0, pretend = 0, frame = 0
 1518              		@ frame_needed = 0, uses_anonymous_args = 0
 1519              		@ link register save eliminated.
 1520              	.LVL118:
1271:Generated_Source\PSoC4/CyDMA.c ****     CYASSERT((channel    >= 0) && (channel    < CYDMA_CH_NR));
1272:Generated_Source\PSoC4/CyDMA.c ****     CYASSERT((descriptor >= 0) && (descriptor < CYDMA_DESCR_NR));
1273:Generated_Source\PSoC4/CyDMA.c **** 
1274:Generated_Source\PSoC4/CyDMA.c ****     return (CYDMA_DESCR_BASE.descriptor[channel][descriptor].ctl & CYDMA_TRIGGER_TYPE);
 1521              		.loc 1 1274 0
 1522 0000 4000     		lsls	r0, r0, #1
 1523              	.LVL119:
 1524 0002 4118     		adds	r1, r0, r1
 1525              	.LVL120:
 1526 0004 034B     		ldr	r3, .L134
 1527 0006 0901     		lsls	r1, r1, #4
 1528 0008 C918     		adds	r1, r1, r3
 1529 000a C023     		movs	r3, #192
 1530 000c 8868     		ldr	r0, [r1, #8]
 1531 000e 9B04     		lsls	r3, r3, #18
 1532 0010 1840     		ands	r0, r3
1275:Generated_Source\PSoC4/CyDMA.c **** }
 1533              		.loc 1 1275 0
 1534              		@ sp needed
 1535 0012 7047     		bx	lr
 1536              	.L135:
 1537              		.align	2
 1538              	.L134:
 1539 0014 00181040 		.word	1074796544
 1540              		.cfi_endproc
ARM GAS  C:\Users\theGu\AppData\Local\Temp\ccssehMe.s 			page 52


 1541              	.LFE42:
 1542              		.size	CyDmaGetTriggerType, .-CyDmaGetTriggerType
 1543              		.section	.text.CyDmaSetTransferMode,"ax",%progbits
 1544              		.align	1
 1545              		.global	CyDmaSetTransferMode
 1546              		.code	16
 1547              		.thumb_func
 1548              		.type	CyDmaSetTransferMode, %function
 1549              	CyDmaSetTransferMode:
 1550              	.LFB43:
1276:Generated_Source\PSoC4/CyDMA.c **** 
1277:Generated_Source\PSoC4/CyDMA.c **** 
1278:Generated_Source\PSoC4/CyDMA.c **** /*******************************************************************************
1279:Generated_Source\PSoC4/CyDMA.c **** * Function Name: CyDmaSetTransferMode
1280:Generated_Source\PSoC4/CyDMA.c **** ********************************************************************************
1281:Generated_Source\PSoC4/CyDMA.c **** *
1282:Generated_Source\PSoC4/CyDMA.c **** * Summary:
1283:Generated_Source\PSoC4/CyDMA.c **** *  Sets the DMA transfer mode. This determines how the DMA reacts to each trigger
1284:Generated_Source\PSoC4/CyDMA.c **** *  event.
1285:Generated_Source\PSoC4/CyDMA.c **** *
1286:Generated_Source\PSoC4/CyDMA.c **** * Parameters:
1287:Generated_Source\PSoC4/CyDMA.c **** *  channel:      Channel used by this function.
1288:Generated_Source\PSoC4/CyDMA.c **** *  descriptor:   Descriptor (0 or 1) modified by this function.
1289:Generated_Source\PSoC4/CyDMA.c **** *  transferMode: Specifies the DMA transfer mode settings. Refer to the API bit
1290:Generated_Source\PSoC4/CyDMA.c **** *                field definitions in CyDMA_P4.h or the API description in the
1291:Generated_Source\PSoC4/CyDMA.c **** *                DMA channel datasheet for the parameter options.
1292:Generated_Source\PSoC4/CyDMA.c **** *                   
1293:Generated_Source\PSoC4/CyDMA.c **** * Return:
1294:Generated_Source\PSoC4/CyDMA.c **** *  None.
1295:Generated_Source\PSoC4/CyDMA.c **** *
1296:Generated_Source\PSoC4/CyDMA.c **** * Side effect:
1297:Generated_Source\PSoC4/CyDMA.c **** *  This function should not be called when the specified descriptor is active
1298:Generated_Source\PSoC4/CyDMA.c **** *  in the DMA transfer engine. This can be checked by calling CyDmaGetStatus(). 
1299:Generated_Source\PSoC4/CyDMA.c **** *
1300:Generated_Source\PSoC4/CyDMA.c **** *******************************************************************************/
1301:Generated_Source\PSoC4/CyDMA.c **** void CyDmaSetTransferMode(int32 channel, int32 descriptor, uint32 transferMode)
1302:Generated_Source\PSoC4/CyDMA.c **** {
 1551              		.loc 1 1302 0
 1552              		.cfi_startproc
 1553              		@ args = 0, pretend = 0, frame = 0
 1554              		@ frame_needed = 0, uses_anonymous_args = 0
 1555              		@ link register save eliminated.
 1556              	.LVL121:
1303:Generated_Source\PSoC4/CyDMA.c ****     uint32 regValue;
1304:Generated_Source\PSoC4/CyDMA.c **** 
1305:Generated_Source\PSoC4/CyDMA.c ****     CYASSERT((channel    >= 0) && (channel    < CYDMA_CH_NR));
1306:Generated_Source\PSoC4/CyDMA.c ****     CYASSERT((descriptor >= 0) && (descriptor < CYDMA_DESCR_NR));
1307:Generated_Source\PSoC4/CyDMA.c ****     CYASSERT(0u == (transferMode & (uint32)~CYDMA_TRANSFER_MODE));
1308:Generated_Source\PSoC4/CyDMA.c **** 
1309:Generated_Source\PSoC4/CyDMA.c ****     regValue = CYDMA_DESCR_BASE.descriptor[channel][descriptor].ctl & (uint32)~CYDMA_TRANSFER_MODE;
 1557              		.loc 1 1309 0
 1558 0000 4000     		lsls	r0, r0, #1
 1559              	.LVL122:
 1560 0002 4118     		adds	r1, r0, r1
 1561              	.LVL123:
 1562 0004 044B     		ldr	r3, .L137
 1563 0006 0901     		lsls	r1, r1, #4
ARM GAS  C:\Users\theGu\AppData\Local\Temp\ccssehMe.s 			page 53


 1564 0008 C918     		adds	r1, r1, r3
 1565 000a 8B68     		ldr	r3, [r1, #8]
 1566              	.LVL124:
1310:Generated_Source\PSoC4/CyDMA.c ****     CYDMA_DESCR_BASE.descriptor[channel][descriptor].ctl = regValue | transferMode;
1311:Generated_Source\PSoC4/CyDMA.c **** }
 1567              		.loc 1 1311 0
 1568              		@ sp needed
1310:Generated_Source\PSoC4/CyDMA.c ****     CYDMA_DESCR_BASE.descriptor[channel][descriptor].ctl = regValue | transferMode;
 1569              		.loc 1 1310 0
 1570 000c 9B00     		lsls	r3, r3, #2
 1571              	.LVL125:
 1572 000e 9B08     		lsrs	r3, r3, #2
 1573 0010 1343     		orrs	r3, r2
 1574 0012 8B60     		str	r3, [r1, #8]
 1575              		.loc 1 1311 0
 1576 0014 7047     		bx	lr
 1577              	.L138:
 1578 0016 C046     		.align	2
 1579              	.L137:
 1580 0018 00181040 		.word	1074796544
 1581              		.cfi_endproc
 1582              	.LFE43:
 1583              		.size	CyDmaSetTransferMode, .-CyDmaSetTransferMode
 1584              		.section	.text.CyDmaGetTransferMode,"ax",%progbits
 1585              		.align	1
 1586              		.global	CyDmaGetTransferMode
 1587              		.code	16
 1588              		.thumb_func
 1589              		.type	CyDmaGetTransferMode, %function
 1590              	CyDmaGetTransferMode:
 1591              	.LFB44:
1312:Generated_Source\PSoC4/CyDMA.c **** 
1313:Generated_Source\PSoC4/CyDMA.c **** 
1314:Generated_Source\PSoC4/CyDMA.c **** /*******************************************************************************
1315:Generated_Source\PSoC4/CyDMA.c **** * Function Name: CyDmaGetTransferMode
1316:Generated_Source\PSoC4/CyDMA.c **** ********************************************************************************
1317:Generated_Source\PSoC4/CyDMA.c **** *
1318:Generated_Source\PSoC4/CyDMA.c **** * Summary:
1319:Generated_Source\PSoC4/CyDMA.c **** *  Returns the transfer mode for the specified descriptor as set by 
1320:Generated_Source\PSoC4/CyDMA.c **** *  CyDmaSetTransferMode() or CyDmaSetConfiguration.
1321:Generated_Source\PSoC4/CyDMA.c **** *
1322:Generated_Source\PSoC4/CyDMA.c **** * Parameters:
1323:Generated_Source\PSoC4/CyDMA.c **** *  channel:    Channel used by this function.
1324:Generated_Source\PSoC4/CyDMA.c **** *  descriptor: Descriptor (0 or 1) modified by this function.
1325:Generated_Source\PSoC4/CyDMA.c **** *                   
1326:Generated_Source\PSoC4/CyDMA.c **** * Return:
1327:Generated_Source\PSoC4/CyDMA.c **** *  DMA transfer mode settings. Refer to the API bit field definitions in
1328:Generated_Source\PSoC4/CyDMA.c **** *  CyDMA_P4.h or the API description in the DMA channel datasheet for more
1329:Generated_Source\PSoC4/CyDMA.c **** *  information.
1330:Generated_Source\PSoC4/CyDMA.c **** *
1331:Generated_Source\PSoC4/CyDMA.c **** *******************************************************************************/
1332:Generated_Source\PSoC4/CyDMA.c **** uint32 CyDmaGetTransferMode(int32 channel, int32 descriptor)
1333:Generated_Source\PSoC4/CyDMA.c **** {
 1592              		.loc 1 1333 0
 1593              		.cfi_startproc
 1594              		@ args = 0, pretend = 0, frame = 0
 1595              		@ frame_needed = 0, uses_anonymous_args = 0
ARM GAS  C:\Users\theGu\AppData\Local\Temp\ccssehMe.s 			page 54


 1596              		@ link register save eliminated.
 1597              	.LVL126:
1334:Generated_Source\PSoC4/CyDMA.c ****     CYASSERT((channel    >= 0) && (channel    < CYDMA_CH_NR));
1335:Generated_Source\PSoC4/CyDMA.c ****     CYASSERT((descriptor >= 0) && (descriptor < CYDMA_DESCR_NR));
1336:Generated_Source\PSoC4/CyDMA.c **** 
1337:Generated_Source\PSoC4/CyDMA.c ****     return (CYDMA_DESCR_BASE.descriptor[channel][descriptor].ctl & CYDMA_TRANSFER_MODE);
 1598              		.loc 1 1337 0
 1599 0000 4000     		lsls	r0, r0, #1
 1600              	.LVL127:
 1601 0002 4118     		adds	r1, r0, r1
 1602              	.LVL128:
 1603 0004 034B     		ldr	r3, .L140
 1604 0006 0901     		lsls	r1, r1, #4
 1605 0008 C918     		adds	r1, r1, r3
 1606 000a 8868     		ldr	r0, [r1, #8]
1338:Generated_Source\PSoC4/CyDMA.c **** }
 1607              		.loc 1 1338 0
 1608              		@ sp needed
1337:Generated_Source\PSoC4/CyDMA.c **** }
 1609              		.loc 1 1337 0
 1610 000c 800F     		lsrs	r0, r0, #30
 1611 000e 8007     		lsls	r0, r0, #30
 1612              		.loc 1 1338 0
 1613 0010 7047     		bx	lr
 1614              	.L141:
 1615 0012 C046     		.align	2
 1616              	.L140:
 1617 0014 00181040 		.word	1074796544
 1618              		.cfi_endproc
 1619              	.LFE44:
 1620              		.size	CyDmaGetTransferMode, .-CyDmaGetTransferMode
 1621              		.section	.text.CyDmaSetPreemptable,"ax",%progbits
 1622              		.align	1
 1623              		.global	CyDmaSetPreemptable
 1624              		.code	16
 1625              		.thumb_func
 1626              		.type	CyDmaSetPreemptable, %function
 1627              	CyDmaSetPreemptable:
 1628              	.LFB45:
1339:Generated_Source\PSoC4/CyDMA.c **** 
1340:Generated_Source\PSoC4/CyDMA.c **** 
1341:Generated_Source\PSoC4/CyDMA.c **** /*******************************************************************************
1342:Generated_Source\PSoC4/CyDMA.c **** * Function Name: CyDmaSetPreemptable
1343:Generated_Source\PSoC4/CyDMA.c **** ********************************************************************************
1344:Generated_Source\PSoC4/CyDMA.c **** *
1345:Generated_Source\PSoC4/CyDMA.c **** * Summary:
1346:Generated_Source\PSoC4/CyDMA.c **** *  Determines if the descriptor is preemptable.
1347:Generated_Source\PSoC4/CyDMA.c **** *
1348:Generated_Source\PSoC4/CyDMA.c **** * Parameters:
1349:Generated_Source\PSoC4/CyDMA.c **** *  channel:     Channel used by this function.
1350:Generated_Source\PSoC4/CyDMA.c **** *  descriptor:  Descriptor (0 or 1) modified by this function.
1351:Generated_Source\PSoC4/CyDMA.c **** *  preemptable: Descriptor preemption settings. Refer to the API bit fields
1352:Generated_Source\PSoC4/CyDMA.c **** *               definition in CyDMA_P4.h or the API description in the DMA 
1353:Generated_Source\PSoC4/CyDMA.c **** *               channel datasheet for the parameter options.
1354:Generated_Source\PSoC4/CyDMA.c **** *                   
1355:Generated_Source\PSoC4/CyDMA.c **** * Return:
1356:Generated_Source\PSoC4/CyDMA.c **** *  None.
ARM GAS  C:\Users\theGu\AppData\Local\Temp\ccssehMe.s 			page 55


1357:Generated_Source\PSoC4/CyDMA.c **** *
1358:Generated_Source\PSoC4/CyDMA.c **** * Side effect:
1359:Generated_Source\PSoC4/CyDMA.c **** *  This function should not be called when the specified descriptor is active
1360:Generated_Source\PSoC4/CyDMA.c **** *  in the DMA transfer engine. This can be checked by calling CyDmaGetStatus(). 
1361:Generated_Source\PSoC4/CyDMA.c **** *
1362:Generated_Source\PSoC4/CyDMA.c **** *******************************************************************************/
1363:Generated_Source\PSoC4/CyDMA.c **** void CyDmaSetPreemptable(int32 channel, int32 descriptor, uint32 preemptable)
1364:Generated_Source\PSoC4/CyDMA.c **** {
 1629              		.loc 1 1364 0
 1630              		.cfi_startproc
 1631              		@ args = 0, pretend = 0, frame = 0
 1632              		@ frame_needed = 0, uses_anonymous_args = 0
 1633              		@ link register save eliminated.
 1634              	.LVL129:
1365:Generated_Source\PSoC4/CyDMA.c ****     uint32 regValue;
1366:Generated_Source\PSoC4/CyDMA.c **** 
1367:Generated_Source\PSoC4/CyDMA.c ****     CYASSERT((channel    >= 0) && (channel    < CYDMA_CH_NR));
1368:Generated_Source\PSoC4/CyDMA.c ****     CYASSERT((descriptor >= 0) && (descriptor < CYDMA_DESCR_NR));
1369:Generated_Source\PSoC4/CyDMA.c ****     CYASSERT(0u == (preemptable & (uint32)~CYDMA_PREEMPTABLE));
1370:Generated_Source\PSoC4/CyDMA.c **** 
1371:Generated_Source\PSoC4/CyDMA.c ****     regValue = CYDMA_DESCR_BASE.descriptor[channel][descriptor].ctl & (uint32)~CYDMA_PREEMPTABLE;
 1635              		.loc 1 1371 0
 1636 0000 4000     		lsls	r0, r0, #1
 1637              	.LVL130:
 1638 0002 4118     		adds	r1, r0, r1
 1639              	.LVL131:
 1640 0004 044B     		ldr	r3, .L143
 1641 0006 0901     		lsls	r1, r1, #4
 1642 0008 C918     		adds	r1, r1, r3
 1643 000a 8868     		ldr	r0, [r1, #8]
 1644              	.LVL132:
1372:Generated_Source\PSoC4/CyDMA.c ****     CYDMA_DESCR_BASE.descriptor[channel][descriptor].ctl = regValue | preemptable;
 1645              		.loc 1 1372 0
 1646 000c 034B     		ldr	r3, .L143+4
1373:Generated_Source\PSoC4/CyDMA.c **** }
 1647              		.loc 1 1373 0
 1648              		@ sp needed
1372:Generated_Source\PSoC4/CyDMA.c ****     CYDMA_DESCR_BASE.descriptor[channel][descriptor].ctl = regValue | preemptable;
 1649              		.loc 1 1372 0
 1650 000e 0340     		ands	r3, r0
 1651              	.LVL133:
 1652 0010 1A43     		orrs	r2, r3
 1653              	.LVL134:
 1654 0012 8A60     		str	r2, [r1, #8]
 1655              		.loc 1 1373 0
 1656 0014 7047     		bx	lr
 1657              	.L144:
 1658 0016 C046     		.align	2
 1659              	.L143:
 1660 0018 00181040 		.word	1074796544
 1661 001c FFFFFFEF 		.word	-268435457
 1662              		.cfi_endproc
 1663              	.LFE45:
 1664              		.size	CyDmaSetPreemptable, .-CyDmaSetPreemptable
 1665              		.section	.text.CyDmaGetPreemptable,"ax",%progbits
 1666              		.align	1
 1667              		.global	CyDmaGetPreemptable
ARM GAS  C:\Users\theGu\AppData\Local\Temp\ccssehMe.s 			page 56


 1668              		.code	16
 1669              		.thumb_func
 1670              		.type	CyDmaGetPreemptable, %function
 1671              	CyDmaGetPreemptable:
 1672              	.LFB46:
1374:Generated_Source\PSoC4/CyDMA.c **** 
1375:Generated_Source\PSoC4/CyDMA.c **** 
1376:Generated_Source\PSoC4/CyDMA.c **** /*******************************************************************************
1377:Generated_Source\PSoC4/CyDMA.c **** * Function Name: CyDmaGetPreemptable
1378:Generated_Source\PSoC4/CyDMA.c **** ********************************************************************************
1379:Generated_Source\PSoC4/CyDMA.c **** *
1380:Generated_Source\PSoC4/CyDMA.c **** * Summary:
1381:Generated_Source\PSoC4/CyDMA.c **** *  Returns whether or not the descriptor is preemptable.
1382:Generated_Source\PSoC4/CyDMA.c **** *
1383:Generated_Source\PSoC4/CyDMA.c **** * Parameters:
1384:Generated_Source\PSoC4/CyDMA.c **** *  channel:    Channel used by this function.
1385:Generated_Source\PSoC4/CyDMA.c **** *  descriptor: Descriptor (0 or 1) modified by this function.
1386:Generated_Source\PSoC4/CyDMA.c **** *                   
1387:Generated_Source\PSoC4/CyDMA.c **** * Return:
1388:Generated_Source\PSoC4/CyDMA.c **** *  Descriptor preemption setting. Refer to the API bit field definitions in
1389:Generated_Source\PSoC4/CyDMA.c **** *  CyDMA_P4.h or the API description in the DMA channel datasheet for more
1390:Generated_Source\PSoC4/CyDMA.c **** *  information.
1391:Generated_Source\PSoC4/CyDMA.c **** *
1392:Generated_Source\PSoC4/CyDMA.c **** *******************************************************************************/
1393:Generated_Source\PSoC4/CyDMA.c **** uint32 CyDmaGetPreemptable(int32 channel, int32 descriptor)
1394:Generated_Source\PSoC4/CyDMA.c **** {
 1673              		.loc 1 1394 0
 1674              		.cfi_startproc
 1675              		@ args = 0, pretend = 0, frame = 0
 1676              		@ frame_needed = 0, uses_anonymous_args = 0
 1677              		@ link register save eliminated.
 1678              	.LVL135:
1395:Generated_Source\PSoC4/CyDMA.c ****     CYASSERT((channel    >= 0) && (channel    < CYDMA_CH_NR));
1396:Generated_Source\PSoC4/CyDMA.c ****     CYASSERT((descriptor >= 0) && (descriptor < CYDMA_DESCR_NR));
1397:Generated_Source\PSoC4/CyDMA.c **** 
1398:Generated_Source\PSoC4/CyDMA.c ****     return (CYDMA_DESCR_BASE.descriptor[channel][descriptor].ctl & CYDMA_PREEMPTABLE);
 1679              		.loc 1 1398 0
 1680 0000 4000     		lsls	r0, r0, #1
 1681              	.LVL136:
 1682 0002 4118     		adds	r1, r0, r1
 1683              	.LVL137:
 1684 0004 034B     		ldr	r3, .L146
 1685 0006 0901     		lsls	r1, r1, #4
 1686 0008 C918     		adds	r1, r1, r3
 1687 000a 8023     		movs	r3, #128
 1688 000c 8868     		ldr	r0, [r1, #8]
 1689 000e 5B05     		lsls	r3, r3, #21
 1690 0010 1840     		ands	r0, r3
1399:Generated_Source\PSoC4/CyDMA.c **** }
 1691              		.loc 1 1399 0
 1692              		@ sp needed
 1693 0012 7047     		bx	lr
 1694              	.L147:
 1695              		.align	2
 1696              	.L146:
 1697 0014 00181040 		.word	1074796544
 1698              		.cfi_endproc
ARM GAS  C:\Users\theGu\AppData\Local\Temp\ccssehMe.s 			page 57


 1699              	.LFE46:
 1700              		.size	CyDmaGetPreemptable, .-CyDmaGetPreemptable
 1701              		.section	.text.CyDmaSetPostCompletionActions,"ax",%progbits
 1702              		.align	1
 1703              		.global	CyDmaSetPostCompletionActions
 1704              		.code	16
 1705              		.thumb_func
 1706              		.type	CyDmaSetPostCompletionActions, %function
 1707              	CyDmaSetPostCompletionActions:
 1708              	.LFB47:
1400:Generated_Source\PSoC4/CyDMA.c **** 
1401:Generated_Source\PSoC4/CyDMA.c **** 
1402:Generated_Source\PSoC4/CyDMA.c **** /*******************************************************************************
1403:Generated_Source\PSoC4/CyDMA.c **** * Function Name: CyDmaSetPostCompletionActions
1404:Generated_Source\PSoC4/CyDMA.c **** ********************************************************************************
1405:Generated_Source\PSoC4/CyDMA.c **** *
1406:Generated_Source\PSoC4/CyDMA.c **** * Summary:
1407:Generated_Source\PSoC4/CyDMA.c **** *  Determines what occurs after a descriptor completes.
1408:Generated_Source\PSoC4/CyDMA.c **** *
1409:Generated_Source\PSoC4/CyDMA.c **** * Parameters:
1410:Generated_Source\PSoC4/CyDMA.c **** *  channel:    Channel used by this function.
1411:Generated_Source\PSoC4/CyDMA.c **** *  descriptor: Descriptor (0 or 1) modified by this function.
1412:Generated_Source\PSoC4/CyDMA.c **** *  actions:    Specifies descriptor post completion actions. Refer to the API
1413:Generated_Source\PSoC4/CyDMA.c **** *              bit field definitions in CyDMA_P4.h or the API description
1414:Generated_Source\PSoC4/CyDMA.c **** *              in the DMA channel datasheet for the parameter options.
1415:Generated_Source\PSoC4/CyDMA.c **** *                   
1416:Generated_Source\PSoC4/CyDMA.c **** * Return:
1417:Generated_Source\PSoC4/CyDMA.c **** *  None.  
1418:Generated_Source\PSoC4/CyDMA.c **** *
1419:Generated_Source\PSoC4/CyDMA.c **** * Side effect:
1420:Generated_Source\PSoC4/CyDMA.c **** *  This function should not be called when the specified descriptor is active
1421:Generated_Source\PSoC4/CyDMA.c **** *  in the DMA transfer engine. This can be checked by calling CyDmaGetStatus(). 
1422:Generated_Source\PSoC4/CyDMA.c **** *
1423:Generated_Source\PSoC4/CyDMA.c **** *******************************************************************************/
1424:Generated_Source\PSoC4/CyDMA.c **** void CyDmaSetPostCompletionActions(int32 channel, int32 descriptor, uint32 actions)
1425:Generated_Source\PSoC4/CyDMA.c **** {
 1709              		.loc 1 1425 0
 1710              		.cfi_startproc
 1711              		@ args = 0, pretend = 0, frame = 0
 1712              		@ frame_needed = 0, uses_anonymous_args = 0
 1713              		@ link register save eliminated.
 1714              	.LVL138:
1426:Generated_Source\PSoC4/CyDMA.c ****     uint32 regValue;
1427:Generated_Source\PSoC4/CyDMA.c **** 
1428:Generated_Source\PSoC4/CyDMA.c ****     CYASSERT((channel    >= 0) && (channel    < CYDMA_CH_NR));
1429:Generated_Source\PSoC4/CyDMA.c ****     CYASSERT((descriptor >= 0) && (descriptor < CYDMA_DESCR_NR));
1430:Generated_Source\PSoC4/CyDMA.c ****     CYASSERT(0u == (actions & (uint32)~CYDMA_POST_COMPLETE_ACTIONS));
1431:Generated_Source\PSoC4/CyDMA.c **** 
1432:Generated_Source\PSoC4/CyDMA.c ****     regValue = CYDMA_DESCR_BASE.descriptor[channel][descriptor].ctl & (uint32)~CYDMA_POST_COMPLETE_
 1715              		.loc 1 1432 0
 1716 0000 4000     		lsls	r0, r0, #1
 1717              	.LVL139:
 1718 0002 4118     		adds	r1, r0, r1
 1719              	.LVL140:
 1720 0004 044B     		ldr	r3, .L149
 1721 0006 0901     		lsls	r1, r1, #4
 1722 0008 C918     		adds	r1, r1, r3
ARM GAS  C:\Users\theGu\AppData\Local\Temp\ccssehMe.s 			page 58


 1723 000a 8868     		ldr	r0, [r1, #8]
 1724              	.LVL141:
1433:Generated_Source\PSoC4/CyDMA.c ****     CYDMA_DESCR_BASE.descriptor[channel][descriptor].ctl = regValue | actions;
 1725              		.loc 1 1433 0
 1726 000c 034B     		ldr	r3, .L149+4
1434:Generated_Source\PSoC4/CyDMA.c **** }
 1727              		.loc 1 1434 0
 1728              		@ sp needed
1433:Generated_Source\PSoC4/CyDMA.c ****     CYDMA_DESCR_BASE.descriptor[channel][descriptor].ctl = regValue | actions;
 1729              		.loc 1 1433 0
 1730 000e 0340     		ands	r3, r0
 1731              	.LVL142:
 1732 0010 1A43     		orrs	r2, r3
 1733              	.LVL143:
 1734 0012 8A60     		str	r2, [r1, #8]
 1735              		.loc 1 1434 0
 1736 0014 7047     		bx	lr
 1737              	.L150:
 1738 0016 C046     		.align	2
 1739              	.L149:
 1740 0018 00181040 		.word	1074796544
 1741 001c FFFFFFD3 		.word	-738197505
 1742              		.cfi_endproc
 1743              	.LFE47:
 1744              		.size	CyDmaSetPostCompletionActions, .-CyDmaSetPostCompletionActions
 1745              		.section	.text.CyDmaGetPostCompletionActions,"ax",%progbits
 1746              		.align	1
 1747              		.global	CyDmaGetPostCompletionActions
 1748              		.code	16
 1749              		.thumb_func
 1750              		.type	CyDmaGetPostCompletionActions, %function
 1751              	CyDmaGetPostCompletionActions:
 1752              	.LFB48:
1435:Generated_Source\PSoC4/CyDMA.c **** 
1436:Generated_Source\PSoC4/CyDMA.c **** 
1437:Generated_Source\PSoC4/CyDMA.c **** /*******************************************************************************
1438:Generated_Source\PSoC4/CyDMA.c **** * Function Name: CyDmaGetPostCompletionActions
1439:Generated_Source\PSoC4/CyDMA.c **** ********************************************************************************
1440:Generated_Source\PSoC4/CyDMA.c **** *
1441:Generated_Source\PSoC4/CyDMA.c **** * Summary:
1442:Generated_Source\PSoC4/CyDMA.c **** *  Returns the post descriptor action settings as set by 
1443:Generated_Source\PSoC4/CyDMA.c **** *  CyDmaSetPostCompletionActions() or CyDmaSetConfiguration().
1444:Generated_Source\PSoC4/CyDMA.c **** *
1445:Generated_Source\PSoC4/CyDMA.c **** * Parameters:
1446:Generated_Source\PSoC4/CyDMA.c **** *  channel:    Channel used by this function.
1447:Generated_Source\PSoC4/CyDMA.c **** *  descriptor: Descriptor (0 or 1) modified by this function.
1448:Generated_Source\PSoC4/CyDMA.c **** *                   
1449:Generated_Source\PSoC4/CyDMA.c **** * Return:
1450:Generated_Source\PSoC4/CyDMA.c **** *  Post descriptor actions. Refer to the API bit field definitions in
1451:Generated_Source\PSoC4/CyDMA.c **** *  CyDMA_P4.h or the API description in the DMA channel datasheet for more
1452:Generated_Source\PSoC4/CyDMA.c **** *  information.
1453:Generated_Source\PSoC4/CyDMA.c **** *
1454:Generated_Source\PSoC4/CyDMA.c **** *******************************************************************************/
1455:Generated_Source\PSoC4/CyDMA.c **** uint32 CyDmaGetPostCompletionActions(int32 channel, int32 descriptor)
1456:Generated_Source\PSoC4/CyDMA.c **** {
 1753              		.loc 1 1456 0
 1754              		.cfi_startproc
ARM GAS  C:\Users\theGu\AppData\Local\Temp\ccssehMe.s 			page 59


 1755              		@ args = 0, pretend = 0, frame = 0
 1756              		@ frame_needed = 0, uses_anonymous_args = 0
 1757              		@ link register save eliminated.
 1758              	.LVL144:
1457:Generated_Source\PSoC4/CyDMA.c ****     CYASSERT((channel    >= 0) && (channel    < CYDMA_CH_NR));
1458:Generated_Source\PSoC4/CyDMA.c ****     CYASSERT((descriptor >= 0) && (descriptor < CYDMA_DESCR_NR));
1459:Generated_Source\PSoC4/CyDMA.c **** 
1460:Generated_Source\PSoC4/CyDMA.c ****     return (CYDMA_DESCR_BASE.descriptor[channel][descriptor].ctl & CYDMA_POST_COMPLETE_ACTIONS);
 1759              		.loc 1 1460 0
 1760 0000 4000     		lsls	r0, r0, #1
 1761              	.LVL145:
 1762 0002 4118     		adds	r1, r0, r1
 1763              	.LVL146:
 1764 0004 034B     		ldr	r3, .L152
 1765 0006 0901     		lsls	r1, r1, #4
 1766 0008 C918     		adds	r1, r1, r3
 1767 000a B023     		movs	r3, #176
 1768 000c 8868     		ldr	r0, [r1, #8]
 1769 000e 9B05     		lsls	r3, r3, #22
 1770 0010 1840     		ands	r0, r3
1461:Generated_Source\PSoC4/CyDMA.c **** }
 1771              		.loc 1 1461 0
 1772              		@ sp needed
 1773 0012 7047     		bx	lr
 1774              	.L153:
 1775              		.align	2
 1776              	.L152:
 1777 0014 00181040 		.word	1074796544
 1778              		.cfi_endproc
 1779              	.LFE48:
 1780              		.size	CyDmaGetPostCompletionActions, .-CyDmaGetPostCompletionActions
 1781              		.section	.rodata
 1782              		.align	2
 1783              		.set	.LANCHOR2,. + 0
 1784              		.type	trCtlLut.5141, %object
 1785              		.size	trCtlLut.5141, 16
 1786              	trCtlLut.5141:
 1787 0000 000002C0 		.word	-1073610752
 1788 0004 000102C0 		.word	-1073610496
 1789 0008 000202C0 		.word	-1073610240
 1790 000c 080202C0 		.word	-1073610232
 1791              		.data
 1792              		.align	2
 1793              		.set	.LANCHOR0,. + 0
 1794              		.type	CyDmaInterruptCallback, %object
 1795              		.size	CyDmaInterruptCallback, 128
 1796              	CyDmaInterruptCallback:
 1797 0000 00000000 		.word	CyDmaDefaultInterruptCallback
 1798 0004 00000000 		.word	CyDmaDefaultInterruptCallback
 1799 0008 00000000 		.word	CyDmaDefaultInterruptCallback
 1800 000c 00000000 		.word	CyDmaDefaultInterruptCallback
 1801 0010 00000000 		.word	CyDmaDefaultInterruptCallback
 1802 0014 00000000 		.word	CyDmaDefaultInterruptCallback
 1803 0018 00000000 		.word	CyDmaDefaultInterruptCallback
 1804 001c 00000000 		.word	CyDmaDefaultInterruptCallback
 1805 0020 00000000 		.word	CyDmaDefaultInterruptCallback
 1806 0024 00000000 		.word	CyDmaDefaultInterruptCallback
ARM GAS  C:\Users\theGu\AppData\Local\Temp\ccssehMe.s 			page 60


 1807 0028 00000000 		.word	CyDmaDefaultInterruptCallback
 1808 002c 00000000 		.word	CyDmaDefaultInterruptCallback
 1809 0030 00000000 		.word	CyDmaDefaultInterruptCallback
 1810 0034 00000000 		.word	CyDmaDefaultInterruptCallback
 1811 0038 00000000 		.word	CyDmaDefaultInterruptCallback
 1812 003c 00000000 		.word	CyDmaDefaultInterruptCallback
 1813 0040 00000000 		.word	CyDmaDefaultInterruptCallback
 1814 0044 00000000 		.word	CyDmaDefaultInterruptCallback
 1815 0048 00000000 		.word	CyDmaDefaultInterruptCallback
 1816 004c 00000000 		.word	CyDmaDefaultInterruptCallback
 1817 0050 00000000 		.word	CyDmaDefaultInterruptCallback
 1818 0054 00000000 		.word	CyDmaDefaultInterruptCallback
 1819 0058 00000000 		.word	CyDmaDefaultInterruptCallback
 1820 005c 00000000 		.word	CyDmaDefaultInterruptCallback
 1821 0060 00000000 		.word	CyDmaDefaultInterruptCallback
 1822 0064 00000000 		.word	CyDmaDefaultInterruptCallback
 1823 0068 00000000 		.word	CyDmaDefaultInterruptCallback
 1824 006c 00000000 		.word	CyDmaDefaultInterruptCallback
 1825 0070 00000000 		.word	CyDmaDefaultInterruptCallback
 1826 0074 00000000 		.word	CyDmaDefaultInterruptCallback
 1827 0078 00000000 		.word	CyDmaDefaultInterruptCallback
 1828 007c 00000000 		.word	CyDmaDefaultInterruptCallback
 1829              		.bss
 1830              		.align	2
 1831              		.set	.LANCHOR1,. + 0
 1832              		.type	initIntrVector.5066, %object
 1833              		.size	initIntrVector.5066, 1
 1834              	initIntrVector.5066:
 1835 0000 00       		.space	1
 1836 0001 000000   		.space	3
 1837              		.type	CyDmaChannelUsedMask, %object
 1838              		.size	CyDmaChannelUsedMask, 4
 1839              	CyDmaChannelUsedMask:
 1840 0004 00000000 		.space	4
 1841              		.text
 1842              	.Letext0:
 1843              		.file 2 "Generated_Source\\PSoC4\\cytypes.h"
 1844              		.file 3 "Generated_Source\\PSoC4\\CyDMA.h"
 1845              		.file 4 "Generated_Source\\PSoC4\\CyLib.h"