ARM GAS  C:\Users\theGu\AppData\Local\Temp\cccBhrZt.s 			page 1


   1              		.syntax unified
   2              		.cpu cortex-m0
   3              		.fpu softvfp
   4              		.eabi_attribute 20, 1
   5              		.eabi_attribute 21, 1
   6              		.eabi_attribute 23, 3
   7              		.eabi_attribute 24, 1
   8              		.eabi_attribute 25, 1
   9              		.eabi_attribute 26, 1
  10              		.eabi_attribute 30, 1
  11              		.eabi_attribute 34, 0
  12              		.eabi_attribute 18, 4
  13              		.thumb
  14              		.syntax unified
  15              		.file	"flashMemory.c"
  16              		.text
  17              	.Ltext0:
  18              		.cfi_sections	.debug_frame
  19              		.section	.text.WriteDataFlash,"ax",%progbits
  20              		.align	2
  21              		.global	WriteDataFlash
  22              		.code	16
  23              		.thumb_func
  24              		.type	WriteDataFlash, %function
  25              	WriteDataFlash:
  26              	.LFB61:
  27              		.file 1 "flashMemory.c"
   1:flashMemory.c **** /* ========================================
   2:flashMemory.c ****  *
   3:flashMemory.c ****  * Copyright YOUR COMPANY, THE YEAR
   4:flashMemory.c ****  * All Rights Reserved
   5:flashMemory.c ****  * UNPUBLISHED, LICENSED SOFTWARE.
   6:flashMemory.c ****  *
   7:flashMemory.c ****  * CONFIDENTIAL AND PROPRIETARY INFORMATION
   8:flashMemory.c ****  * WHICH IS THE PROPERTY OF your company.
   9:flashMemory.c ****  *
  10:flashMemory.c ****  * ========================================
  11:flashMemory.c **** */
  12:flashMemory.c **** #include "flashMemory.h"
  13:flashMemory.c **** 
  14:flashMemory.c **** #define INSTRUCTION_READ_DATA  0x03
  15:flashMemory.c **** #define INSTRUCTION_CHIP_ERASE 0x06
  16:flashMemory.c **** 
  17:flashMemory.c **** #define W25qxx_Delay(delay)     CyDelayUs(delay)
  18:flashMemory.c **** 
  19:flashMemory.c **** void WriteDataFlash(uint8_t data)
  20:flashMemory.c **** {
  28              		.loc 1 20 0
  29              		.cfi_startproc
  30              		@ args = 0, pretend = 0, frame = 0
  31              		@ frame_needed = 0, uses_anonymous_args = 0
  32              	.LVL0:
  33 0000 10B5     		push	{r4, lr}
  34              		.cfi_def_cfa_offset 8
  35              		.cfi_offset 4, -8
  36              		.cfi_offset 14, -4
  21:flashMemory.c ****     SPIM_FLASH_WriteTxData(data);
ARM GAS  C:\Users\theGu\AppData\Local\Temp\cccBhrZt.s 			page 2


  37              		.loc 1 21 0
  38 0002 FFF7FEFF 		bl	SPIM_FLASH_WriteTxData
  39              	.LVL1:
  22:flashMemory.c **** }
  40              		.loc 1 22 0
  41              		@ sp needed
  42 0006 10BD     		pop	{r4, pc}
  43              		.cfi_endproc
  44              	.LFE61:
  45              		.size	WriteDataFlash, .-WriteDataFlash
  46              		.section	.text.ReadDataFlash,"ax",%progbits
  47              		.align	2
  48              		.global	ReadDataFlash
  49              		.code	16
  50              		.thumb_func
  51              		.type	ReadDataFlash, %function
  52              	ReadDataFlash:
  53              	.LFB62:
  23:flashMemory.c **** 
  24:flashMemory.c **** uint8_t ReadDataFlash()
  25:flashMemory.c **** {
  54              		.loc 1 25 0
  55              		.cfi_startproc
  56              		@ args = 0, pretend = 0, frame = 0
  57              		@ frame_needed = 0, uses_anonymous_args = 0
  58 0000 10B5     		push	{r4, lr}
  59              		.cfi_def_cfa_offset 8
  60              		.cfi_offset 4, -8
  61              		.cfi_offset 14, -4
  26:flashMemory.c ****     return SPIM_FLASH_ReadRxData();
  62              		.loc 1 26 0
  63 0002 FFF7FEFF 		bl	SPIM_FLASH_ReadRxData
  64              	.LVL2:
  27:flashMemory.c **** }
  65              		.loc 1 27 0
  66              		@ sp needed
  67 0006 10BD     		pop	{r4, pc}
  68              		.cfi_endproc
  69              	.LFE62:
  70              		.size	ReadDataFlash, .-ReadDataFlash
  71              		.section	.text.W25qxx_Spi,"ax",%progbits
  72              		.align	2
  73              		.global	W25qxx_Spi
  74              		.code	16
  75              		.thumb_func
  76              		.type	W25qxx_Spi, %function
  77              	W25qxx_Spi:
  78              	.LFB63:
  28:flashMemory.c **** 
  29:flashMemory.c **** uint8_t	W25qxx_Spi(uint8_t	Data)
  30:flashMemory.c **** {
  79              		.loc 1 30 0
  80              		.cfi_startproc
  81              		@ args = 0, pretend = 0, frame = 0
  82              		@ frame_needed = 0, uses_anonymous_args = 0
  83              	.LVL3:
  84 0000 10B5     		push	{r4, lr}
ARM GAS  C:\Users\theGu\AppData\Local\Temp\cccBhrZt.s 			page 3


  85              		.cfi_def_cfa_offset 8
  86              		.cfi_offset 4, -8
  87              		.cfi_offset 14, -4
  31:flashMemory.c **** 	uint8_t	ret;
  32:flashMemory.c ****     WriteDataFlash(Data);
  88              		.loc 1 32 0
  89 0002 FFF7FEFF 		bl	WriteDataFlash
  90              	.LVL4:
  33:flashMemory.c **** 	//HAL_SPI_TransmitReceive(&_W25QXX_SPI,&Data,&ret,1,100);
  34:flashMemory.c **** 	return ret;	
  35:flashMemory.c **** }
  91              		.loc 1 35 0
  92 0006 0020     		movs	r0, #0
  93              		@ sp needed
  94 0008 10BD     		pop	{r4, pc}
  95              		.cfi_endproc
  96              	.LFE63:
  97              		.size	W25qxx_Spi, .-W25qxx_Spi
  98 000a C046     		.section	.text.W25qxx_WriteEnable,"ax",%progbits
  99              		.align	2
 100              		.global	W25qxx_WriteEnable
 101              		.code	16
 102              		.thumb_func
 103              		.type	W25qxx_WriteEnable, %function
 104              	W25qxx_WriteEnable:
 105              	.LFB64:
  36:flashMemory.c **** 
  37:flashMemory.c **** void W25qxx_WriteEnable(void)
  38:flashMemory.c **** {
 106              		.loc 1 38 0
 107              		.cfi_startproc
 108              		@ args = 0, pretend = 0, frame = 0
 109              		@ frame_needed = 0, uses_anonymous_args = 0
 110 0000 10B5     		push	{r4, lr}
 111              		.cfi_def_cfa_offset 8
 112              		.cfi_offset 4, -8
 113              		.cfi_offset 14, -4
  39:flashMemory.c ****     // WR Pin ->L
  40:flashMemory.c ****     W25qxx_Spi(0x06);
 114              		.loc 1 40 0
 115 0002 0620     		movs	r0, #6
 116 0004 FFF7FEFF 		bl	W25qxx_Spi
 117              	.LVL5:
  41:flashMemory.c ****     // WR Pin ->H       
  42:flashMemory.c **** 	W25qxx_Delay(1);
 118              		.loc 1 42 0
 119 0008 0120     		movs	r0, #1
 120 000a FFF7FEFF 		bl	CyDelayUs
 121              	.LVL6:
  43:flashMemory.c **** }
 122              		.loc 1 43 0
 123              		@ sp needed
 124 000e 10BD     		pop	{r4, pc}
 125              		.cfi_endproc
 126              	.LFE64:
 127              		.size	W25qxx_WriteEnable, .-W25qxx_WriteEnable
 128              		.section	.text.W25qxx_WriteDisable,"ax",%progbits
ARM GAS  C:\Users\theGu\AppData\Local\Temp\cccBhrZt.s 			page 4


 129              		.align	2
 130              		.global	W25qxx_WriteDisable
 131              		.code	16
 132              		.thumb_func
 133              		.type	W25qxx_WriteDisable, %function
 134              	W25qxx_WriteDisable:
 135              	.LFB65:
  44:flashMemory.c **** 
  45:flashMemory.c **** void W25qxx_WriteDisable(void)
  46:flashMemory.c **** {
 136              		.loc 1 46 0
 137              		.cfi_startproc
 138              		@ args = 0, pretend = 0, frame = 0
 139              		@ frame_needed = 0, uses_anonymous_args = 0
 140 0000 10B5     		push	{r4, lr}
 141              		.cfi_def_cfa_offset 8
 142              		.cfi_offset 4, -8
 143              		.cfi_offset 14, -4
  47:flashMemory.c ****     // WR Pin ->L
  48:flashMemory.c ****     W25qxx_Spi(0x04);
 144              		.loc 1 48 0
 145 0002 0420     		movs	r0, #4
 146 0004 FFF7FEFF 		bl	W25qxx_Spi
 147              	.LVL7:
  49:flashMemory.c ****     // WR Pin ->H       
  50:flashMemory.c **** 	W25qxx_Delay(1);
 148              		.loc 1 50 0
 149 0008 0120     		movs	r0, #1
 150 000a FFF7FEFF 		bl	CyDelayUs
 151              	.LVL8:
  51:flashMemory.c **** }
 152              		.loc 1 51 0
 153              		@ sp needed
 154 000e 10BD     		pop	{r4, pc}
 155              		.cfi_endproc
 156              	.LFE65:
 157              		.size	W25qxx_WriteDisable, .-W25qxx_WriteDisable
 158              		.section	.text.W25qxx_ReadID,"ax",%progbits
 159              		.align	2
 160              		.global	W25qxx_ReadID
 161              		.code	16
 162              		.thumb_func
 163              		.type	W25qxx_ReadID, %function
 164              	W25qxx_ReadID:
 165              	.LFB66:
  52:flashMemory.c **** 
  53:flashMemory.c **** uint32_t W25qxx_ReadID(void)
  54:flashMemory.c **** {
 166              		.loc 1 54 0
 167              		.cfi_startproc
 168              		@ args = 0, pretend = 0, frame = 0
 169              		@ frame_needed = 0, uses_anonymous_args = 0
 170 0000 70B5     		push	{r4, r5, r6, lr}
 171              		.cfi_def_cfa_offset 16
 172              		.cfi_offset 4, -16
 173              		.cfi_offset 5, -12
 174              		.cfi_offset 6, -8
ARM GAS  C:\Users\theGu\AppData\Local\Temp\cccBhrZt.s 			page 5


 175              		.cfi_offset 14, -4
 176              	.LVL9:
  55:flashMemory.c ****   uint32_t Temp = 0, Temp0 = 0, Temp1 = 0, Temp2 = 0;
  56:flashMemory.c ****     W25qxx_WriteEnable();
 177              		.loc 1 56 0
 178 0002 FFF7FEFF 		bl	W25qxx_WriteEnable
 179              	.LVL10:
  57:flashMemory.c **** W25qxx_Delay(10);
 180              		.loc 1 57 0
 181 0006 0A20     		movs	r0, #10
 182 0008 FFF7FEFF 		bl	CyDelayUs
 183              	.LVL11:
  58:flashMemory.c ****   W25qxx_Spi(0x9F); 	W25qxx_Delay(10);
 184              		.loc 1 58 0
 185 000c 9F20     		movs	r0, #159
 186 000e FFF7FEFF 		bl	W25qxx_Spi
 187              	.LVL12:
 188 0012 0A20     		movs	r0, #10
 189 0014 FFF7FEFF 		bl	CyDelayUs
 190              	.LVL13:
  59:flashMemory.c ****   Temp0 = SPIM_FLASH_ReadRxData();//	W25qxx_Delay(1000);
 191              		.loc 1 59 0
 192 0018 FFF7FEFF 		bl	SPIM_FLASH_ReadRxData
 193              	.LVL14:
 194 001c 0600     		movs	r6, r0
 195              	.LVL15:
  60:flashMemory.c ****   Temp1 = SPIM_FLASH_ReadRxData();//	W25qxx_Delay(10);
 196              		.loc 1 60 0
 197 001e FFF7FEFF 		bl	SPIM_FLASH_ReadRxData
 198              	.LVL16:
 199 0022 0400     		movs	r4, r0
 200              	.LVL17:
  61:flashMemory.c ****   Temp2 = SPIM_FLASH_ReadRxData();//	W25qxx_Delay(100);
 201              		.loc 1 61 0
 202 0024 FFF7FEFF 		bl	SPIM_FLASH_ReadRxData
 203              	.LVL18:
 204 0028 0500     		movs	r5, r0
 205              	.LVL19:
  62:flashMemory.c **** 
  63:flashMemory.c **** DEBUG_printf("%0x %0x %0x\r\n",Temp0,Temp1, Temp2);
 206              		.loc 1 63 0
 207 002a 0300     		movs	r3, r0
 208 002c 2200     		movs	r2, r4
 209 002e 3100     		movs	r1, r6
 210 0030 0448     		ldr	r0, .L7
 211              	.LVL20:
 212 0032 FFF7FEFF 		bl	DEBUG_printf
 213              	.LVL21:
  64:flashMemory.c ****     W25qxx_WriteDisable();
 214              		.loc 1 64 0
 215 0036 FFF7FEFF 		bl	W25qxx_WriteDisable
 216              	.LVL22:
  65:flashMemory.c ****   Temp = (Temp0 << 16) | (Temp1 << 8) | Temp2;
 217              		.loc 1 65 0
 218 003a 3004     		lsls	r0, r6, #16
 219 003c 2402     		lsls	r4, r4, #8
 220              	.LVL23:
ARM GAS  C:\Users\theGu\AppData\Local\Temp\cccBhrZt.s 			page 6


 221 003e 2043     		orrs	r0, r4
 222 0040 2843     		orrs	r0, r5
 223              	.LVL24:
  66:flashMemory.c ****   return Temp; 
  67:flashMemory.c **** }
 224              		.loc 1 67 0
 225              		@ sp needed
 226              	.LVL25:
 227              	.LVL26:
 228 0042 70BD     		pop	{r4, r5, r6, pc}
 229              	.L8:
 230              		.align	2
 231              	.L7:
 232 0044 00000000 		.word	.LC0
 233              		.cfi_endproc
 234              	.LFE66:
 235              		.size	W25qxx_ReadID, .-W25qxx_ReadID
 236              		.comm	Param,6,4
 237              		.section	.rodata.str1.4,"aMS",%progbits,1
 238              		.align	2
 239              	.LC0:
 240 0000 25307820 		.ascii	"%0x %0x %0x\015\012\000"
 240      25307820 
 240      2530780D 
 240      0A00
 241              		.text
 242              	.Letext0:
 243              		.file 2 "c:\\program files (x86)\\cypress\\psoc creator\\4.3\\psoc creator\\import\\gnu\\arm\\5.4.
 244              		.file 3 "c:\\program files (x86)\\cypress\\psoc creator\\4.3\\psoc creator\\import\\gnu\\arm\\5.4.
 245              		.file 4 "Generated_Source\\PSoC4/cytypes.h"
 246              		.file 5 "main.h"
 247              		.file 6 "Generated_Source\\PSoC4/SPIM_FLASH.h"
 248              		.file 7 "Generated_Source\\PSoC4/CyLib.h"
 249              		.file 8 "debug.h"