ARM GAS  C:\Users\luvsd\AppData\Local\Temp\ccswEZTf.s 			page 1


   1              		.syntax unified
   2              		.cpu cortex-m0
   3              		.fpu softvfp
   4              		.eabi_attribute 20, 1
   5              		.eabi_attribute 21, 1
   6              		.eabi_attribute 23, 3
   7              		.eabi_attribute 24, 1
   8              		.eabi_attribute 25, 1
   9              		.eabi_attribute 26, 1
  10              		.eabi_attribute 30, 1
  11              		.eabi_attribute 34, 0
  12              		.eabi_attribute 18, 4
  13              		.thumb
  14              		.syntax unified
  15              		.file	"IODefine.c"
  16              		.text
  17              	.Ltext0:
  18              		.cfi_sections	.debug_frame
  19              		.section	.text.getSensor,"ax",%progbits
  20              		.align	2
  21              		.global	getSensor
  22              		.code	16
  23              		.thumb_func
  24              		.type	getSensor, %function
  25              	getSensor:
  26              	.LFB61:
  27              		.file 1 "lib\\IODefine.c"
   1:lib/IODefine.c **** /* ========================================
   2:lib/IODefine.c ****  *
   3:lib/IODefine.c ****  * Copyright Suntech, 2023.02.01
   4:lib/IODefine.c ****  * All Rights Reserved
   5:lib/IODefine.c ****  * UNPUBLISHED, LICENSED SOFTWARE.
   6:lib/IODefine.c ****  *
   7:lib/IODefine.c ****  * CONFIDENTIAL AND PROPRIETARY INFORMATION
   8:lib/IODefine.c ****  * WHICH IS THE PROPERTY OF Suntech.
   9:lib/IODefine.c ****  *
  10:lib/IODefine.c ****  * ========================================
  11:lib/IODefine.c **** */
  12:lib/IODefine.c **** #include "main.h"
  13:lib/IODefine.c **** #include "IODefine.h"
  14:lib/IODefine.c **** #include "IOUtil.h"
  15:lib/IODefine.c **** 
  16:lib/IODefine.c **** unsigned long getSensor()
  17:lib/IODefine.c **** {
  28              		.loc 1 17 0
  29              		.cfi_startproc
  30              		@ args = 0, pretend = 0, frame = 0
  31              		@ frame_needed = 0, uses_anonymous_args = 0
  32              		@ link register save eliminated.
  33              	.LVL0:
  18:lib/IODefine.c ****     int v = 0;
  19:lib/IODefine.c ****     
  20:lib/IODefine.c ****     char shift = 0;
  21:lib/IODefine.c ****     
  22:lib/IODefine.c **** //    v |= (TC_INT_Read()                 ? OFF : ON) << shift++;
  23:lib/IODefine.c **** //    v |= (SW1_Read()                  ? OFF : ON) << shift++;
  24:lib/IODefine.c **** //    v |= (SW2_Read()                  ? OFF : ON) << shift++;
ARM GAS  C:\Users\luvsd\AppData\Local\Temp\ccswEZTf.s 			page 2


  25:lib/IODefine.c **** //    v |= (SW3_Read()                  ? OFF : ON) << shift++;
  26:lib/IODefine.c **** //    v |= (SW4_Read()                  ? OFF : ON) << shift++;
  27:lib/IODefine.c **** //    
  28:lib/IODefine.c **** //    v |= (BOBBIN_WINDER_Read()        ? OFF : ON) << shift++;
  29:lib/IODefine.c **** //    v |= (THREAD_SENSOR_Read()        ? ON : OFF) << shift++;
  30:lib/IODefine.c **** //    v |= (RPM_COUNT_Read()            ? OFF : ON) << shift++;       
  31:lib/IODefine.c **** 
  32:lib/IODefine.c ****   //  if(UART_WIFIDATA_GetTxBufferSize() == 0) console_log("%d\r\n", v);
  33:lib/IODefine.c ****     
  34:lib/IODefine.c ****     return v;
  35:lib/IODefine.c **** }
  34              		.loc 1 35 0
  35 0000 0020     		movs	r0, #0
  36              		@ sp needed
  37 0002 7047     		bx	lr
  38              		.cfi_endproc
  39              	.LFE61:
  40              		.size	getSensor, .-getSensor
  41              		.section	.text.defineIO,"ax",%progbits
  42              		.align	2
  43              		.global	defineIO
  44              		.code	16
  45              		.thumb_func
  46              		.type	defineIO, %function
  47              	defineIO:
  48              	.LFB62:
  36:lib/IODefine.c **** 
  37:lib/IODefine.c **** 
  38:lib/IODefine.c **** void defineIO()
  39:lib/IODefine.c **** {        
  49              		.loc 1 39 0
  50              		.cfi_startproc
  51              		@ args = 0, pretend = 0, frame = 0
  52              		@ frame_needed = 0, uses_anonymous_args = 0
  53              		@ link register save eliminated.
  40:lib/IODefine.c **** }
  54              		.loc 1 40 0
  55              		@ sp needed
  56 0000 7047     		bx	lr
  57              		.cfi_endproc
  58              	.LFE62:
  59              		.size	defineIO, .-defineIO
  60 0002 C046     		.section	.text.doTimer,"ax",%progbits
  61              		.align	2
  62              		.global	doTimer
  63              		.code	16
  64              		.thumb_func
  65              		.type	doTimer, %function
  66              	doTimer:
  67              	.LFB63:
  41:lib/IODefine.c **** 
  42:lib/IODefine.c **** void doTimer()
  43:lib/IODefine.c **** {
  68              		.loc 1 43 0
  69              		.cfi_startproc
  70              		@ args = 0, pretend = 0, frame = 0
  71              		@ frame_needed = 0, uses_anonymous_args = 0
ARM GAS  C:\Users\luvsd\AppData\Local\Temp\ccswEZTf.s 			page 3


  72 0000 70B5     		push	{r4, r5, r6, lr}
  73              		.cfi_def_cfa_offset 16
  74              		.cfi_offset 4, -16
  75              		.cfi_offset 5, -12
  76              		.cfi_offset 6, -8
  77              		.cfi_offset 14, -4
  44:lib/IODefine.c ****   setIOTimer(t100MS, 100, _T(t100MS));
  78              		.loc 1 44 0
  79 0002 0B4D     		ldr	r5, .L4
  80 0004 2A78     		ldrb	r2, [r5]
  81 0006 5207     		lsls	r2, r2, #29
  82 0008 D20F     		lsrs	r2, r2, #31
  83 000a 0124     		movs	r4, #1
  84 000c 6240     		eors	r2, r4
  85 000e D2B2     		uxtb	r2, r2
  86 0010 6421     		movs	r1, #100
  87 0012 0020     		movs	r0, #0
  88 0014 FFF7FEFF 		bl	setIOTimer
  89              	.LVL1:
  45:lib/IODefine.c ****   setIOTimer(t500MS, 500, _T(t500MS));
  90              		.loc 1 45 0
  91 0018 2A7B     		ldrb	r2, [r5, #12]
  92 001a 5207     		lsls	r2, r2, #29
  93 001c D20F     		lsrs	r2, r2, #31
  94 001e 5440     		eors	r4, r2
  95 0020 E2B2     		uxtb	r2, r4
  96 0022 FA21     		movs	r1, #250
  97 0024 4900     		lsls	r1, r1, #1
  98 0026 0120     		movs	r0, #1
  99 0028 FFF7FEFF 		bl	setIOTimer
 100              	.LVL2:
  46:lib/IODefine.c ****   if(uT(t500MS))
  47:lib/IODefine.c ****   {
  48:lib/IODefine.c **** //     // sendIOStat();
  49:lib/IODefine.c **** //       LED_RED_Write(~LED_RED_Read());
  50:lib/IODefine.c ****   }
  51:lib/IODefine.c **** 
  52:lib/IODefine.c **** #define TIMER_OFF(a,b)     setIOTimer(a,  200,   O(b)); \
  53:lib/IODefine.c ****                            if(uT(a)) O(b) = OFF;
  54:lib/IODefine.c **** /*
  55:lib/IODefine.c ****     TIMER_OFF(tHEAD_TURN_PULSE,       oHEAD_TURN_PULSE);
  56:lib/IODefine.c ****     TIMER_OFF(tTAPE_TRIM_PULSE,       oTAPE_TRIM_PULSE);
  57:lib/IODefine.c ****     TIMER_OFF(tTAPE_FEED_UP_PULSE,    oTAPE_FEED_UP_PULSE);
  58:lib/IODefine.c ****     TIMER_OFF(tTAPE_FEED_DOWN_PULSE,  oTAPE_FEED_DOWN_PULSE);
  59:lib/IODefine.c ****     TIMER_OFF(tX_PULSE,               oX_PULSE);
  60:lib/IODefine.c ****     TIMER_OFF(tY_PULSE,               oY_PULSE);*/          
  61:lib/IODefine.c **** }
 101              		.loc 1 61 0
 102              		@ sp needed
 103 002c 70BD     		pop	{r4, r5, r6, pc}
 104              	.L5:
 105 002e C046     		.align	2
 106              	.L4:
 107 0030 00000000 		.word	g_IOTUtil
 108              		.cfi_endproc
 109              	.LFE63:
 110              		.size	doTimer, .-doTimer
ARM GAS  C:\Users\luvsd\AppData\Local\Temp\ccswEZTf.s 			page 4


 111              		.section	.text.doOutput,"ax",%progbits
 112              		.align	2
 113              		.global	doOutput
 114              		.code	16
 115              		.thumb_func
 116              		.type	doOutput, %function
 117              	doOutput:
 118              	.LFB64:
  62:lib/IODefine.c **** 
  63:lib/IODefine.c **** void doOutput()
  64:lib/IODefine.c **** {    
 119              		.loc 1 64 0
 120              		.cfi_startproc
 121              		@ args = 0, pretend = 0, frame = 0
 122              		@ frame_needed = 0, uses_anonymous_args = 0
 123              		@ link register save eliminated.
  65:lib/IODefine.c ****  
  66:lib/IODefine.c **** }...
 124              		.loc 1 66 0
 125              		@ sp needed
 126 0000 7047     		bx	lr
 127              		.cfi_endproc
 128              	.LFE64:
 129              		.size	doOutput, .-doOutput
 130              		.comm	Param,6,4
 131 0002 C046     		.text
 132              	.Letext0:
 133              		.file 2 "Generated_Source\\PSoC4/cytypes.h"
 134              		.file 3 "./main.h"
 135              		.file 4 "lib\\IOUtil.h"
 136              		.file 5 "lib\\IODefine.h"