ARM GAS  C:\Users\luvsd\AppData\Local\Temp\cckGW8Bq.s 			page 1


   1              		.syntax unified
   2              		.cpu cortex-m0
   3              		.fpu softvfp
   4              		.eabi_attribute 20, 1
   5              		.eabi_attribute 21, 1
   6              		.eabi_attribute 23, 3
   7              		.eabi_attribute 24, 1
   8              		.eabi_attribute 25, 1
   9              		.eabi_attribute 26, 1
  10              		.eabi_attribute 30, 1
  11              		.eabi_attribute 34, 0
  12              		.eabi_attribute 18, 4
  13              		.thumb
  14              		.syntax unified
  15              		.file	"server.c"
  16              		.text
  17              	.Ltext0:
  18              		.cfi_sections	.debug_frame
  19              		.section	.text.initServer,"ax",%progbits
  20              		.align	2
  21              		.global	initServer
  22              		.code	16
  23              		.thumb_func
  24              		.type	initServer, %function
  25              	initServer:
  26              	.LFB61:
  27              		.file 1 "lib\\server.c"
   1:lib/server.c  **** /* ========================================
   2:lib/server.c  ****  *
   3:lib/server.c  ****  * Copyright Suntech, 2023.03.30
   4:lib/server.c  ****  * All Rights Reserved
   5:lib/server.c  ****  * UNPUBLISHED, LICENSED SOFTWARE.
   6:lib/server.c  ****  *
   7:lib/server.c  ****  * CONFIDENTIAL AND PROPRIETARY INFORMATION
   8:lib/server.c  ****  * WHICH IS THE PROPERTY OF Suntech.
   9:lib/server.c  ****  *
  10:lib/server.c  ****  * ========================================
  11:lib/server.c  **** */
  12:lib/server.c  **** #include "server.h"
  13:lib/server.c  **** #include "externalFlash.h"
  14:lib/server.c  **** 
  15:lib/server.c  **** SERVER_INFO *g_ptrServer;
  16:lib/server.c  **** 
  17:lib/server.c  **** void initServer()
  18:lib/server.c  **** {
  28              		.loc 1 18 0
  29              		.cfi_startproc
  30              		@ args = 0, pretend = 0, frame = 0
  31              		@ frame_needed = 0, uses_anonymous_args = 0
  32 0000 10B5     		push	{r4, lr}
  33              		.cfi_def_cfa_offset 8
  34              		.cfi_offset 4, -8
  35              		.cfi_offset 14, -4
  19:lib/server.c  ****     g_ptrServer = (SERVER_INFO *) & getExternalConfigData()[CONFIG_DATA_CONFIG];
  36              		.loc 1 19 0
  37 0002 FFF7FEFF 		bl	getExternalConfigData
  38              	.LVL0:
ARM GAS  C:\Users\luvsd\AppData\Local\Temp\cckGW8Bq.s 			page 2


  39 0006 014B     		ldr	r3, .L2
  40 0008 1860     		str	r0, [r3]
  20:lib/server.c  **** }
  41              		.loc 1 20 0
  42              		@ sp needed
  43 000a 10BD     		pop	{r4, pc}
  44              	.L3:
  45              		.align	2
  46              	.L2:
  47 000c 00000000 		.word	g_ptrServer
  48              		.cfi_endproc
  49              	.LFE61:
  50              		.size	initServer, .-initServer
  51              		.section	.text.SetDefaultConfigServer,"ax",%progbits
  52              		.align	2
  53              		.global	SetDefaultConfigServer
  54              		.code	16
  55              		.thumb_func
  56              		.type	SetDefaultConfigServer, %function
  57              	SetDefaultConfigServer:
  58              	.LFB62:
  21:lib/server.c  **** 
  22:lib/server.c  **** void SetDefaultConfigServer()
  23:lib/server.c  **** {
  59              		.loc 1 23 0
  60              		.cfi_startproc
  61              		@ args = 0, pretend = 0, frame = 0
  62              		@ frame_needed = 0, uses_anonymous_args = 0
  63 0000 10B5     		push	{r4, lr}
  64              		.cfi_def_cfa_offset 8
  65              		.cfi_offset 4, -8
  66              		.cfi_offset 14, -4
  24:lib/server.c  ****     memset(g_ptrServer,0,sizeof(SERVER_INFO));
  67              		.loc 1 24 0
  68 0002 0A4C     		ldr	r4, .L5
  69 0004 8422     		movs	r2, #132
  70 0006 0021     		movs	r1, #0
  71 0008 2068     		ldr	r0, [r4]
  72 000a FFF7FEFF 		bl	memset
  73              	.LVL1:
  25:lib/server.c  ****         
  26:lib/server.c  ****     strcpy(g_ptrServer->IP,DEFAULT_SERVER_IP);    
  74              		.loc 1 26 0
  75 000e 0E22     		movs	r2, #14
  76 0010 0749     		ldr	r1, .L5+4
  77 0012 2068     		ldr	r0, [r4]
  78 0014 FFF7FEFF 		bl	memcpy
  79              	.LVL2:
  27:lib/server.c  ****     g_ptrServer->port = DEFAULT_SERVER_PORT;
  80              		.loc 1 27 0
  81 0018 2068     		ldr	r0, [r4]
  82 001a 5023     		movs	r3, #80
  83 001c 0386     		strh	r3, [r0, #48]
  28:lib/server.c  ****     
  29:lib/server.c  ****     strcpy(g_ptrServer->deviceName,DEFAULT_DEVICE_NAME);
  84              		.loc 1 29 0
  85 001e 6E30     		adds	r0, r0, #110
ARM GAS  C:\Users\luvsd\AppData\Local\Temp\cckGW8Bq.s 			page 3


  86 0020 0B22     		movs	r2, #11
  87 0022 0449     		ldr	r1, .L5+8
  88 0024 FFF7FEFF 		bl	memcpy
  89              	.LVL3:
  30:lib/server.c  **** }
  90              		.loc 1 30 0
  91              		@ sp needed
  92 0028 10BD     		pop	{r4, pc}
  93              	.L6:
  94 002a C046     		.align	2
  95              	.L5:
  96 002c 00000000 		.word	g_ptrServer
  97 0030 00000000 		.word	.LC2
  98 0034 10000000 		.word	.LC4
  99              		.cfi_endproc
 100              	.LFE62:
 101              		.size	SetDefaultConfigServer, .-SetDefaultConfigServer
 102              		.section	.text.ValidationConfigServer,"ax",%progbits
 103              		.align	2
 104              		.global	ValidationConfigServer
 105              		.code	16
 106              		.thumb_func
 107              		.type	ValidationConfigServer, %function
 108              	ValidationConfigServer:
 109              	.LFB63:
  31:lib/server.c  **** 
  32:lib/server.c  **** void ValidationConfigServer()
  33:lib/server.c  **** {
 110              		.loc 1 33 0
 111              		.cfi_startproc
 112              		@ args = 0, pretend = 0, frame = 0
 113              		@ frame_needed = 0, uses_anonymous_args = 0
 114 0000 10B5     		push	{r4, lr}
 115              		.cfi_def_cfa_offset 8
 116              		.cfi_offset 4, -8
 117              		.cfi_offset 14, -4
  34:lib/server.c  ****     if(strlen(g_ptrServer->IP) == 0)
 118              		.loc 1 34 0
 119 0002 044B     		ldr	r3, .L9
 120 0004 1B68     		ldr	r3, [r3]
 121 0006 1B78     		ldrb	r3, [r3]
 122 0008 002B     		cmp	r3, #0
 123 000a 01D1     		bne	.L7
  35:lib/server.c  ****     {
  36:lib/server.c  ****         SetDefaultConfigServer();
 124              		.loc 1 36 0
 125 000c FFF7FEFF 		bl	SetDefaultConfigServer
 126              	.LVL4:
 127              	.L7:
  37:lib/server.c  ****     }
  38:lib/server.c  **** }
 128              		.loc 1 38 0
 129              		@ sp needed
 130 0010 10BD     		pop	{r4, pc}
 131              	.L10:
 132 0012 C046     		.align	2
 133              	.L9:
ARM GAS  C:\Users\luvsd\AppData\Local\Temp\cckGW8Bq.s 			page 4


 134 0014 00000000 		.word	g_ptrServer
 135              		.cfi_endproc
 136              	.LFE63:
 137              		.size	ValidationConfigServer, .-ValidationConfigServer
 138              		.section	.text.printConfig,"ax",%progbits
 139              		.align	2
 140              		.global	printConfig
 141              		.code	16
 142              		.thumb_func
 143              		.type	printConfig, %function
 144              	printConfig:
 145              	.LFB64:
  39:lib/server.c  **** 
  40:lib/server.c  **** void printConfig()
  41:lib/server.c  **** {
 146              		.loc 1 41 0
 147              		.cfi_startproc
 148              		@ args = 0, pretend = 0, frame = 0
 149              		@ frame_needed = 0, uses_anonymous_args = 0
 150 0000 10B5     		push	{r4, lr}
 151              		.cfi_def_cfa_offset 8
 152              		.cfi_offset 4, -8
 153              		.cfi_offset 14, -4
  42:lib/server.c  ****     if(g_ptrServer->port == 0) g_ptrServer->port = 80;
 154              		.loc 1 42 0
 155 0002 144B     		ldr	r3, .L13
 156 0004 1B68     		ldr	r3, [r3]
 157 0006 1A8E     		ldrh	r2, [r3, #48]
 158 0008 002A     		cmp	r2, #0
 159 000a 01D1     		bne	.L12
 160              		.loc 1 42 0 is_stmt 0 discriminator 1
 161 000c 5032     		adds	r2, r2, #80
 162 000e 1A86     		strh	r2, [r3, #48]
 163              	.L12:
  43:lib/server.c  ****  
  44:lib/server.c  ****     printf("\r\nConfig :\r\n");
 164              		.loc 1 44 0 is_stmt 1
 165 0010 1148     		ldr	r0, .L13+4
 166 0012 FFF7FEFF 		bl	puts
 167              	.LVL5:
  45:lib/server.c  ****     printf("\t SSID       : %s\r\n",g_ptrServer->SSID);
 168              		.loc 1 45 0
 169 0016 0F4C     		ldr	r4, .L13
 170 0018 2168     		ldr	r1, [r4]
 171 001a 3231     		adds	r1, r1, #50
 172 001c 0F48     		ldr	r0, .L13+8
 173 001e FFF7FEFF 		bl	printf
 174              	.LVL6:
  46:lib/server.c  ****     printf("\t Password   : %s\r\n",g_ptrServer->password);
 175              		.loc 1 46 0
 176 0022 2168     		ldr	r1, [r4]
 177 0024 5A31     		adds	r1, r1, #90
 178 0026 0E48     		ldr	r0, .L13+12
 179 0028 FFF7FEFF 		bl	printf
 180              	.LVL7:
  47:lib/server.c  ****     printf("\t Server IP  : %s\r\n",g_ptrServer->IP);
 181              		.loc 1 47 0
ARM GAS  C:\Users\luvsd\AppData\Local\Temp\cckGW8Bq.s 			page 5


 182 002c 2168     		ldr	r1, [r4]
 183 002e 0D48     		ldr	r0, .L13+16
 184 0030 FFF7FEFF 		bl	printf
 185              	.LVL8:
  48:lib/server.c  ****     printf("\t Server path: %s\r\n",g_ptrServer->path);    
 186              		.loc 1 48 0
 187 0034 2168     		ldr	r1, [r4]
 188 0036 1031     		adds	r1, r1, #16
 189 0038 0B48     		ldr	r0, .L13+20
 190 003a FFF7FEFF 		bl	printf
 191              	.LVL9:
  49:lib/server.c  ****     printf("\t Server Port: %d\r\n",g_ptrServer->port);
 192              		.loc 1 49 0
 193 003e 2368     		ldr	r3, [r4]
 194 0040 198E     		ldrh	r1, [r3, #48]
 195 0042 0A48     		ldr	r0, .L13+24
 196 0044 FFF7FEFF 		bl	printf
 197              	.LVL10:
  50:lib/server.c  ****     printf("\t Device Name: %s\r\n",g_ptrServer->deviceName);      
 198              		.loc 1 50 0
 199 0048 2168     		ldr	r1, [r4]
 200 004a 6E31     		adds	r1, r1, #110
 201 004c 0848     		ldr	r0, .L13+28
 202 004e FFF7FEFF 		bl	printf
 203              	.LVL11:
  51:lib/server.c  **** }
 204              		.loc 1 51 0
 205              		@ sp needed
 206 0052 10BD     		pop	{r4, pc}
 207              	.L14:
 208              		.align	2
 209              	.L13:
 210 0054 00000000 		.word	g_ptrServer
 211 0058 1C000000 		.word	.LC8
 212 005c 28000000 		.word	.LC10
 213 0060 3C000000 		.word	.LC12
 214 0064 50000000 		.word	.LC14
 215 0068 64000000 		.word	.LC16
 216 006c 78000000 		.word	.LC18
 217 0070 8C000000 		.word	.LC20
 218              		.cfi_endproc
 219              	.LFE64:
 220              		.size	printConfig, .-printConfig
 221              		.comm	g_ptrServer,4,4
 222              		.comm	Param,6,4
 223              		.section	.rodata.str1.4,"aMS",%progbits,1
 224              		.align	2
 225              	.LC2:
 226 0000 34392E32 		.ascii	"49.247.26.228\000"
 226      34372E32 
 226      362E3232 
 226      3800
 227 000e 0000     		.space	2
 228              	.LC4:
 229 0010 496F5420 		.ascii	"IoT Device\000"
 229      44657669 
 229      636500
ARM GAS  C:\Users\luvsd\AppData\Local\Temp\cckGW8Bq.s 			page 6


 230 001b 00       		.space	1
 231              	.LC8:
 232 001c 0D0A436F 		.ascii	"\015\012Config :\015\000"
 232      6E666967 
 232      203A0D00 
 233              	.LC10:
 234 0028 09205353 		.ascii	"\011 SSID       : %s\015\012\000"
 234      49442020 
 234      20202020 
 234      203A2025 
 234      730D0A00 
 235              	.LC12:
 236 003c 09205061 		.ascii	"\011 Password   : %s\015\012\000"
 236      7373776F 
 236      72642020 
 236      203A2025 
 236      730D0A00 
 237              	.LC14:
 238 0050 09205365 		.ascii	"\011 Server IP  : %s\015\012\000"
 238      72766572 
 238      20495020 
 238      203A2025 
 238      730D0A00 
 239              	.LC16:
 240 0064 09205365 		.ascii	"\011 Server path: %s\015\012\000"
 240      72766572 
 240      20706174 
 240      683A2025 
 240      730D0A00 
 241              	.LC18:
 242 0078 09205365 		.ascii	"\011 Server Port: %d\015\012\000"
 242      72766572 
 242      20506F72 
 242      743A2025 
 242      640D0A00 
 243              	.LC20:
 244 008c 09204465 		.ascii	"\011 Device Name: %s\015\012\000"
 244      76696365 
 244      204E616D 
 244      653A2025 
 244      730D0A00 
 245              		.text
 246              	.Letext0:
 247              		.file 2 "lib\\server.h"
 248              		.file 3 "Generated_Source\\PSoC4/cytypes.h"
 249              		.file 4 "./main.h"
 250              		.file 5 "lib\\externalFlash.h"
 251              		.file 6 "c:\\program files (x86)\\cypress\\psoc creator\\4.4\\psoc creator\\import\\gnu\\arm\\5.4.
 252              		.file 7 "<built-in>"