ARM GAS  C:\Users\luvsd\AppData\Local\Temp\ccd5jdpe.s 			page 1


   1              		.syntax unified
   2              		.cpu cortex-m0
   3              		.fpu softvfp
   4              		.eabi_attribute 20, 1
   5              		.eabi_attribute 21, 1
   6              		.eabi_attribute 23, 3
   7              		.eabi_attribute 24, 1
   8              		.eabi_attribute 25, 1
   9              		.eabi_attribute 26, 1
  10              		.eabi_attribute 30, 1
  11              		.eabi_attribute 34, 0
  12              		.eabi_attribute 18, 4
  13              		.thumb
  14              		.syntax unified
  15              		.file	"sysTick.c"
  16              		.text
  17              	.Ltext0:
  18              		.cfi_sections	.debug_frame
  19              		.section	.text.SysTickISRCallback_1ms,"ax",%progbits
  20              		.align	2
  21              		.global	SysTickISRCallback_1ms
  22              		.code	16
  23              		.thumb_func
  24              		.type	SysTickISRCallback_1ms, %function
  25              	SysTickISRCallback_1ms:
  26              	.LFB65:
  27              		.file 1 "lib\\sysTick.c"
   1:lib/sysTick.c **** /* ========================================
   2:lib/sysTick.c ****  *
   3:lib/sysTick.c ****  * Copyright Suntech, 2023.02.01
   4:lib/sysTick.c ****  * All Rights Reserved
   5:lib/sysTick.c ****  * UNPUBLISHED, LICENSED SOFTWARE.
   6:lib/sysTick.c ****  *
   7:lib/sysTick.c ****  * CONFIDENTIAL AND PROPRIETARY INFORMATION
   8:lib/sysTick.c ****  * WHICH IS THE PROPERTY OF Suntech.
   9:lib/sysTick.c ****  *
  10:lib/sysTick.c ****  * ========================================
  11:lib/sysTick.c **** */
  12:lib/sysTick.c **** #include "main.h"
  13:lib/sysTick.c **** #include "lib/sysTick.h"
  14:lib/sysTick.c **** #include "lib/timerCounter.h"
  15:lib/sysTick.c **** 
  16:lib/sysTick.c **** //////////////////////////////////////////////////////////////
  17:lib/sysTick.c **** // 1msņŚÉ Ļ┤ĆļĀ©ļÉ£ Ļ▓āļōż  //////////////////////////////////////////////
  18:lib/sysTick.c **** ///////////////////////////////////////////////////////////////
  19:lib/sysTick.c **** uint8 g_uNoMiliSecondCounter=0;
  20:lib/sysTick.c **** TIMER_COUNTER g_timerCounter_1ms[MAX_NO_MILISECOND_COUNTER];
  21:lib/sysTick.c **** 
  22:lib/sysTick.c **** // 1ms countņØś ļ¬®Ēæ£ņŚÉ ļÅäļŗ¼ Ē¢łļŖöņ¦Ć ņŚ¼ļČĆ, indexļŖö ONE_MILISECOND_COUNTER enumĻ░Æ
  23:lib/sysTick.c **** // ņŻ╝ņØś : main loopņØś  ņ┤Ø ņłśĒ¢ēņŗ£Ļ░äņØ┤ 1ms ļ│┤ļŗż Ēü¼ļ®┤ ļ¬®Ēæ£Ļ░ÆņŚÉ ļÅäļŗ¼ĒĢ£ Ļ▓āņØä ļåōņ╣
  24:lib/sysTick.c **** uint8 isFinishCounter_1ms(uint16 index)
  25:lib/sysTick.c **** {
  26:lib/sysTick.c ****    return g_timerCounter_1ms[index].current == 0 ? TRUE : FALSE;
  27:lib/sysTick.c **** }
  28:lib/sysTick.c **** 
  29:lib/sysTick.c **** void resetCounter_1ms(uint16 index)
  30:lib/sysTick.c **** {
ARM GAS  C:\Users\luvsd\AppData\Local\Temp\ccd5jdpe.s 			page 2


  31:lib/sysTick.c ****     g_timerCounter_1ms[index].current = 
  32:lib/sysTick.c ****     g_timerCounter_1ms[index].max;
  33:lib/sysTick.c **** }
  34:lib/sysTick.c **** 
  35:lib/sysTick.c **** // 1s timer counter ļō▒ļĪØ 
  36:lib/sysTick.c **** uint8 registerCounter_1ms(uint16 maxCount)
  37:lib/sysTick.c **** {
  38:lib/sysTick.c ****     if(g_uNoMiliSecondCounter < MAX_NO_MILISECOND_COUNTER-1)
  39:lib/sysTick.c ****     {
  40:lib/sysTick.c ****         g_timerCounter_1ms[g_uNoMiliSecondCounter].current = 
  41:lib/sysTick.c ****         g_timerCounter_1ms[g_uNoMiliSecondCounter].max = maxCount;
  42:lib/sysTick.c ****         
  43:lib/sysTick.c ****         return g_uNoMiliSecondCounter++;
  44:lib/sysTick.c ****     } else {
  45:lib/sysTick.c ****         printf("Warning : resisterCounter_1ms()\r\n"); 
  46:lib/sysTick.c ****     }
  47:lib/sysTick.c ****     return 0xFF;   
  48:lib/sysTick.c **** }
  49:lib/sysTick.c **** 
  50:lib/sysTick.c **** // Ēśäņ×¼ counter Ļ░ÆņØä ņĢīņĢäļéĖļŗż. 
  51:lib/sysTick.c **** // ņŻ╝ņØś counter is Decreasing..
  52:lib/sysTick.c **** uint16 getCurrentTimerCounter_1ms(uint8 index) { return g_timerCounter_1ms[index].current; }
  53:lib/sysTick.c **** 
  54:lib/sysTick.c **** /*******************************************************************************
  55:lib/sysTick.c **** * Function Definitions
  56:lib/sysTick.c **** *******************************************************************************/
  57:lib/sysTick.c **** // 1ms ļ¦łļŗż ņØĖĒä░ļ¤ĮĒŖĖņŚÉ ņØśĒĢ£ ĒśĖņČ£ļÉśļŖö ISR
  58:lib/sysTick.c **** void SysTickISRCallback_1ms(void)
  59:lib/sysTick.c **** {
  28              		.loc 1 59 0
  29              		.cfi_startproc
  30              		@ args = 0, pretend = 0, frame = 0
  31              		@ frame_needed = 0, uses_anonymous_args = 0
  32 0000 10B5     		push	{r4, lr}
  33              		.cfi_def_cfa_offset 8
  34              		.cfi_offset 4, -8
  35              		.cfi_offset 14, -4
  60:lib/sysTick.c ****     OneMilliSecond_ISR(); 
  36              		.loc 1 60 0
  37 0002 FFF7FEFF 		bl	OneMilliSecond_ISR
  38              	.LVL0:
  39              	.LBB2:
  61:lib/sysTick.c ****     
  62:lib/sysTick.c ****     for(int i=0; i < g_uNoMiliSecondCounter; i++)
  40              		.loc 1 62 0
  41 0006 0023     		movs	r3, #0
  42 0008 0FE0     		b	.L2
  43              	.LVL1:
  44              	.L5:
  63:lib/sysTick.c ****     {
  64:lib/sysTick.c ****         if(g_timerCounter_1ms[i].current == 0)
  45              		.loc 1 64 0
  46 000a 9A00     		lsls	r2, r3, #2
  47 000c 0949     		ldr	r1, .L6
  48 000e 525A     		ldrh	r2, [r2, r1]
  49 0010 002A     		cmp	r2, #0
  50 0012 05D1     		bne	.L3
ARM GAS  C:\Users\luvsd\AppData\Local\Temp\ccd5jdpe.s 			page 3


  65:lib/sysTick.c ****             g_timerCounter_1ms[i].current = g_timerCounter_1ms[i].max;
  51              		.loc 1 65 0
  52 0014 0A00     		movs	r2, r1
  53 0016 9900     		lsls	r1, r3, #2
  54 0018 5018     		adds	r0, r2, r1
  55 001a 4088     		ldrh	r0, [r0, #2]
  56 001c 8852     		strh	r0, [r1, r2]
  57 001e 03E0     		b	.L4
  58              	.L3:
  66:lib/sysTick.c ****         else
  67:lib/sysTick.c ****             g_timerCounter_1ms[i].current--;            
  59              		.loc 1 67 0
  60 0020 9900     		lsls	r1, r3, #2
  61 0022 013A     		subs	r2, r2, #1
  62 0024 0348     		ldr	r0, .L6
  63 0026 0A52     		strh	r2, [r1, r0]
  64              	.L4:
  62:lib/sysTick.c ****     {
  65              		.loc 1 62 0 discriminator 2
  66 0028 0133     		adds	r3, r3, #1
  67              	.LVL2:
  68              	.L2:
  62:lib/sysTick.c ****     {
  69              		.loc 1 62 0 is_stmt 0 discriminator 1
  70 002a 034A     		ldr	r2, .L6+4
  71 002c 1278     		ldrb	r2, [r2]
  72 002e 9342     		cmp	r3, r2
  73 0030 EBDB     		blt	.L5
  74              	.LBE2:
  68:lib/sysTick.c ****     }
  69:lib/sysTick.c **** }
  75              		.loc 1 69 0 is_stmt 1
  76              		@ sp needed
  77 0032 10BD     		pop	{r4, pc}
  78              	.L7:
  79              		.align	2
  80              	.L6:
  81 0034 00000000 		.word	g_timerCounter_1ms
  82 0038 00000000 		.word	.LANCHOR0
  83              		.cfi_endproc
  84              	.LFE65:
  85              		.size	SysTickISRCallback_1ms, .-SysTickISRCallback_1ms
  86              		.section	.text.isFinishCounter_1ms,"ax",%progbits
  87              		.align	2
  88              		.global	isFinishCounter_1ms
  89              		.code	16
  90              		.thumb_func
  91              		.type	isFinishCounter_1ms, %function
  92              	isFinishCounter_1ms:
  93              	.LFB61:
  25:lib/sysTick.c ****    return g_timerCounter_1ms[index].current == 0 ? TRUE : FALSE;
  94              		.loc 1 25 0
  95              		.cfi_startproc
  96              		@ args = 0, pretend = 0, frame = 0
  97              		@ frame_needed = 0, uses_anonymous_args = 0
  98              		@ link register save eliminated.
  99              	.LVL3:
ARM GAS  C:\Users\luvsd\AppData\Local\Temp\ccd5jdpe.s 			page 4


  26:lib/sysTick.c **** }
 100              		.loc 1 26 0
 101 0000 8000     		lsls	r0, r0, #2
 102              	.LVL4:
 103 0002 044B     		ldr	r3, .L11
 104 0004 C35A     		ldrh	r3, [r0, r3]
 105 0006 002B     		cmp	r3, #0
 106 0008 01D1     		bne	.L10
 107 000a 0120     		movs	r0, #1
 108 000c 00E0     		b	.L9
 109              	.L10:
 110 000e 0020     		movs	r0, #0
 111              	.L9:
  27:lib/sysTick.c **** 
 112              		.loc 1 27 0 discriminator 4
 113              		@ sp needed
 114 0010 7047     		bx	lr
 115              	.L12:
 116 0012 C046     		.align	2
 117              	.L11:
 118 0014 00000000 		.word	g_timerCounter_1ms
 119              		.cfi_endproc
 120              	.LFE61:
 121              		.size	isFinishCounter_1ms, .-isFinishCounter_1ms
 122              		.section	.text.resetCounter_1ms,"ax",%progbits
 123              		.align	2
 124              		.global	resetCounter_1ms
 125              		.code	16
 126              		.thumb_func
 127              		.type	resetCounter_1ms, %function
 128              	resetCounter_1ms:
 129              	.LFB62:
  30:lib/sysTick.c ****     g_timerCounter_1ms[index].current = 
 130              		.loc 1 30 0
 131              		.cfi_startproc
 132              		@ args = 0, pretend = 0, frame = 0
 133              		@ frame_needed = 0, uses_anonymous_args = 0
 134              		@ link register save eliminated.
 135              	.LVL5:
  32:lib/sysTick.c **** }
 136              		.loc 1 32 0
 137 0000 024B     		ldr	r3, .L14
 138 0002 8000     		lsls	r0, r0, #2
 139              	.LVL6:
 140 0004 1A18     		adds	r2, r3, r0
 141 0006 5288     		ldrh	r2, [r2, #2]
  31:lib/sysTick.c ****     g_timerCounter_1ms[index].max;
 142              		.loc 1 31 0
 143 0008 C252     		strh	r2, [r0, r3]
  33:lib/sysTick.c **** 
 144              		.loc 1 33 0
 145              		@ sp needed
 146 000a 7047     		bx	lr
 147              	.L15:
 148              		.align	2
 149              	.L14:
 150 000c 00000000 		.word	g_timerCounter_1ms
ARM GAS  C:\Users\luvsd\AppData\Local\Temp\ccd5jdpe.s 			page 5


 151              		.cfi_endproc
 152              	.LFE62:
 153              		.size	resetCounter_1ms, .-resetCounter_1ms
 154              		.section	.text.registerCounter_1ms,"ax",%progbits
 155              		.align	2
 156              		.global	registerCounter_1ms
 157              		.code	16
 158              		.thumb_func
 159              		.type	registerCounter_1ms, %function
 160              	registerCounter_1ms:
 161              	.LFB63:
  37:lib/sysTick.c ****     if(g_uNoMiliSecondCounter < MAX_NO_MILISECOND_COUNTER-1)
 162              		.loc 1 37 0
 163              		.cfi_startproc
 164              		@ args = 0, pretend = 0, frame = 0
 165              		@ frame_needed = 0, uses_anonymous_args = 0
 166              	.LVL7:
 167 0000 10B5     		push	{r4, lr}
 168              		.cfi_def_cfa_offset 8
 169              		.cfi_offset 4, -8
 170              		.cfi_offset 14, -4
  38:lib/sysTick.c ****     {
 171              		.loc 1 38 0
 172 0002 094B     		ldr	r3, .L19
 173 0004 1B78     		ldrb	r3, [r3]
 174 0006 082B     		cmp	r3, #8
 175 0008 08D8     		bhi	.L17
  41:lib/sysTick.c ****         
 176              		.loc 1 41 0
 177 000a 084A     		ldr	r2, .L19+4
 178 000c 9900     		lsls	r1, r3, #2
 179 000e 5418     		adds	r4, r2, r1
 180 0010 6080     		strh	r0, [r4, #2]
  40:lib/sysTick.c ****         g_timerCounter_1ms[g_uNoMiliSecondCounter].max = maxCount;
 181              		.loc 1 40 0
 182 0012 8852     		strh	r0, [r1, r2]
  43:lib/sysTick.c ****     } else {
 183              		.loc 1 43 0
 184 0014 5A1C     		adds	r2, r3, #1
 185 0016 0449     		ldr	r1, .L19
 186 0018 0A70     		strb	r2, [r1]
 187 001a 03E0     		b	.L18
 188              	.L17:
  45:lib/sysTick.c ****     }
 189              		.loc 1 45 0
 190 001c 0448     		ldr	r0, .L19+8
 191              	.LVL8:
 192 001e FFF7FEFF 		bl	puts
 193              	.LVL9:
  47:lib/sysTick.c **** }
 194              		.loc 1 47 0
 195 0022 FF23     		movs	r3, #255
 196              	.L18:
  48:lib/sysTick.c **** 
 197              		.loc 1 48 0
 198 0024 1800     		movs	r0, r3
 199              		@ sp needed
ARM GAS  C:\Users\luvsd\AppData\Local\Temp\ccd5jdpe.s 			page 6


 200 0026 10BD     		pop	{r4, pc}
 201              	.L20:
 202              		.align	2
 203              	.L19:
 204 0028 00000000 		.word	.LANCHOR0
 205 002c 00000000 		.word	g_timerCounter_1ms
 206 0030 00000000 		.word	.LC6
 207              		.cfi_endproc
 208              	.LFE63:
 209              		.size	registerCounter_1ms, .-registerCounter_1ms
 210              		.section	.text.getCurrentTimerCounter_1ms,"ax",%progbits
 211              		.align	2
 212              		.global	getCurrentTimerCounter_1ms
 213              		.code	16
 214              		.thumb_func
 215              		.type	getCurrentTimerCounter_1ms, %function
 216              	getCurrentTimerCounter_1ms:
 217              	.LFB64:
  52:lib/sysTick.c **** 
 218              		.loc 1 52 0
 219              		.cfi_startproc
 220              		@ args = 0, pretend = 0, frame = 0
 221              		@ frame_needed = 0, uses_anonymous_args = 0
 222              		@ link register save eliminated.
 223              	.LVL10:
  52:lib/sysTick.c **** 
 224              		.loc 1 52 0
 225 0000 8000     		lsls	r0, r0, #2
 226              	.LVL11:
 227 0002 014B     		ldr	r3, .L22
 228 0004 185A     		ldrh	r0, [r3, r0]
 229              		@ sp needed
 230 0006 7047     		bx	lr
 231              	.L23:
 232              		.align	2
 233              	.L22:
 234 0008 00000000 		.word	g_timerCounter_1ms
 235              		.cfi_endproc
 236              	.LFE64:
 237              		.size	getCurrentTimerCounter_1ms, .-getCurrentTimerCounter_1ms
 238              		.section	.text.setSysTick,"ax",%progbits
 239              		.align	2
 240              		.global	setSysTick
 241              		.code	16
 242              		.thumb_func
 243              		.type	setSysTick, %function
 244              	setSysTick:
 245              	.LFB66:
  70:lib/sysTick.c **** 
  71:lib/sysTick.c **** void setSysTick(void)
  72:lib/sysTick.c **** {
 246              		.loc 1 72 0
 247              		.cfi_startproc
 248              		@ args = 0, pretend = 0, frame = 0
 249              		@ frame_needed = 0, uses_anonymous_args = 0
 250 0000 10B5     		push	{r4, lr}
 251              		.cfi_def_cfa_offset 8
ARM GAS  C:\Users\luvsd\AppData\Local\Temp\ccd5jdpe.s 			page 7


 252              		.cfi_offset 4, -8
 253              		.cfi_offset 14, -4
  73:lib/sysTick.c ****     uint32 i;
  74:lib/sysTick.c ****     
  75:lib/sysTick.c ****     CySysTickStart();
 254              		.loc 1 75 0
 255 0002 FFF7FEFF 		bl	CySysTickStart
 256              	.LVL12:
  76:lib/sysTick.c ****     
  77:lib/sysTick.c ****     /* Find unused callback slot and assign the callback. */
  78:lib/sysTick.c ****     for (i = 0u; i < CY_SYS_SYST_NUM_OF_CALLBACKS; ++i)
 257              		.loc 1 78 0
 258 0006 0024     		movs	r4, #0
 259 0008 0AE0     		b	.L25
 260              	.LVL13:
 261              	.L28:
  79:lib/sysTick.c ****     {
  80:lib/sysTick.c ****         if (CySysTickGetCallback(i) == NULL)
 262              		.loc 1 80 0
 263 000a 2000     		movs	r0, r4
 264 000c FFF7FEFF 		bl	CySysTickGetCallback
 265              	.LVL14:
 266 0010 0028     		cmp	r0, #0
 267 0012 04D1     		bne	.L26
  81:lib/sysTick.c ****         {
  82:lib/sysTick.c ****             /* Set callback */
  83:lib/sysTick.c ****             CySysTickSetCallback(i, SysTickISRCallback_1ms);
 268              		.loc 1 83 0
 269 0014 0449     		ldr	r1, .L29
 270 0016 2000     		movs	r0, r4
 271 0018 FFF7FEFF 		bl	CySysTickSetCallback
 272              	.LVL15:
  84:lib/sysTick.c ****             break;
 273              		.loc 1 84 0
 274 001c 02E0     		b	.L24
 275              	.L26:
  78:lib/sysTick.c ****     {
 276              		.loc 1 78 0 discriminator 2
 277 001e 0134     		adds	r4, r4, #1
 278              	.LVL16:
 279              	.L25:
  78:lib/sysTick.c ****     {
 280              		.loc 1 78 0 is_stmt 0 discriminator 1
 281 0020 042C     		cmp	r4, #4
 282 0022 F2D9     		bls	.L28
 283              	.L24:
  85:lib/sysTick.c ****         }
  86:lib/sysTick.c ****     }
  87:lib/sysTick.c **** }
 284              		.loc 1 87 0 is_stmt 1
 285              		@ sp needed
 286              	.LVL17:
 287 0024 10BD     		pop	{r4, pc}
 288              	.L30:
 289 0026 C046     		.align	2
 290              	.L29:
 291 0028 00000000 		.word	SysTickISRCallback_1ms
ARM GAS  C:\Users\luvsd\AppData\Local\Temp\ccd5jdpe.s 			page 8


 292              		.cfi_endproc
 293              	.LFE66:
 294              		.size	setSysTick, .-setSysTick
 295              		.comm	g_timerCounter_1ms,40,4
 296              		.global	g_uNoMiliSecondCounter
 297              		.comm	Param,6,4
 298              		.section	.rodata.str1.4,"aMS",%progbits,1
 299              		.align	2
 300              	.LC6:
 301 0000 5761726E 		.ascii	"Warning : resisterCounter_1ms()\015\000"
 301      696E6720 
 301      3A207265 
 301      73697374 
 301      6572436F 
 302              		.bss
 303              		.set	.LANCHOR0,. + 0
 304              		.type	g_uNoMiliSecondCounter, %object
 305              		.size	g_uNoMiliSecondCounter, 1
 306              	g_uNoMiliSecondCounter:
 307 0000 00       		.space	1
 308              		.text
 309              	.Letext0:
 310              		.file 2 "Generated_Source\\PSoC4/cytypes.h"
 311              		.file 3 "./main.h"
 312              		.file 4 "./lib/timerCounter.h"
 313              		.file 5 "./lib/sysTick.h"
 314              		.file 6 "Generated_Source\\PSoC4/CyLib.h"
 315              		.file 7 "<built-in>"