ARM GAS  C:\Users\theGu\AppData\Local\Temp\ccVU9Uhe.s 			page 1


   1              		.syntax unified
   2              		.cpu cortex-m0
   3              		.fpu softvfp
   4              		.eabi_attribute 20, 1
   5              		.eabi_attribute 21, 1
   6              		.eabi_attribute 23, 3
   7              		.eabi_attribute 24, 1
   8              		.eabi_attribute 25, 1
   9              		.eabi_attribute 26, 1
  10              		.eabi_attribute 30, 1
  11              		.eabi_attribute 34, 0
  12              		.eabi_attribute 18, 4
  13              		.thumb
  14              		.syntax unified
  15              		.file	"userMenuPatternSewingMachine01.c"
  16              		.text
  17              	.Ltext0:
  18              		.cfi_sections	.debug_frame
  19              		.section	.text.doMachine,"ax",%progbits
  20              		.align	2
  21              		.global	doMachine
  22              		.code	16
  23              		.thumb_func
  24              		.type	doMachine, %function
  25              	doMachine:
  26              	.LFB76:
  27              		.file 1 "userMenuPatternSewingMachine01.c"
   1:userMenuPatternSewingMachine01.c **** /* ========================================
   2:userMenuPatternSewingMachine01.c ****  *
   3:userMenuPatternSewingMachine01.c ****  * Copyright Suntech, 2023.02.01
   4:userMenuPatternSewingMachine01.c ****  * All Rights Reserved
   5:userMenuPatternSewingMachine01.c ****  * UNPUBLISHED, LICENSED SOFTWARE.
   6:userMenuPatternSewingMachine01.c ****  *
   7:userMenuPatternSewingMachine01.c ****  * CONFIDENTIAL AND PROPRIETARY INFORMATION
   8:userMenuPatternSewingMachine01.c ****  * WHICH IS THE PROPERTY OF Suntech.
   9:userMenuPatternSewingMachine01.c ****  *
  10:userMenuPatternSewingMachine01.c ****  * ========================================
  11:userMenuPatternSewingMachine01.c **** */
  12:userMenuPatternSewingMachine01.c **** #include "userMenu.h"
  13:userMenuPatternSewingMachine01.c **** #include "lib/widget.h"
  14:userMenuPatternSewingMachine01.c **** #include "lib/image.h"
  15:userMenuPatternSewingMachine01.c **** #include "lib/externalFlash.h"
  16:userMenuPatternSewingMachine01.c **** #include "lib/internalFlash.h"
  17:userMenuPatternSewingMachine01.c **** #include "menuDesign.h"
  18:userMenuPatternSewingMachine01.c **** #include "package.h"
  19:userMenuPatternSewingMachine01.c **** #include "WIFI.h"
  20:userMenuPatternSewingMachine01.c **** #include "count.h"
  21:userMenuPatternSewingMachine01.c **** 
  22:userMenuPatternSewingMachine01.c **** #ifdef USER_PROJECT_PATTERN_SEWING_MACHINE
  23:userMenuPatternSewingMachine01.c ****     
  24:userMenuPatternSewingMachine01.c **** #include "userProjectPatternSewing.h"
  25:userMenuPatternSewingMachine01.c **** #include "lib/manageMenu.h"
  26:userMenuPatternSewingMachine01.c **** #include "lib/andonMenu.h"
  27:userMenuPatternSewingMachine01.c **** #include "count.h"
  28:userMenuPatternSewingMachine01.c ****     
  29:userMenuPatternSewingMachine01.c **** char *g_patternString[] = {"Target", "Actual", "Rate", "CT", "RT", "SQ", "SL", "SPI"};
  30:userMenuPatternSewingMachine01.c **** uint8 g_noPatternString = 8;
ARM GAS  C:\Users\theGu\AppData\Local\Temp\ccVU9Uhe.s 			page 2


  31:userMenuPatternSewingMachine01.c **** 
  32:userMenuPatternSewingMachine01.c **** char *g_sewingString[]  = {"Target", "Actual", "Rate", "Trim", "Stitch", "RT"};
  33:userMenuPatternSewingMachine01.c **** uint8 g_nosewingString = 6;
  34:userMenuPatternSewingMachine01.c **** 
  35:userMenuPatternSewingMachine01.c **** ///////////////////////////////////////////////////////////////////////////////////////////////////
  36:userMenuPatternSewingMachine01.c **** /// doTopMenu   ///////////////////////////////////////////////////////////////////////////////////
  37:userMenuPatternSewingMachine01.c **** ///////////////////////////////////////////////////////////////////////////////////////////////////
  38:userMenuPatternSewingMachine01.c **** void DisplayDoTopMenu(MONITORING_MENU *menu);
  39:userMenuPatternSewingMachine01.c **** void TopMenuPageUpdate(MONITORING_MENU *menu, uint8 page);
  40:userMenuPatternSewingMachine01.c **** void TopMenuPageUpdateValue(MONITORING_MENU *menu, uint8 page);
  41:userMenuPatternSewingMachine01.c **** 
  42:userMenuPatternSewingMachine01.c **** int doTopMenu(void *this, uint8 reflash)
  43:userMenuPatternSewingMachine01.c **** {    
  44:userMenuPatternSewingMachine01.c ****     MENUNODE *thisMenu = (MENUNODE *) this;    
  45:userMenuPatternSewingMachine01.c ****     static MONITORING_MENU menu;
  46:userMenuPatternSewingMachine01.c ****     static uint8 patternPage = 0;
  47:userMenuPatternSewingMachine01.c ****     static uint8 sewingPage = 0;
  48:userMenuPatternSewingMachine01.c ****     static uint8 page = 0, oldPage = 0xFF;
  49:userMenuPatternSewingMachine01.c **** 
  50:userMenuPatternSewingMachine01.c ****     switch(reflash)
  51:userMenuPatternSewingMachine01.c ****     {
  52:userMenuPatternSewingMachine01.c ****         case TRUE: // 화면이 바뀔때 실행
  53:userMenuPatternSewingMachine01.c ****             {
  54:userMenuPatternSewingMachine01.c ****                 switch(g_ptrMachineParameter->machineType)
  55:userMenuPatternSewingMachine01.c ****                 {
  56:userMenuPatternSewingMachine01.c ****                     case PATTERN_MACHINE:  page = patternPage; break;
  57:userMenuPatternSewingMachine01.c ****                     case SEWING_MACHINE :  page = sewingPage;  break;
  58:userMenuPatternSewingMachine01.c ****                 }
  59:userMenuPatternSewingMachine01.c ****                 
  60:userMenuPatternSewingMachine01.c ****                 oldPage = 0xFF;
  61:userMenuPatternSewingMachine01.c ****                 g_updateCountMenu = TRUE;                
  62:userMenuPatternSewingMachine01.c ****                 DisplayDoTopMenu(&menu);                
  63:userMenuPatternSewingMachine01.c ****             }
  64:userMenuPatternSewingMachine01.c ****             break;  
  65:userMenuPatternSewingMachine01.c ****         
  66:userMenuPatternSewingMachine01.c ****         case FALSE: // Cliking Check
  67:userMenuPatternSewingMachine01.c ****             {
  68:userMenuPatternSewingMachine01.c ****                 TOUCH tc = GetTouch();
  69:userMenuPatternSewingMachine01.c ****                 if(tc.isClick == FALSE) break;
  70:userMenuPatternSewingMachine01.c ****                 
  71:userMenuPatternSewingMachine01.c ****                 switch(getIndexOfClickedButton(&tc, menu.btn,7))
  72:userMenuPatternSewingMachine01.c ****                 {
  73:userMenuPatternSewingMachine01.c ****                     case 0: return 2; break;
  74:userMenuPatternSewingMachine01.c ****                     
  75:userMenuPatternSewingMachine01.c ****                     case 1:
  76:userMenuPatternSewingMachine01.c ****                     case 2:
  77:userMenuPatternSewingMachine01.c ****                         switch(g_ptrMachineParameter->machineType)
  78:userMenuPatternSewingMachine01.c ****                         {
  79:userMenuPatternSewingMachine01.c ****                             case PATTERN_MACHINE:
  80:userMenuPatternSewingMachine01.c ****                                 if     (page == 0) return 3;
  81:userMenuPatternSewingMachine01.c ****                                 else if(page > 0 ) page--;
  82:userMenuPatternSewingMachine01.c ****                                 break;
  83:userMenuPatternSewingMachine01.c ****                             case SEWING_MACHINE :
  84:userMenuPatternSewingMachine01.c ****                                 if     (page == 0) return 3;
  85:userMenuPatternSewingMachine01.c ****                                 else if(page > 0 ) page--;
  86:userMenuPatternSewingMachine01.c ****                                 break;                                
  87:userMenuPatternSewingMachine01.c ****                         }
ARM GAS  C:\Users\theGu\AppData\Local\Temp\ccVU9Uhe.s 			page 3


  88:userMenuPatternSewingMachine01.c ****                         break;
  89:userMenuPatternSewingMachine01.c ****                         
  90:userMenuPatternSewingMachine01.c ****                     case 3:                        
  91:userMenuPatternSewingMachine01.c ****                     case 4:
  92:userMenuPatternSewingMachine01.c ****                         switch(g_ptrMachineParameter->machineType)
  93:userMenuPatternSewingMachine01.c ****                         {
  94:userMenuPatternSewingMachine01.c ****                             case PATTERN_MACHINE:
  95:userMenuPatternSewingMachine01.c ****                                 if     (page == 0) return 4;
  96:userMenuPatternSewingMachine01.c ****                              //   else if(page > 0 ) page--;
  97:userMenuPatternSewingMachine01.c ****                                 break;
  98:userMenuPatternSewingMachine01.c ****                             case SEWING_MACHINE :
  99:userMenuPatternSewingMachine01.c ****                                 if     (page == 0) return 4;
 100:userMenuPatternSewingMachine01.c ****                             //    else if(page > 0 ) page--;
 101:userMenuPatternSewingMachine01.c ****                                 break;                                
 102:userMenuPatternSewingMachine01.c ****                         }                       
 103:userMenuPatternSewingMachine01.c ****                         break;
 104:userMenuPatternSewingMachine01.c ****                         
 105:userMenuPatternSewingMachine01.c ****                     case 5:
 106:userMenuPatternSewingMachine01.c ****                     case 6:
 107:userMenuPatternSewingMachine01.c ****                         switch(g_ptrMachineParameter->machineType)
 108:userMenuPatternSewingMachine01.c ****                         {
 109:userMenuPatternSewingMachine01.c ****                             case PATTERN_MACHINE:
 110:userMenuPatternSewingMachine01.c ****                                 if     (page < 2)  page++;
 111:userMenuPatternSewingMachine01.c ****                                 break;
 112:userMenuPatternSewingMachine01.c ****                             case SEWING_MACHINE :
 113:userMenuPatternSewingMachine01.c ****                                 if     (page < 1)  page++;
 114:userMenuPatternSewingMachine01.c ****                                 break;                            
 115:userMenuPatternSewingMachine01.c ****                         }
 116:userMenuPatternSewingMachine01.c ****                         break;             
 117:userMenuPatternSewingMachine01.c ****                     default:
 118:userMenuPatternSewingMachine01.c ****                         switch(getIndexOfClickedButton(&tc,g_btnBottom,2))
 119:userMenuPatternSewingMachine01.c ****                         {
 120:userMenuPatternSewingMachine01.c ****                             case BOTTOM_LEFT:  return 0;
 121:userMenuPatternSewingMachine01.c ****                             case BOTTOM_RIGHT: return 1;                            
 122:userMenuPatternSewingMachine01.c ****                         }
 123:userMenuPatternSewingMachine01.c ****                     break;
 124:userMenuPatternSewingMachine01.c ****                 }
 125:userMenuPatternSewingMachine01.c ****                 
 126:userMenuPatternSewingMachine01.c ****             }
 127:userMenuPatternSewingMachine01.c ****             break;
 128:userMenuPatternSewingMachine01.c ****     }
 129:userMenuPatternSewingMachine01.c ****     
 130:userMenuPatternSewingMachine01.c ****    if(oldPage != page || g_updateCountMenu == TRUE) TopMenuPageUpdate(&menu, page);
 131:userMenuPatternSewingMachine01.c ****     
 132:userMenuPatternSewingMachine01.c ****     oldPage = page;
 133:userMenuPatternSewingMachine01.c ****     g_updateCountMenu = FALSE;
 134:userMenuPatternSewingMachine01.c ****     return MENU_RETURN_THIS;    
 135:userMenuPatternSewingMachine01.c **** }
 136:userMenuPatternSewingMachine01.c **** 
 137:userMenuPatternSewingMachine01.c **** void TopMenuPageUpdate(MONITORING_MENU *menu, uint8 page)
 138:userMenuPatternSewingMachine01.c **** {
 139:userMenuPatternSewingMachine01.c ****     switch(g_ptrMachineParameter->machineType)
 140:userMenuPatternSewingMachine01.c ****     {
 141:userMenuPatternSewingMachine01.c ****         case PATTERN_MACHINE:
 142:userMenuPatternSewingMachine01.c ****         {
 143:userMenuPatternSewingMachine01.c ****             switch(page)
 144:userMenuPatternSewingMachine01.c ****             {
ARM GAS  C:\Users\theGu\AppData\Local\Temp\ccVU9Uhe.s 			page 4


 145:userMenuPatternSewingMachine01.c ****                 case 0:
 146:userMenuPatternSewingMachine01.c ****                     SetButtonText(&menu->btn[1],g_patternString[0]);
 147:userMenuPatternSewingMachine01.c ****                     SetButtonText(&menu->btn[3],g_patternString[1]);
 148:userMenuPatternSewingMachine01.c ****                     SetButtonText(&menu->btn[5],g_patternString[2]);
 149:userMenuPatternSewingMachine01.c ****                     break;
 150:userMenuPatternSewingMachine01.c ****                 case 1:
 151:userMenuPatternSewingMachine01.c ****                     SetButtonText(&menu->btn[1],g_patternString[3]);
 152:userMenuPatternSewingMachine01.c ****                     SetButtonText(&menu->btn[3],g_patternString[4]);
 153:userMenuPatternSewingMachine01.c ****                     SetButtonText(&menu->btn[5],g_patternString[2]);                    
 154:userMenuPatternSewingMachine01.c ****                     break;
 155:userMenuPatternSewingMachine01.c ****                 case 2:
 156:userMenuPatternSewingMachine01.c ****                     SetButtonText(&menu->btn[1],g_patternString[5]);
 157:userMenuPatternSewingMachine01.c ****                     SetButtonText(&menu->btn[3],g_patternString[6]);
 158:userMenuPatternSewingMachine01.c ****                     SetButtonText(&menu->btn[5],g_patternString[7]);                      
 159:userMenuPatternSewingMachine01.c ****                     break;
 160:userMenuPatternSewingMachine01.c ****             }
 161:userMenuPatternSewingMachine01.c ****         }
 162:userMenuPatternSewingMachine01.c ****         break;
 163:userMenuPatternSewingMachine01.c ****         case SEWING_MACHINE:
 164:userMenuPatternSewingMachine01.c ****         {
 165:userMenuPatternSewingMachine01.c ****             switch(page)
 166:userMenuPatternSewingMachine01.c ****             {
 167:userMenuPatternSewingMachine01.c ****                 case 0:
 168:userMenuPatternSewingMachine01.c ****                     SetButtonText(&menu->btn[1],g_patternString[0]);
 169:userMenuPatternSewingMachine01.c ****                     SetButtonText(&menu->btn[3],g_patternString[1]);
 170:userMenuPatternSewingMachine01.c ****                     SetButtonText(&menu->btn[5],g_patternString[2]);
 171:userMenuPatternSewingMachine01.c ****                     break;
 172:userMenuPatternSewingMachine01.c ****                 case 1:
 173:userMenuPatternSewingMachine01.c ****                     SetButtonText(&menu->btn[1],g_patternString[3]);
 174:userMenuPatternSewingMachine01.c ****                     SetButtonText(&menu->btn[3],g_patternString[4]);
 175:userMenuPatternSewingMachine01.c ****                     SetButtonText(&menu->btn[5],g_patternString[5]);                    
 176:userMenuPatternSewingMachine01.c ****                     break;     
 177:userMenuPatternSewingMachine01.c ****             }
 178:userMenuPatternSewingMachine01.c ****         }
 179:userMenuPatternSewingMachine01.c ****         break;        
 180:userMenuPatternSewingMachine01.c ****     }
 181:userMenuPatternSewingMachine01.c **** 
 182:userMenuPatternSewingMachine01.c ****   //  menu->btn[3].disable = TRUE; // for no click second line
 183:userMenuPatternSewingMachine01.c ****   //  menu->btn[4].disable = TRUE; // for no click second line 
 184:userMenuPatternSewingMachine01.c ****         
 185:userMenuPatternSewingMachine01.c ****     DrawButton(&menu->btn[1]);
 186:userMenuPatternSewingMachine01.c ****     DrawButton(&menu->btn[3]);
 187:userMenuPatternSewingMachine01.c ****     DrawButton(&menu->btn[5]); 
 188:userMenuPatternSewingMachine01.c **** 
 189:userMenuPatternSewingMachine01.c ****     TopMenuPageUpdateValue(menu,page);
 190:userMenuPatternSewingMachine01.c ****     
 191:userMenuPatternSewingMachine01.c **** }
 192:userMenuPatternSewingMachine01.c **** 
 193:userMenuPatternSewingMachine01.c **** void DisplayDoTopMenu(MONITORING_MENU *menu)
 194:userMenuPatternSewingMachine01.c **** {
 195:userMenuPatternSewingMachine01.c ****     switch(g_ptrMachineParameter->machineType)
 196:userMenuPatternSewingMachine01.c ****     {
 197:userMenuPatternSewingMachine01.c ****         case PATTERN_MACHINE: SetDrawMonitoringMenu(menu, "%d : %3.1f-Pair",
 198:userMenuPatternSewingMachine01.c ****             g_ptrMachineParameter->patternPairCount, g_ptrMachineParameter->patternPair/10.);
 199:userMenuPatternSewingMachine01.c ****             break;
 200:userMenuPatternSewingMachine01.c ****         case SEWING_MACHINE:  SetDrawMonitoringMenu(menu, "%d : %3.1f-Pair",
 201:userMenuPatternSewingMachine01.c ****             g_ptrMachineParameter->sewingPairTrim, g_ptrMachineParameter->sewingPair/10.);
ARM GAS  C:\Users\theGu\AppData\Local\Temp\ccVU9Uhe.s 			page 5


 202:userMenuPatternSewingMachine01.c ****         break;
 203:userMenuPatternSewingMachine01.c ****     }    
 204:userMenuPatternSewingMachine01.c ****     SetDrawBottomButtons("MENU", "ANDON", BUTTON_STYLE_R_GREEN, BUTTON_STYLE_R_BLUE);  
 205:userMenuPatternSewingMachine01.c **** }
 206:userMenuPatternSewingMachine01.c **** 
 207:userMenuPatternSewingMachine01.c **** void TopMenuPageUpdateValue(MONITORING_MENU *menu, uint8 page)
 208:userMenuPatternSewingMachine01.c **** {
 209:userMenuPatternSewingMachine01.c ****     BUTTON *btn;
 210:userMenuPatternSewingMachine01.c ****     uint8 persent = FALSE;
 211:userMenuPatternSewingMachine01.c ****     
 212:userMenuPatternSewingMachine01.c ****     float spi = 0.0;
 213:userMenuPatternSewingMachine01.c ****     if((uint32) CONVERT_TO_4BYTE(g_ptrCount->patternNoStitchSumH,g_ptrCount->patternNoStitchSumL) >
 214:userMenuPatternSewingMachine01.c ****        (uint32) CONVERT_TO_4BYTE(g_ptrCount->patternStitchLengthSumH,g_ptrCount->patternStitchLengt
 215:userMenuPatternSewingMachine01.c ****     {
 216:userMenuPatternSewingMachine01.c ****         spi = 25.4 / (((float) ((uint32) CONVERT_TO_4BYTE(g_ptrCount->patternStitchLengthSumH,g_ptr
 217:userMenuPatternSewingMachine01.c ****                       ((float) ((uint32) CONVERT_TO_4BYTE(g_ptrCount->patternNoStitchSumH,g_ptrCoun
 218:userMenuPatternSewingMachine01.c ****         
 219:userMenuPatternSewingMachine01.c ****     }
 220:userMenuPatternSewingMachine01.c **** //    printf("%lu, %lu\r\n", (uint32) CONVERT_TO_4BYTE(g_ptrCount->patternStitchLengthSumH,g_ptrCou
 221:userMenuPatternSewingMachine01.c **** //    ((uint32) CONVERT_TO_4BYTE(g_ptrCount->patternNoStitchSumH,g_ptrCount->patternNoStitchSumL)))
 222:userMenuPatternSewingMachine01.c **** //    
 223:userMenuPatternSewingMachine01.c ****     switch(g_ptrMachineParameter->machineType)
 224:userMenuPatternSewingMachine01.c ****     {
 225:userMenuPatternSewingMachine01.c ****         case PATTERN_MACHINE:
 226:userMenuPatternSewingMachine01.c ****         {
 227:userMenuPatternSewingMachine01.c ****             switch(page)
 228:userMenuPatternSewingMachine01.c ****             {
 229:userMenuPatternSewingMachine01.c ****                 case 0:
 230:userMenuPatternSewingMachine01.c ****                     SetButtonText(&menu->btn[2],"%u",g_ptrMachineParameter->patternTarget);
 231:userMenuPatternSewingMachine01.c ****                     SetButtonText(&menu->btn[4],"%lu",   ((uint32) CONVERT_TO_4BYTE(g_ptrCount->pat
 232:userMenuPatternSewingMachine01.c ****                     SetButtonText(&menu->btn[6],"%4.1f",((uint32) CONVERT_TO_4BYTE(g_ptrCount->patt
 233:userMenuPatternSewingMachine01.c ****                     persent = TRUE;
 234:userMenuPatternSewingMachine01.c ****                     break;
 235:userMenuPatternSewingMachine01.c ****                 case 1:
 236:userMenuPatternSewingMachine01.c ****                     SetButtonText(&menu->btn[2],"%0.1f",(uint32) CONVERT_TO_4BYTE(g_ptrCount->patte
 237:userMenuPatternSewingMachine01.c ****                     SetButtonText(&menu->btn[4],"%0.1f",(uint32) CONVERT_TO_4BYTE(g_ptrCount->patte
 238:userMenuPatternSewingMachine01.c ****                     SetButtonText(&menu->btn[6],"%4.1f",((uint32) CONVERT_TO_4BYTE(g_ptrCount->patt
 239:userMenuPatternSewingMachine01.c ****                     persent = TRUE;
 240:userMenuPatternSewingMachine01.c ****                     break;
 241:userMenuPatternSewingMachine01.c ****                 case 2:
 242:userMenuPatternSewingMachine01.c ****                     SetButtonText(&menu->btn[2],"%lu",(uint32) CONVERT_TO_4BYTE(g_ptrCount->pattern
 243:userMenuPatternSewingMachine01.c ****                     SetButtonText(&menu->btn[4],"%lu",(uint32) CONVERT_TO_4BYTE(g_ptrCount->pattern
 244:userMenuPatternSewingMachine01.c ****                     SetButtonText(&menu->btn[6],"%4.1f",spi);    
 245:userMenuPatternSewingMachine01.c ****                     break;
 246:userMenuPatternSewingMachine01.c ****             }
 247:userMenuPatternSewingMachine01.c ****         }
 248:userMenuPatternSewingMachine01.c ****         break; 
 249:userMenuPatternSewingMachine01.c ****         case SEWING_MACHINE:
 250:userMenuPatternSewingMachine01.c ****         {
 251:userMenuPatternSewingMachine01.c ****             switch(page)
 252:userMenuPatternSewingMachine01.c ****             {
 253:userMenuPatternSewingMachine01.c ****                 case 0:
 254:userMenuPatternSewingMachine01.c ****                     SetButtonText(&menu->btn[2],"%u",g_ptrMachineParameter->sewingTarget);
 255:userMenuPatternSewingMachine01.c ****                     SetButtonText(&menu->btn[4],"%lu",   ((uint32) CONVERT_TO_4BYTE(g_ptrCount->sew
 256:userMenuPatternSewingMachine01.c ****                     SetButtonText(&menu->btn[6],"%4.1f",((uint32) CONVERT_TO_4BYTE(g_ptrCount->sewi
 257:userMenuPatternSewingMachine01.c ****                     persent = TRUE;                    
 258:userMenuPatternSewingMachine01.c ****                     break;
ARM GAS  C:\Users\theGu\AppData\Local\Temp\ccVU9Uhe.s 			page 6


 259:userMenuPatternSewingMachine01.c ****                 case 1:
 260:userMenuPatternSewingMachine01.c ****                     SetButtonText(&menu->btn[2],"%lu",((uint32) CONVERT_TO_4BYTE(g_ptrCount->sewing
 261:userMenuPatternSewingMachine01.c ****                     SetButtonText(&menu->btn[4],"%lu",((uint32) CONVERT_TO_4BYTE(g_ptrCount->sewing
 262:userMenuPatternSewingMachine01.c ****                     SetButtonText(&menu->btn[6],"%lu",((uint32) CONVERT_TO_4BYTE(g_ptrCount->sewing
 263:userMenuPatternSewingMachine01.c ****                     break;     
 264:userMenuPatternSewingMachine01.c ****             }
 265:userMenuPatternSewingMachine01.c ****         }
 266:userMenuPatternSewingMachine01.c ****         break;        
 267:userMenuPatternSewingMachine01.c ****     }    
 268:userMenuPatternSewingMachine01.c ****     
 269:userMenuPatternSewingMachine01.c ****     DrawButton(&menu->btn[2]);
 270:userMenuPatternSewingMachine01.c ****     DrawButton(&menu->btn[4]);
 271:userMenuPatternSewingMachine01.c ****     DrawButton(&menu->btn[6]);
 272:userMenuPatternSewingMachine01.c ****     
 273:userMenuPatternSewingMachine01.c ****     if( persent)
 274:userMenuPatternSewingMachine01.c ****     {
 275:userMenuPatternSewingMachine01.c ****         BUTTON *b = &menu->btn[6];
 276:userMenuPatternSewingMachine01.c ****         LCD_DrawFont(b->rect.right-16,(b->rect.top+b->rect.bottom)*.5-10,b->foregroundColor,b->back
 277:userMenuPatternSewingMachine01.c ****     }
 278:userMenuPatternSewingMachine01.c **** }
 279:userMenuPatternSewingMachine01.c **** 
 280:userMenuPatternSewingMachine01.c **** ///////////////////////////////////////////////////////////////////////////////////////////////////
 281:userMenuPatternSewingMachine01.c **** /// doPairsInfoMenu   /////////////////////////////////////////////////////////////////////////////
 282:userMenuPatternSewingMachine01.c **** ///////////////////////////////////////////////////////////////////////////////////////////////////
 283:userMenuPatternSewingMachine01.c **** void DisplayDoPairsInfoMenu(UP_DOWN_TWO_MENU *menu);
 284:userMenuPatternSewingMachine01.c **** void DisplayDoPairsInfoMenuSelectValue(UP_DOWN_TWO_MENU *menu, uint8 selectValue, uint16 leftValue,
 285:userMenuPatternSewingMachine01.c **** void DisplayDoPairsInfoMenuLeftValueChange(UP_DOWN_TWO_MENU *menu, uint16 leftValue);
 286:userMenuPatternSewingMachine01.c **** void DisplayDoPairsInfoMenuRightValueChange(UP_DOWN_TWO_MENU *menu, uint16 rightValue); // rightVal
 287:userMenuPatternSewingMachine01.c **** 
 288:userMenuPatternSewingMachine01.c **** int doPairsInfoMenu(void *this, uint8 reflash)
 289:userMenuPatternSewingMachine01.c **** {    
 290:userMenuPatternSewingMachine01.c ****     MENUNODE *thisMenu = (MENUNODE *) this;    
 291:userMenuPatternSewingMachine01.c ****     static UP_DOWN_TWO_MENU menu;    
 292:userMenuPatternSewingMachine01.c ****     static uint16 selectValue = 0;
 293:userMenuPatternSewingMachine01.c ****     static uint16 leftValue = 2;
 294:userMenuPatternSewingMachine01.c ****     static uint16  rightValue = 25;
 295:userMenuPatternSewingMachine01.c **** 
 296:userMenuPatternSewingMachine01.c ****     switch(reflash)
 297:userMenuPatternSewingMachine01.c ****     {
 298:userMenuPatternSewingMachine01.c ****         case TRUE: // 화면이 바뀔때 실행
 299:userMenuPatternSewingMachine01.c ****             {
 300:userMenuPatternSewingMachine01.c ****                 DisplayDoPairsInfoMenu(&menu);
 301:userMenuPatternSewingMachine01.c ****                 
 302:userMenuPatternSewingMachine01.c ****                 switch(g_ptrMachineParameter->machineType)
 303:userMenuPatternSewingMachine01.c ****                 {
 304:userMenuPatternSewingMachine01.c ****                     case PATTERN_MACHINE: 
 305:userMenuPatternSewingMachine01.c ****                         leftValue  = g_ptrMachineParameter->patternPairCount;
 306:userMenuPatternSewingMachine01.c ****                         rightValue = g_ptrMachineParameter->patternPair;
 307:userMenuPatternSewingMachine01.c ****                         break;
 308:userMenuPatternSewingMachine01.c ****                     case SEWING_MACHINE:
 309:userMenuPatternSewingMachine01.c ****                         leftValue  = g_ptrMachineParameter->sewingPairTrim;
 310:userMenuPatternSewingMachine01.c ****                         rightValue = g_ptrMachineParameter->sewingPair;
 311:userMenuPatternSewingMachine01.c ****                         break;
 312:userMenuPatternSewingMachine01.c ****                     break;
 313:userMenuPatternSewingMachine01.c ****                 }  
 314:userMenuPatternSewingMachine01.c ****     
 315:userMenuPatternSewingMachine01.c ****                 DisplayDoPairsInfoMenuSelectValue(&menu, selectValue, leftValue, rightValue);
ARM GAS  C:\Users\theGu\AppData\Local\Temp\ccVU9Uhe.s 			page 7


 316:userMenuPatternSewingMachine01.c ****             }
 317:userMenuPatternSewingMachine01.c ****             break;  
 318:userMenuPatternSewingMachine01.c **** 
 319:userMenuPatternSewingMachine01.c ****         case FALSE: // Cliking Check
 320:userMenuPatternSewingMachine01.c ****             {
 321:userMenuPatternSewingMachine01.c ****                 TOUCH tc = GetTouch();
 322:userMenuPatternSewingMachine01.c ****                 if(tc.isClick == FALSE) break;
 323:userMenuPatternSewingMachine01.c ****                 uint16 indexClick = getIndexOfClickedButton(&tc, menu.btn,7);
 324:userMenuPatternSewingMachine01.c ****                 switch(indexClick)
 325:userMenuPatternSewingMachine01.c ****                 {
 326:userMenuPatternSewingMachine01.c ****                     case UPDOWNTWO_FIRST_TEXT:  // left
 327:userMenuPatternSewingMachine01.c ****                     case UPDOWNTWO_FIRST_VALUE:
 328:userMenuPatternSewingMachine01.c ****                         selectValue = 0;
 329:userMenuPatternSewingMachine01.c ****                         DisplayDoPairsInfoMenuSelectValue(&menu,selectValue, leftValue, rightValue)
 330:userMenuPatternSewingMachine01.c ****                         break;
 331:userMenuPatternSewingMachine01.c ****                     case UPDOWNTWO_SECOND_TEXT:  // right
 332:userMenuPatternSewingMachine01.c ****                     case UPDOWNTWO_SECOND_VALUE:
 333:userMenuPatternSewingMachine01.c ****                         selectValue = 1;
 334:userMenuPatternSewingMachine01.c ****                         DisplayDoPairsInfoMenuSelectValue(&menu,selectValue, leftValue, rightValue)
 335:userMenuPatternSewingMachine01.c ****                         break;                    
 336:userMenuPatternSewingMachine01.c ****                     case UPDOWNTWO_UP_BUTTON: // for up
 337:userMenuPatternSewingMachine01.c ****                         if      (selectValue==0 && leftValue < 10000)
 338:userMenuPatternSewingMachine01.c ****                         {
 339:userMenuPatternSewingMachine01.c ****                             leftValue++;
 340:userMenuPatternSewingMachine01.c ****                             DisplayDoPairsInfoMenuLeftValueChange(&menu,leftValue);
 341:userMenuPatternSewingMachine01.c ****                         }
 342:userMenuPatternSewingMachine01.c ****                         else if (selectValue==1 && rightValue < 10000)
 343:userMenuPatternSewingMachine01.c ****                         {
 344:userMenuPatternSewingMachine01.c ****                             rightValue++;
 345:userMenuPatternSewingMachine01.c ****                             DisplayDoPairsInfoMenuRightValueChange(&menu,rightValue);
 346:userMenuPatternSewingMachine01.c ****                         }
 347:userMenuPatternSewingMachine01.c ****                         break;                       
 348:userMenuPatternSewingMachine01.c ****                     case UPDOWNTWO_DOWN_BUTTON: // for down
 349:userMenuPatternSewingMachine01.c ****                         if      (selectValue==0 && leftValue > 1)
 350:userMenuPatternSewingMachine01.c ****                         {
 351:userMenuPatternSewingMachine01.c ****                             leftValue--;
 352:userMenuPatternSewingMachine01.c ****                             DisplayDoPairsInfoMenuLeftValueChange(&menu,leftValue);
 353:userMenuPatternSewingMachine01.c ****                         }                        
 354:userMenuPatternSewingMachine01.c ****                         else if (selectValue==1 && rightValue > 1) 
 355:userMenuPatternSewingMachine01.c ****                         {
 356:userMenuPatternSewingMachine01.c ****                             rightValue--;
 357:userMenuPatternSewingMachine01.c ****                             DisplayDoPairsInfoMenuRightValueChange(&menu,rightValue);
 358:userMenuPatternSewingMachine01.c ****                         }                 
 359:userMenuPatternSewingMachine01.c ****                         break;                    
 360:userMenuPatternSewingMachine01.c ****                     default:
 361:userMenuPatternSewingMachine01.c ****                         switch(getIndexOfClickedButton(&tc,g_btnBottom,2))
 362:userMenuPatternSewingMachine01.c ****                         {
 363:userMenuPatternSewingMachine01.c ****                             case BOTTOM_LEFT:  return MENU_RETURN_PARENT;
 364:userMenuPatternSewingMachine01.c ****                             case BOTTOM_RIGHT: 
 365:userMenuPatternSewingMachine01.c ****                             {
 366:userMenuPatternSewingMachine01.c ****                                 switch(g_ptrMachineParameter->machineType)
 367:userMenuPatternSewingMachine01.c ****                                 {
 368:userMenuPatternSewingMachine01.c ****                                     case PATTERN_MACHINE: 
 369:userMenuPatternSewingMachine01.c ****                                         g_ptrMachineParameter->patternPairCount = leftValue; 
 370:userMenuPatternSewingMachine01.c ****                                         g_ptrMachineParameter->patternPair      = rightValue;
 371:userMenuPatternSewingMachine01.c ****                                         break;
 372:userMenuPatternSewingMachine01.c ****                                     case SEWING_MACHINE:
ARM GAS  C:\Users\theGu\AppData\Local\Temp\ccVU9Uhe.s 			page 8


 373:userMenuPatternSewingMachine01.c ****                                         g_ptrMachineParameter->sewingPairTrim = leftValue ; 
 374:userMenuPatternSewingMachine01.c ****                                         g_ptrMachineParameter->sewingPair     = rightValue; 
 375:userMenuPatternSewingMachine01.c ****                                         break;
 376:userMenuPatternSewingMachine01.c ****                                     break;
 377:userMenuPatternSewingMachine01.c ****                                 }
 378:userMenuPatternSewingMachine01.c ****                                 ShowWaitMessage();
 379:userMenuPatternSewingMachine01.c ****                                 SaveExternalFlashConfig();
 380:userMenuPatternSewingMachine01.c ****                                 return MENU_RETURN_PARENT;
 381:userMenuPatternSewingMachine01.c ****                             }
 382:userMenuPatternSewingMachine01.c ****                         }
 383:userMenuPatternSewingMachine01.c ****                     break;
 384:userMenuPatternSewingMachine01.c ****                 }                                  
 385:userMenuPatternSewingMachine01.c ****             }
 386:userMenuPatternSewingMachine01.c ****             break;
 387:userMenuPatternSewingMachine01.c ****     }
 388:userMenuPatternSewingMachine01.c ****     return MENU_RETURN_THIS;    
 389:userMenuPatternSewingMachine01.c **** }
 390:userMenuPatternSewingMachine01.c **** 
 391:userMenuPatternSewingMachine01.c **** void DisplayDoPairsInfoMenu(UP_DOWN_TWO_MENU *menu)
 392:userMenuPatternSewingMachine01.c **** {
 393:userMenuPatternSewingMachine01.c ****     switch(g_ptrMachineParameter->machineType)
 394:userMenuPatternSewingMachine01.c ****     {
 395:userMenuPatternSewingMachine01.c ****         case PATTERN_MACHINE: SetDrawUpDownTwoMenu(menu, "Count", "Pair(s)", "Pairs infos.");   bre
 396:userMenuPatternSewingMachine01.c ****         case SEWING_MACHINE:  SetDrawUpDownTwoMenu(menu, "Trim",  "Pair(s)", "Pairs infos.");   bre
 397:userMenuPatternSewingMachine01.c ****         break;
 398:userMenuPatternSewingMachine01.c ****     }    
 399:userMenuPatternSewingMachine01.c ****     
 400:userMenuPatternSewingMachine01.c ****     menu->btn[0].disable = TRUE; // for no click title
 401:userMenuPatternSewingMachine01.c ****    
 402:userMenuPatternSewingMachine01.c ****     SetDrawBottomButtons("QUIT", "SAVE", BUTTON_STYLE_R_GREEN, BUTTON_STYLE_R_BLUE);  
 403:userMenuPatternSewingMachine01.c **** }
 404:userMenuPatternSewingMachine01.c **** 
 405:userMenuPatternSewingMachine01.c **** void DisplayDoPairsInfoMenuSelectValue(UP_DOWN_TWO_MENU *menu, uint8 selectValue, uint16 firstValue
 406:userMenuPatternSewingMachine01.c **** {
 407:userMenuPatternSewingMachine01.c ****     SetButtonStyleColor(&menu->btn[UPDOWNTWO_FIRST_TEXT],  (selectValue==0) ? BUTTON_STYLE_WHITE : 
 408:userMenuPatternSewingMachine01.c ****     SetButtonStyleColor(&menu->btn[UPDOWNTWO_FIRST_VALUE], (selectValue==0) ? BUTTON_STYLE_YELLOW: 
 409:userMenuPatternSewingMachine01.c ****     SetButtonStyleColor(&menu->btn[UPDOWNTWO_SECOND_TEXT], (selectValue==1) ? BUTTON_STYLE_WHITE : 
 410:userMenuPatternSewingMachine01.c ****     SetButtonStyleColor(&menu->btn[UPDOWNTWO_SECOND_VALUE],(selectValue==1) ? BUTTON_STYLE_YELLOW: 
 411:userMenuPatternSewingMachine01.c ****     
 412:userMenuPatternSewingMachine01.c ****     DrawButton(&menu->btn[UPDOWNTWO_FIRST_TEXT]);
 413:userMenuPatternSewingMachine01.c ****     DrawButton(&menu->btn[UPDOWNTWO_SECOND_TEXT]);
 414:userMenuPatternSewingMachine01.c ****     
 415:userMenuPatternSewingMachine01.c ****     DisplayDoPairsInfoMenuLeftValueChange(menu,firstValue);
 416:userMenuPatternSewingMachine01.c ****     DisplayDoPairsInfoMenuRightValueChange(menu,secondValue);    
 417:userMenuPatternSewingMachine01.c **** }
 418:userMenuPatternSewingMachine01.c **** void DisplayDoPairsInfoMenuLeftValueChange(UP_DOWN_TWO_MENU *menu, uint16 value)
 419:userMenuPatternSewingMachine01.c **** {  
 420:userMenuPatternSewingMachine01.c ****     SetButtonText(&menu->btn[UPDOWNTWO_FIRST_VALUE],"%d",value);    // left value   
 421:userMenuPatternSewingMachine01.c ****     DrawButton(&menu->btn[UPDOWNTWO_FIRST_VALUE]);
 422:userMenuPatternSewingMachine01.c **** }
 423:userMenuPatternSewingMachine01.c **** void DisplayDoPairsInfoMenuRightValueChange(UP_DOWN_TWO_MENU *menu, uint16 value)
 424:userMenuPatternSewingMachine01.c **** {
 425:userMenuPatternSewingMachine01.c ****     SetButtonText(&menu->btn[UPDOWNTWO_SECOND_VALUE],"%3.1f",value/10.); // right value   
 426:userMenuPatternSewingMachine01.c ****     DrawButton(&menu->btn[UPDOWNTWO_SECOND_VALUE]);     
 427:userMenuPatternSewingMachine01.c **** }
 428:userMenuPatternSewingMachine01.c **** 
 429:userMenuPatternSewingMachine01.c **** ///////////////////////////////////////////////////////////////////////////////////////////////////
ARM GAS  C:\Users\theGu\AppData\Local\Temp\ccVU9Uhe.s 			page 9


 430:userMenuPatternSewingMachine01.c **** /// doTargetInfoMenu   ////////////////////////////////////////////////////////////////////////////
 431:userMenuPatternSewingMachine01.c **** ///////////////////////////////////////////////////////////////////////////////////////////////////
 432:userMenuPatternSewingMachine01.c **** void DisplayDoTargetInfoMenu(UP_DOWN_ONE_MENU *menu);
 433:userMenuPatternSewingMachine01.c **** void DisplayDoTargetInfoMenuSelectValue(UP_DOWN_ONE_MENU *menu, uint8 selectIncre, uint16 value);
 434:userMenuPatternSewingMachine01.c **** void DisplayDoTargetInfoMenuValueChange(UP_DOWN_ONE_MENU *menu, uint16 value);
 435:userMenuPatternSewingMachine01.c **** 
 436:userMenuPatternSewingMachine01.c **** int doTargetInfoMenu(void *this, uint8 reflash)
 437:userMenuPatternSewingMachine01.c **** {    
 438:userMenuPatternSewingMachine01.c ****     MENUNODE *thisMenu = (MENUNODE *) this;    
 439:userMenuPatternSewingMachine01.c ****     static UP_DOWN_ONE_MENU menu;    
 440:userMenuPatternSewingMachine01.c ****     static uint16 selectIncre = 0;
 441:userMenuPatternSewingMachine01.c ****     static uint16 value = 9999;
 442:userMenuPatternSewingMachine01.c **** 
 443:userMenuPatternSewingMachine01.c ****     switch(reflash)
 444:userMenuPatternSewingMachine01.c ****     {
 445:userMenuPatternSewingMachine01.c ****         case TRUE: // 화면이 바뀔때 실행
 446:userMenuPatternSewingMachine01.c ****             {
 447:userMenuPatternSewingMachine01.c ****                 switch(g_ptrMachineParameter->machineType)
 448:userMenuPatternSewingMachine01.c ****                 {
 449:userMenuPatternSewingMachine01.c ****                     case PATTERN_MACHINE: 
 450:userMenuPatternSewingMachine01.c ****                         value  = g_ptrMachineParameter->patternTarget;
 451:userMenuPatternSewingMachine01.c ****                         break;
 452:userMenuPatternSewingMachine01.c ****                     case SEWING_MACHINE:
 453:userMenuPatternSewingMachine01.c ****                         value  = g_ptrMachineParameter->sewingTarget;
 454:userMenuPatternSewingMachine01.c ****                         break;
 455:userMenuPatternSewingMachine01.c ****                     break;
 456:userMenuPatternSewingMachine01.c ****                 }                  
 457:userMenuPatternSewingMachine01.c ****                 DisplayDoTargetInfoMenu(&menu);
 458:userMenuPatternSewingMachine01.c ****                 DisplayDoTargetInfoMenuSelectValue(&menu, selectIncre, value);
 459:userMenuPatternSewingMachine01.c ****             }
 460:userMenuPatternSewingMachine01.c ****             break;  
 461:userMenuPatternSewingMachine01.c ****         
 462:userMenuPatternSewingMachine01.c ****         case FALSE: // Cliking Check
 463:userMenuPatternSewingMachine01.c ****             {
 464:userMenuPatternSewingMachine01.c **** 
 465:userMenuPatternSewingMachine01.c ****                 TOUCH tc = GetTouch();
 466:userMenuPatternSewingMachine01.c ****                 if(tc.isClick == FALSE) break;
 467:userMenuPatternSewingMachine01.c ****                 uint16 indexClick = getIndexOfClickedButton(&tc, menu.btn,8);
 468:userMenuPatternSewingMachine01.c ****                 switch(indexClick)
 469:userMenuPatternSewingMachine01.c ****                 {                  
 470:userMenuPatternSewingMachine01.c ****                     case 3: // for up
 471:userMenuPatternSewingMachine01.c ****                         if      (value+menu.inc[selectIncre] < 10000)
 472:userMenuPatternSewingMachine01.c ****                         {
 473:userMenuPatternSewingMachine01.c ****                             value+=menu.inc[selectIncre];
 474:userMenuPatternSewingMachine01.c ****                             DisplayDoTargetInfoMenuValueChange(&menu,value);
 475:userMenuPatternSewingMachine01.c ****                         }
 476:userMenuPatternSewingMachine01.c ****                         break;                       
 477:userMenuPatternSewingMachine01.c ****                     case 4: // for down
 478:userMenuPatternSewingMachine01.c ****                         if      (value-menu.inc[selectIncre] > 0)
 479:userMenuPatternSewingMachine01.c ****                         {
 480:userMenuPatternSewingMachine01.c ****                             value-=menu.inc[selectIncre];
 481:userMenuPatternSewingMachine01.c ****                             DisplayDoTargetInfoMenuValueChange(&menu,value);
 482:userMenuPatternSewingMachine01.c ****                         }
 483:userMenuPatternSewingMachine01.c ****                         break;               
 484:userMenuPatternSewingMachine01.c ****                         break;                        
 485:userMenuPatternSewingMachine01.c ****                     case 5:
 486:userMenuPatternSewingMachine01.c ****                         selectIncre = 0;
ARM GAS  C:\Users\theGu\AppData\Local\Temp\ccVU9Uhe.s 			page 10


 487:userMenuPatternSewingMachine01.c ****                         DisplayDoTargetInfoMenuSelectValue(&menu,selectIncre, value);
 488:userMenuPatternSewingMachine01.c ****                         break;
 489:userMenuPatternSewingMachine01.c ****                     case 6:
 490:userMenuPatternSewingMachine01.c ****                         selectIncre = 1;
 491:userMenuPatternSewingMachine01.c ****                         DisplayDoTargetInfoMenuSelectValue(&menu,selectIncre, value);
 492:userMenuPatternSewingMachine01.c ****                         break;
 493:userMenuPatternSewingMachine01.c ****                     case 7:
 494:userMenuPatternSewingMachine01.c ****                         selectIncre = 2;
 495:userMenuPatternSewingMachine01.c ****                         DisplayDoTargetInfoMenuSelectValue(&menu,selectIncre, value);
 496:userMenuPatternSewingMachine01.c ****                         break;                        
 497:userMenuPatternSewingMachine01.c ****                     default:
 498:userMenuPatternSewingMachine01.c ****                         switch(getIndexOfClickedButton(&tc,g_btnBottom,2))
 499:userMenuPatternSewingMachine01.c ****                         {
 500:userMenuPatternSewingMachine01.c ****                             case BOTTOM_LEFT:  return MENU_RETURN_PARENT;
 501:userMenuPatternSewingMachine01.c ****                             case BOTTOM_RIGHT: 
 502:userMenuPatternSewingMachine01.c ****                             {
 503:userMenuPatternSewingMachine01.c ****                                 switch(g_ptrMachineParameter->machineType)
 504:userMenuPatternSewingMachine01.c ****                                 {
 505:userMenuPatternSewingMachine01.c ****                                     case PATTERN_MACHINE: 
 506:userMenuPatternSewingMachine01.c ****                                         g_ptrMachineParameter->patternTarget = value;
 507:userMenuPatternSewingMachine01.c ****                                         break;
 508:userMenuPatternSewingMachine01.c ****                                     case SEWING_MACHINE:
 509:userMenuPatternSewingMachine01.c ****                                         g_ptrMachineParameter->sewingTarget = value;
 510:userMenuPatternSewingMachine01.c ****                                         break;
 511:userMenuPatternSewingMachine01.c ****                                     break;
 512:userMenuPatternSewingMachine01.c ****                                 }
 513:userMenuPatternSewingMachine01.c ****                                 ShowWaitMessage();
 514:userMenuPatternSewingMachine01.c ****                                 SaveExternalFlashConfig();
 515:userMenuPatternSewingMachine01.c ****                                 return MENU_RETURN_PARENT;                                
 516:userMenuPatternSewingMachine01.c ****                             }                            
 517:userMenuPatternSewingMachine01.c ****                         }
 518:userMenuPatternSewingMachine01.c ****                     break;
 519:userMenuPatternSewingMachine01.c ****                 }                                  
 520:userMenuPatternSewingMachine01.c ****             }
 521:userMenuPatternSewingMachine01.c ****             break;
 522:userMenuPatternSewingMachine01.c ****     }
 523:userMenuPatternSewingMachine01.c ****     return MENU_RETURN_THIS;    
 524:userMenuPatternSewingMachine01.c **** }
 525:userMenuPatternSewingMachine01.c **** 
 526:userMenuPatternSewingMachine01.c **** void DisplayDoTargetInfoMenu(UP_DOWN_ONE_MENU *menu)
 527:userMenuPatternSewingMachine01.c **** {
 528:userMenuPatternSewingMachine01.c ****     menu->inc[0] = 1;
 529:userMenuPatternSewingMachine01.c ****     menu->inc[1] = 10;
 530:userMenuPatternSewingMachine01.c ****     menu->inc[2] = 100;
 531:userMenuPatternSewingMachine01.c ****     
 532:userMenuPatternSewingMachine01.c ****     SetDrawUpDownOneMenu(menu, "Target", "Target info.");
 533:userMenuPatternSewingMachine01.c ****     
 534:userMenuPatternSewingMachine01.c ****     menu->btn[0].disable = TRUE; // for no click title
 535:userMenuPatternSewingMachine01.c ****     menu->btn[1].disable = TRUE; // for no click title
 536:userMenuPatternSewingMachine01.c ****     menu->btn[2].disable = TRUE; // for no click title
 537:userMenuPatternSewingMachine01.c ****     
 538:userMenuPatternSewingMachine01.c ****     SetDrawBottomButtons("QUIT", "SAVE", BUTTON_STYLE_R_GREEN, BUTTON_STYLE_R_BLUE);  
 539:userMenuPatternSewingMachine01.c **** }
 540:userMenuPatternSewingMachine01.c **** 
 541:userMenuPatternSewingMachine01.c **** void DisplayDoTargetInfoMenuSelectValue(UP_DOWN_ONE_MENU *menu, uint8 selectIncre, uint16 value)
 542:userMenuPatternSewingMachine01.c **** {
 543:userMenuPatternSewingMachine01.c ****     menu->btn[5].foregroundColor = ((selectIncre==0) ? ORANGE : DARKGREY);  // 1 incre
ARM GAS  C:\Users\theGu\AppData\Local\Temp\ccVU9Uhe.s 			page 11


 544:userMenuPatternSewingMachine01.c ****     menu->btn[6].foregroundColor = ((selectIncre==1) ? ORANGE : DARKGREY);  // 2 incre  
 545:userMenuPatternSewingMachine01.c ****     menu->btn[7].foregroundColor = ((selectIncre==2) ? ORANGE : DARKGREY);  // 3 incre  
 546:userMenuPatternSewingMachine01.c **** 
 547:userMenuPatternSewingMachine01.c ****     DrawButton(&menu->btn[5]);
 548:userMenuPatternSewingMachine01.c ****     DrawButton(&menu->btn[6]);
 549:userMenuPatternSewingMachine01.c ****     DrawButton(&menu->btn[7]);
 550:userMenuPatternSewingMachine01.c ****     
 551:userMenuPatternSewingMachine01.c ****     DisplayDoTargetInfoMenuValueChange(menu,value);    
 552:userMenuPatternSewingMachine01.c **** }
 553:userMenuPatternSewingMachine01.c **** void DisplayDoTargetInfoMenuValueChange(UP_DOWN_ONE_MENU *menu, uint16 value)
 554:userMenuPatternSewingMachine01.c **** {
 555:userMenuPatternSewingMachine01.c ****     SetButtonText(&menu->btn[2],"%d",value);
 556:userMenuPatternSewingMachine01.c ****     DrawButton(&menu->btn[2]);
 557:userMenuPatternSewingMachine01.c **** }
 558:userMenuPatternSewingMachine01.c **** 
 559:userMenuPatternSewingMachine01.c **** ///////////////////////////////////////////////////////////////////////////////////////////////////
 560:userMenuPatternSewingMachine01.c **** /// doActualInfoMenu   ////////////////////////////////////////////////////////////////////////////
 561:userMenuPatternSewingMachine01.c **** ///////////////////////////////////////////////////////////////////////////////////////////////////
 562:userMenuPatternSewingMachine01.c **** void DisplayDoActualInfoMenu(UP_DOWN_ONE_MENU *menu);
 563:userMenuPatternSewingMachine01.c **** void DisplayDoActualInfoMenuSelectValue(UP_DOWN_ONE_MENU *menu, uint8 selectIncre, uint16 value);
 564:userMenuPatternSewingMachine01.c **** void DisplayDoActualInfoMenuValueChange(UP_DOWN_ONE_MENU *menu, uint16 value);
 565:userMenuPatternSewingMachine01.c **** 
 566:userMenuPatternSewingMachine01.c **** int doActualInfoMenu(void *this, uint8 reflash)
 567:userMenuPatternSewingMachine01.c **** {    
 568:userMenuPatternSewingMachine01.c ****     MENUNODE *thisMenu = (MENUNODE *) this;    
 569:userMenuPatternSewingMachine01.c ****     static UP_DOWN_ONE_MENU menu;    
 570:userMenuPatternSewingMachine01.c ****     static uint16 selectIncre = 0;
 571:userMenuPatternSewingMachine01.c ****     static uint32 value = 0, tmp;
 572:userMenuPatternSewingMachine01.c **** 
 573:userMenuPatternSewingMachine01.c ****     switch(reflash)
 574:userMenuPatternSewingMachine01.c ****     {
 575:userMenuPatternSewingMachine01.c ****         case TRUE: // 화면이 바뀔때 실행
 576:userMenuPatternSewingMachine01.c ****             {
 577:userMenuPatternSewingMachine01.c ****                 switch(g_ptrMachineParameter->machineType)
 578:userMenuPatternSewingMachine01.c ****                 {
 579:userMenuPatternSewingMachine01.c ****                     case PATTERN_MACHINE: 
 580:userMenuPatternSewingMachine01.c ****                         value  = (uint32) CONVERT_TO_4BYTE(g_ptrCount->patternActualH, g_ptrCount->
 581:userMenuPatternSewingMachine01.c ****                         break;
 582:userMenuPatternSewingMachine01.c ****                     case SEWING_MACHINE:
 583:userMenuPatternSewingMachine01.c ****                         value  = (uint32) CONVERT_TO_4BYTE(g_ptrCount->sewingActualH, g_ptrCount->s
 584:userMenuPatternSewingMachine01.c ****                         break;
 585:userMenuPatternSewingMachine01.c ****                     break;
 586:userMenuPatternSewingMachine01.c ****                 }                  
 587:userMenuPatternSewingMachine01.c ****                 DisplayDoActualInfoMenu(&menu);
 588:userMenuPatternSewingMachine01.c ****                 DisplayDoTargetInfoMenuSelectValue(&menu, selectIncre, value);
 589:userMenuPatternSewingMachine01.c ****             }
 590:userMenuPatternSewingMachine01.c ****             break;  
 591:userMenuPatternSewingMachine01.c ****         
 592:userMenuPatternSewingMachine01.c ****         case FALSE: // Cliking Check
 593:userMenuPatternSewingMachine01.c ****             {
 594:userMenuPatternSewingMachine01.c **** 
 595:userMenuPatternSewingMachine01.c ****                 TOUCH tc = GetTouch();
 596:userMenuPatternSewingMachine01.c ****                 if(tc.isClick == FALSE) break;
 597:userMenuPatternSewingMachine01.c ****                 uint16 indexClick = getIndexOfClickedButton(&tc, menu.btn,8);
 598:userMenuPatternSewingMachine01.c ****                 switch(indexClick)
 599:userMenuPatternSewingMachine01.c ****                 {                  
 600:userMenuPatternSewingMachine01.c ****                     case 3: // for up
ARM GAS  C:\Users\theGu\AppData\Local\Temp\ccVU9Uhe.s 			page 12


 601:userMenuPatternSewingMachine01.c ****                         if      (value+menu.inc[selectIncre] < 10000)
 602:userMenuPatternSewingMachine01.c ****                         {
 603:userMenuPatternSewingMachine01.c ****                             value+=menu.inc[selectIncre];
 604:userMenuPatternSewingMachine01.c ****                             DisplayDoTargetInfoMenuValueChange(&menu,value);
 605:userMenuPatternSewingMachine01.c ****                         }
 606:userMenuPatternSewingMachine01.c ****                         break;                       
 607:userMenuPatternSewingMachine01.c ****                     case 4: // for down
 608:userMenuPatternSewingMachine01.c ****                         if      (value-menu.inc[selectIncre] > 0)
 609:userMenuPatternSewingMachine01.c ****                         {
 610:userMenuPatternSewingMachine01.c ****                             value-=menu.inc[selectIncre];
 611:userMenuPatternSewingMachine01.c ****                             DisplayDoTargetInfoMenuValueChange(&menu,value);
 612:userMenuPatternSewingMachine01.c ****                         }
 613:userMenuPatternSewingMachine01.c ****                         break;               
 614:userMenuPatternSewingMachine01.c ****                         break;                        
 615:userMenuPatternSewingMachine01.c ****                     case 5:
 616:userMenuPatternSewingMachine01.c ****                         selectIncre = 0;
 617:userMenuPatternSewingMachine01.c ****                         DisplayDoTargetInfoMenuSelectValue(&menu,selectIncre, value);
 618:userMenuPatternSewingMachine01.c ****                         break;
 619:userMenuPatternSewingMachine01.c ****                     case 6:
 620:userMenuPatternSewingMachine01.c ****                         selectIncre = 1;
 621:userMenuPatternSewingMachine01.c ****                         DisplayDoTargetInfoMenuSelectValue(&menu,selectIncre, value);
 622:userMenuPatternSewingMachine01.c ****                         break;
 623:userMenuPatternSewingMachine01.c ****                     case 7:
 624:userMenuPatternSewingMachine01.c ****                         selectIncre = 2;
 625:userMenuPatternSewingMachine01.c ****                         DisplayDoTargetInfoMenuSelectValue(&menu,selectIncre, value);
 626:userMenuPatternSewingMachine01.c ****                         break;                        
 627:userMenuPatternSewingMachine01.c ****                     default:
 628:userMenuPatternSewingMachine01.c ****                         switch(getIndexOfClickedButton(&tc,g_btnBottom,2))
 629:userMenuPatternSewingMachine01.c ****                         {
 630:userMenuPatternSewingMachine01.c ****                             case BOTTOM_LEFT:  return MENU_RETURN_PARENT;
 631:userMenuPatternSewingMachine01.c ****                             case BOTTOM_RIGHT: 
 632:userMenuPatternSewingMachine01.c ****                             {
 633:userMenuPatternSewingMachine01.c ****                                 switch(g_ptrMachineParameter->machineType)
 634:userMenuPatternSewingMachine01.c ****                                 {
 635:userMenuPatternSewingMachine01.c ****                                     case PATTERN_MACHINE: 
 636:userMenuPatternSewingMachine01.c ****                                         tmp = (uint32) CONVERT_TO_4BYTE(g_ptrCount->patternActualH,
 637:userMenuPatternSewingMachine01.c ****                                         g_ptrCount->patternActualH = CONVERT_TO_HIGH(value*10);
 638:userMenuPatternSewingMachine01.c ****                                         g_ptrCount->patternActualL = CONVERT_TO_LOW(value*10);
 639:userMenuPatternSewingMachine01.c ****                                         break;
 640:userMenuPatternSewingMachine01.c ****                                     case SEWING_MACHINE:
 641:userMenuPatternSewingMachine01.c ****                                         tmp = (uint32) CONVERT_TO_4BYTE(g_ptrCount->sewingActualH, 
 642:userMenuPatternSewingMachine01.c ****                                         g_ptrCount->sewingActualH = CONVERT_TO_HIGH(value*10);
 643:userMenuPatternSewingMachine01.c ****                                         g_ptrCount->sewingActualL = CONVERT_TO_LOW(value*10);
 644:userMenuPatternSewingMachine01.c ****                                         break;
 645:userMenuPatternSewingMachine01.c ****                                     break;
 646:userMenuPatternSewingMachine01.c ****                                 }
 647:userMenuPatternSewingMachine01.c ****                             //    printf("%lu",(uint32) CONVERT_TO_4BYTE(g_ptrCount->patternActualH
 648:userMenuPatternSewingMachine01.c ****                                 SaveInternalFlash();
 649:userMenuPatternSewingMachine01.c ****                                 return MENU_RETURN_PARENT;                                
 650:userMenuPatternSewingMachine01.c ****                             }                            
 651:userMenuPatternSewingMachine01.c ****                         }
 652:userMenuPatternSewingMachine01.c ****                     break;
 653:userMenuPatternSewingMachine01.c ****                 }                                  
 654:userMenuPatternSewingMachine01.c ****             }
 655:userMenuPatternSewingMachine01.c ****             break;
 656:userMenuPatternSewingMachine01.c ****     }
 657:userMenuPatternSewingMachine01.c ****     return MENU_RETURN_THIS;    
ARM GAS  C:\Users\theGu\AppData\Local\Temp\ccVU9Uhe.s 			page 13


 658:userMenuPatternSewingMachine01.c **** }
 659:userMenuPatternSewingMachine01.c **** 
 660:userMenuPatternSewingMachine01.c **** void DisplayDoActualInfoMenu(UP_DOWN_ONE_MENU *menu)
 661:userMenuPatternSewingMachine01.c **** {
 662:userMenuPatternSewingMachine01.c ****     menu->inc[0] = 1;
 663:userMenuPatternSewingMachine01.c ****     menu->inc[1] = 10;
 664:userMenuPatternSewingMachine01.c ****     menu->inc[2] = 100;
 665:userMenuPatternSewingMachine01.c ****     
 666:userMenuPatternSewingMachine01.c ****     SetDrawUpDownOneMenu(menu, "Actual", "Actual info.");
 667:userMenuPatternSewingMachine01.c ****     
 668:userMenuPatternSewingMachine01.c ****     menu->btn[0].disable = TRUE; // for no click title
 669:userMenuPatternSewingMachine01.c ****     menu->btn[1].disable = TRUE; // for no click title
 670:userMenuPatternSewingMachine01.c ****     menu->btn[2].disable = TRUE; // for no click title
 671:userMenuPatternSewingMachine01.c ****     
 672:userMenuPatternSewingMachine01.c ****     SetDrawBottomButtons("QUIT", "SAVE", BUTTON_STYLE_R_GREEN, BUTTON_STYLE_R_BLUE);  
 673:userMenuPatternSewingMachine01.c **** }
 674:userMenuPatternSewingMachine01.c **** 
 675:userMenuPatternSewingMachine01.c **** /////////////////////////////////////////////////////////////////////////////////////////////////
 676:userMenuPatternSewingMachine01.c **** int doMachine(void *this, uint8 reflash) //////////////////////////////////////////////////////////
 677:userMenuPatternSewingMachine01.c **** /////////////////////////////////////////////////////////////////////////////////////////////////
 678:userMenuPatternSewingMachine01.c **** {    
  28              		.loc 1 678 0
  29              		.cfi_startproc
  30              		@ args = 0, pretend = 0, frame = 8
  31              		@ frame_needed = 0, uses_anonymous_args = 0
  32              	.LVL0:
  33 0000 30B5     		push	{r4, r5, lr}
  34              		.cfi_def_cfa_offset 12
  35              		.cfi_offset 4, -12
  36              		.cfi_offset 5, -8
  37              		.cfi_offset 14, -4
  38 0002 83B0     		sub	sp, sp, #12
  39              		.cfi_def_cfa_offset 24
  40 0004 0400     		movs	r4, r0
  41              	.LVL1:
 679:userMenuPatternSewingMachine01.c ****     MENUNODE *thisMenu = (MENUNODE *) this;    
 680:userMenuPatternSewingMachine01.c ****     static LIST_MENU menu;
 681:userMenuPatternSewingMachine01.c ****     static char *listText[] = {"PATTERN", "SEWING"};
 682:userMenuPatternSewingMachine01.c ****     static uint16 indexSelect;
 683:userMenuPatternSewingMachine01.c ****     static uint16 displayDir;
 684:userMenuPatternSewingMachine01.c ****     uint8 bUpdate = FALSE;
 685:userMenuPatternSewingMachine01.c ****     switch(reflash)
  42              		.loc 1 685 0
  43 0006 0029     		cmp	r1, #0
  44 0008 0ED0     		beq	.L3
  45 000a 0129     		cmp	r1, #1
  46 000c 6BD1     		bne	.L23
 686:userMenuPatternSewingMachine01.c ****     {
 687:userMenuPatternSewingMachine01.c ****         case TRUE: // 화면이 바뀔때 실행
 688:userMenuPatternSewingMachine01.c ****             {
 689:userMenuPatternSewingMachine01.c ****                 indexSelect = g_ptrMachineParameter->machineType;
  47              		.loc 1 689 0
  48 000e 434B     		ldr	r3, .L26
  49 0010 1B68     		ldr	r3, [r3]
  50 0012 1B78     		ldrb	r3, [r3]
  51 0014 424D     		ldr	r5, .L26+4
  52 0016 2B80     		strh	r3, [r5]
ARM GAS  C:\Users\theGu\AppData\Local\Temp\ccVU9Uhe.s 			page 14


 690:userMenuPatternSewingMachine01.c ****                 displayDir  = getMiscConfig()->bDisplayDir;  
  53              		.loc 1 690 0
  54 0018 FFF7FEFF 		bl	getMiscConfig
  55              	.LVL2:
 691:userMenuPatternSewingMachine01.c ****                 menu.curPage = 0;
  56              		.loc 1 691 0
  57 001c 0022     		movs	r2, #0
  58 001e DB23     		movs	r3, #219
  59 0020 9B00     		lsls	r3, r3, #2
  60 0022 EA52     		strh	r2, [r5, r3]
  61              	.LVL3:
 692:userMenuPatternSewingMachine01.c ****                 bUpdate = TRUE;
  62              		.loc 1 692 0
  63 0024 0123     		movs	r3, #1
 693:userMenuPatternSewingMachine01.c ****             }
 694:userMenuPatternSewingMachine01.c ****             break;  
  64              		.loc 1 694 0
  65 0026 5FE0     		b	.L2
  66              	.LVL4:
  67              	.L3:
  68              	.LBB2:
 695:userMenuPatternSewingMachine01.c ****         
 696:userMenuPatternSewingMachine01.c ****         case FALSE: // Cliking Check
 697:userMenuPatternSewingMachine01.c ****             {
 698:userMenuPatternSewingMachine01.c ****                 TOUCH tc = GetTouch();
  69              		.loc 1 698 0
  70 0028 6846     		mov	r0, sp
  71              	.LVL5:
  72 002a FFF7FEFF 		bl	GetTouch
  73              	.LVL6:
 699:userMenuPatternSewingMachine01.c ****                 if(tc.isClick == FALSE) break;
  74              		.loc 1 699 0
  75 002e 6B46     		mov	r3, sp
  76 0030 1B88     		ldrh	r3, [r3]
  77 0032 002B     		cmp	r3, #0
  78 0034 52D0     		beq	.L5
 700:userMenuPatternSewingMachine01.c ****                 
 701:userMenuPatternSewingMachine01.c ****                 uint16 idx = getIndexOfClickedListMenu(&tc, &menu);
  79              		.loc 1 701 0
  80 0036 3A49     		ldr	r1, .L26+4
  81 0038 0431     		adds	r1, r1, #4
  82 003a 6846     		mov	r0, sp
  83 003c FFF7FEFF 		bl	getIndexOfClickedListMenu
  84              	.LVL7:
 702:userMenuPatternSewingMachine01.c **** 
 703:userMenuPatternSewingMachine01.c ****                 switch(idx)
  85              		.loc 1 703 0
  86 0040 0128     		cmp	r0, #1
  87 0042 3FD0     		beq	.L7
  88 0044 0028     		cmp	r0, #0
  89 0046 35D0     		beq	.L8
  90 0048 FF28     		cmp	r0, #255
  91 004a 43D1     		bne	.L24
 704:userMenuPatternSewingMachine01.c ****                 {
 705:userMenuPatternSewingMachine01.c ****                     case NO_CLICK :
 706:userMenuPatternSewingMachine01.c ****                         {
 707:userMenuPatternSewingMachine01.c ****                             switch(getIndexOfClickedButton(&tc,g_btnBottom,2))
ARM GAS  C:\Users\theGu\AppData\Local\Temp\ccVU9Uhe.s 			page 15


  92              		.loc 1 707 0
  93 004c 0222     		movs	r2, #2
  94 004e 3549     		ldr	r1, .L26+8
  95 0050 6846     		mov	r0, sp
  96              	.LVL8:
  97 0052 FFF7FEFF 		bl	getIndexOfClickedButton
  98              	.LVL9:
  99 0056 0028     		cmp	r0, #0
 100 0058 02D0     		beq	.L10
 101 005a 0128     		cmp	r0, #1
 102 005c 10D0     		beq	.L11
 103 005e 3BE0     		b	.L25
 104              	.L10:
 708:userMenuPatternSewingMachine01.c ****                             {
 709:userMenuPatternSewingMachine01.c ****                                 case BOTTOM_LEFT:
 710:userMenuPatternSewingMachine01.c ****                                     switch(g_ptrMachineParameter->machineType)
 105              		.loc 1 710 0
 106 0060 2E4B     		ldr	r3, .L26
 107 0062 1B68     		ldr	r3, [r3]
 108 0064 1B78     		ldrb	r3, [r3]
 109 0066 002B     		cmp	r3, #0
 110 0068 02D0     		beq	.L13
 111 006a 012B     		cmp	r3, #1
 112 006c 04D0     		beq	.L14
 113 006e 37E0     		b	.L12
 114              	.L13:
 711:userMenuPatternSewingMachine01.c ****                                     {
 712:userMenuPatternSewingMachine01.c ****                                         case 0: setDisplayDirection(DISPLAY_DIRECTION_PORTRAIT);  b
 115              		.loc 1 712 0
 116 0070 0020     		movs	r0, #0
 117 0072 FFF7FEFF 		bl	setDisplayDirection
 118              	.LVL10:
 119 0076 33E0     		b	.L12
 120              	.L14:
 713:userMenuPatternSewingMachine01.c ****                                         case 1: setDisplayDirection(DISPLAY_DIRECTION_LANDSCAPE); b
 121              		.loc 1 713 0
 122 0078 0120     		movs	r0, #1
 123 007a FFF7FEFF 		bl	setDisplayDirection
 124              	.LVL11:
 125 007e 2FE0     		b	.L12
 126              	.L11:
 714:userMenuPatternSewingMachine01.c ****                                     }                                                              
 715:userMenuPatternSewingMachine01.c ****                                     return MENU_RETURN_PARENT;
 716:userMenuPatternSewingMachine01.c ****                                 case BOTTOM_RIGHT: 
 717:userMenuPatternSewingMachine01.c ****                                 {
 718:userMenuPatternSewingMachine01.c ****                                     g_ptrMachineParameter->machineType = indexSelect;
 127              		.loc 1 718 0
 128 0080 264B     		ldr	r3, .L26
 129 0082 274A     		ldr	r2, .L26+4
 130 0084 1288     		ldrh	r2, [r2]
 131 0086 1968     		ldr	r1, [r3]
 132 0088 0A70     		strb	r2, [r1]
 719:userMenuPatternSewingMachine01.c ****                                     switch(g_ptrMachineParameter->machineType)
 133              		.loc 1 719 0
 134 008a 1B68     		ldr	r3, [r3]
 135 008c 1B78     		ldrb	r3, [r3]
 136 008e 002B     		cmp	r3, #0
ARM GAS  C:\Users\theGu\AppData\Local\Temp\ccVU9Uhe.s 			page 16


 137 0090 02D0     		beq	.L16
 138 0092 012B     		cmp	r3, #1
 139 0094 04D0     		beq	.L17
 140 0096 06E0     		b	.L15
 141              	.L16:
 720:userMenuPatternSewingMachine01.c ****                                     {
 721:userMenuPatternSewingMachine01.c ****                                         case 0: setDisplayDirection(DISPLAY_DIRECTION_PORTRAIT);  b
 142              		.loc 1 721 0
 143 0098 0020     		movs	r0, #0
 144 009a FFF7FEFF 		bl	setDisplayDirection
 145              	.LVL12:
 146 009e 02E0     		b	.L15
 147              	.L17:
 722:userMenuPatternSewingMachine01.c ****                                         case 1: setDisplayDirection(DISPLAY_DIRECTION_LANDSCAPE); b
 148              		.loc 1 722 0
 149 00a0 0120     		movs	r0, #1
 150 00a2 FFF7FEFF 		bl	setDisplayDirection
 151              	.LVL13:
 152              	.L15:
 723:userMenuPatternSewingMachine01.c ****                                     }  
 724:userMenuPatternSewingMachine01.c ****                                     
 725:userMenuPatternSewingMachine01.c ****                                     SetCountLoop();
 153              		.loc 1 725 0
 154 00a6 FFF7FEFF 		bl	SetCountLoop
 155              	.LVL14:
 726:userMenuPatternSewingMachine01.c ****                                     ShowWaitMessage();                                    
 156              		.loc 1 726 0
 157 00aa FFF7FEFF 		bl	ShowWaitMessage
 158              	.LVL15:
 727:userMenuPatternSewingMachine01.c ****                                     SaveExternalFlashConfig();
 159              		.loc 1 727 0
 160 00ae FFF7FEFF 		bl	SaveExternalFlashConfig
 161              	.LVL16:
 728:userMenuPatternSewingMachine01.c ****                                     return MENU_RETURN_PARENT;                                
 162              		.loc 1 728 0
 163 00b2 15E0     		b	.L12
 164              	.LVL17:
 165              	.L8:
 729:userMenuPatternSewingMachine01.c ****                                 }                            
 730:userMenuPatternSewingMachine01.c ****                             }
 731:userMenuPatternSewingMachine01.c ****                             break;
 732:userMenuPatternSewingMachine01.c ****                         }
 733:userMenuPatternSewingMachine01.c ****                     case 0:
 734:userMenuPatternSewingMachine01.c ****                         indexSelect = 0;
 166              		.loc 1 734 0
 167 00b4 0022     		movs	r2, #0
 168 00b6 1A4B     		ldr	r3, .L26+4
 169 00b8 1A80     		strh	r2, [r3]
 735:userMenuPatternSewingMachine01.c ****                         setDisplayDirection(DISPLAY_DIRECTION_PORTRAIT);
 170              		.loc 1 735 0
 171 00ba 0020     		movs	r0, #0
 172              	.LVL18:
 173 00bc FFF7FEFF 		bl	setDisplayDirection
 174              	.LVL19:
 736:userMenuPatternSewingMachine01.c ****                         bUpdate = TRUE;
 175              		.loc 1 736 0
 176 00c0 0123     		movs	r3, #1
ARM GAS  C:\Users\theGu\AppData\Local\Temp\ccVU9Uhe.s 			page 17


 737:userMenuPatternSewingMachine01.c ****                         break;
 177              		.loc 1 737 0
 178 00c2 11E0     		b	.L2
 179              	.LVL20:
 180              	.L7:
 738:userMenuPatternSewingMachine01.c ****                     case 1:
 739:userMenuPatternSewingMachine01.c ****                         indexSelect = 1;
 181              		.loc 1 739 0
 182 00c4 0122     		movs	r2, #1
 183 00c6 164B     		ldr	r3, .L26+4
 184 00c8 1A80     		strh	r2, [r3]
 740:userMenuPatternSewingMachine01.c ****                         setDisplayDirection(DISPLAY_DIRECTION_LANDSCAPE);                        
 185              		.loc 1 740 0
 186 00ca 0120     		movs	r0, #1
 187              	.LVL21:
 188 00cc FFF7FEFF 		bl	setDisplayDirection
 189              	.LVL22:
 741:userMenuPatternSewingMachine01.c ****                         bUpdate = TRUE;                     
 190              		.loc 1 741 0
 191 00d0 0123     		movs	r3, #1
 742:userMenuPatternSewingMachine01.c ****                         break;
 192              		.loc 1 742 0
 193 00d2 09E0     		b	.L2
 194              	.LVL23:
 195              	.L24:
 196              	.LBE2:
 684:userMenuPatternSewingMachine01.c ****     switch(reflash)
 197              		.loc 1 684 0
 198 00d4 0023     		movs	r3, #0
 199 00d6 07E0     		b	.L2
 200              	.LVL24:
 201              	.L25:
 202 00d8 0023     		movs	r3, #0
 743:userMenuPatternSewingMachine01.c ****                 }                
 744:userMenuPatternSewingMachine01.c ****             }
 745:userMenuPatternSewingMachine01.c ****             break;
 203              		.loc 1 745 0
 204 00da 05E0     		b	.L2
 205              	.L5:
 684:userMenuPatternSewingMachine01.c ****     switch(reflash)
 206              		.loc 1 684 0
 207 00dc 0023     		movs	r3, #0
 208 00de 03E0     		b	.L2
 209              	.L12:
 210              	.LBB3:
 715:userMenuPatternSewingMachine01.c ****                                 case BOTTOM_RIGHT: 
 211              		.loc 1 715 0 discriminator 1
 212 00e0 8020     		movs	r0, #128
 213 00e2 0006     		lsls	r0, r0, #24
 214 00e4 18E0     		b	.L18
 215              	.LVL25:
 216              	.L23:
 217              	.LBE3:
 684:userMenuPatternSewingMachine01.c ****     switch(reflash)
 218              		.loc 1 684 0
 219 00e6 0023     		movs	r3, #0
 220              	.LVL26:
ARM GAS  C:\Users\theGu\AppData\Local\Temp\ccVU9Uhe.s 			page 18


 221              	.L2:
 746:userMenuPatternSewingMachine01.c ****     }
 747:userMenuPatternSewingMachine01.c ****     if(bUpdate)
 222              		.loc 1 747 0
 223 00e8 002B     		cmp	r3, #0
 224 00ea 14D0     		beq	.L22
 748:userMenuPatternSewingMachine01.c ****     {
 749:userMenuPatternSewingMachine01.c ****         SetDrawListButtons(&menu,thisMenu->nodeName,listText,2);                    
 225              		.loc 1 749 0
 226 00ec 2100     		movs	r1, r4
 227 00ee 1031     		adds	r1, r1, #16
 228 00f0 0B4D     		ldr	r5, .L26+4
 229 00f2 2C1D     		adds	r4, r5, #4
 230              	.LVL27:
 231 00f4 0223     		movs	r3, #2
 232              	.LVL28:
 233 00f6 0C4A     		ldr	r2, .L26+12
 234 00f8 2000     		movs	r0, r4
 235 00fa FFF7FEFF 		bl	SetDrawListButtons
 236              	.LVL29:
 750:userMenuPatternSewingMachine01.c ****         UpdateDrawListButtons(&menu,indexSelect);
 237              		.loc 1 750 0
 238 00fe 2988     		ldrh	r1, [r5]
 239 0100 2000     		movs	r0, r4
 240 0102 FFF7FEFF 		bl	UpdateDrawListButtons
 241              	.LVL30:
 751:userMenuPatternSewingMachine01.c ****         SetDrawBottomButtons("QUIT", "SAVE", BUTTON_STYLE_R_GREEN, BUTTON_STYLE_R_BLUE);  
 242              		.loc 1 751 0
 243 0106 1223     		movs	r3, #18
 244 0108 1122     		movs	r2, #17
 245 010a 0849     		ldr	r1, .L26+16
 246 010c 0848     		ldr	r0, .L26+20
 247 010e FFF7FEFF 		bl	SetDrawBottomButtons
 248              	.LVL31:
 752:userMenuPatternSewingMachine01.c ****         bUpdate = FALSE;
 753:userMenuPatternSewingMachine01.c ****     }
 754:userMenuPatternSewingMachine01.c ****     return MENU_RETURN_THIS;    
 249              		.loc 1 754 0
 250 0112 0848     		ldr	r0, .L26+24
 251 0114 00E0     		b	.L18
 252              	.LVL32:
 253              	.L22:
 254 0116 0748     		ldr	r0, .L26+24
 255              	.LVL33:
 256              	.L18:
 755:userMenuPatternSewingMachine01.c **** }
 257              		.loc 1 755 0
 258 0118 03B0     		add	sp, sp, #12
 259              		@ sp needed
 260 011a 30BD     		pop	{r4, r5, pc}
 261              	.L27:
 262              		.align	2
 263              	.L26:
 264 011c 00000000 		.word	g_ptrMachineParameter
 265 0120 00000000 		.word	.LANCHOR0
 266 0124 00000000 		.word	g_btnBottom
 267 0128 00000000 		.word	.LANCHOR1
ARM GAS  C:\Users\theGu\AppData\Local\Temp\ccVU9Uhe.s 			page 19


 268 012c 00000000 		.word	.LC4
 269 0130 08000000 		.word	.LC6
 270 0134 01000080 		.word	-2147483647
 271              		.cfi_endproc
 272              	.LFE76:
 273              		.size	doMachine, .-doMachine
 274              		.global	__aeabi_i2d
 275              		.global	__aeabi_ddiv
 276              		.section	.text.DisplayDoTopMenu,"ax",%progbits
 277              		.align	2
 278              		.global	DisplayDoTopMenu
 279              		.code	16
 280              		.thumb_func
 281              		.type	DisplayDoTopMenu, %function
 282              	DisplayDoTopMenu:
 283              	.LFB63:
 194:userMenuPatternSewingMachine01.c ****     switch(g_ptrMachineParameter->machineType)
 284              		.loc 1 194 0
 285              		.cfi_startproc
 286              		@ args = 0, pretend = 0, frame = 0
 287              		@ frame_needed = 0, uses_anonymous_args = 0
 288              	.LVL34:
 289 0000 30B5     		push	{r4, r5, lr}
 290              		.cfi_def_cfa_offset 12
 291              		.cfi_offset 4, -12
 292              		.cfi_offset 5, -8
 293              		.cfi_offset 14, -4
 294 0002 83B0     		sub	sp, sp, #12
 295              		.cfi_def_cfa_offset 24
 296 0004 0400     		movs	r4, r0
 195:userMenuPatternSewingMachine01.c ****     {
 297              		.loc 1 195 0
 298 0006 174B     		ldr	r3, .L32
 299 0008 1B68     		ldr	r3, [r3]
 300 000a 1A78     		ldrb	r2, [r3]
 301 000c 002A     		cmp	r2, #0
 302 000e 02D0     		beq	.L30
 303 0010 012A     		cmp	r2, #1
 304 0012 10D0     		beq	.L31
 305 0014 1EE0     		b	.L29
 306              	.L30:
 198:userMenuPatternSewingMachine01.c ****             break;
 307              		.loc 1 198 0
 308 0016 9D88     		ldrh	r5, [r3, #4]
 309 0018 D888     		ldrh	r0, [r3, #6]
 310              	.LVL35:
 197:userMenuPatternSewingMachine01.c ****             g_ptrMachineParameter->patternPairCount, g_ptrMachineParameter->patternPair/10.);
 311              		.loc 1 197 0
 312 001a FFF7FEFF 		bl	__aeabi_i2d
 313              	.LVL36:
 314 001e 0022     		movs	r2, #0
 315 0020 114B     		ldr	r3, .L32+4
 316 0022 FFF7FEFF 		bl	__aeabi_ddiv
 317              	.LVL37:
 318 0026 0090     		str	r0, [sp]
 319 0028 0191     		str	r1, [sp, #4]
 320 002a 2A00     		movs	r2, r5
ARM GAS  C:\Users\theGu\AppData\Local\Temp\ccVU9Uhe.s 			page 20


 321 002c 0F49     		ldr	r1, .L32+8
 322 002e 2000     		movs	r0, r4
 323 0030 FFF7FEFF 		bl	SetDrawMonitoringMenu
 324              	.LVL38:
 199:userMenuPatternSewingMachine01.c ****         case SEWING_MACHINE:  SetDrawMonitoringMenu(menu, "%d : %3.1f-Pair",
 325              		.loc 1 199 0
 326 0034 0EE0     		b	.L29
 327              	.LVL39:
 328              	.L31:
 201:userMenuPatternSewingMachine01.c ****         break;
 329              		.loc 1 201 0
 330 0036 5D89     		ldrh	r5, [r3, #10]
 331 0038 9889     		ldrh	r0, [r3, #12]
 332              	.LVL40:
 200:userMenuPatternSewingMachine01.c ****             g_ptrMachineParameter->sewingPairTrim, g_ptrMachineParameter->sewingPair/10.);
 333              		.loc 1 200 0
 334 003a FFF7FEFF 		bl	__aeabi_i2d
 335              	.LVL41:
 336 003e 0022     		movs	r2, #0
 337 0040 094B     		ldr	r3, .L32+4
 338 0042 FFF7FEFF 		bl	__aeabi_ddiv
 339              	.LVL42:
 340 0046 0090     		str	r0, [sp]
 341 0048 0191     		str	r1, [sp, #4]
 342 004a 2A00     		movs	r2, r5
 343 004c 0749     		ldr	r1, .L32+8
 344 004e 2000     		movs	r0, r4
 345 0050 FFF7FEFF 		bl	SetDrawMonitoringMenu
 346              	.LVL43:
 347              	.L29:
 204:userMenuPatternSewingMachine01.c **** }
 348              		.loc 1 204 0
 349 0054 1223     		movs	r3, #18
 350 0056 1122     		movs	r2, #17
 351 0058 0549     		ldr	r1, .L32+12
 352 005a 0648     		ldr	r0, .L32+16
 353 005c FFF7FEFF 		bl	SetDrawBottomButtons
 354              	.LVL44:
 205:userMenuPatternSewingMachine01.c **** 
 355              		.loc 1 205 0
 356 0060 03B0     		add	sp, sp, #12
 357              		@ sp needed
 358              	.LVL45:
 359 0062 30BD     		pop	{r4, r5, pc}
 360              	.L33:
 361              		.align	2
 362              	.L32:
 363 0064 00000000 		.word	g_ptrMachineParameter
 364 0068 00002440 		.word	1076101120
 365 006c 10000000 		.word	.LC10
 366 0070 20000000 		.word	.LC12
 367 0074 28000000 		.word	.LC14
 368              		.cfi_endproc
 369              	.LFE63:
 370              		.size	DisplayDoTopMenu, .-DisplayDoTopMenu
 371              		.global	__aeabi_ui2f
 372              		.global	__aeabi_fdiv
ARM GAS  C:\Users\theGu\AppData\Local\Temp\ccVU9Uhe.s 			page 21


 373              		.global	__aeabi_f2d
 374              		.global	__aeabi_d2f
 375              		.global	__aeabi_uidiv
 376              		.global	__aeabi_ui2d
 377              		.global	__aeabi_dmul
 378              		.global	__aeabi_dsub
 379              		.global	__aeabi_d2uiz
 380              		.section	.text.TopMenuPageUpdateValue,"ax",%progbits
 381              		.align	2
 382              		.global	TopMenuPageUpdateValue
 383              		.code	16
 384              		.thumb_func
 385              		.type	TopMenuPageUpdateValue, %function
 386              	TopMenuPageUpdateValue:
 387              	.LFB64:
 208:userMenuPatternSewingMachine01.c ****     BUTTON *btn;
 388              		.loc 1 208 0
 389              		.cfi_startproc
 390              		@ args = 0, pretend = 0, frame = 8
 391              		@ frame_needed = 0, uses_anonymous_args = 0
 392              	.LVL46:
 393 0000 F0B5     		push	{r4, r5, r6, r7, lr}
 394              		.cfi_def_cfa_offset 20
 395              		.cfi_offset 4, -20
 396              		.cfi_offset 5, -16
 397              		.cfi_offset 6, -12
 398              		.cfi_offset 7, -8
 399              		.cfi_offset 14, -4
 400 0002 85B0     		sub	sp, sp, #20
 401              		.cfi_def_cfa_offset 40
 402 0004 0400     		movs	r4, r0
 403 0006 0F00     		movs	r7, r1
 404              	.LVL47:
 213:userMenuPatternSewingMachine01.c ****        (uint32) CONVERT_TO_4BYTE(g_ptrCount->patternStitchLengthSumH,g_ptrCount->patternStitchLengt
 405              		.loc 1 213 0
 406 0008 B94B     		ldr	r3, .L53
 407 000a 1E68     		ldr	r6, [r3]
 408 000c 358F     		ldrh	r5, [r6, #56]
 409 000e 2D04     		lsls	r5, r5, #16
 410 0010 738F     		ldrh	r3, [r6, #58]
 411 0012 1D43     		orrs	r5, r3
 412 0014 1BD0     		beq	.L45
 214:userMenuPatternSewingMachine01.c ****     {
 413              		.loc 1 214 0 discriminator 1
 414 0016 F08F     		ldrh	r0, [r6, #62]
 415              	.LVL48:
 416 0018 0004     		lsls	r0, r0, #16
 417 001a 4023     		movs	r3, #64
 418 001c F35A     		ldrh	r3, [r6, r3]
 419 001e 1843     		orrs	r0, r3
 213:userMenuPatternSewingMachine01.c ****        (uint32) CONVERT_TO_4BYTE(g_ptrCount->patternStitchLengthSumH,g_ptrCount->patternStitchLengt
 420              		.loc 1 213 0 discriminator 1
 421 0020 18D0     		beq	.L46
 216:userMenuPatternSewingMachine01.c ****                       ((float) ((uint32) CONVERT_TO_4BYTE(g_ptrCount->patternNoStitchSumH,g_ptrCoun
 422              		.loc 1 216 0
 423 0022 FFF7FEFF 		bl	__aeabi_ui2f
 424              	.LVL49:
ARM GAS  C:\Users\theGu\AppData\Local\Temp\ccVU9Uhe.s 			page 22


 425 0026 0390     		str	r0, [sp, #12]
 217:userMenuPatternSewingMachine01.c ****         
 426              		.loc 1 217 0
 427 0028 2800     		movs	r0, r5
 428 002a FFF7FEFF 		bl	__aeabi_ui2f
 429              	.LVL50:
 430 002e 011C     		adds	r1, r0, #0
 216:userMenuPatternSewingMachine01.c ****                       ((float) ((uint32) CONVERT_TO_4BYTE(g_ptrCount->patternNoStitchSumH,g_ptrCoun
 431              		.loc 1 216 0
 432 0030 0398     		ldr	r0, [sp, #12]
 433 0032 FFF7FEFF 		bl	__aeabi_fdiv
 434              	.LVL51:
 435 0036 FFF7FEFF 		bl	__aeabi_f2d
 436              	.LVL52:
 437 003a 0200     		movs	r2, r0
 438 003c 0B00     		movs	r3, r1
 439 003e AD48     		ldr	r0, .L53+4
 440 0040 AD49     		ldr	r1, .L53+8
 441 0042 FFF7FEFF 		bl	__aeabi_ddiv
 442              	.LVL53:
 443 0046 FFF7FEFF 		bl	__aeabi_d2f
 444              	.LVL54:
 445 004a 0390     		str	r0, [sp, #12]
 446              	.LVL55:
 447 004c 04E0     		b	.L35
 448              	.LVL56:
 449              	.L45:
 212:userMenuPatternSewingMachine01.c ****     if((uint32) CONVERT_TO_4BYTE(g_ptrCount->patternNoStitchSumH,g_ptrCount->patternNoStitchSumL) >
 450              		.loc 1 212 0
 451 004e 0023     		movs	r3, #0
 452 0050 0393     		str	r3, [sp, #12]
 453 0052 01E0     		b	.L35
 454              	.LVL57:
 455              	.L46:
 456 0054 0023     		movs	r3, #0
 457 0056 0393     		str	r3, [sp, #12]
 458              	.LVL58:
 459              	.L35:
 223:userMenuPatternSewingMachine01.c ****     {
 460              		.loc 1 223 0
 461 0058 A84B     		ldr	r3, .L53+12
 462 005a 1A68     		ldr	r2, [r3]
 463 005c 1378     		ldrb	r3, [r2]
 464 005e 002B     		cmp	r3, #0
 465 0060 03D0     		beq	.L37
 466 0062 012B     		cmp	r3, #1
 467 0064 00D1     		bne	.LCB453
 468 0066 ADE0     		b	.L38	@long jump
 469              	.LCB453:
 470 0068 0CE1     		b	.L50
 471              	.L37:
 227:userMenuPatternSewingMachine01.c ****             {
 472              		.loc 1 227 0
 473 006a 012F     		cmp	r7, #1
 474 006c 3ED0     		beq	.L39
 475 006e 002F     		cmp	r7, #0
 476 0070 03D0     		beq	.L40
ARM GAS  C:\Users\theGu\AppData\Local\Temp\ccVU9Uhe.s 			page 23


 477 0072 022F     		cmp	r7, #2
 478 0074 00D1     		bne	.LCB463
 479 0076 84E0     		b	.L41	@long jump
 480              	.LCB463:
 481 0078 06E1     		b	.L51
 482              	.L40:
 230:userMenuPatternSewingMachine01.c ****                     SetButtonText(&menu->btn[4],"%lu",   ((uint32) CONVERT_TO_4BYTE(g_ptrCount->pat
 483              		.loc 1 230 0
 484 007a 5288     		ldrh	r2, [r2, #2]
 485 007c 2000     		movs	r0, r4
 486 007e 8030     		adds	r0, r0, #128
 487 0080 9F49     		ldr	r1, .L53+16
 488 0082 FFF7FEFF 		bl	SetButtonText
 489              	.LVL59:
 231:userMenuPatternSewingMachine01.c ****                     SetButtonText(&menu->btn[6],"%4.1f",((uint32) CONVERT_TO_4BYTE(g_ptrCount->patt
 490              		.loc 1 231 0
 491 0086 9A4D     		ldr	r5, .L53
 492 0088 2B68     		ldr	r3, [r5]
 493 008a 988B     		ldrh	r0, [r3, #28]
 494 008c 0004     		lsls	r0, r0, #16
 495 008e DB8B     		ldrh	r3, [r3, #30]
 496 0090 1843     		orrs	r0, r3
 497 0092 0A21     		movs	r1, #10
 498 0094 FFF7FEFF 		bl	__aeabi_uidiv
 499              	.LVL60:
 500 0098 0200     		movs	r2, r0
 501 009a 631C     		adds	r3, r4, #1
 502 009c FF33     		adds	r3, r3, #255
 503 009e 9949     		ldr	r1, .L53+20
 504 00a0 1800     		movs	r0, r3
 505 00a2 FFF7FEFF 		bl	SetButtonText
 506              	.LVL61:
 232:userMenuPatternSewingMachine01.c ****                     persent = TRUE;
 507              		.loc 1 232 0
 508 00a6 2B68     		ldr	r3, [r5]
 509 00a8 988B     		ldrh	r0, [r3, #28]
 510 00aa 0004     		lsls	r0, r0, #16
 511 00ac DB8B     		ldrh	r3, [r3, #30]
 512 00ae 1843     		orrs	r0, r3
 513 00b0 FFF7FEFF 		bl	__aeabi_ui2d
 514              	.LVL62:
 515 00b4 0022     		movs	r2, #0
 516 00b6 944B     		ldr	r3, .L53+24
 517 00b8 FFF7FEFF 		bl	__aeabi_dmul
 518              	.LVL63:
 519 00bc 0600     		movs	r6, r0
 520 00be 0F00     		movs	r7, r1
 521 00c0 8E4B     		ldr	r3, .L53+12
 522 00c2 1B68     		ldr	r3, [r3]
 523 00c4 5888     		ldrh	r0, [r3, #2]
 524 00c6 FFF7FEFF 		bl	__aeabi_i2d
 525              	.LVL64:
 526 00ca 0200     		movs	r2, r0
 527 00cc 0B00     		movs	r3, r1
 528 00ce 3000     		movs	r0, r6
 529 00d0 3900     		movs	r1, r7
 530 00d2 FFF7FEFF 		bl	__aeabi_ddiv
ARM GAS  C:\Users\theGu\AppData\Local\Temp\ccVU9Uhe.s 			page 24


 531              	.LVL65:
 532 00d6 0200     		movs	r2, r0
 533 00d8 0B00     		movs	r3, r1
 534 00da 2500     		movs	r5, r4
 535 00dc 8135     		adds	r5, r5, #129
 536 00de FF35     		adds	r5, r5, #255
 537 00e0 8A49     		ldr	r1, .L53+28
 538 00e2 2800     		movs	r0, r5
 539 00e4 FFF7FEFF 		bl	SetButtonText
 540              	.LVL66:
 233:userMenuPatternSewingMachine01.c ****                     break;
 541              		.loc 1 233 0
 542 00e8 0125     		movs	r5, #1
 234:userMenuPatternSewingMachine01.c ****                 case 1:
 543              		.loc 1 234 0
 544 00ea D0E0     		b	.L36
 545              	.LVL67:
 546              	.L39:
 236:userMenuPatternSewingMachine01.c ****                     SetButtonText(&menu->btn[4],"%0.1f",(uint32) CONVERT_TO_4BYTE(g_ptrCount->patte
 547              		.loc 1 236 0
 548 00ec B08D     		ldrh	r0, [r6, #44]
 549 00ee 0004     		lsls	r0, r0, #16
 550 00f0 F38D     		ldrh	r3, [r6, #46]
 551 00f2 1843     		orrs	r0, r3
 552 00f4 FFF7FEFF 		bl	__aeabi_ui2d
 553              	.LVL68:
 554 00f8 0022     		movs	r2, #0
 555 00fa 854B     		ldr	r3, .L53+32
 556 00fc FFF7FEFF 		bl	__aeabi_ddiv
 557              	.LVL69:
 558 0100 0200     		movs	r2, r0
 559 0102 0B00     		movs	r3, r1
 560 0104 834D     		ldr	r5, .L53+36
 561 0106 2600     		movs	r6, r4
 562 0108 8036     		adds	r6, r6, #128
 563 010a 2900     		movs	r1, r5
 564 010c 3000     		movs	r0, r6
 565 010e FFF7FEFF 		bl	SetButtonText
 566              	.LVL70:
 237:userMenuPatternSewingMachine01.c ****                     SetButtonText(&menu->btn[6],"%4.1f",((uint32) CONVERT_TO_4BYTE(g_ptrCount->patt
 567              		.loc 1 237 0
 568 0112 774F     		ldr	r7, .L53
 569 0114 3B68     		ldr	r3, [r7]
 570 0116 588E     		ldrh	r0, [r3, #50]
 571 0118 0004     		lsls	r0, r0, #16
 572 011a 9B8E     		ldrh	r3, [r3, #52]
 573 011c 1843     		orrs	r0, r3
 574 011e FFF7FEFF 		bl	__aeabi_ui2d
 575              	.LVL71:
 576 0122 0022     		movs	r2, #0
 577 0124 7A4B     		ldr	r3, .L53+32
 578 0126 FFF7FEFF 		bl	__aeabi_ddiv
 579              	.LVL72:
 580 012a 0200     		movs	r2, r0
 581 012c 0B00     		movs	r3, r1
 582 012e 661C     		adds	r6, r4, #1
 583 0130 FF36     		adds	r6, r6, #255
ARM GAS  C:\Users\theGu\AppData\Local\Temp\ccVU9Uhe.s 			page 25


 584 0132 2900     		movs	r1, r5
 585 0134 3000     		movs	r0, r6
 586 0136 FFF7FEFF 		bl	SetButtonText
 587              	.LVL73:
 238:userMenuPatternSewingMachine01.c ****                     persent = TRUE;
 588              		.loc 1 238 0
 589 013a 3D68     		ldr	r5, [r7]
 590 013c 688E     		ldrh	r0, [r5, #50]
 591 013e 0004     		lsls	r0, r0, #16
 592 0140 AB8E     		ldrh	r3, [r5, #52]
 593 0142 1843     		orrs	r0, r3
 594 0144 FFF7FEFF 		bl	__aeabi_ui2d
 595              	.LVL74:
 596 0148 0022     		movs	r2, #0
 597 014a 734B     		ldr	r3, .L53+40
 598 014c FFF7FEFF 		bl	__aeabi_dmul
 599              	.LVL75:
 600 0150 0600     		movs	r6, r0
 601 0152 0F00     		movs	r7, r1
 602 0154 A88D     		ldrh	r0, [r5, #44]
 603 0156 0004     		lsls	r0, r0, #16
 604 0158 EB8D     		ldrh	r3, [r5, #46]
 605 015a 1843     		orrs	r0, r3
 606 015c FFF7FEFF 		bl	__aeabi_ui2d
 607              	.LVL76:
 608 0160 0200     		movs	r2, r0
 609 0162 0B00     		movs	r3, r1
 610 0164 3000     		movs	r0, r6
 611 0166 3900     		movs	r1, r7
 612 0168 FFF7FEFF 		bl	__aeabi_ddiv
 613              	.LVL77:
 614 016c 0200     		movs	r2, r0
 615 016e 0B00     		movs	r3, r1
 616 0170 2500     		movs	r5, r4
 617 0172 8135     		adds	r5, r5, #129
 618 0174 FF35     		adds	r5, r5, #255
 619 0176 6549     		ldr	r1, .L53+28
 620 0178 2800     		movs	r0, r5
 621 017a FFF7FEFF 		bl	SetButtonText
 622              	.LVL78:
 239:userMenuPatternSewingMachine01.c ****                     break;
 623              		.loc 1 239 0
 624 017e 0125     		movs	r5, #1
 240:userMenuPatternSewingMachine01.c ****                 case 2:
 625              		.loc 1 240 0
 626 0180 85E0     		b	.L36
 627              	.LVL79:
 628              	.L41:
 242:userMenuPatternSewingMachine01.c ****                     SetButtonText(&menu->btn[4],"%lu",(uint32) CONVERT_TO_4BYTE(g_ptrCount->pattern
 629              		.loc 1 242 0
 630 0182 604E     		ldr	r6, .L53+20
 631 0184 2000     		movs	r0, r4
 632 0186 8030     		adds	r0, r0, #128
 633 0188 2A00     		movs	r2, r5
 634 018a 3100     		movs	r1, r6
 635 018c FFF7FEFF 		bl	SetButtonText
 636              	.LVL80:
ARM GAS  C:\Users\theGu\AppData\Local\Temp\ccVU9Uhe.s 			page 26


 243:userMenuPatternSewingMachine01.c ****                     SetButtonText(&menu->btn[6],"%4.1f",spi);    
 637              		.loc 1 243 0
 638 0190 574B     		ldr	r3, .L53
 639 0192 1B68     		ldr	r3, [r3]
 640 0194 DA8F     		ldrh	r2, [r3, #62]
 641 0196 1204     		lsls	r2, r2, #16
 642 0198 4021     		movs	r1, #64
 643 019a 5B5A     		ldrh	r3, [r3, r1]
 644 019c 1A43     		orrs	r2, r3
 645 019e 601C     		adds	r0, r4, #1
 646 01a0 FF30     		adds	r0, r0, #255
 647 01a2 3100     		movs	r1, r6
 648 01a4 FFF7FEFF 		bl	SetButtonText
 649              	.LVL81:
 244:userMenuPatternSewingMachine01.c ****                     break;
 650              		.loc 1 244 0
 651 01a8 0398     		ldr	r0, [sp, #12]
 652 01aa FFF7FEFF 		bl	__aeabi_f2d
 653              	.LVL82:
 654 01ae 0200     		movs	r2, r0
 655 01b0 0B00     		movs	r3, r1
 656 01b2 2500     		movs	r5, r4
 657 01b4 8135     		adds	r5, r5, #129
 658 01b6 FF35     		adds	r5, r5, #255
 659 01b8 5449     		ldr	r1, .L53+28
 660 01ba 2800     		movs	r0, r5
 661 01bc FFF7FEFF 		bl	SetButtonText
 662              	.LVL83:
 210:userMenuPatternSewingMachine01.c ****     
 663              		.loc 1 210 0
 664 01c0 0025     		movs	r5, #0
 245:userMenuPatternSewingMachine01.c ****             }
 665              		.loc 1 245 0
 666 01c2 64E0     		b	.L36
 667              	.L38:
 251:userMenuPatternSewingMachine01.c ****             {
 668              		.loc 1 251 0
 669 01c4 002F     		cmp	r7, #0
 670 01c6 02D0     		beq	.L42
 671 01c8 012F     		cmp	r7, #1
 672 01ca 39D0     		beq	.L43
 673 01cc 5EE0     		b	.L52
 674              	.L42:
 254:userMenuPatternSewingMachine01.c ****                     SetButtonText(&menu->btn[4],"%lu",   ((uint32) CONVERT_TO_4BYTE(g_ptrCount->sew
 675              		.loc 1 254 0
 676 01ce 1289     		ldrh	r2, [r2, #8]
 677 01d0 2000     		movs	r0, r4
 678 01d2 8030     		adds	r0, r0, #128
 679 01d4 4A49     		ldr	r1, .L53+16
 680 01d6 FFF7FEFF 		bl	SetButtonText
 681              	.LVL84:
 255:userMenuPatternSewingMachine01.c ****                     SetButtonText(&menu->btn[6],"%4.1f",((uint32) CONVERT_TO_4BYTE(g_ptrCount->sewi
 682              		.loc 1 255 0
 683 01da 454D     		ldr	r5, .L53
 684 01dc 2B68     		ldr	r3, [r5]
 685 01de 1888     		ldrh	r0, [r3]
 686 01e0 0004     		lsls	r0, r0, #16
ARM GAS  C:\Users\theGu\AppData\Local\Temp\ccVU9Uhe.s 			page 27


 687 01e2 5B88     		ldrh	r3, [r3, #2]
 688 01e4 1843     		orrs	r0, r3
 689 01e6 0A21     		movs	r1, #10
 690 01e8 FFF7FEFF 		bl	__aeabi_uidiv
 691              	.LVL85:
 692 01ec 0200     		movs	r2, r0
 693 01ee 631C     		adds	r3, r4, #1
 694 01f0 FF33     		adds	r3, r3, #255
 695 01f2 4449     		ldr	r1, .L53+20
 696 01f4 1800     		movs	r0, r3
 697 01f6 FFF7FEFF 		bl	SetButtonText
 698              	.LVL86:
 256:userMenuPatternSewingMachine01.c ****                     persent = TRUE;                    
 699              		.loc 1 256 0
 700 01fa 2B68     		ldr	r3, [r5]
 701 01fc 1888     		ldrh	r0, [r3]
 702 01fe 0004     		lsls	r0, r0, #16
 703 0200 5B88     		ldrh	r3, [r3, #2]
 704 0202 1843     		orrs	r0, r3
 705 0204 FFF7FEFF 		bl	__aeabi_ui2d
 706              	.LVL87:
 707 0208 0022     		movs	r2, #0
 708 020a 3F4B     		ldr	r3, .L53+24
 709 020c FFF7FEFF 		bl	__aeabi_dmul
 710              	.LVL88:
 711 0210 0600     		movs	r6, r0
 712 0212 0F00     		movs	r7, r1
 713 0214 394B     		ldr	r3, .L53+12
 714 0216 1B68     		ldr	r3, [r3]
 715 0218 1889     		ldrh	r0, [r3, #8]
 716 021a FFF7FEFF 		bl	__aeabi_i2d
 717              	.LVL89:
 718 021e 0200     		movs	r2, r0
 719 0220 0B00     		movs	r3, r1
 720 0222 3000     		movs	r0, r6
 721 0224 3900     		movs	r1, r7
 722 0226 FFF7FEFF 		bl	__aeabi_ddiv
 723              	.LVL90:
 724 022a 0200     		movs	r2, r0
 725 022c 0B00     		movs	r3, r1
 726 022e 2500     		movs	r5, r4
 727 0230 8135     		adds	r5, r5, #129
 728 0232 FF35     		adds	r5, r5, #255
 729 0234 3549     		ldr	r1, .L53+28
 730 0236 2800     		movs	r0, r5
 731 0238 FFF7FEFF 		bl	SetButtonText
 732              	.LVL91:
 257:userMenuPatternSewingMachine01.c ****                     break;
 733              		.loc 1 257 0
 734 023c 0125     		movs	r5, #1
 258:userMenuPatternSewingMachine01.c ****                 case 1:
 735              		.loc 1 258 0
 736 023e 26E0     		b	.L36
 737              	.LVL92:
 738              	.L43:
 260:userMenuPatternSewingMachine01.c ****                     SetButtonText(&menu->btn[4],"%lu",((uint32) CONVERT_TO_4BYTE(g_ptrCount->sewing
 739              		.loc 1 260 0
ARM GAS  C:\Users\theGu\AppData\Local\Temp\ccVU9Uhe.s 			page 28


 740 0240 328B     		ldrh	r2, [r6, #24]
 741 0242 1204     		lsls	r2, r2, #16
 742 0244 738B     		ldrh	r3, [r6, #26]
 743 0246 1A43     		orrs	r2, r3
 744 0248 2E4D     		ldr	r5, .L53+20
 745 024a 2000     		movs	r0, r4
 746 024c 8030     		adds	r0, r0, #128
 747 024e 2900     		movs	r1, r5
 748 0250 FFF7FEFF 		bl	SetButtonText
 749              	.LVL93:
 261:userMenuPatternSewingMachine01.c ****                     SetButtonText(&menu->btn[6],"%lu",((uint32) CONVERT_TO_4BYTE(g_ptrCount->sewing
 750              		.loc 1 261 0
 751 0254 264E     		ldr	r6, .L53
 752 0256 3368     		ldr	r3, [r6]
 753 0258 5A8A     		ldrh	r2, [r3, #18]
 754 025a 1204     		lsls	r2, r2, #16
 755 025c 9B8A     		ldrh	r3, [r3, #20]
 756 025e 1A43     		orrs	r2, r3
 757 0260 601C     		adds	r0, r4, #1
 758 0262 FF30     		adds	r0, r0, #255
 759 0264 2900     		movs	r1, r5
 760 0266 FFF7FEFF 		bl	SetButtonText
 761              	.LVL94:
 262:userMenuPatternSewingMachine01.c ****                     break;     
 762              		.loc 1 262 0
 763 026a 3368     		ldr	r3, [r6]
 764 026c 9A89     		ldrh	r2, [r3, #12]
 765 026e 1204     		lsls	r2, r2, #16
 766 0270 DB89     		ldrh	r3, [r3, #14]
 767 0272 1A43     		orrs	r2, r3
 768 0274 2000     		movs	r0, r4
 769 0276 8130     		adds	r0, r0, #129
 770 0278 FF30     		adds	r0, r0, #255
 771 027a 2900     		movs	r1, r5
 772 027c FFF7FEFF 		bl	SetButtonText
 773              	.LVL95:
 210:userMenuPatternSewingMachine01.c ****     
 774              		.loc 1 210 0
 775 0280 0025     		movs	r5, #0
 263:userMenuPatternSewingMachine01.c ****             }
 776              		.loc 1 263 0
 777 0282 04E0     		b	.L36
 778              	.L50:
 210:userMenuPatternSewingMachine01.c ****     
 779              		.loc 1 210 0
 780 0284 0025     		movs	r5, #0
 781 0286 02E0     		b	.L36
 782              	.L51:
 783 0288 0025     		movs	r5, #0
 784 028a 00E0     		b	.L36
 785              	.L52:
 786 028c 0025     		movs	r5, #0
 787              	.LVL96:
 788              	.L36:
 269:userMenuPatternSewingMachine01.c ****     DrawButton(&menu->btn[4]);
 789              		.loc 1 269 0
 790 028e 2000     		movs	r0, r4
ARM GAS  C:\Users\theGu\AppData\Local\Temp\ccVU9Uhe.s 			page 29


 791 0290 8030     		adds	r0, r0, #128
 792 0292 FFF7FEFF 		bl	DrawButton
 793              	.LVL97:
 270:userMenuPatternSewingMachine01.c ****     DrawButton(&menu->btn[6]);
 794              		.loc 1 270 0
 795 0296 601C     		adds	r0, r4, #1
 796 0298 FF30     		adds	r0, r0, #255
 797 029a FFF7FEFF 		bl	DrawButton
 798              	.LVL98:
 271:userMenuPatternSewingMachine01.c ****     
 799              		.loc 1 271 0
 800 029e 2000     		movs	r0, r4
 801 02a0 8130     		adds	r0, r0, #129
 802 02a2 FF30     		adds	r0, r0, #255
 803 02a4 FFF7FEFF 		bl	DrawButton
 804              	.LVL99:
 273:userMenuPatternSewingMachine01.c ****     {
 805              		.loc 1 273 0
 806 02a8 002D     		cmp	r5, #0
 807 02aa 1ED0     		beq	.L34
 808              	.LVL100:
 809              	.LBB4:
 276:userMenuPatternSewingMachine01.c ****     }
 810              		.loc 1 276 0
 811 02ac 8134     		adds	r4, r4, #129
 812              	.LVL101:
 813 02ae FF34     		adds	r4, r4, #255
 814              	.LVL102:
 815 02b0 E588     		ldrh	r5, [r4, #6]
 816              	.LVL103:
 817 02b2 2089     		ldrh	r0, [r4, #8]
 818 02b4 6389     		ldrh	r3, [r4, #10]
 819 02b6 C018     		adds	r0, r0, r3
 820 02b8 FFF7FEFF 		bl	__aeabi_i2d
 821              	.LVL104:
 822 02bc 0022     		movs	r2, #0
 823 02be 174B     		ldr	r3, .L53+44
 824 02c0 FFF7FEFF 		bl	__aeabi_dmul
 825              	.LVL105:
 826 02c4 0022     		movs	r2, #0
 827 02c6 104B     		ldr	r3, .L53+24
 828 02c8 FFF7FEFF 		bl	__aeabi_dsub
 829              	.LVL106:
 830 02cc 678E     		ldrh	r7, [r4, #50]
 831 02ce 268E     		ldrh	r6, [r4, #48]
 832 02d0 FFF7FEFF 		bl	__aeabi_d2uiz
 833              	.LVL107:
 834 02d4 81B2     		uxth	r1, r0
 835 02d6 103D     		subs	r5, r5, #16
 836 02d8 A8B2     		uxth	r0, r5
 837 02da 2523     		movs	r3, #37
 838 02dc 0193     		str	r3, [sp, #4]
 839 02de E36A     		ldr	r3, [r4, #44]
 840 02e0 0093     		str	r3, [sp]
 841 02e2 3B00     		movs	r3, r7
 842 02e4 3200     		movs	r2, r6
 843 02e6 FFF7FEFF 		bl	LCD_DrawFont
ARM GAS  C:\Users\theGu\AppData\Local\Temp\ccVU9Uhe.s 			page 30


 844              	.LVL108:
 845              	.L34:
 846              	.LBE4:
 278:userMenuPatternSewingMachine01.c **** 
 847              		.loc 1 278 0
 848 02ea 05B0     		add	sp, sp, #20
 849              		@ sp needed
 850 02ec F0BD     		pop	{r4, r5, r6, r7, pc}
 851              	.L54:
 852 02ee C046     		.align	2
 853              	.L53:
 854 02f0 00000000 		.word	g_ptrCount
 855 02f4 66666666 		.word	1717986918
 856 02f8 66663940 		.word	1077503590
 857 02fc 00000000 		.word	g_ptrMachineParameter
 858 0300 30000000 		.word	.LC18
 859 0304 34000000 		.word	.LC20
 860 0308 00002440 		.word	1076101120
 861 030c 38000000 		.word	.LC22
 862 0310 00408F40 		.word	1083129856
 863 0314 40000000 		.word	.LC24
 864 0318 00005940 		.word	1079574528
 865 031c 0000E03F 		.word	1071644672
 866              		.cfi_endproc
 867              	.LFE64:
 868              		.size	TopMenuPageUpdateValue, .-TopMenuPageUpdateValue
 869              		.section	.text.TopMenuPageUpdate,"ax",%progbits
 870              		.align	2
 871              		.global	TopMenuPageUpdate
 872              		.code	16
 873              		.thumb_func
 874              		.type	TopMenuPageUpdate, %function
 875              	TopMenuPageUpdate:
 876              	.LFB62:
 138:userMenuPatternSewingMachine01.c ****     switch(g_ptrMachineParameter->machineType)
 877              		.loc 1 138 0
 878              		.cfi_startproc
 879              		@ args = 0, pretend = 0, frame = 0
 880              		@ frame_needed = 0, uses_anonymous_args = 0
 881              	.LVL109:
 882 0000 70B5     		push	{r4, r5, r6, lr}
 883              		.cfi_def_cfa_offset 16
 884              		.cfi_offset 4, -16
 885              		.cfi_offset 5, -12
 886              		.cfi_offset 6, -8
 887              		.cfi_offset 14, -4
 888 0002 0400     		movs	r4, r0
 889 0004 0D00     		movs	r5, r1
 139:userMenuPatternSewingMachine01.c ****     {
 890              		.loc 1 139 0
 891 0006 3D4B     		ldr	r3, .L64
 892 0008 1B68     		ldr	r3, [r3]
 893 000a 1B78     		ldrb	r3, [r3]
 894 000c 002B     		cmp	r3, #0
 895 000e 02D0     		beq	.L57
 896 0010 012B     		cmp	r3, #1
 897 0012 3AD0     		beq	.L58
ARM GAS  C:\Users\theGu\AppData\Local\Temp\ccVU9Uhe.s 			page 31


 898 0014 5FE0     		b	.L56
 899              	.L57:
 143:userMenuPatternSewingMachine01.c ****             {
 900              		.loc 1 143 0
 901 0016 0129     		cmp	r1, #1
 902 0018 15D0     		beq	.L59
 903 001a 0029     		cmp	r1, #0
 904 001c 02D0     		beq	.L60
 905 001e 0229     		cmp	r1, #2
 906 0020 22D0     		beq	.L61
 907 0022 58E0     		b	.L56
 908              	.L60:
 146:userMenuPatternSewingMachine01.c ****                     SetButtonText(&menu->btn[3],g_patternString[1]);
 909              		.loc 1 146 0
 910 0024 364E     		ldr	r6, .L64+4
 911 0026 4030     		adds	r0, r0, #64
 912              	.LVL110:
 913 0028 B168     		ldr	r1, [r6, #8]
 914              	.LVL111:
 915 002a FFF7FEFF 		bl	SetButtonText
 916              	.LVL112:
 147:userMenuPatternSewingMachine01.c ****                     SetButtonText(&menu->btn[5],g_patternString[2]);
 917              		.loc 1 147 0
 918 002e 2000     		movs	r0, r4
 919 0030 C030     		adds	r0, r0, #192
 920 0032 F168     		ldr	r1, [r6, #12]
 921 0034 FFF7FEFF 		bl	SetButtonText
 922              	.LVL113:
 148:userMenuPatternSewingMachine01.c ****                     break;
 923              		.loc 1 148 0
 924 0038 3169     		ldr	r1, [r6, #16]
 925 003a 2000     		movs	r0, r4
 926 003c 4130     		adds	r0, r0, #65
 927 003e FF30     		adds	r0, r0, #255
 928 0040 FFF7FEFF 		bl	SetButtonText
 929              	.LVL114:
 149:userMenuPatternSewingMachine01.c ****                 case 1:
 930              		.loc 1 149 0
 931 0044 47E0     		b	.L56
 932              	.LVL115:
 933              	.L59:
 151:userMenuPatternSewingMachine01.c ****                     SetButtonText(&menu->btn[3],g_patternString[4]);
 934              		.loc 1 151 0
 935 0046 2E4E     		ldr	r6, .L64+4
 936 0048 4030     		adds	r0, r0, #64
 937              	.LVL116:
 938 004a 7169     		ldr	r1, [r6, #20]
 939              	.LVL117:
 940 004c FFF7FEFF 		bl	SetButtonText
 941              	.LVL118:
 152:userMenuPatternSewingMachine01.c ****                     SetButtonText(&menu->btn[5],g_patternString[2]);                    
 942              		.loc 1 152 0
 943 0050 2000     		movs	r0, r4
 944 0052 C030     		adds	r0, r0, #192
 945 0054 B169     		ldr	r1, [r6, #24]
 946 0056 FFF7FEFF 		bl	SetButtonText
 947              	.LVL119:
ARM GAS  C:\Users\theGu\AppData\Local\Temp\ccVU9Uhe.s 			page 32


 153:userMenuPatternSewingMachine01.c ****                     break;
 948              		.loc 1 153 0
 949 005a 3169     		ldr	r1, [r6, #16]
 950 005c 2000     		movs	r0, r4
 951 005e 4130     		adds	r0, r0, #65
 952 0060 FF30     		adds	r0, r0, #255
 953 0062 FFF7FEFF 		bl	SetButtonText
 954              	.LVL120:
 154:userMenuPatternSewingMachine01.c ****                 case 2:
 955              		.loc 1 154 0
 956 0066 36E0     		b	.L56
 957              	.LVL121:
 958              	.L61:
 156:userMenuPatternSewingMachine01.c ****                     SetButtonText(&menu->btn[3],g_patternString[6]);
 959              		.loc 1 156 0
 960 0068 254E     		ldr	r6, .L64+4
 961 006a 4030     		adds	r0, r0, #64
 962              	.LVL122:
 963 006c F169     		ldr	r1, [r6, #28]
 964              	.LVL123:
 965 006e FFF7FEFF 		bl	SetButtonText
 966              	.LVL124:
 157:userMenuPatternSewingMachine01.c ****                     SetButtonText(&menu->btn[5],g_patternString[7]);                      
 967              		.loc 1 157 0
 968 0072 2000     		movs	r0, r4
 969 0074 C030     		adds	r0, r0, #192
 970 0076 316A     		ldr	r1, [r6, #32]
 971 0078 FFF7FEFF 		bl	SetButtonText
 972              	.LVL125:
 158:userMenuPatternSewingMachine01.c ****                     break;
 973              		.loc 1 158 0
 974 007c 716A     		ldr	r1, [r6, #36]
 975 007e 2000     		movs	r0, r4
 976 0080 4130     		adds	r0, r0, #65
 977 0082 FF30     		adds	r0, r0, #255
 978 0084 FFF7FEFF 		bl	SetButtonText
 979              	.LVL126:
 159:userMenuPatternSewingMachine01.c ****             }
 980              		.loc 1 159 0
 981 0088 25E0     		b	.L56
 982              	.LVL127:
 983              	.L58:
 165:userMenuPatternSewingMachine01.c ****             {
 984              		.loc 1 165 0
 985 008a 0029     		cmp	r1, #0
 986 008c 02D0     		beq	.L62
 987 008e 0129     		cmp	r1, #1
 988 0090 11D0     		beq	.L63
 989 0092 20E0     		b	.L56
 990              	.L62:
 168:userMenuPatternSewingMachine01.c ****                     SetButtonText(&menu->btn[3],g_patternString[1]);
 991              		.loc 1 168 0
 992 0094 1A4E     		ldr	r6, .L64+4
 993 0096 4030     		adds	r0, r0, #64
 994              	.LVL128:
 995 0098 B168     		ldr	r1, [r6, #8]
 996              	.LVL129:
ARM GAS  C:\Users\theGu\AppData\Local\Temp\ccVU9Uhe.s 			page 33


 997 009a FFF7FEFF 		bl	SetButtonText
 998              	.LVL130:
 169:userMenuPatternSewingMachine01.c ****                     SetButtonText(&menu->btn[5],g_patternString[2]);
 999              		.loc 1 169 0
 1000 009e 2000     		movs	r0, r4
 1001 00a0 C030     		adds	r0, r0, #192
 1002 00a2 F168     		ldr	r1, [r6, #12]
 1003 00a4 FFF7FEFF 		bl	SetButtonText
 1004              	.LVL131:
 170:userMenuPatternSewingMachine01.c ****                     break;
 1005              		.loc 1 170 0
 1006 00a8 3169     		ldr	r1, [r6, #16]
 1007 00aa 2000     		movs	r0, r4
 1008 00ac 4130     		adds	r0, r0, #65
 1009 00ae FF30     		adds	r0, r0, #255
 1010 00b0 FFF7FEFF 		bl	SetButtonText
 1011              	.LVL132:
 171:userMenuPatternSewingMachine01.c ****                 case 1:
 1012              		.loc 1 171 0
 1013 00b4 0FE0     		b	.L56
 1014              	.LVL133:
 1015              	.L63:
 173:userMenuPatternSewingMachine01.c ****                     SetButtonText(&menu->btn[3],g_patternString[4]);
 1016              		.loc 1 173 0
 1017 00b6 124E     		ldr	r6, .L64+4
 1018 00b8 4030     		adds	r0, r0, #64
 1019              	.LVL134:
 1020 00ba 7169     		ldr	r1, [r6, #20]
 1021              	.LVL135:
 1022 00bc FFF7FEFF 		bl	SetButtonText
 1023              	.LVL136:
 174:userMenuPatternSewingMachine01.c ****                     SetButtonText(&menu->btn[5],g_patternString[5]);                    
 1024              		.loc 1 174 0
 1025 00c0 2000     		movs	r0, r4
 1026 00c2 C030     		adds	r0, r0, #192
 1027 00c4 B169     		ldr	r1, [r6, #24]
 1028 00c6 FFF7FEFF 		bl	SetButtonText
 1029              	.LVL137:
 175:userMenuPatternSewingMachine01.c ****                     break;     
 1030              		.loc 1 175 0
 1031 00ca F169     		ldr	r1, [r6, #28]
 1032 00cc 2000     		movs	r0, r4
 1033 00ce 4130     		adds	r0, r0, #65
 1034 00d0 FF30     		adds	r0, r0, #255
 1035 00d2 FFF7FEFF 		bl	SetButtonText
 1036              	.LVL138:
 1037              	.L56:
 185:userMenuPatternSewingMachine01.c ****     DrawButton(&menu->btn[3]);
 1038              		.loc 1 185 0
 1039 00d6 2000     		movs	r0, r4
 1040 00d8 4030     		adds	r0, r0, #64
 1041 00da FFF7FEFF 		bl	DrawButton
 1042              	.LVL139:
 186:userMenuPatternSewingMachine01.c ****     DrawButton(&menu->btn[5]); 
 1043              		.loc 1 186 0
 1044 00de 2000     		movs	r0, r4
 1045 00e0 C030     		adds	r0, r0, #192
ARM GAS  C:\Users\theGu\AppData\Local\Temp\ccVU9Uhe.s 			page 34


 1046 00e2 FFF7FEFF 		bl	DrawButton
 1047              	.LVL140:
 187:userMenuPatternSewingMachine01.c **** 
 1048              		.loc 1 187 0
 1049 00e6 2000     		movs	r0, r4
 1050 00e8 4130     		adds	r0, r0, #65
 1051 00ea FF30     		adds	r0, r0, #255
 1052 00ec FFF7FEFF 		bl	DrawButton
 1053              	.LVL141:
 189:userMenuPatternSewingMachine01.c ****     
 1054              		.loc 1 189 0
 1055 00f0 2900     		movs	r1, r5
 1056 00f2 2000     		movs	r0, r4
 1057 00f4 FFF7FEFF 		bl	TopMenuPageUpdateValue
 1058              	.LVL142:
 191:userMenuPatternSewingMachine01.c **** 
 1059              		.loc 1 191 0
 1060              		@ sp needed
 1061              	.LVL143:
 1062 00f8 70BD     		pop	{r4, r5, r6, pc}
 1063              	.L65:
 1064 00fa C046     		.align	2
 1065              	.L64:
 1066 00fc 00000000 		.word	g_ptrMachineParameter
 1067 0100 00000000 		.word	.LANCHOR1
 1068              		.cfi_endproc
 1069              	.LFE62:
 1070              		.size	TopMenuPageUpdate, .-TopMenuPageUpdate
 1071              		.section	.text.doTopMenu,"ax",%progbits
 1072              		.align	2
 1073              		.global	doTopMenu
 1074              		.code	16
 1075              		.thumb_func
 1076              		.type	doTopMenu, %function
 1077              	doTopMenu:
 1078              	.LFB61:
  43:userMenuPatternSewingMachine01.c ****     MENUNODE *thisMenu = (MENUNODE *) this;    
 1079              		.loc 1 43 0
 1080              		.cfi_startproc
 1081              		@ args = 0, pretend = 0, frame = 8
 1082              		@ frame_needed = 0, uses_anonymous_args = 0
 1083              	.LVL144:
 1084 0000 00B5     		push	{lr}
 1085              		.cfi_def_cfa_offset 4
 1086              		.cfi_offset 14, -4
 1087 0002 83B0     		sub	sp, sp, #12
 1088              		.cfi_def_cfa_offset 16
 1089              	.LVL145:
  50:userMenuPatternSewingMachine01.c ****     {
 1090              		.loc 1 50 0
 1091 0004 0029     		cmp	r1, #0
 1092 0006 1FD0     		beq	.L68
 1093 0008 0129     		cmp	r1, #1
 1094 000a 00D0     		beq	.LCB1078
 1095 000c 95E0     		b	.L67	@long jump
 1096              	.LCB1078:
  54:userMenuPatternSewingMachine01.c ****                 {
ARM GAS  C:\Users\theGu\AppData\Local\Temp\ccVU9Uhe.s 			page 35


 1097              		.loc 1 54 0
 1098 000e 594B     		ldr	r3, .L97
 1099 0010 1B68     		ldr	r3, [r3]
 1100 0012 1B78     		ldrb	r3, [r3]
 1101 0014 002B     		cmp	r3, #0
 1102 0016 02D0     		beq	.L71
 1103 0018 012B     		cmp	r3, #1
 1104 001a 05D0     		beq	.L72
 1105 001c 08E0     		b	.L70
 1106              	.L71:
  56:userMenuPatternSewingMachine01.c ****                     case SEWING_MACHINE :  page = sewingPage;  break;
 1107              		.loc 1 56 0
 1108 001e 0021     		movs	r1, #0
 1109              	.LVL146:
 1110 0020 7023     		movs	r3, #112
 1111 0022 554A     		ldr	r2, .L97+4
 1112 0024 D154     		strb	r1, [r2, r3]
 1113 0026 03E0     		b	.L70
 1114              	.LVL147:
 1115              	.L72:
  57:userMenuPatternSewingMachine01.c ****                 }
 1116              		.loc 1 57 0
 1117 0028 0021     		movs	r1, #0
 1118              	.LVL148:
 1119 002a 7023     		movs	r3, #112
 1120 002c 524A     		ldr	r2, .L97+4
 1121 002e D154     		strb	r1, [r2, r3]
 1122              	.L70:
  60:userMenuPatternSewingMachine01.c ****                 g_updateCountMenu = TRUE;                
 1123              		.loc 1 60 0
 1124 0030 FF21     		movs	r1, #255
 1125 0032 2823     		movs	r3, #40
 1126 0034 514A     		ldr	r2, .L97+8
 1127 0036 D154     		strb	r1, [r2, r3]
  61:userMenuPatternSewingMachine01.c ****                 DisplayDoTopMenu(&menu);                
 1128              		.loc 1 61 0
 1129 0038 0122     		movs	r2, #1
 1130 003a 514B     		ldr	r3, .L97+12
 1131 003c 1A70     		strb	r2, [r3]
  62:userMenuPatternSewingMachine01.c ****             }
 1132              		.loc 1 62 0
 1133 003e 4E48     		ldr	r0, .L97+4
 1134              	.LVL149:
 1135 0040 7430     		adds	r0, r0, #116
 1136 0042 FFF7FEFF 		bl	DisplayDoTopMenu
 1137              	.LVL150:
  64:userMenuPatternSewingMachine01.c ****         
 1138              		.loc 1 64 0
 1139 0046 78E0     		b	.L67
 1140              	.LVL151:
 1141              	.L68:
 1142              	.LBB5:
  68:userMenuPatternSewingMachine01.c ****                 if(tc.isClick == FALSE) break;
 1143              		.loc 1 68 0
 1144 0048 6846     		mov	r0, sp
 1145              	.LVL152:
 1146 004a FFF7FEFF 		bl	GetTouch
ARM GAS  C:\Users\theGu\AppData\Local\Temp\ccVU9Uhe.s 			page 36


 1147              	.LVL153:
  69:userMenuPatternSewingMachine01.c ****                 
 1148              		.loc 1 69 0
 1149 004e 6B46     		mov	r3, sp
 1150 0050 1B88     		ldrh	r3, [r3]
 1151 0052 002B     		cmp	r3, #0
 1152 0054 71D0     		beq	.L67
  71:userMenuPatternSewingMachine01.c ****                 {
 1153              		.loc 1 71 0
 1154 0056 0722     		movs	r2, #7
 1155 0058 4749     		ldr	r1, .L97+4
 1156 005a 7431     		adds	r1, r1, #116
 1157 005c 6846     		mov	r0, sp
 1158 005e FFF7FEFF 		bl	getIndexOfClickedButton
 1159              	.LVL154:
 1160 0062 0628     		cmp	r0, #6
 1161 0064 51D8     		bhi	.L74
 1162 0066 8000     		lsls	r0, r0, #2
 1163 0068 464B     		ldr	r3, .L97+16
 1164 006a 1B58     		ldr	r3, [r3, r0]
 1165 006c 9F46     		mov	pc, r3
 1166              		.section	.rodata
 1167              		.align	2
 1168              	.L76:
 1169 0000 22010000 		.word	.L91
 1170 0004 6E000000 		.word	.L77
 1171 0008 6E000000 		.word	.L77
 1172 000c AA000000 		.word	.L78
 1173 0010 AA000000 		.word	.L78
 1174 0014 D2000000 		.word	.L79
 1175 0018 D2000000 		.word	.L79
 1176              		.section	.text.doTopMenu
 1177              	.L77:
  77:userMenuPatternSewingMachine01.c ****                         {
 1178              		.loc 1 77 0
 1179 006e 414B     		ldr	r3, .L97
 1180 0070 1B68     		ldr	r3, [r3]
 1181 0072 1B78     		ldrb	r3, [r3]
 1182 0074 002B     		cmp	r3, #0
 1183 0076 02D0     		beq	.L81
 1184 0078 012B     		cmp	r3, #1
 1185 007a 0BD0     		beq	.L82
 1186 007c 5DE0     		b	.L67
 1187              	.L81:
  80:userMenuPatternSewingMachine01.c ****                                 else if(page > 0 ) page--;
 1188              		.loc 1 80 0
 1189 007e 7023     		movs	r3, #112
 1190 0080 3D4A     		ldr	r2, .L97+4
 1191 0082 D35C     		ldrb	r3, [r2, r3]
 1192 0084 002B     		cmp	r3, #0
 1193 0086 4ED0     		beq	.L92
  81:userMenuPatternSewingMachine01.c ****                                 break;
 1194              		.loc 1 81 0
 1195 0088 57D0     		beq	.L67
  81:userMenuPatternSewingMachine01.c ****                                 break;
 1196              		.loc 1 81 0 is_stmt 0 discriminator 1
 1197 008a 013B     		subs	r3, r3, #1
ARM GAS  C:\Users\theGu\AppData\Local\Temp\ccVU9Uhe.s 			page 37


 1198 008c 7022     		movs	r2, #112
 1199 008e 3A49     		ldr	r1, .L97+4
 1200 0090 8B54     		strb	r3, [r1, r2]
 1201 0092 52E0     		b	.L67
 1202              	.L82:
  84:userMenuPatternSewingMachine01.c ****                                 else if(page > 0 ) page--;
 1203              		.loc 1 84 0 is_stmt 1
 1204 0094 7023     		movs	r3, #112
 1205 0096 384A     		ldr	r2, .L97+4
 1206 0098 D35C     		ldrb	r3, [r2, r3]
 1207 009a 002B     		cmp	r3, #0
 1208 009c 45D0     		beq	.L93
  85:userMenuPatternSewingMachine01.c ****                                 break;                                
 1209              		.loc 1 85 0
 1210 009e 4CD0     		beq	.L67
  85:userMenuPatternSewingMachine01.c ****                                 break;                                
 1211              		.loc 1 85 0 is_stmt 0 discriminator 1
 1212 00a0 013B     		subs	r3, r3, #1
 1213 00a2 7022     		movs	r2, #112
 1214 00a4 3449     		ldr	r1, .L97+4
 1215 00a6 8B54     		strb	r3, [r1, r2]
 1216 00a8 47E0     		b	.L67
 1217              	.L78:
  92:userMenuPatternSewingMachine01.c ****                         {
 1218              		.loc 1 92 0 is_stmt 1
 1219 00aa 324B     		ldr	r3, .L97
 1220 00ac 1B68     		ldr	r3, [r3]
 1221 00ae 1B78     		ldrb	r3, [r3]
 1222 00b0 002B     		cmp	r3, #0
 1223 00b2 02D0     		beq	.L83
 1224 00b4 012B     		cmp	r3, #1
 1225 00b6 06D0     		beq	.L84
 1226 00b8 3FE0     		b	.L67
 1227              	.L83:
  95:userMenuPatternSewingMachine01.c ****                              //   else if(page > 0 ) page--;
 1228              		.loc 1 95 0
 1229 00ba 7023     		movs	r3, #112
 1230 00bc 2E4A     		ldr	r2, .L97+4
 1231 00be D35C     		ldrb	r3, [r2, r3]
 1232 00c0 002B     		cmp	r3, #0
 1233 00c2 34D0     		beq	.L94
 1234 00c4 39E0     		b	.L67
 1235              	.L84:
  99:userMenuPatternSewingMachine01.c ****                             //    else if(page > 0 ) page--;
 1236              		.loc 1 99 0
 1237 00c6 7023     		movs	r3, #112
 1238 00c8 2B4A     		ldr	r2, .L97+4
 1239 00ca D35C     		ldrb	r3, [r2, r3]
 1240 00cc 002B     		cmp	r3, #0
 1241 00ce 30D0     		beq	.L95
 1242 00d0 33E0     		b	.L67
 1243              	.L79:
 107:userMenuPatternSewingMachine01.c ****                         {
 1244              		.loc 1 107 0
 1245 00d2 284B     		ldr	r3, .L97
 1246 00d4 1B68     		ldr	r3, [r3]
 1247 00d6 1B78     		ldrb	r3, [r3]
ARM GAS  C:\Users\theGu\AppData\Local\Temp\ccVU9Uhe.s 			page 38


 1248 00d8 002B     		cmp	r3, #0
 1249 00da 02D0     		beq	.L85
 1250 00dc 012B     		cmp	r3, #1
 1251 00de 0AD0     		beq	.L86
 1252 00e0 2BE0     		b	.L67
 1253              	.L85:
 110:userMenuPatternSewingMachine01.c ****                                 break;
 1254              		.loc 1 110 0
 1255 00e2 7023     		movs	r3, #112
 1256 00e4 244A     		ldr	r2, .L97+4
 1257 00e6 D35C     		ldrb	r3, [r2, r3]
 1258 00e8 012B     		cmp	r3, #1
 1259 00ea 26D8     		bhi	.L67
 110:userMenuPatternSewingMachine01.c ****                                 break;
 1260              		.loc 1 110 0 is_stmt 0 discriminator 1
 1261 00ec 0133     		adds	r3, r3, #1
 1262 00ee 7022     		movs	r2, #112
 1263 00f0 2149     		ldr	r1, .L97+4
 1264 00f2 8B54     		strb	r3, [r1, r2]
 1265 00f4 21E0     		b	.L67
 1266              	.L86:
 113:userMenuPatternSewingMachine01.c ****                                 break;                            
 1267              		.loc 1 113 0 is_stmt 1
 1268 00f6 7023     		movs	r3, #112
 1269 00f8 1F4A     		ldr	r2, .L97+4
 1270 00fa D35C     		ldrb	r3, [r2, r3]
 1271 00fc 002B     		cmp	r3, #0
 1272 00fe 1CD1     		bne	.L67
 113:userMenuPatternSewingMachine01.c ****                                 break;                            
 1273              		.loc 1 113 0 is_stmt 0 discriminator 1
 1274 0100 0133     		adds	r3, r3, #1
 1275 0102 7022     		movs	r2, #112
 1276 0104 1C49     		ldr	r1, .L97+4
 1277 0106 8B54     		strb	r3, [r1, r2]
 1278 0108 17E0     		b	.L67
 1279              	.L74:
 118:userMenuPatternSewingMachine01.c ****                         {
 1280              		.loc 1 118 0 is_stmt 1
 1281 010a 0222     		movs	r2, #2
 1282 010c 1E49     		ldr	r1, .L97+20
 1283 010e 6846     		mov	r0, sp
 1284 0110 FFF7FEFF 		bl	getIndexOfClickedButton
 1285              	.LVL155:
 1286 0114 0028     		cmp	r0, #0
 1287 0116 02D0     		beq	.L87
 1288 0118 0128     		cmp	r0, #1
 1289 011a 0CD0     		beq	.L96
 1290 011c 0DE0     		b	.L67
 1291              	.L87:
 120:userMenuPatternSewingMachine01.c ****                             case BOTTOM_RIGHT: return 1;                            
 1292              		.loc 1 120 0
 1293 011e 0020     		movs	r0, #0
 1294 0120 25E0     		b	.L88
 1295              	.L91:
  73:userMenuPatternSewingMachine01.c ****                     
 1296              		.loc 1 73 0
 1297 0122 0220     		movs	r0, #2
ARM GAS  C:\Users\theGu\AppData\Local\Temp\ccVU9Uhe.s 			page 39


 1298 0124 23E0     		b	.L88
 1299              	.L92:
  80:userMenuPatternSewingMachine01.c ****                                 else if(page > 0 ) page--;
 1300              		.loc 1 80 0
 1301 0126 0320     		movs	r0, #3
 1302 0128 21E0     		b	.L88
 1303              	.L93:
  84:userMenuPatternSewingMachine01.c ****                                 else if(page > 0 ) page--;
 1304              		.loc 1 84 0
 1305 012a 0320     		movs	r0, #3
 1306 012c 1FE0     		b	.L88
 1307              	.L94:
  95:userMenuPatternSewingMachine01.c ****                              //   else if(page > 0 ) page--;
 1308              		.loc 1 95 0
 1309 012e 0420     		movs	r0, #4
 1310 0130 1DE0     		b	.L88
 1311              	.L95:
  99:userMenuPatternSewingMachine01.c ****                             //    else if(page > 0 ) page--;
 1312              		.loc 1 99 0
 1313 0132 0420     		movs	r0, #4
 1314 0134 1BE0     		b	.L88
 1315              	.L96:
 121:userMenuPatternSewingMachine01.c ****                         }
 1316              		.loc 1 121 0
 1317 0136 0120     		movs	r0, #1
 1318 0138 19E0     		b	.L88
 1319              	.L67:
 1320              	.LBE5:
 130:userMenuPatternSewingMachine01.c ****     
 1321              		.loc 1 130 0
 1322 013a 2823     		movs	r3, #40
 1323 013c 0F4A     		ldr	r2, .L97+8
 1324 013e D35C     		ldrb	r3, [r2, r3]
 1325 0140 7022     		movs	r2, #112
 1326 0142 0D49     		ldr	r1, .L97+4
 1327 0144 895C     		ldrb	r1, [r1, r2]
 1328 0146 8B42     		cmp	r3, r1
 1329 0148 03D1     		bne	.L89
 130:userMenuPatternSewingMachine01.c ****     
 1330              		.loc 1 130 0 is_stmt 0 discriminator 2
 1331 014a 0D4B     		ldr	r3, .L97+12
 1332 014c 1B78     		ldrb	r3, [r3]
 1333 014e 012B     		cmp	r3, #1
 1334 0150 03D1     		bne	.L90
 1335              	.L89:
 130:userMenuPatternSewingMachine01.c ****     
 1336              		.loc 1 130 0 discriminator 3
 1337 0152 0948     		ldr	r0, .L97+4
 1338 0154 7430     		adds	r0, r0, #116
 1339 0156 FFF7FEFF 		bl	TopMenuPageUpdate
 1340              	.LVL156:
 1341              	.L90:
 132:userMenuPatternSewingMachine01.c ****     g_updateCountMenu = FALSE;
 1342              		.loc 1 132 0 is_stmt 1
 1343 015a 7023     		movs	r3, #112
 1344 015c 064A     		ldr	r2, .L97+4
 1345 015e D15C     		ldrb	r1, [r2, r3]
ARM GAS  C:\Users\theGu\AppData\Local\Temp\ccVU9Uhe.s 			page 40


 1346 0160 483B     		subs	r3, r3, #72
 1347 0162 064A     		ldr	r2, .L97+8
 1348 0164 D154     		strb	r1, [r2, r3]
 133:userMenuPatternSewingMachine01.c ****     return MENU_RETURN_THIS;    
 1349              		.loc 1 133 0
 1350 0166 0022     		movs	r2, #0
 1351 0168 054B     		ldr	r3, .L97+12
 1352 016a 1A70     		strb	r2, [r3]
 134:userMenuPatternSewingMachine01.c **** }
 1353              		.loc 1 134 0
 1354 016c 0748     		ldr	r0, .L97+24
 1355              	.L88:
 135:userMenuPatternSewingMachine01.c **** 
 1356              		.loc 1 135 0
 1357 016e 03B0     		add	sp, sp, #12
 1358              		@ sp needed
 1359 0170 00BD     		pop	{pc}
 1360              	.L98:
 1361 0172 C046     		.align	2
 1362              	.L97:
 1363 0174 00000000 		.word	g_ptrMachineParameter
 1364 0178 00030000 		.word	.LANCHOR2
 1365 017c 00000000 		.word	.LANCHOR1
 1366 0180 00000000 		.word	g_updateCountMenu
 1367 0184 00000000 		.word	.L76
 1368 0188 00000000 		.word	g_btnBottom
 1369 018c 01000080 		.word	-2147483647
 1370              		.cfi_endproc
 1371              	.LFE61:
 1372              		.size	doTopMenu, .-doTopMenu
 1373              		.section	.text.DisplayDoPairsInfoMenu,"ax",%progbits
 1374              		.align	2
 1375              		.global	DisplayDoPairsInfoMenu
 1376              		.code	16
 1377              		.thumb_func
 1378              		.type	DisplayDoPairsInfoMenu, %function
 1379              	DisplayDoPairsInfoMenu:
 1380              	.LFB66:
 392:userMenuPatternSewingMachine01.c ****     switch(g_ptrMachineParameter->machineType)
 1381              		.loc 1 392 0
 1382              		.cfi_startproc
 1383              		@ args = 0, pretend = 0, frame = 0
 1384              		@ frame_needed = 0, uses_anonymous_args = 0
 1385              	.LVL157:
 1386 0000 10B5     		push	{r4, lr}
 1387              		.cfi_def_cfa_offset 8
 1388              		.cfi_offset 4, -8
 1389              		.cfi_offset 14, -4
 1390 0002 0400     		movs	r4, r0
 393:userMenuPatternSewingMachine01.c ****     {
 1391              		.loc 1 393 0
 1392 0004 0E4B     		ldr	r3, .L103
 1393 0006 1B68     		ldr	r3, [r3]
 1394 0008 1B78     		ldrb	r3, [r3]
 1395 000a 002B     		cmp	r3, #0
 1396 000c 02D0     		beq	.L101
 1397 000e 012B     		cmp	r3, #1
ARM GAS  C:\Users\theGu\AppData\Local\Temp\ccVU9Uhe.s 			page 41


 1398 0010 06D0     		beq	.L102
 1399 0012 0AE0     		b	.L100
 1400              	.L101:
 395:userMenuPatternSewingMachine01.c ****         case SEWING_MACHINE:  SetDrawUpDownTwoMenu(menu, "Trim",  "Pair(s)", "Pairs infos.");   bre
 1401              		.loc 1 395 0
 1402 0014 0B4B     		ldr	r3, .L103+4
 1403 0016 0C4A     		ldr	r2, .L103+8
 1404 0018 0C49     		ldr	r1, .L103+12
 1405 001a FFF7FEFF 		bl	SetDrawUpDownTwoMenu
 1406              	.LVL158:
 1407 001e 04E0     		b	.L100
 1408              	.LVL159:
 1409              	.L102:
 396:userMenuPatternSewingMachine01.c ****         break;
 1410              		.loc 1 396 0
 1411 0020 084B     		ldr	r3, .L103+4
 1412 0022 094A     		ldr	r2, .L103+8
 1413 0024 0A49     		ldr	r1, .L103+16
 1414 0026 FFF7FEFF 		bl	SetDrawUpDownTwoMenu
 1415              	.LVL160:
 1416              	.L100:
 400:userMenuPatternSewingMachine01.c ****    
 1417              		.loc 1 400 0
 1418 002a 0122     		movs	r2, #1
 1419 002c 3B23     		movs	r3, #59
 1420 002e E254     		strb	r2, [r4, r3]
 402:userMenuPatternSewingMachine01.c **** }
 1421              		.loc 1 402 0
 1422 0030 293B     		subs	r3, r3, #41
 1423 0032 1032     		adds	r2, r2, #16
 1424 0034 0749     		ldr	r1, .L103+20
 1425 0036 0848     		ldr	r0, .L103+24
 1426 0038 FFF7FEFF 		bl	SetDrawBottomButtons
 1427              	.LVL161:
 403:userMenuPatternSewingMachine01.c **** 
 1428              		.loc 1 403 0
 1429              		@ sp needed
 1430              	.LVL162:
 1431 003c 10BD     		pop	{r4, pc}
 1432              	.L104:
 1433 003e C046     		.align	2
 1434              	.L103:
 1435 0040 00000000 		.word	g_ptrMachineParameter
 1436 0044 48000000 		.word	.LC35
 1437 0048 58000000 		.word	.LC37
 1438 004c 60000000 		.word	.LC39
 1439 0050 68000000 		.word	.LC41
 1440 0054 00000000 		.word	.LC4
 1441 0058 08000000 		.word	.LC6
 1442              		.cfi_endproc
 1443              	.LFE66:
 1444              		.size	DisplayDoPairsInfoMenu, .-DisplayDoPairsInfoMenu
 1445              		.section	.text.DisplayDoPairsInfoMenuLeftValueChange,"ax",%progbits
 1446              		.align	2
 1447              		.global	DisplayDoPairsInfoMenuLeftValueChange
 1448              		.code	16
 1449              		.thumb_func
ARM GAS  C:\Users\theGu\AppData\Local\Temp\ccVU9Uhe.s 			page 42


 1450              		.type	DisplayDoPairsInfoMenuLeftValueChange, %function
 1451              	DisplayDoPairsInfoMenuLeftValueChange:
 1452              	.LFB68:
 419:userMenuPatternSewingMachine01.c ****     SetButtonText(&menu->btn[UPDOWNTWO_FIRST_VALUE],"%d",value);    // left value   
 1453              		.loc 1 419 0
 1454              		.cfi_startproc
 1455              		@ args = 0, pretend = 0, frame = 0
 1456              		@ frame_needed = 0, uses_anonymous_args = 0
 1457              	.LVL163:
 1458 0000 10B5     		push	{r4, lr}
 1459              		.cfi_def_cfa_offset 8
 1460              		.cfi_offset 4, -8
 1461              		.cfi_offset 14, -4
 1462 0002 0A00     		movs	r2, r1
 420:userMenuPatternSewingMachine01.c ****     DrawButton(&menu->btn[UPDOWNTWO_FIRST_VALUE]);
 1463              		.loc 1 420 0
 1464 0004 C030     		adds	r0, r0, #192
 1465              	.LVL164:
 1466 0006 0400     		movs	r4, r0
 1467 0008 0349     		ldr	r1, .L106
 1468              	.LVL165:
 1469 000a FFF7FEFF 		bl	SetButtonText
 1470              	.LVL166:
 421:userMenuPatternSewingMachine01.c **** }
 1471              		.loc 1 421 0
 1472 000e 2000     		movs	r0, r4
 1473 0010 FFF7FEFF 		bl	DrawButton
 1474              	.LVL167:
 422:userMenuPatternSewingMachine01.c **** void DisplayDoPairsInfoMenuRightValueChange(UP_DOWN_TWO_MENU *menu, uint16 value)
 1475              		.loc 1 422 0
 1476              		@ sp needed
 1477              	.LVL168:
 1478 0014 10BD     		pop	{r4, pc}
 1479              	.L107:
 1480 0016 C046     		.align	2
 1481              	.L106:
 1482 0018 70000000 		.word	.LC45
 1483              		.cfi_endproc
 1484              	.LFE68:
 1485              		.size	DisplayDoPairsInfoMenuLeftValueChange, .-DisplayDoPairsInfoMenuLeftValueChange
 1486              		.section	.text.DisplayDoPairsInfoMenuRightValueChange,"ax",%progbits
 1487              		.align	2
 1488              		.global	DisplayDoPairsInfoMenuRightValueChange
 1489              		.code	16
 1490              		.thumb_func
 1491              		.type	DisplayDoPairsInfoMenuRightValueChange, %function
 1492              	DisplayDoPairsInfoMenuRightValueChange:
 1493              	.LFB69:
 424:userMenuPatternSewingMachine01.c ****     SetButtonText(&menu->btn[UPDOWNTWO_SECOND_VALUE],"%3.1f",value/10.); // right value   
 1494              		.loc 1 424 0
 1495              		.cfi_startproc
 1496              		@ args = 0, pretend = 0, frame = 0
 1497              		@ frame_needed = 0, uses_anonymous_args = 0
 1498              	.LVL169:
 1499 0000 10B5     		push	{r4, lr}
 1500              		.cfi_def_cfa_offset 8
 1501              		.cfi_offset 4, -8
ARM GAS  C:\Users\theGu\AppData\Local\Temp\ccVU9Uhe.s 			page 43


 1502              		.cfi_offset 14, -4
 425:userMenuPatternSewingMachine01.c ****     DrawButton(&menu->btn[UPDOWNTWO_SECOND_VALUE]);     
 1503              		.loc 1 425 0
 1504 0002 441C     		adds	r4, r0, #1
 1505 0004 FF34     		adds	r4, r4, #255
 1506 0006 0800     		movs	r0, r1
 1507              	.LVL170:
 1508 0008 FFF7FEFF 		bl	__aeabi_i2d
 1509              	.LVL171:
 1510 000c 0022     		movs	r2, #0
 1511 000e 064B     		ldr	r3, .L109
 1512 0010 FFF7FEFF 		bl	__aeabi_ddiv
 1513              	.LVL172:
 1514 0014 0200     		movs	r2, r0
 1515 0016 0B00     		movs	r3, r1
 1516 0018 0449     		ldr	r1, .L109+4
 1517 001a 2000     		movs	r0, r4
 1518 001c FFF7FEFF 		bl	SetButtonText
 1519              	.LVL173:
 426:userMenuPatternSewingMachine01.c **** }
 1520              		.loc 1 426 0
 1521 0020 2000     		movs	r0, r4
 1522 0022 FFF7FEFF 		bl	DrawButton
 1523              	.LVL174:
 427:userMenuPatternSewingMachine01.c **** 
 1524              		.loc 1 427 0
 1525              		@ sp needed
 1526              	.LVL175:
 1527 0026 10BD     		pop	{r4, pc}
 1528              	.L110:
 1529              		.align	2
 1530              	.L109:
 1531 0028 00002440 		.word	1076101120
 1532 002c 74000000 		.word	.LC47
 1533              		.cfi_endproc
 1534              	.LFE69:
 1535              		.size	DisplayDoPairsInfoMenuRightValueChange, .-DisplayDoPairsInfoMenuRightValueChange
 1536              		.global	__aeabi_f2uiz
 1537              		.section	.text.DisplayDoPairsInfoMenuSelectValue,"ax",%progbits
 1538              		.align	2
 1539              		.global	DisplayDoPairsInfoMenuSelectValue
 1540              		.code	16
 1541              		.thumb_func
 1542              		.type	DisplayDoPairsInfoMenuSelectValue, %function
 1543              	DisplayDoPairsInfoMenuSelectValue:
 1544              	.LFB67:
 406:userMenuPatternSewingMachine01.c ****     SetButtonStyleColor(&menu->btn[UPDOWNTWO_FIRST_TEXT],  (selectValue==0) ? BUTTON_STYLE_WHITE : 
 1545              		.loc 1 406 0
 1546              		.cfi_startproc
 1547              		@ args = 0, pretend = 0, frame = 8
 1548              		@ frame_needed = 0, uses_anonymous_args = 0
 1549              	.LVL176:
 1550 0000 F0B5     		push	{r4, r5, r6, r7, lr}
 1551              		.cfi_def_cfa_offset 20
 1552              		.cfi_offset 4, -20
 1553              		.cfi_offset 5, -16
 1554              		.cfi_offset 6, -12
ARM GAS  C:\Users\theGu\AppData\Local\Temp\ccVU9Uhe.s 			page 44


 1555              		.cfi_offset 7, -8
 1556              		.cfi_offset 14, -4
 1557 0002 83B0     		sub	sp, sp, #12
 1558              		.cfi_def_cfa_offset 32
 1559 0004 0600     		movs	r6, r0
 1560 0006 0F00     		movs	r7, r1
 1561 0008 0092     		str	r2, [sp]
 1562 000a 0193     		str	r3, [sp, #4]
 407:userMenuPatternSewingMachine01.c ****     SetButtonStyleColor(&menu->btn[UPDOWNTWO_FIRST_VALUE], (selectValue==0) ? BUTTON_STYLE_YELLOW: 
 1563              		.loc 1 407 0
 1564 000c 0500     		movs	r5, r0
 1565 000e 4035     		adds	r5, r5, #64
 1566 0010 0029     		cmp	r1, #0
 1567 0012 01D1     		bne	.L116
 1568 0014 0521     		movs	r1, #5
 1569              	.LVL177:
 1570 0016 00E0     		b	.L112
 1571              	.LVL178:
 1572              	.L116:
 1573 0018 0C21     		movs	r1, #12
 1574              	.LVL179:
 1575              	.L112:
 407:userMenuPatternSewingMachine01.c ****     SetButtonStyleColor(&menu->btn[UPDOWNTWO_FIRST_VALUE], (selectValue==0) ? BUTTON_STYLE_YELLOW: 
 1576              		.loc 1 407 0 is_stmt 0 discriminator 4
 1577 001a 2800     		movs	r0, r5
 1578              	.LVL180:
 1579 001c FFF7FEFF 		bl	SetButtonStyleColor
 1580              	.LVL181:
 408:userMenuPatternSewingMachine01.c ****     SetButtonStyleColor(&menu->btn[UPDOWNTWO_SECOND_TEXT], (selectValue==1) ? BUTTON_STYLE_WHITE : 
 1581              		.loc 1 408 0 is_stmt 1 discriminator 4
 1582 0020 3000     		movs	r0, r6
 1583 0022 C030     		adds	r0, r0, #192
 1584 0024 002F     		cmp	r7, #0
 1585 0026 01D1     		bne	.L117
 408:userMenuPatternSewingMachine01.c ****     SetButtonStyleColor(&menu->btn[UPDOWNTWO_SECOND_TEXT], (selectValue==1) ? BUTTON_STYLE_WHITE : 
 1586              		.loc 1 408 0 is_stmt 0
 1587 0028 0821     		movs	r1, #8
 1588 002a 00E0     		b	.L113
 1589              	.L117:
 1590 002c 0C21     		movs	r1, #12
 1591              	.L113:
 408:userMenuPatternSewingMachine01.c ****     SetButtonStyleColor(&menu->btn[UPDOWNTWO_SECOND_TEXT], (selectValue==1) ? BUTTON_STYLE_WHITE : 
 1592              		.loc 1 408 0 discriminator 4
 1593 002e FFF7FEFF 		bl	SetButtonStyleColor
 1594              	.LVL182:
 409:userMenuPatternSewingMachine01.c ****     SetButtonStyleColor(&menu->btn[UPDOWNTWO_SECOND_VALUE],(selectValue==1) ? BUTTON_STYLE_YELLOW: 
 1595              		.loc 1 409 0 is_stmt 1 discriminator 4
 1596 0032 3400     		movs	r4, r6
 1597 0034 8034     		adds	r4, r4, #128
 1598 0036 012F     		cmp	r7, #1
 1599 0038 01D1     		bne	.L118
 409:userMenuPatternSewingMachine01.c ****     SetButtonStyleColor(&menu->btn[UPDOWNTWO_SECOND_VALUE],(selectValue==1) ? BUTTON_STYLE_YELLOW: 
 1600              		.loc 1 409 0 is_stmt 0
 1601 003a 0521     		movs	r1, #5
 1602 003c 00E0     		b	.L114
 1603              	.L118:
 1604 003e 0C21     		movs	r1, #12
ARM GAS  C:\Users\theGu\AppData\Local\Temp\ccVU9Uhe.s 			page 45


 1605              	.L114:
 409:userMenuPatternSewingMachine01.c ****     SetButtonStyleColor(&menu->btn[UPDOWNTWO_SECOND_VALUE],(selectValue==1) ? BUTTON_STYLE_YELLOW: 
 1606              		.loc 1 409 0 discriminator 4
 1607 0040 2000     		movs	r0, r4
 1608 0042 FFF7FEFF 		bl	SetButtonStyleColor
 1609              	.LVL183:
 410:userMenuPatternSewingMachine01.c ****     
 1610              		.loc 1 410 0 is_stmt 1 discriminator 4
 1611 0046 701C     		adds	r0, r6, #1
 1612 0048 FF30     		adds	r0, r0, #255
 1613 004a 012F     		cmp	r7, #1
 1614 004c 01D1     		bne	.L119
 410:userMenuPatternSewingMachine01.c ****     
 1615              		.loc 1 410 0 is_stmt 0
 1616 004e 0821     		movs	r1, #8
 1617 0050 00E0     		b	.L115
 1618              	.L119:
 1619 0052 0C21     		movs	r1, #12
 1620              	.L115:
 410:userMenuPatternSewingMachine01.c ****     
 1621              		.loc 1 410 0 discriminator 4
 1622 0054 FFF7FEFF 		bl	SetButtonStyleColor
 1623              	.LVL184:
 412:userMenuPatternSewingMachine01.c ****     DrawButton(&menu->btn[UPDOWNTWO_SECOND_TEXT]);
 1624              		.loc 1 412 0 is_stmt 1 discriminator 4
 1625 0058 2800     		movs	r0, r5
 1626 005a FFF7FEFF 		bl	DrawButton
 1627              	.LVL185:
 413:userMenuPatternSewingMachine01.c ****     
 1628              		.loc 1 413 0 discriminator 4
 1629 005e 2000     		movs	r0, r4
 1630 0060 FFF7FEFF 		bl	DrawButton
 1631              	.LVL186:
 415:userMenuPatternSewingMachine01.c ****     DisplayDoPairsInfoMenuRightValueChange(menu,secondValue);    
 1632              		.loc 1 415 0 discriminator 4
 1633 0064 0099     		ldr	r1, [sp]
 1634 0066 3000     		movs	r0, r6
 1635 0068 FFF7FEFF 		bl	DisplayDoPairsInfoMenuLeftValueChange
 1636              	.LVL187:
 416:userMenuPatternSewingMachine01.c **** }
 1637              		.loc 1 416 0 discriminator 4
 1638 006c 0198     		ldr	r0, [sp, #4]
 1639 006e FFF7FEFF 		bl	__aeabi_f2uiz
 1640              	.LVL188:
 1641 0072 81B2     		uxth	r1, r0
 1642 0074 3000     		movs	r0, r6
 1643 0076 FFF7FEFF 		bl	DisplayDoPairsInfoMenuRightValueChange
 1644              	.LVL189:
 417:userMenuPatternSewingMachine01.c **** void DisplayDoPairsInfoMenuLeftValueChange(UP_DOWN_TWO_MENU *menu, uint16 value)
 1645              		.loc 1 417 0 discriminator 4
 1646 007a 03B0     		add	sp, sp, #12
 1647              		@ sp needed
 1648              	.LVL190:
 1649 007c F0BD     		pop	{r4, r5, r6, r7, pc}
 1650              		.cfi_endproc
 1651              	.LFE67:
 1652              		.size	DisplayDoPairsInfoMenuSelectValue, .-DisplayDoPairsInfoMenuSelectValue
ARM GAS  C:\Users\theGu\AppData\Local\Temp\ccVU9Uhe.s 			page 46


 1653 007e C046     		.section	.text.doPairsInfoMenu,"ax",%progbits
 1654              		.align	2
 1655              		.global	doPairsInfoMenu
 1656              		.code	16
 1657              		.thumb_func
 1658              		.type	doPairsInfoMenu, %function
 1659              	doPairsInfoMenu:
 1660              	.LFB65:
 289:userMenuPatternSewingMachine01.c ****     MENUNODE *thisMenu = (MENUNODE *) this;    
 1661              		.loc 1 289 0
 1662              		.cfi_startproc
 1663              		@ args = 0, pretend = 0, frame = 8
 1664              		@ frame_needed = 0, uses_anonymous_args = 0
 1665              	.LVL191:
 1666 0000 10B5     		push	{r4, lr}
 1667              		.cfi_def_cfa_offset 8
 1668              		.cfi_offset 4, -8
 1669              		.cfi_offset 14, -4
 1670 0002 82B0     		sub	sp, sp, #8
 1671              		.cfi_def_cfa_offset 16
 1672              	.LVL192:
 296:userMenuPatternSewingMachine01.c ****     {
 1673              		.loc 1 296 0
 1674 0004 0029     		cmp	r1, #0
 1675 0006 28D0     		beq	.L122
 1676 0008 0129     		cmp	r1, #1
 1677 000a 00D0     		beq	.LCB1643
 1678 000c C3E0     		b	.L143	@long jump
 1679              	.LCB1643:
 300:userMenuPatternSewingMachine01.c ****                 
 1680              		.loc 1 300 0
 1681 000e 6348     		ldr	r0, .L144
 1682              	.LVL193:
 1683 0010 3430     		adds	r0, r0, #52
 1684 0012 FFF7FEFF 		bl	DisplayDoPairsInfoMenu
 1685              	.LVL194:
 302:userMenuPatternSewingMachine01.c ****                 {
 1686              		.loc 1 302 0
 1687 0016 624B     		ldr	r3, .L144+4
 1688 0018 1B68     		ldr	r3, [r3]
 1689 001a 1A78     		ldrb	r2, [r3]
 1690 001c 002A     		cmp	r2, #0
 1691 001e 02D0     		beq	.L125
 1692 0020 012A     		cmp	r2, #1
 1693 0022 06D0     		beq	.L126
 1694 0024 0AE0     		b	.L124
 1695              	.L125:
 305:userMenuPatternSewingMachine01.c ****                         rightValue = g_ptrMachineParameter->patternPair;
 1696              		.loc 1 305 0
 1697 0026 9988     		ldrh	r1, [r3, #4]
 1698 0028 5E4A     		ldr	r2, .L144+8
 1699 002a 5185     		strh	r1, [r2, #42]
 306:userMenuPatternSewingMachine01.c ****                         break;
 1700              		.loc 1 306 0
 1701 002c DB88     		ldrh	r3, [r3, #6]
 1702 002e 9385     		strh	r3, [r2, #44]
 307:userMenuPatternSewingMachine01.c ****                     case SEWING_MACHINE:
ARM GAS  C:\Users\theGu\AppData\Local\Temp\ccVU9Uhe.s 			page 47


 1703              		.loc 1 307 0
 1704 0030 04E0     		b	.L124
 1705              	.L126:
 309:userMenuPatternSewingMachine01.c ****                         rightValue = g_ptrMachineParameter->sewingPair;
 1706              		.loc 1 309 0
 1707 0032 5989     		ldrh	r1, [r3, #10]
 1708 0034 5B4A     		ldr	r2, .L144+8
 1709 0036 5185     		strh	r1, [r2, #42]
 310:userMenuPatternSewingMachine01.c ****                         break;
 1710              		.loc 1 310 0
 1711 0038 9B89     		ldrh	r3, [r3, #12]
 1712 003a 9385     		strh	r3, [r2, #44]
 1713              	.L124:
 315:userMenuPatternSewingMachine01.c ****             }
 1714              		.loc 1 315 0
 1715 003c 594C     		ldr	r4, .L144+8
 1716 003e A08D     		ldrh	r0, [r4, #44]
 1717 0040 FFF7FEFF 		bl	__aeabi_ui2f
 1718              	.LVL195:
 1719 0044 031C     		adds	r3, r0, #0
 1720 0046 628D     		ldrh	r2, [r4, #42]
 1721 0048 7421     		movs	r1, #116
 1722 004a 5748     		ldr	r0, .L144+12
 1723 004c 415C     		ldrb	r1, [r0, r1]
 1724 004e 5348     		ldr	r0, .L144
 1725 0050 3430     		adds	r0, r0, #52
 1726 0052 FFF7FEFF 		bl	DisplayDoPairsInfoMenuSelectValue
 1727              	.LVL196:
 388:userMenuPatternSewingMachine01.c **** }
 1728              		.loc 1 388 0
 1729 0056 5548     		ldr	r0, .L144+16
 317:userMenuPatternSewingMachine01.c **** 
 1730              		.loc 1 317 0
 1731 0058 9EE0     		b	.L121
 1732              	.LVL197:
 1733              	.L122:
 1734              	.LBB6:
 321:userMenuPatternSewingMachine01.c ****                 if(tc.isClick == FALSE) break;
 1735              		.loc 1 321 0
 1736 005a 6846     		mov	r0, sp
 1737              	.LVL198:
 1738 005c FFF7FEFF 		bl	GetTouch
 1739              	.LVL199:
 322:userMenuPatternSewingMachine01.c ****                 uint16 indexClick = getIndexOfClickedButton(&tc, menu.btn,7);
 1740              		.loc 1 322 0
 1741 0060 6B46     		mov	r3, sp
 1742 0062 1B88     		ldrh	r3, [r3]
 1743 0064 002B     		cmp	r3, #0
 1744 0066 00D1     		bne	.LCB1711
 1745 0068 90E0     		b	.L127	@long jump
 1746              	.LCB1711:
 323:userMenuPatternSewingMachine01.c ****                 switch(indexClick)
 1747              		.loc 1 323 0
 1748 006a 0722     		movs	r2, #7
 1749 006c 4B49     		ldr	r1, .L144
 1750 006e 3431     		adds	r1, r1, #52
 1751 0070 6846     		mov	r0, sp
ARM GAS  C:\Users\theGu\AppData\Local\Temp\ccVU9Uhe.s 			page 48


 1752 0072 FFF7FEFF 		bl	getIndexOfClickedButton
 1753              	.LVL200:
 324:userMenuPatternSewingMachine01.c ****                 {
 1754              		.loc 1 324 0
 1755 0076 0628     		cmp	r0, #6
 1756 0078 65D8     		bhi	.L128
 1757 007a 8000     		lsls	r0, r0, #2
 1758              	.LVL201:
 1759 007c 4C4B     		ldr	r3, .L144+20
 1760 007e 1B58     		ldr	r3, [r3, r0]
 1761 0080 9F46     		mov	pc, r3
 1762              		.section	.rodata
 1763              		.align	2
 1764              	.L130:
 1765 001c 46010000 		.word	.L128
 1766 0020 82000000 		.word	.L129
 1767 0024 A2000000 		.word	.L131
 1768 0028 82000000 		.word	.L129
 1769 002c A2000000 		.word	.L131
 1770 0030 C2000000 		.word	.L132
 1771 0034 08010000 		.word	.L133
 1772              		.section	.text.doPairsInfoMenu
 1773              	.L129:
 328:userMenuPatternSewingMachine01.c ****                         DisplayDoPairsInfoMenuSelectValue(&menu,selectValue, leftValue, rightValue)
 1774              		.loc 1 328 0
 1775 0082 0021     		movs	r1, #0
 1776 0084 7423     		movs	r3, #116
 1777 0086 484A     		ldr	r2, .L144+12
 1778 0088 D152     		strh	r1, [r2, r3]
 329:userMenuPatternSewingMachine01.c ****                         break;
 1779              		.loc 1 329 0
 1780 008a 464C     		ldr	r4, .L144+8
 1781 008c A08D     		ldrh	r0, [r4, #44]
 1782 008e FFF7FEFF 		bl	__aeabi_ui2f
 1783              	.LVL202:
 1784 0092 031C     		adds	r3, r0, #0
 1785 0094 628D     		ldrh	r2, [r4, #42]
 1786 0096 0021     		movs	r1, #0
 1787 0098 4048     		ldr	r0, .L144
 1788 009a 3430     		adds	r0, r0, #52
 1789 009c FFF7FEFF 		bl	DisplayDoPairsInfoMenuSelectValue
 1790              	.LVL203:
 330:userMenuPatternSewingMachine01.c ****                     case UPDOWNTWO_SECOND_TEXT:  // right
 1791              		.loc 1 330 0
 1792 00a0 72E0     		b	.L134
 1793              	.L131:
 333:userMenuPatternSewingMachine01.c ****                         DisplayDoPairsInfoMenuSelectValue(&menu,selectValue, leftValue, rightValue)
 1794              		.loc 1 333 0
 1795 00a2 0121     		movs	r1, #1
 1796 00a4 7423     		movs	r3, #116
 1797 00a6 404A     		ldr	r2, .L144+12
 1798 00a8 D152     		strh	r1, [r2, r3]
 334:userMenuPatternSewingMachine01.c ****                         break;                    
 1799              		.loc 1 334 0
 1800 00aa 3E4C     		ldr	r4, .L144+8
 1801 00ac A08D     		ldrh	r0, [r4, #44]
 1802 00ae FFF7FEFF 		bl	__aeabi_ui2f
ARM GAS  C:\Users\theGu\AppData\Local\Temp\ccVU9Uhe.s 			page 49


 1803              	.LVL204:
 1804 00b2 031C     		adds	r3, r0, #0
 1805 00b4 628D     		ldrh	r2, [r4, #42]
 1806 00b6 0121     		movs	r1, #1
 1807 00b8 3848     		ldr	r0, .L144
 1808 00ba 3430     		adds	r0, r0, #52
 1809 00bc FFF7FEFF 		bl	DisplayDoPairsInfoMenuSelectValue
 1810              	.LVL205:
 335:userMenuPatternSewingMachine01.c ****                     case UPDOWNTWO_UP_BUTTON: // for up
 1811              		.loc 1 335 0
 1812 00c0 62E0     		b	.L134
 1813              	.L132:
 337:userMenuPatternSewingMachine01.c ****                         {
 1814              		.loc 1 337 0
 1815 00c2 7423     		movs	r3, #116
 1816 00c4 384A     		ldr	r2, .L144+12
 1817 00c6 D35A     		ldrh	r3, [r2, r3]
 1818 00c8 002B     		cmp	r3, #0
 1819 00ca 0DD1     		bne	.L135
 337:userMenuPatternSewingMachine01.c ****                         {
 1820              		.loc 1 337 0 is_stmt 0 discriminator 1
 1821 00cc 354A     		ldr	r2, .L144+8
 1822 00ce 528D     		ldrh	r2, [r2, #42]
 1823 00d0 3849     		ldr	r1, .L144+24
 1824 00d2 8A42     		cmp	r2, r1
 1825 00d4 08D8     		bhi	.L135
 339:userMenuPatternSewingMachine01.c ****                             DisplayDoPairsInfoMenuLeftValueChange(&menu,leftValue);
 1826              		.loc 1 339 0 is_stmt 1
 1827 00d6 0132     		adds	r2, r2, #1
 1828 00d8 91B2     		uxth	r1, r2
 1829 00da 324B     		ldr	r3, .L144+8
 1830 00dc 5985     		strh	r1, [r3, #42]
 340:userMenuPatternSewingMachine01.c ****                         }
 1831              		.loc 1 340 0
 1832 00de 2F48     		ldr	r0, .L144
 1833 00e0 3430     		adds	r0, r0, #52
 1834 00e2 FFF7FEFF 		bl	DisplayDoPairsInfoMenuLeftValueChange
 1835              	.LVL206:
 1836 00e6 4FE0     		b	.L134
 1837              	.L135:
 342:userMenuPatternSewingMachine01.c ****                         {
 1838              		.loc 1 342 0
 1839 00e8 012B     		cmp	r3, #1
 1840 00ea 4DD1     		bne	.L134
 342:userMenuPatternSewingMachine01.c ****                         {
 1841              		.loc 1 342 0 is_stmt 0 discriminator 1
 1842 00ec 2D4B     		ldr	r3, .L144+8
 1843 00ee 9B8D     		ldrh	r3, [r3, #44]
 1844 00f0 304A     		ldr	r2, .L144+24
 1845 00f2 9342     		cmp	r3, r2
 1846 00f4 48D8     		bhi	.L134
 344:userMenuPatternSewingMachine01.c ****                             DisplayDoPairsInfoMenuRightValueChange(&menu,rightValue);
 1847              		.loc 1 344 0 is_stmt 1
 1848 00f6 0133     		adds	r3, r3, #1
 1849 00f8 99B2     		uxth	r1, r3
 1850 00fa 2A4B     		ldr	r3, .L144+8
 1851 00fc 9985     		strh	r1, [r3, #44]
ARM GAS  C:\Users\theGu\AppData\Local\Temp\ccVU9Uhe.s 			page 50


 345:userMenuPatternSewingMachine01.c ****                         }
 1852              		.loc 1 345 0
 1853 00fe 2748     		ldr	r0, .L144
 1854 0100 3430     		adds	r0, r0, #52
 1855 0102 FFF7FEFF 		bl	DisplayDoPairsInfoMenuRightValueChange
 1856              	.LVL207:
 1857 0106 3FE0     		b	.L134
 1858              	.L133:
 349:userMenuPatternSewingMachine01.c ****                         {
 1859              		.loc 1 349 0
 1860 0108 7423     		movs	r3, #116
 1861 010a 274A     		ldr	r2, .L144+12
 1862 010c D35A     		ldrh	r3, [r2, r3]
 1863 010e 002B     		cmp	r3, #0
 1864 0110 0BD1     		bne	.L136
 349:userMenuPatternSewingMachine01.c ****                         {
 1865              		.loc 1 349 0 is_stmt 0 discriminator 1
 1866 0112 244A     		ldr	r2, .L144+8
 1867 0114 518D     		ldrh	r1, [r2, #42]
 1868 0116 0129     		cmp	r1, #1
 1869 0118 07D9     		bls	.L136
 351:userMenuPatternSewingMachine01.c ****                             DisplayDoPairsInfoMenuLeftValueChange(&menu,leftValue);
 1870              		.loc 1 351 0 is_stmt 1
 1871 011a 0139     		subs	r1, r1, #1
 1872 011c 89B2     		uxth	r1, r1
 1873 011e 5185     		strh	r1, [r2, #42]
 352:userMenuPatternSewingMachine01.c ****                         }                        
 1874              		.loc 1 352 0
 1875 0120 1E48     		ldr	r0, .L144
 1876 0122 3430     		adds	r0, r0, #52
 1877 0124 FFF7FEFF 		bl	DisplayDoPairsInfoMenuLeftValueChange
 1878              	.LVL208:
 1879 0128 2EE0     		b	.L134
 1880              	.L136:
 354:userMenuPatternSewingMachine01.c ****                         {
 1881              		.loc 1 354 0
 1882 012a 012B     		cmp	r3, #1
 1883 012c 2CD1     		bne	.L134
 354:userMenuPatternSewingMachine01.c ****                         {
 1884              		.loc 1 354 0 is_stmt 0 discriminator 1
 1885 012e 1D4B     		ldr	r3, .L144+8
 1886 0130 998D     		ldrh	r1, [r3, #44]
 1887 0132 0129     		cmp	r1, #1
 1888 0134 28D9     		bls	.L134
 356:userMenuPatternSewingMachine01.c ****                             DisplayDoPairsInfoMenuRightValueChange(&menu,rightValue);
 1889              		.loc 1 356 0 is_stmt 1
 1890 0136 0139     		subs	r1, r1, #1
 1891 0138 89B2     		uxth	r1, r1
 1892 013a 9985     		strh	r1, [r3, #44]
 357:userMenuPatternSewingMachine01.c ****                         }                 
 1893              		.loc 1 357 0
 1894 013c 1748     		ldr	r0, .L144
 1895 013e 3430     		adds	r0, r0, #52
 1896 0140 FFF7FEFF 		bl	DisplayDoPairsInfoMenuRightValueChange
 1897              	.LVL209:
 1898 0144 20E0     		b	.L134
 1899              	.L128:
ARM GAS  C:\Users\theGu\AppData\Local\Temp\ccVU9Uhe.s 			page 51


 361:userMenuPatternSewingMachine01.c ****                         {
 1900              		.loc 1 361 0
 1901 0146 0222     		movs	r2, #2
 1902 0148 1B49     		ldr	r1, .L144+28
 1903 014a 6846     		mov	r0, sp
 1904 014c FFF7FEFF 		bl	getIndexOfClickedButton
 1905              	.LVL210:
 1906 0150 0028     		cmp	r0, #0
 1907 0152 1DD0     		beq	.L137
 1908 0154 0128     		cmp	r0, #1
 1909 0156 17D1     		bne	.L134
 366:userMenuPatternSewingMachine01.c ****                                 {
 1910              		.loc 1 366 0
 1911 0158 114B     		ldr	r3, .L144+4
 1912 015a 1B68     		ldr	r3, [r3]
 1913 015c 1A78     		ldrb	r2, [r3]
 1914 015e 002A     		cmp	r2, #0
 1915 0160 02D0     		beq	.L140
 1916 0162 012A     		cmp	r2, #1
 1917 0164 06D0     		beq	.L141
 1918 0166 0AE0     		b	.L139
 1919              	.L140:
 369:userMenuPatternSewingMachine01.c ****                                         g_ptrMachineParameter->patternPair      = rightValue;
 1920              		.loc 1 369 0
 1921 0168 0E4A     		ldr	r2, .L144+8
 1922 016a 518D     		ldrh	r1, [r2, #42]
 1923 016c 9980     		strh	r1, [r3, #4]
 370:userMenuPatternSewingMachine01.c ****                                         break;
 1924              		.loc 1 370 0
 1925 016e 928D     		ldrh	r2, [r2, #44]
 1926 0170 DA80     		strh	r2, [r3, #6]
 371:userMenuPatternSewingMachine01.c ****                                     case SEWING_MACHINE:
 1927              		.loc 1 371 0
 1928 0172 04E0     		b	.L139
 1929              	.L141:
 373:userMenuPatternSewingMachine01.c ****                                         g_ptrMachineParameter->sewingPair     = rightValue; 
 1930              		.loc 1 373 0
 1931 0174 0B4A     		ldr	r2, .L144+8
 1932 0176 518D     		ldrh	r1, [r2, #42]
 1933 0178 5981     		strh	r1, [r3, #10]
 374:userMenuPatternSewingMachine01.c ****                                         break;
 1934              		.loc 1 374 0
 1935 017a 928D     		ldrh	r2, [r2, #44]
 1936 017c 9A81     		strh	r2, [r3, #12]
 1937              	.L139:
 378:userMenuPatternSewingMachine01.c ****                                 SaveExternalFlashConfig();
 1938              		.loc 1 378 0
 1939 017e FFF7FEFF 		bl	ShowWaitMessage
 1940              	.LVL211:
 379:userMenuPatternSewingMachine01.c ****                                 return MENU_RETURN_PARENT;
 1941              		.loc 1 379 0
 1942 0182 FFF7FEFF 		bl	SaveExternalFlashConfig
 1943              	.LVL212:
 380:userMenuPatternSewingMachine01.c ****                             }
 1944              		.loc 1 380 0
 1945 0186 03E0     		b	.L137
 1946              	.L134:
ARM GAS  C:\Users\theGu\AppData\Local\Temp\ccVU9Uhe.s 			page 52


 1947              	.LBE6:
 388:userMenuPatternSewingMachine01.c **** }
 1948              		.loc 1 388 0 discriminator 1
 1949 0188 0848     		ldr	r0, .L144+16
 386:userMenuPatternSewingMachine01.c ****     }
 1950              		.loc 1 386 0 discriminator 1
 1951 018a 05E0     		b	.L121
 1952              	.L127:
 388:userMenuPatternSewingMachine01.c **** }
 1953              		.loc 1 388 0
 1954 018c 0748     		ldr	r0, .L144+16
 1955 018e 03E0     		b	.L121
 1956              	.L137:
 1957              	.LBB7:
 363:userMenuPatternSewingMachine01.c ****                             case BOTTOM_RIGHT: 
 1958              		.loc 1 363 0 discriminator 1
 1959 0190 8020     		movs	r0, #128
 1960 0192 0006     		lsls	r0, r0, #24
 1961 0194 00E0     		b	.L121
 1962              	.LVL213:
 1963              	.L143:
 1964              	.LBE7:
 388:userMenuPatternSewingMachine01.c **** }
 1965              		.loc 1 388 0
 1966 0196 0548     		ldr	r0, .L144+16
 1967              	.LVL214:
 1968              	.L121:
 389:userMenuPatternSewingMachine01.c **** 
 1969              		.loc 1 389 0
 1970 0198 02B0     		add	sp, sp, #8
 1971              		@ sp needed
 1972 019a 10BD     		pop	{r4, pc}
 1973              	.L145:
 1974              		.align	2
 1975              	.L144:
 1976 019c 00050000 		.word	.LANCHOR3
 1977 01a0 00000000 		.word	g_ptrMachineParameter
 1978 01a4 00000000 		.word	.LANCHOR1
 1979 01a8 80060000 		.word	.LANCHOR4
 1980 01ac 01000080 		.word	-2147483647
 1981 01b0 1C000000 		.word	.L130
 1982 01b4 0F270000 		.word	9999
 1983 01b8 00000000 		.word	g_btnBottom
 1984              		.cfi_endproc
 1985              	.LFE65:
 1986              		.size	doPairsInfoMenu, .-doPairsInfoMenu
 1987              		.section	.text.DisplayDoTargetInfoMenu,"ax",%progbits
 1988              		.align	2
 1989              		.global	DisplayDoTargetInfoMenu
 1990              		.code	16
 1991              		.thumb_func
 1992              		.type	DisplayDoTargetInfoMenu, %function
 1993              	DisplayDoTargetInfoMenu:
 1994              	.LFB71:
 527:userMenuPatternSewingMachine01.c ****     menu->inc[0] = 1;
 1995              		.loc 1 527 0
 1996              		.cfi_startproc
ARM GAS  C:\Users\theGu\AppData\Local\Temp\ccVU9Uhe.s 			page 53


 1997              		@ args = 0, pretend = 0, frame = 0
 1998              		@ frame_needed = 0, uses_anonymous_args = 0
 1999              	.LVL215:
 2000 0000 10B5     		push	{r4, lr}
 2001              		.cfi_def_cfa_offset 8
 2002              		.cfi_offset 4, -8
 2003              		.cfi_offset 14, -4
 2004 0002 0400     		movs	r4, r0
 528:userMenuPatternSewingMachine01.c ****     menu->inc[1] = 10;
 2005              		.loc 1 528 0
 2006 0004 0122     		movs	r2, #1
 2007 0006 8023     		movs	r3, #128
 2008 0008 9B00     		lsls	r3, r3, #2
 2009 000a C252     		strh	r2, [r0, r3]
 529:userMenuPatternSewingMachine01.c ****     menu->inc[2] = 100;
 2010              		.loc 1 529 0
 2011 000c 0932     		adds	r2, r2, #9
 2012 000e 0C4B     		ldr	r3, .L147
 2013 0010 C252     		strh	r2, [r0, r3]
 530:userMenuPatternSewingMachine01.c ****     
 2014              		.loc 1 530 0
 2015 0012 5A32     		adds	r2, r2, #90
 2016 0014 0233     		adds	r3, r3, #2
 2017 0016 C252     		strh	r2, [r0, r3]
 532:userMenuPatternSewingMachine01.c ****     
 2018              		.loc 1 532 0
 2019 0018 0A4A     		ldr	r2, .L147+4
 2020 001a 0B49     		ldr	r1, .L147+8
 2021 001c FFF7FEFF 		bl	SetDrawUpDownOneMenu
 2022              	.LVL216:
 534:userMenuPatternSewingMachine01.c ****     menu->btn[1].disable = TRUE; // for no click title
 2023              		.loc 1 534 0
 2024 0020 0123     		movs	r3, #1
 2025 0022 3B22     		movs	r2, #59
 2026 0024 0121     		movs	r1, #1
 2027 0026 A154     		strb	r1, [r4, r2]
 535:userMenuPatternSewingMachine01.c ****     menu->btn[2].disable = TRUE; // for no click title
 2028              		.loc 1 535 0
 2029 0028 4032     		adds	r2, r2, #64
 2030 002a A354     		strb	r3, [r4, r2]
 536:userMenuPatternSewingMachine01.c ****     
 2031              		.loc 1 536 0
 2032 002c 4032     		adds	r2, r2, #64
 2033 002e A354     		strb	r3, [r4, r2]
 538:userMenuPatternSewingMachine01.c **** }
 2034              		.loc 1 538 0
 2035 0030 1223     		movs	r3, #18
 2036 0032 AA3A     		subs	r2, r2, #170
 2037 0034 0549     		ldr	r1, .L147+12
 2038 0036 0648     		ldr	r0, .L147+16
 2039 0038 FFF7FEFF 		bl	SetDrawBottomButtons
 2040              	.LVL217:
 539:userMenuPatternSewingMachine01.c **** 
 2041              		.loc 1 539 0
 2042              		@ sp needed
 2043              	.LVL218:
 2044 003c 10BD     		pop	{r4, pc}
ARM GAS  C:\Users\theGu\AppData\Local\Temp\ccVU9Uhe.s 			page 54


 2045              	.L148:
 2046 003e C046     		.align	2
 2047              	.L147:
 2048 0040 02020000 		.word	514
 2049 0044 7C000000 		.word	.LC55
 2050 0048 8C000000 		.word	.LC57
 2051 004c 00000000 		.word	.LC4
 2052 0050 08000000 		.word	.LC6
 2053              		.cfi_endproc
 2054              	.LFE71:
 2055              		.size	DisplayDoTargetInfoMenu, .-DisplayDoTargetInfoMenu
 2056              		.section	.text.DisplayDoTargetInfoMenuValueChange,"ax",%progbits
 2057              		.align	2
 2058              		.global	DisplayDoTargetInfoMenuValueChange
 2059              		.code	16
 2060              		.thumb_func
 2061              		.type	DisplayDoTargetInfoMenuValueChange, %function
 2062              	DisplayDoTargetInfoMenuValueChange:
 2063              	.LFB73:
 554:userMenuPatternSewingMachine01.c ****     SetButtonText(&menu->btn[2],"%d",value);
 2064              		.loc 1 554 0
 2065              		.cfi_startproc
 2066              		@ args = 0, pretend = 0, frame = 0
 2067              		@ frame_needed = 0, uses_anonymous_args = 0
 2068              	.LVL219:
 2069 0000 10B5     		push	{r4, lr}
 2070              		.cfi_def_cfa_offset 8
 2071              		.cfi_offset 4, -8
 2072              		.cfi_offset 14, -4
 2073 0002 0A00     		movs	r2, r1
 555:userMenuPatternSewingMachine01.c ****     DrawButton(&menu->btn[2]);
 2074              		.loc 1 555 0
 2075 0004 8030     		adds	r0, r0, #128
 2076              	.LVL220:
 2077 0006 0400     		movs	r4, r0
 2078 0008 0349     		ldr	r1, .L150
 2079              	.LVL221:
 2080 000a FFF7FEFF 		bl	SetButtonText
 2081              	.LVL222:
 556:userMenuPatternSewingMachine01.c **** }
 2082              		.loc 1 556 0
 2083 000e 2000     		movs	r0, r4
 2084 0010 FFF7FEFF 		bl	DrawButton
 2085              	.LVL223:
 557:userMenuPatternSewingMachine01.c **** 
 2086              		.loc 1 557 0
 2087              		@ sp needed
 2088              	.LVL224:
 2089 0014 10BD     		pop	{r4, pc}
 2090              	.L151:
 2091 0016 C046     		.align	2
 2092              	.L150:
 2093 0018 70000000 		.word	.LC45
 2094              		.cfi_endproc
 2095              	.LFE73:
 2096              		.size	DisplayDoTargetInfoMenuValueChange, .-DisplayDoTargetInfoMenuValueChange
 2097              		.section	.text.DisplayDoTargetInfoMenuSelectValue,"ax",%progbits
ARM GAS  C:\Users\theGu\AppData\Local\Temp\ccVU9Uhe.s 			page 55


 2098              		.align	2
 2099              		.global	DisplayDoTargetInfoMenuSelectValue
 2100              		.code	16
 2101              		.thumb_func
 2102              		.type	DisplayDoTargetInfoMenuSelectValue, %function
 2103              	DisplayDoTargetInfoMenuSelectValue:
 2104              	.LFB72:
 542:userMenuPatternSewingMachine01.c ****     menu->btn[5].foregroundColor = ((selectIncre==0) ? ORANGE : DARKGREY);  // 1 incre
 2105              		.loc 1 542 0
 2106              		.cfi_startproc
 2107              		@ args = 0, pretend = 0, frame = 0
 2108              		@ frame_needed = 0, uses_anonymous_args = 0
 2109              	.LVL225:
 2110 0000 70B5     		push	{r4, r5, r6, lr}
 2111              		.cfi_def_cfa_offset 16
 2112              		.cfi_offset 4, -16
 2113              		.cfi_offset 5, -12
 2114              		.cfi_offset 6, -8
 2115              		.cfi_offset 14, -4
 2116 0002 0400     		movs	r4, r0
 2117 0004 1500     		movs	r5, r2
 543:userMenuPatternSewingMachine01.c ****     menu->btn[6].foregroundColor = ((selectIncre==1) ? ORANGE : DARKGREY);  // 2 incre  
 2118              		.loc 1 543 0
 2119 0006 0029     		cmp	r1, #0
 2120 0008 01D1     		bne	.L156
 2121 000a 154A     		ldr	r2, .L159
 2122              	.LVL226:
 2123 000c 00E0     		b	.L153
 2124              	.LVL227:
 2125              	.L156:
 2126 000e 154A     		ldr	r2, .L159+4
 2127              	.LVL228:
 2128              	.L153:
 543:userMenuPatternSewingMachine01.c ****     menu->btn[6].foregroundColor = ((selectIncre==1) ? ORANGE : DARKGREY);  // 2 incre  
 2129              		.loc 1 543 0 is_stmt 0 discriminator 4
 2130 0010 B823     		movs	r3, #184
 2131 0012 5B00     		lsls	r3, r3, #1
 2132 0014 E252     		strh	r2, [r4, r3]
 544:userMenuPatternSewingMachine01.c ****     menu->btn[7].foregroundColor = ((selectIncre==2) ? ORANGE : DARKGREY);  // 3 incre  
 2133              		.loc 1 544 0 is_stmt 1 discriminator 4
 2134 0016 0129     		cmp	r1, #1
 2135 0018 01D1     		bne	.L157
 544:userMenuPatternSewingMachine01.c ****     menu->btn[7].foregroundColor = ((selectIncre==2) ? ORANGE : DARKGREY);  // 3 incre  
 2136              		.loc 1 544 0 is_stmt 0
 2137 001a 114A     		ldr	r2, .L159
 2138 001c 00E0     		b	.L154
 2139              	.L157:
 2140 001e 114A     		ldr	r2, .L159+4
 2141              	.L154:
 544:userMenuPatternSewingMachine01.c ****     menu->btn[7].foregroundColor = ((selectIncre==2) ? ORANGE : DARKGREY);  // 3 incre  
 2142              		.loc 1 544 0 discriminator 4
 2143 0020 D823     		movs	r3, #216
 2144 0022 5B00     		lsls	r3, r3, #1
 2145 0024 E252     		strh	r2, [r4, r3]
 545:userMenuPatternSewingMachine01.c **** 
 2146              		.loc 1 545 0 is_stmt 1 discriminator 4
 2147 0026 0229     		cmp	r1, #2
ARM GAS  C:\Users\theGu\AppData\Local\Temp\ccVU9Uhe.s 			page 56


 2148 0028 01D1     		bne	.L158
 545:userMenuPatternSewingMachine01.c **** 
 2149              		.loc 1 545 0 is_stmt 0
 2150 002a 0D4A     		ldr	r2, .L159
 2151 002c 00E0     		b	.L155
 2152              	.L158:
 2153 002e 0D4A     		ldr	r2, .L159+4
 2154              	.L155:
 545:userMenuPatternSewingMachine01.c **** 
 2155              		.loc 1 545 0 discriminator 4
 2156 0030 F823     		movs	r3, #248
 2157 0032 5B00     		lsls	r3, r3, #1
 2158 0034 E252     		strh	r2, [r4, r3]
 547:userMenuPatternSewingMachine01.c ****     DrawButton(&menu->btn[6]);
 2159              		.loc 1 547 0 is_stmt 1 discriminator 4
 2160 0036 2000     		movs	r0, r4
 2161              	.LVL229:
 2162 0038 4130     		adds	r0, r0, #65
 2163 003a FF30     		adds	r0, r0, #255
 2164 003c FFF7FEFF 		bl	DrawButton
 2165              	.LVL230:
 548:userMenuPatternSewingMachine01.c ****     DrawButton(&menu->btn[7]);
 2166              		.loc 1 548 0 discriminator 4
 2167 0040 2000     		movs	r0, r4
 2168 0042 8130     		adds	r0, r0, #129
 2169 0044 FF30     		adds	r0, r0, #255
 2170 0046 FFF7FEFF 		bl	DrawButton
 2171              	.LVL231:
 549:userMenuPatternSewingMachine01.c ****     
 2172              		.loc 1 549 0 discriminator 4
 2173 004a 2000     		movs	r0, r4
 2174 004c C130     		adds	r0, r0, #193
 2175 004e FF30     		adds	r0, r0, #255
 2176 0050 FFF7FEFF 		bl	DrawButton
 2177              	.LVL232:
 551:userMenuPatternSewingMachine01.c **** }
 2178              		.loc 1 551 0 discriminator 4
 2179 0054 2900     		movs	r1, r5
 2180 0056 2000     		movs	r0, r4
 2181 0058 FFF7FEFF 		bl	DisplayDoTargetInfoMenuValueChange
 2182              	.LVL233:
 552:userMenuPatternSewingMachine01.c **** void DisplayDoTargetInfoMenuValueChange(UP_DOWN_ONE_MENU *menu, uint16 value)
 2183              		.loc 1 552 0 discriminator 4
 2184              		@ sp needed
 2185              	.LVL234:
 2186 005c 70BD     		pop	{r4, r5, r6, pc}
 2187              	.L160:
 2188 005e C046     		.align	2
 2189              	.L159:
 2190 0060 20FD0000 		.word	64800
 2191 0064 EF7B0000 		.word	31727
 2192              		.cfi_endproc
 2193              	.LFE72:
 2194              		.size	DisplayDoTargetInfoMenuSelectValue, .-DisplayDoTargetInfoMenuSelectValue
 2195              		.section	.text.doTargetInfoMenu,"ax",%progbits
 2196              		.align	2
 2197              		.global	doTargetInfoMenu
ARM GAS  C:\Users\theGu\AppData\Local\Temp\ccVU9Uhe.s 			page 57


 2198              		.code	16
 2199              		.thumb_func
 2200              		.type	doTargetInfoMenu, %function
 2201              	doTargetInfoMenu:
 2202              	.LFB70:
 437:userMenuPatternSewingMachine01.c ****     MENUNODE *thisMenu = (MENUNODE *) this;    
 2203              		.loc 1 437 0
 2204              		.cfi_startproc
 2205              		@ args = 0, pretend = 0, frame = 8
 2206              		@ frame_needed = 0, uses_anonymous_args = 0
 2207              	.LVL235:
 2208 0000 10B5     		push	{r4, lr}
 2209              		.cfi_def_cfa_offset 8
 2210              		.cfi_offset 4, -8
 2211              		.cfi_offset 14, -4
 2212 0002 82B0     		sub	sp, sp, #8
 2213              		.cfi_def_cfa_offset 16
 2214              	.LVL236:
 443:userMenuPatternSewingMachine01.c ****     {
 2215              		.loc 1 443 0
 2216 0004 0029     		cmp	r1, #0
 2217 0006 1FD0     		beq	.L163
 2218 0008 0129     		cmp	r1, #1
 2219 000a 00D0     		beq	.LCB2147
 2220 000c A4E0     		b	.L183	@long jump
 2221              	.LCB2147:
 447:userMenuPatternSewingMachine01.c ****                 {
 2222              		.loc 1 447 0
 2223 000e 544B     		ldr	r3, .L184
 2224 0010 1B68     		ldr	r3, [r3]
 2225 0012 1A78     		ldrb	r2, [r3]
 2226 0014 002A     		cmp	r2, #0
 2227 0016 02D0     		beq	.L166
 2228 0018 012A     		cmp	r2, #1
 2229 001a 04D0     		beq	.L167
 2230 001c 06E0     		b	.L165
 2231              	.L166:
 450:userMenuPatternSewingMachine01.c ****                         break;
 2232              		.loc 1 450 0
 2233 001e 5A88     		ldrh	r2, [r3, #2]
 2234 0020 504B     		ldr	r3, .L184+4
 2235 0022 DA85     		strh	r2, [r3, #46]
 451:userMenuPatternSewingMachine01.c ****                     case SEWING_MACHINE:
 2236              		.loc 1 451 0
 2237 0024 02E0     		b	.L165
 2238              	.L167:
 453:userMenuPatternSewingMachine01.c ****                         break;
 2239              		.loc 1 453 0
 2240 0026 1A89     		ldrh	r2, [r3, #8]
 2241 0028 4E4B     		ldr	r3, .L184+4
 2242 002a DA85     		strh	r2, [r3, #46]
 2243              	.L165:
 457:userMenuPatternSewingMachine01.c ****                 DisplayDoTargetInfoMenuSelectValue(&menu, selectIncre, value);
 2244              		.loc 1 457 0
 2245 002c 4E4C     		ldr	r4, .L184+8
 2246 002e 7834     		adds	r4, r4, #120
 2247 0030 2000     		movs	r0, r4
ARM GAS  C:\Users\theGu\AppData\Local\Temp\ccVU9Uhe.s 			page 58


 2248              	.LVL237:
 2249 0032 FFF7FEFF 		bl	DisplayDoTargetInfoMenu
 2250              	.LVL238:
 458:userMenuPatternSewingMachine01.c ****             }
 2251              		.loc 1 458 0
 2252 0036 4B4B     		ldr	r3, .L184+4
 2253 0038 DA8D     		ldrh	r2, [r3, #46]
 2254 003a 4C4B     		ldr	r3, .L184+12
 2255 003c 1978     		ldrb	r1, [r3]
 2256 003e 2000     		movs	r0, r4
 2257 0040 FFF7FEFF 		bl	DisplayDoTargetInfoMenuSelectValue
 2258              	.LVL239:
 523:userMenuPatternSewingMachine01.c **** }
 2259              		.loc 1 523 0
 2260 0044 4A48     		ldr	r0, .L184+16
 460:userMenuPatternSewingMachine01.c ****         
 2261              		.loc 1 460 0
 2262 0046 88E0     		b	.L162
 2263              	.LVL240:
 2264              	.L163:
 2265              	.LBB8:
 465:userMenuPatternSewingMachine01.c ****                 if(tc.isClick == FALSE) break;
 2266              		.loc 1 465 0
 2267 0048 6846     		mov	r0, sp
 2268              	.LVL241:
 2269 004a FFF7FEFF 		bl	GetTouch
 2270              	.LVL242:
 466:userMenuPatternSewingMachine01.c ****                 uint16 indexClick = getIndexOfClickedButton(&tc, menu.btn,8);
 2271              		.loc 1 466 0
 2272 004e 6B46     		mov	r3, sp
 2273 0050 1B88     		ldrh	r3, [r3]
 2274 0052 002B     		cmp	r3, #0
 2275 0054 00D1     		bne	.LCB2206
 2276 0056 7AE0     		b	.L168	@long jump
 2277              	.LCB2206:
 467:userMenuPatternSewingMachine01.c ****                 switch(indexClick)
 2278              		.loc 1 467 0
 2279 0058 0822     		movs	r2, #8
 2280 005a 4349     		ldr	r1, .L184+8
 2281 005c 7831     		adds	r1, r1, #120
 2282 005e 6846     		mov	r0, sp
 2283 0060 FFF7FEFF 		bl	getIndexOfClickedButton
 2284              	.LVL243:
 468:userMenuPatternSewingMachine01.c ****                 {                  
 2285              		.loc 1 468 0
 2286 0064 0338     		subs	r0, r0, #3
 2287              	.LVL244:
 2288 0066 83B2     		uxth	r3, r0
 2289 0068 042B     		cmp	r3, #4
 2290 006a 51D8     		bhi	.L169
 2291 006c 9800     		lsls	r0, r3, #2
 2292 006e 414B     		ldr	r3, .L184+20
 2293 0070 1B58     		ldr	r3, [r3, r0]
 2294 0072 9F46     		mov	pc, r3
 2295              		.section	.rodata
 2296              		.align	2
 2297              	.L171:
ARM GAS  C:\Users\theGu\AppData\Local\Temp\ccVU9Uhe.s 			page 59


 2298 0038 74000000 		.word	.L170
 2299 003c A2000000 		.word	.L172
 2300 0040 CE000000 		.word	.L173
 2301 0044 E4000000 		.word	.L174
 2302 0048 FA000000 		.word	.L175
 2303              		.section	.text.doTargetInfoMenu
 2304              	.L170:
 471:userMenuPatternSewingMachine01.c ****                         {
 2305              		.loc 1 471 0
 2306 0074 3B4B     		ldr	r3, .L184+4
 2307 0076 D98D     		ldrh	r1, [r3, #46]
 2308 0078 3C4B     		ldr	r3, .L184+12
 2309 007a 1B88     		ldrh	r3, [r3]
 2310 007c 0133     		adds	r3, r3, #1
 2311 007e FF33     		adds	r3, r3, #255
 2312 0080 5B00     		lsls	r3, r3, #1
 2313 0082 394A     		ldr	r2, .L184+8
 2314 0084 D318     		adds	r3, r2, r3
 2315 0086 7822     		movs	r2, #120
 2316 0088 9B5A     		ldrh	r3, [r3, r2]
 2317 008a C818     		adds	r0, r1, r3
 2318 008c 3A4A     		ldr	r2, .L184+24
 2319 008e 9042     		cmp	r0, r2
 2320 0090 5BDC     		bgt	.L176
 473:userMenuPatternSewingMachine01.c ****                             DisplayDoTargetInfoMenuValueChange(&menu,value);
 2321              		.loc 1 473 0
 2322 0092 81B2     		uxth	r1, r0
 2323 0094 334B     		ldr	r3, .L184+4
 2324 0096 D985     		strh	r1, [r3, #46]
 474:userMenuPatternSewingMachine01.c ****                         }
 2325              		.loc 1 474 0
 2326 0098 3348     		ldr	r0, .L184+8
 2327 009a 7830     		adds	r0, r0, #120
 2328 009c FFF7FEFF 		bl	DisplayDoTargetInfoMenuValueChange
 2329              	.LVL245:
 2330 00a0 53E0     		b	.L176
 2331              	.L172:
 478:userMenuPatternSewingMachine01.c ****                         {
 2332              		.loc 1 478 0
 2333 00a2 304B     		ldr	r3, .L184+4
 2334 00a4 DA8D     		ldrh	r2, [r3, #46]
 2335 00a6 314B     		ldr	r3, .L184+12
 2336 00a8 1B88     		ldrh	r3, [r3]
 2337 00aa 0133     		adds	r3, r3, #1
 2338 00ac FF33     		adds	r3, r3, #255
 2339 00ae 5B00     		lsls	r3, r3, #1
 2340 00b0 2D49     		ldr	r1, .L184+8
 2341 00b2 CB18     		adds	r3, r1, r3
 2342 00b4 7821     		movs	r1, #120
 2343 00b6 595A     		ldrh	r1, [r3, r1]
 2344 00b8 531A     		subs	r3, r2, r1
 2345 00ba 002B     		cmp	r3, #0
 2346 00bc 45DD     		ble	.L176
 480:userMenuPatternSewingMachine01.c ****                             DisplayDoTargetInfoMenuValueChange(&menu,value);
 2347              		.loc 1 480 0
 2348 00be 99B2     		uxth	r1, r3
 2349 00c0 284B     		ldr	r3, .L184+4
ARM GAS  C:\Users\theGu\AppData\Local\Temp\ccVU9Uhe.s 			page 60


 2350 00c2 D985     		strh	r1, [r3, #46]
 481:userMenuPatternSewingMachine01.c ****                         }
 2351              		.loc 1 481 0
 2352 00c4 2848     		ldr	r0, .L184+8
 2353 00c6 7830     		adds	r0, r0, #120
 2354 00c8 FFF7FEFF 		bl	DisplayDoTargetInfoMenuValueChange
 2355              	.LVL246:
 2356 00cc 3DE0     		b	.L176
 2357              	.L173:
 486:userMenuPatternSewingMachine01.c ****                         DisplayDoTargetInfoMenuSelectValue(&menu,selectIncre, value);
 2358              		.loc 1 486 0
 2359 00ce 0022     		movs	r2, #0
 2360 00d0 264B     		ldr	r3, .L184+12
 2361 00d2 1A80     		strh	r2, [r3]
 487:userMenuPatternSewingMachine01.c ****                         break;
 2362              		.loc 1 487 0
 2363 00d4 234B     		ldr	r3, .L184+4
 2364 00d6 DA8D     		ldrh	r2, [r3, #46]
 2365 00d8 0021     		movs	r1, #0
 2366 00da 2348     		ldr	r0, .L184+8
 2367 00dc 7830     		adds	r0, r0, #120
 2368 00de FFF7FEFF 		bl	DisplayDoTargetInfoMenuSelectValue
 2369              	.LVL247:
 488:userMenuPatternSewingMachine01.c ****                     case 6:
 2370              		.loc 1 488 0
 2371 00e2 32E0     		b	.L176
 2372              	.L174:
 490:userMenuPatternSewingMachine01.c ****                         DisplayDoTargetInfoMenuSelectValue(&menu,selectIncre, value);
 2373              		.loc 1 490 0
 2374 00e4 0122     		movs	r2, #1
 2375 00e6 214B     		ldr	r3, .L184+12
 2376 00e8 1A80     		strh	r2, [r3]
 491:userMenuPatternSewingMachine01.c ****                         break;
 2377              		.loc 1 491 0
 2378 00ea 1E4B     		ldr	r3, .L184+4
 2379 00ec DA8D     		ldrh	r2, [r3, #46]
 2380 00ee 0121     		movs	r1, #1
 2381 00f0 1D48     		ldr	r0, .L184+8
 2382 00f2 7830     		adds	r0, r0, #120
 2383 00f4 FFF7FEFF 		bl	DisplayDoTargetInfoMenuSelectValue
 2384              	.LVL248:
 492:userMenuPatternSewingMachine01.c ****                     case 7:
 2385              		.loc 1 492 0
 2386 00f8 27E0     		b	.L176
 2387              	.L175:
 494:userMenuPatternSewingMachine01.c ****                         DisplayDoTargetInfoMenuSelectValue(&menu,selectIncre, value);
 2388              		.loc 1 494 0
 2389 00fa 0222     		movs	r2, #2
 2390 00fc 1B4B     		ldr	r3, .L184+12
 2391 00fe 1A80     		strh	r2, [r3]
 495:userMenuPatternSewingMachine01.c ****                         break;                        
 2392              		.loc 1 495 0
 2393 0100 184B     		ldr	r3, .L184+4
 2394 0102 DA8D     		ldrh	r2, [r3, #46]
 2395 0104 0221     		movs	r1, #2
 2396 0106 1848     		ldr	r0, .L184+8
 2397 0108 7830     		adds	r0, r0, #120
ARM GAS  C:\Users\theGu\AppData\Local\Temp\ccVU9Uhe.s 			page 61


 2398 010a FFF7FEFF 		bl	DisplayDoTargetInfoMenuSelectValue
 2399              	.LVL249:
 496:userMenuPatternSewingMachine01.c ****                     default:
 2400              		.loc 1 496 0
 2401 010e 1CE0     		b	.L176
 2402              	.L169:
 498:userMenuPatternSewingMachine01.c ****                         {
 2403              		.loc 1 498 0
 2404 0110 0222     		movs	r2, #2
 2405 0112 1A49     		ldr	r1, .L184+28
 2406 0114 6846     		mov	r0, sp
 2407 0116 FFF7FEFF 		bl	getIndexOfClickedButton
 2408              	.LVL250:
 2409 011a 0028     		cmp	r0, #0
 2410 011c 19D0     		beq	.L177
 2411 011e 0128     		cmp	r0, #1
 2412 0120 13D1     		bne	.L176
 503:userMenuPatternSewingMachine01.c ****                                 {
 2413              		.loc 1 503 0
 2414 0122 0F4B     		ldr	r3, .L184
 2415 0124 1B68     		ldr	r3, [r3]
 2416 0126 1A78     		ldrb	r2, [r3]
 2417 0128 002A     		cmp	r2, #0
 2418 012a 02D0     		beq	.L180
 2419 012c 012A     		cmp	r2, #1
 2420 012e 04D0     		beq	.L181
 2421 0130 06E0     		b	.L179
 2422              	.L180:
 506:userMenuPatternSewingMachine01.c ****                                         break;
 2423              		.loc 1 506 0
 2424 0132 0C4A     		ldr	r2, .L184+4
 2425 0134 D28D     		ldrh	r2, [r2, #46]
 2426 0136 5A80     		strh	r2, [r3, #2]
 507:userMenuPatternSewingMachine01.c ****                                     case SEWING_MACHINE:
 2427              		.loc 1 507 0
 2428 0138 02E0     		b	.L179
 2429              	.L181:
 509:userMenuPatternSewingMachine01.c ****                                         break;
 2430              		.loc 1 509 0
 2431 013a 0A4A     		ldr	r2, .L184+4
 2432 013c D28D     		ldrh	r2, [r2, #46]
 2433 013e 1A81     		strh	r2, [r3, #8]
 2434              	.L179:
 513:userMenuPatternSewingMachine01.c ****                                 SaveExternalFlashConfig();
 2435              		.loc 1 513 0
 2436 0140 FFF7FEFF 		bl	ShowWaitMessage
 2437              	.LVL251:
 514:userMenuPatternSewingMachine01.c ****                                 return MENU_RETURN_PARENT;                                
 2438              		.loc 1 514 0
 2439 0144 FFF7FEFF 		bl	SaveExternalFlashConfig
 2440              	.LVL252:
 515:userMenuPatternSewingMachine01.c ****                             }                            
 2441              		.loc 1 515 0
 2442 0148 03E0     		b	.L177
 2443              	.L176:
 2444              	.LBE8:
 523:userMenuPatternSewingMachine01.c **** }
ARM GAS  C:\Users\theGu\AppData\Local\Temp\ccVU9Uhe.s 			page 62


 2445              		.loc 1 523 0 discriminator 1
 2446 014a 0948     		ldr	r0, .L184+16
 521:userMenuPatternSewingMachine01.c ****     }
 2447              		.loc 1 521 0 discriminator 1
 2448 014c 05E0     		b	.L162
 2449              	.L168:
 523:userMenuPatternSewingMachine01.c **** }
 2450              		.loc 1 523 0
 2451 014e 0848     		ldr	r0, .L184+16
 2452 0150 03E0     		b	.L162
 2453              	.L177:
 2454              	.LBB9:
 500:userMenuPatternSewingMachine01.c ****                             case BOTTOM_RIGHT: 
 2455              		.loc 1 500 0 discriminator 1
 2456 0152 8020     		movs	r0, #128
 2457 0154 0006     		lsls	r0, r0, #24
 2458 0156 00E0     		b	.L162
 2459              	.LVL253:
 2460              	.L183:
 2461              	.LBE9:
 523:userMenuPatternSewingMachine01.c **** }
 2462              		.loc 1 523 0
 2463 0158 0548     		ldr	r0, .L184+16
 2464              	.LVL254:
 2465              	.L162:
 524:userMenuPatternSewingMachine01.c **** 
 2466              		.loc 1 524 0
 2467 015a 02B0     		add	sp, sp, #8
 2468              		@ sp needed
 2469 015c 10BD     		pop	{r4, pc}
 2470              	.L185:
 2471 015e C046     		.align	2
 2472              	.L184:
 2473 0160 00000000 		.word	g_ptrMachineParameter
 2474 0164 00000000 		.word	.LANCHOR1
 2475 0168 80060000 		.word	.LANCHOR4
 2476 016c 00090000 		.word	.LANCHOR5
 2477 0170 01000080 		.word	-2147483647
 2478 0174 38000000 		.word	.L171
 2479 0178 0F270000 		.word	9999
 2480 017c 00000000 		.word	g_btnBottom
 2481              		.cfi_endproc
 2482              	.LFE70:
 2483              		.size	doTargetInfoMenu, .-doTargetInfoMenu
 2484              		.section	.text.DisplayDoActualInfoMenu,"ax",%progbits
 2485              		.align	2
 2486              		.global	DisplayDoActualInfoMenu
 2487              		.code	16
 2488              		.thumb_func
 2489              		.type	DisplayDoActualInfoMenu, %function
 2490              	DisplayDoActualInfoMenu:
 2491              	.LFB75:
 661:userMenuPatternSewingMachine01.c ****     menu->inc[0] = 1;
 2492              		.loc 1 661 0
 2493              		.cfi_startproc
 2494              		@ args = 0, pretend = 0, frame = 0
 2495              		@ frame_needed = 0, uses_anonymous_args = 0
ARM GAS  C:\Users\theGu\AppData\Local\Temp\ccVU9Uhe.s 			page 63


 2496              	.LVL255:
 2497 0000 10B5     		push	{r4, lr}
 2498              		.cfi_def_cfa_offset 8
 2499              		.cfi_offset 4, -8
 2500              		.cfi_offset 14, -4
 2501 0002 0400     		movs	r4, r0
 662:userMenuPatternSewingMachine01.c ****     menu->inc[1] = 10;
 2502              		.loc 1 662 0
 2503 0004 0122     		movs	r2, #1
 2504 0006 8023     		movs	r3, #128
 2505 0008 9B00     		lsls	r3, r3, #2
 2506 000a C252     		strh	r2, [r0, r3]
 663:userMenuPatternSewingMachine01.c ****     menu->inc[2] = 100;
 2507              		.loc 1 663 0
 2508 000c 0932     		adds	r2, r2, #9
 2509 000e 0C4B     		ldr	r3, .L187
 2510 0010 C252     		strh	r2, [r0, r3]
 664:userMenuPatternSewingMachine01.c ****     
 2511              		.loc 1 664 0
 2512 0012 5A32     		adds	r2, r2, #90
 2513 0014 0233     		adds	r3, r3, #2
 2514 0016 C252     		strh	r2, [r0, r3]
 666:userMenuPatternSewingMachine01.c ****     
 2515              		.loc 1 666 0
 2516 0018 0A4A     		ldr	r2, .L187+4
 2517 001a 0B49     		ldr	r1, .L187+8
 2518 001c FFF7FEFF 		bl	SetDrawUpDownOneMenu
 2519              	.LVL256:
 668:userMenuPatternSewingMachine01.c ****     menu->btn[1].disable = TRUE; // for no click title
 2520              		.loc 1 668 0
 2521 0020 0123     		movs	r3, #1
 2522 0022 3B22     		movs	r2, #59
 2523 0024 0121     		movs	r1, #1
 2524 0026 A154     		strb	r1, [r4, r2]
 669:userMenuPatternSewingMachine01.c ****     menu->btn[2].disable = TRUE; // for no click title
 2525              		.loc 1 669 0
 2526 0028 4032     		adds	r2, r2, #64
 2527 002a A354     		strb	r3, [r4, r2]
 670:userMenuPatternSewingMachine01.c ****     
 2528              		.loc 1 670 0
 2529 002c 4032     		adds	r2, r2, #64
 2530 002e A354     		strb	r3, [r4, r2]
 672:userMenuPatternSewingMachine01.c **** }
 2531              		.loc 1 672 0
 2532 0030 1223     		movs	r3, #18
 2533 0032 AA3A     		subs	r2, r2, #170
 2534 0034 0549     		ldr	r1, .L187+12
 2535 0036 0648     		ldr	r0, .L187+16
 2536 0038 FFF7FEFF 		bl	SetDrawBottomButtons
 2537              	.LVL257:
 673:userMenuPatternSewingMachine01.c **** 
 2538              		.loc 1 673 0
 2539              		@ sp needed
 2540              	.LVL258:
 2541 003c 10BD     		pop	{r4, pc}
 2542              	.L188:
 2543 003e C046     		.align	2
ARM GAS  C:\Users\theGu\AppData\Local\Temp\ccVU9Uhe.s 			page 64


 2544              	.L187:
 2545 0040 02020000 		.word	514
 2546 0044 94000000 		.word	.LC69
 2547 0048 A4000000 		.word	.LC71
 2548 004c 00000000 		.word	.LC4
 2549 0050 08000000 		.word	.LC6
 2550              		.cfi_endproc
 2551              	.LFE75:
 2552              		.size	DisplayDoActualInfoMenu, .-DisplayDoActualInfoMenu
 2553              		.section	.text.doActualInfoMenu,"ax",%progbits
 2554              		.align	2
 2555              		.global	doActualInfoMenu
 2556              		.code	16
 2557              		.thumb_func
 2558              		.type	doActualInfoMenu, %function
 2559              	doActualInfoMenu:
 2560              	.LFB74:
 567:userMenuPatternSewingMachine01.c ****     MENUNODE *thisMenu = (MENUNODE *) this;    
 2561              		.loc 1 567 0
 2562              		.cfi_startproc
 2563              		@ args = 0, pretend = 0, frame = 8
 2564              		@ frame_needed = 0, uses_anonymous_args = 0
 2565              	.LVL259:
 2566 0000 30B5     		push	{r4, r5, lr}
 2567              		.cfi_def_cfa_offset 12
 2568              		.cfi_offset 4, -12
 2569              		.cfi_offset 5, -8
 2570              		.cfi_offset 14, -4
 2571 0002 83B0     		sub	sp, sp, #12
 2572              		.cfi_def_cfa_offset 24
 2573              	.LVL260:
 573:userMenuPatternSewingMachine01.c ****     {
 2574              		.loc 1 573 0
 2575 0004 0029     		cmp	r1, #0
 2576 0006 2FD0     		beq	.L191
 2577 0008 0129     		cmp	r1, #1
 2578 000a 00D0     		beq	.LCB2489
 2579 000c BCE0     		b	.L211	@long jump
 2580              	.LCB2489:
 577:userMenuPatternSewingMachine01.c ****                 {
 2581              		.loc 1 577 0
 2582 000e 604B     		ldr	r3, .L212
 2583 0010 1B68     		ldr	r3, [r3]
 2584 0012 1B78     		ldrb	r3, [r3]
 2585 0014 002B     		cmp	r3, #0
 2586 0016 02D0     		beq	.L194
 2587 0018 012B     		cmp	r3, #1
 2588 001a 0CD0     		beq	.L195
 2589 001c 16E0     		b	.L193
 2590              	.L194:
 580:userMenuPatternSewingMachine01.c ****                         break;
 2591              		.loc 1 580 0
 2592 001e 5D4B     		ldr	r3, .L212+4
 2593 0020 1B68     		ldr	r3, [r3]
 2594 0022 988B     		ldrh	r0, [r3, #28]
 2595              	.LVL261:
 2596 0024 0004     		lsls	r0, r0, #16
ARM GAS  C:\Users\theGu\AppData\Local\Temp\ccVU9Uhe.s 			page 65


 2597 0026 DB8B     		ldrh	r3, [r3, #30]
 2598 0028 1843     		orrs	r0, r3
 2599 002a 0A21     		movs	r1, #10
 2600              	.LVL262:
 2601 002c FFF7FEFF 		bl	__aeabi_uidiv
 2602              	.LVL263:
 2603 0030 594B     		ldr	r3, .L212+8
 2604 0032 5860     		str	r0, [r3, #4]
 581:userMenuPatternSewingMachine01.c ****                     case SEWING_MACHINE:
 2605              		.loc 1 581 0
 2606 0034 0AE0     		b	.L193
 2607              	.LVL264:
 2608              	.L195:
 583:userMenuPatternSewingMachine01.c ****                         break;
 2609              		.loc 1 583 0
 2610 0036 574B     		ldr	r3, .L212+4
 2611 0038 1B68     		ldr	r3, [r3]
 2612 003a 1888     		ldrh	r0, [r3]
 2613              	.LVL265:
 2614 003c 0004     		lsls	r0, r0, #16
 2615 003e 5B88     		ldrh	r3, [r3, #2]
 2616 0040 1843     		orrs	r0, r3
 2617 0042 0A21     		movs	r1, #10
 2618              	.LVL266:
 2619 0044 FFF7FEFF 		bl	__aeabi_uidiv
 2620              	.LVL267:
 2621 0048 534B     		ldr	r3, .L212+8
 2622 004a 5860     		str	r0, [r3, #4]
 2623              	.L193:
 587:userMenuPatternSewingMachine01.c ****                 DisplayDoTargetInfoMenuSelectValue(&menu, selectIncre, value);
 2624              		.loc 1 587 0
 2625 004c 524D     		ldr	r5, .L212+8
 2626 004e 2C00     		movs	r4, r5
 2627 0050 0834     		adds	r4, r4, #8
 2628 0052 2000     		movs	r0, r4
 2629 0054 FFF7FEFF 		bl	DisplayDoActualInfoMenu
 2630              	.LVL268:
 588:userMenuPatternSewingMachine01.c ****             }
 2631              		.loc 1 588 0
 2632 0058 AA88     		ldrh	r2, [r5, #4]
 2633 005a 504B     		ldr	r3, .L212+12
 2634 005c 197C     		ldrb	r1, [r3, #16]
 2635 005e 2000     		movs	r0, r4
 2636 0060 FFF7FEFF 		bl	DisplayDoTargetInfoMenuSelectValue
 2637              	.LVL269:
 657:userMenuPatternSewingMachine01.c **** }
 2638              		.loc 1 657 0
 2639 0064 4E48     		ldr	r0, .L212+16
 590:userMenuPatternSewingMachine01.c ****         
 2640              		.loc 1 590 0
 2641 0066 90E0     		b	.L190
 2642              	.LVL270:
 2643              	.L191:
 2644              	.LBB10:
 595:userMenuPatternSewingMachine01.c ****                 if(tc.isClick == FALSE) break;
 2645              		.loc 1 595 0
 2646 0068 6846     		mov	r0, sp
ARM GAS  C:\Users\theGu\AppData\Local\Temp\ccVU9Uhe.s 			page 66


 2647              	.LVL271:
 2648 006a FFF7FEFF 		bl	GetTouch
 2649              	.LVL272:
 596:userMenuPatternSewingMachine01.c ****                 uint16 indexClick = getIndexOfClickedButton(&tc, menu.btn,8);
 2650              		.loc 1 596 0
 2651 006e 6B46     		mov	r3, sp
 2652 0070 1B88     		ldrh	r3, [r3]
 2653 0072 002B     		cmp	r3, #0
 2654 0074 00D1     		bne	.LCB2571
 2655 0076 82E0     		b	.L196	@long jump
 2656              	.LCB2571:
 597:userMenuPatternSewingMachine01.c ****                 switch(indexClick)
 2657              		.loc 1 597 0
 2658 0078 0822     		movs	r2, #8
 2659 007a 4749     		ldr	r1, .L212+8
 2660 007c 0831     		adds	r1, r1, #8
 2661 007e 6846     		mov	r0, sp
 2662 0080 FFF7FEFF 		bl	getIndexOfClickedButton
 2663              	.LVL273:
 598:userMenuPatternSewingMachine01.c ****                 {                  
 2664              		.loc 1 598 0
 2665 0084 0338     		subs	r0, r0, #3
 2666              	.LVL274:
 2667 0086 83B2     		uxth	r3, r0
 2668 0088 042B     		cmp	r3, #4
 2669 008a 48D8     		bhi	.L197
 2670 008c 9800     		lsls	r0, r3, #2
 2671 008e 454B     		ldr	r3, .L212+20
 2672 0090 1B58     		ldr	r3, [r3, r0]
 2673 0092 9F46     		mov	pc, r3
 2674              		.section	.rodata
 2675              		.align	2
 2676              	.L199:
 2677 004c 94000000 		.word	.L198
 2678 0050 BC000000 		.word	.L200
 2679 0054 E2000000 		.word	.L201
 2680 0058 F6000000 		.word	.L202
 2681 005c 0A010000 		.word	.L203
 2682              		.section	.text.doActualInfoMenu
 2683              	.L198:
 601:userMenuPatternSewingMachine01.c ****                         {
 2684              		.loc 1 601 0
 2685 0094 404A     		ldr	r2, .L212+8
 2686 0096 414B     		ldr	r3, .L212+12
 2687 0098 1B8A     		ldrh	r3, [r3, #16]
 2688 009a 0133     		adds	r3, r3, #1
 2689 009c FF33     		adds	r3, r3, #255
 2690 009e 5B00     		lsls	r3, r3, #1
 2691 00a0 D318     		adds	r3, r2, r3
 2692 00a2 1989     		ldrh	r1, [r3, #8]
 2693 00a4 5368     		ldr	r3, [r2, #4]
 2694 00a6 C918     		adds	r1, r1, r3
 2695 00a8 3F4B     		ldr	r3, .L212+24
 2696 00aa 9942     		cmp	r1, r3
 2697 00ac 65D8     		bhi	.L204
 603:userMenuPatternSewingMachine01.c ****                             DisplayDoTargetInfoMenuValueChange(&menu,value);
 2698              		.loc 1 603 0
ARM GAS  C:\Users\theGu\AppData\Local\Temp\ccVU9Uhe.s 			page 67


 2699 00ae 1000     		movs	r0, r2
 2700 00b0 5160     		str	r1, [r2, #4]
 604:userMenuPatternSewingMachine01.c ****                         }
 2701              		.loc 1 604 0
 2702 00b2 89B2     		uxth	r1, r1
 2703 00b4 0830     		adds	r0, r0, #8
 2704 00b6 FFF7FEFF 		bl	DisplayDoTargetInfoMenuValueChange
 2705              	.LVL275:
 2706 00ba 5EE0     		b	.L204
 2707              	.L200:
 608:userMenuPatternSewingMachine01.c ****                         {
 2708              		.loc 1 608 0
 2709 00bc 364A     		ldr	r2, .L212+8
 2710 00be 374B     		ldr	r3, .L212+12
 2711 00c0 1B8A     		ldrh	r3, [r3, #16]
 2712 00c2 0133     		adds	r3, r3, #1
 2713 00c4 FF33     		adds	r3, r3, #255
 2714 00c6 5B00     		lsls	r3, r3, #1
 2715 00c8 D318     		adds	r3, r2, r3
 2716 00ca 1989     		ldrh	r1, [r3, #8]
 2717 00cc 5368     		ldr	r3, [r2, #4]
 2718 00ce 9942     		cmp	r1, r3
 2719 00d0 53D0     		beq	.L204
 610:userMenuPatternSewingMachine01.c ****                             DisplayDoTargetInfoMenuValueChange(&menu,value);
 2720              		.loc 1 610 0
 2721 00d2 5B1A     		subs	r3, r3, r1
 2722 00d4 1000     		movs	r0, r2
 2723 00d6 5360     		str	r3, [r2, #4]
 611:userMenuPatternSewingMachine01.c ****                         }
 2724              		.loc 1 611 0
 2725 00d8 99B2     		uxth	r1, r3
 2726 00da 0830     		adds	r0, r0, #8
 2727 00dc FFF7FEFF 		bl	DisplayDoTargetInfoMenuValueChange
 2728              	.LVL276:
 2729 00e0 4BE0     		b	.L204
 2730              	.L201:
 616:userMenuPatternSewingMachine01.c ****                         DisplayDoTargetInfoMenuSelectValue(&menu,selectIncre, value);
 2731              		.loc 1 616 0
 2732 00e2 0022     		movs	r2, #0
 2733 00e4 2D4B     		ldr	r3, .L212+12
 2734 00e6 1A82     		strh	r2, [r3, #16]
 617:userMenuPatternSewingMachine01.c ****                         break;
 2735              		.loc 1 617 0
 2736 00e8 2B48     		ldr	r0, .L212+8
 2737 00ea 8288     		ldrh	r2, [r0, #4]
 2738 00ec 0830     		adds	r0, r0, #8
 2739 00ee 0021     		movs	r1, #0
 2740 00f0 FFF7FEFF 		bl	DisplayDoTargetInfoMenuSelectValue
 2741              	.LVL277:
 618:userMenuPatternSewingMachine01.c ****                     case 6:
 2742              		.loc 1 618 0
 2743 00f4 41E0     		b	.L204
 2744              	.L202:
 620:userMenuPatternSewingMachine01.c ****                         DisplayDoTargetInfoMenuSelectValue(&menu,selectIncre, value);
 2745              		.loc 1 620 0
 2746 00f6 0122     		movs	r2, #1
 2747 00f8 284B     		ldr	r3, .L212+12
ARM GAS  C:\Users\theGu\AppData\Local\Temp\ccVU9Uhe.s 			page 68


 2748 00fa 1A82     		strh	r2, [r3, #16]
 621:userMenuPatternSewingMachine01.c ****                         break;
 2749              		.loc 1 621 0
 2750 00fc 2648     		ldr	r0, .L212+8
 2751 00fe 8288     		ldrh	r2, [r0, #4]
 2752 0100 0830     		adds	r0, r0, #8
 2753 0102 0121     		movs	r1, #1
 2754 0104 FFF7FEFF 		bl	DisplayDoTargetInfoMenuSelectValue
 2755              	.LVL278:
 622:userMenuPatternSewingMachine01.c ****                     case 7:
 2756              		.loc 1 622 0
 2757 0108 37E0     		b	.L204
 2758              	.L203:
 624:userMenuPatternSewingMachine01.c ****                         DisplayDoTargetInfoMenuSelectValue(&menu,selectIncre, value);
 2759              		.loc 1 624 0
 2760 010a 0222     		movs	r2, #2
 2761 010c 234B     		ldr	r3, .L212+12
 2762 010e 1A82     		strh	r2, [r3, #16]
 625:userMenuPatternSewingMachine01.c ****                         break;                        
 2763              		.loc 1 625 0
 2764 0110 2148     		ldr	r0, .L212+8
 2765 0112 8288     		ldrh	r2, [r0, #4]
 2766 0114 0830     		adds	r0, r0, #8
 2767 0116 0221     		movs	r1, #2
 2768 0118 FFF7FEFF 		bl	DisplayDoTargetInfoMenuSelectValue
 2769              	.LVL279:
 626:userMenuPatternSewingMachine01.c ****                     default:
 2770              		.loc 1 626 0
 2771 011c 2DE0     		b	.L204
 2772              	.L197:
 628:userMenuPatternSewingMachine01.c ****                         {
 2773              		.loc 1 628 0
 2774 011e 0222     		movs	r2, #2
 2775 0120 2249     		ldr	r1, .L212+28
 2776 0122 6846     		mov	r0, sp
 2777 0124 FFF7FEFF 		bl	getIndexOfClickedButton
 2778              	.LVL280:
 2779 0128 0028     		cmp	r0, #0
 2780 012a 2AD0     		beq	.L205
 2781 012c 0128     		cmp	r0, #1
 2782 012e 24D1     		bne	.L204
 633:userMenuPatternSewingMachine01.c ****                                 {
 2783              		.loc 1 633 0
 2784 0130 174B     		ldr	r3, .L212
 2785 0132 1B68     		ldr	r3, [r3]
 2786 0134 1B78     		ldrb	r3, [r3]
 2787 0136 002B     		cmp	r3, #0
 2788 0138 02D0     		beq	.L208
 2789 013a 012B     		cmp	r3, #1
 2790 013c 0CD0     		beq	.L209
 2791 013e 19E0     		b	.L207
 2792              	.L208:
 636:userMenuPatternSewingMachine01.c ****                                         g_ptrCount->patternActualH = CONVERT_TO_HIGH(value*10);
 2793              		.loc 1 636 0
 2794 0140 144B     		ldr	r3, .L212+4
 2795 0142 1868     		ldr	r0, [r3]
 637:userMenuPatternSewingMachine01.c ****                                         g_ptrCount->patternActualL = CONVERT_TO_LOW(value*10);
ARM GAS  C:\Users\theGu\AppData\Local\Temp\ccVU9Uhe.s 			page 69


 2796              		.loc 1 637 0
 2797 0144 144B     		ldr	r3, .L212+8
 2798 0146 5A68     		ldr	r2, [r3, #4]
 2799 0148 9100     		lsls	r1, r2, #2
 2800 014a 8918     		adds	r1, r1, r2
 2801 014c 4B00     		lsls	r3, r1, #1
 2802 014e 1900     		movs	r1, r3
 2803 0150 1B0C     		lsrs	r3, r3, #16
 2804 0152 8383     		strh	r3, [r0, #28]
 638:userMenuPatternSewingMachine01.c ****                                         break;
 2805              		.loc 1 638 0
 2806 0154 C183     		strh	r1, [r0, #30]
 639:userMenuPatternSewingMachine01.c ****                                     case SEWING_MACHINE:
 2807              		.loc 1 639 0
 2808 0156 0DE0     		b	.L207
 2809              	.L209:
 641:userMenuPatternSewingMachine01.c ****                                         g_ptrCount->sewingActualH = CONVERT_TO_HIGH(value*10);
 2810              		.loc 1 641 0
 2811 0158 0E48     		ldr	r0, .L212+4
 642:userMenuPatternSewingMachine01.c ****                                         g_ptrCount->sewingActualL = CONVERT_TO_LOW(value*10);
 2812              		.loc 1 642 0
 2813 015a 0F4B     		ldr	r3, .L212+8
 2814 015c 5A68     		ldr	r2, [r3, #4]
 2815 015e 9100     		lsls	r1, r2, #2
 2816 0160 8918     		adds	r1, r1, r2
 2817 0162 4B00     		lsls	r3, r1, #1
 2818 0164 1B0C     		lsrs	r3, r3, #16
 2819 0166 0168     		ldr	r1, [r0]
 2820 0168 0B80     		strh	r3, [r1]
 643:userMenuPatternSewingMachine01.c ****                                         break;
 2821              		.loc 1 643 0
 2822 016a 0168     		ldr	r1, [r0]
 2823 016c 9300     		lsls	r3, r2, #2
 2824 016e D318     		adds	r3, r2, r3
 2825 0170 5A00     		lsls	r2, r3, #1
 2826 0172 4A80     		strh	r2, [r1, #2]
 2827              	.L207:
 648:userMenuPatternSewingMachine01.c ****                                 return MENU_RETURN_PARENT;                                
 2828              		.loc 1 648 0
 2829 0174 FFF7FEFF 		bl	SaveInternalFlash
 2830              	.LVL281:
 649:userMenuPatternSewingMachine01.c ****                             }                            
 2831              		.loc 1 649 0
 2832 0178 03E0     		b	.L205
 2833              	.L204:
 2834              	.LBE10:
 657:userMenuPatternSewingMachine01.c **** }
 2835              		.loc 1 657 0 discriminator 1
 2836 017a 0948     		ldr	r0, .L212+16
 655:userMenuPatternSewingMachine01.c ****     }
 2837              		.loc 1 655 0 discriminator 1
 2838 017c 05E0     		b	.L190
 2839              	.L196:
 657:userMenuPatternSewingMachine01.c **** }
 2840              		.loc 1 657 0
 2841 017e 0848     		ldr	r0, .L212+16
 2842 0180 03E0     		b	.L190
ARM GAS  C:\Users\theGu\AppData\Local\Temp\ccVU9Uhe.s 			page 70


 2843              	.L205:
 2844              	.LBB11:
 630:userMenuPatternSewingMachine01.c ****                             case BOTTOM_RIGHT: 
 2845              		.loc 1 630 0 discriminator 1
 2846 0182 8020     		movs	r0, #128
 2847 0184 0006     		lsls	r0, r0, #24
 2848 0186 00E0     		b	.L190
 2849              	.LVL282:
 2850              	.L211:
 2851              	.LBE11:
 657:userMenuPatternSewingMachine01.c **** }
 2852              		.loc 1 657 0
 2853 0188 0548     		ldr	r0, .L212+16
 2854              	.LVL283:
 2855              	.L190:
 658:userMenuPatternSewingMachine01.c **** 
 2856              		.loc 1 658 0
 2857 018a 03B0     		add	sp, sp, #12
 2858              		@ sp needed
 2859 018c 30BD     		pop	{r4, r5, pc}
 2860              	.L213:
 2861 018e C046     		.align	2
 2862              	.L212:
 2863 0190 00000000 		.word	g_ptrMachineParameter
 2864 0194 00000000 		.word	g_ptrCount
 2865 0198 00090000 		.word	.LANCHOR5
 2866 019c 000B0000 		.word	.LANCHOR6
 2867 01a0 01000080 		.word	-2147483647
 2868 01a4 4C000000 		.word	.L199
 2869 01a8 0F270000 		.word	9999
 2870 01ac 00000000 		.word	g_btnBottom
 2871              		.cfi_endproc
 2872              	.LFE74:
 2873              		.size	doActualInfoMenu, .-doActualInfoMenu
 2874              		.section	.text.menuCreate,"ax",%progbits
 2875              		.align	2
 2876              		.global	menuCreate
 2877              		.code	16
 2878              		.thumb_func
 2879              		.type	menuCreate, %function
 2880              	menuCreate:
 2881              	.LFB77:
 756:userMenuPatternSewingMachine01.c **** 
 757:userMenuPatternSewingMachine01.c **** MENUNODE * menuCreate()
 758:userMenuPatternSewingMachine01.c **** {
 2882              		.loc 1 758 0
 2883              		.cfi_startproc
 2884              		@ args = 0, pretend = 0, frame = 0
 2885              		@ frame_needed = 0, uses_anonymous_args = 0
 2886 0000 F8B5     		push	{r3, r4, r5, r6, r7, lr}
 2887              		.cfi_def_cfa_offset 24
 2888              		.cfi_offset 3, -24
 2889              		.cfi_offset 4, -20
 2890              		.cfi_offset 5, -16
 2891              		.cfi_offset 6, -12
 2892              		.cfi_offset 7, -8
 2893              		.cfi_offset 14, -4
ARM GAS  C:\Users\theGu\AppData\Local\Temp\ccVU9Uhe.s 			page 71


 759:userMenuPatternSewingMachine01.c ****     setDisplayDirection(getMiscConfig()->bDisplayDir);
 2894              		.loc 1 759 0
 2895 0002 FFF7FEFF 		bl	getMiscConfig
 2896              	.LVL284:
 2897 0006 0078     		ldrb	r0, [r0]
 2898 0008 FFF7FEFF 		bl	setDisplayDirection
 2899              	.LVL285:
 760:userMenuPatternSewingMachine01.c **** 
 761:userMenuPatternSewingMachine01.c ****     // Main Menu  ............................................
 762:userMenuPatternSewingMachine01.c ****     MENUNODE *root                        = createMENUNODE(NULL,      "TOP MENU",     &doTopMenu);
 2900              		.loc 1 762 0
 2901 000c 1A4A     		ldr	r2, .L219
 2902 000e 1B49     		ldr	r1, .L219+4
 2903 0010 0020     		movs	r0, #0
 2904 0012 FFF7FEFF 		bl	createMENUNODE
 2905              	.LVL286:
 2906 0016 0600     		movs	r6, r0
 2907              	.LVL287:
 763:userMenuPatternSewingMachine01.c ****     MENUNODE    *manage                   = manageMenuCreate(root);
 2908              		.loc 1 763 0
 2909 0018 FFF7FEFF 		bl	manageMenuCreate
 2910              	.LVL288:
 2911 001c 0500     		movs	r5, r0
 2912              	.LVL289:
 2913              	.LBB12:
 764:userMenuPatternSewingMachine01.c ****     for(int i=0; i < getNoOfChild(manage); i++) 
 2914              		.loc 1 764 0
 2915 001e 0024     		movs	r4, #0
 2916 0020 11E0     		b	.L215
 2917              	.LVL290:
 2918              	.L218:
 2919              	.LBB13:
 765:userMenuPatternSewingMachine01.c ****     {
 766:userMenuPatternSewingMachine01.c ****         MENUNODE *node = getNthChild(manage,i);
 2920              		.loc 1 766 0
 2921 0022 2100     		movs	r1, r4
 2922 0024 2800     		movs	r0, r5
 2923 0026 FFF7FEFF 		bl	getNthChild
 2924              	.LVL291:
 2925 002a 0700     		movs	r7, r0
 2926              	.LVL292:
 767:userMenuPatternSewingMachine01.c ****         if(strcmp(node->nodeName,"SETTINGS") == 0)
 2927              		.loc 1 767 0
 2928 002c 1030     		adds	r0, r0, #16
 2929              	.LVL293:
 2930 002e 1449     		ldr	r1, .L219+8
 2931 0030 FFF7FEFF 		bl	strcmp
 2932              	.LVL294:
 2933 0034 0028     		cmp	r0, #0
 2934 0036 05D1     		bne	.L216
 2935              	.LBB14:
 768:userMenuPatternSewingMachine01.c ****         {
 769:userMenuPatternSewingMachine01.c ****             MENUNODE        *machine              = createMENUNODE  (node,  "MACHINE",      &doMach
 2936              		.loc 1 769 0
 2937 0038 124A     		ldr	r2, .L219+12
 2938 003a 1349     		ldr	r1, .L219+16
 2939 003c 3800     		movs	r0, r7
ARM GAS  C:\Users\theGu\AppData\Local\Temp\ccVU9Uhe.s 			page 72


 2940 003e FFF7FEFF 		bl	createMENUNODE
 2941              	.LVL295:
 770:userMenuPatternSewingMachine01.c ****             break;
 2942              		.loc 1 770 0
 2943 0042 05E0     		b	.L217
 2944              	.L216:
 2945              	.LBE14:
 2946              	.LBE13:
 764:userMenuPatternSewingMachine01.c ****     {
 2947              		.loc 1 764 0 discriminator 2
 2948 0044 0134     		adds	r4, r4, #1
 2949              	.LVL296:
 2950              	.L215:
 764:userMenuPatternSewingMachine01.c ****     {
 2951              		.loc 1 764 0 is_stmt 0 discriminator 1
 2952 0046 2800     		movs	r0, r5
 2953 0048 FFF7FEFF 		bl	getNoOfChild
 2954              	.LVL297:
 2955 004c 8442     		cmp	r4, r0
 2956 004e E8DB     		blt	.L218
 2957              	.L217:
 2958              	.LBE12:
 771:userMenuPatternSewingMachine01.c ****         }
 772:userMenuPatternSewingMachine01.c ****     }
 773:userMenuPatternSewingMachine01.c ****                                             
 774:userMenuPatternSewingMachine01.c ****     MENUNODE    *andon                    = andonMenuCreate (root);                                
 2959              		.loc 1 774 0 is_stmt 1
 2960 0050 3000     		movs	r0, r6
 2961 0052 FFF7FEFF 		bl	andonMenuCreate
 2962              	.LVL298:
 775:userMenuPatternSewingMachine01.c ****     MENUNODE    *pairsInfoMenuNode        = createMENUNODE  (root,    "PAIR(S) INFO", &doPairsInfoM
 2963              		.loc 1 775 0
 2964 0056 0D4A     		ldr	r2, .L219+20
 2965 0058 0D49     		ldr	r1, .L219+24
 2966 005a 3000     		movs	r0, r6
 2967 005c FFF7FEFF 		bl	createMENUNODE
 2968              	.LVL299:
 776:userMenuPatternSewingMachine01.c ****     MENUNODE    *targetInfoMenuNode       = createMENUNODE  (root,    "TARGET",       &doTargetInfo
 2969              		.loc 1 776 0
 2970 0060 0C4A     		ldr	r2, .L219+28
 2971 0062 0D49     		ldr	r1, .L219+32
 2972 0064 3000     		movs	r0, r6
 2973 0066 FFF7FEFF 		bl	createMENUNODE
 2974              	.LVL300:
 777:userMenuPatternSewingMachine01.c ****     MENUNODE    *actualtInfoMenuNode      = createMENUNODE  (root,    "ACTUAL",       &doActualInfo
 2975              		.loc 1 777 0
 2976 006a 0C4A     		ldr	r2, .L219+36
 2977 006c 0C49     		ldr	r1, .L219+40
 2978 006e 3000     		movs	r0, r6
 2979 0070 FFF7FEFF 		bl	createMENUNODE
 2980              	.LVL301:
 778:userMenuPatternSewingMachine01.c ****    return root;
 779:userMenuPatternSewingMachine01.c **** }
 2981              		.loc 1 779 0
 2982 0074 3000     		movs	r0, r6
 2983              		@ sp needed
 2984              	.LVL302:
ARM GAS  C:\Users\theGu\AppData\Local\Temp\ccVU9Uhe.s 			page 73


 2985              	.LVL303:
 2986              	.LVL304:
 2987 0076 F8BD     		pop	{r3, r4, r5, r6, r7, pc}
 2988              	.L220:
 2989              		.align	2
 2990              	.L219:
 2991 0078 00000000 		.word	doTopMenu
 2992 007c AC000000 		.word	.LC83
 2993 0080 B8000000 		.word	.LC85
 2994 0084 00000000 		.word	doMachine
 2995 0088 C4000000 		.word	.LC88
 2996 008c 00000000 		.word	doPairsInfoMenu
 2997 0090 CC000000 		.word	.LC91
 2998 0094 00000000 		.word	doTargetInfoMenu
 2999 0098 DC000000 		.word	.LC94
 3000 009c 00000000 		.word	doActualInfoMenu
 3001 00a0 E4000000 		.word	.LC97
 3002              		.cfi_endproc
 3003              	.LFE77:
 3004              		.size	menuCreate, .-menuCreate
 3005              		.global	g_nosewingString
 3006              		.global	g_sewingString
 3007              		.global	g_noPatternString
 3008              		.global	g_patternString
 3009              		.comm	Param,6,4
 3010              		.data
 3011              		.align	2
 3012              		.set	.LANCHOR1,. + 0
 3013              		.type	listText.9602, %object
 3014              		.size	listText.9602, 8
 3015              	listText.9602:
 3016 0000 EC000000 		.word	.LC99
 3017 0004 F4000000 		.word	.LC100
 3018              		.type	g_patternString, %object
 3019              		.size	g_patternString, 32
 3020              	g_patternString:
 3021 0008 8C000000 		.word	.LC57
 3022 000c A4000000 		.word	.LC71
 3023 0010 FC000000 		.word	.LC101
 3024 0014 10010000 		.word	.LC104
 3025 0018 0C010000 		.word	.LC103
 3026 001c 14010000 		.word	.LC105
 3027 0020 18010000 		.word	.LC106
 3028 0024 1C010000 		.word	.LC107
 3029              		.type	oldPage.9377, %object
 3030              		.size	oldPage.9377, 1
 3031              	oldPage.9377:
 3032 0028 FF       		.byte	-1
 3033 0029 00       		.space	1
 3034              		.type	leftValue.9463, %object
 3035              		.size	leftValue.9463, 2
 3036              	leftValue.9463:
 3037 002a 0200     		.short	2
 3038              		.type	rightValue.9464, %object
 3039              		.size	rightValue.9464, 2
 3040              	rightValue.9464:
 3041 002c 1900     		.short	25
ARM GAS  C:\Users\theGu\AppData\Local\Temp\ccVU9Uhe.s 			page 74


 3042              		.type	value.9522, %object
 3043              		.size	value.9522, 2
 3044              	value.9522:
 3045 002e 0F27     		.short	9999
 3046              		.type	g_nosewingString, %object
 3047              		.size	g_nosewingString, 1
 3048              	g_nosewingString:
 3049 0030 06       		.byte	6
 3050 0031 000000   		.space	3
 3051              		.type	g_sewingString, %object
 3052              		.size	g_sewingString, 24
 3053              	g_sewingString:
 3054 0034 8C000000 		.word	.LC57
 3055 0038 A4000000 		.word	.LC71
 3056 003c FC000000 		.word	.LC101
 3057 0040 68000000 		.word	.LC41
 3058 0044 04010000 		.word	.LC102
 3059 0048 0C010000 		.word	.LC103
 3060              		.type	g_noPatternString, %object
 3061              		.size	g_noPatternString, 1
 3062              	g_noPatternString:
 3063 004c 08       		.byte	8
 3064              		.section	.rodata.str1.4,"aMS",%progbits,1
 3065              		.align	2
 3066              	.LC4:
 3067 0000 53415645 		.ascii	"SAVE\000"
 3067      00
 3068 0005 000000   		.space	3
 3069              	.LC6:
 3070 0008 51554954 		.ascii	"QUIT\000"
 3070      00
 3071 000d 000000   		.space	3
 3072              	.LC10:
 3073 0010 2564203A 		.ascii	"%d : %3.1f-Pair\000"
 3073      2025332E 
 3073      31662D50 
 3073      61697200 
 3074              	.LC12:
 3075 0020 414E444F 		.ascii	"ANDON\000"
 3075      4E00
 3076 0026 0000     		.space	2
 3077              	.LC14:
 3078 0028 4D454E55 		.ascii	"MENU\000"
 3078      00
 3079 002d 000000   		.space	3
 3080              	.LC18:
 3081 0030 257500   		.ascii	"%u\000"
 3082 0033 00       		.space	1
 3083              	.LC20:
 3084 0034 256C7500 		.ascii	"%lu\000"
 3085              	.LC22:
 3086 0038 25342E31 		.ascii	"%4.1f\000"
 3086      6600
 3087 003e 0000     		.space	2
 3088              	.LC24:
 3089 0040 25302E31 		.ascii	"%0.1f\000"
 3089      6600
ARM GAS  C:\Users\theGu\AppData\Local\Temp\ccVU9Uhe.s 			page 75


 3090 0046 0000     		.space	2
 3091              	.LC35:
 3092 0048 50616972 		.ascii	"Pairs infos.\000"
 3092      7320696E 
 3092      666F732E 
 3092      00
 3093 0055 000000   		.space	3
 3094              	.LC37:
 3095 0058 50616972 		.ascii	"Pair(s)\000"
 3095      28732900 
 3096              	.LC39:
 3097 0060 436F756E 		.ascii	"Count\000"
 3097      7400
 3098 0066 0000     		.space	2
 3099              	.LC41:
 3100 0068 5472696D 		.ascii	"Trim\000"
 3100      00
 3101 006d 000000   		.space	3
 3102              	.LC45:
 3103 0070 256400   		.ascii	"%d\000"
 3104 0073 00       		.space	1
 3105              	.LC47:
 3106 0074 25332E31 		.ascii	"%3.1f\000"
 3106      6600
 3107 007a 0000     		.space	2
 3108              	.LC55:
 3109 007c 54617267 		.ascii	"Target info.\000"
 3109      65742069 
 3109      6E666F2E 
 3109      00
 3110 0089 000000   		.space	3
 3111              	.LC57:
 3112 008c 54617267 		.ascii	"Target\000"
 3112      657400
 3113 0093 00       		.space	1
 3114              	.LC69:
 3115 0094 41637475 		.ascii	"Actual info.\000"
 3115      616C2069 
 3115      6E666F2E 
 3115      00
 3116 00a1 000000   		.space	3
 3117              	.LC71:
 3118 00a4 41637475 		.ascii	"Actual\000"
 3118      616C00
 3119 00ab 00       		.space	1
 3120              	.LC83:
 3121 00ac 544F5020 		.ascii	"TOP MENU\000"
 3121      4D454E55 
 3121      00
 3122 00b5 000000   		.space	3
 3123              	.LC85:
 3124 00b8 53455454 		.ascii	"SETTINGS\000"
 3124      494E4753 
 3124      00
 3125 00c1 000000   		.space	3
 3126              	.LC88:
 3127 00c4 4D414348 		.ascii	"MACHINE\000"
ARM GAS  C:\Users\theGu\AppData\Local\Temp\ccVU9Uhe.s 			page 76


 3127      494E4500 
 3128              	.LC91:
 3129 00cc 50414952 		.ascii	"PAIR(S) INFO\000"
 3129      28532920 
 3129      494E464F 
 3129      00
 3130 00d9 000000   		.space	3
 3131              	.LC94:
 3132 00dc 54415247 		.ascii	"TARGET\000"
 3132      455400
 3133 00e3 00       		.space	1
 3134              	.LC97:
 3135 00e4 41435455 		.ascii	"ACTUAL\000"
 3135      414C00
 3136 00eb 00       		.space	1
 3137              	.LC99:
 3138 00ec 50415454 		.ascii	"PATTERN\000"
 3138      45524E00 
 3139              	.LC100:
 3140 00f4 53455749 		.ascii	"SEWING\000"
 3140      4E4700
 3141 00fb 00       		.space	1
 3142              	.LC101:
 3143 00fc 52617465 		.ascii	"Rate\000"
 3143      00
 3144 0101 000000   		.space	3
 3145              	.LC102:
 3146 0104 53746974 		.ascii	"Stitch\000"
 3146      636800
 3147 010b 00       		.space	1
 3148              	.LC103:
 3149 010c 525400   		.ascii	"RT\000"
 3150 010f 00       		.space	1
 3151              	.LC104:
 3152 0110 435400   		.ascii	"CT\000"
 3153 0113 00       		.space	1
 3154              	.LC105:
 3155 0114 535100   		.ascii	"SQ\000"
 3156 0117 00       		.space	1
 3157              	.LC106:
 3158 0118 534C00   		.ascii	"SL\000"
 3159 011b 00       		.space	1
 3160              	.LC107:
 3161 011c 53504900 		.ascii	"SPI\000"
 3162              		.bss
 3163              		.align	2
 3164              		.set	.LANCHOR0,. + 0
 3165              		.set	.LANCHOR2,. + 768
 3166              		.set	.LANCHOR3,. + 1280
 3167              		.set	.LANCHOR4,. + 1664
 3168              		.set	.LANCHOR5,. + 2304
 3169              		.set	.LANCHOR6,. + 2816
 3170              		.type	indexSelect.9603, %object
 3171              		.size	indexSelect.9603, 2
 3172              	indexSelect.9603:
 3173 0000 0000     		.space	2
 3174 0002 0000     		.space	2
ARM GAS  C:\Users\theGu\AppData\Local\Temp\ccVU9Uhe.s 			page 77


 3175              		.type	menu.9601, %object
 3176              		.size	menu.9601, 876
 3177              	menu.9601:
 3178 0004 00000000 		.space	876
 3178      00000000 
 3178      00000000 
 3178      00000000 
 3178      00000000 
 3179              		.type	page.9376, %object
 3180              		.size	page.9376, 1
 3181              	page.9376:
 3182 0370 00       		.space	1
 3183 0371 000000   		.space	3
 3184              		.type	menu.9373, %object
 3185              		.size	menu.9373, 448
 3186              	menu.9373:
 3187 0374 00000000 		.space	448
 3187      00000000 
 3187      00000000 
 3187      00000000 
 3187      00000000 
 3188              		.type	menu.9461, %object
 3189              		.size	menu.9461, 448
 3190              	menu.9461:
 3191 0534 00000000 		.space	448
 3191      00000000 
 3191      00000000 
 3191      00000000 
 3191      00000000 
 3192              		.type	selectValue.9462, %object
 3193              		.size	selectValue.9462, 2
 3194              	selectValue.9462:
 3195 06f4 0000     		.space	2
 3196 06f6 0000     		.space	2
 3197              		.type	menu.9520, %object
 3198              		.size	menu.9520, 520
 3199              	menu.9520:
 3200 06f8 00000000 		.space	520
 3200      00000000 
 3200      00000000 
 3200      00000000 
 3200      00000000 
 3201              		.type	selectIncre.9521, %object
 3202              		.size	selectIncre.9521, 2
 3203              	selectIncre.9521:
 3204 0900 0000     		.space	2
 3205 0902 0000     		.space	2
 3206              		.type	value.9571, %object
 3207              		.size	value.9571, 4
 3208              	value.9571:
 3209 0904 00000000 		.space	4
 3210              		.type	menu.9569, %object
 3211              		.size	menu.9569, 520
 3212              	menu.9569:
 3213 0908 00000000 		.space	520
 3213      00000000 
 3213      00000000 
ARM GAS  C:\Users\theGu\AppData\Local\Temp\ccVU9Uhe.s 			page 78


 3213      00000000 
 3213      00000000 
 3214              		.type	selectIncre.9570, %object
 3215              		.size	selectIncre.9570, 2
 3216              	selectIncre.9570:
 3217 0b10 0000     		.space	2
 3218              		.text
 3219              	.Letext0:
 3220              		.file 2 "c:\\program files (x86)\\cypress\\psoc creator\\4.4\\psoc creator\\import\\gnu\\arm\\5.4.
 3221              		.file 3 "c:\\program files (x86)\\cypress\\psoc creator\\4.4\\psoc creator\\import\\gnu\\arm\\5.4.
 3222              		.file 4 "Generated_Source\\PSoC4/cytypes.h"
 3223              		.file 5 "./main.h"
 3224              		.file 6 "lib/menu.h"
 3225              		.file 7 "lib/UI.h"
 3226              		.file 8 "lib/button.h"
 3227              		.file 9 "lib/widget.h"
 3228              		.file 10 "count.h"
 3229              		.file 11 "userProjectPatternSewing.h"
 3230              		.file 12 "lib/fonts.h"
 3231              		.file 13 "lib/image.h"
 3232              		.file 14 "lib/externalFlash.h"
 3233              		.file 15 "lib/internalFlash.h"
 3234              		.file 16 "c:\\program files (x86)\\cypress\\psoc creator\\4.4\\psoc creator\\import\\gnu\\arm\\5.4
 3235              		.file 17 "lib/manageMenu.h"
 3236              		.file 18 "lib/andonMenu.h"