ARM GAS  C:\Users\luvsd\AppData\Local\Temp\cchIcbTK.s 			page 1


   1              		.syntax unified
   2              		.cpu cortex-m0
   3              		.fpu softvfp
   4              		.eabi_attribute 20, 1
   5              		.eabi_attribute 21, 1
   6              		.eabi_attribute 23, 3
   7              		.eabi_attribute 24, 1
   8              		.eabi_attribute 25, 1
   9              		.eabi_attribute 26, 1
  10              		.eabi_attribute 30, 1
  11              		.eabi_attribute 34, 0
  12              		.eabi_attribute 18, 4
  13              		.thumb
  14              		.syntax unified
  15              		.file	"main.c"
  16              		.text
  17              	.Ltext0:
  18              		.cfi_sections	.debug_frame
  19              		.global	__aeabi_uidivmod
  20              		.section	.text.SysTickISRCallback,"ax",%progbits
  21              		.align	2
  22              		.global	SysTickISRCallback
  23              		.code	16
  24              		.thumb_func
  25              		.type	SysTickISRCallback, %function
  26              	SysTickISRCallback:
  27              	.LFB34:
  28              		.file 1 "main.c"
   1:main.c        **** /* ========================================
   2:main.c        ****  *
   3:main.c        ****  * Copyright YOUR COMPANY, THE YEAR
   4:main.c        ****  * All Rights Reserved
   5:main.c        ****  * UNPUBLISHED, LICENSED SOFTWARE.
   6:main.c        ****  *
   7:main.c        ****  * CONFIDENTIAL AND PROPRIETARY INFORMATION
   8:main.c        ****  * WHICH IS THE PROPERTY OF your company.
   9:main.c        ****  *
  10:main.c        ****  * ========================================
  11:main.c        **** */
  12:main.c        **** #include "project.h"
  13:main.c        **** 
  14:main.c        **** unsigned long int timerCount =0;
  15:main.c        **** 
  16:main.c        **** void SysTickISRCallback(void)
  17:main.c        **** { 
  29              		.loc 1 17 0
  30              		.cfi_startproc
  31              		@ args = 0, pretend = 0, frame = 0
  32              		@ frame_needed = 0, uses_anonymous_args = 0
  33 0000 10B5     		push	{r4, lr}
  34              		.cfi_def_cfa_offset 8
  35              		.cfi_offset 4, -8
  36              		.cfi_offset 14, -4
  18:main.c        ****     timerCount++;
  37              		.loc 1 18 0
  38 0002 084B     		ldr	r3, .L3
  39 0004 1A68     		ldr	r2, [r3]
ARM GAS  C:\Users\luvsd\AppData\Local\Temp\cchIcbTK.s 			page 2


  40 0006 501C     		adds	r0, r2, #1
  41 0008 1860     		str	r0, [r3]
  19:main.c        ****     
  20:main.c        ****     if((timerCount % 100) == 0) LED_Write(~LED_Read());    
  42              		.loc 1 20 0
  43 000a 6421     		movs	r1, #100
  44 000c FFF7FEFF 		bl	__aeabi_uidivmod
  45              	.LVL0:
  46 0010 0029     		cmp	r1, #0
  47 0012 05D1     		bne	.L1
  48              		.loc 1 20 0 is_stmt 0 discriminator 1
  49 0014 FFF7FEFF 		bl	LED_Read
  50              	.LVL1:
  51 0018 C043     		mvns	r0, r0
  52 001a C0B2     		uxtb	r0, r0
  53 001c FFF7FEFF 		bl	LED_Write
  54              	.LVL2:
  55              	.L1:
  21:main.c        **** }
  56              		.loc 1 21 0 is_stmt 1
  57              		@ sp needed
  58 0020 10BD     		pop	{r4, pc}
  59              	.L4:
  60 0022 C046     		.align	2
  61              	.L3:
  62 0024 00000000 		.word	.LANCHOR0
  63              		.cfi_endproc
  64              	.LFE34:
  65              		.size	SysTickISRCallback, .-SysTickISRCallback
  66              		.section	.text.initSysTick,"ax",%progbits
  67              		.align	2
  68              		.global	initSysTick
  69              		.code	16
  70              		.thumb_func
  71              		.type	initSysTick, %function
  72              	initSysTick:
  73              	.LFB35:
  22:main.c        **** 
  23:main.c        **** void initSysTick()
  24:main.c        **** {
  74              		.loc 1 24 0
  75              		.cfi_startproc
  76              		@ args = 0, pretend = 0, frame = 0
  77              		@ frame_needed = 0, uses_anonymous_args = 0
  78 0000 10B5     		push	{r4, lr}
  79              		.cfi_def_cfa_offset 8
  80              		.cfi_offset 4, -8
  81              		.cfi_offset 14, -4
  25:main.c        ****     CySysTickStart();
  82              		.loc 1 25 0
  83 0002 FFF7FEFF 		bl	CySysTickStart
  84              	.LVL3:
  26:main.c        ****     uint32 i;
  27:main.c        ****     
  28:main.c        ****     /* Find unused callback slot and assign the callback. */
  29:main.c        ****     for (i = 0u; i < CY_SYS_SYST_NUM_OF_CALLBACKS; ++i)
  85              		.loc 1 29 0
ARM GAS  C:\Users\luvsd\AppData\Local\Temp\cchIcbTK.s 			page 3


  86 0006 0024     		movs	r4, #0
  87 0008 0AE0     		b	.L6
  88              	.LVL4:
  89              	.L9:
  30:main.c        ****     {
  31:main.c        ****         if (CySysTickGetCallback(i) == NULL)
  90              		.loc 1 31 0
  91 000a 2000     		movs	r0, r4
  92 000c FFF7FEFF 		bl	CySysTickGetCallback
  93              	.LVL5:
  94 0010 0028     		cmp	r0, #0
  95 0012 04D1     		bne	.L7
  32:main.c        ****         {
  33:main.c        ****             /* Set callback */
  34:main.c        ****             CySysTickSetCallback(i, SysTickISRCallback);
  96              		.loc 1 34 0
  97 0014 0449     		ldr	r1, .L10
  98 0016 2000     		movs	r0, r4
  99 0018 FFF7FEFF 		bl	CySysTickSetCallback
 100              	.LVL6:
  35:main.c        ****             break;
 101              		.loc 1 35 0
 102 001c 02E0     		b	.L5
 103              	.L7:
  29:main.c        ****     {
 104              		.loc 1 29 0 discriminator 2
 105 001e 0134     		adds	r4, r4, #1
 106              	.LVL7:
 107              	.L6:
  29:main.c        ****     {
 108              		.loc 1 29 0 is_stmt 0 discriminator 1
 109 0020 042C     		cmp	r4, #4
 110 0022 F2D9     		bls	.L9
 111              	.L5:
  36:main.c        ****         }
  37:main.c        ****     }
  38:main.c        **** }
 112              		.loc 1 38 0 is_stmt 1
 113              		@ sp needed
 114              	.LVL8:
 115 0024 10BD     		pop	{r4, pc}
 116              	.L11:
 117 0026 C046     		.align	2
 118              	.L10:
 119 0028 00000000 		.word	SysTickISRCallback
 120              		.cfi_endproc
 121              	.LFE35:
 122              		.size	initSysTick, .-initSysTick
 123              		.section	.text.main,"ax",%progbits
 124              		.align	2
 125              		.global	main
 126              		.code	16
 127              		.thumb_func
 128              		.type	main, %function
 129              	main:
 130              	.LFB36:
  39:main.c        **** 
ARM GAS  C:\Users\luvsd\AppData\Local\Temp\cchIcbTK.s 			page 4


  40:main.c        **** int main(void)
  41:main.c        **** {
 131              		.loc 1 41 0
 132              		.cfi_startproc
 133              		@ Volatile: function does not return.
 134              		@ args = 0, pretend = 0, frame = 0
 135              		@ frame_needed = 0, uses_anonymous_args = 0
 136 0000 10B5     		push	{r4, lr}
 137              		.cfi_def_cfa_offset 8
 138              		.cfi_offset 4, -8
 139              		.cfi_offset 14, -4
  42:main.c        ****     CyGlobalIntEnable; /* Enable global interrupts. */
 140              		.loc 1 42 0
 141              		.syntax divided
 142              	@ 42 "main.c" 1
 143 0002 62B6     		CPSIE   i
 144              	@ 0 "" 2
  43:main.c        ****  
  44:main.c        ****     initSysTick();
 145              		.loc 1 44 0
 146              		.thumb
 147              		.syntax unified
 148 0004 FFF7FEFF 		bl	initSysTick
 149              	.LVL9:
  45:main.c        ****    
  46:main.c        ****     Bootloader_Start();
 150              		.loc 1 46 0
 151 0008 FFF7FEFF 		bl	Bootloader_Start
 152              	.LVL10:
 153              	.L13:
 154 000c FEE7     		b	.L13
 155              		.cfi_endproc
 156              	.LFE36:
 157              		.size	main, .-main
 158              		.global	timerCount
 159 000e C046     		.bss
 160              		.align	2
 161              		.set	.LANCHOR0,. + 0
 162              		.type	timerCount, %object
 163              		.size	timerCount, 4
 164              	timerCount:
 165 0000 00000000 		.space	4
 166              		.text
 167              	.Letext0:
 168              		.file 2 "Generated_Source\\PSoC4/LED.h"
 169              		.file 3 "Generated_Source\\PSoC4/CyLib.h"
 170              		.file 4 "Generated_Source\\PSoC4/Bootloader.h"
 171              		.file 5 "Generated_Source\\PSoC4/cytypes.h"