ARM GAS  C:\Users\luvsd\AppData\Local\Temp\ccRGZz2z.s 			page 1


   1              		.syntax unified
   2              		.cpu cortex-m0
   3              		.fpu softvfp
   4              		.eabi_attribute 20, 1
   5              		.eabi_attribute 21, 1
   6              		.eabi_attribute 23, 3
   7              		.eabi_attribute 24, 1
   8              		.eabi_attribute 25, 1
   9              		.eabi_attribute 26, 1
  10              		.eabi_attribute 30, 1
  11              		.eabi_attribute 34, 0
  12              		.eabi_attribute 18, 4
  13              		.thumb
  14              		.syntax unified
  15              		.file	"main.c"
  16              		.text
  17              	.Ltext0:
  18              		.cfi_sections	.debug_frame
  19              		.section	.text.process_BARCODE,"ax",%progbits
  20              		.align	2
  21              		.global	process_BARCODE
  22              		.code	16
  23              		.thumb_func
  24              		.type	process_BARCODE, %function
  25              	process_BARCODE:
  26              	.LFB35:
  27              		.file 1 "main.c"
   1:main.c        **** /*
   2:main.c        ****  * ST-500 Touch OP Version
   3:main.c        ****  *
   4:main.c        ****  * 20-03-10 : Bootloader. 2D Scanner + Touch OP.
   5:main.c        ****  * 20-03-10 : USED HWI. Scanner Mode Enable.
   6:main.c        ****  * 20-03-10 : Count > 2Pin. Power > 8Pin. IoT ļ│┤ļō£ ņĀäņøÉņØä CPU ļ│┤ļō£ņÖĆ ņŚ░Ļ▓░ĒĢ┤ņĢ╝ ĒĢ©.
   7:main.c        ****  * 20-03-10 : HWI Downtime End OK. Foot or Hand Switch Cable ņŚÉ ņŚ░Ļ▓░.
   8:main.c        ****  * 20-03-10 : Tablet > "OP Port". Touch OP (With Scanner) > "Monitoring Port". Scanner Test OK.
   9:main.c        ****  * 20-03-10 : HWI ņĀäņ▓┤ ņĀüņÜ®.
  10:main.c        ****  *
  11:main.c        ****  * 21-05-28 : 2021 New version
  12:main.c        ****  * 21-05-28 : VJ, SCI, PWJ version
  13:main.c        ****  * 21-05-28 : old button op unused (only ST-500 version)
  14:main.c        ****  * 21-05-28 : ST-500 is Monitoring port
  15:main.c        ****  * 21-05-28 : Tablet is OP port
  16:main.c        ****  *
  17:main.c        ****  * 26-03-03 : ņĮöļō£ Ļ░£ņäĀ - ĒāĆņ×ģ ņĢłņĀäņä▒ Ē¢źņāü, NULL ĒÅ¼ņØĖĒä░ Ļ▓Ćņé¼ ņČöĻ░Ć,
  18:main.c        ****  *            ņāüņłś ņĀĢņØś ņĀüņÜ®, ļ▓äĒŹ╝ ņśżļ▓äĒöīļĪ£ņÜ░ ļ░®ņ¢┤, ļ»Ėņé¼ņÜ® ļ│Ćņłś ņĀ£Ļ▒░
  19:main.c        ****  *
  20:main.c        ****  * 26-03-16 : [TESTER] ņŖżņ║ö ĒŖĖļ”¼Ļ▒░ ļ╣äĒÖ£ņä▒ĒÖö, ņŖżņ║ö Ļ░Æ ņøÉļ│Ė ĻĘĖļīĆļĪ£ port_MONITORING ņ
  21:main.c        ****  */
  22:main.c        **** 
  23:main.c        **** #include "main.h"
  24:main.c        **** 
  25:main.c        **** /* ---- ņĀäņŚŁ ļ│Ćņłś ---- */
  26:main.c        **** unsigned long  lastReceivedTime            = 0;
  27:main.c        **** char           receivedFromBarcode[UART_BUF_SIZE];
  28:main.c        **** uint8_t        receivedFromBarcodeCount    = 0;   /* FIX: char ŌåÆ uint8_t (ļ░░ņŚ┤ ņØĖļŹ▒ņŖż ĒāĆņ×ģ
  29:main.c        **** 
  30:main.c        **** /* [TESTER] ņŖżņ║ö ĒŖĖļ”¼Ļ▒░ ļ»Ėņé¼ņÜ® ŌĆö ņČöĒøä ĒÖ£ņä▒ĒÖö ņŗ£ ņĢäļ×ś ņŻ╝ņäØ ĒĢ┤ņĀ£ */
ARM GAS  C:\Users\luvsd\AppData\Local\Temp\ccRGZz2z.s 			page 2


  31:main.c        **** /* char  scanTrigerStart[3] = { 0x02, 0xF4, 0x03 }; */
  32:main.c        **** 
  33:main.c        **** char           receivedScanTrigerOrder[UART_BUF_SIZE];
  34:main.c        **** unsigned int   receivedScanTrigerOrderCount = 0;
  35:main.c        **** 
  36:main.c        **** 
  37:main.c        **** /* ------------------------------------------------------------------ */
  38:main.c        **** /*  process_BARCODE()                                                 */
  39:main.c        **** /*  ņŖżņ║Éļäł UART RX ļ▓äĒŹ╝ņŚÉņä£ ļŹ░ņØ┤Ēä░ļź╝ ņØĮņ¢┤ receivedFromBarcode ņŚÉ ļłäņĀü  */
  40:main.c        **** /* ------------------------------------------------------------------ */
  41:main.c        **** void process_BARCODE(void)
  42:main.c        **** {
  28              		.loc 1 42 0
  29              		.cfi_startproc
  30              		@ args = 0, pretend = 0, frame = 0
  31              		@ frame_needed = 0, uses_anonymous_args = 0
  32 0000 10B5     		push	{r4, lr}
  33              		.cfi_def_cfa_offset 8
  34              		.cfi_offset 4, -8
  35              		.cfi_offset 14, -4
  43:main.c        ****     while (BARCODE_SpiUartGetRxBufferSize() > 0)
  36              		.loc 1 43 0
  37 0002 13E0     		b	.L4
  38              	.L5:
  39              	.LBB2:
  44:main.c        ****     {
  45:main.c        ****         char c = BARCODE_UartGetChar();  /* ĒĢŁņāü ļ▓äĒŹ╝ņŚÉņä£ ņåīļ╣ä */
  40              		.loc 1 45 0
  41 0004 FFF7FEFF 		bl	BARCODE_UartGetChar
  42              	.LVL0:
  43 0008 C0B2     		uxtb	r0, r0
  44              	.LVL1:
  46:main.c        **** 
  47:main.c        ****         if (receivedFromBarcodeCount == 0)
  45              		.loc 1 47 0
  46 000a 0B4B     		ldr	r3, .L6
  47 000c 1B78     		ldrb	r3, [r3]
  48 000e 002B     		cmp	r3, #0
  49 0010 02D1     		bne	.L3
  48:main.c        ****         {
  49:main.c        ****             timerCount = 0;
  50              		.loc 1 49 0
  51 0012 0021     		movs	r1, #0
  52 0014 094A     		ldr	r2, .L6+4
  53 0016 1160     		str	r1, [r2]
  54              	.L3:
  50:main.c        ****         }
  51:main.c        **** 
  52:main.c        ****         lastReceivedTime = timerCount;
  55              		.loc 1 52 0
  56 0018 084A     		ldr	r2, .L6+4
  57 001a 1168     		ldr	r1, [r2]
  58 001c 064A     		ldr	r2, .L6
  59 001e 5160     		str	r1, [r2, #4]
  53:main.c        **** 
  54:main.c        ****         if (receivedFromBarcodeCount < (uint8_t)(UART_BUF_SIZE - 1))
  60              		.loc 1 54 0
ARM GAS  C:\Users\luvsd\AppData\Local\Temp\ccRGZz2z.s 			page 3


  61 0020 FF2B     		cmp	r3, #255
  62 0022 03D0     		beq	.L4
  55:main.c        ****         {
  56:main.c        ****             receivedFromBarcode[receivedFromBarcodeCount++] = c;
  63              		.loc 1 56 0
  64 0024 591C     		adds	r1, r3, #1
  65 0026 1170     		strb	r1, [r2]
  66 0028 054A     		ldr	r2, .L6+8
  67 002a D054     		strb	r0, [r2, r3]
  68              	.LVL2:
  69              	.L4:
  70              	.LBE2:
  43:main.c        ****     {
  71              		.loc 1 43 0
  72 002c FFF7FEFF 		bl	BARCODE_SpiUartGetRxBufferSize
  73              	.LVL3:
  74 0030 0028     		cmp	r0, #0
  75 0032 E7D1     		bne	.L5
  57:main.c        ****         }
  58:main.c        ****     }
  59:main.c        **** }
  76              		.loc 1 59 0
  77              		@ sp needed
  78 0034 10BD     		pop	{r4, pc}
  79              	.L7:
  80 0036 C046     		.align	2
  81              	.L6:
  82 0038 00000000 		.word	.LANCHOR0
  83 003c 00000000 		.word	timerCount
  84 0040 00000000 		.word	receivedFromBarcode
  85              		.cfi_endproc
  86              	.LFE35:
  87              		.size	process_BARCODE, .-process_BARCODE
  88              		.section	.text.process_MONITORING,"ax",%progbits
  89              		.align	2
  90              		.global	process_MONITORING
  91              		.code	16
  92              		.thumb_func
  93              		.type	process_MONITORING, %function
  94              	process_MONITORING:
  95              	.LFB36:
  60:main.c        **** 
  61:main.c        **** 
  62:main.c        **** /* ------------------------------------------------------------------ */
  63:main.c        **** /*  process_MONITORING()                                              */
  64:main.c        **** /*  Touch OP ļĪ£ļČĆĒä░ ļ░øņØĆ ļ¬ģļĀ╣ņØä Ēīīņŗ▒ĒĢśņŚ¼ ņŖżņ║Éļäł ļśÉļŖö Ēā£ļĖöļ”┐ņ£╝ļĪ£ ņĀäļŗ¼  */
  65:main.c        **** /* ------------------------------------------------------------------ */
  66:main.c        **** void process_MONITORING(void)
  67:main.c        **** {
  96              		.loc 1 67 0
  97              		.cfi_startproc
  98              		@ args = 0, pretend = 0, frame = 0
  99              		@ frame_needed = 0, uses_anonymous_args = 0
 100 0000 10B5     		push	{r4, lr}
 101              		.cfi_def_cfa_offset 8
 102              		.cfi_offset 4, -8
 103              		.cfi_offset 14, -4
ARM GAS  C:\Users\luvsd\AppData\Local\Temp\ccRGZz2z.s 			page 4


  68:main.c        ****     while (port_MONITORING_SpiUartGetRxBufferSize() > 0)
 104              		.loc 1 68 0
 105 0002 25E0     		b	.L12
 106              	.L14:
 107              	.LBB3:
  69:main.c        ****     {
  70:main.c        ****         char ch = port_MONITORING_UartGetChar();  /* ĒĢŁņāü ļ▓äĒŹ╝ņŚÉņä£ ņåīļ╣ä */
 108              		.loc 1 70 0
 109 0004 FFF7FEFF 		bl	port_MONITORING_UartGetChar
 110              	.LVL4:
 111 0008 C0B2     		uxtb	r0, r0
 112              	.LVL5:
  71:main.c        **** 
  72:main.c        ****         if (receivedScanTrigerOrderCount == 0)
 113              		.loc 1 72 0
 114 000a 144B     		ldr	r3, .L15
 115 000c 9B68     		ldr	r3, [r3, #8]
 116 000e 002B     		cmp	r3, #0
 117 0010 02D1     		bne	.L10
  73:main.c        ****         {
  74:main.c        ****             timerCount = 0;
 118              		.loc 1 74 0
 119 0012 0021     		movs	r1, #0
 120 0014 124A     		ldr	r2, .L15+4
 121 0016 1160     		str	r1, [r2]
 122              	.L10:
  75:main.c        ****         }
  76:main.c        **** 
  77:main.c        ****         lastReceivedTime = timerCount;
 123              		.loc 1 77 0
 124 0018 114A     		ldr	r2, .L15+4
 125 001a 1168     		ldr	r1, [r2]
 126 001c 0F4A     		ldr	r2, .L15
 127 001e 5160     		str	r1, [r2, #4]
  78:main.c        **** 
  79:main.c        ****         if (receivedScanTrigerOrderCount < UART_BUF_SIZE - 1)
 128              		.loc 1 79 0
 129 0020 FE2B     		cmp	r3, #254
 130 0022 03D8     		bhi	.L11
  80:main.c        ****         {
  81:main.c        ****             receivedScanTrigerOrder[receivedScanTrigerOrderCount++] = ch;
 131              		.loc 1 81 0
 132 0024 591C     		adds	r1, r3, #1
 133 0026 9160     		str	r1, [r2, #8]
 134 0028 0E4A     		ldr	r2, .L15+8
 135 002a D054     		strb	r0, [r2, r3]
 136              	.L11:
  82:main.c        ****         }
  83:main.c        **** 
  84:main.c        ****         if (receivedScanTrigerOrderCount == strlen(SCAN_TRIGER_ORDER_STR))
 137              		.loc 1 84 0
 138 002c 0B4B     		ldr	r3, .L15
 139 002e 9B68     		ldr	r3, [r3, #8]
 140 0030 122B     		cmp	r3, #18
 141 0032 0DD1     		bne	.L12
  85:main.c        ****         {
  86:main.c        ****             receivedScanTrigerOrder[receivedScanTrigerOrderCount] = '\0';
ARM GAS  C:\Users\luvsd\AppData\Local\Temp\ccRGZz2z.s 			page 5


 142              		.loc 1 86 0
 143 0034 0B48     		ldr	r0, .L15+8
 144              	.LVL6:
 145 0036 0022     		movs	r2, #0
 146 0038 C254     		strb	r2, [r0, r3]
  87:main.c        **** 
  88:main.c        ****             /* [TESTER] ņŖżņ║ö ĒŖĖļ”¼Ļ▒░ ņĀäņåĪ ļ╣äĒÖ£ņä▒ĒÖö ŌĆö ņČöĒøä ĒĢäņÜö ņŗ£ ņĢäļ×ś ņŻ╝ņäØ ĒĢ
  89:main.c        ****             if (strcmp(receivedScanTrigerOrder, SCAN_TRIGER_ORDER_STR) == 0)
  90:main.c        ****             {
  91:main.c        ****                 int i;
  92:main.c        ****                 for (i = 0; i < 3; i++)
  93:main.c        ****                 {
  94:main.c        ****                     BARCODE_UartPutChar(scanTrigerStart[i]);
  95:main.c        ****                 }
  96:main.c        ****             }
  97:main.c        ****             */
  98:main.c        **** 
  99:main.c        ****             if (strcmp(receivedScanTrigerOrder, SCAN_MODE_CMD_STR) == 0)
 147              		.loc 1 99 0
 148 003a 0B49     		ldr	r1, .L15+12
 149 003c FFF7FEFF 		bl	strcmp
 150              	.LVL7:
 151 0040 0028     		cmp	r0, #0
 152 0042 02D1     		bne	.L13
 100:main.c        ****             {
 101:main.c        ****                 port_MONITORING_UartPutString("@@@@!99900304;&{FM100-M-R|DD03AB95}^^^^");
 153              		.loc 1 101 0
 154 0044 0948     		ldr	r0, .L15+16
 155 0046 FFF7FEFF 		bl	port_MONITORING_UartPutString
 156              	.LVL8:
 157              	.L13:
 102:main.c        ****             }
 103:main.c        **** 
 104:main.c        ****             receivedScanTrigerOrderCount = 0;
 158              		.loc 1 104 0
 159 004a 0022     		movs	r2, #0
 160 004c 034B     		ldr	r3, .L15
 161 004e 9A60     		str	r2, [r3, #8]
 162              	.L12:
 163              	.LBE3:
  68:main.c        ****     {
 164              		.loc 1 68 0
 165 0050 FFF7FEFF 		bl	port_MONITORING_SpiUartGetRxBufferSize
 166              	.LVL9:
 167 0054 0028     		cmp	r0, #0
 168 0056 D5D1     		bne	.L14
 105:main.c        ****         }
 106:main.c        ****     }
 107:main.c        **** }
 169              		.loc 1 107 0
 170              		@ sp needed
 171 0058 10BD     		pop	{r4, pc}
 172              	.L16:
 173 005a C046     		.align	2
 174              	.L15:
 175 005c 00000000 		.word	.LANCHOR0
 176 0060 00000000 		.word	timerCount
ARM GAS  C:\Users\luvsd\AppData\Local\Temp\ccRGZz2z.s 			page 6


 177 0064 00000000 		.word	receivedScanTrigerOrder
 178 0068 00000000 		.word	.LC6
 179 006c 14000000 		.word	.LC8
 180              		.cfi_endproc
 181              	.LFE36:
 182              		.size	process_MONITORING, .-process_MONITORING
 183              		.section	.text.main,"ax",%progbits
 184              		.align	2
 185              		.global	main
 186              		.code	16
 187              		.thumb_func
 188              		.type	main, %function
 189              	main:
 190              	.LFB37:
 108:main.c        **** 
 109:main.c        **** 
 110:main.c        **** /* ------------------------------------------------------------------ */
 111:main.c        **** /*  main()                                                            */
 112:main.c        **** /* ------------------------------------------------------------------ */
 113:main.c        **** int main(void)
 114:main.c        **** {
 191              		.loc 1 114 0
 192              		.cfi_startproc
 193              		@ args = 0, pretend = 0, frame = 0
 194              		@ frame_needed = 0, uses_anonymous_args = 0
 195 0000 70B5     		push	{r4, r5, r6, lr}
 196              		.cfi_def_cfa_offset 16
 197              		.cfi_offset 4, -16
 198              		.cfi_offset 5, -12
 199              		.cfi_offset 6, -8
 200              		.cfi_offset 14, -4
 115:main.c        ****     CyGlobalIntEnable;
 201              		.loc 1 115 0
 202              		.syntax divided
 203              	@ 115 "main.c" 1
 204 0002 62B6     		CPSIE   i
 205              	@ 0 "" 2
 116:main.c        ****     init();
 206              		.loc 1 116 0
 207              		.thumb
 208              		.syntax unified
 209 0004 FFF7FEFF 		bl	init
 210              	.LVL10:
 117:main.c        **** 
 118:main.c        ****     port_MONITORING_UartPutString("SunTech CTP280 BARCODE SCANNER TEST Start port_MONITORING...\r\n
 211              		.loc 1 118 0
 212 0008 2548     		ldr	r0, .L23
 213 000a FFF7FEFF 		bl	port_MONITORING_UartPutString
 214              	.LVL11:
 119:main.c        ****     port_OP_UartPutString("SunTech CTP280 BARCODE SCANNER TEST Start port_OP...\r\n");
 215              		.loc 1 119 0
 216 000e 2548     		ldr	r0, .L23+4
 217 0010 FFF7FEFF 		bl	port_OP_UartPutString
 218              	.LVL12:
 120:main.c        **** 
 121:main.c        ****     char oldCounterStat = Counter_Read();
 219              		.loc 1 121 0
ARM GAS  C:\Users\luvsd\AppData\Local\Temp\ccRGZz2z.s 			page 7


 220 0014 FFF7FEFF 		bl	Counter_Read
 221              	.LVL13:
 222 0018 0500     		movs	r5, r0
 223              	.LVL14:
 224 001a 00E0     		b	.L18
 225              	.LVL15:
 226              	.L22:
 114:main.c        ****     CyGlobalIntEnable;
 227              		.loc 1 114 0
 228 001c 2500     		movs	r5, r4
 229              	.LVL16:
 230              	.L18:
 231              	.LBB4:
 122:main.c        **** 
 123:main.c        ****     
 124:main.c        **** 
 125:main.c        ****     for (;;)
 126:main.c        ****     {
 127:main.c        ****         char currentCounterStat = Counter_Read();
 232              		.loc 1 127 0
 233 001e FFF7FEFF 		bl	Counter_Read
 234              	.LVL17:
 235 0022 0400     		movs	r4, r0
 236 0024 0300     		movs	r3, r0
 237              	.LVL18:
 128:main.c        **** 
 129:main.c        ****         /* Counter ĒĢśĻ░Ģ ņŚŻņ¦Ć (1ŌåÆ0): ĒāĆņØ┤ļ©Ė ņ┤łĻĖ░ĒÖö */
 130:main.c        ****         if (oldCounterStat != currentCounterStat && currentCounterStat == 0)
 238              		.loc 1 130 0
 239 0026 8542     		cmp	r5, r0
 240 0028 06D0     		beq	.L19
 241              		.loc 1 130 0 is_stmt 0 discriminator 1
 242 002a 0028     		cmp	r0, #0
 243 002c 04D1     		bne	.L19
 131:main.c        ****         {
 132:main.c        ****             timerCount       = 0;
 244              		.loc 1 132 0 is_stmt 1
 245 002e 0022     		movs	r2, #0
 246 0030 1D49     		ldr	r1, .L23+8
 247 0032 0A60     		str	r2, [r1]
 133:main.c        ****             lastReceivedTime = 0;
 248              		.loc 1 133 0
 249 0034 1D49     		ldr	r1, .L23+12
 250 0036 4A60     		str	r2, [r1, #4]
 251              	.L19:
 134:main.c        ****         }
 135:main.c        **** 
 136:main.c        ****         /* Counter ņāüņŖ╣ ņŚŻņ¦Ć (0ŌåÆ1): ņ£ĀĒÜ© ļ▓öņ£ä ļé┤ļ®┤ Ēā£ļĖöļ”┐ņŚÉ ņ╣┤ņÜ┤ĒŖĖ ņØ┤ļ▓żĒŖĖ ņĀä
 137:main.c        ****         if (oldCounterStat != currentCounterStat && currentCounterStat == 1)
 252              		.loc 1 137 0
 253 0038 9D42     		cmp	r5, r3
 254 003a 0DD0     		beq	.L20
 255              		.loc 1 137 0 is_stmt 0 discriminator 1
 256 003c 012B     		cmp	r3, #1
 257 003e 0BD1     		bne	.L20
 258              	.LBB5:
 138:main.c        ****         {
ARM GAS  C:\Users\luvsd\AppData\Local\Temp\ccRGZz2z.s 			page 8


 139:main.c        ****             unsigned int dTime = timerCount - lastReceivedTime;
 259              		.loc 1 139 0 is_stmt 1
 260 0040 194B     		ldr	r3, .L23+8
 261 0042 1B68     		ldr	r3, [r3]
 262 0044 194A     		ldr	r2, .L23+12
 263 0046 5268     		ldr	r2, [r2, #4]
 264 0048 9B1A     		subs	r3, r3, r2
 265              	.LVL19:
 140:main.c        **** 
 141:main.c        ****             if (dTime > COUNTER_MIN_MS && dTime < COUNTER_MAX_MS)
 266              		.loc 1 141 0
 267 004a C93B     		subs	r3, r3, #201
 268              	.LVL20:
 269 004c 184A     		ldr	r2, .L23+16
 270 004e 9342     		cmp	r3, r2
 271 0050 02D8     		bhi	.L20
 142:main.c        ****             {
 143:main.c        ****                 port_OP_UartPutString("{\"cmd\" : \"count\", \"value\" : 1}");
 272              		.loc 1 143 0
 273 0052 1848     		ldr	r0, .L23+20
 274              	.LVL21:
 275 0054 FFF7FEFF 		bl	port_OP_UartPutString
 276              	.LVL22:
 277              	.L20:
 278              	.LBE5:
 144:main.c        ****             }
 145:main.c        ****         }
 146:main.c        **** 
 147:main.c        ****         oldCounterStat = currentCounterStat;
 148:main.c        **** 
 149:main.c        ****         /* ĒāĆņ×äņĢäņøā: ņłśņŗĀ ņÖäļŻīļĪ£ ĒīÉļŗ©ĒĢśĻ│Ā ļ▓äĒŹ╝ ņ▓śļ”¼ */
 150:main.c        ****         if (timerCount - lastReceivedTime > TIMEOUT_MS_UART)
 279              		.loc 1 150 0
 280 0058 134B     		ldr	r3, .L23+8
 281 005a 1B68     		ldr	r3, [r3]
 282 005c 134A     		ldr	r2, .L23+12
 283 005e 5268     		ldr	r2, [r2, #4]
 284 0060 9B1A     		subs	r3, r3, r2
 285 0062 322B     		cmp	r3, #50
 286 0064 10D9     		bls	.L21
 151:main.c        ****         {
 152:main.c        ****             receivedScanTrigerOrderCount = 0;
 287              		.loc 1 152 0
 288 0066 114B     		ldr	r3, .L23+12
 289 0068 0022     		movs	r2, #0
 290 006a 9A60     		str	r2, [r3, #8]
 153:main.c        **** 
 154:main.c        ****             if (receivedFromBarcodeCount > 0)
 291              		.loc 1 154 0
 292 006c 1B78     		ldrb	r3, [r3]
 293 006e 002B     		cmp	r3, #0
 294 0070 0AD0     		beq	.L21
 155:main.c        ****             {
 156:main.c        ****                 receivedFromBarcode[receivedFromBarcodeCount] = '\0';
 295              		.loc 1 156 0
 296 0072 114D     		ldr	r5, .L23+24
 297 0074 0026     		movs	r6, #0
ARM GAS  C:\Users\luvsd\AppData\Local\Temp\ccRGZz2z.s 			page 9


 298 0076 EE54     		strb	r6, [r5, r3]
 157:main.c        **** 
 158:main.c        ****                 /* [TESTER] ņŖżņ║ö Ļ░Æ ņøÉļ│Ė ĻĘĖļīĆļĪ£ port_MONITORING ņ£╝ļĪ£ ņåĪņŗĀ */
 159:main.c        ****                 port_MONITORING_UartPutString(receivedFromBarcode);
 299              		.loc 1 159 0
 300 0078 2800     		movs	r0, r5
 301 007a FFF7FEFF 		bl	port_MONITORING_UartPutString
 302              	.LVL23:
 160:main.c        ****                 port_OP_UartPutString(receivedFromBarcode);
 303              		.loc 1 160 0
 304 007e 2800     		movs	r0, r5
 305 0080 FFF7FEFF 		bl	port_OP_UartPutString
 306              	.LVL24:
 161:main.c        **** 
 162:main.c        ****                 /* [TESTER] ĻĖ░ņĪ┤ Ēīīņŗ▒/ĒÅ¼ļ¦Ę ļĪ£ņ¦ü ļ╣äĒÖ£ņä▒ĒÖö ŌĆö ņČöĒøä ĒÖ£ņä▒ĒÖö ņŗ£ ņĢäļ×
 163:main.c        ****                 char  *ptrFirst;
 164:main.c        ****                 char  *ptrSecond;
 165:main.c        ****                 char  *ptrThird;
 166:main.c        ****                 char   msg[UART_BUF_SIZE];
 167:main.c        **** 
 168:main.c        ****                 ptrFirst  = strtok(receivedFromBarcode, "/\r\n");
 169:main.c        ****                 ptrSecond = strtok(NULL, "/\r\n");
 170:main.c        ****                 ptrThird  = strtok(NULL, "/\r\n");
 171:main.c        **** 
 172:main.c        ****                 if (ptrFirst != NULL)
 173:main.c        ****                 {
 174:main.c        ****                     sprintf(msg, "@@@@!99900035;^^^^*P%s*\r\n", ptrFirst);
 175:main.c        ****                     port_MONITORING_UartPutString(msg);
 176:main.c        ****                 }
 177:main.c        **** 
 178:main.c        ****                 if (ptrThird != NULL && strlen(ptrThird) > 0)
 179:main.c        ****                 {
 180:main.c        ****                     sprintf(msg, "{\"cmd\" : \"barcode\", \"value\" : [\"%s\",\"%s\"]}", ptrSecond,
 181:main.c        ****                 }
 182:main.c        ****                 else if (ptrSecond != NULL && strlen(ptrSecond) > 0)
 183:main.c        ****                 {
 184:main.c        ****                     sprintf(msg, "{\"cmd\" : \"barcode\", \"value\" : [\"%s\"]}", ptrSecond);
 185:main.c        ****                 }
 186:main.c        ****                 else
 187:main.c        ****                 {
 188:main.c        ****                     strcpy(msg, "");
 189:main.c        ****                 }
 190:main.c        **** 
 191:main.c        ****                 port_OP_UartPutString(msg);
 192:main.c        ****                 */
 193:main.c        **** 
 194:main.c        ****                 receivedFromBarcodeCount = 0;
 307              		.loc 1 194 0
 308 0084 094B     		ldr	r3, .L23+12
 309 0086 1E70     		strb	r6, [r3]
 310              	.L21:
 195:main.c        ****             }
 196:main.c        ****         }
 197:main.c        **** 
 198:main.c        ****         process_BARCODE();
 311              		.loc 1 198 0
 312 0088 FFF7FEFF 		bl	process_BARCODE
ARM GAS  C:\Users\luvsd\AppData\Local\Temp\ccRGZz2z.s 			page 10


 313              	.LVL25:
 199:main.c        ****         process_MONITORING();
 314              		.loc 1 199 0
 315 008c FFF7FEFF 		bl	process_MONITORING
 316              	.LVL26:
 200:main.c        **** 
 201:main.c        ****         /* IoT Board ļé┤ļČĆ ļ▓äĒŖ╝: LOW Ļ░Éņ¦Ć ņŗ£ ļČĆĒŖĖļĪ£ļŹö ņ¦äņ×ģ */
 202:main.c        ****         if (Pin_StartBootloader_Read() == 0)
 317              		.loc 1 202 0
 318 0090 FFF7FEFF 		bl	Pin_StartBootloader_Read
 319              	.LVL27:
 320 0094 0028     		cmp	r0, #0
 321 0096 C1D1     		bne	.L22
 203:main.c        ****         {
 204:main.c        ****             BootloaderStart();
 322              		.loc 1 204 0
 323 0098 FFF7FEFF 		bl	BootloaderStart
 324              	.LVL28:
 325 009c BEE7     		b	.L22
 326              	.L24:
 327 009e C046     		.align	2
 328              	.L23:
 329 00a0 3C000000 		.word	.LC10
 330 00a4 7C000000 		.word	.LC12
 331 00a8 00000000 		.word	timerCount
 332 00ac 00000000 		.word	.LANCHOR0
 333 00b0 A2060000 		.word	1698
 334 00b4 B4000000 		.word	.LC16
 335 00b8 00000000 		.word	receivedFromBarcode
 336              	.LBE4:
 337              		.cfi_endproc
 338              	.LFE37:
 339              		.size	main, .-main
 340              		.global	receivedScanTrigerOrderCount
 341              		.comm	receivedScanTrigerOrder,256,4
 342              		.global	receivedFromBarcodeCount
 343              		.comm	receivedFromBarcode,256,4
 344              		.global	lastReceivedTime
 345              		.section	.rodata.str1.4,"aMS",%progbits,1
 346              		.align	2
 347              	.LC6:
 348 0000 24242424 		.ascii	"$$$$#99900304;%%%%\000"
 348      23393939 
 348      30303330 
 348      343B2525 
 348      252500
 349 0013 00       		.space	1
 350              	.LC8:
 351 0014 40404040 		.ascii	"@@@@!99900304;&{FM100-M-R|DD03AB95}^^^^\000"
 351      21393939 
 351      30303330 
 351      343B267B 
 351      464D3130 
 352              	.LC10:
 353 003c 53756E54 		.ascii	"SunTech CTP280 BARCODE SCANNER TEST Start port_MONI"
 353      65636820 
 353      43545032 
ARM GAS  C:\Users\luvsd\AppData\Local\Temp\ccRGZz2z.s 			page 11


 353      38302042 
 353      4152434F 
 354 006f 544F5249 		.ascii	"TORING...\015\012\000"
 354      4E472E2E 
 354      2E0D0A00 
 355 007b 00       		.space	1
 356              	.LC12:
 357 007c 53756E54 		.ascii	"SunTech CTP280 BARCODE SCANNER TEST Start port_OP.."
 357      65636820 
 357      43545032 
 357      38302042 
 357      4152434F 
 358 00af 2E0D0A00 		.ascii	".\015\012\000"
 359 00b3 00       		.space	1
 360              	.LC16:
 361 00b4 7B22636D 		.ascii	"{\"cmd\" : \"count\", \"value\" : 1}\000"
 361      6422203A 
 361      2022636F 
 361      756E7422 
 361      2C202276 
 362              		.bss
 363              		.align	2
 364              		.set	.LANCHOR0,. + 0
 365              		.type	receivedFromBarcodeCount, %object
 366              		.size	receivedFromBarcodeCount, 1
 367              	receivedFromBarcodeCount:
 368 0000 00       		.space	1
 369 0001 000000   		.space	3
 370              		.type	lastReceivedTime, %object
 371              		.size	lastReceivedTime, 4
 372              	lastReceivedTime:
 373 0004 00000000 		.space	4
 374              		.type	receivedScanTrigerOrderCount, %object
 375              		.size	receivedScanTrigerOrderCount, 4
 376              	receivedScanTrigerOrderCount:
 377 0008 00000000 		.space	4
 378              		.text
 379              	.Letext0:
 380              		.file 2 "c:\\program files (x86)\\cypress\\psoc creator\\4.4\\psoc creator\\import\\gnu\\arm\\5.4.
 381              		.file 3 "c:\\program files (x86)\\cypress\\psoc creator\\4.4\\psoc creator\\import\\gnu\\arm\\5.4.
 382              		.file 4 "main.h"
 383              		.file 5 "Generated_Source\\PSoC4/BARCODE_SPI_UART.h"
 384              		.file 6 "Generated_Source\\PSoC4/port_MONITORING_SPI_UART.h"
 385              		.file 7 "c:\\program files (x86)\\cypress\\psoc creator\\4.4\\psoc creator\\import\\gnu\\arm\\5.4.
 386              		.file 8 "Generated_Source\\PSoC4/port_OP_SPI_UART.h"
 387              		.file 9 "Generated_Source\\PSoC4/Counter.h"
 388              		.file 10 "Generated_Source\\PSoC4/Pin_StartBootloader.h"