ARM GAS  C:\Users\luvsd\AppData\Local\Temp\ccwZhF9U.s 			page 1


   1              		.syntax unified
   2              		.cpu cortex-m0
   3              		.fpu softvfp
   4              		.eabi_attribute 20, 1
   5              		.eabi_attribute 21, 1
   6              		.eabi_attribute 23, 3
   7              		.eabi_attribute 24, 1
   8              		.eabi_attribute 25, 1
   9              		.eabi_attribute 26, 1
  10              		.eabi_attribute 30, 1
  11              		.eabi_attribute 34, 0
  12              		.eabi_attribute 18, 4
  13              		.thumb
  14              		.syntax unified
  15              		.file	"andonMessageQueue.c"
  16              		.text
  17              	.Ltext0:
  18              		.cfi_sections	.debug_frame
  19              		.global	__aeabi_idivmod
  20              		.section	.text.isFullQueueANDON,"ax",%progbits
  21              		.align	2
  22              		.global	isFullQueueANDON
  23              		.code	16
  24              		.thumb_func
  25              		.type	isFullQueueANDON, %function
  26              	isFullQueueANDON:
  27              	.LFB62:
  28              		.file 1 "andonMessageQueue.c"
   1:andonMessageQueue.c **** /* ========================================
   2:andonMessageQueue.c ****  *
   3:andonMessageQueue.c ****  * Copyright Suntech, 2023.02.01
   4:andonMessageQueue.c ****  * All Rights Reserved
   5:andonMessageQueue.c ****  * UNPUBLISHED, LICENSED SOFTWARE.
   6:andonMessageQueue.c ****  *
   7:andonMessageQueue.c ****  * CONFIDENTIAL AND PROPRIETARY INFORMATION
   8:andonMessageQueue.c ****  * WHICH IS THE PROPERTY OF Suntech.
   9:andonMessageQueue.c ****  *
  10:andonMessageQueue.c ****  * ========================================
  11:andonMessageQueue.c **** */
  12:andonMessageQueue.c **** #include "andonMessageQueue.h"
  13:andonMessageQueue.c **** 
  14:andonMessageQueue.c **** short g_uSizeQueueANDON=0;
  15:andonMessageQueue.c **** short g_uFrontQueueANDON=0;
  16:andonMessageQueue.c **** short g_uRearQueueANDON=0;
  17:andonMessageQueue.c **** ANDON_QUEUE  g_cQueue[MAX_ANDON_MESSAGE_QUEUE];
  18:andonMessageQueue.c **** 
  19:andonMessageQueue.c **** int isFullQueueANDON(void)
  20:andonMessageQueue.c **** {
  29              		.loc 1 20 0
  30              		.cfi_startproc
  31              		@ args = 0, pretend = 0, frame = 0
  32              		@ frame_needed = 0, uses_anonymous_args = 0
  33 0000 10B5     		push	{r4, lr}
  34              		.cfi_def_cfa_offset 8
  35              		.cfi_offset 4, -8
  36              		.cfi_offset 14, -4
  21:andonMessageQueue.c ****     if( (g_uRearQueueANDON + 1) % MAX_ANDON_MESSAGE_QUEUE == g_uFrontQueueANDON)
ARM GAS  C:\Users\luvsd\AppData\Local\Temp\ccwZhF9U.s 			page 2


  37              		.loc 1 21 0
  38 0002 074C     		ldr	r4, .L4
  39 0004 0023     		movs	r3, #0
  40 0006 E05E     		ldrsh	r0, [r4, r3]
  41 0008 0130     		adds	r0, r0, #1
  42 000a 0521     		movs	r1, #5
  43 000c FFF7FEFF 		bl	__aeabi_idivmod
  44              	.LVL0:
  45 0010 0222     		movs	r2, #2
  46 0012 A35E     		ldrsh	r3, [r4, r2]
  47 0014 9942     		cmp	r1, r3
  48 0016 01D1     		bne	.L3
  22:andonMessageQueue.c ****         return 1;
  49              		.loc 1 22 0
  50 0018 0120     		movs	r0, #1
  51 001a 00E0     		b	.L2
  52              	.L3:
  23:andonMessageQueue.c ****     else
  24:andonMessageQueue.c ****         return 0;
  53              		.loc 1 24 0
  54 001c 0020     		movs	r0, #0
  55              	.L2:
  25:andonMessageQueue.c **** }
  56              		.loc 1 25 0
  57              		@ sp needed
  58 001e 10BD     		pop	{r4, pc}
  59              	.L5:
  60              		.align	2
  61              	.L4:
  62 0020 00000000 		.word	.LANCHOR0
  63              		.cfi_endproc
  64              	.LFE62:
  65              		.size	isFullQueueANDON, .-isFullQueueANDON
  66              		.section	.text.isEmptyQueueANDON,"ax",%progbits
  67              		.align	2
  68              		.global	isEmptyQueueANDON
  69              		.code	16
  70              		.thumb_func
  71              		.type	isEmptyQueueANDON, %function
  72              	isEmptyQueueANDON:
  73              	.LFB63:
  26:andonMessageQueue.c **** 
  27:andonMessageQueue.c **** int isEmptyQueueANDON(void)
  28:andonMessageQueue.c **** {
  74              		.loc 1 28 0
  75              		.cfi_startproc
  76              		@ args = 0, pretend = 0, frame = 0
  77              		@ frame_needed = 0, uses_anonymous_args = 0
  78              		@ link register save eliminated.
  29:andonMessageQueue.c ****     if(g_uFrontQueueANDON==g_uRearQueueANDON)
  79              		.loc 1 29 0
  80 0000 054B     		ldr	r3, .L9
  81 0002 0221     		movs	r1, #2
  82 0004 5A5E     		ldrsh	r2, [r3, r1]
  83 0006 0021     		movs	r1, #0
  84 0008 5B5E     		ldrsh	r3, [r3, r1]
  85 000a 9A42     		cmp	r2, r3
ARM GAS  C:\Users\luvsd\AppData\Local\Temp\ccwZhF9U.s 			page 3


  86 000c 01D1     		bne	.L8
  30:andonMessageQueue.c ****             return 1;
  87              		.loc 1 30 0
  88 000e 0120     		movs	r0, #1
  89 0010 00E0     		b	.L7
  90              	.L8:
  31:andonMessageQueue.c ****     else
  32:andonMessageQueue.c ****             return 0;
  91              		.loc 1 32 0
  92 0012 0020     		movs	r0, #0
  93              	.L7:
  33:andonMessageQueue.c **** }
  94              		.loc 1 33 0
  95              		@ sp needed
  96 0014 7047     		bx	lr
  97              	.L10:
  98 0016 C046     		.align	2
  99              	.L9:
 100 0018 00000000 		.word	.LANCHOR0
 101              		.cfi_endproc
 102              	.LFE63:
 103              		.size	isEmptyQueueANDON, .-isEmptyQueueANDON
 104              		.section	.text.enQueueANDON,"ax",%progbits
 105              		.align	2
 106              		.global	enQueueANDON
 107              		.code	16
 108              		.thumb_func
 109              		.type	enQueueANDON, %function
 110              	enQueueANDON:
 111              	.LFB64:
  34:andonMessageQueue.c **** 
  35:andonMessageQueue.c **** short enQueueANDON(ANDON_QUEUE data)
  36:andonMessageQueue.c **** {
 112              		.loc 1 36 0
 113              		.cfi_startproc
 114              		@ args = 260, pretend = 16, frame = 0
 115              		@ frame_needed = 0, uses_anonymous_args = 0
 116 0000 84B0     		sub	sp, sp, #16
 117              		.cfi_def_cfa_offset 16
 118 0002 10B5     		push	{r4, lr}
 119              		.cfi_def_cfa_offset 24
 120              		.cfi_offset 4, -24
 121              		.cfi_offset 14, -20
 122 0004 0290     		str	r0, [sp, #8]
 123 0006 0391     		str	r1, [sp, #12]
 124 0008 0492     		str	r2, [sp, #16]
 125 000a 0593     		str	r3, [sp, #20]
  37:andonMessageQueue.c ****     if(isFullQueueANDON()) return FALSE;
 126              		.loc 1 37 0
 127 000c FFF7FEFF 		bl	isFullQueueANDON
 128              	.LVL1:
 129 0010 0028     		cmp	r0, #0
 130 0012 17D1     		bne	.L13
  38:andonMessageQueue.c **** 
  39:andonMessageQueue.c ****     g_uSizeQueueANDON++;
 131              		.loc 1 39 0
 132 0014 0E4C     		ldr	r4, .L14
ARM GAS  C:\Users\luvsd\AppData\Local\Temp\ccwZhF9U.s 			page 4


 133 0016 A388     		ldrh	r3, [r4, #4]
 134 0018 0133     		adds	r3, r3, #1
 135 001a A380     		strh	r3, [r4, #4]
  40:andonMessageQueue.c ****     g_uRearQueueANDON = (g_uRearQueueANDON + 1) % MAX_ANDON_MESSAGE_QUEUE;
 136              		.loc 1 40 0
 137 001c 0023     		movs	r3, #0
 138 001e E05E     		ldrsh	r0, [r4, r3]
 139 0020 0130     		adds	r0, r0, #1
 140 0022 0521     		movs	r1, #5
 141 0024 FFF7FEFF 		bl	__aeabi_idivmod
 142              	.LVL2:
 143 0028 09B2     		sxth	r1, r1
 144 002a 2180     		strh	r1, [r4]
  41:andonMessageQueue.c ****     g_cQueue[g_uRearQueueANDON] = data;
 145              		.loc 1 41 0
 146 002c CB01     		lsls	r3, r1, #7
 147 002e 5918     		adds	r1, r3, r1
 148 0030 4800     		lsls	r0, r1, #1
 149 0032 084B     		ldr	r3, .L14+4
 150 0034 1818     		adds	r0, r3, r0
 151 0036 8122     		movs	r2, #129
 152 0038 5200     		lsls	r2, r2, #1
 153 003a 02A9     		add	r1, sp, #8
 154 003c FFF7FEFF 		bl	memcpy
 155              	.LVL3:
  42:andonMessageQueue.c ****     return TRUE;
 156              		.loc 1 42 0
 157 0040 0120     		movs	r0, #1
 158 0042 00E0     		b	.L12
 159              	.L13:
  37:andonMessageQueue.c **** 
 160              		.loc 1 37 0
 161 0044 0020     		movs	r0, #0
 162              	.L12:
  43:andonMessageQueue.c **** }
 163              		.loc 1 43 0
 164              		@ sp needed
 165 0046 10BC     		pop	{r4}
 166 0048 08BC     		pop	{r3}
 167 004a 04B0     		add	sp, sp, #16
 168 004c 1847     		bx	r3
 169              	.L15:
 170 004e C046     		.align	2
 171              	.L14:
 172 0050 00000000 		.word	.LANCHOR0
 173 0054 00000000 		.word	g_cQueue
 174              		.cfi_endproc
 175              	.LFE64:
 176              		.size	enQueueANDON, .-enQueueANDON
 177              		.section	.text.enQueueANDON_printf,"ax",%progbits
 178              		.align	2
 179              		.global	enQueueANDON_printf
 180              		.code	16
 181              		.thumb_func
 182              		.type	enQueueANDON_printf, %function
 183              	enQueueANDON_printf:
 184              	.LFB65:
ARM GAS  C:\Users\luvsd\AppData\Local\Temp\ccwZhF9U.s 			page 5


  44:andonMessageQueue.c **** 
  45:andonMessageQueue.c **** short enQueueANDON_printf(uint16 type, const char *fmt, ...)
  46:andonMessageQueue.c **** {
 185              		.loc 1 46 0
 186              		.cfi_startproc
 187              		@ args = 4, pretend = 12, frame = 8
 188              		@ frame_needed = 0, uses_anonymous_args = 1
 189              	.LVL4:
 190 0000 0EB4     		push	{r1, r2, r3}
 191              		.cfi_def_cfa_offset 12
 192 0002 30B5     		push	{r4, r5, lr}
 193              		.cfi_def_cfa_offset 24
 194              		.cfi_offset 4, -24
 195              		.cfi_offset 5, -20
 196              		.cfi_offset 14, -16
 197 0004 82B0     		sub	sp, sp, #8
 198              		.cfi_def_cfa_offset 32
 199 0006 0400     		movs	r4, r0
  47:andonMessageQueue.c ****     if(isFullQueueANDON()) return FALSE;
 200              		.loc 1 47 0
 201 0008 FFF7FEFF 		bl	isFullQueueANDON
 202              	.LVL5:
 203 000c 0028     		cmp	r0, #0
 204 000e 1ED1     		bne	.L18
  48:andonMessageQueue.c **** 
  49:andonMessageQueue.c ****     g_uSizeQueueANDON++;
 205              		.loc 1 49 0
 206 0010 124D     		ldr	r5, .L19
 207 0012 AB88     		ldrh	r3, [r5, #4]
 208 0014 0133     		adds	r3, r3, #1
 209 0016 AB80     		strh	r3, [r5, #4]
  50:andonMessageQueue.c ****     g_uRearQueueANDON = (g_uRearQueueANDON + 1) % MAX_ANDON_MESSAGE_QUEUE;
 210              		.loc 1 50 0
 211 0018 0023     		movs	r3, #0
 212 001a E85E     		ldrsh	r0, [r5, r3]
 213 001c 0130     		adds	r0, r0, #1
 214 001e 0521     		movs	r1, #5
 215 0020 FFF7FEFF 		bl	__aeabi_idivmod
 216              	.LVL6:
 217 0024 09B2     		sxth	r1, r1
 218 0026 2980     		strh	r1, [r5]
  51:andonMessageQueue.c ****     
  52:andonMessageQueue.c ****     g_cQueue[g_uRearQueueANDON].type = type;
 219              		.loc 1 52 0
 220 0028 0D48     		ldr	r0, .L19+4
 221 002a CA01     		lsls	r2, r1, #7
 222 002c 5218     		adds	r2, r2, r1
 223 002e 5300     		lsls	r3, r2, #1
 224 0030 C318     		adds	r3, r0, r3
 225 0032 0133     		adds	r3, r3, #1
 226 0034 FF33     		adds	r3, r3, #255
 227 0036 1C80     		strh	r4, [r3]
  53:andonMessageQueue.c ****     
  54:andonMessageQueue.c ****     va_list ap;   
  55:andonMessageQueue.c ****     va_start(ap, fmt);
 228              		.loc 1 55 0
 229 0038 06AA     		add	r2, sp, #24
ARM GAS  C:\Users\luvsd\AppData\Local\Temp\ccwZhF9U.s 			page 6


 230 003a 0192     		str	r2, [sp, #4]
  56:andonMessageQueue.c **** 
  57:andonMessageQueue.c ****     vsprintf(g_cQueue[g_uRearQueueANDON].message, fmt, ap);
 231              		.loc 1 57 0
 232 003c CB01     		lsls	r3, r1, #7
 233 003e 5918     		adds	r1, r3, r1
 234 0040 4B00     		lsls	r3, r1, #1
 235 0042 1818     		adds	r0, r3, r0
 236 0044 0599     		ldr	r1, [sp, #20]
 237 0046 FFF7FEFF 		bl	vsprintf
 238              	.LVL7:
  58:andonMessageQueue.c ****     va_end(ap);
  59:andonMessageQueue.c ****    
  60:andonMessageQueue.c **** //    printf(">>:%s\r\n",g_cQueue[g_uRearQueueANDON].message);
  61:andonMessageQueue.c ****         
  62:andonMessageQueue.c ****     return TRUE;    
 239              		.loc 1 62 0
 240 004a 0120     		movs	r0, #1
 241 004c 00E0     		b	.L17
 242              	.L18:
  47:andonMessageQueue.c **** 
 243              		.loc 1 47 0
 244 004e 0020     		movs	r0, #0
 245              	.L17:
  63:andonMessageQueue.c **** }
 246              		.loc 1 63 0
 247 0050 02B0     		add	sp, sp, #8
 248              		@ sp needed
 249 0052 30BC     		pop	{r4, r5}
 250 0054 08BC     		pop	{r3}
 251 0056 03B0     		add	sp, sp, #12
 252 0058 1847     		bx	r3
 253              	.L20:
 254 005a C046     		.align	2
 255              	.L19:
 256 005c 00000000 		.word	.LANCHOR0
 257 0060 00000000 		.word	g_cQueue
 258              		.cfi_endproc
 259              	.LFE65:
 260              		.size	enQueueANDON_printf, .-enQueueANDON_printf
 261              		.section	.text.deQueueANDON,"ax",%progbits
 262              		.align	2
 263              		.global	deQueueANDON
 264              		.code	16
 265              		.thumb_func
 266              		.type	deQueueANDON, %function
 267              	deQueueANDON:
 268              	.LFB66:
  64:andonMessageQueue.c **** 
  65:andonMessageQueue.c **** ANDON_QUEUE *deQueueANDON(void)
  66:andonMessageQueue.c **** {
 269              		.loc 1 66 0
 270              		.cfi_startproc
 271              		@ args = 0, pretend = 0, frame = 0
 272              		@ frame_needed = 0, uses_anonymous_args = 0
 273 0000 10B5     		push	{r4, lr}
 274              		.cfi_def_cfa_offset 8
ARM GAS  C:\Users\luvsd\AppData\Local\Temp\ccwZhF9U.s 			page 7


 275              		.cfi_offset 4, -8
 276              		.cfi_offset 14, -4
  67:andonMessageQueue.c ****     g_uSizeQueueANDON--;
 277              		.loc 1 67 0
 278 0002 094C     		ldr	r4, .L22
 279 0004 A388     		ldrh	r3, [r4, #4]
 280 0006 013B     		subs	r3, r3, #1
 281 0008 A380     		strh	r3, [r4, #4]
  68:andonMessageQueue.c ****     g_uFrontQueueANDON = (g_uFrontQueueANDON + 1) % MAX_ANDON_MESSAGE_QUEUE;
 282              		.loc 1 68 0
 283 000a 0223     		movs	r3, #2
 284 000c E05E     		ldrsh	r0, [r4, r3]
 285 000e 0130     		adds	r0, r0, #1
 286 0010 0521     		movs	r1, #5
 287 0012 FFF7FEFF 		bl	__aeabi_idivmod
 288              	.LVL8:
 289 0016 09B2     		sxth	r1, r1
 290 0018 6180     		strh	r1, [r4, #2]
  69:andonMessageQueue.c ****     
  70:andonMessageQueue.c ****     return &g_cQueue[g_uFrontQueueANDON];
 291              		.loc 1 70 0
 292 001a CB01     		lsls	r3, r1, #7
 293 001c 5918     		adds	r1, r3, r1
 294 001e 4800     		lsls	r0, r1, #1
 295 0020 024B     		ldr	r3, .L22+4
 296 0022 C018     		adds	r0, r0, r3
  71:andonMessageQueue.c **** }
 297              		.loc 1 71 0
 298              		@ sp needed
 299 0024 10BD     		pop	{r4, pc}
 300              	.L23:
 301 0026 C046     		.align	2
 302              	.L22:
 303 0028 00000000 		.word	.LANCHOR0
 304 002c 00000000 		.word	g_cQueue
 305              		.cfi_endproc
 306              	.LFE66:
 307              		.size	deQueueANDON, .-deQueueANDON
 308              		.section	.text.getFrontQueueANDON,"ax",%progbits
 309              		.align	2
 310              		.global	getFrontQueueANDON
 311              		.code	16
 312              		.thumb_func
 313              		.type	getFrontQueueANDON, %function
 314              	getFrontQueueANDON:
 315              	.LFB67:
  72:andonMessageQueue.c **** 
  73:andonMessageQueue.c **** ANDON_QUEUE *getFrontQueueANDON(void)
  74:andonMessageQueue.c **** {
 316              		.loc 1 74 0
 317              		.cfi_startproc
 318              		@ args = 0, pretend = 0, frame = 0
 319              		@ frame_needed = 0, uses_anonymous_args = 0
 320 0000 10B5     		push	{r4, lr}
 321              		.cfi_def_cfa_offset 8
 322              		.cfi_offset 4, -8
 323              		.cfi_offset 14, -4
ARM GAS  C:\Users\luvsd\AppData\Local\Temp\ccwZhF9U.s 			page 8


  75:andonMessageQueue.c ****    return &g_cQueue[(g_uFrontQueueANDON + 1 ) % MAX_ANDON_MESSAGE_QUEUE ];
 324              		.loc 1 75 0
 325 0002 064B     		ldr	r3, .L25
 326 0004 0220     		movs	r0, #2
 327 0006 185E     		ldrsh	r0, [r3, r0]
 328 0008 0130     		adds	r0, r0, #1
 329 000a 0521     		movs	r1, #5
 330 000c FFF7FEFF 		bl	__aeabi_idivmod
 331              	.LVL9:
 332 0010 CB01     		lsls	r3, r1, #7
 333 0012 5918     		adds	r1, r3, r1
 334 0014 4800     		lsls	r0, r1, #1
 335 0016 024B     		ldr	r3, .L25+4
 336 0018 C018     		adds	r0, r0, r3
  76:andonMessageQueue.c **** }
 337              		.loc 1 76 0
 338              		@ sp needed
 339 001a 10BD     		pop	{r4, pc}
 340              	.L26:
 341              		.align	2
 342              	.L25:
 343 001c 00000000 		.word	.LANCHOR0
 344 0020 00000000 		.word	g_cQueue
 345              		.cfi_endproc
 346              	.LFE67:
 347              		.size	getFrontQueueANDON, .-getFrontQueueANDON
 348              		.section	.text.getFrontNextQueueANDON,"ax",%progbits
 349              		.align	2
 350              		.global	getFrontNextQueueANDON
 351              		.code	16
 352              		.thumb_func
 353              		.type	getFrontNextQueueANDON, %function
 354              	getFrontNextQueueANDON:
 355              	.LFB68:
  77:andonMessageQueue.c **** 
  78:andonMessageQueue.c **** ANDON_QUEUE *getFrontNextQueueANDON(int i)
  79:andonMessageQueue.c **** {
 356              		.loc 1 79 0
 357              		.cfi_startproc
 358              		@ args = 0, pretend = 0, frame = 0
 359              		@ frame_needed = 0, uses_anonymous_args = 0
 360              	.LVL10:
 361 0000 10B5     		push	{r4, lr}
 362              		.cfi_def_cfa_offset 8
 363              		.cfi_offset 4, -8
 364              		.cfi_offset 14, -4
  80:andonMessageQueue.c ****    return &g_cQueue[(g_uFrontQueueANDON + 1 + i) % MAX_ANDON_MESSAGE_QUEUE];
 365              		.loc 1 80 0
 366 0002 074B     		ldr	r3, .L28
 367 0004 0222     		movs	r2, #2
 368 0006 9B5E     		ldrsh	r3, [r3, r2]
 369 0008 0133     		adds	r3, r3, #1
 370 000a 1818     		adds	r0, r3, r0
 371              	.LVL11:
 372 000c 0521     		movs	r1, #5
 373 000e FFF7FEFF 		bl	__aeabi_idivmod
 374              	.LVL12:
ARM GAS  C:\Users\luvsd\AppData\Local\Temp\ccwZhF9U.s 			page 9


 375 0012 CB01     		lsls	r3, r1, #7
 376 0014 5918     		adds	r1, r3, r1
 377 0016 4800     		lsls	r0, r1, #1
 378 0018 024B     		ldr	r3, .L28+4
 379 001a C018     		adds	r0, r0, r3
  81:andonMessageQueue.c **** }
 380              		.loc 1 81 0
 381              		@ sp needed
 382 001c 10BD     		pop	{r4, pc}
 383              	.L29:
 384 001e C046     		.align	2
 385              	.L28:
 386 0020 00000000 		.word	.LANCHOR0
 387 0024 00000000 		.word	g_cQueue
 388              		.cfi_endproc
 389              	.LFE68:
 390              		.size	getFrontNextQueueANDON, .-getFrontNextQueueANDON
 391              		.section	.text.getRearQueueANDON,"ax",%progbits
 392              		.align	2
 393              		.global	getRearQueueANDON
 394              		.code	16
 395              		.thumb_func
 396              		.type	getRearQueueANDON, %function
 397              	getRearQueueANDON:
 398              	.LFB69:
  82:andonMessageQueue.c **** 
  83:andonMessageQueue.c **** ANDON_QUEUE *getRearQueueANDON(void)
  84:andonMessageQueue.c **** {
 399              		.loc 1 84 0
 400              		.cfi_startproc
 401              		@ args = 0, pretend = 0, frame = 0
 402              		@ frame_needed = 0, uses_anonymous_args = 0
 403 0000 10B5     		push	{r4, lr}
 404              		.cfi_def_cfa_offset 8
 405              		.cfi_offset 4, -8
 406              		.cfi_offset 14, -4
  85:andonMessageQueue.c ****    return &g_cQueue[ g_uRearQueueANDON % MAX_ANDON_MESSAGE_QUEUE];
 407              		.loc 1 85 0
 408 0002 064B     		ldr	r3, .L31
 409 0004 0020     		movs	r0, #0
 410 0006 185E     		ldrsh	r0, [r3, r0]
 411 0008 0521     		movs	r1, #5
 412 000a FFF7FEFF 		bl	__aeabi_idivmod
 413              	.LVL13:
 414 000e 09B2     		sxth	r1, r1
 415 0010 CB01     		lsls	r3, r1, #7
 416 0012 5918     		adds	r1, r3, r1
 417 0014 4800     		lsls	r0, r1, #1
 418 0016 024B     		ldr	r3, .L31+4
 419 0018 C018     		adds	r0, r0, r3
  86:andonMessageQueue.c **** }
 420              		.loc 1 86 0
 421              		@ sp needed
 422 001a 10BD     		pop	{r4, pc}
 423              	.L32:
 424              		.align	2
 425              	.L31:
ARM GAS  C:\Users\luvsd\AppData\Local\Temp\ccwZhF9U.s 			page 10


 426 001c 00000000 		.word	.LANCHOR0
 427 0020 00000000 		.word	g_cQueue
 428              		.cfi_endproc
 429              	.LFE69:
 430              		.size	getRearQueueANDON, .-getRearQueueANDON
 431              		.section	.text.getSizeQueueANDON,"ax",%progbits
 432              		.align	2
 433              		.global	getSizeQueueANDON
 434              		.code	16
 435              		.thumb_func
 436              		.type	getSizeQueueANDON, %function
 437              	getSizeQueueANDON:
 438              	.LFB70:
  87:andonMessageQueue.c **** 
  88:andonMessageQueue.c **** short getSizeQueueANDON(void)
  89:andonMessageQueue.c **** {
 439              		.loc 1 89 0
 440              		.cfi_startproc
 441              		@ args = 0, pretend = 0, frame = 0
 442              		@ frame_needed = 0, uses_anonymous_args = 0
 443              		@ link register save eliminated.
  90:andonMessageQueue.c ****    return g_uSizeQueueANDON;
 444              		.loc 1 90 0
 445 0000 014B     		ldr	r3, .L34
 446 0002 0420     		movs	r0, #4
 447 0004 185E     		ldrsh	r0, [r3, r0]
  91:andonMessageQueue.c **** }
 448              		.loc 1 91 0
 449              		@ sp needed
 450 0006 7047     		bx	lr
 451              	.L35:
 452              		.align	2
 453              	.L34:
 454 0008 00000000 		.word	.LANCHOR0
 455              		.cfi_endproc
 456              	.LFE70:
 457              		.size	getSizeQueueANDON, .-getSizeQueueANDON
 458              		.section	.text.PrintInfoQueueANDON,"ax",%progbits
 459              		.align	2
 460              		.global	PrintInfoQueueANDON
 461              		.code	16
 462              		.thumb_func
 463              		.type	PrintInfoQueueANDON, %function
 464              	PrintInfoQueueANDON:
 465              	.LFB71:
  92:andonMessageQueue.c **** 
  93:andonMessageQueue.c **** void PrintInfoQueueANDON(void)
  94:andonMessageQueue.c **** {
 466              		.loc 1 94 0
 467              		.cfi_startproc
 468              		@ args = 0, pretend = 0, frame = 0
 469              		@ frame_needed = 0, uses_anonymous_args = 0
 470              		@ link register save eliminated.
  95:andonMessageQueue.c ****   // printf("Queue -> Size : %d\n", g_uSizeQueueANDON);
  96:andonMessageQueue.c ****   // printf("Rest Size : %d\n", getRestSizeQueue());
  97:andonMessageQueue.c **** }
 471              		.loc 1 97 0
ARM GAS  C:\Users\luvsd\AppData\Local\Temp\ccwZhF9U.s 			page 11


 472              		@ sp needed
 473 0000 7047     		bx	lr
 474              		.cfi_endproc
 475              	.LFE71:
 476              		.size	PrintInfoQueueANDON, .-PrintInfoQueueANDON
 477              		.comm	g_cQueue,1290,4
 478              		.global	g_uRearQueueANDON
 479              		.global	g_uFrontQueueANDON
 480              		.global	g_uSizeQueueANDON
 481              		.comm	Param,6,4
 482 0002 C046     		.bss
 483              		.align	1
 484              		.set	.LANCHOR0,. + 0
 485              		.type	g_uRearQueueANDON, %object
 486              		.size	g_uRearQueueANDON, 2
 487              	g_uRearQueueANDON:
 488 0000 0000     		.space	2
 489              		.type	g_uFrontQueueANDON, %object
 490              		.size	g_uFrontQueueANDON, 2
 491              	g_uFrontQueueANDON:
 492 0002 0000     		.space	2
 493              		.type	g_uSizeQueueANDON, %object
 494              		.size	g_uSizeQueueANDON, 2
 495              	g_uSizeQueueANDON:
 496 0004 0000     		.space	2
 497              		.text
 498              	.Letext0:
 499              		.file 2 "Generated_Source\\PSoC4/cytypes.h"
 500              		.file 3 "c:\\program files (x86)\\cypress\\psoc creator\\4.4\\psoc creator\\import\\gnu\\arm\\5.4.
 501              		.file 4 "<built-in>"
 502              		.file 5 "main.h"
 503              		.file 6 "andonMessageQueue.h"
 504              		.file 7 "Generated_Source\\PSoC4/RTC.h"
 505              		.file 8 "c:\\program files (x86)\\cypress\\psoc creator\\4.4\\psoc creator\\import\\gnu\\arm\\5.4.