ARM GAS  C:\Users\luvsd\AppData\Local\Temp\ccVtxX9v.s 			page 1


   1              		.syntax unified
   2              		.cpu cortex-m0
   3              		.fpu softvfp
   4              		.eabi_attribute 20, 1
   5              		.eabi_attribute 21, 1
   6              		.eabi_attribute 23, 3
   7              		.eabi_attribute 24, 1
   8              		.eabi_attribute 25, 1
   9              		.eabi_attribute 26, 1
  10              		.eabi_attribute 30, 1
  11              		.eabi_attribute 34, 0
  12              		.eabi_attribute 18, 4
  13              		.thumb
  14              		.syntax unified
  15              		.file	"andonMenu.c"
  16              		.text
  17              	.Ltext0:
  18              		.cfi_sections	.debug_frame
  19              		.section	.text.doAndonMenu,"ax",%progbits
  20              		.align	2
  21              		.global	doAndonMenu
  22              		.code	16
  23              		.thumb_func
  24              		.type	doAndonMenu, %function
  25              	doAndonMenu:
  26              	.LFB63:
  27              		.file 1 "lib\\andonMenu.c"
   1:lib/andonMenu.c **** /* ========================================
   2:lib/andonMenu.c ****  *
   3:lib/andonMenu.c ****  * Copyright Suntech, 2023.04.01
   4:lib/andonMenu.c ****  * All Rights Reserved
   5:lib/andonMenu.c ****  * UNPUBLISHED, LICENSED SOFTWARE.
   6:lib/andonMenu.c ****  *
   7:lib/andonMenu.c ****  * CONFIDENTIAL AND PROPRIETARY INFORMATION
   8:lib/andonMenu.c ****  * WHICH IS THE PROPERTY OF Suntech.
   9:lib/andonMenu.c ****  *
  10:lib/andonMenu.c ****  * ========================================
  11:lib/andonMenu.c **** */
  12:lib/andonMenu.c **** #include "andonMenu.h"
  13:lib/andonMenu.c **** #include "userMenu.h"
  14:lib/andonMenu.c **** #include "lib/widget.h"
  15:lib/andonMenu.c **** #include "lib/image.h"
  16:lib/andonMenu.c **** #include "menuDesign.h"
  17:lib/andonMenu.c **** 
  18:lib/andonMenu.c **** #include "package.h"
  19:lib/andonMenu.c **** #include "WIFI.h"
  20:lib/andonMenu.c **** 
  21:lib/andonMenu.c **** void DisplayAndonMenu()
  22:lib/andonMenu.c **** {
  23:lib/andonMenu.c **** //    char *listArray[] = {"list1", "list2", "list3"};
  24:lib/andonMenu.c **** //    SetDrawListButtons(NULL, listArray, 3);
  25:lib/andonMenu.c **** //    SetDrawBottomButtons("QUIT", NULL, BUTTON_STYLE_R_GREEN, BUTTON_STYLE_R_BLUE);  
  26:lib/andonMenu.c **** }
  27:lib/andonMenu.c **** 
  28:lib/andonMenu.c **** int doAndonMenu(void *this, uint8 reflash)
  29:lib/andonMenu.c **** {    
  28              		.loc 1 29 0
ARM GAS  C:\Users\luvsd\AppData\Local\Temp\ccVtxX9v.s 			page 2


  29              		.cfi_startproc
  30              		@ args = 0, pretend = 0, frame = 8
  31              		@ frame_needed = 0, uses_anonymous_args = 0
  32              	.LVL0:
  33 0000 00B5     		push	{lr}
  34              		.cfi_def_cfa_offset 4
  35              		.cfi_offset 14, -4
  36 0002 83B0     		sub	sp, sp, #12
  37              		.cfi_def_cfa_offset 16
  30:lib/andonMenu.c ****     switch(reflash)
  38              		.loc 1 30 0
  39 0004 0029     		cmp	r1, #0
  40 0006 02D1     		bne	.L2
  41              	.LBB2:
  31:lib/andonMenu.c ****     {
  32:lib/andonMenu.c ****         case TRUE: // 화면이 바뀔때 실행
  33:lib/andonMenu.c ****             {
  34:lib/andonMenu.c ****                 DisplayAndonMenu();
  35:lib/andonMenu.c ****             }
  36:lib/andonMenu.c ****             break;  
  37:lib/andonMenu.c ****         
  38:lib/andonMenu.c ****         case FALSE: // Cliking Check
  39:lib/andonMenu.c ****             {
  40:lib/andonMenu.c ****                 TOUCH tc = GetTouch();
  42              		.loc 1 40 0
  43 0008 6846     		mov	r0, sp
  44              	.LVL1:
  45 000a FFF7FEFF 		bl	GetTouch
  46              	.LVL2:
  47              	.L2:
  48              	.LBE2:
  41:lib/andonMenu.c ****                 if(tc.isClick == FALSE) break;
  42:lib/andonMenu.c ****                 
  43:lib/andonMenu.c **** //                switch(getIndexOfClickedButtonArray(&tc, &g_btnList))
  44:lib/andonMenu.c **** //                {
  45:lib/andonMenu.c **** //                    case 0: return 0; break;
  46:lib/andonMenu.c **** //                    case 1: return 1; break;
  47:lib/andonMenu.c **** //                    case 2: return 2; break;                    
  48:lib/andonMenu.c **** //                    default:
  49:lib/andonMenu.c **** //                        switch(getIndexOfClickedButton(&tc,g_btnBottom,2))
  50:lib/andonMenu.c **** //                        {
  51:lib/andonMenu.c **** //                            case BOTTOM_LEFT: return MENU_RETURN_PARENT;                         
  52:lib/andonMenu.c **** //                        }
  53:lib/andonMenu.c **** //                    break;
  54:lib/andonMenu.c **** //                }         
  55:lib/andonMenu.c ****             }
  56:lib/andonMenu.c ****             break;
  57:lib/andonMenu.c ****     }
  58:lib/andonMenu.c ****     return MENU_RETURN_PARENT;    
  59:lib/andonMenu.c **** }
  49              		.loc 1 59 0
  50 000e 8020     		movs	r0, #128
  51 0010 0006     		lsls	r0, r0, #24
  52 0012 03B0     		add	sp, sp, #12
  53              		@ sp needed
  54 0014 00BD     		pop	{pc}
  55              		.cfi_endproc
ARM GAS  C:\Users\luvsd\AppData\Local\Temp\ccVtxX9v.s 			page 3


  56              	.LFE63:
  57              		.size	doAndonMenu, .-doAndonMenu
  58 0016 C046     		.section	.text.DisplayAndonMenu,"ax",%progbits
  59              		.align	2
  60              		.global	DisplayAndonMenu
  61              		.code	16
  62              		.thumb_func
  63              		.type	DisplayAndonMenu, %function
  64              	DisplayAndonMenu:
  65              	.LFB62:
  22:lib/andonMenu.c **** //    char *listArray[] = {"list1", "list2", "list3"};
  66              		.loc 1 22 0
  67              		.cfi_startproc
  68              		@ args = 0, pretend = 0, frame = 0
  69              		@ frame_needed = 0, uses_anonymous_args = 0
  70              		@ link register save eliminated.
  26:lib/andonMenu.c **** 
  71              		.loc 1 26 0
  72              		@ sp needed
  73 0000 7047     		bx	lr
  74              		.cfi_endproc
  75              	.LFE62:
  76              		.size	DisplayAndonMenu, .-DisplayAndonMenu
  77 0002 C046     		.section	.text.andonMenuCreate,"ax",%progbits
  78              		.align	2
  79              		.global	andonMenuCreate
  80              		.code	16
  81              		.thumb_func
  82              		.type	andonMenuCreate, %function
  83              	andonMenuCreate:
  84              	.LFB64:
  60:lib/andonMenu.c **** 
  61:lib/andonMenu.c **** MENUNODE * andonMenuCreate(MENUNODE *parent)
  62:lib/andonMenu.c **** {
  85              		.loc 1 62 0
  86              		.cfi_startproc
  87              		@ args = 0, pretend = 0, frame = 0
  88              		@ frame_needed = 0, uses_anonymous_args = 0
  89              	.LVL3:
  90 0000 10B5     		push	{r4, lr}
  91              		.cfi_def_cfa_offset 8
  92              		.cfi_offset 4, -8
  93              		.cfi_offset 14, -4
  63:lib/andonMenu.c ****     // Main Menu  ............................................
  64:lib/andonMenu.c ****    MENUNODE *menuMain                  = createMENUNODE(parent,    "ANDON",     &doAndonMenu);
  94              		.loc 1 64 0
  95 0002 024A     		ldr	r2, .L7
  96 0004 0249     		ldr	r1, .L7+4
  97 0006 FFF7FEFF 		bl	createMENUNODE
  98              	.LVL4:
  65:lib/andonMenu.c **** 
  66:lib/andonMenu.c ****    return menuMain;
  67:lib/andonMenu.c **** }
  99              		.loc 1 67 0
 100              		@ sp needed
 101 000a 10BD     		pop	{r4, pc}
 102              	.L8:
ARM GAS  C:\Users\luvsd\AppData\Local\Temp\ccVtxX9v.s 			page 4


 103              		.align	2
 104              	.L7:
 105 000c 00000000 		.word	doAndonMenu
 106 0010 00000000 		.word	.LC1
 107              		.cfi_endproc
 108              	.LFE64:
 109              		.size	andonMenuCreate, .-andonMenuCreate
 110              		.comm	Param,6,4
 111              		.section	.rodata.str1.4,"aMS",%progbits,1
 112              		.align	2
 113              	.LC1:
 114 0000 414E444F 		.ascii	"ANDON\000"
 114      4E00
 115              		.text
 116              	.Letext0:
 117              		.file 2 "c:\\program files (x86)\\cypress\\psoc creator\\4.4\\psoc creator\\import\\gnu\\arm\\5.4.
 118              		.file 3 "c:\\program files (x86)\\cypress\\psoc creator\\4.4\\psoc creator\\import\\gnu\\arm\\5.4.
 119              		.file 4 "Generated_Source\\PSoC4/cytypes.h"
 120              		.file 5 "./main.h"
 121              		.file 6 "lib\\menu.h"
 122              		.file 7 "./lib/UI.h"
 123              		.file 8 "./lib/fonts.h"
 124              		.file 9 "./lib/image.h"
 125              		.file 10 "Generated_Source\\PSoC4/RTC.h"