ARM GAS  C:\Users\luvsd\AppData\Local\Temp\ccANg5NP.s 			page 1


   1              		.syntax unified
   2              		.cpu cortex-m0
   3              		.fpu softvfp
   4              		.eabi_attribute 20, 1
   5              		.eabi_attribute 21, 1
   6              		.eabi_attribute 23, 3
   7              		.eabi_attribute 24, 1
   8              		.eabi_attribute 25, 1
   9              		.eabi_attribute 26, 1
  10              		.eabi_attribute 30, 1
  11              		.eabi_attribute 34, 0
  12              		.eabi_attribute 18, 4
  13              		.thumb
  14              		.syntax unified
  15              		.file	"andonApi.c"
  16              		.text
  17              	.Ltext0:
  18              		.cfi_sections	.debug_frame
  19              		.section	.text.andonLoop,"ax",%progbits
  20              		.align	2
  21              		.global	andonLoop
  22              		.code	16
  23              		.thumb_func
  24              		.type	andonLoop, %function
  25              	andonLoop:
  26              	.LFB62:
  27              		.file 1 "andonApi.c"
   1:andonApi.c    **** /* ========================================
   2:andonApi.c    ****  *
   3:andonApi.c    ****  * Copyright Suntech, 2023.02.01
   4:andonApi.c    ****  * All Rights Reserved
   5:andonApi.c    ****  * UNPUBLISHED, LICENSED SOFTWARE.
   6:andonApi.c    ****  *
   7:andonApi.c    ****  * CONFIDENTIAL AND PROPRIETARY INFORMATION
   8:andonApi.c    ****  * WHICH IS THE PROPERTY OF Suntech.
   9:andonApi.c    ****  *
  10:andonApi.c    ****  * ========================================
  11:andonApi.c    **** */
  12:andonApi.c    **** 
  13:andonApi.c    ****     
  14:andonApi.c    **** #include "andonApi.h"
  15:andonApi.c    **** #include "andonJson.h"
  16:andonApi.c    **** #include "andonMessageQueue.h"
  17:andonApi.c    **** #include "lib/WIFI.h"
  18:andonApi.c    **** #include "lib/server.h"
  19:andonApi.c    **** #include "lib/utility.h"
  20:andonApi.c    **** #include "userProjectPatternSewing.h"
  21:andonApi.c    **** #include "count.h"
  22:andonApi.c    **** #include "package.h"
  23:andonApi.c    ****                                 
  24:andonApi.c    **** LISTS g_Lists;
  25:andonApi.c    **** uint8 g_bDeviceInfoUpdate=FALSE;
  26:andonApi.c    **** uint8 g_uReplyResult=RR_INIT;
  27:andonApi.c    **** uint16 g_uAndonRequestType;
  28:andonApi.c    **** 
  29:andonApi.c    **** uint16 g_uAndonRequestType=ANDON_NONE;
  30:andonApi.c    **** 
ARM GAS  C:\Users\luvsd\AppData\Local\Temp\ccANg5NP.s 			page 2


  31:andonApi.c    **** INFO  g_Info = {
  32:andonApi.c    ****     .nNoOfLineForNotice =0, 
  33:andonApi.c    **** };
  34:andonApi.c    **** 
  35:andonApi.c    **** uint8 andonLoop()
  36:andonApi.c    **** {
  28              		.loc 1 36 0
  29              		.cfi_startproc
  30              		@ args = 0, pretend = 0, frame = 512
  31              		@ frame_needed = 0, uses_anonymous_args = 0
  32 0000 11B5     		push	{r0, r4, lr}
  33              		.cfi_def_cfa_offset 12
  34              		.cfi_offset 0, -12
  35              		.cfi_offset 4, -8
  36              		.cfi_offset 14, -4
  37 0002 FFB0     		sub	sp, sp, #508
  38              		.cfi_def_cfa_offset 520
  37:andonApi.c    ****     if(!isEmptyQueueANDON())
  39              		.loc 1 37 0
  40 0004 FFF7FEFF 		bl	isEmptyQueueANDON
  41              	.LVL0:
  42 0008 0028     		cmp	r0, #0
  43 000a 12D1     		bne	.L3
  44              	.LBB2:
  38:andonApi.c    ****     {
  39:andonApi.c    ****         ANDON_QUEUE *aq = deQueueANDON();
  45              		.loc 1 39 0
  46 000c FFF7FEFF 		bl	deQueueANDON
  47              	.LVL1:
  48 0010 0400     		movs	r4, r0
  49              	.LVL2:
  40:andonApi.c    ****         
  41:andonApi.c    ****         char url[512];
  42:andonApi.c    ****         sprintf(url,"%s?code=%s",g_strServeURL,aq->message);
  50              		.loc 1 42 0
  51 0012 0300     		movs	r3, r0
  52 0014 084A     		ldr	r2, .L4
  53 0016 0949     		ldr	r1, .L4+4
  54 0018 6846     		mov	r0, sp
  55              	.LVL3:
  56 001a FFF7FEFF 		bl	sprintf
  57              	.LVL4:
  43:andonApi.c    **** 
  44:andonApi.c    ****         g_uAndonRequestType = aq->type;
  58              		.loc 1 44 0
  59 001e 8023     		movs	r3, #128
  60 0020 5B00     		lsls	r3, r3, #1
  61 0022 E25A     		ldrh	r2, [r4, r3]
  62 0024 064B     		ldr	r3, .L4+8
  63 0026 1A80     		strh	r2, [r3]
  45:andonApi.c    ****         
  46:andonApi.c    ****         wifi_cmd_http(url);
  64              		.loc 1 46 0
  65 0028 6846     		mov	r0, sp
  66 002a FFF7FEFF 		bl	wifi_cmd_http
  67              	.LVL5:
  47:andonApi.c    ****         return TRUE;
ARM GAS  C:\Users\luvsd\AppData\Local\Temp\ccANg5NP.s 			page 3


  68              		.loc 1 47 0
  69 002e 0120     		movs	r0, #1
  70 0030 00E0     		b	.L2
  71              	.LVL6:
  72              	.L3:
  73              	.LBE2:
  48:andonApi.c    ****     }
  49:andonApi.c    ****     return FALSE;
  74              		.loc 1 49 0
  75 0032 0020     		movs	r0, #0
  76              	.L2:
  50:andonApi.c    **** }
  77              		.loc 1 50 0 discriminator 1
  78 0034 7FB0     		add	sp, sp, #508
  79              		@ sp needed
  80 0036 12BD     		pop	{r1, r4, pc}
  81              	.L5:
  82              		.align	2
  83              	.L4:
  84 0038 00000000 		.word	.LANCHOR0
  85 003c 00000000 		.word	.LC1
  86 0040 00000000 		.word	.LANCHOR1
  87              		.cfi_endproc
  88              	.LFE62:
  89              		.size	andonLoop, .-andonLoop
  90              		.section	.text.makeAndonCurrentTimeRequest,"ax",%progbits
  91              		.align	2
  92              		.global	makeAndonCurrentTimeRequest
  93              		.code	16
  94              		.thumb_func
  95              		.type	makeAndonCurrentTimeRequest, %function
  96              	makeAndonCurrentTimeRequest:
  97              	.LFB63:
  51:andonApi.c    **** 
  52:andonApi.c    **** void makeAndonCurrentTimeRequest()
  53:andonApi.c    **** {
  98              		.loc 1 53 0
  99              		.cfi_startproc
 100              		@ args = 0, pretend = 0, frame = 0
 101              		@ frame_needed = 0, uses_anonymous_args = 0
 102 0000 10B5     		push	{r4, lr}
 103              		.cfi_def_cfa_offset 8
 104              		.cfi_offset 4, -8
 105              		.cfi_offset 14, -4
  54:andonApi.c    ****     enQueueANDON_printf(ANDON_CURRENT_TIME,"get_dateTime");
 106              		.loc 1 54 0
 107 0002 0249     		ldr	r1, .L7
 108 0004 0120     		movs	r0, #1
 109 0006 FFF7FEFF 		bl	enQueueANDON_printf
 110              	.LVL7:
  55:andonApi.c    **** }
 111              		.loc 1 55 0
 112              		@ sp needed
 113 000a 10BD     		pop	{r4, pc}
 114              	.L8:
 115              		.align	2
 116              	.L7:
ARM GAS  C:\Users\luvsd\AppData\Local\Temp\ccANg5NP.s 			page 4


 117 000c 0C000000 		.word	.LC4
 118              		.cfi_endproc
 119              	.LFE63:
 120              		.size	makeAndonCurrentTimeRequest, .-makeAndonCurrentTimeRequest
 121              		.section	.text.makeAndonDevice,"ax",%progbits
 122              		.align	2
 123              		.global	makeAndonDevice
 124              		.code	16
 125              		.thumb_func
 126              		.type	makeAndonDevice, %function
 127              	makeAndonDevice:
 128              	.LFB64:
  56:andonApi.c    **** 
  57:andonApi.c    **** void makeAndonDevice()
  58:andonApi.c    **** {
 129              		.loc 1 58 0
 130              		.cfi_startproc
 131              		@ args = 0, pretend = 0, frame = 0
 132              		@ frame_needed = 0, uses_anonymous_args = 0
 133 0000 00B5     		push	{lr}
 134              		.cfi_def_cfa_offset 4
 135              		.cfi_offset 14, -4
 136 0002 83B0     		sub	sp, sp, #12
 137              		.cfi_def_cfa_offset 16
  59:andonApi.c    ****     enQueueANDON_printf(ANDON_GET_DEVICE_NAME,"send_device&mac=%s&name=%s&ip=%s&ver=%s",g_network.M
 138              		.loc 1 59 0
 139 0004 074B     		ldr	r3, .L10
 140 0006 1B68     		ldr	r3, [r3]
 141 0008 6E33     		adds	r3, r3, #110
 142 000a 074A     		ldr	r2, .L10+4
 143 000c 0749     		ldr	r1, .L10+8
 144 000e 0191     		str	r1, [sp, #4]
 145 0010 1100     		movs	r1, r2
 146 0012 4039     		subs	r1, r1, #64
 147 0014 0091     		str	r1, [sp]
 148 0016 0649     		ldr	r1, .L10+12
 149 0018 0220     		movs	r0, #2
 150 001a FFF7FEFF 		bl	enQueueANDON_printf
 151              	.LVL8:
  60:andonApi.c    **** }
 152              		.loc 1 60 0
 153 001e 03B0     		add	sp, sp, #12
 154              		@ sp needed
 155 0020 00BD     		pop	{pc}
 156              	.L11:
 157 0022 C046     		.align	2
 158              	.L10:
 159 0024 00000000 		.word	g_ptrServer
 160 0028 6C000000 		.word	g_network+108
 161 002c 44000000 		.word	.LC10
 162 0030 1C000000 		.word	.LC8
 163              		.cfi_endproc
 164              	.LFE64:
 165              		.size	makeAndonDevice, .-makeAndonDevice
 166              		.section	.text.makeAndonList,"ax",%progbits
 167              		.align	2
 168              		.global	makeAndonList
ARM GAS  C:\Users\luvsd\AppData\Local\Temp\ccANg5NP.s 			page 5


 169              		.code	16
 170              		.thumb_func
 171              		.type	makeAndonList, %function
 172              	makeAndonList:
 173              	.LFB65:
  61:andonApi.c    **** 
  62:andonApi.c    **** void makeAndonList()
  63:andonApi.c    **** {
 174              		.loc 1 63 0
 175              		.cfi_startproc
 176              		@ args = 0, pretend = 0, frame = 0
 177              		@ frame_needed = 0, uses_anonymous_args = 0
 178 0000 10B5     		push	{r4, lr}
 179              		.cfi_def_cfa_offset 8
 180              		.cfi_offset 4, -8
 181              		.cfi_offset 14, -4
  64:andonApi.c    ****     enQueueANDON_printf(ANDON_REQUEST_LIST,"get_andonList&device_idx=%d",g_ptrServer->deviceIndex);
 182              		.loc 1 64 0
 183 0002 044B     		ldr	r3, .L13
 184 0004 1A68     		ldr	r2, [r3]
 185 0006 8223     		movs	r3, #130
 186 0008 D25A     		ldrh	r2, [r2, r3]
 187 000a 0349     		ldr	r1, .L13+4
 188 000c 0520     		movs	r0, #5
 189 000e FFF7FEFF 		bl	enQueueANDON_printf
 190              	.LVL9:
  65:andonApi.c    **** }
 191              		.loc 1 65 0
 192              		@ sp needed
 193 0012 10BD     		pop	{r4, pc}
 194              	.L14:
 195              		.align	2
 196              	.L13:
 197 0014 00000000 		.word	g_ptrServer
 198 0018 4C000000 		.word	.LC14
 199              		.cfi_endproc
 200              	.LFE65:
 201              		.size	makeAndonList, .-makeAndonList
 202              		.section	.text.makeAndonTextList,"ax",%progbits
 203              		.align	2
 204              		.global	makeAndonTextList
 205              		.code	16
 206              		.thumb_func
 207              		.type	makeAndonTextList, %function
 208              	makeAndonTextList:
 209              	.LFB66:
  66:andonApi.c    **** 
  67:andonApi.c    **** void makeAndonTextList()
  68:andonApi.c    **** {
 210              		.loc 1 68 0
 211              		.cfi_startproc
 212              		@ args = 0, pretend = 0, frame = 0
 213              		@ frame_needed = 0, uses_anonymous_args = 0
 214 0000 10B5     		push	{r4, lr}
 215              		.cfi_def_cfa_offset 8
 216              		.cfi_offset 4, -8
 217              		.cfi_offset 14, -4
ARM GAS  C:\Users\luvsd\AppData\Local\Temp\ccANg5NP.s 			page 6


  69:andonApi.c    ****     enQueueANDON_printf(ANDON_REQUEST_TEXT_LIST,"get_textList&device_idx=%d",g_ptrServer->deviceInd
 218              		.loc 1 69 0
 219 0002 044B     		ldr	r3, .L16
 220 0004 1A68     		ldr	r2, [r3]
 221 0006 8223     		movs	r3, #130
 222 0008 D25A     		ldrh	r2, [r2, r3]
 223 000a 0349     		ldr	r1, .L16+4
 224 000c 0620     		movs	r0, #6
 225 000e FFF7FEFF 		bl	enQueueANDON_printf
 226              	.LVL10:
  70:andonApi.c    **** }
 227              		.loc 1 70 0
 228              		@ sp needed
 229 0012 10BD     		pop	{r4, pc}
 230              	.L17:
 231              		.align	2
 232              	.L16:
 233 0014 00000000 		.word	g_ptrServer
 234 0018 68000000 		.word	.LC17
 235              		.cfi_endproc
 236              	.LFE66:
 237              		.size	makeAndonTextList, .-makeAndonTextList
 238              		.section	.text.andonResponse,"ax",%progbits
 239              		.align	2
 240              		.global	andonResponse
 241              		.code	16
 242              		.thumb_func
 243              		.type	andonResponse, %function
 244              	andonResponse:
 245              	.LFB67:
  71:andonApi.c    **** 
  72:andonApi.c    **** void andonResponse(char *ptrText, int16 sizeOfText)
  73:andonApi.c    **** {
 246              		.loc 1 73 0
 247              		.cfi_startproc
 248              		@ args = 0, pretend = 0, frame = 0
 249              		@ frame_needed = 0, uses_anonymous_args = 0
 250              	.LVL11:
 251 0000 10B5     		push	{r4, lr}
 252              		.cfi_def_cfa_offset 8
 253              		.cfi_offset 4, -8
 254              		.cfi_offset 14, -4
 255 0002 0300     		movs	r3, r0
 256 0004 0A00     		movs	r2, r1
  74:andonApi.c    ****     andonJsonParsor(g_uAndonRequestType, ptrText, sizeOfText);
 257              		.loc 1 74 0
 258 0006 044C     		ldr	r4, .L19
 259 0008 2088     		ldrh	r0, [r4]
 260              	.LVL12:
 261 000a 1900     		movs	r1, r3
 262              	.LVL13:
 263 000c FFF7FEFF 		bl	andonJsonParsor
 264              	.LVL14:
  75:andonApi.c    ****     g_uAndonRequestType = ANDON_NONE;
 265              		.loc 1 75 0
 266 0010 0023     		movs	r3, #0
 267 0012 2380     		strh	r3, [r4]
ARM GAS  C:\Users\luvsd\AppData\Local\Temp\ccANg5NP.s 			page 7


  76:andonApi.c    **** }
 268              		.loc 1 76 0
 269              		@ sp needed
 270 0014 10BD     		pop	{r4, pc}
 271              	.L20:
 272 0016 C046     		.align	2
 273              	.L19:
 274 0018 00000000 		.word	.LANCHOR1
 275              		.cfi_endproc
 276              	.LFE67:
 277              		.size	andonResponse, .-andonResponse
 278              		.section	.text.makeAndonSewingCount,"ax",%progbits
 279              		.align	2
 280              		.global	makeAndonSewingCount
 281              		.code	16
 282              		.thumb_func
 283              		.type	makeAndonSewingCount, %function
 284              	makeAndonSewingCount:
 285              	.LFB68:
  77:andonApi.c    **** 
  78:andonApi.c    **** void makeAndonSewingCount()
  79:andonApi.c    **** {
 286              		.loc 1 79 0
 287              		.cfi_startproc
 288              		@ args = 0, pretend = 0, frame = 0
 289              		@ frame_needed = 0, uses_anonymous_args = 0
 290              		@ link register save eliminated.
  80:andonApi.c    **** //    enQueueANDON_printf(ANDON_SEND_SEWING_COUNT,"send _cCount&d_idx=%u&pi=%u&tg=%u&sc=%u&ct=%u&ct
  81:andonApi.c    **** //        g_Info.DeviceIdx,
  82:andonApi.c    **** //        (g_ptrMachineParameter->sewingPair/g_ptrMachineParameter->sewingPairTrim) / 10 , // pi  :
  83:andonApi.c    **** //        g_ptrMachineParameter->sewingTarget,// tg  : target
  84:andonApi.c    **** //        g_ptrCount->sewingActual,           // sc  : shift actual
  85:andonApi.c    **** //        g_ptrCount->sewingCycleTime,        // ct  : cycle time
  86:andonApi.c    **** //        g_ptrCount->sewingCycleTimeSum,     // cts : cycle time sum
  87:andonApi.c    **** //        g_ptrCount->sewingMotorRunTime,     // mrt : motor run time 
  88:andonApi.c    **** //        g_ptrCount->sewingMotorRunTimeSum,  // mrts: motor run time sum
  89:andonApi.c    **** //        g_ptrCount->sewingNoStitch,         // sq  : no of stitch
  90:andonApi.c    **** //        g_ptrCount->sewingNoStitchSum,      // sqs : no of stitch sum
  91:andonApi.c    **** //        g_ptrCount->sewingTrimCount,        // tc  : trim count
  92:andonApi.c    **** //        g_ptrCount->sewingTrimCountSum      // tcs : trim count sum
  93:andonApi.c    **** //        );     
  94:andonApi.c    **** #ifdef USER_PROJECT_PATTERN_SEWING_MACHINE      
  95:andonApi.c    ****     enQueueANDON_printf(ANDON_SEND_SEWING_COUNT,"send_cCount&d_idx=%u&pi=%0.1f&tg=%u&sc=%0.1f&ct=%u
  96:andonApi.c    ****         g_Info.DeviceIdx,
  97:andonApi.c    ****  //       g_ptrMachineParameter->sewingPairTrim,                                                   
  98:andonApi.c    ****         g_ptrMachineParameter->sewingPair / 10. ,                                                  
  99:andonApi.c    ****         g_ptrMachineParameter->sewingTarget,                                                       
 100:andonApi.c    ****         (uint32) CONVERT_TO_4BYTE(g_ptrCount->sewingActualH,g_ptrCount->sewingActualL) / 10.,      
 101:andonApi.c    ****         g_ptrCount->sewingCycleTime,                                                               
 102:andonApi.c    ****         (uint32) CONVERT_TO_4BYTE(g_ptrCount->sewingCycleTimeSumH, g_ptrCount->sewingCycleTimeSumL)
 103:andonApi.c    ****         g_ptrCount->sewingMotorRunTime,                                                            
 104:andonApi.c    ****         (uint32) CONVERT_TO_4BYTE(g_ptrCount->sewingMotorRunTimeSumH, g_ptrCount->sewingMotorRunTim
 105:andonApi.c    ****         g_ptrCount->sewingNoStitch,                                                                
 106:andonApi.c    ****         (uint32) CONVERT_TO_4BYTE(g_ptrCount->sewingNoStitchSumH,g_ptrCount->sewingNoStitchSumL),  
 107:andonApi.c    ****         g_ptrMachineParameter->sewingPairTrim,                                                     
 108:andonApi.c    ****         (uint32) CONVERT_TO_4BYTE(g_ptrCount->sewingTrimCountSumH,g_ptrCount->sewingTrimCountSumL) 
 109:andonApi.c    ****         ); 
ARM GAS  C:\Users\luvsd\AppData\Local\Temp\ccANg5NP.s 			page 8


 110:andonApi.c    **** #endif    
 111:andonApi.c    **** //    printf("send_cCount&d_idx=%u&pi=%0.1f&tg=%u&sc=%0.1f&ct=%u&cts=%lu&mrt=%u&mrts=%lu&sq=%u&sqs=
 112:andonApi.c    **** //        g_Info.DeviceIdx,
 113:andonApi.c    **** // //       g_ptrMachineParameter->sewingPairTrim,                                                 
 114:andonApi.c    **** //        g_ptrMachineParameter->sewingPair / 10. ,                                                
 115:andonApi.c    **** //        g_ptrMachineParameter->sewingTarget,                                                     
 116:andonApi.c    **** //        (uint32) CONVERT_TO_4BYTE(g_ptrCount->sewingActualH,g_ptrCount->sewingActualL) / 10.,    
 117:andonApi.c    **** //        g_ptrCount->sewingCycleTime,                                                             
 118:andonApi.c    **** //        (uint32) CONVERT_TO_4BYTE(g_ptrCount->sewingCycleTimeSumH, g_ptrCount->sewingCycleTimeSum
 119:andonApi.c    **** //        g_ptrCount->sewingMotorRunTime,                                                          
 120:andonApi.c    **** //        (uint32) CONVERT_TO_4BYTE(g_ptrCount->sewingMotorRunTimeSumH, g_ptrCount->sewingMotorRunT
 121:andonApi.c    **** //        g_ptrCount->sewingNoStitch,                                                              
 122:andonApi.c    **** //        (uint32) CONVERT_TO_4BYTE(g_ptrCount->sewingNoStitchSumH,g_ptrCount->sewingNoStitchSumL),
 123:andonApi.c    **** //        g_ptrMachineParameter->sewingPairTrim,                                                   
 124:andonApi.c    **** //        (uint32) CONVERT_TO_4BYTE(g_ptrCount->sewingTrimCountSumH,g_ptrCount->sewingTrimCountSumL
 125:andonApi.c    **** //        ); 
 126:andonApi.c    ****     
 127:andonApi.c    **** //    printf("send_cCount&d_idx=%u&pc=%u&pi=%3.1f&tg=%u&sc=%lu&ct=%u&cts=%lu&mrt=%u&mrts=%lu&sq=%u&
 128:andonApi.c    **** //        g_Info.DeviceIdx,
 129:andonApi.c    **** //        g_ptrMachineParameter->sewingPairTrim,                                                   
 130:andonApi.c    **** //        g_ptrMachineParameter->sewingPair / 10. ,                                                
 131:andonApi.c    **** //        g_ptrMachineParameter->sewingTarget,                                                     
 132:andonApi.c    **** //        (uint32) CONVERT_TO_4BYTE(g_ptrCount->sewingActualH,g_ptrCount->sewingActualL) / 10,     
 133:andonApi.c    **** //        g_ptrCount->sewingCycleTime,                                                             
 134:andonApi.c    **** //        (uint32) CONVERT_TO_4BYTE(g_ptrCount->sewingCycleTimeSumH, g_ptrCount->sewingCycleTimeSum
 135:andonApi.c    **** //        g_ptrCount->sewingMotorRunTime,                                                          
 136:andonApi.c    **** //        (uint32) CONVERT_TO_4BYTE(g_ptrCount->sewingMotorRunTimeSumH, g_ptrCount->sewingMotorRunT
 137:andonApi.c    **** //        g_ptrCount->sewingNoStitch,                                                              
 138:andonApi.c    **** //        (uint32) CONVERT_TO_4BYTE(g_ptrCount->sewingNoStitchSumH,g_ptrCount->sewingNoStitchSumL),
 139:andonApi.c    **** //        g_ptrCount->sewingTrimCount,                                                             
 140:andonApi.c    **** //        (uint32) CONVERT_TO_4BYTE(g_ptrCount->sewingTrimCountSumH,g_ptrCount->sewingTrimCountSumL
 141:andonApi.c    **** //        );      
 142:andonApi.c    ****      
 143:andonApi.c    **** }
 291              		.loc 1 143 0
 292              		@ sp needed
 293 0000 7047     		bx	lr
 294              		.cfi_endproc
 295              	.LFE68:
 296              		.size	makeAndonSewingCount, .-makeAndonSewingCount
 297 0002 C046     		.section	.text.initAndon,"ax",%progbits
 298              		.align	2
 299              		.global	initAndon
 300              		.code	16
 301              		.thumb_func
 302              		.type	initAndon, %function
 303              	initAndon:
 304              	.LFB69:
 144:andonApi.c    **** #ifdef USER_PROJECT_PATTERN_SEWING_MACHINE  
 145:andonApi.c    **** void makeAndonPatternCount()
 146:andonApi.c    **** {
 147:andonApi.c    ****        printf("send_pCount&d_idx=%u&pc=%u&pi=%0.1f&tg=%u&sc=%0.1f&no=%u&et=%u&ets=%lu&&ct=%u&cts=%l
 148:andonApi.c    ****         g_Info.DeviceIdx,
 149:andonApi.c    ****         g_ptrMachineParameter->patternPairCount,                                                   
 150:andonApi.c    ****         g_ptrMachineParameter->patternPair / 10.,                                                  
 151:andonApi.c    ****         g_ptrMachineParameter->patternTarget,                                                      
 152:andonApi.c    ****         (uint32) CONVERT_TO_4BYTE(g_ptrCount->patternActualH,g_ptrCount->patternActualL) / 10.,    
ARM GAS  C:\Users\luvsd\AppData\Local\Temp\ccANg5NP.s 			page 9


 153:andonApi.c    ****         g_ptrCount->patternNo,
 154:andonApi.c    ****         g_ptrCount->patternEmergencyTime,                                                          
 155:andonApi.c    ****         (uint32) CONVERT_TO_4BYTE(g_ptrCount->patternEmergencyTimeSumH,g_ptrCount->patternEmergency
 156:andonApi.c    ****         g_ptrCount->patternCycleTime,                                                              
 157:andonApi.c    ****         (uint32) CONVERT_TO_4BYTE(g_ptrCount->patternCycleTimeSumH,g_ptrCount->patternCycleTimeSumL
 158:andonApi.c    ****         g_ptrCount->patternMotorRunTime,                                                           
 159:andonApi.c    ****         (uint32) CONVERT_TO_4BYTE(g_ptrCount->patternMotorRunTimeSumH, g_ptrCount->patternMotorRunT
 160:andonApi.c    ****         g_ptrCount->patternNoStitch,                                                               
 161:andonApi.c    ****         (uint32) CONVERT_TO_4BYTE(g_ptrCount->patternNoStitchSumH, g_ptrCount->patternNoStitchSumL)
 162:andonApi.c    ****         g_ptrCount->patternStitchLength,                                                           
 163:andonApi.c    ****         (uint32) CONVERT_TO_4BYTE(g_ptrCount->patternStitchLengthSumH,g_ptrCount->patternStitchLeng
 164:andonApi.c    ****         g_ptrCount->patternTrimCount,                                                              
 165:andonApi.c    ****         (uint32) CONVERT_TO_4BYTE(g_ptrCount->patternTrimCountSumH,g_ptrCount->patternTrimCountSumL
 166:andonApi.c    ****         g_ptrCount->patternSPM                                                                     
 167:andonApi.c    ****         ); 
 168:andonApi.c    **** 
 169:andonApi.c    ****     enQueueANDON_printf(ANDON_SEND_PATTERN_COUNT,"send_pCount&d_idx=%u&pc=%u&pi=%0.1f&tg=%u&sc=%0.1
 170:andonApi.c    ****         g_Info.DeviceIdx,
 171:andonApi.c    ****         g_ptrMachineParameter->patternPairCount,                                                   
 172:andonApi.c    ****         g_ptrMachineParameter->patternPair / 10.,                                                  
 173:andonApi.c    ****         g_ptrMachineParameter->patternTarget,                                                      
 174:andonApi.c    ****         (uint32) CONVERT_TO_4BYTE(g_ptrCount->patternActualH,g_ptrCount->patternActualL) / 10.,    
 175:andonApi.c    ****         g_ptrCount->patternNo,
 176:andonApi.c    ****         g_ptrCount->patternEmergencyTime,                                                          
 177:andonApi.c    ****         (uint32) CONVERT_TO_4BYTE(g_ptrCount->patternEmergencyTimeSumH,g_ptrCount->patternEmergency
 178:andonApi.c    ****         g_ptrCount->patternCycleTime,                                                              
 179:andonApi.c    ****         (uint32) CONVERT_TO_4BYTE(g_ptrCount->patternCycleTimeSumH,g_ptrCount->patternCycleTimeSumL
 180:andonApi.c    ****         g_ptrCount->patternMotorRunTime,                                                           
 181:andonApi.c    ****         (uint32) CONVERT_TO_4BYTE(g_ptrCount->patternMotorRunTimeSumH, g_ptrCount->patternMotorRunT
 182:andonApi.c    ****         g_ptrCount->patternNoStitch,                                                               
 183:andonApi.c    ****         (uint32) CONVERT_TO_4BYTE(g_ptrCount->patternNoStitchSumH, g_ptrCount->patternNoStitchSumL)
 184:andonApi.c    ****         g_ptrCount->patternStitchLength,                                                           
 185:andonApi.c    ****         (uint32) CONVERT_TO_4BYTE(g_ptrCount->patternStitchLengthSumH,g_ptrCount->patternStitchLeng
 186:andonApi.c    ****         g_ptrCount->patternTrimCount,                                                              
 187:andonApi.c    ****         (uint32) CONVERT_TO_4BYTE(g_ptrCount->patternTrimCountSumH,g_ptrCount->patternTrimCountSumL
 188:andonApi.c    ****         g_ptrCount->patternSPM                                                                     
 189:andonApi.c    ****         );    
 190:andonApi.c    **** }
 191:andonApi.c    **** #endif
 192:andonApi.c    **** void initAndon()
 193:andonApi.c    **** {
 305              		.loc 1 193 0
 306              		.cfi_startproc
 307              		@ args = 0, pretend = 0, frame = 0
 308              		@ frame_needed = 0, uses_anonymous_args = 0
 309 0000 10B5     		push	{r4, lr}
 310              		.cfi_def_cfa_offset 8
 311              		.cfi_offset 4, -8
 312              		.cfi_offset 14, -4
 194:andonApi.c    ****     makeAndonCurrentTimeRequest();
 313              		.loc 1 194 0
 314 0002 FFF7FEFF 		bl	makeAndonCurrentTimeRequest
 315              	.LVL15:
 195:andonApi.c    ****     makeAndonDevice();    
 316              		.loc 1 195 0
 317 0006 FFF7FEFF 		bl	makeAndonDevice
 318              	.LVL16:
ARM GAS  C:\Users\luvsd\AppData\Local\Temp\ccANg5NP.s 			page 10


 196:andonApi.c    ****    // makeAndonList();
 197:andonApi.c    ****    // makeAndonTextList();
 198:andonApi.c    **** }
 319              		.loc 1 198 0
 320              		@ sp needed
 321 000a 10BD     		pop	{r4, pc}
 322              		.cfi_endproc
 323              	.LFE69:
 324              		.size	initAndon, .-initAndon
 325              		.global	g_Info
 326              		.global	g_uAndonRequestType
 327              		.global	g_uReplyResult
 328              		.global	g_bDeviceInfoUpdate
 329              		.comm	g_Lists,194,4
 330              		.comm	Param,6,4
 331              		.section	.rodata
 332              		.align	2
 333              		.set	.LANCHOR0,. + 0
 334              		.type	g_strServeURL, %object
 335              		.size	g_strServeURL, 15
 336              	g_strServeURL:
 337 0000 2F617069 		.ascii	"/api/index.php\000"
 337      2F696E64 
 337      65782E70 
 337      687000
 338              		.section	.rodata.str1.4,"aMS",%progbits,1
 339              		.align	2
 340              	.LC1:
 341 0000 25733F63 		.ascii	"%s?code=%s\000"
 341      6F64653D 
 341      257300
 342 000b 00       		.space	1
 343              	.LC4:
 344 000c 6765745F 		.ascii	"get_dateTime\000"
 344      64617465 
 344      54696D65 
 344      00
 345 0019 000000   		.space	3
 346              	.LC8:
 347 001c 73656E64 		.ascii	"send_device&mac=%s&name=%s&ip=%s&ver=%s\000"
 347      5F646576 
 347      69636526 
 347      6D61633D 
 347      2573266E 
 348              	.LC10:
 349 0044 302E302E 		.ascii	"0.0.1\000"
 349      3100
 350 004a 0000     		.space	2
 351              	.LC14:
 352 004c 6765745F 		.ascii	"get_andonList&device_idx=%d\000"
 352      616E646F 
 352      6E4C6973 
 352      74266465 
 352      76696365 
 353              	.LC17:
 354 0068 6765745F 		.ascii	"get_textList&device_idx=%d\000"
 354      74657874 
ARM GAS  C:\Users\luvsd\AppData\Local\Temp\ccANg5NP.s 			page 11


 354      4C697374 
 354      26646576 
 354      6963655F 
 355              		.bss
 356              		.align	2
 357              		.set	.LANCHOR1,. + 0
 358              		.type	g_uAndonRequestType, %object
 359              		.size	g_uAndonRequestType, 2
 360              	g_uAndonRequestType:
 361 0000 0000     		.space	2
 362 0002 0000     		.space	2
 363              		.type	g_Info, %object
 364              		.size	g_Info, 392
 365              	g_Info:
 366 0004 00000000 		.space	392
 366      00000000 
 366      00000000 
 366      00000000 
 366      00000000 
 367              		.type	g_uReplyResult, %object
 368              		.size	g_uReplyResult, 1
 369              	g_uReplyResult:
 370 018c 00       		.space	1
 371              		.type	g_bDeviceInfoUpdate, %object
 372              		.size	g_bDeviceInfoUpdate, 1
 373              	g_bDeviceInfoUpdate:
 374 018d 00       		.space	1
 375              		.text
 376              	.Letext0:
 377              		.file 2 "Generated_Source\\PSoC4/cytypes.h"
 378              		.file 3 "main.h"
 379              		.file 4 "andonApi.h"
 380              		.file 5 "andonMessageQueue.h"
 381              		.file 6 "lib/WIFI.h"
 382              		.file 7 "lib/server.h"
 383              		.file 8 "Generated_Source\\PSoC4/RTC.h"
 384              		.file 9 "c:\\program files (x86)\\cypress\\psoc creator\\4.4\\psoc creator\\import\\gnu\\arm\\5.4.
 385              		.file 10 "andonJson.h"