ARM GAS  C:\Users\luvsd\AppData\Local\Temp\cc6Ko3zR.s 			page 1


   1              		.syntax unified
   2              		.cpu cortex-m0
   3              		.fpu softvfp
   4              		.eabi_attribute 20, 1
   5              		.eabi_attribute 21, 1
   6              		.eabi_attribute 23, 3
   7              		.eabi_attribute 24, 1
   8              		.eabi_attribute 25, 1
   9              		.eabi_attribute 26, 1
  10              		.eabi_attribute 30, 1
  11              		.eabi_attribute 34, 0
  12              		.eabi_attribute 18, 4
  13              		.thumb
  14              		.syntax unified
  15              		.file	"andonJson.c"
  16              		.text
  17              	.Ltext0:
  18              		.cfi_sections	.debug_frame
  19              		.section	.text.andonCurrentTimeParsing,"ax",%progbits
  20              		.align	2
  21              		.global	andonCurrentTimeParsing
  22              		.code	16
  23              		.thumb_func
  24              		.type	andonCurrentTimeParsing, %function
  25              	andonCurrentTimeParsing:
  26              	.LFB63:
  27              		.file 1 "andonJson.c"
   1:andonJson.c   **** /* ========================================
   2:andonJson.c   ****  *
   3:andonJson.c   ****  * Copyright Suntech, 2023.02.01
   4:andonJson.c   ****  * All Rights Reserved
   5:andonJson.c   ****  * UNPUBLISHED, LICENSED SOFTWARE.
   6:andonJson.c   ****  *
   7:andonJson.c   ****  * CONFIDENTIAL AND PROPRIETARY INFORMATION
   8:andonJson.c   ****  * WHICH IS THE PROPERTY OF Suntech.
   9:andonJson.c   ****  *
  10:andonJson.c   ****  * ========================================
  11:andonJson.c   **** */
  12:andonJson.c   **** #include "andonJson.h"
  13:andonJson.c   **** #include "jsonUtil.h"
  14:andonJson.c   **** #include "andonApi.h"
  15:andonJson.c   **** #include "lib/RealTimeClock.h"
  16:andonJson.c   **** #include "lib/widget.h"
  17:andonJson.c   **** 
  18:andonJson.c   **** uint8 andonCurrentTimeParsing(char *jsonString, int16 sizeOfJson);
  19:andonJson.c   **** uint8 andonGetDeviceName     (char *jsonString, int16 sizeOfJson);
  20:andonJson.c   **** uint8 andonSendCount         (char *jsonString, int16 sizeOfJson);
  21:andonJson.c   **** uint8 andonMenuParsing       (char *jsonString, int16 sizeOfJson);
  22:andonJson.c   ****    
  23:andonJson.c   **** void andonJsonParsor(int type, char *jsonString, int16 sizeOfJson)
  24:andonJson.c   **** {
  25:andonJson.c   ****     switch(type)
  26:andonJson.c   ****     {
  27:andonJson.c   ****         case ANDON_CURRENT_TIME:       andonCurrentTimeParsing(jsonString, sizeOfJson); break;
  28:andonJson.c   ****         case ANDON_GET_DEVICE_NAME:    andonGetDeviceName     (jsonString, sizeOfJson); break;
  29:andonJson.c   ****         case ANDON_SEND_SEWING_COUNT:
  30:andonJson.c   ****         case ANDON_SEND_PATTERN_COUNT: andonSendCount         (jsonString, sizeOfJson); break;     
ARM GAS  C:\Users\luvsd\AppData\Local\Temp\cc6Ko3zR.s 			page 2


  31:andonJson.c   ****         case ANDON_REQUEST_LIST:       andonMenuParsing       (jsonString, sizeOfJson); break;
  32:andonJson.c   ****         case ANDON_REQUEST_TEXT_LIST:  andonMenuParsing       (jsonString, sizeOfJson); break;     
  33:andonJson.c   ****     }
  34:andonJson.c   **** }
  35:andonJson.c   **** 
  36:andonJson.c   **** uint8 andonCurrentTimeParsing(char *jsonString, int16 sizeOfJson)
  37:andonJson.c   **** {
  28              		.loc 1 37 0
  29              		.cfi_startproc
  30              		@ args = 0, pretend = 0, frame = 2064
  31              		@ frame_needed = 0, uses_anonymous_args = 0
  32              	.LVL0:
  33 0000 70B5     		push	{r4, r5, r6, lr}
  34              		.cfi_def_cfa_offset 16
  35              		.cfi_offset 4, -16
  36              		.cfi_offset 5, -12
  37              		.cfi_offset 6, -8
  38              		.cfi_offset 14, -4
  39 0002 244C     		ldr	r4, .L9
  40 0004 A544     		add	sp, sp, r4
  41              		.cfi_def_cfa_offset 2088
  42 0006 0400     		movs	r4, r0
  43 0008 0D00     		movs	r5, r1
  38:andonJson.c   ****     int i;    
  39:andonJson.c   ****     int r;
  40:andonJson.c   ****     jsmn_parser p;
  41:andonJson.c   ****     jsmntok_t t[128]; /* We expect no more than 128 tokens */  
  42:andonJson.c   ****     
  43:andonJson.c   ****     jsmn_init(&p);
  44              		.loc 1 43 0
  45 000a 234B     		ldr	r3, .L9+4
  46 000c 6B44     		add	r3, r3, sp
  47 000e 1800     		movs	r0, r3
  48              	.LVL1:
  49 0010 FFF7FEFF 		bl	jsmn_init
  50              	.LVL2:
  44:andonJson.c   ****     r = jsmn_parse(&p, jsonString, sizeOfJson, t, sizeof(t) / sizeof(t[0]));
  51              		.loc 1 44 0
  52 0014 8023     		movs	r3, #128
  53 0016 0093     		str	r3, [sp]
  54 0018 03AB     		add	r3, sp, #12
  55 001a 2A00     		movs	r2, r5
  56 001c 2100     		movs	r1, r4
  57 001e 1E48     		ldr	r0, .L9+4
  58 0020 6844     		add	r0, r0, sp
  59 0022 FFF7FEFF 		bl	jsmn_parse
  60              	.LVL3:
  61 0026 061E     		subs	r6, r0, #0
  62              	.LVL4:
  45:andonJson.c   ****     
  46:andonJson.c   ****     if (r < 0) {
  63              		.loc 1 46 0
  64 0028 05DA     		bge	.L2
  47:andonJson.c   ****         #ifdef DEBUG_ANDON_JSON
  48:andonJson.c   ****             printf("Failed to parse JSON: %d\r\n", r);
  65              		.loc 1 48 0
  66 002a 0100     		movs	r1, r0
ARM GAS  C:\Users\luvsd\AppData\Local\Temp\cc6Ko3zR.s 			page 3


  67 002c 1B48     		ldr	r0, .L9+8
  68              	.LVL5:
  69 002e FFF7FEFF 		bl	printf
  70              	.LVL6:
  49:andonJson.c   ****         #endif
  50:andonJson.c   ****         return FALSE;
  71              		.loc 1 50 0
  72 0032 0020     		movs	r0, #0
  73 0034 2BE0     		b	.L3
  74              	.LVL7:
  75              	.L2:
  51:andonJson.c   ****     }
  52:andonJson.c   ****     
  53:andonJson.c   ****     /* Assume the top-level element is an object */
  54:andonJson.c   ****     if (r < 1 || t[0].type != JSMN_OBJECT) {
  76              		.loc 1 54 0
  77 0036 0028     		cmp	r0, #0
  78 0038 03DD     		ble	.L4
  79              		.loc 1 54 0 is_stmt 0 discriminator 1
  80 003a 03AB     		add	r3, sp, #12
  81 003c 1B78     		ldrb	r3, [r3]
  82 003e 012B     		cmp	r3, #1
  83 0040 21D0     		beq	.L8
  84              	.L4:
  55:andonJson.c   ****         #ifdef DEBUG_ANDON_JSON
  56:andonJson.c   ****             printf("Object expected type: %d\r\n", t[0].type);
  85              		.loc 1 56 0 is_stmt 1
  86 0042 03AB     		add	r3, sp, #12
  87 0044 1978     		ldrb	r1, [r3]
  88 0046 1648     		ldr	r0, .L9+12
  89              	.LVL8:
  90 0048 FFF7FEFF 		bl	printf
  91              	.LVL9:
  57:andonJson.c   ****         #endif        
  58:andonJson.c   ****         return FALSE;
  92              		.loc 1 58 0
  93 004c 0020     		movs	r0, #0
  94 004e 1EE0     		b	.L3
  95              	.LVL10:
  96              	.L7:
  59:andonJson.c   ****     }
  60:andonJson.c   **** 
  61:andonJson.c   ****     for (i = 1; i < r; i++)
  62:andonJson.c   ****     {   
  63:andonJson.c   ****         if (jsoneq(jsonString, &t[i], "datetime") == 0)
  97              		.loc 1 63 0
  98 0050 2901     		lsls	r1, r5, #4
  99 0052 03AB     		add	r3, sp, #12
 100 0054 9C46     		mov	ip, r3
 101 0056 6144     		add	r1, r1, ip
 102 0058 124A     		ldr	r2, .L9+16
 103 005a 2000     		movs	r0, r4
 104 005c FFF7FEFF 		bl	jsoneq
 105              	.LVL11:
 106 0060 0028     		cmp	r0, #0
 107 0062 0ED1     		bne	.L6
  64:andonJson.c   ****         {
ARM GAS  C:\Users\luvsd\AppData\Local\Temp\cc6Ko3zR.s 			page 4


  65:andonJson.c   ****             setCurrentTime(GetJSON_Token_String(&t[i + 1], jsonString));
 108              		.loc 1 65 0
 109 0064 681C     		adds	r0, r5, #1
 110 0066 0001     		lsls	r0, r0, #4
 111 0068 03AB     		add	r3, sp, #12
 112 006a 9C46     		mov	ip, r3
 113 006c 6044     		add	r0, r0, ip
 114 006e 2100     		movs	r1, r4
 115 0070 FFF7FEFF 		bl	GetJSON_Token_String
 116              	.LVL12:
 117 0074 FFF7FEFF 		bl	setCurrentTime
 118              	.LVL13:
  66:andonJson.c   ****             g_uReplyResult = RR_SUCCESS;
 119              		.loc 1 66 0
 120 0078 0122     		movs	r2, #1
 121 007a 0B4B     		ldr	r3, .L9+20
 122 007c 1A70     		strb	r2, [r3]
  67:andonJson.c   ****             break;
  68:andonJson.c   ****         }
  69:andonJson.c   ****     }
  70:andonJson.c   ****     
  71:andonJson.c   ****     return TRUE;
 123              		.loc 1 71 0
 124 007e 0120     		movs	r0, #1
  67:andonJson.c   ****             break;
 125              		.loc 1 67 0
 126 0080 05E0     		b	.L3
 127              	.L6:
  61:andonJson.c   ****     {   
 128              		.loc 1 61 0 discriminator 2
 129 0082 0135     		adds	r5, r5, #1
 130              	.LVL14:
 131 0084 00E0     		b	.L5
 132              	.LVL15:
 133              	.L8:
 134 0086 0125     		movs	r5, #1
 135              	.LVL16:
 136              	.L5:
  61:andonJson.c   ****     {   
 137              		.loc 1 61 0 is_stmt 0 discriminator 1
 138 0088 B542     		cmp	r5, r6
 139 008a E1DB     		blt	.L7
 140              		.loc 1 71 0 is_stmt 1
 141 008c 0120     		movs	r0, #1
 142              	.LVL17:
 143              	.L3:
  72:andonJson.c   **** }
 144              		.loc 1 72 0
 145 008e 074B     		ldr	r3, .L9+24
 146 0090 9D44     		add	sp, sp, r3
 147              		@ sp needed
 148              	.LVL18:
 149              	.LVL19:
 150 0092 70BD     		pop	{r4, r5, r6, pc}
 151              	.L10:
 152              		.align	2
 153              	.L9:
ARM GAS  C:\Users\luvsd\AppData\Local\Temp\cc6Ko3zR.s 			page 5


 154 0094 E8F7FFFF 		.word	-2072
 155 0098 0C080000 		.word	2060
 156 009c 00000000 		.word	.LC0
 157 00a0 1C000000 		.word	.LC2
 158 00a4 38000000 		.word	.LC4
 159 00a8 00000000 		.word	g_uReplyResult
 160 00ac 18080000 		.word	2072
 161              		.cfi_endproc
 162              	.LFE63:
 163              		.size	andonCurrentTimeParsing, .-andonCurrentTimeParsing
 164              		.section	.text.andonGetDeviceName,"ax",%progbits
 165              		.align	2
 166              		.global	andonGetDeviceName
 167              		.code	16
 168              		.thumb_func
 169              		.type	andonGetDeviceName, %function
 170              	andonGetDeviceName:
 171              	.LFB64:
  73:andonJson.c   **** 
  74:andonJson.c   **** uint8 andonGetDeviceName(char *jsonString, int16 sizeOfJson)
  75:andonJson.c   **** {
 172              		.loc 1 75 0
 173              		.cfi_startproc
 174              		@ args = 0, pretend = 0, frame = 2080
 175              		@ frame_needed = 0, uses_anonymous_args = 0
 176              	.LVL20:
 177 0000 F0B5     		push	{r4, r5, r6, r7, lr}
 178              		.cfi_def_cfa_offset 20
 179              		.cfi_offset 4, -20
 180              		.cfi_offset 5, -16
 181              		.cfi_offset 6, -12
 182              		.cfi_offset 7, -8
 183              		.cfi_offset 14, -4
 184 0002 4F4C     		ldr	r4, .L22
 185 0004 A544     		add	sp, sp, r4
 186              		.cfi_def_cfa_offset 2112
 187 0006 0500     		movs	r5, r0
 188 0008 0C00     		movs	r4, r1
  76:andonJson.c   ****     int i;
  77:andonJson.c   ****     int r;
  78:andonJson.c   ****     jsmn_parser p;
  79:andonJson.c   ****     jsmntok_t t[128]; /* We expect no more than 128 tokens */  
  80:andonJson.c   ****     
  81:andonJson.c   ****     jsmn_init(&p);
 189              		.loc 1 81 0
 190 000a 4E4B     		ldr	r3, .L22+4
 191 000c 6B44     		add	r3, r3, sp
 192 000e 1800     		movs	r0, r3
 193              	.LVL21:
 194 0010 FFF7FEFF 		bl	jsmn_init
 195              	.LVL22:
  82:andonJson.c   ****     r = jsmn_parse(&p, jsonString, sizeOfJson, t, sizeof(t) / sizeof(t[0]));
 196              		.loc 1 82 0
 197 0014 8023     		movs	r3, #128
 198 0016 0093     		str	r3, [sp]
 199 0018 07AB     		add	r3, sp, #28
 200 001a 2200     		movs	r2, r4
ARM GAS  C:\Users\luvsd\AppData\Local\Temp\cc6Ko3zR.s 			page 6


 201 001c 2900     		movs	r1, r5
 202 001e 4948     		ldr	r0, .L22+4
 203 0020 6844     		add	r0, r0, sp
 204 0022 FFF7FEFF 		bl	jsmn_parse
 205              	.LVL23:
 206 0026 071E     		subs	r7, r0, #0
 207              	.LVL24:
  83:andonJson.c   ****     
  84:andonJson.c   ****     if (r < 0) {
 208              		.loc 1 84 0
 209 0028 05DA     		bge	.L12
  85:andonJson.c   ****         #ifdef DEBUG_ANDON_JSON
  86:andonJson.c   ****             printf("Failed to parse JSON: %d\r\n", r);
 210              		.loc 1 86 0
 211 002a 0100     		movs	r1, r0
 212 002c 4648     		ldr	r0, .L22+8
 213              	.LVL25:
 214 002e FFF7FEFF 		bl	printf
 215              	.LVL26:
  87:andonJson.c   ****         #endif
  88:andonJson.c   ****         return FALSE;
 216              		.loc 1 88 0
 217 0032 0020     		movs	r0, #0
 218 0034 80E0     		b	.L13
 219              	.LVL27:
 220              	.L12:
  89:andonJson.c   ****     }
  90:andonJson.c   ****     
  91:andonJson.c   ****     /* Assume the top-level element is an object */
  92:andonJson.c   ****     if (r < 1 || t[0].type != JSMN_OBJECT) {
 221              		.loc 1 92 0
 222 0036 0028     		cmp	r0, #0
 223 0038 03DD     		ble	.L14
 224              		.loc 1 92 0 is_stmt 0 discriminator 1
 225 003a 07AB     		add	r3, sp, #28
 226 003c 1B78     		ldrb	r3, [r3]
 227 003e 012B     		cmp	r3, #1
 228 0040 6DD0     		beq	.L21
 229              	.L14:
  93:andonJson.c   ****         #ifdef DEBUG_ANDON_JSON
  94:andonJson.c   ****             printf("Object expected type: %d\r\n", t[0].type);
 230              		.loc 1 94 0 is_stmt 1
 231 0042 07AB     		add	r3, sp, #28
 232 0044 1978     		ldrb	r1, [r3]
 233 0046 4148     		ldr	r0, .L22+12
 234              	.LVL28:
 235 0048 FFF7FEFF 		bl	printf
 236              	.LVL29:
  95:andonJson.c   ****         #endif     
  96:andonJson.c   ****         return FALSE;
 237              		.loc 1 96 0
 238 004c 0020     		movs	r0, #0
 239 004e 73E0     		b	.L13
 240              	.LVL30:
 241              	.L20:
  97:andonJson.c   ****     }
  98:andonJson.c   ****     
ARM GAS  C:\Users\luvsd\AppData\Local\Temp\cc6Ko3zR.s 			page 7


  99:andonJson.c   ****     for (i = 1; i < r; i++)
 100:andonJson.c   ****     {   
 101:andonJson.c   ****         if     (jsoneq(jsonString, &t[i], "device_no") == 0)
 242              		.loc 1 101 0
 243 0050 3401     		lsls	r4, r6, #4
 244 0052 07AB     		add	r3, sp, #28
 245 0054 9C46     		mov	ip, r3
 246 0056 6444     		add	r4, r4, ip
 247 0058 3D4A     		ldr	r2, .L22+16
 248 005a 2100     		movs	r1, r4
 249 005c 2800     		movs	r0, r5
 250 005e FFF7FEFF 		bl	jsoneq
 251              	.LVL31:
 252 0062 0028     		cmp	r0, #0
 253 0064 16D1     		bne	.L16
 102:andonJson.c   ****         {
 103:andonJson.c   ****             sprintf(g_Info.DeviceNo,"%.*s",t[i + 1].end - t[i + 1].start,jsonString + t[i + 1].star
 254              		.loc 1 103 0
 255 0066 731C     		adds	r3, r6, #1
 256 0068 1B01     		lsls	r3, r3, #4
 257 006a 07AA     		add	r2, sp, #28
 258 006c 9446     		mov	ip, r2
 259 006e 6344     		add	r3, r3, ip
 260 0070 9A68     		ldr	r2, [r3, #8]
 261 0072 5968     		ldr	r1, [r3, #4]
 262 0074 6B18     		adds	r3, r5, r1
 263 0076 521A     		subs	r2, r2, r1
 264 0078 364C     		ldr	r4, .L22+20
 265 007a 3749     		ldr	r1, .L22+24
 266 007c 2000     		movs	r0, r4
 267 007e FFF7FEFF 		bl	sprintf
 268              	.LVL32:
 104:andonJson.c   ****             if(strlen(g_Info.DeviceNo) == 0) strcpy(g_Info.DeviceNo,"IoT Device");
 269              		.loc 1 104 0
 270 0082 2378     		ldrb	r3, [r4]
 271 0084 002B     		cmp	r3, #0
 272 0086 48D1     		bne	.L17
 273              		.loc 1 104 0 is_stmt 0 discriminator 1
 274 0088 0B22     		movs	r2, #11
 275 008a 3449     		ldr	r1, .L22+28
 276 008c 3148     		ldr	r0, .L22+20
 277 008e FFF7FEFF 		bl	memcpy
 278              	.LVL33:
 279 0092 42E0     		b	.L17
 280              	.L16:
 105:andonJson.c   ****         }
 106:andonJson.c   ****         else if(jsoneq(jsonString, &t[i], "install_type") == 0)
 281              		.loc 1 106 0 is_stmt 1
 282 0094 324A     		ldr	r2, .L22+32
 283 0096 2100     		movs	r1, r4
 284 0098 2800     		movs	r0, r5
 285 009a FFF7FEFF 		bl	jsoneq
 286              	.LVL34:
 287 009e 0028     		cmp	r0, #0
 288 00a0 0DD1     		bne	.L18
 107:andonJson.c   ****         {
 108:andonJson.c   ****             sprintf(g_Info.InstallType,"%.*s",t[i + 1].end - t[i + 1].start,jsonString + t[i + 1].s
ARM GAS  C:\Users\luvsd\AppData\Local\Temp\cc6Ko3zR.s 			page 8


 289              		.loc 1 108 0
 290 00a2 731C     		adds	r3, r6, #1
 291 00a4 1B01     		lsls	r3, r3, #4
 292 00a6 07AA     		add	r2, sp, #28
 293 00a8 9446     		mov	ip, r2
 294 00aa 6344     		add	r3, r3, ip
 295 00ac 9A68     		ldr	r2, [r3, #8]
 296 00ae 5968     		ldr	r1, [r3, #4]
 297 00b0 6B18     		adds	r3, r5, r1
 298 00b2 521A     		subs	r2, r2, r1
 299 00b4 2849     		ldr	r1, .L22+24
 300 00b6 2B48     		ldr	r0, .L22+36
 301 00b8 FFF7FEFF 		bl	sprintf
 302              	.LVL35:
 303 00bc 2DE0     		b	.L17
 304              	.L18:
 109:andonJson.c   ****         }
 110:andonJson.c   ****         else if(jsoneq(jsonString, &t[i], "line_name") == 0)
 305              		.loc 1 110 0
 306 00be 2A4A     		ldr	r2, .L22+40
 307 00c0 2100     		movs	r1, r4
 308 00c2 2800     		movs	r0, r5
 309 00c4 FFF7FEFF 		bl	jsoneq
 310              	.LVL36:
 311 00c8 0028     		cmp	r0, #0
 312 00ca 0DD1     		bne	.L19
 111:andonJson.c   ****         {
 112:andonJson.c   ****             sprintf(g_Info.LineName,"%.*s",t[i + 1].end - t[i + 1].start,jsonString + t[i + 1].star
 313              		.loc 1 112 0
 314 00cc 731C     		adds	r3, r6, #1
 315 00ce 1B01     		lsls	r3, r3, #4
 316 00d0 07AA     		add	r2, sp, #28
 317 00d2 9446     		mov	ip, r2
 318 00d4 6344     		add	r3, r3, ip
 319 00d6 9A68     		ldr	r2, [r3, #8]
 320 00d8 5968     		ldr	r1, [r3, #4]
 321 00da 6B18     		adds	r3, r5, r1
 322 00dc 521A     		subs	r2, r2, r1
 323 00de 1E49     		ldr	r1, .L22+24
 324 00e0 2248     		ldr	r0, .L22+44
 325 00e2 FFF7FEFF 		bl	sprintf
 326              	.LVL37:
 327 00e6 18E0     		b	.L17
 328              	.L19:
 113:andonJson.c   ****         }              
 114:andonJson.c   ****         else if(jsoneq(jsonString, &t[i], "device_idx") == 0)
 329              		.loc 1 114 0
 330 00e8 214A     		ldr	r2, .L22+48
 331 00ea 2100     		movs	r1, r4
 332 00ec 2800     		movs	r0, r5
 333 00ee FFF7FEFF 		bl	jsoneq
 334              	.LVL38:
 335 00f2 0028     		cmp	r0, #0
 336 00f4 11D1     		bne	.L17
 337              	.LBB2:
 115:andonJson.c   ****         {
 116:andonJson.c   ****             char buff[20];
ARM GAS  C:\Users\luvsd\AppData\Local\Temp\cc6Ko3zR.s 			page 9


 117:andonJson.c   ****             sprintf(buff,"%.*s",t[i + 1].end - t[i + 1].start,jsonString + t[i + 1].start);
 338              		.loc 1 117 0
 339 00f6 731C     		adds	r3, r6, #1
 340 00f8 1B01     		lsls	r3, r3, #4
 341 00fa 07AA     		add	r2, sp, #28
 342 00fc 9446     		mov	ip, r2
 343 00fe 6344     		add	r3, r3, ip
 344 0100 9A68     		ldr	r2, [r3, #8]
 345 0102 5968     		ldr	r1, [r3, #4]
 346 0104 6B18     		adds	r3, r5, r1
 347 0106 521A     		subs	r2, r2, r1
 348 0108 1349     		ldr	r1, .L22+24
 349 010a 02A8     		add	r0, sp, #8
 350 010c FFF7FEFF 		bl	sprintf
 351              	.LVL39:
 118:andonJson.c   ****             g_Info.DeviceIdx = atoi(buff);
 352              		.loc 1 118 0
 353 0110 02A8     		add	r0, sp, #8
 354 0112 FFF7FEFF 		bl	atoi
 355              	.LVL40:
 356 0116 174B     		ldr	r3, .L22+52
 357 0118 5885     		strh	r0, [r3, #42]
 358              	.L17:
 359              	.LBE2:
  99:andonJson.c   ****     {   
 360              		.loc 1 99 0 discriminator 2
 361 011a 0136     		adds	r6, r6, #1
 362              	.LVL41:
 363 011c 00E0     		b	.L15
 364              	.LVL42:
 365              	.L21:
 366 011e 0126     		movs	r6, #1
 367              	.LVL43:
 368              	.L15:
  99:andonJson.c   ****     {   
 369              		.loc 1 99 0 is_stmt 0 discriminator 1
 370 0120 BE42     		cmp	r6, r7
 371 0122 95DB     		blt	.L20
 119:andonJson.c   ****         }
 120:andonJson.c   ****     }
 121:andonJson.c   ****     
 122:andonJson.c   ****  //   printf("andonGetDeviceName() : %s, %s, %d\r\n",g_Info.DeviceNo,g_Info.InstallType,g_Info.Devi
 123:andonJson.c   ****     SetTitleBarText(g_Info.DeviceNo);
 372              		.loc 1 123 0 is_stmt 1
 373 0124 0B4C     		ldr	r4, .L22+20
 374 0126 2000     		movs	r0, r4
 375 0128 FFF7FEFF 		bl	SetTitleBarText
 376              	.LVL44:
 124:andonJson.c   ****     DrawTitle();
 377              		.loc 1 124 0
 378 012c FFF7FEFF 		bl	DrawTitle
 379              	.LVL45:
 125:andonJson.c   ****     g_Info.bUpdateDeviceInfo = TRUE;
 380              		.loc 1 125 0
 381 0130 013C     		subs	r4, r4, #1
 382 0132 0123     		movs	r3, #1
 383 0134 2370     		strb	r3, [r4]
ARM GAS  C:\Users\luvsd\AppData\Local\Temp\cc6Ko3zR.s 			page 10


 126:andonJson.c   ****     
 127:andonJson.c   ****     return TRUE;
 384              		.loc 1 127 0
 385 0136 0120     		movs	r0, #1
 386              	.LVL46:
 387              	.L13:
 128:andonJson.c   **** }
 388              		.loc 1 128 0
 389 0138 0F4B     		ldr	r3, .L22+56
 390 013a 9D44     		add	sp, sp, r3
 391              		@ sp needed
 392              	.LVL47:
 393              	.LVL48:
 394 013c F0BD     		pop	{r4, r5, r6, r7, pc}
 395              	.L23:
 396 013e C046     		.align	2
 397              	.L22:
 398 0140 D4F7FFFF 		.word	-2092
 399 0144 1C080000 		.word	2076
 400 0148 00000000 		.word	.LC0
 401 014c 1C000000 		.word	.LC2
 402 0150 44000000 		.word	.LC9
 403 0154 01000000 		.word	g_Info+1
 404 0158 50000000 		.word	.LC11
 405 015c 58000000 		.word	.LC15
 406 0160 64000000 		.word	.LC17
 407 0164 2C000000 		.word	g_Info+44
 408 0168 74000000 		.word	.LC20
 409 016c 15000000 		.word	g_Info+21
 410 0170 80000000 		.word	.LC23
 411 0174 00000000 		.word	g_Info
 412 0178 2C080000 		.word	2092
 413              		.cfi_endproc
 414              	.LFE64:
 415              		.size	andonGetDeviceName, .-andonGetDeviceName
 416              		.section	.text.andonSendCount,"ax",%progbits
 417              		.align	2
 418              		.global	andonSendCount
 419              		.code	16
 420              		.thumb_func
 421              		.type	andonSendCount, %function
 422              	andonSendCount:
 423              	.LFB65:
 129:andonJson.c   **** 
 130:andonJson.c   **** uint8 andonSendCount(char *jsonString, int16 sizeOfJson)
 131:andonJson.c   **** {
 424              		.loc 1 131 0
 425              		.cfi_startproc
 426              		@ args = 0, pretend = 0, frame = 2320
 427              		@ frame_needed = 0, uses_anonymous_args = 0
 428              	.LVL49:
 429 0000 70B5     		push	{r4, r5, r6, lr}
 430              		.cfi_def_cfa_offset 16
 431              		.cfi_offset 4, -16
 432              		.cfi_offset 5, -12
 433              		.cfi_offset 6, -8
 434              		.cfi_offset 14, -4
ARM GAS  C:\Users\luvsd\AppData\Local\Temp\cc6Ko3zR.s 			page 11


 435 0002 274C     		ldr	r4, .L33
 436 0004 A544     		add	sp, sp, r4
 437              		.cfi_def_cfa_offset 2344
 438 0006 0400     		movs	r4, r0
 439 0008 0D00     		movs	r5, r1
 132:andonJson.c   ****     int i;
 133:andonJson.c   ****     int r;
 134:andonJson.c   ****     jsmn_parser p;
 135:andonJson.c   ****     jsmntok_t t[128]; /* We expect no more than 128 tokens */  
 136:andonJson.c   ****     
 137:andonJson.c   ****     jsmn_init(&p);
 440              		.loc 1 137 0
 441 000a 264B     		ldr	r3, .L33+4
 442 000c 6B44     		add	r3, r3, sp
 443 000e 1800     		movs	r0, r3
 444              	.LVL50:
 445 0010 FFF7FEFF 		bl	jsmn_init
 446              	.LVL51:
 138:andonJson.c   ****     r = jsmn_parse(&p, jsonString, sizeOfJson, t, sizeof(t) / sizeof(t[0]));
 447              		.loc 1 138 0
 448 0014 8023     		movs	r3, #128
 449 0016 0093     		str	r3, [sp]
 450 0018 43AB     		add	r3, sp, #268
 451 001a 2A00     		movs	r2, r5
 452 001c 2100     		movs	r1, r4
 453 001e 2148     		ldr	r0, .L33+4
 454 0020 6844     		add	r0, r0, sp
 455 0022 FFF7FEFF 		bl	jsmn_parse
 456              	.LVL52:
 457 0026 061E     		subs	r6, r0, #0
 458              	.LVL53:
 139:andonJson.c   ****   
 140:andonJson.c   ****     if (r < 0) {
 459              		.loc 1 140 0
 460 0028 05DA     		bge	.L25
 141:andonJson.c   ****         #ifdef DEBUG_ANDON_JSON
 142:andonJson.c   ****             printf("Failed to parse JSON: %d\r\n", r);
 461              		.loc 1 142 0
 462 002a 0100     		movs	r1, r0
 463 002c 1E48     		ldr	r0, .L33+8
 464              	.LVL54:
 465 002e FFF7FEFF 		bl	printf
 466              	.LVL55:
 143:andonJson.c   ****         #endif
 144:andonJson.c   ****         return FALSE;
 467              		.loc 1 144 0
 468 0032 0020     		movs	r0, #0
 469 0034 31E0     		b	.L26
 470              	.LVL56:
 471              	.L25:
 145:andonJson.c   ****     }
 146:andonJson.c   ****     
 147:andonJson.c   ****     /* Assume the top-level element is an object */
 148:andonJson.c   ****     if (r < 1 || t[0].type != JSMN_OBJECT) {
 472              		.loc 1 148 0
 473 0036 0028     		cmp	r0, #0
 474 0038 03DD     		ble	.L27
ARM GAS  C:\Users\luvsd\AppData\Local\Temp\cc6Ko3zR.s 			page 12


 475              		.loc 1 148 0 is_stmt 0 discriminator 1
 476 003a 43AB     		add	r3, sp, #268
 477 003c 1B78     		ldrb	r3, [r3]
 478 003e 012B     		cmp	r3, #1
 479 0040 25D0     		beq	.L31
 480              	.L27:
 149:andonJson.c   ****         #ifdef DEBUG_ANDON_JSON
 150:andonJson.c   ****             printf("Object expected type: %d\r\n", t[0].type);
 481              		.loc 1 150 0 is_stmt 1
 482 0042 43AB     		add	r3, sp, #268
 483 0044 1978     		ldrb	r1, [r3]
 484 0046 1948     		ldr	r0, .L33+12
 485              	.LVL57:
 486 0048 FFF7FEFF 		bl	printf
 487              	.LVL58:
 151:andonJson.c   ****         #endif     
 152:andonJson.c   ****         return FALSE;
 488              		.loc 1 152 0
 489 004c 0020     		movs	r0, #0
 490 004e 24E0     		b	.L26
 491              	.LVL59:
 492              	.L30:
 153:andonJson.c   ****     }
 154:andonJson.c   ****     
 155:andonJson.c   ****  //   printf("andonSendCount():%s",jsonString);
 156:andonJson.c   ****     char buff[256];
 157:andonJson.c   ****     for (i = 1; i < r; i++)
 158:andonJson.c   ****     {   
 159:andonJson.c   ****         if     (jsoneq(jsonString, &t[i], "code") == 0)
 493              		.loc 1 159 0
 494 0050 2901     		lsls	r1, r5, #4
 495 0052 43AB     		add	r3, sp, #268
 496 0054 9C46     		mov	ip, r3
 497 0056 6144     		add	r1, r1, ip
 498 0058 154A     		ldr	r2, .L33+16
 499 005a 2000     		movs	r0, r4
 500 005c FFF7FEFF 		bl	jsoneq
 501              	.LVL60:
 502 0060 0028     		cmp	r0, #0
 503 0062 12D1     		bne	.L29
 160:andonJson.c   ****         {
 161:andonJson.c   ****             sprintf(buff,"%.*s",t[i + 1].end - t[i + 1].start,jsonString + t[i + 1].start);      
 504              		.loc 1 161 0
 505 0064 6B1C     		adds	r3, r5, #1
 506 0066 1B01     		lsls	r3, r3, #4
 507 0068 43AA     		add	r2, sp, #268
 508 006a 9446     		mov	ip, r2
 509 006c 6344     		add	r3, r3, ip
 510 006e 9A68     		ldr	r2, [r3, #8]
 511 0070 5968     		ldr	r1, [r3, #4]
 512 0072 6318     		adds	r3, r4, r1
 513 0074 521A     		subs	r2, r2, r1
 514 0076 0F49     		ldr	r1, .L33+20
 515 0078 03A8     		add	r0, sp, #12
 516 007a FFF7FEFF 		bl	sprintf
 517              	.LVL61:
 162:andonJson.c   ****             if(strcmp(buff,"00") == 0)
ARM GAS  C:\Users\luvsd\AppData\Local\Temp\cc6Ko3zR.s 			page 13


 518              		.loc 1 162 0
 519 007e 0E49     		ldr	r1, .L33+24
 520 0080 03A8     		add	r0, sp, #12
 521 0082 FFF7FEFF 		bl	strcmp
 522              	.LVL62:
 523 0086 0028     		cmp	r0, #0
 524 0088 06D0     		beq	.L32
 525              	.L29:
 157:andonJson.c   ****     {   
 526              		.loc 1 157 0 discriminator 2
 527 008a 0135     		adds	r5, r5, #1
 528              	.LVL63:
 529 008c 00E0     		b	.L28
 530              	.LVL64:
 531              	.L31:
 532 008e 0125     		movs	r5, #1
 533              	.LVL65:
 534              	.L28:
 157:andonJson.c   ****     {   
 535              		.loc 1 157 0 is_stmt 0 discriminator 1
 536 0090 B542     		cmp	r5, r6
 537 0092 DDDB     		blt	.L30
 163:andonJson.c   ****             {
 164:andonJson.c   ****                 return TRUE;
 165:andonJson.c   ****             }
 166:andonJson.c   ****         }
 167:andonJson.c   ****     }
 168:andonJson.c   ****         
 169:andonJson.c   ****     return TRUE;    
 538              		.loc 1 169 0 is_stmt 1
 539 0094 0120     		movs	r0, #1
 540 0096 00E0     		b	.L26
 541              	.L32:
 164:andonJson.c   ****             }
 542              		.loc 1 164 0
 543 0098 0120     		movs	r0, #1
 544              	.LVL66:
 545              	.L26:
 170:andonJson.c   **** }
 546              		.loc 1 170 0
 547 009a 084B     		ldr	r3, .L33+28
 548 009c 9D44     		add	sp, sp, r3
 549              		@ sp needed
 550              	.LVL67:
 551              	.LVL68:
 552 009e 70BD     		pop	{r4, r5, r6, pc}
 553              	.L34:
 554              		.align	2
 555              	.L33:
 556 00a0 E8F6FFFF 		.word	-2328
 557 00a4 0C090000 		.word	2316
 558 00a8 00000000 		.word	.LC0
 559 00ac 1C000000 		.word	.LC2
 560 00b0 8C000000 		.word	.LC27
 561 00b4 50000000 		.word	.LC11
 562 00b8 94000000 		.word	.LC30
 563 00bc 18090000 		.word	2328
ARM GAS  C:\Users\luvsd\AppData\Local\Temp\cc6Ko3zR.s 			page 14


 564              		.cfi_endproc
 565              	.LFE65:
 566              		.size	andonSendCount, .-andonSendCount
 567              		.section	.text.andonMenuParsing,"ax",%progbits
 568              		.align	2
 569              		.global	andonMenuParsing
 570              		.code	16
 571              		.thumb_func
 572              		.type	andonMenuParsing, %function
 573              	andonMenuParsing:
 574              	.LFB66:
 171:andonJson.c   **** 
 172:andonJson.c   **** uint8 andonMenuParsing(char *jsonString, int16 sizeOfJson)
 173:andonJson.c   **** {
 575              		.loc 1 173 0
 576              		.cfi_startproc
 577              		@ args = 0, pretend = 0, frame = 2128
 578              		@ frame_needed = 0, uses_anonymous_args = 0
 579              	.LVL69:
 580 0000 F0B5     		push	{r4, r5, r6, r7, lr}
 581              		.cfi_def_cfa_offset 20
 582              		.cfi_offset 4, -20
 583              		.cfi_offset 5, -16
 584              		.cfi_offset 6, -12
 585              		.cfi_offset 7, -8
 586              		.cfi_offset 14, -4
 587 0002 5F46     		mov	r7, fp
 588 0004 5646     		mov	r6, r10
 589 0006 4D46     		mov	r5, r9
 590 0008 4446     		mov	r4, r8
 591 000a F0B4     		push	{r4, r5, r6, r7}
 592              		.cfi_def_cfa_offset 36
 593              		.cfi_offset 8, -36
 594              		.cfi_offset 9, -32
 595              		.cfi_offset 10, -28
 596              		.cfi_offset 11, -24
 597 000c DE4C     		ldr	r4, .L63
 598 000e A544     		add	sp, sp, r4
 599              		.cfi_def_cfa_offset 2176
 600 0010 0500     		movs	r5, r0
 601 0012 0290     		str	r0, [sp, #8]
 602 0014 0C00     		movs	r4, r1
 174:andonJson.c   ****     int i;
 175:andonJson.c   ****     int r;
 176:andonJson.c   ****     jsmn_parser p;
 177:andonJson.c   ****     jsmntok_t t[128]; /* We expect no more than 128 tokens */  
 178:andonJson.c   ****     
 179:andonJson.c   ****     jsmn_init(&p);
 603              		.loc 1 179 0
 604 0016 DD4B     		ldr	r3, .L63+4
 605 0018 04AA     		add	r2, sp, #16
 606 001a 9446     		mov	ip, r2
 607 001c 6344     		add	r3, r3, ip
 608 001e 1800     		movs	r0, r3
 609              	.LVL70:
 610 0020 FFF7FEFF 		bl	jsmn_init
 611              	.LVL71:
ARM GAS  C:\Users\luvsd\AppData\Local\Temp\cc6Ko3zR.s 			page 15


 180:andonJson.c   ****     printf("%s\r\n",jsonString);
 612              		.loc 1 180 0
 613 0024 2900     		movs	r1, r5
 614 0026 DA48     		ldr	r0, .L63+8
 615 0028 FFF7FEFF 		bl	printf
 616              	.LVL72:
 181:andonJson.c   ****     r = jsmn_parse(&p, jsonString, sizeOfJson, t, sizeof(t) / sizeof(t[0]));
 617              		.loc 1 181 0
 618 002c 8023     		movs	r3, #128
 619 002e 0093     		str	r3, [sp]
 620 0030 13AB     		add	r3, sp, #76
 621 0032 2200     		movs	r2, r4
 622 0034 2900     		movs	r1, r5
 623 0036 D548     		ldr	r0, .L63+4
 624 0038 04AC     		add	r4, sp, #16
 625 003a A446     		mov	ip, r4
 626 003c 6044     		add	r0, r0, ip
 627 003e FFF7FEFF 		bl	jsmn_parse
 628              	.LVL73:
 629 0042 0490     		str	r0, [sp, #16]
 630              	.LVL74:
 182:andonJson.c   ****     
 183:andonJson.c   ****     
 184:andonJson.c   ****     if (r < 0) {
 631              		.loc 1 184 0
 632 0044 0028     		cmp	r0, #0
 633 0046 05DA     		bge	.L36
 185:andonJson.c   ****         #ifdef DEBUG_ANDON_JSON        
 186:andonJson.c   ****             printf("Failed to parse JSON: %d\r\n", r);
 634              		.loc 1 186 0
 635 0048 0100     		movs	r1, r0
 636 004a D248     		ldr	r0, .L63+12
 637              	.LVL75:
 638 004c FFF7FEFF 		bl	printf
 639              	.LVL76:
 187:andonJson.c   ****         #endif        
 188:andonJson.c   ****         return FALSE;
 640              		.loc 1 188 0
 641 0050 0020     		movs	r0, #0
 642 0052 BEE1     		b	.L37
 643              	.LVL77:
 644              	.L36:
 189:andonJson.c   ****     }
 190:andonJson.c   ****     
 191:andonJson.c   ****     /* Assume the top-level element is an object */
 192:andonJson.c   ****     if (r < 1 || t[0].type != JSMN_OBJECT) {
 645              		.loc 1 192 0
 646 0054 049B     		ldr	r3, [sp, #16]
 647 0056 002B     		cmp	r3, #0
 648 0058 03DD     		ble	.L38
 649              		.loc 1 192 0 is_stmt 0 discriminator 1
 650 005a 13AB     		add	r3, sp, #76
 651 005c 1B78     		ldrb	r3, [r3]
 652 005e 012B     		cmp	r3, #1
 653 0060 07D0     		beq	.L39
 654              	.L38:
 193:andonJson.c   ****         #ifdef DEBUG_ANDON_JSON        
ARM GAS  C:\Users\luvsd\AppData\Local\Temp\cc6Ko3zR.s 			page 16


 194:andonJson.c   ****             printf("Object expected type: %d , %d\r\n", t[0].type, r);
 655              		.loc 1 194 0 is_stmt 1
 656 0062 13AB     		add	r3, sp, #76
 657 0064 1978     		ldrb	r1, [r3]
 658 0066 049A     		ldr	r2, [sp, #16]
 659 0068 CB48     		ldr	r0, .L63+16
 660              	.LVL78:
 661 006a FFF7FEFF 		bl	printf
 662              	.LVL79:
 195:andonJson.c   ****         #endif              
 196:andonJson.c   ****         return FALSE;
 663              		.loc 1 196 0
 664 006e 0020     		movs	r0, #0
 665 0070 AFE1     		b	.L37
 666              	.LVL80:
 667              	.L39:
 197:andonJson.c   ****     }
 198:andonJson.c   **** 
 199:andonJson.c   ****     g_Lists.bUpdated = FALSE;    
 668              		.loc 1 199 0
 669 0072 0022     		movs	r2, #0
 670 0074 C94B     		ldr	r3, .L63+20
 671 0076 1A70     		strb	r2, [r3]
 672              	.LVL81:
 200:andonJson.c   ****     char tmpBuff[20], textBuff[20], status[10];    
 201:andonJson.c   ****     int16 index=-1, idx, incr=1;
 673              		.loc 1 201 0
 674 0078 0124     		movs	r4, #1
 675 007a 0123     		movs	r3, #1
 676 007c 5B42     		rsbs	r3, r3, #0
 677 007e 0593     		str	r3, [sp, #20]
 202:andonJson.c   ****     LIST_ITEM *item;
 203:andonJson.c   ****     
 204:andonJson.c   ****     uint8 bLEDAlarm = FALSE;
 205:andonJson.c   ****            
 206:andonJson.c   ****     for(i=0; i < t[0].size; i++)
 678              		.loc 1 206 0
 679 0080 0023     		movs	r3, #0
 680 0082 0393     		str	r3, [sp, #12]
 681 0084 78E1     		b	.L40
 682              	.LVL82:
 683              	.L61:
 207:andonJson.c   ****     {
 208:andonJson.c   ****         if(incr >= r) break;
 684              		.loc 1 208 0
 685 0086 049B     		ldr	r3, [sp, #16]
 686              	.LVL83:
 687 0088 A342     		cmp	r3, r4
 688 008a 00DC     		bgt	.LCB684
 689 008c A0E1     		b	.L62	@long jump
 690              	.LCB684:
 209:andonJson.c   ****         
 210:andonJson.c   ****         incr++;
 691              		.loc 1 210 0
 692 008e A6B2     		uxth	r6, r4
 693 0090 741C     		adds	r4, r6, #1
 694              	.LVL84:
ARM GAS  C:\Users\luvsd\AppData\Local\Temp\cc6Ko3zR.s 			page 17


 695 0092 24B2     		sxth	r4, r4
 696              	.LVL85:
 211:andonJson.c   ****             
 212:andonJson.c   ****         if(t[incr].type == JSMN_ARRAY)
 697              		.loc 1 212 0
 698 0094 2201     		lsls	r2, r4, #4
 699 0096 13AB     		add	r3, sp, #76
 700 0098 D35C     		ldrb	r3, [r2, r3]
 701 009a 022B     		cmp	r3, #2
 702 009c 00D0     		beq	.LCB694
 703 009e 26E1     		b	.L41	@long jump
 704              	.LCB694:
 705              	.LBB3:
 213:andonJson.c   ****         {
 214:andonJson.c   ****             int arraySize = t[incr].size;
 706              		.loc 1 214 0
 707 00a0 1300     		movs	r3, r2
 708 00a2 13AA     		add	r2, sp, #76
 709 00a4 9446     		mov	ip, r2
 710 00a6 6344     		add	r3, r3, ip
 711 00a8 DB68     		ldr	r3, [r3, #12]
 712 00aa 9846     		mov	r8, r3
 713              	.LVL86:
 714              	.LBB4:
 215:andonJson.c   **** 
 216:andonJson.c   ****             for(int j=0; j < arraySize; j++)
 715              		.loc 1 216 0
 716 00ac 0023     		movs	r3, #0
 717              	.LVL87:
 718 00ae 9A46     		mov	r10, r3
 719 00b0 19E1     		b	.L42
 720              	.LVL88:
 721              	.L57:
 217:andonJson.c   ****             {
 218:andonJson.c   ****                 incr++;        
 722              		.loc 1 218 0
 723 00b2 0134     		adds	r4, r4, #1
 724              	.LVL89:
 725 00b4 24B2     		sxth	r4, r4
 726              	.LVL90:
 219:andonJson.c   ****                      
 220:andonJson.c   ****                 if(t[incr].type == JSMN_OBJECT)
 727              		.loc 1 220 0
 728 00b6 2201     		lsls	r2, r4, #4
 729 00b8 13AB     		add	r3, sp, #76
 730 00ba D35C     		ldrb	r3, [r2, r3]
 731 00bc 012B     		cmp	r3, #1
 732 00be 00D0     		beq	.LCB726
 733 00c0 0EE1     		b	.L43	@long jump
 734              	.LCB726:
 735              	.LBB5:
 221:andonJson.c   ****                 {
 222:andonJson.c   ****                     int objSize = t[incr].size;
 736              		.loc 1 222 0
 737 00c2 1300     		movs	r3, r2
 738 00c4 13AA     		add	r2, sp, #76
 739 00c6 9446     		mov	ip, r2
ARM GAS  C:\Users\luvsd\AppData\Local\Temp\cc6Ko3zR.s 			page 18


 740 00c8 6344     		add	r3, r3, ip
 741 00ca DB68     		ldr	r3, [r3, #12]
 742 00cc 9946     		mov	r9, r3
 743              	.LVL91:
 223:andonJson.c   ****                 
 224:andonJson.c   ****                     item = &g_Lists.item[++index];  
 744              		.loc 1 224 0
 745 00ce 059B     		ldr	r3, [sp, #20]
 746              	.LVL92:
 747 00d0 0133     		adds	r3, r3, #1
 748 00d2 1BB2     		sxth	r3, r3
 749 00d4 0593     		str	r3, [sp, #20]
 750              	.LVL93:
 751 00d6 1F00     		movs	r7, r3
 752              	.LVL94:
 753              	.LBB6:
 225:andonJson.c   ****                     for(int k=0; k < objSize; k++)
 754              		.loc 1 225 0
 755 00d8 0026     		movs	r6, #0
 756 00da FEE0     		b	.L44
 757              	.LVL95:
 758              	.L56:
 226:andonJson.c   ****                     {    
 227:andonJson.c   ****                         incr++;
 759              		.loc 1 227 0
 760 00dc A3B2     		uxth	r3, r4
 761 00de 9B46     		mov	fp, r3
 762 00e0 5C1C     		adds	r4, r3, #1
 763              	.LVL96:
 764 00e2 24B2     		sxth	r4, r4
 765              	.LVL97:
 228:andonJson.c   ****                         if (jsoneq(jsonString, &t[incr], "idx") == 0)
 766              		.loc 1 228 0
 767 00e4 2501     		lsls	r5, r4, #4
 768 00e6 13AB     		add	r3, sp, #76
 769 00e8 9C46     		mov	ip, r3
 770 00ea 6544     		add	r5, r5, ip
 771 00ec AC4A     		ldr	r2, .L63+24
 772 00ee 2900     		movs	r1, r5
 773 00f0 0298     		ldr	r0, [sp, #8]
 774 00f2 FFF7FEFF 		bl	jsoneq
 775              	.LVL98:
 776 00f6 0028     		cmp	r0, #0
 777 00f8 27D1     		bne	.L45
 229:andonJson.c   ****                         {
 230:andonJson.c   ****                             incr++;   
 778              		.loc 1 230 0
 779 00fa 5C46     		mov	r4, fp
 780              	.LVL99:
 781 00fc 0234     		adds	r4, r4, #2
 782              	.LVL100:
 783 00fe 24B2     		sxth	r4, r4
 784              	.LVL101:
 231:andonJson.c   ****                             sprintf(tmpBuff,"%.*s",t[incr].end - t[incr].start,jsonString + t[incr]
 785              		.loc 1 231 0
 786 0100 2301     		lsls	r3, r4, #4
 787 0102 13AA     		add	r2, sp, #76
ARM GAS  C:\Users\luvsd\AppData\Local\Temp\cc6Ko3zR.s 			page 19


 788 0104 9446     		mov	ip, r2
 789 0106 6344     		add	r3, r3, ip
 790 0108 9A68     		ldr	r2, [r3, #8]
 791 010a 5968     		ldr	r1, [r3, #4]
 792 010c 029B     		ldr	r3, [sp, #8]
 793 010e 5B18     		adds	r3, r3, r1
 794 0110 521A     		subs	r2, r2, r1
 795 0112 A449     		ldr	r1, .L63+28
 796 0114 0EA8     		add	r0, sp, #56
 797 0116 FFF7FEFF 		bl	sprintf
 798              	.LVL102:
 232:andonJson.c   ****                             idx = atoi(tmpBuff);
 799              		.loc 1 232 0
 800 011a 0EA8     		add	r0, sp, #56
 801 011c FFF7FEFF 		bl	atoi
 802              	.LVL103:
 803 0120 00B2     		sxth	r0, r0
 804              	.LVL104:
 233:andonJson.c   ****                              if(item->idx != idx) item->bUpdated = TRUE; 
 805              		.loc 1 233 0
 806 0122 2623     		movs	r3, #38
 807 0124 7B43     		muls	r3, r7
 808 0126 9D4A     		ldr	r2, .L63+20
 809 0128 D318     		adds	r3, r2, r3
 810 012a 2622     		movs	r2, #38
 811 012c 9B5E     		ldrsh	r3, [r3, r2]
 812 012e 9842     		cmp	r0, r3
 813 0130 05D0     		beq	.L46
 814              		.loc 1 233 0 is_stmt 0 discriminator 1
 815 0132 2623     		movs	r3, #38
 816 0134 7B43     		muls	r3, r7
 817 0136 994A     		ldr	r2, .L63+20
 818 0138 D318     		adds	r3, r2, r3
 819 013a 0122     		movs	r2, #1
 820 013c 1A71     		strb	r2, [r3, #4]
 821              	.L46:
 234:andonJson.c   ****                             item->idx = idx;
 822              		.loc 1 234 0 is_stmt 1
 823 013e 2623     		movs	r3, #38
 824 0140 7B43     		muls	r3, r7
 825 0142 964A     		ldr	r2, .L63+20
 826 0144 D318     		adds	r3, r2, r3
 827 0146 D884     		strh	r0, [r3, #38]
 828 0148 C6E0     		b	.L47
 829              	.LVL105:
 830              	.L45:
 235:andonJson.c   ****                         }
 236:andonJson.c   ****                         else if (jsoneq(jsonString, &t[incr], "text") == 0)
 831              		.loc 1 236 0
 832 014a 974A     		ldr	r2, .L63+32
 833 014c 2900     		movs	r1, r5
 834 014e 0298     		ldr	r0, [sp, #8]
 835 0150 FFF7FEFF 		bl	jsoneq
 836              	.LVL106:
 837 0154 0028     		cmp	r0, #0
 838 0156 28D1     		bne	.L48
 237:andonJson.c   ****                         {
ARM GAS  C:\Users\luvsd\AppData\Local\Temp\cc6Ko3zR.s 			page 20


 238:andonJson.c   ****                             incr++;                               
 839              		.loc 1 238 0
 840 0158 5C46     		mov	r4, fp
 841              	.LVL107:
 842 015a 0234     		adds	r4, r4, #2
 843 015c 24B2     		sxth	r4, r4
 844              	.LVL108:
 239:andonJson.c   ****                             sprintf(textBuff,"%.*s",t[incr].end - t[incr].start,jsonString + t[incr
 845              		.loc 1 239 0
 846 015e 2301     		lsls	r3, r4, #4
 847 0160 13AA     		add	r2, sp, #76
 848 0162 9446     		mov	ip, r2
 849 0164 6344     		add	r3, r3, ip
 850 0166 9A68     		ldr	r2, [r3, #8]
 851 0168 5968     		ldr	r1, [r3, #4]
 852 016a 029B     		ldr	r3, [sp, #8]
 853 016c 5B18     		adds	r3, r3, r1
 854 016e 521A     		subs	r2, r2, r1
 855 0170 8C49     		ldr	r1, .L63+28
 856 0172 09A8     		add	r0, sp, #36
 857 0174 FFF7FEFF 		bl	sprintf
 858              	.LVL109:
 240:andonJson.c   ****                             
 241:andonJson.c   ****                             if(strcmp(item->text, textBuff) != 0) item->bUpdated = TRUE;
 859              		.loc 1 241 0
 860 0178 2625     		movs	r5, #38
 861 017a 7D43     		muls	r5, r7
 862 017c 874B     		ldr	r3, .L63+20
 863 017e ED18     		adds	r5, r5, r3
 864 0180 0635     		adds	r5, r5, #6
 865 0182 09A9     		add	r1, sp, #36
 866 0184 2800     		movs	r0, r5
 867 0186 FFF7FEFF 		bl	strcmp
 868              	.LVL110:
 869 018a 0028     		cmp	r0, #0
 870 018c 05D0     		beq	.L49
 871              		.loc 1 241 0 is_stmt 0 discriminator 1
 872 018e 2623     		movs	r3, #38
 873 0190 7B43     		muls	r3, r7
 874 0192 824A     		ldr	r2, .L63+20
 875 0194 D318     		adds	r3, r2, r3
 876 0196 0122     		movs	r2, #1
 877 0198 1A71     		strb	r2, [r3, #4]
 878              	.L49:
 242:andonJson.c   ****                             strcpy(item->text, textBuff);
 879              		.loc 1 242 0 is_stmt 1
 880 019a 09A9     		add	r1, sp, #36
 881 019c 2800     		movs	r0, r5
 882 019e FFF7FEFF 		bl	strcpy
 883              	.LVL111:
 243:andonJson.c   ****                             
 244:andonJson.c   ****                             g_uReplyResult = RR_SUCCESS;                
 884              		.loc 1 244 0
 885 01a2 0122     		movs	r2, #1
 886 01a4 814B     		ldr	r3, .L63+36
 887 01a6 1A70     		strb	r2, [r3]
 888 01a8 96E0     		b	.L47
ARM GAS  C:\Users\luvsd\AppData\Local\Temp\cc6Ko3zR.s 			page 21


 889              	.L48:
 245:andonJson.c   ****                         }
 246:andonJson.c   ****                         else if (jsoneq(jsonString, &t[incr], "not_completed_qty") == 0)
 890              		.loc 1 246 0
 891 01aa 814A     		ldr	r2, .L63+40
 892 01ac 2900     		movs	r1, r5
 893 01ae 0298     		ldr	r0, [sp, #8]
 894 01b0 FFF7FEFF 		bl	jsoneq
 895              	.LVL112:
 896 01b4 0028     		cmp	r0, #0
 897 01b6 32D1     		bne	.L50
 247:andonJson.c   ****                         {
 248:andonJson.c   ****                             incr++;                               
 898              		.loc 1 248 0
 899 01b8 5C46     		mov	r4, fp
 900              	.LVL113:
 901 01ba 0234     		adds	r4, r4, #2
 902 01bc 24B2     		sxth	r4, r4
 903              	.LVL114:
 249:andonJson.c   ****                             sprintf(textBuff,"%.*s",t[incr].end - t[incr].start,jsonString + t[incr
 904              		.loc 1 249 0
 905 01be 2500     		movs	r5, r4
 906 01c0 2301     		lsls	r3, r4, #4
 907 01c2 13AA     		add	r2, sp, #76
 908 01c4 9446     		mov	ip, r2
 909 01c6 6344     		add	r3, r3, ip
 910 01c8 9A68     		ldr	r2, [r3, #8]
 911 01ca 5968     		ldr	r1, [r3, #4]
 912 01cc 029B     		ldr	r3, [sp, #8]
 913 01ce 5B18     		adds	r3, r3, r1
 914 01d0 521A     		subs	r2, r2, r1
 915 01d2 7449     		ldr	r1, .L63+28
 916 01d4 09A8     		add	r0, sp, #36
 917 01d6 FFF7FEFF 		bl	sprintf
 918              	.LVL115:
 250:andonJson.c   ****                             
 251:andonJson.c   ****                             if(strcmp(item->text, textBuff) != 0) item->bUpdated = TRUE;
 919              		.loc 1 251 0
 920 01da 2620     		movs	r0, #38
 921 01dc 7843     		muls	r0, r7
 922 01de 6F4B     		ldr	r3, .L63+20
 923 01e0 C018     		adds	r0, r0, r3
 924 01e2 0630     		adds	r0, r0, #6
 925 01e4 09A9     		add	r1, sp, #36
 926 01e6 FFF7FEFF 		bl	strcmp
 927              	.LVL116:
 928 01ea 0028     		cmp	r0, #0
 929 01ec 05D0     		beq	.L51
 930              		.loc 1 251 0 is_stmt 0 discriminator 1
 931 01ee 2623     		movs	r3, #38
 932 01f0 7B43     		muls	r3, r7
 933 01f2 6A4A     		ldr	r2, .L63+20
 934 01f4 D318     		adds	r3, r2, r3
 935 01f6 0122     		movs	r2, #1
 936 01f8 1A71     		strb	r2, [r3, #4]
 937              	.L51:
 252:andonJson.c   ****                             
ARM GAS  C:\Users\luvsd\AppData\Local\Temp\cc6Ko3zR.s 			page 22


 253:andonJson.c   ****                             item->not_completed_qty = atoi(GetJSON_Token_String(&t[incr], jsonStrin
 938              		.loc 1 253 0 is_stmt 1
 939 01fa 2801     		lsls	r0, r5, #4
 940 01fc 13AB     		add	r3, sp, #76
 941 01fe 9C46     		mov	ip, r3
 942 0200 6044     		add	r0, r0, ip
 943 0202 0299     		ldr	r1, [sp, #8]
 944 0204 FFF7FEFF 		bl	GetJSON_Token_String
 945              	.LVL117:
 946 0208 FFF7FEFF 		bl	atoi
 947              	.LVL118:
 948 020c 2623     		movs	r3, #38
 949 020e 7B43     		muls	r3, r7
 950 0210 624A     		ldr	r2, .L63+20
 951 0212 D318     		adds	r3, r2, r3
 952 0214 1885     		strh	r0, [r3, #40]
 254:andonJson.c   ****                  
 255:andonJson.c   ****                             g_uReplyResult = RR_SUCCESS;                
 953              		.loc 1 255 0
 954 0216 0122     		movs	r2, #1
 955 0218 644B     		ldr	r3, .L63+36
 956 021a 1A70     		strb	r2, [r3]
 957 021c 5CE0     		b	.L47
 958              	.L50:
 256:andonJson.c   ****                         }                        
 257:andonJson.c   **** //                        else if(jsoneq(g_JSONString, &t[incr], "process_no") == 0)
 258:andonJson.c   **** //                        {
 259:andonJson.c   **** //                            incr++;                                 
 260:andonJson.c   **** //                            item->process_no = atoi(GetJSON_Token_String(&t[incr], g_JSONString))
 261:andonJson.c   **** //                        }             
 262:andonJson.c   ****                         else if     (jsoneq(jsonString, &t[incr], "status") == 0)
 959              		.loc 1 262 0
 960 021e 654A     		ldr	r2, .L63+44
 961 0220 2900     		movs	r1, r5
 962 0222 0298     		ldr	r0, [sp, #8]
 963 0224 FFF7FEFF 		bl	jsoneq
 964              	.LVL119:
 965 0228 0028     		cmp	r0, #0
 966 022a 55D1     		bne	.L47
 263:andonJson.c   ****                         {
 264:andonJson.c   ****                             incr++;                               
 967              		.loc 1 264 0
 968 022c 5C46     		mov	r4, fp
 969              	.LVL120:
 970 022e 0234     		adds	r4, r4, #2
 971 0230 24B2     		sxth	r4, r4
 972              	.LVL121:
 265:andonJson.c   ****                             sprintf(status,"%.*s",t[incr].end - t[incr].start,jsonString + t[incr].
 973              		.loc 1 265 0
 974 0232 2301     		lsls	r3, r4, #4
 975 0234 13AA     		add	r2, sp, #76
 976 0236 9446     		mov	ip, r2
 977 0238 6344     		add	r3, r3, ip
 978 023a 9A68     		ldr	r2, [r3, #8]
 979 023c 5968     		ldr	r1, [r3, #4]
 980 023e 029B     		ldr	r3, [sp, #8]
 981 0240 5B18     		adds	r3, r3, r1
ARM GAS  C:\Users\luvsd\AppData\Local\Temp\cc6Ko3zR.s 			page 23


 982 0242 521A     		subs	r2, r2, r1
 983 0244 5749     		ldr	r1, .L63+28
 984 0246 06A8     		add	r0, sp, #24
 985 0248 FFF7FEFF 		bl	sprintf
 986              	.LVL122:
 266:andonJson.c   ****                           //  item->uStat = LIS_INIT;
 267:andonJson.c   ****                             
 268:andonJson.c   ****                             if(strcmp("C",status)==0 || strlen(status) == 0)
 987              		.loc 1 268 0
 988 024c 06A9     		add	r1, sp, #24
 989 024e 5A48     		ldr	r0, .L63+48
 990 0250 FFF7FEFF 		bl	strcmp
 991              	.LVL123:
 992 0254 0028     		cmp	r0, #0
 993 0256 03D0     		beq	.L52
 994              		.loc 1 268 0 is_stmt 0 discriminator 1
 995 0258 06AB     		add	r3, sp, #24
 996 025a 1B78     		ldrb	r3, [r3]
 997 025c 002B     		cmp	r3, #0
 998 025e 0ED1     		bne	.L53
 999              	.L52:
 269:andonJson.c   ****                             {
 270:andonJson.c   ****                                 if(item->status != LIS_C)
 1000              		.loc 1 270 0 is_stmt 1
 1001 0260 2623     		movs	r3, #38
 1002 0262 7B43     		muls	r3, r7
 1003 0264 4D4A     		ldr	r2, .L63+20
 1004 0266 D318     		adds	r3, r2, r3
 1005 0268 5B79     		ldrb	r3, [r3, #5]
 1006 026a 432B     		cmp	r3, #67
 1007 026c 34D0     		beq	.L47
 271:andonJson.c   ****                                 {
 272:andonJson.c   ****                                     item->status = LIS_C;
 1008              		.loc 1 272 0
 1009 026e 2623     		movs	r3, #38
 1010 0270 7B43     		muls	r3, r7
 1011 0272 D318     		adds	r3, r2, r3
 1012 0274 4322     		movs	r2, #67
 1013 0276 5A71     		strb	r2, [r3, #5]
 273:andonJson.c   ****                                     item->bUpdated = TRUE;
 1014              		.loc 1 273 0
 1015 0278 423A     		subs	r2, r2, #66
 1016 027a 1A71     		strb	r2, [r3, #4]
 1017 027c 2CE0     		b	.L47
 1018              	.L53:
 274:andonJson.c   ****                                 }
 275:andonJson.c   ****                             }
 276:andonJson.c   ****                             else if(strcmp("P",status)==0)
 1019              		.loc 1 276 0
 1020 027e 06A9     		add	r1, sp, #24
 1021 0280 4E48     		ldr	r0, .L63+52
 1022 0282 FFF7FEFF 		bl	strcmp
 1023              	.LVL124:
 1024 0286 0028     		cmp	r0, #0
 1025 0288 0ED1     		bne	.L54
 277:andonJson.c   ****                             {
 278:andonJson.c   ****                                 if(item->status != LIS_P)
ARM GAS  C:\Users\luvsd\AppData\Local\Temp\cc6Ko3zR.s 			page 24


 1026              		.loc 1 278 0
 1027 028a 2623     		movs	r3, #38
 1028 028c 7B43     		muls	r3, r7
 1029 028e 434A     		ldr	r2, .L63+20
 1030 0290 D318     		adds	r3, r2, r3
 1031 0292 5B79     		ldrb	r3, [r3, #5]
 1032 0294 502B     		cmp	r3, #80
 1033 0296 1FD0     		beq	.L47
 279:andonJson.c   ****                                 {
 280:andonJson.c   ****                                     item->status = LIS_P;
 1034              		.loc 1 280 0
 1035 0298 2623     		movs	r3, #38
 1036 029a 7B43     		muls	r3, r7
 1037 029c D318     		adds	r3, r2, r3
 1038 029e 5022     		movs	r2, #80
 1039 02a0 5A71     		strb	r2, [r3, #5]
 281:andonJson.c   ****                                     item->bUpdated = TRUE;
 1040              		.loc 1 281 0
 1041 02a2 4F3A     		subs	r2, r2, #79
 1042 02a4 1A71     		strb	r2, [r3, #4]
 1043 02a6 17E0     		b	.L47
 1044              	.L54:
 282:andonJson.c   ****                                 }
 283:andonJson.c   ****                                 bLEDAlarm = TRUE;
 284:andonJson.c   ****                             }
 285:andonJson.c   ****                             else if(strcmp("W",status)==0)
 1045              		.loc 1 285 0
 1046 02a8 06A9     		add	r1, sp, #24
 1047 02aa 4548     		ldr	r0, .L63+56
 1048 02ac FFF7FEFF 		bl	strcmp
 1049              	.LVL125:
 1050 02b0 0028     		cmp	r0, #0
 1051 02b2 0ED1     		bne	.L55
 286:andonJson.c   ****                             {
 287:andonJson.c   ****                                 if(item->status != LIS_W)
 1052              		.loc 1 287 0
 1053 02b4 2623     		movs	r3, #38
 1054 02b6 7B43     		muls	r3, r7
 1055 02b8 384A     		ldr	r2, .L63+20
 1056 02ba D318     		adds	r3, r2, r3
 1057 02bc 5B79     		ldrb	r3, [r3, #5]
 1058 02be 572B     		cmp	r3, #87
 1059 02c0 0AD0     		beq	.L47
 288:andonJson.c   ****                                 {
 289:andonJson.c   ****                                     item->status = LIS_W;
 1060              		.loc 1 289 0
 1061 02c2 2623     		movs	r3, #38
 1062 02c4 7B43     		muls	r3, r7
 1063 02c6 D318     		adds	r3, r2, r3
 1064 02c8 5722     		movs	r2, #87
 1065 02ca 5A71     		strb	r2, [r3, #5]
 290:andonJson.c   ****                                     item->bUpdated = TRUE;
 1066              		.loc 1 290 0
 1067 02cc 563A     		subs	r2, r2, #86
 1068 02ce 1A71     		strb	r2, [r3, #4]
 1069 02d0 02E0     		b	.L47
 1070              	.L55:
ARM GAS  C:\Users\luvsd\AppData\Local\Temp\cc6Ko3zR.s 			page 25


 291:andonJson.c   ****                                 }
 292:andonJson.c   ****                                 bLEDAlarm = TRUE;                    
 293:andonJson.c   ****                             }
 294:andonJson.c   ****                             else
 295:andonJson.c   ****                             {
 296:andonJson.c   ****                                 g_uReplyResult = RR_FAILURE;
 1071              		.loc 1 296 0
 1072 02d2 0222     		movs	r2, #2
 1073 02d4 354B     		ldr	r3, .L63+36
 1074 02d6 1A70     		strb	r2, [r3]
 1075              	.L47:
 225:andonJson.c   ****                     {    
 1076              		.loc 1 225 0 discriminator 2
 1077 02d8 0136     		adds	r6, r6, #1
 1078              	.LVL126:
 1079              	.L44:
 225:andonJson.c   ****                     {    
 1080              		.loc 1 225 0 is_stmt 0 discriminator 1
 1081 02da 4E45     		cmp	r6, r9
 1082 02dc 00DA     		bge	.LCB1091
 1083 02de FDE6     		b	.L56	@long jump
 1084              	.LCB1091:
 1085              	.LVL127:
 1086              	.L43:
 1087              	.LBE6:
 1088              	.LBE5:
 216:andonJson.c   ****             {
 1089              		.loc 1 216 0 is_stmt 1 discriminator 2
 1090 02e0 0123     		movs	r3, #1
 1091 02e2 9C46     		mov	ip, r3
 1092 02e4 E244     		add	r10, r10, ip
 1093              	.LVL128:
 1094              	.L42:
 216:andonJson.c   ****             {
 1095              		.loc 1 216 0 is_stmt 0 discriminator 1
 1096 02e6 C245     		cmp	r10, r8
 1097 02e8 00DA     		bge	.LCB1116
 1098 02ea E2E6     		b	.L57	@long jump
 1099              	.LCB1116:
 1100 02ec 41E0     		b	.L58
 1101              	.LVL129:
 1102              	.L41:
 1103              	.LBE4:
 1104              	.LBE3:
 297:andonJson.c   ****                               //  DEBUG_printf("JSON_MenuParsing()>> %s\r\n",g_JSONString);
 298:andonJson.c   ****                             }
 299:andonJson.c   ****                         }
 300:andonJson.c   ****                     }
 301:andonJson.c   ****                 }
 302:andonJson.c   ****             }
 303:andonJson.c   ****         }
 304:andonJson.c   ****         else if(t[incr].type == JSMN_STRING)
 1105              		.loc 1 304 0 is_stmt 1
 1106 02ee 032B     		cmp	r3, #3
 1107 02f0 3FD1     		bne	.L58
 305:andonJson.c   ****         {      
 306:andonJson.c   ****             if (jsoneq(jsonString, &t[incr], "andon_list_request_interval") == 0)
ARM GAS  C:\Users\luvsd\AppData\Local\Temp\cc6Ko3zR.s 			page 26


 1108              		.loc 1 306 0
 1109 02f2 2501     		lsls	r5, r4, #4
 1110 02f4 13AB     		add	r3, sp, #76
 1111 02f6 9C46     		mov	ip, r3
 1112 02f8 6544     		add	r5, r5, ip
 1113 02fa 324A     		ldr	r2, .L63+60
 1114 02fc 2900     		movs	r1, r5
 1115 02fe 029F     		ldr	r7, [sp, #8]
 1116 0300 3800     		movs	r0, r7
 1117 0302 FFF7FEFF 		bl	jsoneq
 1118              	.LVL130:
 1119 0306 0028     		cmp	r0, #0
 1120 0308 14D1     		bne	.L59
 307:andonJson.c   ****             {
 308:andonJson.c   ****                 incr++;                               
 1121              		.loc 1 308 0
 1122 030a 0236     		adds	r6, r6, #2
 1123 030c 34B2     		sxth	r4, r6
 1124              	.LVL131:
 309:andonJson.c   ****                 sprintf(tmpBuff,"%.*s",t[incr].end - t[incr].start,jsonString + t[incr].start);
 1125              		.loc 1 309 0
 1126 030e 2301     		lsls	r3, r4, #4
 1127 0310 13AA     		add	r2, sp, #76
 1128 0312 9446     		mov	ip, r2
 1129 0314 6344     		add	r3, r3, ip
 1130 0316 9A68     		ldr	r2, [r3, #8]
 1131 0318 5968     		ldr	r1, [r3, #4]
 1132 031a 7B18     		adds	r3, r7, r1
 1133 031c 521A     		subs	r2, r2, r1
 1134 031e 2149     		ldr	r1, .L63+28
 1135 0320 0EA8     		add	r0, sp, #56
 1136 0322 FFF7FEFF 		bl	sprintf
 1137              	.LVL132:
 310:andonJson.c   ****                 
 311:andonJson.c   ****                 g_Info.AndonListRequestTime = atoi(tmpBuff);  
 1138              		.loc 1 311 0
 1139 0326 0EA8     		add	r0, sp, #56
 1140 0328 FFF7FEFF 		bl	atoi
 1141              	.LVL133:
 1142 032c 5423     		movs	r3, #84
 1143 032e 264A     		ldr	r2, .L63+64
 1144 0330 D052     		strh	r0, [r2, r3]
 1145 0332 1EE0     		b	.L58
 1146              	.L59:
 312:andonJson.c   ****                 
 313:andonJson.c   ****                // g_Info.AndonListRequestTime = 10;
 314:andonJson.c   ****             }
 315:andonJson.c   ****             else if (jsoneq(jsonString, &t[incr], "notice_index") == 0)
 1147              		.loc 1 315 0
 1148 0334 254A     		ldr	r2, .L63+68
 1149 0336 2900     		movs	r1, r5
 1150 0338 0298     		ldr	r0, [sp, #8]
 1151 033a FFF7FEFF 		bl	jsoneq
 1152              	.LVL134:
 1153 033e 0028     		cmp	r0, #0
 1154 0340 15D1     		bne	.L60
 316:andonJson.c   ****             {
ARM GAS  C:\Users\luvsd\AppData\Local\Temp\cc6Ko3zR.s 			page 27


 317:andonJson.c   ****                 incr++;                               
 1155              		.loc 1 317 0
 1156 0342 B41C     		adds	r4, r6, #2
 1157              	.LVL135:
 1158 0344 24B2     		sxth	r4, r4
 1159              	.LVL136:
 318:andonJson.c   ****                 sprintf(tmpBuff,"%.*s",t[incr].end - t[incr].start,jsonString + t[incr].start);
 1160              		.loc 1 318 0
 1161 0346 2301     		lsls	r3, r4, #4
 1162 0348 13AA     		add	r2, sp, #76
 1163 034a 9446     		mov	ip, r2
 1164 034c 6344     		add	r3, r3, ip
 1165 034e 9A68     		ldr	r2, [r3, #8]
 1166 0350 5968     		ldr	r1, [r3, #4]
 1167 0352 029B     		ldr	r3, [sp, #8]
 1168 0354 5B18     		adds	r3, r3, r1
 1169 0356 521A     		subs	r2, r2, r1
 1170 0358 1249     		ldr	r1, .L63+28
 1171 035a 0EA8     		add	r0, sp, #56
 1172 035c FFF7FEFF 		bl	sprintf
 1173              	.LVL137:
 319:andonJson.c   ****                 
 320:andonJson.c   ****                 g_Info.notice_index = atoi(tmpBuff);               
 1174              		.loc 1 320 0
 1175 0360 0EA8     		add	r0, sp, #56
 1176 0362 FFF7FEFF 		bl	atoi
 1177              	.LVL138:
 1178 0366 5623     		movs	r3, #86
 1179 0368 174A     		ldr	r2, .L63+64
 1180 036a D052     		strh	r0, [r2, r3]
 1181 036c 01E0     		b	.L58
 1182              	.L60:
 321:andonJson.c   ****             } else {
 322:andonJson.c   ****                 incr++;                 
 1183              		.loc 1 322 0
 1184 036e B41C     		adds	r4, r6, #2
 1185              	.LVL139:
 1186 0370 24B2     		sxth	r4, r4
 1187              	.LVL140:
 1188              	.L58:
 206:andonJson.c   ****     {
 1189              		.loc 1 206 0 discriminator 2
 1190 0372 039B     		ldr	r3, [sp, #12]
 1191 0374 0133     		adds	r3, r3, #1
 1192 0376 0393     		str	r3, [sp, #12]
 1193              	.LVL141:
 1194              	.L40:
 206:andonJson.c   ****     {
 1195              		.loc 1 206 0 is_stmt 0 discriminator 1
 1196 0378 039B     		ldr	r3, [sp, #12]
 1197 037a 169A     		ldr	r2, [sp, #88]
 1198 037c 9342     		cmp	r3, r2
 1199 037e 00DA     		bge	.LCB1237
 1200 0380 81E6     		b	.L61	@long jump
 1201              	.LCB1237:
 323:andonJson.c   ****             }
 324:andonJson.c   ****         }     
ARM GAS  C:\Users\luvsd\AppData\Local\Temp\cc6Ko3zR.s 			page 28


 325:andonJson.c   ****     
 326:andonJson.c   ****     }
 327:andonJson.c   ****     
 328:andonJson.c   ****     
 329:andonJson.c   **** //    if(index != -1) g_bRecivedLists = TRUE;
 330:andonJson.c   **** //        
 331:andonJson.c   **** //    if( g_Lists.noOfList != index+1) g_Lists.bUpdated = TRUE; 
 332:andonJson.c   **** //    g_Lists.noOfList = index+1;
 333:andonJson.c   **** //
 334:andonJson.c   **** //    if(bLEDAlarm)
 335:andonJson.c   **** //    {
 336:andonJson.c   **** //        g_uLED2_Color      = LED_RED;
 337:andonJson.c   **** //        g_bLED2_Flickering =    TRUE;        
 338:andonJson.c   **** //    }
 339:andonJson.c   **** //    else 
 340:andonJson.c   **** //    {
 341:andonJson.c   **** //        g_uLED2_Color      = LED_BLUE;
 342:andonJson.c   **** //        g_bLED2_Flickering =    FALSE;             
 343:andonJson.c   **** //    }
 344:andonJson.c   **** //  //  if(g_Lists.updated) initLists();
 345:andonJson.c   ****     
 346:andonJson.c   ****     return TRUE;    
 1202              		.loc 1 346 0 is_stmt 1
 1203 0382 0120     		movs	r0, #1
 1204 0384 25E0     		b	.L37
 1205              	.L64:
 1206 0386 C046     		.align	2
 1207              	.L63:
 1208 0388 A4F7FFFF 		.word	-2140
 1209 038c 3C080000 		.word	2108
 1210 0390 98000000 		.word	.LC32
 1211 0394 00000000 		.word	.LC0
 1212 0398 A0000000 		.word	.LC35
 1213 039c 00000000 		.word	g_Lists
 1214 03a0 C0000000 		.word	.LC38
 1215 03a4 50000000 		.word	.LC11
 1216 03a8 C4000000 		.word	.LC41
 1217 03ac 00000000 		.word	g_uReplyResult
 1218 03b0 CC000000 		.word	.LC44
 1219 03b4 E0000000 		.word	.LC46
 1220 03b8 E8000000 		.word	.LC48
 1221 03bc EC000000 		.word	.LC50
 1222 03c0 F0000000 		.word	.LC52
 1223 03c4 F4000000 		.word	.LC54
 1224 03c8 00000000 		.word	g_Info
 1225 03cc 10010000 		.word	.LC57
 1226              	.L62:
 1227 03d0 0120     		movs	r0, #1
 1228              	.LVL142:
 1229              	.L37:
 347:andonJson.c   **** }
 1230              		.loc 1 347 0
 1231 03d2 044B     		ldr	r3, .L65
 1232 03d4 9D44     		add	sp, sp, r3
 1233              		@ sp needed
 1234 03d6 3CBC     		pop	{r2, r3, r4, r5}
 1235 03d8 9046     		mov	r8, r2
ARM GAS  C:\Users\luvsd\AppData\Local\Temp\cc6Ko3zR.s 			page 29


 1236 03da 9946     		mov	r9, r3
 1237 03dc A246     		mov	r10, r4
 1238 03de AB46     		mov	fp, r5
 1239 03e0 F0BD     		pop	{r4, r5, r6, r7, pc}
 1240              	.L66:
 1241 03e2 C046     		.align	2
 1242              	.L65:
 1243 03e4 5C080000 		.word	2140
 1244              		.cfi_endproc
 1245              	.LFE66:
 1246              		.size	andonMenuParsing, .-andonMenuParsing
 1247              		.section	.text.andonJsonParsor,"ax",%progbits
 1248              		.align	2
 1249              		.global	andonJsonParsor
 1250              		.code	16
 1251              		.thumb_func
 1252              		.type	andonJsonParsor, %function
 1253              	andonJsonParsor:
 1254              	.LFB62:
  24:andonJson.c   ****     switch(type)
 1255              		.loc 1 24 0
 1256              		.cfi_startproc
 1257              		@ args = 0, pretend = 0, frame = 0
 1258              		@ frame_needed = 0, uses_anonymous_args = 0
 1259              	.LVL143:
 1260 0000 10B5     		push	{r4, lr}
 1261              		.cfi_def_cfa_offset 8
 1262              		.cfi_offset 4, -8
 1263              		.cfi_offset 14, -4
 1264 0002 0C00     		movs	r4, r1
  25:andonJson.c   ****     {
 1265              		.loc 1 25 0
 1266 0004 0628     		cmp	r0, #6
 1267 0006 1BD8     		bhi	.L67
 1268 0008 8000     		lsls	r0, r0, #2
 1269              	.LVL144:
 1270 000a 0E4B     		ldr	r3, .L75
 1271 000c 1B58     		ldr	r3, [r3, r0]
 1272 000e 9F46     		mov	pc, r3
 1273              		.section	.rodata
 1274              		.align	2
 1275              	.L70:
 1276 0000 40000000 		.word	.L67
 1277 0004 10000000 		.word	.L69
 1278 0008 1A000000 		.word	.L71
 1279 000c 24000000 		.word	.L72
 1280 0010 24000000 		.word	.L72
 1281 0014 2E000000 		.word	.L73
 1282 0018 38000000 		.word	.L74
 1283              		.section	.text.andonJsonParsor
 1284              	.L69:
  27:andonJson.c   ****         case ANDON_GET_DEVICE_NAME:    andonGetDeviceName     (jsonString, sizeOfJson); break;
 1285              		.loc 1 27 0
 1286 0010 1100     		movs	r1, r2
 1287              	.LVL145:
 1288 0012 2000     		movs	r0, r4
 1289 0014 FFF7FEFF 		bl	andonCurrentTimeParsing
ARM GAS  C:\Users\luvsd\AppData\Local\Temp\cc6Ko3zR.s 			page 30


 1290              	.LVL146:
 1291 0018 12E0     		b	.L67
 1292              	.LVL147:
 1293              	.L71:
  28:andonJson.c   ****         case ANDON_SEND_SEWING_COUNT:
 1294              		.loc 1 28 0
 1295 001a 1100     		movs	r1, r2
 1296              	.LVL148:
 1297 001c 2000     		movs	r0, r4
 1298 001e FFF7FEFF 		bl	andonGetDeviceName
 1299              	.LVL149:
 1300 0022 0DE0     		b	.L67
 1301              	.LVL150:
 1302              	.L72:
  30:andonJson.c   ****         case ANDON_REQUEST_LIST:       andonMenuParsing       (jsonString, sizeOfJson); break;
 1303              		.loc 1 30 0
 1304 0024 1100     		movs	r1, r2
 1305              	.LVL151:
 1306 0026 2000     		movs	r0, r4
 1307 0028 FFF7FEFF 		bl	andonSendCount
 1308              	.LVL152:
 1309 002c 08E0     		b	.L67
 1310              	.LVL153:
 1311              	.L73:
  31:andonJson.c   ****         case ANDON_REQUEST_TEXT_LIST:  andonMenuParsing       (jsonString, sizeOfJson); break;     
 1312              		.loc 1 31 0
 1313 002e 1100     		movs	r1, r2
 1314              	.LVL154:
 1315 0030 2000     		movs	r0, r4
 1316 0032 FFF7FEFF 		bl	andonMenuParsing
 1317              	.LVL155:
 1318 0036 03E0     		b	.L67
 1319              	.LVL156:
 1320              	.L74:
  32:andonJson.c   ****     }
 1321              		.loc 1 32 0
 1322 0038 1100     		movs	r1, r2
 1323              	.LVL157:
 1324 003a 2000     		movs	r0, r4
 1325 003c FFF7FEFF 		bl	andonMenuParsing
 1326              	.LVL158:
 1327              	.L67:
  34:andonJson.c   **** 
 1328              		.loc 1 34 0
 1329              		@ sp needed
 1330              	.LVL159:
 1331 0040 10BD     		pop	{r4, pc}
 1332              	.L76:
 1333 0042 C046     		.align	2
 1334              	.L75:
 1335 0044 00000000 		.word	.L70
 1336              		.cfi_endproc
 1337              	.LFE62:
 1338              		.size	andonJsonParsor, .-andonJsonParsor
 1339              		.section	.text.andonTextListParsing,"ax",%progbits
 1340              		.align	2
 1341              		.global	andonTextListParsing
ARM GAS  C:\Users\luvsd\AppData\Local\Temp\cc6Ko3zR.s 			page 31


 1342              		.code	16
 1343              		.thumb_func
 1344              		.type	andonTextListParsing, %function
 1345              	andonTextListParsing:
 1346              	.LFB67:
 348:andonJson.c   **** 
 349:andonJson.c   **** uint8 andonTextListParsing(char *jsonString, int16 sizeOfJson)
 350:andonJson.c   **** {
 1347              		.loc 1 350 0
 1348              		.cfi_startproc
 1349              		@ args = 0, pretend = 0, frame = 2064
 1350              		@ frame_needed = 0, uses_anonymous_args = 0
 1351              	.LVL160:
 1352 0000 30B5     		push	{r4, r5, lr}
 1353              		.cfi_def_cfa_offset 12
 1354              		.cfi_offset 4, -12
 1355              		.cfi_offset 5, -8
 1356              		.cfi_offset 14, -4
 1357 0002 0D4C     		ldr	r4, .L78
 1358 0004 A544     		add	sp, sp, r4
 1359              		.cfi_def_cfa_offset 2088
 1360 0006 0400     		movs	r4, r0
 1361 0008 0D00     		movs	r5, r1
 351:andonJson.c   ****     int i;
 352:andonJson.c   ****     int r;
 353:andonJson.c   ****     jsmn_parser p;
 354:andonJson.c   ****     jsmntok_t t[128]; /* We expect no more than 128 tokens */  
 355:andonJson.c   ****     
 356:andonJson.c   ****     jsmn_init(&p);
 1362              		.loc 1 356 0
 1363 000a 0C4B     		ldr	r3, .L78+4
 1364 000c 6B44     		add	r3, r3, sp
 1365 000e 1800     		movs	r0, r3
 1366              	.LVL161:
 1367 0010 FFF7FEFF 		bl	jsmn_init
 1368              	.LVL162:
 357:andonJson.c   ****     
 358:andonJson.c   ****     r = jsmn_parse(&p, jsonString, sizeOfJson, t, sizeof(t) / sizeof(t[0]));
 1369              		.loc 1 358 0
 1370 0014 8023     		movs	r3, #128
 1371 0016 0093     		str	r3, [sp]
 1372 0018 03AB     		add	r3, sp, #12
 1373 001a 2A00     		movs	r2, r5
 1374 001c 2100     		movs	r1, r4
 1375 001e 0748     		ldr	r0, .L78+4
 1376 0020 6844     		add	r0, r0, sp
 1377 0022 FFF7FEFF 		bl	jsmn_parse
 1378              	.LVL163:
 359:andonJson.c   ****     
 360:andonJson.c   ****      printf("%s\r\n",jsonString);
 1379              		.loc 1 360 0
 1380 0026 2100     		movs	r1, r4
 1381 0028 0548     		ldr	r0, .L78+8
 1382 002a FFF7FEFF 		bl	printf
 1383              	.LVL164:
 361:andonJson.c   **** //    
 362:andonJson.c   **** //    if (r < 0) {
ARM GAS  C:\Users\luvsd\AppData\Local\Temp\cc6Ko3zR.s 			page 32


 363:andonJson.c   **** //        DEBUG_printf("Failed to parse JSON: %d\r\n", r);
 364:andonJson.c   **** //        return FALSE;
 365:andonJson.c   **** //    }
 366:andonJson.c   **** //    
 367:andonJson.c   **** //    /* Assume the top-level element is an object */
 368:andonJson.c   **** //    if (r < 1 || t[0].type != JSMN_OBJECT) {
 369:andonJson.c   **** //        DEBUG_printf("Object expected type: %d , %d\r\n", t[0].type, r);
 370:andonJson.c   **** //        return FALSE;
 371:andonJson.c   **** //    }
 372:andonJson.c   **** //
 373:andonJson.c   **** //    int oldReceivedCount = getReceivedMessageCount(), newReceivedCount;
 374:andonJson.c   **** //    
 375:andonJson.c   **** //    g_noMessage = 0;
 376:andonJson.c   **** //    g_ListAlarm = FALSE;
 377:andonJson.c   **** //    g_bTextListUpdated = TRUE;
 378:andonJson.c   **** //   // char tmpBuff[20], textBuff[20], status[10];  
 379:andonJson.c   **** //    
 380:andonJson.c   **** //    char buff[10];
 381:andonJson.c   **** //    int16 index=-1, idx, incr=1;
 382:andonJson.c   **** //
 383:andonJson.c   **** //    MESSAGE *item=NULL;
 384:andonJson.c   **** // 
 385:andonJson.c   **** //    for(i=0; i < t[0].size; i++)
 386:andonJson.c   **** //    {
 387:andonJson.c   **** //        if(incr >= r) break;
 388:andonJson.c   **** //        
 389:andonJson.c   **** //        incr++;
 390:andonJson.c   **** //            
 391:andonJson.c   **** //        if(t[incr].type == JSMN_ARRAY)
 392:andonJson.c   **** //        {
 393:andonJson.c   **** //            int arraySize = t[incr].size;
 394:andonJson.c   **** //
 395:andonJson.c   **** //            for(int j=0; j < arraySize; j++)
 396:andonJson.c   **** //            {
 397:andonJson.c   **** //                incr++;        
 398:andonJson.c   **** //                     
 399:andonJson.c   **** //                if(t[incr].type == JSMN_OBJECT)
 400:andonJson.c   **** //                {
 401:andonJson.c   **** //                    int objSize = t[incr].size;
 402:andonJson.c   **** //                                    
 403:andonJson.c   **** //                    item = &g_Message[++index];
 404:andonJson.c   **** //                    item->isRead=FALSE;
 405:andonJson.c   **** //                    if(index >= MAX_MESSAGE)
 406:andonJson.c   **** //                    {
 407:andonJson.c   **** //                        index--;
 408:andonJson.c   **** //                        break;
 409:andonJson.c   **** //                    }
 410:andonJson.c   **** //                    
 411:andonJson.c   **** //                    for(int k=0; k < objSize; k++)
 412:andonJson.c   **** //                    {    
 413:andonJson.c   **** //                        incr++;
 414:andonJson.c   **** //                        if (jsoneq(jsonString, &t[incr], "text_idx") == 0)
 415:andonJson.c   **** //                        {
 416:andonJson.c   **** //                            incr++;   
 417:andonJson.c   **** //                            sprintf(item->text_idx,"%.*s",t[incr].end - t[incr].start,jsonString 
 418:andonJson.c   **** //                        }
 419:andonJson.c   **** //                        if (jsoneq(jsonString, &t[incr], "type") == 0)
ARM GAS  C:\Users\luvsd\AppData\Local\Temp\cc6Ko3zR.s 			page 33


 420:andonJson.c   **** //                        {
 421:andonJson.c   **** //                            incr++;   
 422:andonJson.c   **** //                            sprintf(item->type,"%.*s",t[incr].end - t[incr].start,jsonString + t[
 423:andonJson.c   **** //                        }                        
 424:andonJson.c   **** //                        else if (jsoneq(jsonString, &t[incr], "date") == 0)
 425:andonJson.c   **** //                        {
 426:andonJson.c   **** //                            incr++;   
 427:andonJson.c   **** //                            sprintf(item->date,"%.*s",t[incr].end - t[incr].start,jsonString + t[
 428:andonJson.c   **** //                        }
 429:andonJson.c   **** //                        else if (jsoneq(jsonString, &t[incr], "time") == 0)
 430:andonJson.c   **** //                        {
 431:andonJson.c   **** //                            incr++;   
 432:andonJson.c   **** //                            sprintf(item->time,"%.*s",t[incr].end - t[incr].start,jsonString + t[
 433:andonJson.c   **** //                        }
 434:andonJson.c   **** //                        else if (jsoneq(jsonString, &t[incr], "read_yn") == 0)
 435:andonJson.c   **** //                        {
 436:andonJson.c   **** //                            incr++;   
 437:andonJson.c   **** //                            
 438:andonJson.c   **** //                            sprintf(buff,"%.*s",t[incr].end - t[incr].start,jsonString + t[incr].
 439:andonJson.c   **** //                            item->isRead = TRUE;  
 440:andonJson.c   **** //                            
 441:andonJson.c   **** //                            if(strcmp(buff,"N")==0 && strcmp(item->type,"R") == 0)
 442:andonJson.c   **** //                            {
 443:andonJson.c   **** //                                item->isRead = FALSE;
 444:andonJson.c   **** //                                g_ListAlarm = TRUE;
 445:andonJson.c   **** //                            }
 446:andonJson.c   **** //                        }                        
 447:andonJson.c   **** //                        else
 448:andonJson.c   **** //                        {
 449:andonJson.c   **** //                            g_uReplyResult = RR_FAILURE;
 450:andonJson.c   **** //                          //  DEBUG_printf("JSON_MenuParsing()>> %s\r\n",g_JSONString);
 451:andonJson.c   **** //                        }
 452:andonJson.c   **** //                    }
 453:andonJson.c   **** //                }
 454:andonJson.c   **** //            }
 455:andonJson.c   **** //        }
 456:andonJson.c   **** //    }
 457:andonJson.c   **** //    
 458:andonJson.c   **** //    newReceivedCount = getReceivedMessageCount();
 459:andonJson.c   **** //    if(g_noMessage != newReceivedCount)  g_bLED1_Flickering = TRUE;
 460:andonJson.c   **** //
 461:andonJson.c   **** //    g_noMessage = (uint16) (index+1);
 462:andonJson.c   **** 
 463:andonJson.c   ****     return TRUE;    
 464:andonJson.c   **** }
 1384              		.loc 1 464 0
 1385 002e 0120     		movs	r0, #1
 1386 0030 044B     		ldr	r3, .L78+12
 1387 0032 9D44     		add	sp, sp, r3
 1388              		@ sp needed
 1389              	.LVL165:
 1390 0034 30BD     		pop	{r4, r5, pc}
 1391              	.L79:
 1392 0036 C046     		.align	2
 1393              	.L78:
 1394 0038 E4F7FFFF 		.word	-2076
 1395 003c 0C080000 		.word	2060
ARM GAS  C:\Users\luvsd\AppData\Local\Temp\cc6Ko3zR.s 			page 34


 1396 0040 98000000 		.word	.LC32
 1397 0044 1C080000 		.word	2076
 1398              		.cfi_endproc
 1399              	.LFE67:
 1400              		.size	andonTextListParsing, .-andonTextListParsing
 1401              		.comm	Param,6,4
 1402              		.section	.rodata.str1.4,"aMS",%progbits,1
 1403              		.align	2
 1404              	.LC0:
 1405 0000 4661696C 		.ascii	"Failed to parse JSON: %d\015\012\000"
 1405      65642074 
 1405      6F207061 
 1405      72736520 
 1405      4A534F4E 
 1406 001b 00       		.space	1
 1407              	.LC2:
 1408 001c 4F626A65 		.ascii	"Object expected type: %d\015\012\000"
 1408      63742065 
 1408      78706563 
 1408      74656420 
 1408      74797065 
 1409 0037 00       		.space	1
 1410              	.LC4:
 1411 0038 64617465 		.ascii	"datetime\000"
 1411      74696D65 
 1411      00
 1412 0041 000000   		.space	3
 1413              	.LC9:
 1414 0044 64657669 		.ascii	"device_no\000"
 1414      63655F6E 
 1414      6F00
 1415 004e 0000     		.space	2
 1416              	.LC11:
 1417 0050 252E2A73 		.ascii	"%.*s\000"
 1417      00
 1418 0055 000000   		.space	3
 1419              	.LC15:
 1420 0058 496F5420 		.ascii	"IoT Device\000"
 1420      44657669 
 1420      636500
 1421 0063 00       		.space	1
 1422              	.LC17:
 1423 0064 696E7374 		.ascii	"install_type\000"
 1423      616C6C5F 
 1423      74797065 
 1423      00
 1424 0071 000000   		.space	3
 1425              	.LC20:
 1426 0074 6C696E65 		.ascii	"line_name\000"
 1426      5F6E616D 
 1426      6500
 1427 007e 0000     		.space	2
 1428              	.LC23:
 1429 0080 64657669 		.ascii	"device_idx\000"
 1429      63655F69 
 1429      647800
 1430 008b 00       		.space	1
ARM GAS  C:\Users\luvsd\AppData\Local\Temp\cc6Ko3zR.s 			page 35


 1431              	.LC27:
 1432 008c 636F6465 		.ascii	"code\000"
 1432      00
 1433 0091 000000   		.space	3
 1434              	.LC30:
 1435 0094 303000   		.ascii	"00\000"
 1436 0097 00       		.space	1
 1437              	.LC32:
 1438 0098 25730D0A 		.ascii	"%s\015\012\000"
 1438      00
 1439 009d 000000   		.space	3
 1440              	.LC35:
 1441 00a0 4F626A65 		.ascii	"Object expected type: %d , %d\015\012\000"
 1441      63742065 
 1441      78706563 
 1441      74656420 
 1441      74797065 
 1442              	.LC38:
 1443 00c0 69647800 		.ascii	"idx\000"
 1444              	.LC41:
 1445 00c4 74657874 		.ascii	"text\000"
 1445      00
 1446 00c9 000000   		.space	3
 1447              	.LC44:
 1448 00cc 6E6F745F 		.ascii	"not_completed_qty\000"
 1448      636F6D70 
 1448      6C657465 
 1448      645F7174 
 1448      7900
 1449 00de 0000     		.space	2
 1450              	.LC46:
 1451 00e0 73746174 		.ascii	"status\000"
 1451      757300
 1452 00e7 00       		.space	1
 1453              	.LC48:
 1454 00e8 4300     		.ascii	"C\000"
 1455 00ea 0000     		.space	2
 1456              	.LC50:
 1457 00ec 5000     		.ascii	"P\000"
 1458 00ee 0000     		.space	2
 1459              	.LC52:
 1460 00f0 5700     		.ascii	"W\000"
 1461 00f2 0000     		.space	2
 1462              	.LC54:
 1463 00f4 616E646F 		.ascii	"andon_list_request_interval\000"
 1463      6E5F6C69 
 1463      73745F72 
 1463      65717565 
 1463      73745F69 
 1464              	.LC57:
 1465 0110 6E6F7469 		.ascii	"notice_index\000"
 1465      63655F69 
 1465      6E646578 
 1465      00
 1466              		.text
 1467              	.Letext0:
 1468              		.file 2 "Generated_Source\\PSoC4/cytypes.h"
ARM GAS  C:\Users\luvsd\AppData\Local\Temp\cc6Ko3zR.s 			page 36


 1469              		.file 3 "main.h"
 1470              		.file 4 "lib/jsmn.h"
 1471              		.file 5 "andonApi.h"
 1472              		.file 6 "lib/fonts.h"
 1473              		.file 7 "Generated_Source\\PSoC4/RTC.h"
 1474              		.file 8 "andonJson.h"
 1475              		.file 9 "c:\\program files (x86)\\cypress\\psoc creator\\4.4\\psoc creator\\import\\gnu\\arm\\5.4.
 1476              		.file 10 "jsonUtil.h"
 1477              		.file 11 "lib/RealTimeClock.h"
 1478              		.file 12 "c:\\program files (x86)\\cypress\\psoc creator\\4.4\\psoc creator\\import\\gnu\\arm\\5.4
 1479              		.file 13 "lib/widget.h"
 1480              		.file 14 "c:\\program files (x86)\\cypress\\psoc creator\\4.4\\psoc creator\\import\\gnu\\arm\\5.4