ARM GAS  C:\Users\luvsd\AppData\Local\Temp\ccwuI0YK.s 			page 1


   1              		.syntax unified
   2              		.cpu cortex-m0
   3              		.fpu softvfp
   4              		.eabi_attribute 20, 1
   5              		.eabi_attribute 21, 1
   6              		.eabi_attribute 23, 3
   7              		.eabi_attribute 24, 1
   8              		.eabi_attribute 25, 1
   9              		.eabi_attribute 26, 1
  10              		.eabi_attribute 30, 1
  11              		.eabi_attribute 34, 0
  12              		.eabi_attribute 18, 4
  13              		.thumb
  14              		.syntax unified
  15              		.file	"internalFlash.c"
  16              		.text
  17              	.Ltext0:
  18              		.cfi_sections	.debug_frame
  19              		.section	.text.IsAvaliableInternalFalsh,"ax",%progbits
  20              		.align	2
  21              		.global	IsAvaliableInternalFalsh
  22              		.code	16
  23              		.thumb_func
  24              		.type	IsAvaliableInternalFalsh, %function
  25              	IsAvaliableInternalFalsh:
  26              	.LFB62:
  27              		.file 1 "lib\\internalFlash.c"
   1:lib/internalFlash.c **** /* ========================================
   2:lib/internalFlash.c ****  *
   3:lib/internalFlash.c ****  * Copyright YOUR COMPANY, THE YEAR
   4:lib/internalFlash.c ****  * All Rights Reserved
   5:lib/internalFlash.c ****  * UNPUBLISHED, LICENSED SOFTWARE.
   6:lib/internalFlash.c ****  *
   7:lib/internalFlash.c ****  * CONFIDENTIAL AND PROPRIETARY INFORMATION
   8:lib/internalFlash.c ****  * WHICH IS THE PROPERTY OF your company.
   9:lib/internalFlash.c ****  *
  10:lib/internalFlash.c ****  * ========================================
  11:lib/internalFlash.c **** */
  12:lib/internalFlash.c **** #include "internalFlash.h"
  13:lib/internalFlash.c **** #include "externalFlash.h"
  14:lib/internalFlash.c **** 
  15:lib/internalFlash.c **** #define LOGICAL_EEPROM_START         0
  16:lib/internalFlash.c **** 
  17:lib/internalFlash.c **** INTERNAL_CONFIG g_internalFlash;
  18:lib/internalFlash.c **** 
  19:lib/internalFlash.c **** uint8 IsAvaliableInternalFalsh()
  20:lib/internalFlash.c **** {
  28              		.loc 1 20 0
  29              		.cfi_startproc
  30              		@ args = 0, pretend = 0, frame = 0
  31              		@ frame_needed = 0, uses_anonymous_args = 0
  32              		@ link register save eliminated.
  21:lib/internalFlash.c **** //    if(g_internalFlash.watermark != INTERNAL_FLASH_WATER_MARK)
  22:lib/internalFlash.c **** //    {
  23:lib/internalFlash.c **** //        printf("WaterMark Error of EEPROM\r\n");
  24:lib/internalFlash.c **** //        return FALSE;
  25:lib/internalFlash.c **** //    }
ARM GAS  C:\Users\luvsd\AppData\Local\Temp\ccwuI0YK.s 			page 2


  26:lib/internalFlash.c **** //
  27:lib/internalFlash.c **** //    if(g_internalFlash.watermark != checkSum((uint8*) &g_internalFlash.data, sizeof(INTERNAL_CONF
  28:lib/internalFlash.c **** //    {
  29:lib/internalFlash.c **** //        printf("CRC Error of EEPROM\r\n");        
  30:lib/internalFlash.c **** //        return FALSE;
  31:lib/internalFlash.c **** //    }
  32:lib/internalFlash.c **** 
  33:lib/internalFlash.c ****     return TRUE;
  34:lib/internalFlash.c **** }
  33              		.loc 1 34 0
  34 0000 0120     		movs	r0, #1
  35              		@ sp needed
  36 0002 7047     		bx	lr
  37              		.cfi_endproc
  38              	.LFE62:
  39              		.size	IsAvaliableInternalFalsh, .-IsAvaliableInternalFalsh
  40              		.section	.text.LoadInternalFlash,"ax",%progbits
  41              		.align	2
  42              		.global	LoadInternalFlash
  43              		.code	16
  44              		.thumb_func
  45              		.type	LoadInternalFlash, %function
  46              	LoadInternalFlash:
  47              	.LFB65:
  35:lib/internalFlash.c **** 
  36:lib/internalFlash.c **** /*Logical Size of Em_EEPROM*/
  37:lib/internalFlash.c **** cy_en_em_eeprom_status_t eepromReturnValue;
  38:lib/internalFlash.c **** 
  39:lib/internalFlash.c **** /* EEPROM storage in work flash, this is defined in Em_EEPROM.c*/
  40:lib/internalFlash.c **** #if defined (__ICCARM__)
  41:lib/internalFlash.c **** #pragma data_alignment = CY_FLASH_SIZEOF_ROW
  42:lib/internalFlash.c **** const uint8_t Em_EEPROM_em_EepromStorage[Em_EEPROM_PHYSICAL_SIZE] = {0u};
  43:lib/internalFlash.c **** #else
  44:lib/internalFlash.c **** const uint8_t Em_EEPROM_em_EepromStorage[Em_EEPROM_PHYSICAL_SIZE]
  45:lib/internalFlash.c ****  __ALIGNED(CY_FLASH_SIZEOF_ROW) = {0u};
  46:lib/internalFlash.c **** #endif /* defined (__ICCARM__) */
  47:lib/internalFlash.c **** 
  48:lib/internalFlash.c **** void initInternalFlash()
  49:lib/internalFlash.c **** {
  50:lib/internalFlash.c **** 
  51:lib/internalFlash.c **** //    if(LOGICAL_EEPROM_SIZE != sizeof(Em_EEPROM_em_EepromStorage))
  52:lib/internalFlash.c **** //    {
  53:lib/internalFlash.c **** //        printf("WIFI_CONFIG size is not same as Em_EEPROM_PHYSICAL_SIZE\r\n");
  54:lib/internalFlash.c **** //        return;
  55:lib/internalFlash.c **** //    }
  56:lib/internalFlash.c **** //    cy_en_em_eeprom_status_t eepromReturnValue = Em_EEPROM_Init((uint32_t)Em_EEPROM_em_EepromStor
  57:lib/internalFlash.c ****     uint32_t flashAddress = (uint32_t)(0x0003FF00 -  0x00000100   -     Em_EEPROM_PHYSICAL_SIZE);
  58:lib/internalFlash.c ****     //                                 End       don't use last block      EEPROM SIZE
  59:lib/internalFlash.c **** //    printf("flash address %0x, %0x %0x %0x\r\n",flashAddress, 0x0003FF00, 0x00000100, Em_EEPROM_P
  60:lib/internalFlash.c ****     
  61:lib/internalFlash.c ****     cy_en_em_eeprom_status_t eepromReturnValue = Em_EEPROM_Init(flashAddress);
  62:lib/internalFlash.c ****     if(eepromReturnValue != CY_EM_EEPROM_SUCCESS)
  63:lib/internalFlash.c ****     {
  64:lib/internalFlash.c ****         printf("ERROR in initEEPROM()\r\n");
  65:lib/internalFlash.c ****         return;
  66:lib/internalFlash.c ****     }    
  67:lib/internalFlash.c ****     
ARM GAS  C:\Users\luvsd\AppData\Local\Temp\ccwuI0YK.s 			page 3


  68:lib/internalFlash.c ****     LoadInternalFlash();
  69:lib/internalFlash.c **** }
  70:lib/internalFlash.c **** 
  71:lib/internalFlash.c **** void ResetInternalFlash()
  72:lib/internalFlash.c **** {
  73:lib/internalFlash.c ****     memset(&g_internalFlash, 0,  sizeof(INTERNAL_CONFIG));
  74:lib/internalFlash.c ****     SaveInternalFlash(); 
  75:lib/internalFlash.c **** }
  76:lib/internalFlash.c **** 
  77:lib/internalFlash.c **** uint8 LoadInternalFlash()
  78:lib/internalFlash.c **** {
  48              		.loc 1 78 0
  49              		.cfi_startproc
  50              		@ args = 0, pretend = 0, frame = 0
  51              		@ frame_needed = 0, uses_anonymous_args = 0
  52 0000 10B5     		push	{r4, lr}
  53              		.cfi_def_cfa_offset 8
  54              		.cfi_offset 4, -8
  55              		.cfi_offset 14, -4
  79:lib/internalFlash.c ****     memset(&g_internalFlash, 0,  sizeof(INTERNAL_CONFIG));
  56              		.loc 1 79 0
  57 0002 0D4C     		ldr	r4, .L5
  58 0004 8022     		movs	r2, #128
  59 0006 0021     		movs	r1, #0
  60 0008 2000     		movs	r0, r4
  61 000a FFF7FEFF 		bl	memset
  62              	.LVL0:
  80:lib/internalFlash.c ****     
  81:lib/internalFlash.c ****     eepromReturnValue = Em_EEPROM_Read(LOGICAL_EEPROM_START, &g_internalFlash, sizeof(INTERNAL_CONF
  63              		.loc 1 81 0
  64 000e 0B4B     		ldr	r3, .L5+4
  65 0010 8022     		movs	r2, #128
  66 0012 2100     		movs	r1, r4
  67 0014 0020     		movs	r0, #0
  68 0016 FFF7FEFF 		bl	Cy_Em_EEPROM_Read
  69              	.LVL1:
  70 001a 094B     		ldr	r3, .L5+8
  71 001c 1870     		strb	r0, [r3]
  82:lib/internalFlash.c **** 
  83:lib/internalFlash.c ****     if(eepromReturnValue != CY_EM_EEPROM_SUCCESS)
  72              		.loc 1 83 0
  73 001e 0028     		cmp	r0, #0
  74 0020 06D0     		beq	.L3
  84:lib/internalFlash.c ****     {
  85:lib/internalFlash.c ****         memset(&g_internalFlash, 0, sizeof(INTERNAL_CONFIG));        
  75              		.loc 1 85 0
  76 0022 8022     		movs	r2, #128
  77 0024 0021     		movs	r1, #0
  78 0026 0448     		ldr	r0, .L5
  79 0028 FFF7FEFF 		bl	memset
  80              	.LVL2:
  86:lib/internalFlash.c ****         return FALSE;
  81              		.loc 1 86 0
  82 002c 0020     		movs	r0, #0
  83 002e 01E0     		b	.L4
  84              	.L3:
  87:lib/internalFlash.c ****     }
ARM GAS  C:\Users\luvsd\AppData\Local\Temp\ccwuI0YK.s 			page 4


  88:lib/internalFlash.c ****     
  89:lib/internalFlash.c ****     return IsAvaliableInternalFalsh();
  85              		.loc 1 89 0
  86 0030 FFF7FEFF 		bl	IsAvaliableInternalFalsh
  87              	.LVL3:
  88              	.L4:
  90:lib/internalFlash.c **** }
  89              		.loc 1 90 0
  90              		@ sp needed
  91 0034 10BD     		pop	{r4, pc}
  92              	.L6:
  93 0036 C046     		.align	2
  94              	.L5:
  95 0038 00000000 		.word	g_internalFlash
  96 003c 00000000 		.word	Em_EEPROM_context
  97 0040 00000000 		.word	eepromReturnValue
  98              		.cfi_endproc
  99              	.LFE65:
 100              		.size	LoadInternalFlash, .-LoadInternalFlash
 101              		.section	.text.initInternalFlash,"ax",%progbits
 102              		.align	2
 103              		.global	initInternalFlash
 104              		.code	16
 105              		.thumb_func
 106              		.type	initInternalFlash, %function
 107              	initInternalFlash:
 108              	.LFB63:
  49:lib/internalFlash.c **** 
 109              		.loc 1 49 0
 110              		.cfi_startproc
 111              		@ args = 0, pretend = 0, frame = 0
 112              		@ frame_needed = 0, uses_anonymous_args = 0
 113 0000 10B5     		push	{r4, lr}
 114              		.cfi_def_cfa_offset 8
 115              		.cfi_offset 4, -8
 116              		.cfi_offset 14, -4
 117              	.LVL4:
  61:lib/internalFlash.c ****     if(eepromReturnValue != CY_EM_EEPROM_SUCCESS)
 118              		.loc 1 61 0
 119 0002 FD20     		movs	r0, #253
 120 0004 8002     		lsls	r0, r0, #10
 121 0006 FFF7FEFF 		bl	Em_EEPROM_Init
 122              	.LVL5:
  62:lib/internalFlash.c ****     {
 123              		.loc 1 62 0
 124 000a 0028     		cmp	r0, #0
 125 000c 03D0     		beq	.L8
  64:lib/internalFlash.c ****         return;
 126              		.loc 1 64 0
 127 000e 0348     		ldr	r0, .L10
 128              	.LVL6:
 129 0010 FFF7FEFF 		bl	puts
 130              	.LVL7:
  65:lib/internalFlash.c ****     }    
 131              		.loc 1 65 0
 132 0014 01E0     		b	.L7
 133              	.LVL8:
ARM GAS  C:\Users\luvsd\AppData\Local\Temp\ccwuI0YK.s 			page 5


 134              	.L8:
  68:lib/internalFlash.c **** }
 135              		.loc 1 68 0
 136 0016 FFF7FEFF 		bl	LoadInternalFlash
 137              	.LVL9:
 138              	.L7:
  69:lib/internalFlash.c **** 
 139              		.loc 1 69 0
 140              		@ sp needed
 141 001a 10BD     		pop	{r4, pc}
 142              	.L11:
 143              		.align	2
 144              	.L10:
 145 001c 00000000 		.word	.LC3
 146              		.cfi_endproc
 147              	.LFE63:
 148              		.size	initInternalFlash, .-initInternalFlash
 149              		.section	.text.SaveInternalFlash,"ax",%progbits
 150              		.align	2
 151              		.global	SaveInternalFlash
 152              		.code	16
 153              		.thumb_func
 154              		.type	SaveInternalFlash, %function
 155              	SaveInternalFlash:
 156              	.LFB66:
  91:lib/internalFlash.c **** 
  92:lib/internalFlash.c **** uint8 SaveInternalFlash()
  93:lib/internalFlash.c **** {
 157              		.loc 1 93 0
 158              		.cfi_startproc
 159              		@ args = 0, pretend = 0, frame = 0
 160              		@ frame_needed = 0, uses_anonymous_args = 0
 161 0000 10B5     		push	{r4, lr}
 162              		.cfi_def_cfa_offset 8
 163              		.cfi_offset 4, -8
 164              		.cfi_offset 14, -4
  94:lib/internalFlash.c ****     g_internalFlash.watermark = INTERNAL_FLASH_WATER_MARK;
 165              		.loc 1 94 0
 166 0002 0C4C     		ldr	r4, .L15
 167 0004 0C4B     		ldr	r3, .L15+4
 168 0006 2380     		strh	r3, [r4]
  95:lib/internalFlash.c ****     g_internalFlash.checksum = checkSum((uint8*) &g_internalFlash.data, sizeof(INTERNAL_CONFIG)-siz
 169              		.loc 1 95 0
 170 0008 A01C     		adds	r0, r4, #2
 171 000a 7E21     		movs	r1, #126
 172 000c FFF7FEFF 		bl	checkSum
 173              	.LVL10:
 174 0010 7E23     		movs	r3, #126
 175 0012 E052     		strh	r0, [r4, r3]
  96:lib/internalFlash.c ****     
  97:lib/internalFlash.c ****     cy_en_em_eeprom_status_t eepromReturnValue = Em_EEPROM_Write(LOGICAL_EEPROM_START, &g_internalF
 176              		.loc 1 97 0
 177 0014 094B     		ldr	r3, .L15+8
 178 0016 8022     		movs	r2, #128
 179 0018 2100     		movs	r1, r4
 180 001a 0020     		movs	r0, #0
 181 001c FFF7FEFF 		bl	Cy_Em_EEPROM_Write
ARM GAS  C:\Users\luvsd\AppData\Local\Temp\ccwuI0YK.s 			page 6


 182              	.LVL11:
  98:lib/internalFlash.c ****     if(eepromReturnValue != CY_EM_EEPROM_SUCCESS)
 183              		.loc 1 98 0
 184 0020 0028     		cmp	r0, #0
 185 0022 04D0     		beq	.L14
  99:lib/internalFlash.c ****     {
 100:lib/internalFlash.c ****         printf("Can't Save InternalFlash\r\n");
 186              		.loc 1 100 0
 187 0024 0648     		ldr	r0, .L15+12
 188              	.LVL12:
 189 0026 FFF7FEFF 		bl	puts
 190              	.LVL13:
 101:lib/internalFlash.c ****         return FALSE;
 191              		.loc 1 101 0
 192 002a 0020     		movs	r0, #0
 193 002c 00E0     		b	.L13
 194              	.LVL14:
 195              	.L14:
 102:lib/internalFlash.c ****     }
 103:lib/internalFlash.c ****     
 104:lib/internalFlash.c ****     return TRUE;
 196              		.loc 1 104 0
 197 002e 0120     		movs	r0, #1
 198              	.LVL15:
 199              	.L13:
 105:lib/internalFlash.c **** }
 200              		.loc 1 105 0
 201              		@ sp needed
 202 0030 10BD     		pop	{r4, pc}
 203              	.L16:
 204 0032 C046     		.align	2
 205              	.L15:
 206 0034 00000000 		.word	g_internalFlash
 207 0038 39300000 		.word	12345
 208 003c 00000000 		.word	Em_EEPROM_context
 209 0040 18000000 		.word	.LC8
 210              		.cfi_endproc
 211              	.LFE66:
 212              		.size	SaveInternalFlash, .-SaveInternalFlash
 213              		.section	.text.ResetInternalFlash,"ax",%progbits
 214              		.align	2
 215              		.global	ResetInternalFlash
 216              		.code	16
 217              		.thumb_func
 218              		.type	ResetInternalFlash, %function
 219              	ResetInternalFlash:
 220              	.LFB64:
  72:lib/internalFlash.c ****     memset(&g_internalFlash, 0,  sizeof(INTERNAL_CONFIG));
 221              		.loc 1 72 0
 222              		.cfi_startproc
 223              		@ args = 0, pretend = 0, frame = 0
 224              		@ frame_needed = 0, uses_anonymous_args = 0
 225 0000 10B5     		push	{r4, lr}
 226              		.cfi_def_cfa_offset 8
 227              		.cfi_offset 4, -8
 228              		.cfi_offset 14, -4
  73:lib/internalFlash.c ****     SaveInternalFlash(); 
ARM GAS  C:\Users\luvsd\AppData\Local\Temp\ccwuI0YK.s 			page 7


 229              		.loc 1 73 0
 230 0002 8022     		movs	r2, #128
 231 0004 0021     		movs	r1, #0
 232 0006 0348     		ldr	r0, .L18
 233 0008 FFF7FEFF 		bl	memset
 234              	.LVL16:
  74:lib/internalFlash.c **** }
 235              		.loc 1 74 0
 236 000c FFF7FEFF 		bl	SaveInternalFlash
 237              	.LVL17:
  75:lib/internalFlash.c **** 
 238              		.loc 1 75 0
 239              		@ sp needed
 240 0010 10BD     		pop	{r4, pc}
 241              	.L19:
 242 0012 C046     		.align	2
 243              	.L18:
 244 0014 00000000 		.word	g_internalFlash
 245              		.cfi_endproc
 246              	.LFE64:
 247              		.size	ResetInternalFlash, .-ResetInternalFlash
 248              		.global	Em_EEPROM_em_EepromStorage
 249              		.comm	eepromReturnValue,1,1
 250              		.comm	g_internalFlash,128,4
 251              		.comm	Param,6,4
 252              		.section	.rodata
 253              		.align	8
 254              		.type	Em_EEPROM_em_EepromStorage, %object
 255              		.size	Em_EEPROM_em_EepromStorage, 2560
 256              	Em_EEPROM_em_EepromStorage:
 257 0000 00000000 		.space	2560
 257      00000000 
 257      00000000 
 257      00000000 
 257      00000000 
 258              		.section	.rodata.str1.4,"aMS",%progbits,1
 259              		.align	2
 260              	.LC3:
 261 0000 4552524F 		.ascii	"ERROR in initEEPROM()\015\000"
 261      5220696E 
 261      20696E69 
 261      74454550 
 261      524F4D28 
 262 0017 00       		.space	1
 263              	.LC8:
 264 0018 43616E27 		.ascii	"Can't Save InternalFlash\015\000"
 264      74205361 
 264      76652049 
 264      6E746572 
 264      6E616C46 
 265              		.text
 266              	.Letext0:
 267              		.file 2 "c:\\program files (x86)\\cypress\\psoc creator\\4.4\\psoc creator\\import\\gnu\\arm\\5.4.
 268              		.file 3 "c:\\program files (x86)\\cypress\\psoc creator\\4.4\\psoc creator\\import\\gnu\\arm\\5.4.
 269              		.file 4 "Generated_Source\\PSoC4/cytypes.h"
 270              		.file 5 "Generated_Source\\PSoC4/cy_em_eeprom.h"
 271              		.file 6 "./main.h"
ARM GAS  C:\Users\luvsd\AppData\Local\Temp\ccwuI0YK.s 			page 8


 272              		.file 7 "lib\\internalFlash.h"
 273              		.file 8 "Generated_Source\\PSoC4/RTC.h"
 274              		.file 9 "Generated_Source\\PSoC4/Em_EEPROM.h"
 275              		.file 10 "lib\\externalFlash.h"
 276              		.file 11 "<built-in>"