ARM GAS  C:\Users\luvsd\AppData\Local\Temp\ccMFAyWA.s 			page 1


   1              		.syntax unified
   2              		.cpu cortex-m0
   3              		.fpu softvfp
   4              		.eabi_attribute 20, 1
   5              		.eabi_attribute 21, 1
   6              		.eabi_attribute 23, 3
   7              		.eabi_attribute 24, 1
   8              		.eabi_attribute 25, 1
   9              		.eabi_attribute 26, 1
  10              		.eabi_attribute 30, 1
  11              		.eabi_attribute 34, 0
  12              		.eabi_attribute 18, 4
  13              		.thumb
  14              		.syntax unified
  15              		.file	"IOUtil.c"
  16              		.text
  17              	.Ltext0:
  18              		.cfi_sections	.debug_frame
  19              		.section	.text.initIO,"ax",%progbits
  20              		.align	2
  21              		.global	initIO
  22              		.code	16
  23              		.thumb_func
  24              		.type	initIO, %function
  25              	initIO:
  26              	.LFB64:
  27              		.file 1 "lib\\IOUtil.c"
   1:lib/IOUtil.c  **** /* ========================================
   2:lib/IOUtil.c  ****  *
   3:lib/IOUtil.c  ****  * Copyright Suntech, 2023.02.01
   4:lib/IOUtil.c  ****  * All Rights Reserved
   5:lib/IOUtil.c  ****  * UNPUBLISHED, LICENSED SOFTWARE.
   6:lib/IOUtil.c  ****  *
   7:lib/IOUtil.c  ****  * CONFIDENTIAL AND PROPRIETARY INFORMATION
   8:lib/IOUtil.c  ****  * WHICH IS THE PROPERTY OF Suntech.
   9:lib/IOUtil.c  ****  *
  10:lib/IOUtil.c  ****  * ========================================
  11:lib/IOUtil.c  **** */
  12:lib/IOUtil.c  **** #include "main.h"
  13:lib/IOUtil.c  **** #include "IOUtil.h"
  14:lib/IOUtil.c  **** #include "sysTick.h"
  15:lib/IOUtil.c  **** 
  16:lib/IOUtil.c  **** void initIOUtil()
  17:lib/IOUtil.c  **** {
  18:lib/IOUtil.c  ****    initIO();
  19:lib/IOUtil.c  ****    initIOT();
  20:lib/IOUtil.c  **** 
  21:lib/IOUtil.c  ****    for(int i=0; i < 10; i++) glitchFiltering();
  22:lib/IOUtil.c  **** }
  23:lib/IOUtil.c  **** 
  24:lib/IOUtil.c  **** void updateIOStat()
  25:lib/IOUtil.c  **** {
  26:lib/IOUtil.c  ****     doOutput();
  27:lib/IOUtil.c  ****         
  28:lib/IOUtil.c  ****     glitchFiltering();
  29:lib/IOUtil.c  ****     updateIO(); 
  30:lib/IOUtil.c  ****     updateIOTimer();
ARM GAS  C:\Users\luvsd\AppData\Local\Temp\ccMFAyWA.s 			page 2


  31:lib/IOUtil.c  **** }
  32:lib/IOUtil.c  **** 
  33:lib/IOUtil.c  **** //////////////////////////////////////////////////////////////////////////////////////////
  34:lib/IOUtil.c  **** // Input-Output  Utility
  35:lib/IOUtil.c  **** //////////////////////////////////////////////////////////////////////////////////////////
  36:lib/IOUtil.c  **** SIOUtil g_IOUtil[MAX_IO];
  37:lib/IOUtil.c  **** 
  38:lib/IOUtil.c  **** void initIO()
  39:lib/IOUtil.c  **** {
  28              		.loc 1 39 0
  29              		.cfi_startproc
  30              		@ args = 0, pretend = 0, frame = 0
  31              		@ frame_needed = 0, uses_anonymous_args = 0
  32              		@ link register save eliminated.
  33              	.LVL0:
  34              	.LBB2:
  40:lib/IOUtil.c  ****     for (int i = 0; i < MAX_IO; i++)
  35              		.loc 1 40 0
  36 0000 0022     		movs	r2, #0
  37 0002 0DE0     		b	.L2
  38              	.LVL1:
  39              	.L3:
  41:lib/IOUtil.c  ****     {
  42:lib/IOUtil.c  ****         g_IOUtil[i].previous = 0;
  40              		.loc 1 42 0 discriminator 3
  41 0004 0848     		ldr	r0, .L4
  42 0006 835C     		ldrb	r3, [r0, r2]
  43:lib/IOUtil.c  ****         g_IOUtil[i].current  = 0;
  43              		.loc 1 43 0 discriminator 3
  44 0008 0121     		movs	r1, #1
  45 000a 8B43     		bics	r3, r1
  44:lib/IOUtil.c  ****         g_IOUtil[i].upEdge   = 0;
  46              		.loc 1 44 0 discriminator 3
  47 000c 0131     		adds	r1, r1, #1
  48 000e 8B43     		bics	r3, r1
  45:lib/IOUtil.c  ****         g_IOUtil[i].downEdge = 0;
  49              		.loc 1 45 0 discriminator 3
  50 0010 0231     		adds	r1, r1, #2
  51 0012 8B43     		bics	r3, r1
  46:lib/IOUtil.c  ****         g_IOUtil[i].activate = 1;        
  52              		.loc 1 46 0 discriminator 3
  53 0014 0431     		adds	r1, r1, #4
  54 0016 8B43     		bics	r3, r1
  55 0018 1021     		movs	r1, #16
  56 001a 0B43     		orrs	r3, r1
  57 001c 8354     		strb	r3, [r0, r2]
  40:lib/IOUtil.c  ****     {
  58              		.loc 1 40 0 discriminator 3
  59 001e 0132     		adds	r2, r2, #1
  60              	.LVL2:
  61              	.L2:
  40:lib/IOUtil.c  ****     {
  62              		.loc 1 40 0 is_stmt 0 discriminator 1
  63 0020 132A     		cmp	r2, #19
  64 0022 EFDD     		ble	.L3
  65              	.LBE2:
  47:lib/IOUtil.c  ****     }
ARM GAS  C:\Users\luvsd\AppData\Local\Temp\ccMFAyWA.s 			page 3


  48:lib/IOUtil.c  **** }
  66              		.loc 1 48 0 is_stmt 1
  67              		@ sp needed
  68 0024 7047     		bx	lr
  69              	.L5:
  70 0026 C046     		.align	2
  71              	.L4:
  72 0028 00000000 		.word	g_IOUtil
  73              		.cfi_endproc
  74              	.LFE64:
  75              		.size	initIO, .-initIO
  76              		.section	.text.glitchFiltering,"ax",%progbits
  77              		.align	2
  78              		.global	glitchFiltering
  79              		.code	16
  80              		.thumb_func
  81              		.type	glitchFiltering, %function
  82              	glitchFiltering:
  83              	.LFB65:
  49:lib/IOUtil.c  **** 
  50:lib/IOUtil.c  **** void glitchFiltering()
  51:lib/IOUtil.c  **** {
  84              		.loc 1 51 0
  85              		.cfi_startproc
  86              		@ args = 0, pretend = 0, frame = 0
  87              		@ frame_needed = 0, uses_anonymous_args = 0
  88 0000 70B5     		push	{r4, r5, r6, lr}
  89              		.cfi_def_cfa_offset 16
  90              		.cfi_offset 4, -16
  91              		.cfi_offset 5, -12
  92              		.cfi_offset 6, -8
  93              		.cfi_offset 14, -4
  52:lib/IOUtil.c  ****     unsigned long v;   // int is 2 byte in arduino....
  53:lib/IOUtil.c  ****     static unsigned long keep=0;
  54:lib/IOUtil.c  ****     static unsigned long arrayIn[4], arrayIndex=0;
  55:lib/IOUtil.c  ****              
  56:lib/IOUtil.c  ****     // Glitch filtering......................................
  57:lib/IOUtil.c  ****     arrayIn[arrayIndex++] = getSensor();
  94              		.loc 1 57 0
  95 0002 0E4C     		ldr	r4, .L7
  96 0004 2568     		ldr	r5, [r4]
  97 0006 6B1C     		adds	r3, r5, #1
  98 0008 2360     		str	r3, [r4]
  99 000a FFF7FEFF 		bl	getSensor
 100              	.LVL3:
 101 000e AD00     		lsls	r5, r5, #2
 102 0010 6519     		adds	r5, r4, r5
 103 0012 6860     		str	r0, [r5, #4]
  58:lib/IOUtil.c  ****     arrayIndex %= 4; // 0, 1, 2, 3, 0, 1, 2, .....
 104              		.loc 1 58 0
 105 0014 0323     		movs	r3, #3
 106 0016 2268     		ldr	r2, [r4]
 107 0018 1340     		ands	r3, r2
 108 001a 2360     		str	r3, [r4]
  59:lib/IOUtil.c  **** 
  60:lib/IOUtil.c  ****     keep |= arrayIn[0] & arrayIn[1] & arrayIn[2] & arrayIn[3]; 
 109              		.loc 1 60 0
ARM GAS  C:\Users\luvsd\AppData\Local\Temp\ccMFAyWA.s 			page 4


 110 001c 6568     		ldr	r5, [r4, #4]
 111 001e A368     		ldr	r3, [r4, #8]
 112 0020 1A00     		movs	r2, r3
 113 0022 2A40     		ands	r2, r5
 114 0024 E068     		ldr	r0, [r4, #12]
 115 0026 0240     		ands	r2, r0
 116 0028 2169     		ldr	r1, [r4, #16]
 117 002a 0A40     		ands	r2, r1
 118 002c 6669     		ldr	r6, [r4, #20]
 119 002e 3243     		orrs	r2, r6
  61:lib/IOUtil.c  ****     keep &= arrayIn[0] | arrayIn[1] | arrayIn[2] | arrayIn[3]; 
 120              		.loc 1 61 0
 121 0030 2B43     		orrs	r3, r5
 122 0032 0343     		orrs	r3, r0
 123 0034 0B43     		orrs	r3, r1
 124 0036 1340     		ands	r3, r2
 125 0038 6361     		str	r3, [r4, #20]
 126              	.LVL4:
  62:lib/IOUtil.c  ****     //....................................................... 
  63:lib/IOUtil.c  **** 
  64:lib/IOUtil.c  ****     v = keep;
  65:lib/IOUtil.c  ****     for (int i = START_INPUT; i < END_OF_DEFIO; i++)
  66:lib/IOUtil.c  ****     {
  67:lib/IOUtil.c  ****         I(i) = (v & 1);// ? ON: OFF;
  68:lib/IOUtil.c  ****         v >>= 1;
  69:lib/IOUtil.c  ****     }         
  70:lib/IOUtil.c  **** }
 127              		.loc 1 70 0
 128              		@ sp needed
 129 003a 70BD     		pop	{r4, r5, r6, pc}
 130              	.L8:
 131              		.align	2
 132              	.L7:
 133 003c 00000000 		.word	.LANCHOR0
 134              		.cfi_endproc
 135              	.LFE65:
 136              		.size	glitchFiltering, .-glitchFiltering
 137              		.section	.text.updateIO,"ax",%progbits
 138              		.align	2
 139              		.global	updateIO
 140              		.code	16
 141              		.thumb_func
 142              		.type	updateIO, %function
 143              	updateIO:
 144              	.LFB66:
  71:lib/IOUtil.c  **** 
  72:lib/IOUtil.c  **** void updateIO()
  73:lib/IOUtil.c  **** {  
 145              		.loc 1 73 0
 146              		.cfi_startproc
 147              		@ args = 0, pretend = 0, frame = 0
 148              		@ frame_needed = 0, uses_anonymous_args = 0
 149 0000 F0B5     		push	{r4, r5, r6, r7, lr}
 150              		.cfi_def_cfa_offset 20
 151              		.cfi_offset 4, -20
 152              		.cfi_offset 5, -16
 153              		.cfi_offset 6, -12
ARM GAS  C:\Users\luvsd\AppData\Local\Temp\ccMFAyWA.s 			page 5


 154              		.cfi_offset 7, -8
 155              		.cfi_offset 14, -4
 156              	.LVL5:
 157              	.LBB3:
  74:lib/IOUtil.c  ****     for (int i = 0; i < MAX_IO; i++) if(g_IOUtil[i].activate)
 158              		.loc 1 74 0
 159 0002 0024     		movs	r4, #0
 160 0004 28E0     		b	.L10
 161              	.LVL6:
 162              	.L12:
 163              		.loc 1 74 0 is_stmt 0 discriminator 4
 164 0006 164B     		ldr	r3, .L13
 165 0008 1B5D     		ldrb	r3, [r3, r4]
 166 000a DB06     		lsls	r3, r3, #27
 167 000c 23D5     		bpl	.L11
  75:lib/IOUtil.c  ****     {
  76:lib/IOUtil.c  ****         g_IOUtil[i].upEdge   = ((!g_IOUtil[i].previous) &  g_IOUtil[i].current);
 168              		.loc 1 76 0 is_stmt 1
 169 000e 144D     		ldr	r5, .L13
 170 0010 285D     		ldrb	r0, [r5, r4]
 171 0012 C107     		lsls	r1, r0, #31
 172 0014 C90F     		lsrs	r1, r1, #31
 173 0016 C9B2     		uxtb	r1, r1
 174 0018 0127     		movs	r7, #1
 175 001a 7940     		eors	r1, r7
 176 001c 0E00     		movs	r6, r1
 177 001e 8107     		lsls	r1, r0, #30
 178 0020 C90F     		lsrs	r1, r1, #31
 179 0022 3140     		ands	r1, r6
 180 0024 0123     		movs	r3, #1
 181 0026 1940     		ands	r1, r3
 182 0028 8900     		lsls	r1, r1, #2
 183 002a 0422     		movs	r2, #4
 184 002c 9043     		bics	r0, r2
  77:lib/IOUtil.c  ****         g_IOUtil[i].downEdge = ( g_IOUtil[i].previous & !g_IOUtil[i].current);
 185              		.loc 1 77 0
 186 002e 0843     		orrs	r0, r1
 187 0030 C107     		lsls	r1, r0, #31
 188 0032 C90F     		lsrs	r1, r1, #31
 189 0034 8207     		lsls	r2, r0, #30
 190 0036 D20F     		lsrs	r2, r2, #31
 191 0038 5740     		eors	r7, r2
 192 003a FAB2     		uxtb	r2, r7
 193 003c 0A40     		ands	r2, r1
 194 003e 1A40     		ands	r2, r3
 195 0040 D200     		lsls	r2, r2, #3
 196 0042 0733     		adds	r3, r3, #7
 197 0044 9843     		bics	r0, r3
 198 0046 0300     		movs	r3, r0
  78:lib/IOUtil.c  ****         g_IOUtil[i].previous =  g_IOUtil[i].current;
 199              		.loc 1 78 0
 200 0048 1343     		orrs	r3, r2
 201 004a 9A07     		lsls	r2, r3, #30
 202 004c D20F     		lsrs	r2, r2, #31
 203 004e 0121     		movs	r1, #1
 204 0050 8B43     		bics	r3, r1
 205 0052 1343     		orrs	r3, r2
ARM GAS  C:\Users\luvsd\AppData\Local\Temp\ccMFAyWA.s 			page 6


 206 0054 2B55     		strb	r3, [r5, r4]
 207              	.L11:
  74:lib/IOUtil.c  ****     {
 208              		.loc 1 74 0 discriminator 2
 209 0056 0134     		adds	r4, r4, #1
 210              	.LVL7:
 211              	.L10:
  74:lib/IOUtil.c  ****     {
 212              		.loc 1 74 0 is_stmt 0 discriminator 3
 213 0058 132C     		cmp	r4, #19
 214 005a D4DD     		ble	.L12
 215              	.LBE3:
  79:lib/IOUtil.c  ****     }  
  80:lib/IOUtil.c  **** }
 216              		.loc 1 80 0 is_stmt 1
 217              		@ sp needed
 218              	.LVL8:
 219 005c F0BD     		pop	{r4, r5, r6, r7, pc}
 220              	.L14:
 221 005e C046     		.align	2
 222              	.L13:
 223 0060 00000000 		.word	g_IOUtil
 224              		.cfi_endproc
 225              	.LFE66:
 226              		.size	updateIO, .-updateIO
 227              		.section	.text.initIOT,"ax",%progbits
 228              		.align	2
 229              		.global	initIOT
 230              		.code	16
 231              		.thumb_func
 232              		.type	initIOT, %function
 233              	initIOT:
 234              	.LFB67:
  81:lib/IOUtil.c  **** //////////////////////////////////////////////////////////////////////////////////////////
  82:lib/IOUtil.c  **** // Input-Output Timer Utility
  83:lib/IOUtil.c  **** //////////////////////////////////////////////////////////////////////////////////////////
  84:lib/IOUtil.c  **** SIOTUtil g_IOTUtil[MAX_IOT];
  85:lib/IOUtil.c  **** 
  86:lib/IOUtil.c  **** void initIOT()
  87:lib/IOUtil.c  **** {
 235              		.loc 1 87 0
 236              		.cfi_startproc
 237              		@ args = 0, pretend = 0, frame = 0
 238              		@ frame_needed = 0, uses_anonymous_args = 0
 239 0000 30B5     		push	{r4, r5, lr}
 240              		.cfi_def_cfa_offset 12
 241              		.cfi_offset 4, -12
 242              		.cfi_offset 5, -8
 243              		.cfi_offset 14, -4
 244              	.LVL9:
 245              	.LBB4:
  88:lib/IOUtil.c  ****     for (int i = 0; i < MAX_IOT; i++)
 246              		.loc 1 88 0
 247 0002 0022     		movs	r2, #0
 248 0004 17E0     		b	.L16
 249              	.LVL10:
 250              	.L17:
ARM GAS  C:\Users\luvsd\AppData\Local\Temp\ccMFAyWA.s 			page 7


  89:lib/IOUtil.c  ****     {
  90:lib/IOUtil.c  ****         g_IOTUtil[i].sensor      = OFF;
 251              		.loc 1 90 0 discriminator 3
 252 0006 0D48     		ldr	r0, .L18
 253 0008 5100     		lsls	r1, r2, #1
 254 000a 8C18     		adds	r4, r1, r2
 255 000c A300     		lsls	r3, r4, #2
 256 000e 1B5C     		ldrb	r3, [r3, r0]
  91:lib/IOUtil.c  ****         g_IOTUtil[i].previous    = OFF;
 257              		.loc 1 91 0 discriminator 3
 258 0010 0124     		movs	r4, #1
 259 0012 A343     		bics	r3, r4
  92:lib/IOUtil.c  ****         g_IOTUtil[i].current     = OFF;
 260              		.loc 1 92 0 discriminator 3
 261 0014 0134     		adds	r4, r4, #1
 262 0016 A343     		bics	r3, r4
  93:lib/IOUtil.c  ****         g_IOTUtil[i].upEdge      = OFF;
 263              		.loc 1 93 0 discriminator 3
 264 0018 0234     		adds	r4, r4, #2
 265 001a A343     		bics	r3, r4
  94:lib/IOUtil.c  ****         g_IOTUtil[i].downEdge    = OFF;
 266              		.loc 1 94 0 discriminator 3
 267 001c 8D18     		adds	r5, r1, r2
 268 001e AC00     		lsls	r4, r5, #2
 269 0020 0825     		movs	r5, #8
 270 0022 AB43     		bics	r3, r5
 271 0024 0835     		adds	r5, r5, #8
 272 0026 AB43     		bics	r3, r5
 273 0028 2354     		strb	r3, [r4, r0]
  95:lib/IOUtil.c  ****         g_IOTUtil[i].elapsedTime = 0;
 274              		.loc 1 95 0 discriminator 3
 275 002a 0319     		adds	r3, r0, r4
 276 002c 0021     		movs	r1, #0
 277 002e 5960     		str	r1, [r3, #4]
  96:lib/IOUtil.c  ****         g_IOTUtil[i].targetTime  = INT_FAST32_MAX;               
 278              		.loc 1 96 0 discriminator 3
 279 0030 0349     		ldr	r1, .L18+4
 280 0032 9960     		str	r1, [r3, #8]
  88:lib/IOUtil.c  ****     {
 281              		.loc 1 88 0 discriminator 3
 282 0034 0132     		adds	r2, r2, #1
 283              	.LVL11:
 284              	.L16:
  88:lib/IOUtil.c  ****     {
 285              		.loc 1 88 0 is_stmt 0 discriminator 1
 286 0036 072A     		cmp	r2, #7
 287 0038 E5DD     		ble	.L17
 288              	.LBE4:
  97:lib/IOUtil.c  ****     }        
  98:lib/IOUtil.c  **** }
 289              		.loc 1 98 0 is_stmt 1
 290              		@ sp needed
 291 003a 30BD     		pop	{r4, r5, pc}
 292              	.L19:
 293              		.align	2
 294              	.L18:
 295 003c 00000000 		.word	g_IOTUtil
ARM GAS  C:\Users\luvsd\AppData\Local\Temp\ccMFAyWA.s 			page 8


 296 0040 FFFFFF7F 		.word	2147483647
 297              		.cfi_endproc
 298              	.LFE67:
 299              		.size	initIOT, .-initIOT
 300              		.section	.text.initIOUtil,"ax",%progbits
 301              		.align	2
 302              		.global	initIOUtil
 303              		.code	16
 304              		.thumb_func
 305              		.type	initIOUtil, %function
 306              	initIOUtil:
 307              	.LFB62:
  17:lib/IOUtil.c  ****    initIO();
 308              		.loc 1 17 0
 309              		.cfi_startproc
 310              		@ args = 0, pretend = 0, frame = 0
 311              		@ frame_needed = 0, uses_anonymous_args = 0
 312 0000 10B5     		push	{r4, lr}
 313              		.cfi_def_cfa_offset 8
 314              		.cfi_offset 4, -8
 315              		.cfi_offset 14, -4
  18:lib/IOUtil.c  ****    initIOT();
 316              		.loc 1 18 0
 317 0002 FFF7FEFF 		bl	initIO
 318              	.LVL12:
  19:lib/IOUtil.c  **** 
 319              		.loc 1 19 0
 320 0006 FFF7FEFF 		bl	initIOT
 321              	.LVL13:
 322              	.LBB5:
  21:lib/IOUtil.c  **** }
 323              		.loc 1 21 0
 324 000a 0024     		movs	r4, #0
 325 000c 02E0     		b	.L21
 326              	.LVL14:
 327              	.L22:
  21:lib/IOUtil.c  **** }
 328              		.loc 1 21 0 is_stmt 0 discriminator 3
 329 000e FFF7FEFF 		bl	glitchFiltering
 330              	.LVL15:
 331 0012 0134     		adds	r4, r4, #1
 332              	.LVL16:
 333              	.L21:
  21:lib/IOUtil.c  **** }
 334              		.loc 1 21 0 discriminator 1
 335 0014 092C     		cmp	r4, #9
 336 0016 FADD     		ble	.L22
 337              	.LBE5:
  22:lib/IOUtil.c  **** 
 338              		.loc 1 22 0 is_stmt 1
 339              		@ sp needed
 340              	.LVL17:
 341 0018 10BD     		pop	{r4, pc}
 342              		.cfi_endproc
 343              	.LFE62:
 344              		.size	initIOUtil, .-initIOUtil
 345 001a C046     		.section	.text.setIOTimer,"ax",%progbits
ARM GAS  C:\Users\luvsd\AppData\Local\Temp\ccMFAyWA.s 			page 9


 346              		.align	2
 347              		.global	setIOTimer
 348              		.code	16
 349              		.thumb_func
 350              		.type	setIOTimer, %function
 351              	setIOTimer:
 352              	.LFB68:
  99:lib/IOUtil.c  **** 
 100:lib/IOUtil.c  **** void setIOTimer(int index, unsigned int targetTime, char sensorStat)
 101:lib/IOUtil.c  **** {
 353              		.loc 1 101 0
 354              		.cfi_startproc
 355              		@ args = 0, pretend = 0, frame = 0
 356              		@ frame_needed = 0, uses_anonymous_args = 0
 357              	.LVL18:
 358 0000 70B5     		push	{r4, r5, r6, lr}
 359              		.cfi_def_cfa_offset 16
 360              		.cfi_offset 4, -16
 361              		.cfi_offset 5, -12
 362              		.cfi_offset 6, -8
 363              		.cfi_offset 14, -4
 102:lib/IOUtil.c  ****     g_IOTUtil[index].targetTime = targetTime;
 364              		.loc 1 102 0
 365 0002 074C     		ldr	r4, .L24
 366 0004 4500     		lsls	r5, r0, #1
 367 0006 2E18     		adds	r6, r5, r0
 368 0008 B300     		lsls	r3, r6, #2
 369 000a 1E00     		movs	r6, r3
 370 000c E318     		adds	r3, r4, r3
 371 000e 9960     		str	r1, [r3, #8]
 103:lib/IOUtil.c  ****     g_IOTUtil[index].sensor     = sensorStat;    
 372              		.loc 1 103 0
 373 0010 0121     		movs	r1, #1
 374              	.LVL19:
 375 0012 0A40     		ands	r2, r1
 376              	.LVL20:
 377 0014 315D     		ldrb	r1, [r6, r4]
 378 0016 0120     		movs	r0, #1
 379              	.LVL21:
 380 0018 8143     		bics	r1, r0
 381 001a 0A43     		orrs	r2, r1
 382 001c 3255     		strb	r2, [r6, r4]
 104:lib/IOUtil.c  **** }
 383              		.loc 1 104 0
 384              		@ sp needed
 385 001e 70BD     		pop	{r4, r5, r6, pc}
 386              	.L25:
 387              		.align	2
 388              	.L24:
 389 0020 00000000 		.word	g_IOTUtil
 390              		.cfi_endproc
 391              	.LFE68:
 392              		.size	setIOTimer, .-setIOTimer
 393              		.section	.text.updateIOTimer,"ax",%progbits
 394              		.align	2
 395              		.global	updateIOTimer
 396              		.code	16
ARM GAS  C:\Users\luvsd\AppData\Local\Temp\ccMFAyWA.s 			page 10


 397              		.thumb_func
 398              		.type	updateIOTimer, %function
 399              	updateIOTimer:
 400              	.LFB69:
 105:lib/IOUtil.c  **** 
 106:lib/IOUtil.c  **** void updateIOTimer()
 107:lib/IOUtil.c  **** {
 401              		.loc 1 107 0
 402              		.cfi_startproc
 403              		@ args = 0, pretend = 0, frame = 0
 404              		@ frame_needed = 0, uses_anonymous_args = 0
 405 0000 F8B5     		push	{r3, r4, r5, r6, r7, lr}
 406              		.cfi_def_cfa_offset 24
 407              		.cfi_offset 3, -24
 408              		.cfi_offset 4, -20
 409              		.cfi_offset 5, -16
 410              		.cfi_offset 6, -12
 411              		.cfi_offset 7, -8
 412              		.cfi_offset 14, -4
 108:lib/IOUtil.c  ****     uint8 b1ms = get1msecTimerReset();
 413              		.loc 1 108 0
 414 0002 FFF7FEFF 		bl	get1msecTimerReset
 415              	.LVL22:
 416 0006 C0B2     		uxtb	r0, r0
 417              	.LVL23:
 418              	.LBB6:
 109:lib/IOUtil.c  ****     
 110:lib/IOUtil.c  ****     for (int i = 0; i < MAX_IOT; i++)
 419              		.loc 1 110 0
 420 0008 0023     		movs	r3, #0
 421 000a 72E0     		b	.L27
 422              	.LVL24:
 423              	.L32:
 111:lib/IOUtil.c  ****     {  
 112:lib/IOUtil.c  ****         if (g_IOTUtil[i].sensor) //sensor detected
 424              		.loc 1 112 0
 425 000c 5A00     		lsls	r2, r3, #1
 426 000e D218     		adds	r2, r2, r3
 427 0010 9100     		lsls	r1, r2, #2
 428 0012 3A4A     		ldr	r2, .L37
 429 0014 8A5C     		ldrb	r2, [r1, r2]
 430 0016 D207     		lsls	r2, r2, #31
 431 0018 D20F     		lsrs	r2, r2, #31
 432 001a D2B2     		uxtb	r2, r2
 433 001c 002A     		cmp	r2, #0
 434 001e 12D0     		beq	.L28
 113:lib/IOUtil.c  ****         {  
 114:lib/IOUtil.c  ****             if (g_IOTUtil[i].elapsedTime < g_IOTUtil[i].targetTime && b1ms) g_IOTUtil[i].elapsedTim
 435              		.loc 1 114 0
 436 0020 5900     		lsls	r1, r3, #1
 437 0022 C918     		adds	r1, r1, r3
 438 0024 8A00     		lsls	r2, r1, #2
 439 0026 3549     		ldr	r1, .L37
 440 0028 8A18     		adds	r2, r1, r2
 441 002a 5168     		ldr	r1, [r2, #4]
 442 002c 9268     		ldr	r2, [r2, #8]
 443 002e 9142     		cmp	r1, r2
ARM GAS  C:\Users\luvsd\AppData\Local\Temp\ccMFAyWA.s 			page 11


 444 0030 16D2     		bcs	.L29
 445              		.loc 1 114 0 is_stmt 0 discriminator 1
 446 0032 0028     		cmp	r0, #0
 447 0034 14D0     		beq	.L29
 448              		.loc 1 114 0 discriminator 2
 449 0036 5C00     		lsls	r4, r3, #1
 450 0038 E418     		adds	r4, r4, r3
 451 003a A200     		lsls	r2, r4, #2
 452 003c 2F4C     		ldr	r4, .L37
 453 003e A218     		adds	r2, r4, r2
 454 0040 0131     		adds	r1, r1, #1
 455 0042 5160     		str	r1, [r2, #4]
 456 0044 0CE0     		b	.L29
 457              	.L28:
 115:lib/IOUtil.c  ****         }
 116:lib/IOUtil.c  ****         else //sensor not detected
 117:lib/IOUtil.c  ****         {
 118:lib/IOUtil.c  ****             g_IOTUtil[i].elapsedTime = 0;
 458              		.loc 1 118 0 is_stmt 1
 459 0046 2D4C     		ldr	r4, .L37
 460 0048 5A00     		lsls	r2, r3, #1
 461 004a D518     		adds	r5, r2, r3
 462 004c A900     		lsls	r1, r5, #2
 463 004e 6118     		adds	r1, r4, r1
 464 0050 0025     		movs	r5, #0
 465 0052 4D60     		str	r5, [r1, #4]
 119:lib/IOUtil.c  ****             g_IOTUtil[i].current     = OFF;
 466              		.loc 1 119 0
 467 0054 D218     		adds	r2, r2, r3
 468 0056 9100     		lsls	r1, r2, #2
 469 0058 0A5D     		ldrb	r2, [r1, r4]
 470 005a 0435     		adds	r5, r5, #4
 471 005c AA43     		bics	r2, r5
 472 005e 0A55     		strb	r2, [r1, r4]
 473              	.L29:
 120:lib/IOUtil.c  ****         }
 121:lib/IOUtil.c  **** 
 122:lib/IOUtil.c  ****         
 123:lib/IOUtil.c  **** //        g_IOTUtil[i].current   = (g_IOTUtil[i].elapsedTime >= g_IOTUtil[i].targetTime);   
 124:lib/IOUtil.c  **** //        g_IOTUtil[i].upEdge    = (( g_IOTUtil[i].current) && (~g_IOTUtil[i].previous));
 125:lib/IOUtil.c  **** //        g_IOTUtil[i].downEdge  = ((~g_IOTUtil[i].current) && ( g_IOTUtil[i].previous));
 126:lib/IOUtil.c  **** //        g_IOTUtil[i].previous  = g_IOTUtil[i].current;  
 127:lib/IOUtil.c  ****         
 128:lib/IOUtil.c  ****         g_IOTUtil[i].current   = (g_IOTUtil[i].elapsedTime >= g_IOTUtil[i].targetTime);   
 474              		.loc 1 128 0
 475 0060 264D     		ldr	r5, .L37
 476 0062 5900     		lsls	r1, r3, #1
 477 0064 CC18     		adds	r4, r1, r3
 478 0066 A200     		lsls	r2, r4, #2
 479 0068 AA18     		adds	r2, r5, r2
 480 006a 5668     		ldr	r6, [r2, #4]
 481 006c 9468     		ldr	r4, [r2, #8]
 482 006e 0022     		movs	r2, #0
 483 0070 A642     		cmp	r6, r4
 484 0072 5241     		adcs	r2, r2, r2
 485 0074 D2B2     		uxtb	r2, r2
 486 0076 C918     		adds	r1, r1, r3
ARM GAS  C:\Users\luvsd\AppData\Local\Temp\ccMFAyWA.s 			page 12


 487 0078 8E00     		lsls	r6, r1, #2
 488 007a 0121     		movs	r1, #1
 489 007c 1140     		ands	r1, r2
 490 007e 8C00     		lsls	r4, r1, #2
 491 0080 715D     		ldrb	r1, [r6, r5]
 492 0082 0427     		movs	r7, #4
 493 0084 B943     		bics	r1, r7
 494 0086 2143     		orrs	r1, r4
 495 0088 7155     		strb	r1, [r6, r5]
 129:lib/IOUtil.c  ****         g_IOTUtil[i].upEdge    = (( g_IOTUtil[i].current) && (!g_IOTUtil[i].previous));
 496              		.loc 1 129 0
 497 008a 002A     		cmp	r2, #0
 498 008c 04D0     		beq	.L33
 499              		.loc 1 129 0 is_stmt 0 discriminator 1
 500 008e 725D     		ldrb	r2, [r6, r5]
 501 0090 9207     		lsls	r2, r2, #30
 502 0092 03D5     		bpl	.L34
 503              		.loc 1 129 0
 504 0094 0022     		movs	r2, #0
 505 0096 02E0     		b	.L30
 506              	.L33:
 507 0098 0022     		movs	r2, #0
 508 009a 00E0     		b	.L30
 509              	.L34:
 510 009c 0122     		movs	r2, #1
 511              	.L30:
 512              		.loc 1 129 0 discriminator 6
 513 009e 174D     		ldr	r5, .L37
 514 00a0 5900     		lsls	r1, r3, #1
 515 00a2 C918     		adds	r1, r1, r3
 516 00a4 8C00     		lsls	r4, r1, #2
 517 00a6 D100     		lsls	r1, r2, #3
 518 00a8 625D     		ldrb	r2, [r4, r5]
 519 00aa 0826     		movs	r6, #8
 520 00ac B243     		bics	r2, r6
 521 00ae 0A43     		orrs	r2, r1
 522 00b0 6255     		strb	r2, [r4, r5]
 130:lib/IOUtil.c  ****         g_IOTUtil[i].downEdge  = ((!g_IOTUtil[i].current) && ( g_IOTUtil[i].previous));
 523              		.loc 1 130 0 is_stmt 1 discriminator 6
 524 00b2 5207     		lsls	r2, r2, #29
 525 00b4 04D4     		bmi	.L35
 526              		.loc 1 130 0 is_stmt 0 discriminator 1
 527 00b6 625D     		ldrb	r2, [r4, r5]
 528 00b8 9207     		lsls	r2, r2, #30
 529 00ba 03D4     		bmi	.L36
 530              		.loc 1 130 0
 531 00bc 0022     		movs	r2, #0
 532 00be 02E0     		b	.L31
 533              	.L35:
 534 00c0 0022     		movs	r2, #0
 535 00c2 00E0     		b	.L31
 536              	.L36:
 537 00c4 0122     		movs	r2, #1
 538              	.L31:
 539              		.loc 1 130 0 discriminator 6
 540 00c6 0D4C     		ldr	r4, .L37
 541 00c8 5D00     		lsls	r5, r3, #1
ARM GAS  C:\Users\luvsd\AppData\Local\Temp\ccMFAyWA.s 			page 13


 542 00ca E918     		adds	r1, r5, r3
 543 00cc 8F00     		lsls	r7, r1, #2
 544 00ce 0126     		movs	r6, #1
 545 00d0 3240     		ands	r2, r6
 546 00d2 1101     		lsls	r1, r2, #4
 547 00d4 3A5D     		ldrb	r2, [r7, r4]
 548 00d6 1027     		movs	r7, #16
 549 00d8 BA43     		bics	r2, r7
 131:lib/IOUtil.c  ****         g_IOTUtil[i].previous  = g_IOTUtil[i].current;  
 550              		.loc 1 131 0 is_stmt 1 discriminator 6
 551 00da 0A43     		orrs	r2, r1
 552 00dc 5107     		lsls	r1, r2, #29
 553 00de C90F     		lsrs	r1, r1, #31
 554 00e0 ED18     		adds	r5, r5, r3
 555 00e2 AF00     		lsls	r7, r5, #2
 556 00e4 3140     		ands	r1, r6
 557 00e6 4900     		lsls	r1, r1, #1
 558 00e8 0225     		movs	r5, #2
 559 00ea AA43     		bics	r2, r5
 560 00ec 0A43     		orrs	r2, r1
 561 00ee 3A55     		strb	r2, [r7, r4]
 110:lib/IOUtil.c  ****     {  
 562              		.loc 1 110 0 discriminator 6
 563 00f0 0133     		adds	r3, r3, #1
 564              	.LVL25:
 565              	.L27:
 110:lib/IOUtil.c  ****     {  
 566              		.loc 1 110 0 is_stmt 0 discriminator 2
 567 00f2 072B     		cmp	r3, #7
 568 00f4 8ADD     		ble	.L32
 569              	.LBE6:
 132:lib/IOUtil.c  **** /*       
 133:lib/IOUtil.c  ****         g_IOTUtil[i].current   = (g_IOTUtil[i].elapsedTime >= g_IOTUtil[i].targetTime)             
 134:lib/IOUtil.c  ****         g_IOTUtil[i].upEdge    = ((g_IOTUtil[i].current > 0)  && (g_IOTUtil[i].previous == OFF)) ? 
 135:lib/IOUtil.c  ****         g_IOTUtil[i].downEdge  = ((g_IOTUtil[i].current == OFF) && (g_IOTUtil[i].previous == ON  ))
 136:lib/IOUtil.c  ****         g_IOTUtil[i].previous  = g_IOTUtil[i].current;  */
 137:lib/IOUtil.c  ****      }
 138:lib/IOUtil.c  ****     
 139:lib/IOUtil.c  ****     doTimer();
 570              		.loc 1 139 0 is_stmt 1
 571 00f6 FFF7FEFF 		bl	doTimer
 572              	.LVL26:
 140:lib/IOUtil.c  **** }
 573              		.loc 1 140 0
 574              		@ sp needed
 575 00fa F8BD     		pop	{r3, r4, r5, r6, r7, pc}
 576              	.L38:
 577              		.align	2
 578              	.L37:
 579 00fc 00000000 		.word	g_IOTUtil
 580              		.cfi_endproc
 581              	.LFE69:
 582              		.size	updateIOTimer, .-updateIOTimer
 583              		.section	.text.updateIOStat,"ax",%progbits
 584              		.align	2
 585              		.global	updateIOStat
 586              		.code	16
ARM GAS  C:\Users\luvsd\AppData\Local\Temp\ccMFAyWA.s 			page 14


 587              		.thumb_func
 588              		.type	updateIOStat, %function
 589              	updateIOStat:
 590              	.LFB63:
  25:lib/IOUtil.c  ****     doOutput();
 591              		.loc 1 25 0
 592              		.cfi_startproc
 593              		@ args = 0, pretend = 0, frame = 0
 594              		@ frame_needed = 0, uses_anonymous_args = 0
 595 0000 10B5     		push	{r4, lr}
 596              		.cfi_def_cfa_offset 8
 597              		.cfi_offset 4, -8
 598              		.cfi_offset 14, -4
  26:lib/IOUtil.c  ****         
 599              		.loc 1 26 0
 600 0002 FFF7FEFF 		bl	doOutput
 601              	.LVL27:
  28:lib/IOUtil.c  ****     updateIO(); 
 602              		.loc 1 28 0
 603 0006 FFF7FEFF 		bl	glitchFiltering
 604              	.LVL28:
  29:lib/IOUtil.c  ****     updateIOTimer();
 605              		.loc 1 29 0
 606 000a FFF7FEFF 		bl	updateIO
 607              	.LVL29:
  30:lib/IOUtil.c  **** }
 608              		.loc 1 30 0
 609 000e FFF7FEFF 		bl	updateIOTimer
 610              	.LVL30:
  31:lib/IOUtil.c  **** 
 611              		.loc 1 31 0
 612              		@ sp needed
 613 0012 10BD     		pop	{r4, pc}
 614              		.cfi_endproc
 615              	.LFE63:
 616              		.size	updateIOStat, .-updateIOStat
 617              		.section	.text.waitTime,"ax",%progbits
 618              		.align	2
 619              		.global	waitTime
 620              		.code	16
 621              		.thumb_func
 622              		.type	waitTime, %function
 623              	waitTime:
 624              	.LFB70:
 141:lib/IOUtil.c  **** 
 142:lib/IOUtil.c  **** char waitTime(unsigned int id, unsigned long timeout)
 143:lib/IOUtil.c  **** {
 625              		.loc 1 143 0
 626              		.cfi_startproc
 627              		@ args = 0, pretend = 0, frame = 0
 628              		@ frame_needed = 0, uses_anonymous_args = 0
 629              	.LVL31:
 630 0000 10B5     		push	{r4, lr}
 631              		.cfi_def_cfa_offset 8
 632              		.cfi_offset 4, -8
 633              		.cfi_offset 14, -4
 634 0002 0400     		movs	r4, r0
ARM GAS  C:\Users\luvsd\AppData\Local\Temp\ccMFAyWA.s 			page 15


 144:lib/IOUtil.c  ****     if(timeout == 0)
 635              		.loc 1 144 0
 636 0004 0029     		cmp	r1, #0
 637 0006 04D1     		bne	.L41
 145:lib/IOUtil.c  ****         setIOTimer(id, 1, OFF);
 638              		.loc 1 145 0
 639 0008 0022     		movs	r2, #0
 640 000a 0131     		adds	r1, r1, #1
 641              	.LVL32:
 642 000c FFF7FEFF 		bl	setIOTimer
 643              	.LVL33:
 644 0010 02E0     		b	.L42
 645              	.LVL34:
 646              	.L41:
 146:lib/IOUtil.c  ****     else
 147:lib/IOUtil.c  ****         setIOTimer(id, timeout, ON);
 647              		.loc 1 147 0
 648 0012 0122     		movs	r2, #1
 649 0014 FFF7FEFF 		bl	setIOTimer
 650              	.LVL35:
 651              	.L42:
 148:lib/IOUtil.c  ****         
 149:lib/IOUtil.c  ****     if(uT(id))
 652              		.loc 1 149 0
 653 0018 6300     		lsls	r3, r4, #1
 654 001a 1B19     		adds	r3, r3, r4
 655 001c 9A00     		lsls	r2, r3, #2
 656 001e 064B     		ldr	r3, .L45
 657 0020 D35C     		ldrb	r3, [r2, r3]
 658 0022 1B07     		lsls	r3, r3, #28
 659 0024 06D5     		bpl	.L44
 150:lib/IOUtil.c  ****     {
 151:lib/IOUtil.c  ****         setIOTimer(id, 1, OFF);
 660              		.loc 1 151 0
 661 0026 0022     		movs	r2, #0
 662 0028 0121     		movs	r1, #1
 663 002a 2000     		movs	r0, r4
 664 002c FFF7FEFF 		bl	setIOTimer
 665              	.LVL36:
 152:lib/IOUtil.c  ****         return TRUE;
 666              		.loc 1 152 0
 667 0030 0120     		movs	r0, #1
 668 0032 00E0     		b	.L43
 669              	.L44:
 153:lib/IOUtil.c  ****     }
 154:lib/IOUtil.c  ****     return FALSE;    
 670              		.loc 1 154 0
 671 0034 0020     		movs	r0, #0
 672              	.L43:
 155:lib/IOUtil.c  **** }...
 673              		.loc 1 155 0
 674              		@ sp needed
 675              	.LVL37:
 676 0036 10BD     		pop	{r4, pc}
 677              	.L46:
 678              		.align	2
 679              	.L45:
ARM GAS  C:\Users\luvsd\AppData\Local\Temp\ccMFAyWA.s 			page 16


 680 0038 00000000 		.word	g_IOTUtil
 681              		.cfi_endproc
 682              	.LFE70:
 683              		.size	waitTime, .-waitTime
 684              		.comm	g_IOTUtil,96,4
 685              		.comm	g_IOUtil,20,4
 686              		.comm	Param,6,4
 687              		.bss
 688              		.align	2
 689              		.set	.LANCHOR0,. + 0
 690              		.type	arrayIndex.8857, %object
 691              		.size	arrayIndex.8857, 4
 692              	arrayIndex.8857:
 693 0000 00000000 		.space	4
 694              		.type	arrayIn.8856, %object
 695              		.size	arrayIn.8856, 16
 696              	arrayIn.8856:
 697 0004 00000000 		.space	16
 697      00000000 
 697      00000000 
 697      00000000 
 698              		.type	keep.8855, %object
 699              		.size	keep.8855, 4
 700              	keep.8855:
 701 0014 00000000 		.space	4
 702              		.text
 703              	.Letext0:
 704              		.file 2 "Generated_Source\\PSoC4/cytypes.h"
 705              		.file 3 "./main.h"
 706              		.file 4 "lib\\IOUtil.h"
 707              		.file 5 "lib\\IODefine.h"
 708              		.file 6 "Generated_Source\\PSoC4/RTC.h"