ARM GAS  C:\Users\luvsd\AppData\Local\Temp\cc5ujYQb.s 			page 1


   1              		.syntax unified
   2              		.cpu cortex-m0
   3              		.fpu softvfp
   4              		.eabi_attribute 20, 1
   5              		.eabi_attribute 21, 1
   6              		.eabi_attribute 23, 3
   7              		.eabi_attribute 24, 1
   8              		.eabi_attribute 25, 1
   9              		.eabi_attribute 26, 1
  10              		.eabi_attribute 30, 1
  11              		.eabi_attribute 34, 0
  12              		.eabi_attribute 18, 4
  13              		.thumb
  14              		.syntax unified
  15              		.file	"jsonUtil.c"
  16              		.text
  17              	.Ltext0:
  18              		.cfi_sections	.debug_frame
  19              		.section	.text.replaceWord,"ax",%progbits
  20              		.align	2
  21              		.global	replaceWord
  22              		.code	16
  23              		.thumb_func
  24              		.type	replaceWord, %function
  25              	replaceWord:
  26              	.LFB62:
  27              		.file 1 "jsonUtil.c"
   1:jsonUtil.c    **** /* ========================================
   2:jsonUtil.c    ****  *
   3:jsonUtil.c    ****  * Copyright Suntech, 2023.02.01
   4:jsonUtil.c    ****  * All Rights Reserved
   5:jsonUtil.c    ****  * UNPUBLISHED, LICENSED SOFTWARE.
   6:jsonUtil.c    ****  *
   7:jsonUtil.c    ****  * CONFIDENTIAL AND PROPRIETARY INFORMATION
   8:jsonUtil.c    ****  * WHICH IS THE PROPERTY OF Suntech.
   9:jsonUtil.c    ****  *
  10:jsonUtil.c    ****  * ========================================
  11:jsonUtil.c    **** */
  12:jsonUtil.c    **** #include "jsonUtil.h"
  13:jsonUtil.c    **** #include "main.h"
  14:jsonUtil.c    **** 
  15:jsonUtil.c    **** char* replaceWord(const char* s, const char* oldW,
  16:jsonUtil.c    ****                 const char* newW)
  17:jsonUtil.c    **** {
  28              		.loc 1 17 0
  29              		.cfi_startproc
  30              		@ args = 0, pretend = 0, frame = 24
  31              		@ frame_needed = 0, uses_anonymous_args = 0
  32              	.LVL0:
  33 0000 F0B5     		push	{r4, r5, r6, r7, lr}
  34              		.cfi_def_cfa_offset 20
  35              		.cfi_offset 4, -20
  36              		.cfi_offset 5, -16
  37              		.cfi_offset 6, -12
  38              		.cfi_offset 7, -8
  39              		.cfi_offset 14, -4
  40 0002 5F46     		mov	r7, fp
ARM GAS  C:\Users\luvsd\AppData\Local\Temp\cc5ujYQb.s 			page 2


  41 0004 80B4     		push	{r7}
  42              		.cfi_def_cfa_offset 24
  43              		.cfi_offset 11, -24
  44 0006 86B0     		sub	sp, sp, #24
  45              		.cfi_def_cfa_offset 48
  46 0008 0400     		movs	r4, r0
  47 000a 0D00     		movs	r5, r1
  48 000c 0091     		str	r1, [sp]
  49 000e 0592     		str	r2, [sp, #20]
  50              	.LVL1:
  18:jsonUtil.c    ****     char* result;
  19:jsonUtil.c    ****     int i, cnt = 0;
  20:jsonUtil.c    ****     int newWlen = strlen(newW);
  51              		.loc 1 20 0
  52 0010 1000     		movs	r0, r2
  53              	.LVL2:
  54 0012 FFF7FEFF 		bl	strlen
  55              	.LVL3:
  56 0016 0190     		str	r0, [sp, #4]
  57 0018 0390     		str	r0, [sp, #12]
  58              	.LVL4:
  21:jsonUtil.c    ****     int oldWlen = strlen(oldW);
  59              		.loc 1 21 0
  60 001a 2800     		movs	r0, r5
  61              	.LVL5:
  62 001c FFF7FEFF 		bl	strlen
  63              	.LVL6:
  64 0020 0290     		str	r0, [sp, #8]
  65 0022 0490     		str	r0, [sp, #16]
  66 0024 8346     		mov	fp, r0
  67              	.LVL7:
  19:jsonUtil.c    ****     int newWlen = strlen(newW);
  68              		.loc 1 19 0
  69 0026 0027     		movs	r7, #0
  22:jsonUtil.c    ****  
  23:jsonUtil.c    ****     // Counting the number of times old word
  24:jsonUtil.c    ****     // occur in the string
  25:jsonUtil.c    ****     for (i = 0; s[i] != '\0'; i++) {
  70              		.loc 1 25 0
  71 0028 0026     		movs	r6, #0
  72 002a 0AE0     		b	.L2
  73              	.LVL8:
  74              	.L4:
  26:jsonUtil.c    ****         if (strstr(&s[i], oldW) == &s[i]) {
  75              		.loc 1 26 0
  76 002c 0099     		ldr	r1, [sp]
  77 002e 2800     		movs	r0, r5
  78 0030 FFF7FEFF 		bl	strstr
  79              	.LVL9:
  80 0034 8542     		cmp	r5, r0
  81 0036 03D1     		bne	.L3
  27:jsonUtil.c    ****             cnt++;
  82              		.loc 1 27 0
  83 0038 0137     		adds	r7, r7, #1
  84              	.LVL10:
  28:jsonUtil.c    ****  
  29:jsonUtil.c    ****             // Jumping to index after the old word.
ARM GAS  C:\Users\luvsd\AppData\Local\Temp\cc5ujYQb.s 			page 3


  30:jsonUtil.c    ****             i += oldWlen - 1;
  85              		.loc 1 30 0
  86 003a 5B46     		mov	r3, fp
  87 003c 013B     		subs	r3, r3, #1
  88 003e F618     		adds	r6, r6, r3
  89              	.LVL11:
  90              	.L3:
  25:jsonUtil.c    ****         if (strstr(&s[i], oldW) == &s[i]) {
  91              		.loc 1 25 0 discriminator 2
  92 0040 0136     		adds	r6, r6, #1
  93              	.LVL12:
  94              	.L2:
  25:jsonUtil.c    ****         if (strstr(&s[i], oldW) == &s[i]) {
  95              		.loc 1 25 0 is_stmt 0 discriminator 1
  96 0042 A519     		adds	r5, r4, r6
  97 0044 2B78     		ldrb	r3, [r5]
  98 0046 002B     		cmp	r3, #0
  99 0048 F0D1     		bne	.L4
  31:jsonUtil.c    ****         }
  32:jsonUtil.c    ****     }
  33:jsonUtil.c    ****  
  34:jsonUtil.c    ****     // Making new string of enough length
  35:jsonUtil.c    ****     result = (char*)malloc(i + cnt * (newWlen - oldWlen) + 1);
 100              		.loc 1 35 0 is_stmt 1
 101 004a 019B     		ldr	r3, [sp, #4]
 102 004c 029A     		ldr	r2, [sp, #8]
 103 004e 981A     		subs	r0, r3, r2
 104 0050 7843     		muls	r0, r7
 105 0052 3018     		adds	r0, r6, r0
 106 0054 0130     		adds	r0, r0, #1
 107 0056 FFF7FEFF 		bl	malloc
 108              	.LVL13:
 109 005a 0700     		movs	r7, r0
 110              	.LVL14:
  36:jsonUtil.c    ****  
  37:jsonUtil.c    ****     i = 0;
 111              		.loc 1 37 0
 112 005c 0026     		movs	r6, #0
  38:jsonUtil.c    ****     while (*s) {
 113              		.loc 1 38 0
 114 005e 13E0     		b	.L5
 115              	.LVL15:
 116              	.L8:
  39:jsonUtil.c    ****         // compare the substring with the result
  40:jsonUtil.c    ****         if (strstr(s, oldW) == s) {
 117              		.loc 1 40 0
 118 0060 0099     		ldr	r1, [sp]
 119 0062 2000     		movs	r0, r4
 120 0064 FFF7FEFF 		bl	strstr
 121              	.LVL16:
 122 0068 8442     		cmp	r4, r0
 123 006a 0AD1     		bne	.L6
  41:jsonUtil.c    ****             strcpy(&result[i], newW);
 124              		.loc 1 41 0
 125 006c B819     		adds	r0, r7, r6
 126 006e 0599     		ldr	r1, [sp, #20]
 127 0070 FFF7FEFF 		bl	strcpy
ARM GAS  C:\Users\luvsd\AppData\Local\Temp\cc5ujYQb.s 			page 4


 128              	.LVL17:
  42:jsonUtil.c    ****             i += newWlen;
 129              		.loc 1 42 0
 130 0074 039B     		ldr	r3, [sp, #12]
 131 0076 9C46     		mov	ip, r3
 132 0078 6644     		add	r6, r6, ip
 133              	.LVL18:
  43:jsonUtil.c    ****             s += oldWlen;
 134              		.loc 1 43 0
 135 007a 049B     		ldr	r3, [sp, #16]
 136 007c 9C46     		mov	ip, r3
 137 007e 6444     		add	r4, r4, ip
 138              	.LVL19:
 139 0080 02E0     		b	.L5
 140              	.L6:
 141              	.LVL20:
  44:jsonUtil.c    ****         }
  45:jsonUtil.c    ****         else
  46:jsonUtil.c    ****             result[i++] = *s++;
 142              		.loc 1 46 0
 143 0082 0134     		adds	r4, r4, #1
 144              	.LVL21:
 145 0084 BD55     		strb	r5, [r7, r6]
 146 0086 0136     		adds	r6, r6, #1
 147              	.LVL22:
 148              	.L5:
  38:jsonUtil.c    ****         // compare the substring with the result
 149              		.loc 1 38 0
 150 0088 2578     		ldrb	r5, [r4]
 151 008a 002D     		cmp	r5, #0
 152 008c E8D1     		bne	.L8
  47:jsonUtil.c    ****     }
  48:jsonUtil.c    ****  
  49:jsonUtil.c    ****     result[i] = '\0';
 153              		.loc 1 49 0
 154 008e BE19     		adds	r6, r7, r6
 155              	.LVL23:
 156 0090 0023     		movs	r3, #0
 157 0092 3370     		strb	r3, [r6]
  50:jsonUtil.c    ****     return result;
  51:jsonUtil.c    **** }
 158              		.loc 1 51 0
 159 0094 3800     		movs	r0, r7
 160 0096 06B0     		add	sp, sp, #24
 161              	.LVL24:
 162              		@ sp needed
 163              	.LVL25:
 164              	.LVL26:
 165              	.LVL27:
 166 0098 04BC     		pop	{r2}
 167 009a 9346     		mov	fp, r2
 168 009c F0BD     		pop	{r4, r5, r6, r7, pc}
 169              		.cfi_endproc
 170              	.LFE62:
 171              		.size	replaceWord, .-replaceWord
 172 009e C046     		.section	.text.removeBackSlash,"ax",%progbits
 173              		.align	2
ARM GAS  C:\Users\luvsd\AppData\Local\Temp\cc5ujYQb.s 			page 5


 174              		.global	removeBackSlash
 175              		.code	16
 176              		.thumb_func
 177              		.type	removeBackSlash, %function
 178              	removeBackSlash:
 179              	.LFB63:
  52:jsonUtil.c    **** 
  53:jsonUtil.c    **** void removeBackSlash(char *str)
  54:jsonUtil.c    **** {
 180              		.loc 1 54 0
 181              		.cfi_startproc
 182              		@ args = 0, pretend = 0, frame = 0
 183              		@ frame_needed = 0, uses_anonymous_args = 0
 184              	.LVL28:
 185 0000 70B5     		push	{r4, r5, r6, lr}
 186              		.cfi_def_cfa_offset 16
 187              		.cfi_offset 4, -16
 188              		.cfi_offset 5, -12
 189              		.cfi_offset 6, -8
 190              		.cfi_offset 14, -4
 191 0002 0500     		movs	r5, r0
  55:jsonUtil.c    ****     int len = strlen(str);
 192              		.loc 1 55 0
 193 0004 FFF7FEFF 		bl	strlen
 194              	.LVL29:
 195              	.LBB2:
  56:jsonUtil.c    ****     
  57:jsonUtil.c    ****     for(int i=0; i < len-1; i++)
 196              		.loc 1 57 0
 197 0008 0023     		movs	r3, #0
 198 000a 16E0     		b	.L10
 199              	.LVL30:
 200              	.L14:
 201              	.LBB3:
  58:jsonUtil.c    ****     {
  59:jsonUtil.c    ****         int j=i+1;
 202              		.loc 1 59 0
 203 000c 5E1C     		adds	r6, r3, #1
 204              	.LVL31:
  60:jsonUtil.c    ****         if(str[i] == '\\' && (str[j] == '/' || str[j] == '"' || str[j] == '\'') )
 205              		.loc 1 60 0
 206 000e EA5C     		ldrb	r2, [r5, r3]
 207 0010 5C2A     		cmp	r2, #92
 208 0012 11D1     		bne	.L11
 209              		.loc 1 60 0 is_stmt 0 discriminator 1
 210 0014 AA5D     		ldrb	r2, [r5, r6]
 211 0016 2F2A     		cmp	r2, #47
 212 0018 08D0     		beq	.L12
 213              		.loc 1 60 0 discriminator 2
 214 001a 222A     		cmp	r2, #34
 215 001c 06D0     		beq	.L12
 216              		.loc 1 60 0 discriminator 3
 217 001e 272A     		cmp	r2, #39
 218 0020 0AD1     		bne	.L11
 219 0022 03E0     		b	.L12
 220              	.LVL32:
 221              	.L13:
ARM GAS  C:\Users\luvsd\AppData\Local\Temp\cc5ujYQb.s 			page 6


 222              	.LBB4:
  61:jsonUtil.c    ****         {
  62:jsonUtil.c    ****             for(int k=i; k < len-1; k++) str[k] = str[k+1];
 223              		.loc 1 62 0 is_stmt 1 discriminator 3
 224 0024 EA18     		adds	r2, r5, r3
 225 0026 5478     		ldrb	r4, [r2, #1]
 226 0028 1470     		strb	r4, [r2]
 227 002a 0133     		adds	r3, r3, #1
 228              	.LVL33:
 229              	.L12:
 230              		.loc 1 62 0 is_stmt 0 discriminator 1
 231 002c 8B42     		cmp	r3, r1
 232 002e F9DB     		blt	.L13
 233              	.LVL34:
 234              	.LBE4:
  63:jsonUtil.c    ****             str[len--] = '\0';
 235              		.loc 1 63 0 is_stmt 1
 236 0030 2B18     		adds	r3, r5, r0
 237              	.LVL35:
 238 0032 0022     		movs	r2, #0
 239 0034 1A70     		strb	r2, [r3]
  64:jsonUtil.c    ****             len--;
 240              		.loc 1 64 0
 241 0036 0238     		subs	r0, r0, #2
 242              	.LVL36:
 243              	.L11:
 244              	.LBE3:
 245              	.LBE2:
  54:jsonUtil.c    ****     int len = strlen(str);
 246              		.loc 1 54 0 discriminator 1
 247 0038 3300     		movs	r3, r6
 248              	.LVL37:
 249              	.L10:
 250              	.LBB5:
  57:jsonUtil.c    ****     {
 251              		.loc 1 57 0 discriminator 1
 252 003a 411E     		subs	r1, r0, #1
 253 003c 8B42     		cmp	r3, r1
 254 003e E5DB     		blt	.L14
 255              	.LBE5:
  65:jsonUtil.c    ****         }
  66:jsonUtil.c    ****     }
  67:jsonUtil.c    **** }
 256              		.loc 1 67 0
 257              		@ sp needed
 258              	.LVL38:
 259 0040 70BD     		pop	{r4, r5, r6, pc}
 260              		.cfi_endproc
 261              	.LFE63:
 262              		.size	removeBackSlash, .-removeBackSlash
 263 0042 C046     		.section	.text.removeWhiteSpace,"ax",%progbits
 264              		.align	2
 265              		.global	removeWhiteSpace
 266              		.code	16
 267              		.thumb_func
 268              		.type	removeWhiteSpace, %function
 269              	removeWhiteSpace:
ARM GAS  C:\Users\luvsd\AppData\Local\Temp\cc5ujYQb.s 			page 7


 270              	.LFB64:
  68:jsonUtil.c    **** 
  69:jsonUtil.c    **** void removeWhiteSpace(char *str)
  70:jsonUtil.c    **** {
 271              		.loc 1 70 0
 272              		.cfi_startproc
 273              		@ args = 0, pretend = 0, frame = 0
 274              		@ frame_needed = 0, uses_anonymous_args = 0
 275              	.LVL39:
 276 0000 70B5     		push	{r4, r5, r6, lr}
 277              		.cfi_def_cfa_offset 16
 278              		.cfi_offset 4, -16
 279              		.cfi_offset 5, -12
 280              		.cfi_offset 6, -8
 281              		.cfi_offset 14, -4
 282 0002 0400     		movs	r4, r0
 283              	.LVL40:
  71:jsonUtil.c    ****     uint8 nCheck = TRUE;
 284              		.loc 1 71 0
 285 0004 0122     		movs	r2, #1
  72:jsonUtil.c    ****     while(nCheck)
 286              		.loc 1 72 0
 287 0006 25E0     		b	.L16
 288              	.LVL41:
 289              	.L22:
 290              	.LBB6:
  73:jsonUtil.c    ****     {
  74:jsonUtil.c    ****         nCheck = FALSE;
  75:jsonUtil.c    ****         unsigned int len = strlen(str);
 291              		.loc 1 75 0
 292 0008 2000     		movs	r0, r4
 293 000a FFF7FEFF 		bl	strlen
 294              	.LVL42:
 295              	.LBB7:
  76:jsonUtil.c    ****         for(unsigned int i=0; i < len; i++)
 296              		.loc 1 76 0
 297 000e 0025     		movs	r5, #0
 298              	.LBE7:
  74:jsonUtil.c    ****         unsigned int len = strlen(str);
 299              		.loc 1 74 0
 300 0010 0022     		movs	r2, #0
 301              	.LBB11:
 302              		.loc 1 76 0
 303 0012 1DE0     		b	.L17
 304              	.LVL43:
 305              	.L21:
 306              	.LBB8:
  77:jsonUtil.c    ****         {
  78:jsonUtil.c    ****             char c = str[i];
 307              		.loc 1 78 0
 308 0014 635D     		ldrb	r3, [r4, r5]
 309              	.LVL44:
  79:jsonUtil.c    ****             if(c == ' ' || c == '\t' || c == '\r' || c == '\n')
 310              		.loc 1 79 0
 311 0016 202B     		cmp	r3, #32
 312 0018 0BD0     		beq	.L23
 313              		.loc 1 79 0 is_stmt 0 discriminator 1
ARM GAS  C:\Users\luvsd\AppData\Local\Temp\cc5ujYQb.s 			page 8


 314 001a 092B     		cmp	r3, #9
 315 001c 0BD0     		beq	.L24
 316              		.loc 1 79 0 discriminator 2
 317 001e 0D2B     		cmp	r3, #13
 318 0020 0BD0     		beq	.L25
 319              		.loc 1 79 0 discriminator 3
 320 0022 0A2B     		cmp	r3, #10
 321 0024 13D1     		bne	.L19
 322 0026 0AE0     		b	.L26
 323              	.LVL45:
 324              	.L20:
 325              	.LBB9:
  80:jsonUtil.c    ****             {
  81:jsonUtil.c    ****                 for(unsigned int j=i; j < len-1; j++) str[j] = str[j+1];
 326              		.loc 1 81 0 is_stmt 1 discriminator 3
 327 0028 E218     		adds	r2, r4, r3
 328 002a 0133     		adds	r3, r3, #1
 329              	.LVL46:
 330 002c E15C     		ldrb	r1, [r4, r3]
 331 002e 1170     		strb	r1, [r2]
 332              	.LVL47:
 333 0030 06E0     		b	.L18
 334              	.LVL48:
 335              	.L23:
 336              	.LBE9:
 337 0032 2B00     		movs	r3, r5
 338              	.LVL49:
 339 0034 04E0     		b	.L18
 340              	.LVL50:
 341              	.L24:
 342 0036 2B00     		movs	r3, r5
 343              	.LVL51:
 344 0038 02E0     		b	.L18
 345              	.LVL52:
 346              	.L25:
 347 003a 2B00     		movs	r3, r5
 348              	.LVL53:
 349 003c 00E0     		b	.L18
 350              	.LVL54:
 351              	.L26:
 352 003e 2B00     		movs	r3, r5
 353              	.LVL55:
 354              	.L18:
 355              	.LBB10:
 356              		.loc 1 81 0 is_stmt 0 discriminator 1
 357 0040 421E     		subs	r2, r0, #1
 358 0042 9342     		cmp	r3, r2
 359 0044 F0D3     		bcc	.L20
 360              	.LBE10:
  82:jsonUtil.c    ****                 str[len-1] = '\0';
 361              		.loc 1 82 0 is_stmt 1
 362 0046 A218     		adds	r2, r4, r2
 363 0048 0023     		movs	r3, #0
 364              	.LVL56:
 365 004a 1370     		strb	r3, [r2]
 366              	.LVL57:
  83:jsonUtil.c    ****                  nCheck = TRUE;
ARM GAS  C:\Users\luvsd\AppData\Local\Temp\cc5ujYQb.s 			page 9


 367              		.loc 1 83 0
 368 004c 0122     		movs	r2, #1
 369              	.LVL58:
 370              	.L19:
 371              	.LBE8:
  76:jsonUtil.c    ****         {
 372              		.loc 1 76 0 discriminator 2
 373 004e 0135     		adds	r5, r5, #1
 374              	.LVL59:
 375              	.L17:
  76:jsonUtil.c    ****         {
 376              		.loc 1 76 0 is_stmt 0 discriminator 1
 377 0050 8542     		cmp	r5, r0
 378 0052 DFD3     		bcc	.L21
 379              	.LVL60:
 380              	.L16:
 381              	.LBE11:
 382              	.LBE6:
  72:jsonUtil.c    ****     {
 383              		.loc 1 72 0 is_stmt 1
 384 0054 002A     		cmp	r2, #0
 385 0056 D7D1     		bne	.L22
  84:jsonUtil.c    ****             }
  85:jsonUtil.c    ****         }
  86:jsonUtil.c    ****     }    
  87:jsonUtil.c    **** }
 386              		.loc 1 87 0
 387              		@ sp needed
 388              	.LVL61:
 389 0058 70BD     		pop	{r4, r5, r6, pc}
 390              		.cfi_endproc
 391              	.LFE64:
 392              		.size	removeWhiteSpace, .-removeWhiteSpace
 393 005a C046     		.section	.text.removeDoubleSlash,"ax",%progbits
 394              		.align	2
 395              		.global	removeDoubleSlash
 396              		.code	16
 397              		.thumb_func
 398              		.type	removeDoubleSlash, %function
 399              	removeDoubleSlash:
 400              	.LFB65:
  88:jsonUtil.c    **** 
  89:jsonUtil.c    **** void removeDoubleSlash(char *str)
  90:jsonUtil.c    **** {
 401              		.loc 1 90 0
 402              		.cfi_startproc
 403              		@ args = 0, pretend = 0, frame = 0
 404              		@ frame_needed = 0, uses_anonymous_args = 0
 405              	.LVL62:
 406 0000 70B5     		push	{r4, r5, r6, lr}
 407              		.cfi_def_cfa_offset 16
 408              		.cfi_offset 4, -16
 409              		.cfi_offset 5, -12
 410              		.cfi_offset 6, -8
 411              		.cfi_offset 14, -4
 412 0002 0400     		movs	r4, r0
 413              	.LVL63:
ARM GAS  C:\Users\luvsd\AppData\Local\Temp\cc5ujYQb.s 			page 10


  91:jsonUtil.c    ****     uint8 nCheck = TRUE;
 414              		.loc 1 91 0
 415 0004 0125     		movs	r5, #1
  92:jsonUtil.c    ****     while(nCheck)
 416              		.loc 1 92 0
 417 0006 1DE0     		b	.L28
 418              	.LVL64:
 419              	.L34:
 420              	.LBB12:
  93:jsonUtil.c    ****     {
  94:jsonUtil.c    ****         nCheck = FALSE;
  95:jsonUtil.c    ****         unsigned int len = strlen(str);
 421              		.loc 1 95 0
 422 0008 2000     		movs	r0, r4
 423 000a FFF7FEFF 		bl	strlen
 424              	.LVL65:
 425              	.LBB13:
  96:jsonUtil.c    ****         for(unsigned int i=0; i < len-1; i++)
 426              		.loc 1 96 0
 427 000e 0023     		movs	r3, #0
 428              	.LBE13:
  94:jsonUtil.c    ****         unsigned int len = strlen(str);
 429              		.loc 1 94 0
 430 0010 0025     		movs	r5, #0
 431              	.LBB17:
 432              		.loc 1 96 0
 433 0012 14E0     		b	.L29
 434              	.LVL66:
 435              	.L33:
 436              	.LBB14:
  97:jsonUtil.c    ****         {
  98:jsonUtil.c    ****             char c = str[i];
  99:jsonUtil.c    ****             if(str[i] == '/' && str[i+1] == '/')
 437              		.loc 1 99 0
 438 0014 E25C     		ldrb	r2, [r4, r3]
 439 0016 2F2A     		cmp	r2, #47
 440 0018 10D1     		bne	.L30
 441              		.loc 1 99 0 is_stmt 0 discriminator 1
 442 001a 5A1C     		adds	r2, r3, #1
 443 001c A25C     		ldrb	r2, [r4, r2]
 444 001e 2F2A     		cmp	r2, #47
 445 0020 0CD1     		bne	.L30
 446 0022 04E0     		b	.L35
 447              	.LVL67:
 448              	.L32:
 449              	.LBB15:
 100:jsonUtil.c    ****             {
 101:jsonUtil.c    ****                 for(unsigned int j=i; j < len-1; j++) str[j] = str[j+1];
 450              		.loc 1 101 0 is_stmt 1 discriminator 3
 451 0024 A518     		adds	r5, r4, r2
 452 0026 0132     		adds	r2, r2, #1
 453              	.LVL68:
 454 0028 A65C     		ldrb	r6, [r4, r2]
 455 002a 2E70     		strb	r6, [r5]
 456              	.LVL69:
 457 002c 00E0     		b	.L31
 458              	.LVL70:
ARM GAS  C:\Users\luvsd\AppData\Local\Temp\cc5ujYQb.s 			page 11


 459              	.L35:
 460              	.LBE15:
 461 002e 1A00     		movs	r2, r3
 462              	.LVL71:
 463              	.L31:
 464              	.LBB16:
 465              		.loc 1 101 0 is_stmt 0 discriminator 1
 466 0030 8A42     		cmp	r2, r1
 467 0032 F7D3     		bcc	.L32
 468              	.LBE16:
 102:jsonUtil.c    ****                 str[len-1] = '\0';
 469              		.loc 1 102 0 is_stmt 1
 470 0034 6118     		adds	r1, r4, r1
 471 0036 0022     		movs	r2, #0
 472              	.LVL72:
 473 0038 0A70     		strb	r2, [r1]
 474              	.LVL73:
 103:jsonUtil.c    ****                 nCheck = TRUE;
 475              		.loc 1 103 0
 476 003a 0125     		movs	r5, #1
 477              	.LVL74:
 478              	.L30:
 479              	.LBE14:
  96:jsonUtil.c    ****         {
 480              		.loc 1 96 0 discriminator 2
 481 003c 0133     		adds	r3, r3, #1
 482              	.LVL75:
 483              	.L29:
  96:jsonUtil.c    ****         {
 484              		.loc 1 96 0 is_stmt 0 discriminator 1
 485 003e 411E     		subs	r1, r0, #1
 486 0040 8B42     		cmp	r3, r1
 487 0042 E7D3     		bcc	.L33
 488              	.LVL76:
 489              	.L28:
 490              	.LBE17:
 491              	.LBE12:
  92:jsonUtil.c    ****     {
 492              		.loc 1 92 0 is_stmt 1
 493 0044 002D     		cmp	r5, #0
 494 0046 DFD1     		bne	.L34
 104:jsonUtil.c    ****             }
 105:jsonUtil.c    ****         }
 106:jsonUtil.c    ****     }    
 107:jsonUtil.c    **** }
 495              		.loc 1 107 0
 496              		@ sp needed
 497              	.LVL77:
 498              	.LVL78:
 499 0048 70BD     		pop	{r4, r5, r6, pc}
 500              		.cfi_endproc
 501              	.LFE65:
 502              		.size	removeDoubleSlash, .-removeDoubleSlash
 503 004a C046     		.section	.text.refineIPAddress,"ax",%progbits
 504              		.align	2
 505              		.global	refineIPAddress
 506              		.code	16
ARM GAS  C:\Users\luvsd\AppData\Local\Temp\cc5ujYQb.s 			page 12


 507              		.thumb_func
 508              		.type	refineIPAddress, %function
 509              	refineIPAddress:
 510              	.LFB66:
 108:jsonUtil.c    **** 
 109:jsonUtil.c    **** void refineIPAddress(char *str) // 주소가 아닌 것들을 삭제 한다.
 110:jsonUtil.c    **** {
 511              		.loc 1 110 0
 512              		.cfi_startproc
 513              		@ args = 0, pretend = 0, frame = 0
 514              		@ frame_needed = 0, uses_anonymous_args = 0
 515              	.LVL79:
 516 0000 70B5     		push	{r4, r5, r6, lr}
 517              		.cfi_def_cfa_offset 16
 518              		.cfi_offset 4, -16
 519              		.cfi_offset 5, -12
 520              		.cfi_offset 6, -8
 521              		.cfi_offset 14, -4
 522 0002 0400     		movs	r4, r0
 523              	.LVL80:
 111:jsonUtil.c    ****     uint8 nCheck = TRUE;
 524              		.loc 1 111 0
 525 0004 0121     		movs	r1, #1
 112:jsonUtil.c    ****     while(nCheck)
 526              		.loc 1 112 0
 527 0006 1EE0     		b	.L37
 528              	.LVL81:
 529              	.L43:
 530              	.LBB18:
 113:jsonUtil.c    ****     {
 114:jsonUtil.c    ****         nCheck = FALSE;
 115:jsonUtil.c    ****         unsigned int len = strlen(str);
 531              		.loc 1 115 0
 532 0008 2000     		movs	r0, r4
 533 000a FFF7FEFF 		bl	strlen
 534              	.LVL82:
 535              	.LBB19:
 116:jsonUtil.c    ****         for(unsigned int i=0; i < len-1; i++)
 536              		.loc 1 116 0
 537 000e 0026     		movs	r6, #0
 538              	.LBE19:
 114:jsonUtil.c    ****         unsigned int len = strlen(str);
 539              		.loc 1 114 0
 540 0010 0021     		movs	r1, #0
 541              	.LBB23:
 542              		.loc 1 116 0
 543 0012 15E0     		b	.L38
 544              	.LVL83:
 545              	.L42:
 546              	.LBB20:
 117:jsonUtil.c    ****         {
 118:jsonUtil.c    ****             char c = str[i];
 547              		.loc 1 118 0
 548 0014 A25D     		ldrb	r2, [r4, r6]
 549              	.LVL84:
 119:jsonUtil.c    ****             if(!((c >= '0' && c <= '9') || c == '.'))
 550              		.loc 1 119 0
ARM GAS  C:\Users\luvsd\AppData\Local\Temp\cc5ujYQb.s 			page 13


 551 0016 1300     		movs	r3, r2
 552 0018 303B     		subs	r3, r3, #48
 553 001a DBB2     		uxtb	r3, r3
 554 001c 092B     		cmp	r3, #9
 555 001e 0ED9     		bls	.L39
 556              		.loc 1 119 0 is_stmt 0 discriminator 1
 557 0020 2E2A     		cmp	r2, #46
 558 0022 05D1     		bne	.L44
 559 0024 0BE0     		b	.L39
 560              	.LVL85:
 561              	.L41:
 562              	.LBB21:
 120:jsonUtil.c    ****             {
 121:jsonUtil.c    ****                 for(unsigned int j=i; j < len-1; j++) str[j] = str[j+1];
 563              		.loc 1 121 0 is_stmt 1 discriminator 3
 564 0026 E218     		adds	r2, r4, r3
 565 0028 0133     		adds	r3, r3, #1
 566              	.LVL86:
 567 002a E15C     		ldrb	r1, [r4, r3]
 568 002c 1170     		strb	r1, [r2]
 569              	.LVL87:
 570 002e 00E0     		b	.L40
 571              	.LVL88:
 572              	.L44:
 573              	.LBE21:
 574 0030 3300     		movs	r3, r6
 575              	.LVL89:
 576              	.L40:
 577              	.LBB22:
 578              		.loc 1 121 0 is_stmt 0 discriminator 1
 579 0032 AB42     		cmp	r3, r5
 580 0034 F7D3     		bcc	.L41
 581              	.LBE22:
 122:jsonUtil.c    ****                 str[len-1] = '\0';
 582              		.loc 1 122 0 is_stmt 1
 583 0036 6519     		adds	r5, r4, r5
 584 0038 0023     		movs	r3, #0
 585              	.LVL90:
 586 003a 2B70     		strb	r3, [r5]
 587              	.LVL91:
 123:jsonUtil.c    ****                 nCheck = TRUE;
 588              		.loc 1 123 0
 589 003c 0121     		movs	r1, #1
 590              	.LVL92:
 591              	.L39:
 592              	.LBE20:
 116:jsonUtil.c    ****         {
 593              		.loc 1 116 0 discriminator 2
 594 003e 0136     		adds	r6, r6, #1
 595              	.LVL93:
 596              	.L38:
 116:jsonUtil.c    ****         {
 597              		.loc 1 116 0 is_stmt 0 discriminator 1
 598 0040 451E     		subs	r5, r0, #1
 599 0042 AE42     		cmp	r6, r5
 600 0044 E6D3     		bcc	.L42
 601              	.LVL94:
ARM GAS  C:\Users\luvsd\AppData\Local\Temp\cc5ujYQb.s 			page 14


 602              	.L37:
 603              	.LBE23:
 604              	.LBE18:
 112:jsonUtil.c    ****     {
 605              		.loc 1 112 0 is_stmt 1
 606 0046 0029     		cmp	r1, #0
 607 0048 DED1     		bne	.L43
 124:jsonUtil.c    ****             }
 125:jsonUtil.c    ****         }
 126:jsonUtil.c    ****     }   
 127:jsonUtil.c    **** }
 608              		.loc 1 127 0
 609              		@ sp needed
 610              	.LVL95:
 611 004a 70BD     		pop	{r4, r5, r6, pc}
 612              		.cfi_endproc
 613              	.LFE66:
 614              		.size	refineIPAddress, .-refineIPAddress
 615              		.section	.text.GetJSON_Token_String,"ax",%progbits
 616              		.align	2
 617              		.global	GetJSON_Token_String
 618              		.code	16
 619              		.thumb_func
 620              		.type	GetJSON_Token_String, %function
 621              	GetJSON_Token_String:
 622              	.LFB67:
 128:jsonUtil.c    **** 
 129:jsonUtil.c    **** char *GetJSON_Token_String(jsmntok_t *tok, const char * g_JSONString)
 130:jsonUtil.c    **** {
 623              		.loc 1 130 0
 624              		.cfi_startproc
 625              		@ args = 0, pretend = 0, frame = 0
 626              		@ frame_needed = 0, uses_anonymous_args = 0
 627              	.LVL96:
 628 0000 10B5     		push	{r4, lr}
 629              		.cfi_def_cfa_offset 8
 630              		.cfi_offset 4, -8
 631              		.cfi_offset 14, -4
 131:jsonUtil.c    ****     static char buff[1024];
 132:jsonUtil.c    ****     
 133:jsonUtil.c    ****     sprintf(buff,"%.*s",tok->end - tok->start, g_JSONString + tok->start);
 632              		.loc 1 133 0
 633 0002 8268     		ldr	r2, [r0, #8]
 634 0004 4068     		ldr	r0, [r0, #4]
 635              	.LVL97:
 636 0006 0B18     		adds	r3, r1, r0
 637 0008 121A     		subs	r2, r2, r0
 638 000a 034C     		ldr	r4, .L46
 639 000c 0349     		ldr	r1, .L46+4
 640              	.LVL98:
 641 000e 2000     		movs	r0, r4
 642 0010 FFF7FEFF 		bl	sprintf
 643              	.LVL99:
 134:jsonUtil.c    ****     
 135:jsonUtil.c    ****     return buff;
 136:jsonUtil.c    **** }
 644              		.loc 1 136 0
ARM GAS  C:\Users\luvsd\AppData\Local\Temp\cc5ujYQb.s 			page 15


 645 0014 2000     		movs	r0, r4
 646              		@ sp needed
 647 0016 10BD     		pop	{r4, pc}
 648              	.L47:
 649              		.align	2
 650              	.L46:
 651 0018 00000000 		.word	.LANCHOR0
 652 001c 00000000 		.word	.LC0
 653              		.cfi_endproc
 654              	.LFE67:
 655              		.size	GetJSON_Token_String, .-GetJSON_Token_String
 656              		.comm	Param,6,4
 657              		.section	.rodata.str1.4,"aMS",%progbits,1
 658              		.align	2
 659              	.LC0:
 660 0000 252E2A73 		.ascii	"%.*s\000"
 660      00
 661              		.bss
 662              		.align	2
 663              		.set	.LANCHOR0,. + 0
 664              		.type	buff.8938, %object
 665              		.size	buff.8938, 1024
 666              	buff.8938:
 667 0000 00000000 		.space	1024
 667      00000000 
 667      00000000 
 667      00000000 
 667      00000000 
 668              		.text
 669              	.Letext0:
 670              		.file 2 "lib/jsmn.h"
 671              		.file 3 "Generated_Source\\PSoC4/cytypes.h"
 672              		.file 4 "main.h"
 673              		.file 5 "Generated_Source\\PSoC4/RTC.h"
 674              		.file 6 "c:\\program files (x86)\\cypress\\psoc creator\\4.4\\psoc creator\\import\\gnu\\arm\\5.4.
 675              		.file 7 "c:\\program files (x86)\\cypress\\psoc creator\\4.4\\psoc creator\\import\\gnu\\arm\\5.4.
 676              		.file 8 "c:\\program files (x86)\\cypress\\psoc creator\\4.4\\psoc creator\\import\\gnu\\arm\\5.4.