ARM GAS  C:\Users\theGu\AppData\Local\Temp\ccnQrQHu.s 			page 1


   1              		.syntax unified
   2              		.cpu cortex-m0
   3              		.fpu softvfp
   4              		.eabi_attribute 20, 1
   5              		.eabi_attribute 21, 1
   6              		.eabi_attribute 23, 3
   7              		.eabi_attribute 24, 1
   8              		.eabi_attribute 25, 1
   9              		.eabi_attribute 26, 1
  10              		.eabi_attribute 30, 1
  11              		.eabi_attribute 34, 0
  12              		.eabi_attribute 18, 4
  13              		.thumb
  14              		.syntax unified
  15              		.file	"repository.c"
  16              		.text
  17              	.Ltext0:
  18              		.cfi_sections	.debug_frame
  19              		.section	.text.isAvaliableConfig,"ax",%progbits
  20              		.align	2
  21              		.global	isAvaliableConfig
  22              		.code	16
  23              		.thumb_func
  24              		.type	isAvaliableConfig, %function
  25              	isAvaliableConfig:
  26              	.LFB61:
  27              		.file 1 "repository.c"
   1:repository.c  **** /* ========================================
   2:repository.c  ****  *
   3:repository.c  ****  * Copyright Suntech, 2023.02.01
   4:repository.c  ****  * All Rights Reserved
   5:repository.c  ****  * UNPUBLISHED, LICENSED SOFTWARE.
   6:repository.c  ****  *
   7:repository.c  ****  * CONFIDENTIAL AND PROPRIETARY INFORMATION
   8:repository.c  ****  * WHICH IS THE PROPERTY OF Suntech.
   9:repository.c  ****  *
  10:repository.c  ****  * ========================================
  11:repository.c  **** */
  12:repository.c  **** #include "repository.h"
  13:repository.c  **** #include "lib/w25qxx.h"
  14:repository.c  **** #include "lib/WIFI.h"
  15:repository.c  **** 
  16:repository.c  **** #define WATER_MARK              123
  17:repository.c  **** 
  18:repository.c  **** CONFIG_SAVE g_ConfigSave;
  19:repository.c  **** uint32_t g_uAddressOfConfig=0;
  20:repository.c  **** uint32_t g_uSectorOfConfig=0;
  21:repository.c  **** 
  22:repository.c  **** uint16 checkSum(uint8 *data, uint16 size);
  23:repository.c  **** 
  24:repository.c  **** //void initRepository()
  25:repository.c  **** //{
  26:repository.c  **** //    while(!W25qxx_Init()); 
  27:repository.c  **** //    
  28:repository.c  **** ////    // 외부 flash에 Config가 저장될 주소를 설정한다.
  29:repository.c  **** ////    g_uSectorOfConfig = (w25qxx.SectorCount-1);
  30:repository.c  **** ////    g_uAddressOfConfig = g_uSectorOfConfig * w25qxx.SectorSize;
ARM GAS  C:\Users\theGu\AppData\Local\Temp\ccnQrQHu.s 			page 2


  31:repository.c  **** ////    
  32:repository.c  **** ////    g_ConfigSave.nPort = DEFUALT_SERVER_PORT;
  33:repository.c  **** ////    strcpy(g_ConfigSave.ServerIP,DEFUALT_SERVER_IP);
  34:repository.c  **** ////    strcpy(g_ConfigSave.Path,"/hwi/andon");
  35:repository.c  **** ////    
  36:repository.c  **** ////    g_ConfigSave.device_idx = 69;
  37:repository.c  **** ////    
  38:repository.c  **** ////    printConfig();
  39:repository.c  **** ////    
  40:repository.c  **** ////    printf("initRepository()\r\n");
  41:repository.c  **** //  //  loadConfig();
  42:repository.c  **** //}
  43:repository.c  **** 
  44:repository.c  **** uint8 isAvaliableConfig()
  45:repository.c  **** {
  28              		.loc 1 45 0
  29              		.cfi_startproc
  30              		@ args = 0, pretend = 0, frame = 0
  31              		@ frame_needed = 0, uses_anonymous_args = 0
  32 0000 10B5     		push	{r4, lr}
  33              		.cfi_def_cfa_offset 8
  34              		.cfi_offset 4, -8
  35              		.cfi_offset 14, -4
  46:repository.c  ****     if(g_ConfigSave.WaterMark != WATER_MARK)
  36              		.loc 1 46 0
  37 0002 0E4B     		ldr	r3, .L5
  38 0004 1B78     		ldrb	r3, [r3]
  39 0006 7B2B     		cmp	r3, #123
  40 0008 04D0     		beq	.L2
  47:repository.c  ****     {
  48:repository.c  ****         printf("WaterMark Error of EEPROM\r\n");
  41              		.loc 1 48 0
  42 000a 0D48     		ldr	r0, .L5+4
  43 000c FFF7FEFF 		bl	puts
  44              	.LVL0:
  49:repository.c  ****         return FALSE;
  45              		.loc 1 49 0
  46 0010 0020     		movs	r0, #0
  47 0012 11E0     		b	.L3
  48              	.L2:
  50:repository.c  ****     }
  51:repository.c  **** 
  52:repository.c  ****     if(g_ConfigSave.checksum != checkSum((uint8*) &g_ConfigSave, sizeof(g_ConfigSave)-2))
  49              		.loc 1 52 0
  50 0014 0948     		ldr	r0, .L5
  51 0016 A323     		movs	r3, #163
  52 0018 C35C     		ldrb	r3, [r0, r3]
  53 001a A422     		movs	r2, #164
  54 001c 845C     		ldrb	r4, [r0, r2]
  55 001e 2402     		lsls	r4, r4, #8
  56 0020 1C43     		orrs	r4, r3
  57 0022 A321     		movs	r1, #163
  58 0024 FFF7FEFF 		bl	checkSum
  59              	.LVL1:
  60 0028 8442     		cmp	r4, r0
  61 002a 04D0     		beq	.L4
  53:repository.c  ****     {
ARM GAS  C:\Users\theGu\AppData\Local\Temp\ccnQrQHu.s 			page 3


  54:repository.c  ****         printf("CRC Error of EEPROM\r\n");        
  62              		.loc 1 54 0
  63 002c 0548     		ldr	r0, .L5+8
  64 002e FFF7FEFF 		bl	puts
  65              	.LVL2:
  55:repository.c  ****         return FALSE;
  66              		.loc 1 55 0
  67 0032 0020     		movs	r0, #0
  68 0034 00E0     		b	.L3
  69              	.L4:
  56:repository.c  ****     }
  57:repository.c  **** 
  58:repository.c  ****     return TRUE;
  70              		.loc 1 58 0
  71 0036 0120     		movs	r0, #1
  72              	.L3:
  59:repository.c  **** }
  73              		.loc 1 59 0
  74              		@ sp needed
  75 0038 10BD     		pop	{r4, pc}
  76              	.L6:
  77 003a C046     		.align	2
  78              	.L5:
  79 003c 00000000 		.word	g_ConfigSave
  80 0040 00000000 		.word	.LC1
  81 0044 1C000000 		.word	.LC3
  82              		.cfi_endproc
  83              	.LFE61:
  84              		.size	isAvaliableConfig, .-isAvaliableConfig
  85              		.section	.text.loadConfig,"ax",%progbits
  86              		.align	2
  87              		.global	loadConfig
  88              		.code	16
  89              		.thumb_func
  90              		.type	loadConfig, %function
  91              	loadConfig:
  92              	.LFB62:
  60:repository.c  **** 
  61:repository.c  **** uint8 loadConfig()
  62:repository.c  **** {
  93              		.loc 1 62 0
  94              		.cfi_startproc
  95              		@ args = 0, pretend = 0, frame = 0
  96              		@ frame_needed = 0, uses_anonymous_args = 0
  97 0000 10B5     		push	{r4, lr}
  98              		.cfi_def_cfa_offset 8
  99              		.cfi_offset 4, -8
 100              		.cfi_offset 14, -4
 101              	.LVL3:
  63:repository.c  ****     uint8_t *p = (uint8 *) & g_ConfigSave;
  64:repository.c  ****     
  65:repository.c  ****     W25qxx_ReadBytes(p, g_uAddressOfConfig,sizeof(g_ConfigSave));
 102              		.loc 1 65 0
 103 0002 074B     		ldr	r3, .L9
 104 0004 1968     		ldr	r1, [r3]
 105 0006 A522     		movs	r2, #165
 106 0008 0648     		ldr	r0, .L9+4
ARM GAS  C:\Users\theGu\AppData\Local\Temp\ccnQrQHu.s 			page 4


 107 000a FFF7FEFF 		bl	W25qxx_ReadBytes
 108              	.LVL4:
  66:repository.c  ****   
  67:repository.c  ****     if(!isAvaliableConfig())
 109              		.loc 1 67 0
 110 000e FFF7FEFF 		bl	isAvaliableConfig
 111              	.LVL5:
 112 0012 0028     		cmp	r0, #0
 113 0014 02D0     		beq	.L8
  68:repository.c  ****     {
  69:repository.c  **** //        memset(&g_ConfigSave,0,sizeof(g_ConfigSave));
  70:repository.c  **** //        strcpy(g_ConfigSave.ServerIP,DEFUALT_SERVER_IP);
  71:repository.c  **** //        g_ConfigSave.nPort = DEFUALT_SERVER_PORT;
  72:repository.c  **** //        g_ConfigSave.reconnectTime = 60;
  73:repository.c  **** //
  74:repository.c  **** //        sprintf(g_ConfigSave.DeviceName,"Demo");
  75:repository.c  ****  
  76:repository.c  ****         return FALSE;
  77:repository.c  ****     }
  78:repository.c  ****         
  79:repository.c  ****     printConfig();    
 114              		.loc 1 79 0
 115 0016 FFF7FEFF 		bl	printConfig
 116              	.LVL6:
  80:repository.c  ****     return TRUE;
 117              		.loc 1 80 0
 118 001a 0120     		movs	r0, #1
 119              	.L8:
  81:repository.c  **** }
 120              		.loc 1 81 0
 121              		@ sp needed
 122 001c 10BD     		pop	{r4, pc}
 123              	.L10:
 124 001e C046     		.align	2
 125              	.L9:
 126 0020 00000000 		.word	.LANCHOR0
 127 0024 00000000 		.word	g_ConfigSave
 128              		.cfi_endproc
 129              	.LFE62:
 130              		.size	loadConfig, .-loadConfig
 131              		.section	.text.saveConfig,"ax",%progbits
 132              		.align	2
 133              		.global	saveConfig
 134              		.code	16
 135              		.thumb_func
 136              		.type	saveConfig, %function
 137              	saveConfig:
 138              	.LFB63:
  82:repository.c  **** 
  83:repository.c  **** 
  84:repository.c  **** uint8 saveConfig()
  85:repository.c  **** {    
 139              		.loc 1 85 0
 140              		.cfi_startproc
 141              		@ args = 0, pretend = 0, frame = 168
 142              		@ frame_needed = 0, uses_anonymous_args = 0
 143 0000 10B5     		push	{r4, lr}
ARM GAS  C:\Users\theGu\AppData\Local\Temp\ccnQrQHu.s 			page 5


 144              		.cfi_def_cfa_offset 8
 145              		.cfi_offset 4, -8
 146              		.cfi_offset 14, -4
 147 0002 AAB0     		sub	sp, sp, #168
 148              		.cfi_def_cfa_offset 176
  86:repository.c  ****     uint8 WATERMARK = g_ConfigSave.WaterMark = WATER_MARK;    
 149              		.loc 1 86 0
 150 0004 1B4C     		ldr	r4, .L16
 151 0006 7B23     		movs	r3, #123
 152 0008 2370     		strb	r3, [r4]
 153              	.LVL7:
  87:repository.c  ****     uint16 CHECKSUM  = g_ConfigSave.checksum = checkSum((uint8*) &g_ConfigSave, sizeof(g_ConfigSave
 154              		.loc 1 87 0
 155 000a A321     		movs	r1, #163
 156 000c 2000     		movs	r0, r4
 157 000e FFF7FEFF 		bl	checkSum
 158              	.LVL8:
 159 0012 A323     		movs	r3, #163
 160 0014 E054     		strb	r0, [r4, r3]
 161 0016 000A     		lsrs	r0, r0, #8
 162 0018 A334     		adds	r4, r4, #163
 163 001a 6070     		strb	r0, [r4, #1]
 164              	.LVL9:
  88:repository.c  ****                 
  89:repository.c  ****     uint8_t *p = (uint8 *) & g_ConfigSave;
  90:repository.c  ****     
  91:repository.c  ****     W25qxx_EraseSector(g_uSectorOfConfig);
 165              		.loc 1 91 0
 166 001c 164B     		ldr	r3, .L16+4
 167 001e 5868     		ldr	r0, [r3, #4]
 168 0020 FFF7FEFF 		bl	W25qxx_EraseSector
 169              	.LVL10:
 170              	.LBB2:
  92:repository.c  ****     
  93:repository.c  ****     for(uint i=0; i < sizeof(g_ConfigSave); i++)
 171              		.loc 1 93 0
 172 0024 0024     		movs	r4, #0
 173 0026 07E0     		b	.L12
 174              	.LVL11:
 175              	.L13:
  94:repository.c  ****     {
  95:repository.c  ****         W25qxx_WriteByte(p[i], g_uAddressOfConfig+i);
 176              		.loc 1 95 0 discriminator 3
 177 0028 134B     		ldr	r3, .L16+4
 178 002a 1968     		ldr	r1, [r3]
 179 002c 6118     		adds	r1, r4, r1
 180 002e 114B     		ldr	r3, .L16
 181 0030 185D     		ldrb	r0, [r3, r4]
 182 0032 FFF7FEFF 		bl	W25qxx_WriteByte
 183              	.LVL12:
  93:repository.c  ****     {
 184              		.loc 1 93 0 discriminator 3
 185 0036 0134     		adds	r4, r4, #1
 186              	.LVL13:
 187              	.L12:
  93:repository.c  ****     {
 188              		.loc 1 93 0 is_stmt 0 discriminator 1
ARM GAS  C:\Users\theGu\AppData\Local\Temp\ccnQrQHu.s 			page 6


 189 0038 A42C     		cmp	r4, #164
 190 003a F5D9     		bls	.L13
 191              	.LBE2:
  96:repository.c  ****     }
  97:repository.c  ****  
  98:repository.c  ****     CONFIG_SAVE g_ConfigSaveOld;
  99:repository.c  ****     memcpy(&g_ConfigSaveOld, &g_ConfigSave, sizeof(g_ConfigSave));
 192              		.loc 1 99 0 is_stmt 1
 193 003c 0D4C     		ldr	r4, .L16
 194              	.LVL14:
 195 003e A522     		movs	r2, #165
 196 0040 2100     		movs	r1, r4
 197 0042 6846     		mov	r0, sp
 198 0044 FFF7FEFF 		bl	memcpy
 199              	.LVL15:
 100:repository.c  ****     memset(&g_ConfigSave,0,sizeof(g_ConfigSave));
 200              		.loc 1 100 0
 201 0048 A522     		movs	r2, #165
 202 004a 0021     		movs	r1, #0
 203 004c 2000     		movs	r0, r4
 204 004e FFF7FEFF 		bl	memset
 205              	.LVL16:
 101:repository.c  ****     
 102:repository.c  ****     loadConfig();
 206              		.loc 1 102 0
 207 0052 FFF7FEFF 		bl	loadConfig
 208              	.LVL17:
 103:repository.c  **** 
 104:repository.c  ****     CyDelay(10);
 209              		.loc 1 104 0
 210 0056 0A20     		movs	r0, #10
 211 0058 FFF7FEFF 		bl	CyDelay
 212              	.LVL18:
 105:repository.c  ****     
 106:repository.c  ****     return memcmp(&g_ConfigSaveOld,&g_ConfigSave, sizeof(g_ConfigSave)) == 0 ? TRUE : FALSE;    
 213              		.loc 1 106 0
 214 005c A522     		movs	r2, #165
 215 005e 2100     		movs	r1, r4
 216 0060 6846     		mov	r0, sp
 217 0062 FFF7FEFF 		bl	memcmp
 218              	.LVL19:
 219 0066 0028     		cmp	r0, #0
 220 0068 01D1     		bne	.L15
 221 006a 0130     		adds	r0, r0, #1
 222 006c 00E0     		b	.L14
 223              	.L15:
 224 006e 0020     		movs	r0, #0
 225              	.L14:
 107:repository.c  **** }
 226              		.loc 1 107 0 discriminator 4
 227 0070 2AB0     		add	sp, sp, #168
 228              		@ sp needed
 229 0072 10BD     		pop	{r4, pc}
 230              	.L17:
 231              		.align	2
 232              	.L16:
 233 0074 00000000 		.word	g_ConfigSave
ARM GAS  C:\Users\theGu\AppData\Local\Temp\ccnQrQHu.s 			page 7


 234 0078 00000000 		.word	.LANCHOR0
 235              		.cfi_endproc
 236              	.LFE63:
 237              		.size	saveConfig, .-saveConfig
 238              		.global	g_uSectorOfConfig
 239              		.global	g_uAddressOfConfig
 240              		.comm	g_ConfigSave,165,4
 241              		.comm	Param,6,4
 242              		.section	.rodata.str1.4,"aMS",%progbits,1
 243              		.align	2
 244              	.LC1:
 245 0000 57617465 		.ascii	"WaterMark Error of EEPROM\015\000"
 245      724D6172 
 245      6B204572 
 245      726F7220 
 245      6F662045 
 246 001b 00       		.space	1
 247              	.LC3:
 248 001c 43524320 		.ascii	"CRC Error of EEPROM\015\000"
 248      4572726F 
 248      72206F66 
 248      20454550 
 248      524F4D0D 
 249              		.bss
 250              		.align	2
 251              		.set	.LANCHOR0,. + 0
 252              		.type	g_uAddressOfConfig, %object
 253              		.size	g_uAddressOfConfig, 4
 254              	g_uAddressOfConfig:
 255 0000 00000000 		.space	4
 256              		.type	g_uSectorOfConfig, %object
 257              		.size	g_uSectorOfConfig, 4
 258              	g_uSectorOfConfig:
 259 0004 00000000 		.space	4
 260              		.text
 261              	.Letext0:
 262              		.file 2 "c:\\program files (x86)\\cypress\\psoc creator\\4.4\\psoc creator\\import\\gnu\\arm\\5.4.
 263              		.file 3 "c:\\program files (x86)\\cypress\\psoc creator\\4.4\\psoc creator\\import\\gnu\\arm\\5.4.
 264              		.file 4 "Generated_Source\\PSoC4/cytypes.h"
 265              		.file 5 "c:\\program files (x86)\\cypress\\psoc creator\\4.4\\psoc creator\\import\\gnu\\arm\\5.4.
 266              		.file 6 "main.h"
 267              		.file 7 "repository.h"
 268              		.file 8 "lib/w25qxx.h"
 269              		.file 9 "Generated_Source\\PSoC4/CyLib.h"
 270              		.file 10 "c:\\program files (x86)\\cypress\\psoc creator\\4.4\\psoc creator\\import\\gnu\\arm\\5.4
 271              		.file 11 "<built-in>"