ARM GAS  C:\Users\luvsd\AppData\Local\Temp\ccqRwhGy.s 			page 1


   1              		.syntax unified
   2              		.cpu cortex-m0
   3              		.fpu softvfp
   4              		.eabi_attribute 20, 1
   5              		.eabi_attribute 21, 1
   6              		.eabi_attribute 23, 3
   7              		.eabi_attribute 24, 1
   8              		.eabi_attribute 25, 1
   9              		.eabi_attribute 26, 1
  10              		.eabi_attribute 30, 1
  11              		.eabi_attribute 34, 0
  12              		.eabi_attribute 18, 4
  13              		.thumb
  14              		.syntax unified
  15              		.file	"USBJsonConfig.c"
  16              		.text
  17              	.Ltext0:
  18              		.cfi_sections	.debug_frame
  19              		.section	.text.initUSBJsonParsor,"ax",%progbits
  20              		.align	2
  21              		.global	initUSBJsonParsor
  22              		.code	16
  23              		.thumb_func
  24              		.type	initUSBJsonParsor, %function
  25              	initUSBJsonParsor:
  26              	.LFB62:
  27              		.file 1 "USBJsonConfig.c"
   1:USBJsonConfig.c **** /* ========================================
   2:USBJsonConfig.c ****  *
   3:USBJsonConfig.c ****  * Copyright Suntech, 2023.02.01
   4:USBJsonConfig.c ****  * All Rights Reserved
   5:USBJsonConfig.c ****  * UNPUBLISHED, LICENSED SOFTWARE.
   6:USBJsonConfig.c ****  *
   7:USBJsonConfig.c ****  * CONFIDENTIAL AND PROPRIETARY INFORMATION
   8:USBJsonConfig.c ****  * WHICH IS THE PROPERTY OF Suntech.
   9:USBJsonConfig.c ****  *
  10:USBJsonConfig.c ****  * ========================================
  11:USBJsonConfig.c **** */
  12:USBJsonConfig.c **** #include "USBJsonConfig.h"
  13:USBJsonConfig.c **** #include "jsonUtil.h"
  14:USBJsonConfig.c **** #include "lib/utility.h"
  15:USBJsonConfig.c **** #include "lib/widget.h"
  16:USBJsonConfig.c **** #include "lib/WIFI.h"
  17:USBJsonConfig.c **** #include "lib/server.h"
  18:USBJsonConfig.c **** #include "lib/externalFlash.h"
  19:USBJsonConfig.c **** #include "lib/menu.h"
  20:USBJsonConfig.c **** 
  21:USBJsonConfig.c **** char g_usbCmd[100];
  22:USBJsonConfig.c **** uint8 JSON_Config(char *buffer, int16 size);
  23:USBJsonConfig.c **** 
  24:USBJsonConfig.c **** //uint8 g_USBRequest = REQ_NONE;
  25:USBJsonConfig.c **** 
  26:USBJsonConfig.c **** CONFIG_META g_ConfigMeta;
  27:USBJsonConfig.c **** 
  28:USBJsonConfig.c **** void USB_CommandProcess();
  29:USBJsonConfig.c **** 
  30:USBJsonConfig.c **** void initUSBJsonParsor()
ARM GAS  C:\Users\luvsd\AppData\Local\Temp\ccqRwhGy.s 			page 2


  31:USBJsonConfig.c **** {
  28              		.loc 1 31 0
  29              		.cfi_startproc
  30              		@ args = 0, pretend = 0, frame = 0
  31              		@ frame_needed = 0, uses_anonymous_args = 0
  32 0000 10B5     		push	{r4, lr}
  33              		.cfi_def_cfa_offset 8
  34              		.cfi_offset 4, -8
  35              		.cfi_offset 14, -4
  32:USBJsonConfig.c ****     initUSB();
  36              		.loc 1 32 0
  37 0002 FFF7FEFF 		bl	initUSB
  38              	.LVL0:
  33:USBJsonConfig.c **** }
  39              		.loc 1 33 0
  40              		@ sp needed
  41 0006 10BD     		pop	{r4, pc}
  42              		.cfi_endproc
  43              	.LFE62:
  44              		.size	initUSBJsonParsor, .-initUSBJsonParsor
  45              		.section	.text.SendConfigData,"ax",%progbits
  46              		.align	2
  47              		.global	SendConfigData
  48              		.code	16
  49              		.thumb_func
  50              		.type	SendConfigData, %function
  51              	SendConfigData:
  52              	.LFB65:
  34:USBJsonConfig.c **** 
  35:USBJsonConfig.c **** void usbJsonParsorLoop()
  36:USBJsonConfig.c **** {
  37:USBJsonConfig.c ****     usbLoop();
  38:USBJsonConfig.c ****     
  39:USBJsonConfig.c ****     if(g_size_USB_ReceiveBuffer == 0) return;
  40:USBJsonConfig.c ****             
  41:USBJsonConfig.c ****     if(JSON_Config((char *) getUSB_ReceiveBuffer(), g_size_USB_ReceiveBuffer) == TRUE) g_size_USB_R
  42:USBJsonConfig.c ****     
  43:USBJsonConfig.c ****     USB_CommandProcess();
  44:USBJsonConfig.c **** }
  45:USBJsonConfig.c **** 
  46:USBJsonConfig.c **** void USB_CommandProcess()
  47:USBJsonConfig.c **** {
  48:USBJsonConfig.c ****     int nLoop=0;
  49:USBJsonConfig.c **** 
  50:USBJsonConfig.c ****     switch(g_ConfigMeta.uRequestType)
  51:USBJsonConfig.c ****     {
  52:USBJsonConfig.c ****         case REQ_SYSTEM_CMD:
  53:USBJsonConfig.c ****         {
  54:USBJsonConfig.c ****             if(g_network.bWifiReady != TRUE) return;            
  55:USBJsonConfig.c ****                         
  56:USBJsonConfig.c ****             //////////////////////////////////
  57:USBJsonConfig.c ****             if(strcmp(g_usbCmd,"connect")==0)
  58:USBJsonConfig.c ****             //////////////////////////////////            
  59:USBJsonConfig.c ****             {
  60:USBJsonConfig.c ****                 ShowMessage("AP SCANNING..");
  61:USBJsonConfig.c **** 
  62:USBJsonConfig.c ****                 clearWifiBuffer();
ARM GAS  C:\Users\luvsd\AppData\Local\Temp\ccqRwhGy.s 			page 3


  63:USBJsonConfig.c ****                 wifi_cmd(WIFI_CMD_AP_SCAN);
  64:USBJsonConfig.c ****                 while(g_wifi_cmd != WIFI_CMD_IDLE)
  65:USBJsonConfig.c ****                 {
  66:USBJsonConfig.c ****                     usbLoop();
  67:USBJsonConfig.c ****                     if(wifi_receive_data()==TRUE)
  68:USBJsonConfig.c ****                     {
  69:USBJsonConfig.c ****                         wifi_get_response();
  70:USBJsonConfig.c ****                         clearWifiBuffer();
  71:USBJsonConfig.c ****                     }
  72:USBJsonConfig.c ****                 }
  73:USBJsonConfig.c ****                 ShowMessage("SCANED %dth",g_SizeOfAPs);
  74:USBJsonConfig.c ****                 SendConfigData();
  75:USBJsonConfig.c ****                 break;
  76:USBJsonConfig.c ****             }
  77:USBJsonConfig.c ****             //////////////////////////////////
  78:USBJsonConfig.c ****             if(strcmp(g_usbCmd,"reboot")==0)
  79:USBJsonConfig.c ****             ////////////////////////////////// 
  80:USBJsonConfig.c ****             {
  81:USBJsonConfig.c ****                 //Bootloadable_Load();
  82:USBJsonConfig.c ****                 CySoftwareReset();
  83:USBJsonConfig.c ****                 break;
  84:USBJsonConfig.c ****             }
  85:USBJsonConfig.c ****             //////////////////////////////////
  86:USBJsonConfig.c ****             if(strcmp(g_usbCmd,"disconnect")==0)
  87:USBJsonConfig.c ****             ////////////////////////////////// 
  88:USBJsonConfig.c ****             {
  89:USBJsonConfig.c ****                 reflashMenu();
  90:USBJsonConfig.c ****                 break;            
  91:USBJsonConfig.c ****             }       
  92:USBJsonConfig.c ****             //////////////////////////////////
  93:USBJsonConfig.c ****             if(strcmp(g_usbCmd,"firmwareUpgrade")==0)
  94:USBJsonConfig.c ****             ////////////////////////////////// 
  95:USBJsonConfig.c ****             {
  96:USBJsonConfig.c ****                 #ifdef BOOT_LOADERBLE_EXIST                                    
  97:USBJsonConfig.c ****                     printf("Firmware Upgrade\r\n");
  98:USBJsonConfig.c ****                     CyDelay(100);
  99:USBJsonConfig.c ****                     Bootloadable_Load();
 100:USBJsonConfig.c ****                     CySoftwareReset();
 101:USBJsonConfig.c ****                 #endif
 102:USBJsonConfig.c ****                 break;                   
 103:USBJsonConfig.c ****             }            
 104:USBJsonConfig.c ****         }
 105:USBJsonConfig.c ****         case REQ_READ_CONFIG:
 106:USBJsonConfig.c ****         {
 107:USBJsonConfig.c ****             printf("Read Confdig\r\n");
 108:USBJsonConfig.c ****             printConfig();
 109:USBJsonConfig.c ****             SendConfigData();
 110:USBJsonConfig.c ****         }
 111:USBJsonConfig.c ****         break;
 112:USBJsonConfig.c ****         case REQ_WRITE_CONFIG:
 113:USBJsonConfig.c ****         {
 114:USBJsonConfig.c ****             unsigned int len;
 115:USBJsonConfig.c ****             removeWhiteSpace(g_ConfigMeta.url);   // remove white space 
 116:USBJsonConfig.c ****             removeDoubleSlash(g_ConfigMeta.url);  // remove double slash('/')
 117:USBJsonConfig.c ****             len = strlen(g_ConfigMeta.url);        
 118:USBJsonConfig.c ****             if(g_ConfigMeta.url[len-1] == '/') g_ConfigMeta.url[len-1] = '\0';  // remove last slas
 119:USBJsonConfig.c ****             
ARM GAS  C:\Users\luvsd\AppData\Local\Temp\ccqRwhGy.s 			page 4


 120:USBJsonConfig.c ****             char *p = strstr(g_ConfigMeta.url,"/"); // ip address ļÆżņŚÉ Ļ▓ĮļĪ£Ļ░Ć ņ×łņ£╝ļ®┤
 121:USBJsonConfig.c ****                         
 122:USBJsonConfig.c ****             if(p != NULL)
 123:USBJsonConfig.c ****             {                
 124:USBJsonConfig.c ****                 strcpy(g_ptrServer->path,p);  // Ļ▓ĮļĪ£ļ¦ī ļö░ļĪ£ ļ│Ąņé¼ĒĢ£ļŗż.
 125:USBJsonConfig.c ****                 *p= '\0'; // g_ptrServer->IP ļ¦łņ¦Ćļ¦ē ļÆżņŚÉ ļüØņØä ņĢīļ”¼ļŖö 0ņØä ļäŻļŖöļŗż.
 126:USBJsonConfig.c ****             }
 127:USBJsonConfig.c ****             strcpy(g_ptrServer->IP,g_ConfigMeta.url);
 128:USBJsonConfig.c ****             refineIPAddress(g_ptrServer->IP); // URLņØ┤ ņĢäļŗī ļ¼Ėņ×ÉļŖö ņĀ£Ļ▒░ĒĢ£ļŗż.
 129:USBJsonConfig.c ****             
 130:USBJsonConfig.c ****             if(g_ptrServer->port == 0) g_ptrServer->port = 80;            
 131:USBJsonConfig.c ****             
 132:USBJsonConfig.c ****             printConfig();
 133:USBJsonConfig.c ****             SendConfigData();
 134:USBJsonConfig.c ****             ShowMessage("Saving..");            
 135:USBJsonConfig.c ****             SaveExternalFlashConfig();
 136:USBJsonConfig.c ****             
 137:USBJsonConfig.c ****             reflashMenu();
 138:USBJsonConfig.c ****             
 139:USBJsonConfig.c ****             if(g_ConfigMeta.SSIDIndex != 0xFF) // SSIDļź╝ ļ│ĆĻ▓Į Ē¢łļŗżļ®┤ WIFIļ¬©ļōłņŚÉ SSID ņĀĢļ│
 140:USBJsonConfig.c ****             {
 141:USBJsonConfig.c ****                 ShowMessage("Setting SSID");
 142:USBJsonConfig.c ****                 clearWifiBuffer();
 143:USBJsonConfig.c ****                 wifi_cmd(WIFI_CMD_FACTORY_RESET);
 144:USBJsonConfig.c ****                 while(g_wifi_cmd != WIFI_CMD_IDLE)
 145:USBJsonConfig.c ****                 {
 146:USBJsonConfig.c ****                     usbLoop();
 147:USBJsonConfig.c ****                     if(wifi_receive_data()==TRUE)
 148:USBJsonConfig.c ****                     {
 149:USBJsonConfig.c ****                         wifi_get_response();
 150:USBJsonConfig.c ****                         clearWifiBuffer();
 151:USBJsonConfig.c ****                     }
 152:USBJsonConfig.c ****                 }
 153:USBJsonConfig.c ****                 ShowMessage("SSID Done..");    
 154:USBJsonConfig.c ****                 CySoftwareReset();
 155:USBJsonConfig.c ****             }                        
 156:USBJsonConfig.c ****         }
 157:USBJsonConfig.c ****         break;        
 158:USBJsonConfig.c ****     }
 159:USBJsonConfig.c ****     
 160:USBJsonConfig.c ****     g_ConfigMeta.uRequestType = REQ_NONE;
 161:USBJsonConfig.c **** }
 162:USBJsonConfig.c **** 
 163:USBJsonConfig.c **** void SendConfigData()
 164:USBJsonConfig.c **** {
  53              		.loc 1 164 0
  54              		.cfi_startproc
  55              		@ args = 0, pretend = 0, frame = 0
  56              		@ frame_needed = 0, uses_anonymous_args = 0
  57 0000 70B5     		push	{r4, r5, r6, lr}
  58              		.cfi_def_cfa_offset 16
  59              		.cfi_offset 4, -16
  60              		.cfi_offset 5, -12
  61              		.cfi_offset 6, -8
  62              		.cfi_offset 14, -4
 165:USBJsonConfig.c ****     printf_USB("{\"response\":\"config\",");
  63              		.loc 1 165 0
ARM GAS  C:\Users\luvsd\AppData\Local\Temp\ccqRwhGy.s 			page 5


  64 0002 2E48     		ldr	r0, .L9
  65 0004 FFF7FEFF 		bl	printf_USB
  66              	.LVL1:
 166:USBJsonConfig.c ****     
 167:USBJsonConfig.c ****     printf_USB("\"SSID\":\"%s\",",g_ptrServer->SSID);
  67              		.loc 1 167 0
  68 0008 2D4B     		ldr	r3, .L9+4
  69 000a 1968     		ldr	r1, [r3]
  70 000c 3231     		adds	r1, r1, #50
  71 000e 2D48     		ldr	r0, .L9+8
  72 0010 FFF7FEFF 		bl	printf_USB
  73              	.LVL2:
 168:USBJsonConfig.c ****       
 169:USBJsonConfig.c ****     int ssid_index = -1;   
 170:USBJsonConfig.c ****     printf_USB("\"ssidList\":[");
  74              		.loc 1 170 0
  75 0014 2C48     		ldr	r0, .L9+12
  76 0016 FFF7FEFF 		bl	printf_USB
  77              	.LVL3:
  78              	.LBB2:
 171:USBJsonConfig.c ****     for(int i=0; i< g_SizeOfAPs; i++) 
  79              		.loc 1 171 0
  80 001a 0024     		movs	r4, #0
  81              	.LBE2:
 169:USBJsonConfig.c ****     printf_USB("\"ssidList\":[");
  82              		.loc 1 169 0
  83 001c 0125     		movs	r5, #1
  84 001e 6D42     		rsbs	r5, r5, #0
  85              	.LBB4:
  86              		.loc 1 171 0
  87 0020 2DE0     		b	.L3
  88              	.LVL4:
  89              	.L7:
  90              	.LBB3:
 172:USBJsonConfig.c ****     {
 173:USBJsonConfig.c ****         int quality = 2 * (g_APs[i].RSSI + 100);
  91              		.loc 1 173 0
  92 0022 2301     		lsls	r3, r4, #4
  93 0024 1B1B     		subs	r3, r3, r4
  94 0026 9900     		lsls	r1, r3, #2
  95 0028 284B     		ldr	r3, .L9+16
  96 002a CB5E     		ldrsh	r3, [r1, r3]
  97 002c 6433     		adds	r3, r3, #100
  98 002e 5B00     		lsls	r3, r3, #1
  99              	.LVL5:
 174:USBJsonConfig.c ****         if(i < g_SizeOfAPs-1) printf_USB("\"%.*s(%d%%)\",",40,g_APs[i].SSID, quality);
 100              		.loc 1 174 0
 101 0030 013A     		subs	r2, r2, #1
 102 0032 9442     		cmp	r4, r2
 103 0034 0ADA     		bge	.L4
 104              		.loc 1 174 0 is_stmt 0 discriminator 1
 105 0036 2101     		lsls	r1, r4, #4
 106 0038 091B     		subs	r1, r1, r4
 107 003a 8800     		lsls	r0, r1, #2
 108 003c 234A     		ldr	r2, .L9+16
 109 003e 8218     		adds	r2, r0, r2
 110 0040 0232     		adds	r2, r2, #2
ARM GAS  C:\Users\luvsd\AppData\Local\Temp\ccqRwhGy.s 			page 6


 111 0042 2821     		movs	r1, #40
 112 0044 2248     		ldr	r0, .L9+20
 113 0046 FFF7FEFF 		bl	printf_USB
 114              	.LVL6:
 115 004a 09E0     		b	.L5
 116              	.LVL7:
 117              	.L4:
 175:USBJsonConfig.c ****         else                  printf_USB("\"%.*s(%d%%)\"],",40,g_APs[i].SSID, quality);
 118              		.loc 1 175 0 is_stmt 1
 119 004c 2101     		lsls	r1, r4, #4
 120 004e 091B     		subs	r1, r1, r4
 121 0050 8800     		lsls	r0, r1, #2
 122 0052 1E4A     		ldr	r2, .L9+16
 123 0054 8218     		adds	r2, r0, r2
 124 0056 0232     		adds	r2, r2, #2
 125 0058 2821     		movs	r1, #40
 126 005a 1E48     		ldr	r0, .L9+24
 127 005c FFF7FEFF 		bl	printf_USB
 128              	.LVL8:
 129              	.L5:
 176:USBJsonConfig.c ****         
 177:USBJsonConfig.c ****         if(strcmp(g_ptrServer->SSID,g_APs[i].SSID) == 0) ssid_index = i;
 130              		.loc 1 177 0
 131 0060 174B     		ldr	r3, .L9+4
 132 0062 1868     		ldr	r0, [r3]
 133 0064 3230     		adds	r0, r0, #50
 134 0066 2301     		lsls	r3, r4, #4
 135 0068 1B1B     		subs	r3, r3, r4
 136 006a 9900     		lsls	r1, r3, #2
 137 006c 174B     		ldr	r3, .L9+16
 138 006e C918     		adds	r1, r1, r3
 139 0070 0231     		adds	r1, r1, #2
 140 0072 FFF7FEFF 		bl	strcmp
 141              	.LVL9:
 142 0076 0028     		cmp	r0, #0
 143 0078 00D1     		bne	.L6
 144 007a 2500     		movs	r5, r4
 145              	.LVL10:
 146              	.L6:
 147              	.LBE3:
 171:USBJsonConfig.c ****     {
 148              		.loc 1 171 0 discriminator 2
 149 007c 0134     		adds	r4, r4, #1
 150              	.LVL11:
 151              	.L3:
 171:USBJsonConfig.c ****     {
 152              		.loc 1 171 0 is_stmt 0 discriminator 1
 153 007e 164B     		ldr	r3, .L9+28
 154 0080 1A88     		ldrh	r2, [r3]
 155 0082 9442     		cmp	r4, r2
 156 0084 CDDB     		blt	.L7
 157              	.LBE4:
 178:USBJsonConfig.c ****     }
 179:USBJsonConfig.c ****     printf_USB("\"SSID_Index\":\"%d\",",ssid_index);    
 158              		.loc 1 179 0 is_stmt 1
 159 0086 2900     		movs	r1, r5
 160 0088 1448     		ldr	r0, .L9+32
ARM GAS  C:\Users\luvsd\AppData\Local\Temp\ccqRwhGy.s 			page 7


 161 008a FFF7FEFF 		bl	printf_USB
 162              	.LVL12:
 180:USBJsonConfig.c ****     printf_USB("\"password\":\"%s\",",g_ptrServer->password);
 163              		.loc 1 180 0
 164 008e 0C4C     		ldr	r4, .L9+4
 165              	.LVL13:
 166 0090 2168     		ldr	r1, [r4]
 167 0092 5A31     		adds	r1, r1, #90
 168 0094 1248     		ldr	r0, .L9+36
 169 0096 FFF7FEFF 		bl	printf_USB
 170              	.LVL14:
 181:USBJsonConfig.c ****     printf_USB("\"serverIP\":\"%s%s\",",g_ptrServer->IP,g_ptrServer->path);
 171              		.loc 1 181 0
 172 009a 2268     		ldr	r2, [r4]
 173 009c 1032     		adds	r2, r2, #16
 174 009e 2168     		ldr	r1, [r4]
 175 00a0 1048     		ldr	r0, .L9+40
 176 00a2 FFF7FEFF 		bl	printf_USB
 177              	.LVL15:
 182:USBJsonConfig.c ****     printf_USB("\"serverPort\":\"%d\",",g_ptrServer->port);
 178              		.loc 1 182 0
 179 00a6 2368     		ldr	r3, [r4]
 180 00a8 198E     		ldrh	r1, [r3, #48]
 181 00aa 0F48     		ldr	r0, .L9+44
 182 00ac FFF7FEFF 		bl	printf_USB
 183              	.LVL16:
 183:USBJsonConfig.c ****     printf_USB("\"deviceName\":\"%s\"}",g_ptrServer->deviceName);   
 184              		.loc 1 183 0
 185 00b0 2168     		ldr	r1, [r4]
 186 00b2 6E31     		adds	r1, r1, #110
 187 00b4 0D48     		ldr	r0, .L9+48
 188 00b6 FFF7FEFF 		bl	printf_USB
 189              	.LVL17:
 184:USBJsonConfig.c ****     
 185:USBJsonConfig.c **** }
 190              		.loc 1 185 0
 191              		@ sp needed
 192              	.LVL18:
 193 00ba 70BD     		pop	{r4, r5, r6, pc}
 194              	.L10:
 195              		.align	2
 196              	.L9:
 197 00bc 00000000 		.word	.LC0
 198 00c0 00000000 		.word	g_ptrServer
 199 00c4 18000000 		.word	.LC3
 200 00c8 28000000 		.word	.LC5
 201 00cc 00000000 		.word	g_APs
 202 00d0 38000000 		.word	.LC8
 203 00d4 48000000 		.word	.LC10
 204 00d8 00000000 		.word	g_SizeOfAPs
 205 00dc 58000000 		.word	.LC13
 206 00e0 6C000000 		.word	.LC15
 207 00e4 80000000 		.word	.LC17
 208 00e8 94000000 		.word	.LC19
 209 00ec A8000000 		.word	.LC21
 210              		.cfi_endproc
 211              	.LFE65:
ARM GAS  C:\Users\luvsd\AppData\Local\Temp\ccqRwhGy.s 			page 8


 212              		.size	SendConfigData, .-SendConfigData
 213              		.section	.text.USB_CommandProcess,"ax",%progbits
 214              		.align	2
 215              		.global	USB_CommandProcess
 216              		.code	16
 217              		.thumb_func
 218              		.type	USB_CommandProcess, %function
 219              	USB_CommandProcess:
 220              	.LFB64:
  47:USBJsonConfig.c ****     int nLoop=0;
 221              		.loc 1 47 0
 222              		.cfi_startproc
 223              		@ args = 0, pretend = 0, frame = 0
 224              		@ frame_needed = 0, uses_anonymous_args = 0
 225 0000 10B5     		push	{r4, lr}
 226              		.cfi_def_cfa_offset 8
 227              		.cfi_offset 4, -8
 228              		.cfi_offset 14, -4
 229              	.LVL19:
  50:USBJsonConfig.c ****     {
 230              		.loc 1 50 0
 231 0002 5E4B     		ldr	r3, .L29
 232 0004 9B8E     		ldrh	r3, [r3, #52]
 233 0006 032B     		cmp	r3, #3
 234 0008 52D0     		beq	.L13
 235 000a 042B     		cmp	r3, #4
 236 000c 58D0     		beq	.L14
 237 000e 012B     		cmp	r3, #1
 238 0010 00D0     		beq	.LCB200
 239 0012 AEE0     		b	.L12	@long jump
 240              	.LCB200:
  54:USBJsonConfig.c ****                         
 241              		.loc 1 54 0
 242 0014 7D33     		adds	r3, r3, #125
 243 0016 5A4A     		ldr	r2, .L29+4
 244 0018 D35C     		ldrb	r3, [r2, r3]
 245 001a 012B     		cmp	r3, #1
 246 001c 00D0     		beq	.LCB205
 247 001e ABE0     		b	.L11	@long jump
 248              	.LCB205:
  57:USBJsonConfig.c ****             //////////////////////////////////            
 249              		.loc 1 57 0
 250 0020 5849     		ldr	r1, .L29+8
 251 0022 5948     		ldr	r0, .L29+12
 252 0024 FFF7FEFF 		bl	strcmp
 253              	.LVL20:
 254 0028 0028     		cmp	r0, #0
 255 002a 1ED1     		bne	.L17
  60:USBJsonConfig.c **** 
 256              		.loc 1 60 0
 257 002c 5748     		ldr	r0, .L29+16
 258 002e FFF7FEFF 		bl	ShowMessage
 259              	.LVL21:
  62:USBJsonConfig.c ****                 wifi_cmd(WIFI_CMD_AP_SCAN);
 260              		.loc 1 62 0
 261 0032 FFF7FEFF 		bl	clearWifiBuffer
 262              	.LVL22:
ARM GAS  C:\Users\luvsd\AppData\Local\Temp\ccqRwhGy.s 			page 9


  63:USBJsonConfig.c ****                 while(g_wifi_cmd != WIFI_CMD_IDLE)
 263              		.loc 1 63 0
 264 0036 0320     		movs	r0, #3
 265 0038 FFF7FEFF 		bl	wifi_cmd
 266              	.LVL23:
  64:USBJsonConfig.c ****                 {
 267              		.loc 1 64 0
 268 003c 09E0     		b	.L19
 269              	.L20:
  66:USBJsonConfig.c ****                     if(wifi_receive_data()==TRUE)
 270              		.loc 1 66 0
 271 003e FFF7FEFF 		bl	usbLoop
 272              	.LVL24:
  67:USBJsonConfig.c ****                     {
 273              		.loc 1 67 0
 274 0042 FFF7FEFF 		bl	wifi_receive_data
 275              	.LVL25:
 276 0046 0128     		cmp	r0, #1
 277 0048 03D1     		bne	.L19
  69:USBJsonConfig.c ****                         clearWifiBuffer();
 278              		.loc 1 69 0
 279 004a FFF7FEFF 		bl	wifi_get_response
 280              	.LVL26:
  70:USBJsonConfig.c ****                     }
 281              		.loc 1 70 0
 282 004e FFF7FEFF 		bl	clearWifiBuffer
 283              	.LVL27:
 284              	.L19:
  64:USBJsonConfig.c ****                 {
 285              		.loc 1 64 0
 286 0052 4F4B     		ldr	r3, .L29+20
 287 0054 1B78     		ldrb	r3, [r3]
 288 0056 002B     		cmp	r3, #0
 289 0058 F1D1     		bne	.L20
  73:USBJsonConfig.c ****                 SendConfigData();
 290              		.loc 1 73 0
 291 005a 4E4B     		ldr	r3, .L29+24
 292 005c 1988     		ldrh	r1, [r3]
 293 005e 4E48     		ldr	r0, .L29+28
 294 0060 FFF7FEFF 		bl	ShowMessage
 295              	.LVL28:
  74:USBJsonConfig.c ****                 break;
 296              		.loc 1 74 0
 297 0064 FFF7FEFF 		bl	SendConfigData
 298              	.LVL29:
  75:USBJsonConfig.c ****             }
 299              		.loc 1 75 0
 300 0068 83E0     		b	.L12
 301              	.L17:
  78:USBJsonConfig.c ****             ////////////////////////////////// 
 302              		.loc 1 78 0
 303 006a 4C49     		ldr	r1, .L29+32
 304 006c 4648     		ldr	r0, .L29+12
 305 006e FFF7FEFF 		bl	strcmp
 306              	.LVL30:
 307 0072 0028     		cmp	r0, #0
 308 0074 02D1     		bne	.L21
ARM GAS  C:\Users\luvsd\AppData\Local\Temp\ccqRwhGy.s 			page 10


  82:USBJsonConfig.c ****                 break;
 309              		.loc 1 82 0
 310 0076 FFF7FEFF 		bl	CySoftwareReset
 311              	.LVL31:
  83:USBJsonConfig.c ****             }
 312              		.loc 1 83 0
 313 007a 7AE0     		b	.L12
 314              	.L21:
  86:USBJsonConfig.c ****             ////////////////////////////////// 
 315              		.loc 1 86 0
 316 007c 4849     		ldr	r1, .L29+36
 317 007e 4248     		ldr	r0, .L29+12
 318 0080 FFF7FEFF 		bl	strcmp
 319              	.LVL32:
 320 0084 0028     		cmp	r0, #0
 321 0086 02D1     		bne	.L22
  89:USBJsonConfig.c ****                 break;            
 322              		.loc 1 89 0
 323 0088 FFF7FEFF 		bl	reflashMenu
 324              	.LVL33:
  90:USBJsonConfig.c ****             }       
 325              		.loc 1 90 0
 326 008c 71E0     		b	.L12
 327              	.L22:
  93:USBJsonConfig.c ****             ////////////////////////////////// 
 328              		.loc 1 93 0
 329 008e 4549     		ldr	r1, .L29+40
 330 0090 3D48     		ldr	r0, .L29+12
 331 0092 FFF7FEFF 		bl	strcmp
 332              	.LVL34:
 333 0096 0028     		cmp	r0, #0
 334 0098 0AD1     		bne	.L13
  97:USBJsonConfig.c ****                     CyDelay(100);
 335              		.loc 1 97 0
 336 009a 4348     		ldr	r0, .L29+44
 337 009c FFF7FEFF 		bl	puts
 338              	.LVL35:
  98:USBJsonConfig.c ****                     Bootloadable_Load();
 339              		.loc 1 98 0
 340 00a0 6420     		movs	r0, #100
 341 00a2 FFF7FEFF 		bl	CyDelay
 342              	.LVL36:
  99:USBJsonConfig.c ****                     CySoftwareReset();
 343              		.loc 1 99 0
 344 00a6 FFF7FEFF 		bl	Bootloadable_Load
 345              	.LVL37:
 100:USBJsonConfig.c ****                 #endif
 346              		.loc 1 100 0
 347 00aa FFF7FEFF 		bl	CySoftwareReset
 348              	.LVL38:
 102:USBJsonConfig.c ****             }            
 349              		.loc 1 102 0
 350 00ae 60E0     		b	.L12
 351              	.L13:
 107:USBJsonConfig.c ****             printConfig();
 352              		.loc 1 107 0
 353 00b0 3E48     		ldr	r0, .L29+48
ARM GAS  C:\Users\luvsd\AppData\Local\Temp\ccqRwhGy.s 			page 11


 354 00b2 FFF7FEFF 		bl	puts
 355              	.LVL39:
 108:USBJsonConfig.c ****             SendConfigData();
 356              		.loc 1 108 0
 357 00b6 FFF7FEFF 		bl	printConfig
 358              	.LVL40:
 109:USBJsonConfig.c ****         }
 359              		.loc 1 109 0
 360 00ba FFF7FEFF 		bl	SendConfigData
 361              	.LVL41:
 111:USBJsonConfig.c ****         case REQ_WRITE_CONFIG:
 362              		.loc 1 111 0
 363 00be 58E0     		b	.L12
 364              	.L14:
 365              	.LBB5:
 115:USBJsonConfig.c ****             removeDoubleSlash(g_ConfigMeta.url);  // remove double slash('/')
 366              		.loc 1 115 0
 367 00c0 2E4C     		ldr	r4, .L29
 368 00c2 2000     		movs	r0, r4
 369 00c4 FFF7FEFF 		bl	removeWhiteSpace
 370              	.LVL42:
 116:USBJsonConfig.c ****             len = strlen(g_ConfigMeta.url);        
 371              		.loc 1 116 0
 372 00c8 2000     		movs	r0, r4
 373 00ca FFF7FEFF 		bl	removeDoubleSlash
 374              	.LVL43:
 117:USBJsonConfig.c ****             if(g_ConfigMeta.url[len-1] == '/') g_ConfigMeta.url[len-1] = '\0';  // remove last slas
 375              		.loc 1 117 0
 376 00ce 2000     		movs	r0, r4
 377 00d0 FFF7FEFF 		bl	strlen
 378              	.LVL44:
 118:USBJsonConfig.c ****             
 379              		.loc 1 118 0
 380 00d4 0138     		subs	r0, r0, #1
 381              	.LVL45:
 382 00d6 235C     		ldrb	r3, [r4, r0]
 383 00d8 2F2B     		cmp	r3, #47
 384 00da 02D1     		bne	.L23
 118:USBJsonConfig.c ****             
 385              		.loc 1 118 0 is_stmt 0 discriminator 1
 386 00dc 0022     		movs	r2, #0
 387 00de 274B     		ldr	r3, .L29
 388 00e0 1A54     		strb	r2, [r3, r0]
 389              	.L23:
 120:USBJsonConfig.c ****                         
 390              		.loc 1 120 0 is_stmt 1
 391 00e2 2F21     		movs	r1, #47
 392 00e4 2548     		ldr	r0, .L29
 393              	.LVL46:
 394 00e6 FFF7FEFF 		bl	strchr
 395              	.LVL47:
 396 00ea 041E     		subs	r4, r0, #0
 397              	.LVL48:
 122:USBJsonConfig.c ****             {                
 398              		.loc 1 122 0
 399 00ec 07D0     		beq	.L24
 124:USBJsonConfig.c ****                 *p= '\0'; // g_ptrServer->IP ļ¦łņ¦Ćļ¦ē ļÆżņŚÉ ļüØņØä ņĢīļ”¼ļŖö 0ņØä ļäŻļŖöļŗż.
ARM GAS  C:\Users\luvsd\AppData\Local\Temp\ccqRwhGy.s 			page 12


 400              		.loc 1 124 0
 401 00ee 304B     		ldr	r3, .L29+52
 402 00f0 1868     		ldr	r0, [r3]
 403              	.LVL49:
 404 00f2 1030     		adds	r0, r0, #16
 405 00f4 2100     		movs	r1, r4
 406 00f6 FFF7FEFF 		bl	strcpy
 407              	.LVL50:
 125:USBJsonConfig.c ****             }
 408              		.loc 1 125 0
 409 00fa 0023     		movs	r3, #0
 410 00fc 2370     		strb	r3, [r4]
 411              	.L24:
 127:USBJsonConfig.c ****             refineIPAddress(g_ptrServer->IP); // URLņØ┤ ņĢäļŗī ļ¼Ėņ×ÉļŖö ņĀ£Ļ▒░ĒĢ£ļŗż.
 412              		.loc 1 127 0
 413 00fe 2C4C     		ldr	r4, .L29+52
 414              	.LVL51:
 415 0100 1E49     		ldr	r1, .L29
 416 0102 2068     		ldr	r0, [r4]
 417 0104 FFF7FEFF 		bl	strcpy
 418              	.LVL52:
 128:USBJsonConfig.c ****             
 419              		.loc 1 128 0
 420 0108 2068     		ldr	r0, [r4]
 421 010a FFF7FEFF 		bl	refineIPAddress
 422              	.LVL53:
 130:USBJsonConfig.c ****             
 423              		.loc 1 130 0
 424 010e 2368     		ldr	r3, [r4]
 425 0110 1A8E     		ldrh	r2, [r3, #48]
 426 0112 002A     		cmp	r2, #0
 427 0114 01D1     		bne	.L25
 130:USBJsonConfig.c ****             
 428              		.loc 1 130 0 is_stmt 0 discriminator 1
 429 0116 5032     		adds	r2, r2, #80
 430 0118 1A86     		strh	r2, [r3, #48]
 431              	.L25:
 132:USBJsonConfig.c ****             SendConfigData();
 432              		.loc 1 132 0 is_stmt 1
 433 011a FFF7FEFF 		bl	printConfig
 434              	.LVL54:
 133:USBJsonConfig.c ****             ShowMessage("Saving..");            
 435              		.loc 1 133 0
 436 011e FFF7FEFF 		bl	SendConfigData
 437              	.LVL55:
 134:USBJsonConfig.c ****             SaveExternalFlashConfig();
 438              		.loc 1 134 0
 439 0122 2448     		ldr	r0, .L29+56
 440 0124 FFF7FEFF 		bl	ShowMessage
 441              	.LVL56:
 135:USBJsonConfig.c ****             
 442              		.loc 1 135 0
 443 0128 FFF7FEFF 		bl	SaveExternalFlashConfig
 444              	.LVL57:
 137:USBJsonConfig.c ****             
 445              		.loc 1 137 0
 446 012c FFF7FEFF 		bl	reflashMenu
ARM GAS  C:\Users\luvsd\AppData\Local\Temp\ccqRwhGy.s 			page 13


 447              	.LVL58:
 139:USBJsonConfig.c ****             {
 448              		.loc 1 139 0
 449 0130 3223     		movs	r3, #50
 450 0132 124A     		ldr	r2, .L29
 451 0134 D35C     		ldrb	r3, [r2, r3]
 452 0136 FF2B     		cmp	r3, #255
 453 0138 1BD0     		beq	.L12
 141:USBJsonConfig.c ****                 clearWifiBuffer();
 454              		.loc 1 141 0
 455 013a 1F48     		ldr	r0, .L29+60
 456 013c FFF7FEFF 		bl	ShowMessage
 457              	.LVL59:
 142:USBJsonConfig.c ****                 wifi_cmd(WIFI_CMD_FACTORY_RESET);
 458              		.loc 1 142 0
 459 0140 FFF7FEFF 		bl	clearWifiBuffer
 460              	.LVL60:
 143:USBJsonConfig.c ****                 while(g_wifi_cmd != WIFI_CMD_IDLE)
 461              		.loc 1 143 0
 462 0144 0720     		movs	r0, #7
 463 0146 FFF7FEFF 		bl	wifi_cmd
 464              	.LVL61:
 144:USBJsonConfig.c ****                 {
 465              		.loc 1 144 0
 466 014a 09E0     		b	.L27
 467              	.L28:
 146:USBJsonConfig.c ****                     if(wifi_receive_data()==TRUE)
 468              		.loc 1 146 0
 469 014c FFF7FEFF 		bl	usbLoop
 470              	.LVL62:
 147:USBJsonConfig.c ****                     {
 471              		.loc 1 147 0
 472 0150 FFF7FEFF 		bl	wifi_receive_data
 473              	.LVL63:
 474 0154 0128     		cmp	r0, #1
 475 0156 03D1     		bne	.L27
 149:USBJsonConfig.c ****                         clearWifiBuffer();
 476              		.loc 1 149 0
 477 0158 FFF7FEFF 		bl	wifi_get_response
 478              	.LVL64:
 150:USBJsonConfig.c ****                     }
 479              		.loc 1 150 0
 480 015c FFF7FEFF 		bl	clearWifiBuffer
 481              	.LVL65:
 482              	.L27:
 144:USBJsonConfig.c ****                 {
 483              		.loc 1 144 0
 484 0160 0B4B     		ldr	r3, .L29+20
 485 0162 1B78     		ldrb	r3, [r3]
 486 0164 002B     		cmp	r3, #0
 487 0166 F1D1     		bne	.L28
 153:USBJsonConfig.c ****                 CySoftwareReset();
 488              		.loc 1 153 0
 489 0168 1448     		ldr	r0, .L29+64
 490 016a FFF7FEFF 		bl	ShowMessage
 491              	.LVL66:
 154:USBJsonConfig.c ****             }                        
ARM GAS  C:\Users\luvsd\AppData\Local\Temp\ccqRwhGy.s 			page 14


 492              		.loc 1 154 0
 493 016e FFF7FEFF 		bl	CySoftwareReset
 494              	.LVL67:
 495              	.L12:
 496              	.LBE5:
 160:USBJsonConfig.c **** }
 497              		.loc 1 160 0
 498 0172 0022     		movs	r2, #0
 499 0174 014B     		ldr	r3, .L29
 500 0176 9A86     		strh	r2, [r3, #52]
 501              	.L11:
 161:USBJsonConfig.c **** 
 502              		.loc 1 161 0
 503              		@ sp needed
 504 0178 10BD     		pop	{r4, pc}
 505              	.L30:
 506 017a C046     		.align	2
 507              	.L29:
 508 017c 00000000 		.word	g_ConfigMeta
 509 0180 00000000 		.word	g_network
 510 0184 BC000000 		.word	.LC25
 511 0188 00000000 		.word	g_usbCmd
 512 018c C4000000 		.word	.LC28
 513 0190 00000000 		.word	g_wifi_cmd
 514 0194 00000000 		.word	g_SizeOfAPs
 515 0198 D4000000 		.word	.LC32
 516 019c E0000000 		.word	.LC34
 517 01a0 E8000000 		.word	.LC36
 518 01a4 F4000000 		.word	.LC38
 519 01a8 04010000 		.word	.LC40
 520 01ac 18010000 		.word	.LC42
 521 01b0 00000000 		.word	g_ptrServer
 522 01b4 28010000 		.word	.LC45
 523 01b8 34010000 		.word	.LC47
 524 01bc 44010000 		.word	.LC49
 525              		.cfi_endproc
 526              	.LFE64:
 527              		.size	USB_CommandProcess, .-USB_CommandProcess
 528              		.section	.text.JSON_Config,"ax",%progbits
 529              		.align	2
 530              		.global	JSON_Config
 531              		.code	16
 532              		.thumb_func
 533              		.type	JSON_Config, %function
 534              	JSON_Config:
 535              	.LFB66:
 186:USBJsonConfig.c **** 
 187:USBJsonConfig.c **** uint8 JSON_Config(char *buffer, int16 size)
 188:USBJsonConfig.c **** {
 536              		.loc 1 188 0
 537              		.cfi_startproc
 538              		@ args = 0, pretend = 0, frame = 2160
 539              		@ frame_needed = 0, uses_anonymous_args = 0
 540              	.LVL68:
 541 0000 F0B5     		push	{r4, r5, r6, r7, lr}
 542              		.cfi_def_cfa_offset 20
 543              		.cfi_offset 4, -20
ARM GAS  C:\Users\luvsd\AppData\Local\Temp\ccqRwhGy.s 			page 15


 544              		.cfi_offset 5, -16
 545              		.cfi_offset 6, -12
 546              		.cfi_offset 7, -8
 547              		.cfi_offset 14, -4
 548 0002 9F4C     		ldr	r4, .L51
 549 0004 A544     		add	sp, sp, r4
 550              		.cfi_def_cfa_offset 2192
 551 0006 0500     		movs	r5, r0
 552 0008 0C00     		movs	r4, r1
 189:USBJsonConfig.c ****     int i;
 190:USBJsonConfig.c ****     int r;
 191:USBJsonConfig.c ****     jsmn_parser p;
 192:USBJsonConfig.c ****     jsmntok_t t[128]; /* We expect no more than 128 tokens */  
 193:USBJsonConfig.c ****     
 194:USBJsonConfig.c ****     jsmn_init(&p);
 553              		.loc 1 194 0
 554 000a 9E4B     		ldr	r3, .L51+4
 555 000c 6B44     		add	r3, r3, sp
 556 000e 1800     		movs	r0, r3
 557              	.LVL69:
 558 0010 FFF7FEFF 		bl	jsmn_init
 559              	.LVL70:
 195:USBJsonConfig.c ****     r = jsmn_parse(&p, buffer, size, t, sizeof(t) / sizeof(t[0]));
 560              		.loc 1 195 0
 561 0014 8023     		movs	r3, #128
 562 0016 0093     		str	r3, [sp]
 563 0018 1BAB     		add	r3, sp, #108
 564 001a 2200     		movs	r2, r4
 565 001c 2900     		movs	r1, r5
 566 001e 9948     		ldr	r0, .L51+4
 567 0020 6844     		add	r0, r0, sp
 568 0022 FFF7FEFF 		bl	jsmn_parse
 569              	.LVL71:
 570 0026 071E     		subs	r7, r0, #0
 571              	.LVL72:
 196:USBJsonConfig.c ****     
 197:USBJsonConfig.c ****     if (r < 0) {
 572              		.loc 1 197 0
 573 0028 00DA     		bge	.LCB492
 574 002a 20E1     		b	.L48	@long jump
 575              	.LCB492:
 198:USBJsonConfig.c ****     //    DEBUG_printf("Failed to parse JSON: %d\r\n", r);
 199:USBJsonConfig.c ****         return FALSE;
 200:USBJsonConfig.c ****     }
 201:USBJsonConfig.c ****     
 202:USBJsonConfig.c ****     /* Assume the top-level element is an object */
 203:USBJsonConfig.c ****     if (r < 1 || t[0].type != JSMN_OBJECT) {
 576              		.loc 1 203 0
 577 002c 0028     		cmp	r0, #0
 578 002e 00DC     		bgt	.LCB494
 579 0030 1FE1     		b	.L49	@long jump
 580              	.LCB494:
 581              		.loc 1 203 0 is_stmt 0 discriminator 1
 582 0032 1BAB     		add	r3, sp, #108
 583 0034 1B78     		ldrb	r3, [r3]
 584 0036 012B     		cmp	r3, #1
 585 0038 00D0     		beq	.LCB498
ARM GAS  C:\Users\luvsd\AppData\Local\Temp\ccqRwhGy.s 			page 16


 586 003a 1CE1     		b	.L50	@long jump
 587              	.LCB498:
 204:USBJsonConfig.c ****     //    DEBUG_printf("Object expected type: %d\r\n", t[0].type);
 205:USBJsonConfig.c ****         return FALSE;
 206:USBJsonConfig.c ****     }
 207:USBJsonConfig.c ****     
 208:USBJsonConfig.c ****     char buff[100];
 209:USBJsonConfig.c **** 
 210:USBJsonConfig.c ****     g_ConfigMeta.uRequestType = 0;
 588              		.loc 1 210 0 is_stmt 1
 589 003c 924B     		ldr	r3, .L51+8
 590 003e 0022     		movs	r2, #0
 591 0040 9A86     		strh	r2, [r3, #52]
 211:USBJsonConfig.c ****     
 212:USBJsonConfig.c ****     g_ConfigMeta.SSIDIndex = 0xFF;
 592              		.loc 1 212 0
 593 0042 FF21     		movs	r1, #255
 594 0044 3232     		adds	r2, r2, #50
 595 0046 9954     		strb	r1, [r3, r2]
 596              	.LVL73:
 213:USBJsonConfig.c ****                                            
 214:USBJsonConfig.c ****     for (i = 1; i < r; i++)
 597              		.loc 1 214 0
 598 0048 0126     		movs	r6, #1
 599 004a 0BE1     		b	.L33
 600              	.LVL74:
 601              	.L47:
 215:USBJsonConfig.c ****     {   
 216:USBJsonConfig.c ****         if     (jsoneq(buffer, &t[i], "request") == 0)
 602              		.loc 1 216 0
 603 004c 3401     		lsls	r4, r6, #4
 604 004e 1BAB     		add	r3, sp, #108
 605 0050 9C46     		mov	ip, r3
 606 0052 6444     		add	r4, r4, ip
 607 0054 8D4A     		ldr	r2, .L51+12
 608 0056 2100     		movs	r1, r4
 609 0058 2800     		movs	r0, r5
 610 005a FFF7FEFF 		bl	jsoneq
 611              	.LVL75:
 612 005e 0028     		cmp	r0, #0
 613 0060 35D1     		bne	.L34
 217:USBJsonConfig.c ****         {
 218:USBJsonConfig.c ****             sprintf(buff,"%.*s",t[i + 1].end - t[i + 1].start,buffer + t[i + 1].start);
 614              		.loc 1 218 0
 615 0062 731C     		adds	r3, r6, #1
 616 0064 1B01     		lsls	r3, r3, #4
 617 0066 1BAA     		add	r2, sp, #108
 618 0068 9446     		mov	ip, r2
 619 006a 6344     		add	r3, r3, ip
 620 006c 9A68     		ldr	r2, [r3, #8]
 621 006e 5968     		ldr	r1, [r3, #4]
 622 0070 6B18     		adds	r3, r5, r1
 623 0072 521A     		subs	r2, r2, r1
 624 0074 8649     		ldr	r1, .L51+16
 625 0076 02A8     		add	r0, sp, #8
 626 0078 FFF7FEFF 		bl	sprintf
 627              	.LVL76:
ARM GAS  C:\Users\luvsd\AppData\Local\Temp\ccqRwhGy.s 			page 17


 219:USBJsonConfig.c **** 
 220:USBJsonConfig.c ****             // AT Command ///////////////////////
 221:USBJsonConfig.c ****             if(strcmp(buff,"sysCmd") == 0)           g_ConfigMeta.uRequestType = REQ_SYSTEM_CMD;   
 628              		.loc 1 221 0
 629 007c 8549     		ldr	r1, .L51+20
 630 007e 02A8     		add	r0, sp, #8
 631 0080 FFF7FEFF 		bl	strcmp
 632              	.LVL77:
 633 0084 0028     		cmp	r0, #0
 634 0086 03D1     		bne	.L35
 635              		.loc 1 221 0 is_stmt 0 discriminator 1
 636 0088 0122     		movs	r2, #1
 637 008a 7F4B     		ldr	r3, .L51+8
 638 008c 9A86     		strh	r2, [r3, #52]
 639 008e E8E0     		b	.L39
 640              	.L35:
 222:USBJsonConfig.c ****             // AT Command ///////////////////////
 223:USBJsonConfig.c ****             else if(strcmp(buff,"atCmd") == 0)       g_ConfigMeta.uRequestType = REQ_AT_CMD;
 641              		.loc 1 223 0 is_stmt 1
 642 0090 8149     		ldr	r1, .L51+24
 643 0092 02A8     		add	r0, sp, #8
 644 0094 FFF7FEFF 		bl	strcmp
 645              	.LVL78:
 646 0098 0028     		cmp	r0, #0
 647 009a 03D1     		bne	.L37
 648              		.loc 1 223 0 is_stmt 0 discriminator 1
 649 009c 0222     		movs	r2, #2
 650 009e 7A4B     		ldr	r3, .L51+8
 651 00a0 9A86     		strh	r2, [r3, #52]
 652 00a2 DEE0     		b	.L39
 653              	.L37:
 224:USBJsonConfig.c ****             // Read Config ///////////////////////
 225:USBJsonConfig.c ****             else if(strcmp(buff,"readConfig") == 0)  g_ConfigMeta.uRequestType = REQ_READ_CONFIG;
 654              		.loc 1 225 0 is_stmt 1
 655 00a4 7D49     		ldr	r1, .L51+28
 656 00a6 02A8     		add	r0, sp, #8
 657 00a8 FFF7FEFF 		bl	strcmp
 658              	.LVL79:
 659 00ac 0028     		cmp	r0, #0
 660 00ae 03D1     		bne	.L38
 661              		.loc 1 225 0 is_stmt 0 discriminator 1
 662 00b0 0322     		movs	r2, #3
 663 00b2 754B     		ldr	r3, .L51+8
 664 00b4 9A86     		strh	r2, [r3, #52]
 665 00b6 D4E0     		b	.L39
 666              	.L38:
 226:USBJsonConfig.c ****             // Write Config ///////////////////////
 227:USBJsonConfig.c ****             else if(strcmp(buff,"writeConfig") == 0) g_ConfigMeta.uRequestType = REQ_WRITE_CONFIG;
 667              		.loc 1 227 0 is_stmt 1
 668 00b8 7949     		ldr	r1, .L51+32
 669 00ba 02A8     		add	r0, sp, #8
 670 00bc FFF7FEFF 		bl	strcmp
 671              	.LVL80:
 672 00c0 0028     		cmp	r0, #0
 673 00c2 00D0     		beq	.LCB585
 674 00c4 CDE0     		b	.L39	@long jump
 675              	.LCB585:
ARM GAS  C:\Users\luvsd\AppData\Local\Temp\ccqRwhGy.s 			page 18


 676              		.loc 1 227 0 is_stmt 0 discriminator 1
 677 00c6 0422     		movs	r2, #4
 678 00c8 6F4B     		ldr	r3, .L51+8
 679 00ca 9A86     		strh	r2, [r3, #52]
 228:USBJsonConfig.c ****             
 229:USBJsonConfig.c ****             continue;
 680              		.loc 1 229 0 is_stmt 1 discriminator 1
 681 00cc C9E0     		b	.L39
 682              	.L34:
 230:USBJsonConfig.c ****         }
 231:USBJsonConfig.c ****         /////////////////////////// REQ_SYSTEM_CMD //////////////////////////////
 232:USBJsonConfig.c ****         else if(g_ConfigMeta.uRequestType == REQ_SYSTEM_CMD)
 683              		.loc 1 232 0
 684 00ce 6E4B     		ldr	r3, .L51+8
 685 00d0 9B8E     		ldrh	r3, [r3, #52]
 686 00d2 012B     		cmp	r3, #1
 687 00d4 23D1     		bne	.L40
 233:USBJsonConfig.c ****         {
 234:USBJsonConfig.c ****             if     (jsoneq(buffer, &t[i], "cmd") == 0)
 688              		.loc 1 234 0
 689 00d6 734A     		ldr	r2, .L51+36
 690 00d8 2100     		movs	r1, r4
 691 00da 2800     		movs	r0, r5
 692 00dc FFF7FEFF 		bl	jsoneq
 693              	.LVL81:
 694 00e0 0028     		cmp	r0, #0
 695 00e2 00D0     		beq	.LCB603
 696 00e4 BDE0     		b	.L39	@long jump
 697              	.LCB603:
 235:USBJsonConfig.c ****             {
 236:USBJsonConfig.c ****                 sprintf(g_usbCmd,"%.*s",t[i + 1].end - t[i + 1].start,buffer + t[i + 1].start);
 698              		.loc 1 236 0
 699 00e6 731C     		adds	r3, r6, #1
 700 00e8 1B01     		lsls	r3, r3, #4
 701 00ea 1BAA     		add	r2, sp, #108
 702 00ec 9446     		mov	ip, r2
 703 00ee 6344     		add	r3, r3, ip
 704 00f0 9A68     		ldr	r2, [r3, #8]
 705 00f2 5968     		ldr	r1, [r3, #4]
 706 00f4 6B18     		adds	r3, r5, r1
 707 00f6 521A     		subs	r2, r2, r1
 708 00f8 6B4C     		ldr	r4, .L51+40
 709 00fa 6549     		ldr	r1, .L51+16
 710 00fc 2000     		movs	r0, r4
 711 00fe FFF7FEFF 		bl	sprintf
 712              	.LVL82:
 237:USBJsonConfig.c ****                 if(strcmp(g_usbCmd,"connect") == 0) printf_USB("{\"response\":\"connected\"}");
 713              		.loc 1 237 0
 714 0102 6A49     		ldr	r1, .L51+44
 715 0104 2000     		movs	r0, r4
 716 0106 FFF7FEFF 		bl	strcmp
 717              	.LVL83:
 718 010a 0028     		cmp	r0, #0
 719 010c 02D1     		bne	.L41
 720              		.loc 1 237 0 is_stmt 0 discriminator 1
 721 010e 6848     		ldr	r0, .L51+48
 722 0110 FFF7FEFF 		bl	printf_USB
ARM GAS  C:\Users\luvsd\AppData\Local\Temp\ccqRwhGy.s 			page 19


 723              	.LVL84:
 724              	.L41:
 238:USBJsonConfig.c **** printf("><%s\r\n",g_usbCmd);
 725              		.loc 1 238 0 is_stmt 1
 726 0114 6449     		ldr	r1, .L51+40
 727 0116 6748     		ldr	r0, .L51+52
 728 0118 FFF7FEFF 		bl	printf
 729              	.LVL85:
 730 011c A1E0     		b	.L39
 731              	.L40:
 239:USBJsonConfig.c ****             }
 240:USBJsonConfig.c ****         }
 241:USBJsonConfig.c ****         else if(g_ConfigMeta.uRequestType == REQ_WRITE_CONFIG)
 732              		.loc 1 241 0
 733 011e 042B     		cmp	r3, #4
 734 0120 00D0     		beq	.LCB642
 735 0122 9EE0     		b	.L39	@long jump
 736              	.LCB642:
 242:USBJsonConfig.c ****         {
 243:USBJsonConfig.c ****                 if     (jsoneq(buffer, &t[i], "SSIDIndex") == 0)
 737              		.loc 1 243 0
 738 0124 644A     		ldr	r2, .L51+56
 739 0126 2100     		movs	r1, r4
 740 0128 2800     		movs	r0, r5
 741 012a FFF7FEFF 		bl	jsoneq
 742              	.LVL86:
 743 012e 0028     		cmp	r0, #0
 744 0130 1FD1     		bne	.L42
 244:USBJsonConfig.c ****             {
 245:USBJsonConfig.c ****                 sprintf(buff,"%.*s",t[i + 1].end - t[i + 1].start,buffer + t[i + 1].start);
 745              		.loc 1 245 0
 746 0132 731C     		adds	r3, r6, #1
 747 0134 1B01     		lsls	r3, r3, #4
 748 0136 1BAA     		add	r2, sp, #108
 749 0138 9446     		mov	ip, r2
 750 013a 6344     		add	r3, r3, ip
 751 013c 9A68     		ldr	r2, [r3, #8]
 752 013e 5968     		ldr	r1, [r3, #4]
 753 0140 6B18     		adds	r3, r5, r1
 754 0142 521A     		subs	r2, r2, r1
 755 0144 5249     		ldr	r1, .L51+16
 756 0146 02A8     		add	r0, sp, #8
 757 0148 FFF7FEFF 		bl	sprintf
 758              	.LVL87:
 246:USBJsonConfig.c ****                 g_ConfigMeta.SSIDIndex = atoi(buff);                
 759              		.loc 1 246 0
 760 014c 02A8     		add	r0, sp, #8
 761 014e FFF7FEFF 		bl	atoi
 762              	.LVL88:
 763 0152 C3B2     		uxtb	r3, r0
 764 0154 3222     		movs	r2, #50
 765 0156 4C49     		ldr	r1, .L51+8
 766 0158 8B54     		strb	r3, [r1, r2]
 247:USBJsonConfig.c ****                 strcpy(g_ptrServer->SSID,g_APs[g_ConfigMeta.SSIDIndex].SSID);                
 767              		.loc 1 247 0
 768 015a 584A     		ldr	r2, .L51+60
 769 015c 1068     		ldr	r0, [r2]
ARM GAS  C:\Users\luvsd\AppData\Local\Temp\ccqRwhGy.s 			page 20


 770 015e 3230     		adds	r0, r0, #50
 771 0160 1A01     		lsls	r2, r3, #4
 772 0162 D31A     		subs	r3, r2, r3
 773 0164 9900     		lsls	r1, r3, #2
 774 0166 564B     		ldr	r3, .L51+64
 775 0168 C918     		adds	r1, r1, r3
 776 016a 0231     		adds	r1, r1, #2
 777 016c FFF7FEFF 		bl	strcpy
 778              	.LVL89:
 779 0170 77E0     		b	.L39
 780              	.L42:
 248:USBJsonConfig.c ****             } 
 249:USBJsonConfig.c ****             else if     (jsoneq(buffer, &t[i], "withMAC") == 0)
 781              		.loc 1 249 0
 782 0172 544A     		ldr	r2, .L51+68
 783 0174 2100     		movs	r1, r4
 784 0176 2800     		movs	r0, r5
 785 0178 FFF7FEFF 		bl	jsoneq
 786              	.LVL90:
 787 017c 0028     		cmp	r0, #0
 788 017e 13D1     		bne	.L43
 250:USBJsonConfig.c ****             {
 251:USBJsonConfig.c ****                 sprintf(buff,"%.*s",t[i + 1].end - t[i + 1].start,buffer + t[i + 1].start); 
 789              		.loc 1 251 0
 790 0180 731C     		adds	r3, r6, #1
 791 0182 1B01     		lsls	r3, r3, #4
 792 0184 1BAA     		add	r2, sp, #108
 793 0186 9446     		mov	ip, r2
 794 0188 6344     		add	r3, r3, ip
 795 018a 9A68     		ldr	r2, [r3, #8]
 796 018c 5968     		ldr	r1, [r3, #4]
 797 018e 6B18     		adds	r3, r5, r1
 798 0190 521A     		subs	r2, r2, r1
 799 0192 3F49     		ldr	r1, .L51+16
 800 0194 02A8     		add	r0, sp, #8
 801 0196 FFF7FEFF 		bl	sprintf
 802              	.LVL91:
 252:USBJsonConfig.c ****                 g_ConfigMeta.bWithMAC = atoi(buff);                   
 803              		.loc 1 252 0
 804 019a 02A8     		add	r0, sp, #8
 805 019c FFF7FEFF 		bl	atoi
 806              	.LVL92:
 807 01a0 3323     		movs	r3, #51
 808 01a2 394A     		ldr	r2, .L51+8
 809 01a4 D054     		strb	r0, [r2, r3]
 810 01a6 5CE0     		b	.L39
 811              	.L43:
 253:USBJsonConfig.c ****             }
 254:USBJsonConfig.c ****             else if     (jsoneq(buffer, &t[i], "password") == 0)
 812              		.loc 1 254 0
 813 01a8 474A     		ldr	r2, .L51+72
 814 01aa 2100     		movs	r1, r4
 815 01ac 2800     		movs	r0, r5
 816 01ae FFF7FEFF 		bl	jsoneq
 817              	.LVL93:
 818 01b2 0028     		cmp	r0, #0
 819 01b4 0FD1     		bne	.L44
ARM GAS  C:\Users\luvsd\AppData\Local\Temp\ccqRwhGy.s 			page 21


 255:USBJsonConfig.c ****             {
 256:USBJsonConfig.c ****                 sprintf(g_ptrServer->password,"%.*s",t[i + 1].end - t[i + 1].start,buffer + t[i + 1
 820              		.loc 1 256 0
 821 01b6 414B     		ldr	r3, .L51+60
 822 01b8 1868     		ldr	r0, [r3]
 823 01ba 5A30     		adds	r0, r0, #90
 824 01bc 731C     		adds	r3, r6, #1
 825 01be 1B01     		lsls	r3, r3, #4
 826 01c0 1BAA     		add	r2, sp, #108
 827 01c2 9446     		mov	ip, r2
 828 01c4 6344     		add	r3, r3, ip
 829 01c6 9A68     		ldr	r2, [r3, #8]
 830 01c8 5968     		ldr	r1, [r3, #4]
 831 01ca 6B18     		adds	r3, r5, r1
 832 01cc 521A     		subs	r2, r2, r1
 833 01ce 3049     		ldr	r1, .L51+16
 834 01d0 FFF7FEFF 		bl	sprintf
 835              	.LVL94:
 836 01d4 45E0     		b	.L39
 837              	.L44:
 257:USBJsonConfig.c ****             }            
 258:USBJsonConfig.c ****             else if     (jsoneq(buffer, &t[i], "serverIP") == 0)
 838              		.loc 1 258 0
 839 01d6 3D4A     		ldr	r2, .L51+76
 840 01d8 2100     		movs	r1, r4
 841 01da 2800     		movs	r0, r5
 842 01dc FFF7FEFF 		bl	jsoneq
 843              	.LVL95:
 844 01e0 0028     		cmp	r0, #0
 845 01e2 0DD1     		bne	.L45
 259:USBJsonConfig.c ****             {
 260:USBJsonConfig.c ****                 sprintf(g_ConfigMeta.url,"%.*s",t[i + 1].end - t[i + 1].start,buffer + t[i + 1].sta
 846              		.loc 1 260 0
 847 01e4 731C     		adds	r3, r6, #1
 848 01e6 1B01     		lsls	r3, r3, #4
 849 01e8 1BAA     		add	r2, sp, #108
 850 01ea 9446     		mov	ip, r2
 851 01ec 6344     		add	r3, r3, ip
 852 01ee 9A68     		ldr	r2, [r3, #8]
 853 01f0 5968     		ldr	r1, [r3, #4]
 854 01f2 6B18     		adds	r3, r5, r1
 855 01f4 521A     		subs	r2, r2, r1
 856 01f6 2649     		ldr	r1, .L51+16
 857 01f8 2348     		ldr	r0, .L51+8
 858 01fa FFF7FEFF 		bl	sprintf
 859              	.LVL96:
 860 01fe 30E0     		b	.L39
 861              	.L45:
 261:USBJsonConfig.c ****             }              
 262:USBJsonConfig.c ****             else if     (jsoneq(buffer, &t[i], "serverPort") == 0)
 862              		.loc 1 262 0
 863 0200 334A     		ldr	r2, .L51+80
 864 0202 2100     		movs	r1, r4
 865 0204 2800     		movs	r0, r5
 866 0206 FFF7FEFF 		bl	jsoneq
 867              	.LVL97:
 868 020a 0028     		cmp	r0, #0
ARM GAS  C:\Users\luvsd\AppData\Local\Temp\ccqRwhGy.s 			page 22


 869 020c 13D1     		bne	.L46
 263:USBJsonConfig.c ****             {
 264:USBJsonConfig.c ****                 sprintf(buff,"%.*s",t[i + 1].end - t[i + 1].start,buffer + t[i + 1].start);    
 870              		.loc 1 264 0
 871 020e 731C     		adds	r3, r6, #1
 872 0210 1B01     		lsls	r3, r3, #4
 873 0212 1BAA     		add	r2, sp, #108
 874 0214 9446     		mov	ip, r2
 875 0216 6344     		add	r3, r3, ip
 876 0218 9A68     		ldr	r2, [r3, #8]
 877 021a 5968     		ldr	r1, [r3, #4]
 878 021c 6B18     		adds	r3, r5, r1
 879 021e 521A     		subs	r2, r2, r1
 880 0220 1B49     		ldr	r1, .L51+16
 881 0222 02A8     		add	r0, sp, #8
 882 0224 FFF7FEFF 		bl	sprintf
 883              	.LVL98:
 265:USBJsonConfig.c ****                 g_ptrServer->port = atoi(buff);
 884              		.loc 1 265 0
 885 0228 244B     		ldr	r3, .L51+60
 886 022a 1C68     		ldr	r4, [r3]
 887 022c 02A8     		add	r0, sp, #8
 888 022e FFF7FEFF 		bl	atoi
 889              	.LVL99:
 890 0232 2086     		strh	r0, [r4, #48]
 891 0234 15E0     		b	.L39
 892              	.L46:
 266:USBJsonConfig.c ****             }     
 267:USBJsonConfig.c ****             else if     (jsoneq(buffer, &t[i], "deviceName") == 0)
 893              		.loc 1 267 0
 894 0236 274A     		ldr	r2, .L51+84
 895 0238 2100     		movs	r1, r4
 896 023a 2800     		movs	r0, r5
 897 023c FFF7FEFF 		bl	jsoneq
 898              	.LVL100:
 899 0240 0028     		cmp	r0, #0
 900 0242 0ED1     		bne	.L39
 268:USBJsonConfig.c ****             {
 269:USBJsonConfig.c ****                 sprintf(g_ptrServer->deviceName,"%.*s",t[i + 1].end - t[i + 1].start,buffer + t[i +
 901              		.loc 1 269 0
 902 0244 1D4B     		ldr	r3, .L51+60
 903 0246 1868     		ldr	r0, [r3]
 904 0248 6E30     		adds	r0, r0, #110
 905 024a 731C     		adds	r3, r6, #1
 906 024c 1B01     		lsls	r3, r3, #4
 907 024e 1BAA     		add	r2, sp, #108
 908 0250 9446     		mov	ip, r2
 909 0252 6344     		add	r3, r3, ip
 910 0254 9A68     		ldr	r2, [r3, #8]
 911 0256 5968     		ldr	r1, [r3, #4]
 912 0258 6B18     		adds	r3, r5, r1
 913 025a 521A     		subs	r2, r2, r1
 914 025c 0C49     		ldr	r1, .L51+16
 915 025e FFF7FEFF 		bl	sprintf
 916              	.LVL101:
 917              	.L39:
 214:USBJsonConfig.c ****     {   
ARM GAS  C:\Users\luvsd\AppData\Local\Temp\ccqRwhGy.s 			page 23


 918              		.loc 1 214 0 discriminator 2
 919 0262 0136     		adds	r6, r6, #1
 920              	.LVL102:
 921              	.L33:
 214:USBJsonConfig.c ****     {   
 922              		.loc 1 214 0 is_stmt 0 discriminator 1
 923 0264 BE42     		cmp	r6, r7
 924 0266 00DA     		bge	.LCB844
 925 0268 F0E6     		b	.L47	@long jump
 926              	.LCB844:
 270:USBJsonConfig.c ****             }            
 271:USBJsonConfig.c ****         }
 272:USBJsonConfig.c ****     }
 273:USBJsonConfig.c ****     
 274:USBJsonConfig.c ****     return TRUE;
 927              		.loc 1 274 0 is_stmt 1
 928 026a 0120     		movs	r0, #1
 929 026c 04E0     		b	.L32
 930              	.LVL103:
 931              	.L48:
 199:USBJsonConfig.c ****     }
 932              		.loc 1 199 0
 933 026e 0020     		movs	r0, #0
 934              	.LVL104:
 935 0270 02E0     		b	.L32
 936              	.LVL105:
 937              	.L49:
 205:USBJsonConfig.c ****     }
 938              		.loc 1 205 0
 939 0272 0020     		movs	r0, #0
 940              	.LVL106:
 941 0274 00E0     		b	.L32
 942              	.LVL107:
 943              	.L50:
 944 0276 0020     		movs	r0, #0
 945              	.LVL108:
 946              	.L32:
 275:USBJsonConfig.c **** }
 947              		.loc 1 275 0
 948 0278 174B     		ldr	r3, .L51+88
 949 027a 9D44     		add	sp, sp, r3
 950              		@ sp needed
 951              	.LVL109:
 952              	.LVL110:
 953 027c F0BD     		pop	{r4, r5, r6, r7, pc}
 954              	.L52:
 955 027e C046     		.align	2
 956              	.L51:
 957 0280 84F7FFFF 		.word	-2172
 958 0284 6C080000 		.word	2156
 959 0288 00000000 		.word	g_ConfigMeta
 960 028c 50010000 		.word	.LC52
 961 0290 58010000 		.word	.LC54
 962 0294 60010000 		.word	.LC56
 963 0298 68010000 		.word	.LC58
 964 029c 70010000 		.word	.LC60
 965 02a0 7C010000 		.word	.LC62
ARM GAS  C:\Users\luvsd\AppData\Local\Temp\ccqRwhGy.s 			page 24


 966 02a4 88010000 		.word	.LC64
 967 02a8 00000000 		.word	g_usbCmd
 968 02ac BC000000 		.word	.LC25
 969 02b0 8C010000 		.word	.LC68
 970 02b4 A8010000 		.word	.LC70
 971 02b8 B0010000 		.word	.LC72
 972 02bc 00000000 		.word	g_ptrServer
 973 02c0 00000000 		.word	g_APs
 974 02c4 BC010000 		.word	.LC76
 975 02c8 C4010000 		.word	.LC78
 976 02cc D0010000 		.word	.LC80
 977 02d0 DC010000 		.word	.LC82
 978 02d4 E8010000 		.word	.LC84
 979 02d8 7C080000 		.word	2172
 980              		.cfi_endproc
 981              	.LFE66:
 982              		.size	JSON_Config, .-JSON_Config
 983              		.section	.text.usbJsonParsorLoop,"ax",%progbits
 984              		.align	2
 985              		.global	usbJsonParsorLoop
 986              		.code	16
 987              		.thumb_func
 988              		.type	usbJsonParsorLoop, %function
 989              	usbJsonParsorLoop:
 990              	.LFB63:
  36:USBJsonConfig.c ****     usbLoop();
 991              		.loc 1 36 0
 992              		.cfi_startproc
 993              		@ args = 0, pretend = 0, frame = 0
 994              		@ frame_needed = 0, uses_anonymous_args = 0
 995 0000 10B5     		push	{r4, lr}
 996              		.cfi_def_cfa_offset 8
 997              		.cfi_offset 4, -8
 998              		.cfi_offset 14, -4
  37:USBJsonConfig.c ****     
 999              		.loc 1 37 0
 1000 0002 FFF7FEFF 		bl	usbLoop
 1001              	.LVL111:
  39:USBJsonConfig.c ****             
 1002              		.loc 1 39 0
 1003 0006 094B     		ldr	r3, .L56
 1004 0008 1B88     		ldrh	r3, [r3]
 1005 000a 002B     		cmp	r3, #0
 1006 000c 0DD0     		beq	.L53
  41:USBJsonConfig.c ****     
 1007              		.loc 1 41 0
 1008 000e FFF7FEFF 		bl	getUSB_ReceiveBuffer
 1009              	.LVL112:
 1010 0012 064B     		ldr	r3, .L56
 1011 0014 0021     		movs	r1, #0
 1012 0016 595E     		ldrsh	r1, [r3, r1]
 1013 0018 FFF7FEFF 		bl	JSON_Config
 1014              	.LVL113:
 1015 001c 0128     		cmp	r0, #1
 1016 001e 02D1     		bne	.L55
  41:USBJsonConfig.c ****     
 1017              		.loc 1 41 0 is_stmt 0 discriminator 1
ARM GAS  C:\Users\luvsd\AppData\Local\Temp\ccqRwhGy.s 			page 25


 1018 0020 0022     		movs	r2, #0
 1019 0022 024B     		ldr	r3, .L56
 1020 0024 1A80     		strh	r2, [r3]
 1021              	.L55:
  43:USBJsonConfig.c **** }
 1022              		.loc 1 43 0 is_stmt 1
 1023 0026 FFF7FEFF 		bl	USB_CommandProcess
 1024              	.LVL114:
 1025              	.L53:
  44:USBJsonConfig.c **** 
 1026              		.loc 1 44 0
 1027              		@ sp needed
 1028 002a 10BD     		pop	{r4, pc}
 1029              	.L57:
 1030              		.align	2
 1031              	.L56:
 1032 002c 00000000 		.word	g_size_USB_ReceiveBuffer
 1033              		.cfi_endproc
 1034              	.LFE63:
 1035              		.size	usbJsonParsorLoop, .-usbJsonParsorLoop
 1036              		.comm	g_ConfigMeta,54,4
 1037              		.comm	g_usbCmd,100,4
 1038              		.comm	Param,6,4
 1039              		.section	.rodata.str1.4,"aMS",%progbits,1
 1040              		.align	2
 1041              	.LC0:
 1042 0000 7B227265 		.ascii	"{\"response\":\"config\",\000"
 1042      73706F6E 
 1042      7365223A 
 1042      22636F6E 
 1042      66696722 
 1043 0016 0000     		.space	2
 1044              	.LC3:
 1045 0018 22535349 		.ascii	"\"SSID\":\"%s\",\000"
 1045      44223A22 
 1045      2573222C 
 1045      00
 1046 0025 000000   		.space	3
 1047              	.LC5:
 1048 0028 22737369 		.ascii	"\"ssidList\":[\000"
 1048      644C6973 
 1048      74223A5B 
 1048      00
 1049 0035 000000   		.space	3
 1050              	.LC8:
 1051 0038 22252E2A 		.ascii	"\"%.*s(%d%%)\",\000"
 1051      73282564 
 1051      25252922 
 1051      2C00
 1052 0046 0000     		.space	2
 1053              	.LC10:
 1054 0048 22252E2A 		.ascii	"\"%.*s(%d%%)\"],\000"
 1054      73282564 
 1054      25252922 
 1054      5D2C00
 1055 0057 00       		.space	1
 1056              	.LC13:
ARM GAS  C:\Users\luvsd\AppData\Local\Temp\ccqRwhGy.s 			page 26


 1057 0058 22535349 		.ascii	"\"SSID_Index\":\"%d\",\000"
 1057      445F496E 
 1057      64657822 
 1057      3A222564 
 1057      222C00
 1058 006b 00       		.space	1
 1059              	.LC15:
 1060 006c 22706173 		.ascii	"\"password\":\"%s\",\000"
 1060      73776F72 
 1060      64223A22 
 1060      2573222C 
 1060      00
 1061 007d 000000   		.space	3
 1062              	.LC17:
 1063 0080 22736572 		.ascii	"\"serverIP\":\"%s%s\",\000"
 1063      76657249 
 1063      50223A22 
 1063      25732573 
 1063      222C00
 1064 0093 00       		.space	1
 1065              	.LC19:
 1066 0094 22736572 		.ascii	"\"serverPort\":\"%d\",\000"
 1066      76657250 
 1066      6F727422 
 1066      3A222564 
 1066      222C00
 1067 00a7 00       		.space	1
 1068              	.LC21:
 1069 00a8 22646576 		.ascii	"\"deviceName\":\"%s\"}\000"
 1069      6963654E 
 1069      616D6522 
 1069      3A222573 
 1069      227D00
 1070 00bb 00       		.space	1
 1071              	.LC25:
 1072 00bc 636F6E6E 		.ascii	"connect\000"
 1072      65637400 
 1073              	.LC28:
 1074 00c4 41502053 		.ascii	"AP SCANNING..\000"
 1074      43414E4E 
 1074      494E472E 
 1074      2E00
 1075 00d2 0000     		.space	2
 1076              	.LC32:
 1077 00d4 5343414E 		.ascii	"SCANED %dth\000"
 1077      45442025 
 1077      64746800 
 1078              	.LC34:
 1079 00e0 7265626F 		.ascii	"reboot\000"
 1079      6F7400
 1080 00e7 00       		.space	1
 1081              	.LC36:
 1082 00e8 64697363 		.ascii	"disconnect\000"
 1082      6F6E6E65 
 1082      637400
 1083 00f3 00       		.space	1
 1084              	.LC38:
ARM GAS  C:\Users\luvsd\AppData\Local\Temp\ccqRwhGy.s 			page 27


 1085 00f4 6669726D 		.ascii	"firmwareUpgrade\000"
 1085      77617265 
 1085      55706772 
 1085      61646500 
 1086              	.LC40:
 1087 0104 4669726D 		.ascii	"Firmware Upgrade\015\000"
 1087      77617265 
 1087      20557067 
 1087      72616465 
 1087      0D00
 1088 0116 0000     		.space	2
 1089              	.LC42:
 1090 0118 52656164 		.ascii	"Read Confdig\015\000"
 1090      20436F6E 
 1090      66646967 
 1090      0D00
 1091 0126 0000     		.space	2
 1092              	.LC45:
 1093 0128 53617669 		.ascii	"Saving..\000"
 1093      6E672E2E 
 1093      00
 1094 0131 000000   		.space	3
 1095              	.LC47:
 1096 0134 53657474 		.ascii	"Setting SSID\000"
 1096      696E6720 
 1096      53534944 
 1096      00
 1097 0141 000000   		.space	3
 1098              	.LC49:
 1099 0144 53534944 		.ascii	"SSID Done..\000"
 1099      20446F6E 
 1099      652E2E00 
 1100              	.LC52:
 1101 0150 72657175 		.ascii	"request\000"
 1101      65737400 
 1102              	.LC54:
 1103 0158 252E2A73 		.ascii	"%.*s\000"
 1103      00
 1104 015d 000000   		.space	3
 1105              	.LC56:
 1106 0160 73797343 		.ascii	"sysCmd\000"
 1106      6D6400
 1107 0167 00       		.space	1
 1108              	.LC58:
 1109 0168 6174436D 		.ascii	"atCmd\000"
 1109      6400
 1110 016e 0000     		.space	2
 1111              	.LC60:
 1112 0170 72656164 		.ascii	"readConfig\000"
 1112      436F6E66 
 1112      696700
 1113 017b 00       		.space	1
 1114              	.LC62:
 1115 017c 77726974 		.ascii	"writeConfig\000"
 1115      65436F6E 
 1115      66696700 
 1116              	.LC64:
ARM GAS  C:\Users\luvsd\AppData\Local\Temp\ccqRwhGy.s 			page 28


 1117 0188 636D6400 		.ascii	"cmd\000"
 1118              	.LC68:
 1119 018c 7B227265 		.ascii	"{\"response\":\"connected\"}\000"
 1119      73706F6E 
 1119      7365223A 
 1119      22636F6E 
 1119      6E656374 
 1120 01a5 000000   		.space	3
 1121              	.LC70:
 1122 01a8 3E3C2573 		.ascii	"><%s\015\012\000"
 1122      0D0A00
 1123 01af 00       		.space	1
 1124              	.LC72:
 1125 01b0 53534944 		.ascii	"SSIDIndex\000"
 1125      496E6465 
 1125      7800
 1126 01ba 0000     		.space	2
 1127              	.LC76:
 1128 01bc 77697468 		.ascii	"withMAC\000"
 1128      4D414300 
 1129              	.LC78:
 1130 01c4 70617373 		.ascii	"password\000"
 1130      776F7264 
 1130      00
 1131 01cd 000000   		.space	3
 1132              	.LC80:
 1133 01d0 73657276 		.ascii	"serverIP\000"
 1133      65724950 
 1133      00
 1134 01d9 000000   		.space	3
 1135              	.LC82:
 1136 01dc 73657276 		.ascii	"serverPort\000"
 1136      6572506F 
 1136      727400
 1137 01e7 00       		.space	1
 1138              	.LC84:
 1139 01e8 64657669 		.ascii	"deviceName\000"
 1139      63654E61 
 1139      6D6500
 1140              		.text
 1141              	.Letext0:
 1142              		.file 2 "Generated_Source\\PSoC4/cytypes.h"
 1143              		.file 3 "./main.h"
 1144              		.file 4 "USBJsonConfig.h"
 1145              		.file 5 "lib/jsmn.h"
 1146              		.file 6 "lib/WIFI.h"
 1147              		.file 7 "lib/server.h"
 1148              		.file 8 "lib/fonts.h"
 1149              		.file 9 "Generated_Source\\PSoC4/RTC.h"
 1150              		.file 10 "lib/USB.h"
 1151              		.file 11 "c:\\program files (x86)\\cypress\\psoc creator\\4.4\\psoc creator\\import\\gnu\\arm\\5.4
 1152              		.file 12 "jsonUtil.h"
 1153              		.file 13 "lib/widget.h"
 1154              		.file 14 "lib/externalFlash.h"
 1155              		.file 15 "lib/menu.h"
 1156              		.file 16 "Generated_Source\\PSoC4/CyLib.h"
 1157              		.file 17 "<built-in>"
ARM GAS  C:\Users\luvsd\AppData\Local\Temp\ccqRwhGy.s 			page 29


 1158              		.file 18 "Generated_Source\\PSoC4/Bootloadable.h"
 1159              		.file 19 "c:\\program files (x86)\\cypress\\psoc creator\\4.4\\psoc creator\\import\\gnu\\arm\\5.4
 1160              		.file 20 "c:\\program files (x86)\\cypress\\psoc creator\\4.4\\psoc creator\\import\\gnu\\arm\\5.4