ARM GAS  C:\Users\theGu\AppData\Local\Temp\cc6Yj1rA.s 			page 1


   1              		.syntax unified
   2              		.cpu cortex-m0
   3              		.fpu softvfp
   4              		.eabi_attribute 20, 1
   5              		.eabi_attribute 21, 1
   6              		.eabi_attribute 23, 3
   7              		.eabi_attribute 24, 1
   8              		.eabi_attribute 25, 1
   9              		.eabi_attribute 26, 1
  10              		.eabi_attribute 30, 1
  11              		.eabi_attribute 34, 0
  12              		.eabi_attribute 18, 4
  13              		.thumb
  14              		.syntax unified
  15              		.file	"USBUARTConfig.c"
  16              		.text
  17              	.Ltext0:
  18              		.cfi_sections	.debug_frame
  19              		.section	.text.initUSBUARTConfig,"ax",%progbits
  20              		.align	2
  21              		.global	initUSBUARTConfig
  22              		.code	16
  23              		.thumb_func
  24              		.type	initUSBUARTConfig, %function
  25              	initUSBUARTConfig:
  26              	.LFB61:
  27              		.file 1 "USBUARTConfig.c"
   1:USBUARTConfig.c **** /* ========================================
   2:USBUARTConfig.c ****  *
   3:USBUARTConfig.c ****  * Copyright YOUR COMPANY, THE YEAR
   4:USBUARTConfig.c ****  * All Rights Reserved
   5:USBUARTConfig.c ****  * UNPUBLISHED, LICENSED SOFTWARE.
   6:USBUARTConfig.c ****  *
   7:USBUARTConfig.c ****  * CONFIDENTIAL AND PROPRIETARY INFORMATION
   8:USBUARTConfig.c ****  * WHICH IS THE PROPERTY OF your company.
   9:USBUARTConfig.c ****  *
  10:USBUARTConfig.c ****  * ========================================
  11:USBUARTConfig.c **** */
  12:USBUARTConfig.c **** #include "USBUARTConfig.h"
  13:USBUARTConfig.c **** #include "JSONParser.h"
  14:USBUARTConfig.c **** #include "eeprom.h"
  15:USBUARTConfig.c **** #include "wifi.h"
  16:USBUARTConfig.c **** #include "widget.h"
  17:USBUARTConfig.c **** #include "UI.h"
  18:USBUARTConfig.c **** #include "displayInfo.h"
  19:USBUARTConfig.c **** 
  20:USBUARTConfig.c **** #include "w25qxx.h"
  21:USBUARTConfig.c **** #include "RealTimeClock.h"
  22:USBUARTConfig.c **** 
  23:USBUARTConfig.c **** uint8 g_bUSBUART_Connected = FALSE;
  24:USBUARTConfig.c **** uint8 g_requestType = 0;
  25:USBUARTConfig.c **** uint16 g_USBUART_Config_Loop = 0;
  26:USBUARTConfig.c **** 
  27:USBUARTConfig.c **** #define USBUART_BUFFER_SIZE 64
  28:USBUARTConfig.c **** 
  29:USBUARTConfig.c **** char g_Cmd[100];
  30:USBUARTConfig.c **** 
ARM GAS  C:\Users\theGu\AppData\Local\Temp\cc6Yj1rA.s 			page 2


  31:USBUARTConfig.c **** void initUSBUARTConfig()
  32:USBUARTConfig.c **** {
  28              		.loc 1 32 0
  29              		.cfi_startproc
  30              		@ args = 0, pretend = 0, frame = 0
  31              		@ frame_needed = 0, uses_anonymous_args = 0
  32 0000 10B5     		push	{r4, lr}
  33              		.cfi_def_cfa_offset 8
  34              		.cfi_offset 4, -8
  35              		.cfi_offset 14, -4
  33:USBUARTConfig.c ****     USBUART_Start(0,USBUART_5V_OPERATION);
  36              		.loc 1 33 0
  37 0002 0121     		movs	r1, #1
  38 0004 0020     		movs	r0, #0
  39 0006 FFF7FEFF 		bl	USBUART_Start
  40              	.LVL0:
  34:USBUARTConfig.c **** //    USBUART_linesCoding[0][0] = 0x80u; // 9600
  35:USBUARTConfig.c **** //    USBUART_linesCoding[0][1] = 0x25u;
  36:USBUARTConfig.c **** //    USBUART_linesCoding[0][2] = 0x00;
  37:USBUARTConfig.c **** //    USBUART_linesCoding[0][3] = 0x00;  
  38:USBUARTConfig.c **** //    
  39:USBUARTConfig.c **** //    USBUART_linesCoding[1][0] = 0x80u; // 9600
  40:USBUARTConfig.c **** //    USBUART_linesCoding[1][1] = 0x25u;
  41:USBUARTConfig.c **** //    USBUART_linesCoding[1][2] = 0x00;
  42:USBUARTConfig.c **** //    USBUART_linesCoding[1][3] = 0x00;       
  43:USBUARTConfig.c **** }
  41              		.loc 1 43 0
  42              		@ sp needed
  43 000a 10BD     		pop	{r4, pc}
  44              		.cfi_endproc
  45              	.LFE61:
  46              		.size	initUSBUARTConfig, .-initUSBUARTConfig
  47              		.section	.text.UABUART_ConfigurationChange,"ax",%progbits
  48              		.align	2
  49              		.global	UABUART_ConfigurationChange
  50              		.code	16
  51              		.thumb_func
  52              		.type	UABUART_ConfigurationChange, %function
  53              	UABUART_ConfigurationChange:
  54              	.LFB62:
  44:USBUARTConfig.c **** 
  45:USBUARTConfig.c **** _Bool USBUART_IsTxReady(_Bool allow_blocking);
  46:USBUARTConfig.c **** 
  47:USBUARTConfig.c **** 
  48:USBUARTConfig.c **** void UABUART_ConfigurationChange()
  49:USBUARTConfig.c **** {
  55              		.loc 1 49 0
  56              		.cfi_startproc
  57              		@ args = 0, pretend = 0, frame = 0
  58              		@ frame_needed = 0, uses_anonymous_args = 0
  59 0000 10B5     		push	{r4, lr}
  60              		.cfi_def_cfa_offset 8
  61              		.cfi_offset 4, -8
  62              		.cfi_offset 14, -4
  50:USBUARTConfig.c ****     /* Host can send double SET_INTERFACE request. */    
  51:USBUARTConfig.c ****     if (0u != USBUART_IsConfigurationChanged())
  63              		.loc 1 51 0
ARM GAS  C:\Users\theGu\AppData\Local\Temp\cc6Yj1rA.s 			page 3


  64 0002 FFF7FEFF 		bl	USBUART_IsConfigurationChanged
  65              	.LVL1:
  66 0006 0028     		cmp	r0, #0
  67 0008 05D0     		beq	.L2
  52:USBUARTConfig.c ****     {
  53:USBUARTConfig.c ****         /* Initialize IN endpoints when device is configured. */
  54:USBUARTConfig.c ****         if (0u != USBUART_GetConfiguration())
  68              		.loc 1 54 0
  69 000a FFF7FEFF 		bl	USBUART_GetConfiguration
  70              	.LVL2:
  71 000e 0028     		cmp	r0, #0
  72 0010 01D0     		beq	.L2
  55:USBUARTConfig.c ****         {
  56:USBUARTConfig.c ****             /* Enumeration is done, enable OUT endpoint to receive data 
  57:USBUARTConfig.c ****              * from host. */
  58:USBUARTConfig.c ****             USBUART_CDC_Init();
  73              		.loc 1 58 0
  74 0012 FFF7FEFF 		bl	USBUART_CDC_Init
  75              	.LVL3:
  76              	.L2:
  59:USBUARTConfig.c ****         }
  60:USBUARTConfig.c ****     }  
  61:USBUARTConfig.c **** }
  77              		.loc 1 61 0
  78              		@ sp needed
  79 0016 10BD     		pop	{r4, pc}
  80              		.cfi_endproc
  81              	.LFE62:
  82              		.size	UABUART_ConfigurationChange, .-UABUART_ConfigurationChange
  83              		.section	.text.loopUSBUARTConfig,"ax",%progbits
  84              		.align	2
  85              		.global	loopUSBUARTConfig
  86              		.code	16
  87              		.thumb_func
  88              		.type	loopUSBUARTConfig, %function
  89              	loopUSBUARTConfig:
  90              	.LFB63:
  62:USBUARTConfig.c **** void loopUSBUARTConfig()
  63:USBUARTConfig.c **** {
  91              		.loc 1 63 0
  92              		.cfi_startproc
  93              		@ args = 0, pretend = 0, frame = 72
  94              		@ frame_needed = 0, uses_anonymous_args = 0
  95 0000 30B5     		push	{r4, r5, lr}
  96              		.cfi_def_cfa_offset 12
  97              		.cfi_offset 4, -12
  98              		.cfi_offset 5, -8
  99              		.cfi_offset 14, -4
 100 0002 93B0     		sub	sp, sp, #76
 101              		.cfi_def_cfa_offset 88
  64:USBUARTConfig.c ****     uint16 count;
  65:USBUARTConfig.c ****     uint8 buffer[USBUART_BUFFER_SIZE+1];
  66:USBUARTConfig.c ****     /* Host can send double SET_INTERFACE request. */
  67:USBUARTConfig.c ****     UABUART_ConfigurationChange();
 102              		.loc 1 67 0
 103 0004 FFF7FEFF 		bl	UABUART_ConfigurationChange
 104              	.LVL4:
ARM GAS  C:\Users\theGu\AppData\Local\Temp\cc6Yj1rA.s 			page 4


  68:USBUARTConfig.c **** 
  69:USBUARTConfig.c ****     /* Service USB CDC when device is configured. */
  70:USBUARTConfig.c ****     if (0u != USBUART_GetConfiguration())
 105              		.loc 1 70 0
 106 0008 FFF7FEFF 		bl	USBUART_GetConfiguration
 107              	.LVL5:
 108 000c 0028     		cmp	r0, #0
 109 000e 16D0     		beq	.L5
  71:USBUARTConfig.c ****     {
  72:USBUARTConfig.c ****         /* Check for input data from host. */
  73:USBUARTConfig.c ****         if (0u != USBUART_DataIsReady())
 110              		.loc 1 73 0
 111 0010 FFF7FEFF 		bl	USBUART_DataIsReady
 112              	.LVL6:
 113 0014 0028     		cmp	r0, #0
 114 0016 12D0     		beq	.L5
  74:USBUARTConfig.c ****         {
  75:USBUARTConfig.c ****             /* Read received data and re-enable OUT endpoint. */
  76:USBUARTConfig.c ****             count = USBUART_GetAll(buffer);
 115              		.loc 1 76 0
 116 0018 01A8     		add	r0, sp, #4
 117 001a FFF7FEFF 		bl	USBUART_GetAll
 118              	.LVL7:
 119 001e 041E     		subs	r4, r0, #0
 120              	.LVL8:
  77:USBUARTConfig.c **** 
  78:USBUARTConfig.c ****             if (0u != count)
 121              		.loc 1 78 0
 122 0020 0DD0     		beq	.L5
 123              	.LVL9:
 124              	.L6:
  79:USBUARTConfig.c ****             {
  80:USBUARTConfig.c ****                 /* Wait until component is ready to send data to host. */
  81:USBUARTConfig.c ****                 while (0u == USBUART_CDCIsReady())
 125              		.loc 1 81 0 discriminator 1
 126 0022 FFF7FEFF 		bl	USBUART_CDCIsReady
 127              	.LVL10:
 128 0026 0028     		cmp	r0, #0
 129 0028 FBD0     		beq	.L6
  82:USBUARTConfig.c ****                 {
  83:USBUARTConfig.c ****                 }
  84:USBUARTConfig.c **** 
  85:USBUARTConfig.c ****                 /* Send data back to host. */
  86:USBUARTConfig.c ****               //  USBUART_PutData(buffer, count);
  87:USBUARTConfig.c ****                 buffer[count] = 0;
 130              		.loc 1 87 0
 131 002a 01AD     		add	r5, sp, #4
 132 002c 0023     		movs	r3, #0
 133 002e 2B55     		strb	r3, [r5, r4]
  88:USBUARTConfig.c ****                 if(2==parsingReceivedData(buffer))
 134              		.loc 1 88 0
 135 0030 2800     		movs	r0, r5
 136 0032 FFF7FEFF 		bl	parsingReceivedData
 137              	.LVL11:
  89:USBUARTConfig.c ****                 {
  90:USBUARTConfig.c ****                //     USBUART_PutString("{\"response\":\"OK\"}");
  91:USBUARTConfig.c ****                 }
ARM GAS  C:\Users\theGu\AppData\Local\Temp\cc6Yj1rA.s 			page 5


  92:USBUARTConfig.c ****                 
  93:USBUARTConfig.c ****                 UART_SpiUartPutArray(buffer, count);
 138              		.loc 1 93 0
 139 0036 2100     		movs	r1, r4
 140 0038 2800     		movs	r0, r5
 141 003a FFF7FEFF 		bl	UART_SpiUartPutArray
 142              	.LVL12:
 143              	.L5:
  94:USBUARTConfig.c **** 
  95:USBUARTConfig.c **** //                /* If the last sent packet is exactly the maximum packet 
  96:USBUARTConfig.c **** //                *  size, it is followed by a zero-length packet to assure
  97:USBUARTConfig.c **** //                *  that the end of the segment is properly identified by 
  98:USBUARTConfig.c **** //                *  the terminal.
  99:USBUARTConfig.c **** //                */
 100:USBUARTConfig.c **** //                if (USBUART_BUFFER_SIZE == count)
 101:USBUARTConfig.c **** //                {
 102:USBUARTConfig.c **** //                    /* Wait until component is ready to send data to PC. */
 103:USBUARTConfig.c **** //                    while (0u == USBUART_CDCIsReady())
 104:USBUARTConfig.c **** //                    {
 105:USBUARTConfig.c **** //                    }
 106:USBUARTConfig.c **** //
 107:USBUARTConfig.c **** //                    /* Send zero-length packet to PC. */
 108:USBUARTConfig.c **** //                    USBUART_PutData(NULL, 0u);
 109:USBUARTConfig.c **** //                }
 110:USBUARTConfig.c ****             }
 111:USBUARTConfig.c ****         }
 112:USBUARTConfig.c ****     }
 113:USBUARTConfig.c ****     
 114:USBUARTConfig.c ****     
 115:USBUARTConfig.c ****     if(isPassedOneSecond())
 144              		.loc 1 115 0
 145 003e FFF7FEFF 		bl	isPassedOneSecond
 146              	.LVL13:
 116:USBUARTConfig.c ****     {  
 117:USBUARTConfig.c ****     //    DEBUG_printf("%d\r\n", ggggggg);
 118:USBUARTConfig.c ****     }
 119:USBUARTConfig.c ****    // USB_WIFI_Monitoring(0);
 120:USBUARTConfig.c **** }
 147              		.loc 1 120 0
 148 0042 13B0     		add	sp, sp, #76
 149              		@ sp needed
 150 0044 30BD     		pop	{r4, r5, pc}
 151              		.cfi_endproc
 152              	.LFE63:
 153              		.size	loopUSBUARTConfig, .-loopUSBUARTConfig
 154 0046 C046     		.section	.text.USBUART_Config_Loop,"ax",%progbits
 155              		.align	2
 156              		.global	USBUART_Config_Loop
 157              		.code	16
 158              		.thumb_func
 159              		.type	USBUART_Config_Loop, %function
 160              	USBUART_Config_Loop:
 161              	.LFB66:
 121:USBUARTConfig.c **** 
 122:USBUARTConfig.c **** void USBUART_printf(const char *fmt, ...)
 123:USBUARTConfig.c **** {
 124:USBUARTConfig.c ****     va_list ap;
ARM GAS  C:\Users\theGu\AppData\Local\Temp\cc6Yj1rA.s 			page 6


 125:USBUARTConfig.c ****     char buff[USBUART_BUFFER_SIZE+1];
 126:USBUARTConfig.c ****     
 127:USBUARTConfig.c ****     va_start(ap, fmt);
 128:USBUARTConfig.c **** 
 129:USBUARTConfig.c ****     vsprintf(buff, fmt, ap);
 130:USBUARTConfig.c ****     va_end(ap);
 131:USBUARTConfig.c ****     
 132:USBUARTConfig.c ****     uint16 nLength = strlen(buff);
 133:USBUARTConfig.c ****     if(nLength > USBUART_BUFFER_SIZE) DEBUG_printf("Out of Data in USBUARTprintf()\r\n");
 134:USBUARTConfig.c ****     
 135:USBUARTConfig.c ****     while(USBUART_IsTxReady(TRUE)==0);  
 136:USBUARTConfig.c ****     USBUART_PutString(buff); 
 137:USBUARTConfig.c **** }
 138:USBUARTConfig.c **** 
 139:USBUARTConfig.c **** 
 140:USBUARTConfig.c **** void USB_WIFI_Monitoring(char c)
 141:USBUARTConfig.c **** {
 142:USBUARTConfig.c ****     static uint16 count = 0;
 143:USBUARTConfig.c ****     static uint8 buffer[256];
 144:USBUARTConfig.c ****     static uint16 SizeOfJsonMonitoring = 0;
 145:USBUARTConfig.c ****    // static uint16 MAX_SIZE_OF_DATA = 0;
 146:USBUARTConfig.c ****    // static char hexChar[3];
 147:USBUARTConfig.c ****     
 148:USBUARTConfig.c ****     if(g_bUSBUART_Connected==FALSE) return;
 149:USBUARTConfig.c ****     
 150:USBUARTConfig.c ****     if (0u != USBUART_GetConfiguration())
 151:USBUARTConfig.c ****     {
 152:USBUARTConfig.c ****         if(c)
 153:USBUARTConfig.c ****         {
 154:USBUARTConfig.c ****             buffer[count++] = c;
 155:USBUARTConfig.c ****             buffer[count  ] = 0;
 156:USBUARTConfig.c ****         }
 157:USBUARTConfig.c ****         if(0u == USBUART_IsTxReady(TRUE)) return;
 158:USBUARTConfig.c ****  
 159:USBUARTConfig.c ****         if(c == '\n' ||  count >= USBUART_BUFFER_SIZE)
 160:USBUARTConfig.c ****         {
 161:USBUARTConfig.c ****             if(count < USBUART_BUFFER_SIZE)
 162:USBUARTConfig.c ****             {
 163:USBUARTConfig.c ****                 USBUART_PutData(buffer, count);
 164:USBUARTConfig.c ****                 count = 0;
 165:USBUARTConfig.c ****             }
 166:USBUARTConfig.c ****             else
 167:USBUARTConfig.c ****             {
 168:USBUARTConfig.c ****                 USBUART_PutData(buffer, count);
 169:USBUARTConfig.c ****                 
 170:USBUARTConfig.c ****                 for(int i=USBUART_BUFFER_SIZE; i < count; i++) buffer[i-USBUART_BUFFER_SIZE] = buff
 171:USBUARTConfig.c ****                 
 172:USBUARTConfig.c ****                 count-= USBUART_BUFFER_SIZE;
 173:USBUARTConfig.c ****                 
 174:USBUARTConfig.c ****                 /* Wait until component is ready to send data to PC. */
 175:USBUARTConfig.c ****                 while (0u == USBUART_CDCIsReady());
 176:USBUARTConfig.c **** 
 177:USBUARTConfig.c ****                 /* Send zero-length packet to PC. */
 178:USBUARTConfig.c ****                 USBUART_PutData(NULL, 0u);
 179:USBUARTConfig.c ****             }
 180:USBUARTConfig.c ****         }
 181:USBUARTConfig.c **** 
ARM GAS  C:\Users\theGu\AppData\Local\Temp\cc6Yj1rA.s 			page 7


 182:USBUARTConfig.c ****     }
 183:USBUARTConfig.c **** }
 184:USBUARTConfig.c **** 
 185:USBUARTConfig.c **** uint8 USBUART_Config_Loop()
 186:USBUARTConfig.c **** {
 162              		.loc 1 186 0
 163              		.cfi_startproc
 164              		@ args = 0, pretend = 0, frame = 0
 165              		@ frame_needed = 0, uses_anonymous_args = 0
 166              		@ link register save eliminated.
 187:USBUARTConfig.c **** 
 188:USBUARTConfig.c ****     return FALSE;
 189:USBUARTConfig.c **** }
 167              		.loc 1 189 0
 168 0000 0020     		movs	r0, #0
 169              		@ sp needed
 170 0002 7047     		bx	lr
 171              		.cfi_endproc
 172              	.LFE66:
 173              		.size	USBUART_Config_Loop, .-USBUART_Config_Loop
 174              		.section	.text.USBUART_IsTxReady,"ax",%progbits
 175              		.align	2
 176              		.global	USBUART_IsTxReady
 177              		.code	16
 178              		.thumb_func
 179              		.type	USBUART_IsTxReady, %function
 180              	USBUART_IsTxReady:
 181              	.LFB67:
 190:USBUARTConfig.c **** 
 191:USBUARTConfig.c **** 
 192:USBUARTConfig.c **** _Bool usb_active = USBUART_TRUE;
 193:USBUARTConfig.c **** 
 194:USBUARTConfig.c **** _Bool USBUART_IsTxReady(_Bool allow_blocking)
 195:USBUARTConfig.c **** {
 182              		.loc 1 195 0
 183              		.cfi_startproc
 184              		@ args = 0, pretend = 0, frame = 0
 185              		@ frame_needed = 0, uses_anonymous_args = 0
 186              	.LVL14:
 187 0000 70B5     		push	{r4, r5, r6, lr}
 188              		.cfi_def_cfa_offset 16
 189              		.cfi_offset 4, -16
 190              		.cfi_offset 5, -12
 191              		.cfi_offset 6, -8
 192              		.cfi_offset 14, -4
 193              	.LVL15:
 196:USBUARTConfig.c **** 
 197:USBUARTConfig.c **** _Bool ret = USBUART_TRUE;
 198:USBUARTConfig.c **** 
 199:USBUARTConfig.c ****  
 200:USBUARTConfig.c ****     if(allow_blocking == USBUART_TRUE)
 194              		.loc 1 200 0
 195 0002 0028     		cmp	r0, #0
 196 0004 28D0     		beq	.L9
 197              	.LVL16:
 198              	.LBB2:
 201:USBUARTConfig.c **** 
ARM GAS  C:\Users\theGu\AppData\Local\Temp\cc6Yj1rA.s 			page 8


 202:USBUARTConfig.c ****     {    // blocking implementation
 203:USBUARTConfig.c **** 
 204:USBUARTConfig.c ****     int8 subsystick_wrap_cnt = 0;
 205:USBUARTConfig.c **** 
 206:USBUARTConfig.c ****     int32_t subsystick_reload = (int32_t)CySysTickGetReload();    // SysTick Reload value
 199              		.loc 1 206 0
 200 0006 FFF7FEFF 		bl	CySysTickGetReload
 201              	.LVL17:
 202 000a 0600     		movs	r6, r0
 203              	.LVL18:
 207:USBUARTConfig.c **** 
 208:USBUARTConfig.c ****     int32_t subsystick_cnt = (int32_t)CySysTickGetValue();    // SysTick Timestamp when we entered 
 204              		.loc 1 208 0
 205 000c FFF7FEFF 		bl	CySysTickGetValue
 206              	.LVL19:
 207 0010 0400     		movs	r4, r0
 208              	.LVL20:
 209:USBUARTConfig.c **** 
 210:USBUARTConfig.c ****   
 211:USBUARTConfig.c **** 
 212:USBUARTConfig.c ****         CySysTickStart();        // Start the SysTick interval @ 1ms.  This allows USBUART_IsTxRead
 209              		.loc 1 212 0
 210 0012 FFF7FEFF 		bl	CySysTickStart
 211              	.LVL21:
 204:USBUARTConfig.c **** 
 212              		.loc 1 204 0
 213 0016 0025     		movs	r5, #0
 213:USBUARTConfig.c **** 
 214:USBUARTConfig.c ****         while(USBUART_CDCIsReady() == 0)
 214              		.loc 1 214 0
 215 0018 12E0     		b	.L10
 216              	.LVL22:
 217              	.L13:
 215:USBUARTConfig.c **** 
 216:USBUARTConfig.c ****         { // Tx Port is not ready.
 217:USBUARTConfig.c **** 
 218:USBUARTConfig.c ****             if(usb_active == USBUART_FALSE) {ret = USBUART_FALSE; break;}    // break out of while(
 218              		.loc 1 218 0
 219 001a 134B     		ldr	r3, .L18
 220 001c 1B78     		ldrb	r3, [r3]
 221 001e 002B     		cmp	r3, #0
 222 0020 14D0     		beq	.L15
 223              	.LBB3:
 219:USBUARTConfig.c **** 
 220:USBUARTConfig.c ****             else
 221:USBUARTConfig.c **** 
 222:USBUARTConfig.c ****             {    // check the SysTick counter timestamp exceeds up to 2 times the SysTick Reload va
 223:USBUARTConfig.c **** 
 224:USBUARTConfig.c ****             int32_t subsystick_cnt_diff = subsystick_cnt - (int32)CySysTickGetValue();    // get th
 224              		.loc 1 224 0
 225 0022 FFF7FEFF 		bl	CySysTickGetValue
 226              	.LVL23:
 227 0026 201A     		subs	r0, r4, r0
 228              	.LVL24:
 225:USBUARTConfig.c **** 
 226:USBUARTConfig.c ****                 if(subsystick_cnt_diff < 0) { subsystick_wrap_cnt++; }    // if current subsystick 
 229              		.loc 1 226 0
ARM GAS  C:\Users\theGu\AppData\Local\Temp\cc6Yj1rA.s 			page 9


 230 0028 01D5     		bpl	.L12
 231              		.loc 1 226 0 is_stmt 0 discriminator 1
 232 002a 0135     		adds	r5, r5, #1
 233              	.LVL25:
 234 002c 6DB2     		sxtb	r5, r5
 235              	.LVL26:
 236              	.L12:
 227:USBUARTConfig.c **** 
 228:USBUARTConfig.c ****                 if(( (subsystick_wrap_cnt*subsystick_reload) + (subsystick_cnt_diff)) > (subsystick
 237              		.loc 1 228 0 is_stmt 1
 238 002e 3300     		movs	r3, r6
 239 0030 6B43     		muls	r3, r5
 240 0032 C018     		adds	r0, r0, r3
 241              	.LVL27:
 242 0034 7300     		lsls	r3, r6, #1
 243 0036 9842     		cmp	r0, r3
 244 0038 0ADC     		bgt	.L16
 229:USBUARTConfig.c **** 
 230:USBUARTConfig.c ****                 {
 231:USBUARTConfig.c **** 
 232:USBUARTConfig.c ****                     ret = USBUART_FALSE;    // Exceeded SysTick 1ms
 233:USBUARTConfig.c **** 
 234:USBUARTConfig.c ****                     break;                    // break out of while() because we detected the USB p
 235:USBUARTConfig.c **** 
 236:USBUARTConfig.c ****                 }
 237:USBUARTConfig.c **** 
 238:USBUARTConfig.c ****                 subsystick_cnt = (int32_t)CySysTickGetValue();                            // store 
 245              		.loc 1 238 0
 246 003a FFF7FEFF 		bl	CySysTickGetValue
 247              	.LVL28:
 248 003e 0400     		movs	r4, r0
 249              	.LVL29:
 250              	.L10:
 251              	.LBE3:
 214:USBUARTConfig.c **** 
 252              		.loc 1 214 0
 253 0040 FFF7FEFF 		bl	USBUART_CDCIsReady
 254              	.LVL30:
 255 0044 0028     		cmp	r0, #0
 256 0046 E8D0     		beq	.L13
 257              	.LBE2:
 197:USBUARTConfig.c **** 
 258              		.loc 1 197 0
 259 0048 0120     		movs	r0, #1
 260              	.LBB5:
 261 004a 02E0     		b	.L11
 262              	.L15:
 218:USBUARTConfig.c **** 
 263              		.loc 1 218 0
 264 004c 0020     		movs	r0, #0
 265 004e 00E0     		b	.L11
 266              	.L16:
 267              	.LBB4:
 232:USBUARTConfig.c **** 
 268              		.loc 1 232 0
 269 0050 0020     		movs	r0, #0
 270              	.L11:
ARM GAS  C:\Users\theGu\AppData\Local\Temp\cc6Yj1rA.s 			page 10


 271              	.LVL31:
 272              	.LBE4:
 239:USBUARTConfig.c **** 
 240:USBUARTConfig.c ****             }
 241:USBUARTConfig.c **** 
 242:USBUARTConfig.c ****         }
 243:USBUARTConfig.c **** 
 244:USBUARTConfig.c ****         usb_active = ret;
 273              		.loc 1 244 0
 274 0052 054B     		ldr	r3, .L18
 275 0054 1870     		strb	r0, [r3]
 276              	.LBE5:
 277 0056 06E0     		b	.L14
 278              	.LVL32:
 279              	.L9:
 245:USBUARTConfig.c **** 
 246:USBUARTConfig.c ****     }
 247:USBUARTConfig.c **** 
 248:USBUARTConfig.c ****     else ret = (USBUART_CDCIsReady() ? USBUART_TRUE : USBUART_FALSE);        // non-blocking
 280              		.loc 1 248 0
 281 0058 FFF7FEFF 		bl	USBUART_CDCIsReady
 282              	.LVL33:
 283 005c 0028     		cmp	r0, #0
 284 005e 01D0     		beq	.L17
 285 0060 0120     		movs	r0, #1
 286 0062 00E0     		b	.L14
 287              	.L17:
 288 0064 0020     		movs	r0, #0
 289              	.LVL34:
 290              	.L14:
 249:USBUARTConfig.c **** 
 250:USBUARTConfig.c ****     return ret;
 251:USBUARTConfig.c **** 
 252:USBUARTConfig.c **** }
 291              		.loc 1 252 0
 292              		@ sp needed
 293 0066 70BD     		pop	{r4, r5, r6, pc}
 294              	.L19:
 295              		.align	2
 296              	.L18:
 297 0068 00000000 		.word	.LANCHOR0
 298              		.cfi_endproc
 299              	.LFE67:
 300              		.size	USBUART_IsTxReady, .-USBUART_IsTxReady
 301              		.section	.text.USBUART_printf,"ax",%progbits
 302              		.align	2
 303              		.global	USBUART_printf
 304              		.code	16
 305              		.thumb_func
 306              		.type	USBUART_printf, %function
 307              	USBUART_printf:
 308              	.LFB64:
 123:USBUARTConfig.c ****     va_list ap;
 309              		.loc 1 123 0
 310              		.cfi_startproc
 311              		@ args = 4, pretend = 16, frame = 72
 312              		@ frame_needed = 0, uses_anonymous_args = 1
ARM GAS  C:\Users\theGu\AppData\Local\Temp\cc6Yj1rA.s 			page 11


 313              	.LVL35:
 314 0000 0FB4     		push	{r0, r1, r2, r3}
 315              		.cfi_def_cfa_offset 16
 316 0002 00B5     		push	{lr}
 317              		.cfi_def_cfa_offset 20
 318              		.cfi_offset 14, -20
 319 0004 93B0     		sub	sp, sp, #76
 320              		.cfi_def_cfa_offset 96
 321 0006 14AA     		add	r2, sp, #80
 322 0008 02CA     		ldmia	r2!, {r1}
 127:USBUARTConfig.c **** 
 323              		.loc 1 127 0
 324 000a 1192     		str	r2, [sp, #68]
 129:USBUARTConfig.c ****     va_end(ap);
 325              		.loc 1 129 0
 326 000c 6846     		mov	r0, sp
 327 000e FFF7FEFF 		bl	vsprintf
 328              	.LVL36:
 132:USBUARTConfig.c ****     if(nLength > USBUART_BUFFER_SIZE) DEBUG_printf("Out of Data in USBUARTprintf()\r\n");
 329              		.loc 1 132 0
 330 0012 6846     		mov	r0, sp
 331 0014 FFF7FEFF 		bl	strlen
 332              	.LVL37:
 333 0018 80B2     		uxth	r0, r0
 334              	.LVL38:
 133:USBUARTConfig.c ****     
 335              		.loc 1 133 0
 336 001a 4028     		cmp	r0, #64
 337 001c 02D9     		bls	.L22
 133:USBUARTConfig.c ****     
 338              		.loc 1 133 0 is_stmt 0 discriminator 1
 339 001e 0748     		ldr	r0, .L23
 340              	.LVL39:
 341 0020 FFF7FEFF 		bl	DEBUG_printf
 342              	.LVL40:
 343              	.L22:
 135:USBUARTConfig.c ****     USBUART_PutString(buff); 
 344              		.loc 1 135 0 is_stmt 1 discriminator 1
 345 0024 0120     		movs	r0, #1
 346 0026 FFF7FEFF 		bl	USBUART_IsTxReady
 347              	.LVL41:
 348 002a 0028     		cmp	r0, #0
 349 002c FAD0     		beq	.L22
 136:USBUARTConfig.c **** }
 350              		.loc 1 136 0
 351 002e 6846     		mov	r0, sp
 352 0030 FFF7FEFF 		bl	USBUART_PutString
 353              	.LVL42:
 137:USBUARTConfig.c **** 
 354              		.loc 1 137 0
 355 0034 13B0     		add	sp, sp, #76
 356              		@ sp needed
 357 0036 08BC     		pop	{r3}
 358 0038 04B0     		add	sp, sp, #16
 359 003a 1847     		bx	r3
 360              	.L24:
 361              		.align	2
ARM GAS  C:\Users\theGu\AppData\Local\Temp\cc6Yj1rA.s 			page 12


 362              	.L23:
 363 003c 00000000 		.word	.LC1
 364              		.cfi_endproc
 365              	.LFE64:
 366              		.size	USBUART_printf, .-USBUART_printf
 367              		.section	.text.USB_WIFI_Monitoring,"ax",%progbits
 368              		.align	2
 369              		.global	USB_WIFI_Monitoring
 370              		.code	16
 371              		.thumb_func
 372              		.type	USB_WIFI_Monitoring, %function
 373              	USB_WIFI_Monitoring:
 374              	.LFB65:
 141:USBUARTConfig.c ****     static uint16 count = 0;
 375              		.loc 1 141 0
 376              		.cfi_startproc
 377              		@ args = 0, pretend = 0, frame = 0
 378              		@ frame_needed = 0, uses_anonymous_args = 0
 379              	.LVL43:
 380 0000 10B5     		push	{r4, lr}
 381              		.cfi_def_cfa_offset 8
 382              		.cfi_offset 4, -8
 383              		.cfi_offset 14, -4
 384 0002 0400     		movs	r4, r0
 148:USBUARTConfig.c ****     
 385              		.loc 1 148 0
 386 0004 234B     		ldr	r3, .L33
 387 0006 1B78     		ldrb	r3, [r3]
 388 0008 002B     		cmp	r3, #0
 389 000a 42D0     		beq	.L25
 150:USBUARTConfig.c ****     {
 390              		.loc 1 150 0
 391 000c FFF7FEFF 		bl	USBUART_GetConfiguration
 392              	.LVL44:
 393 0010 0028     		cmp	r0, #0
 394 0012 3ED0     		beq	.L25
 152:USBUARTConfig.c ****         {
 395              		.loc 1 152 0
 396 0014 002C     		cmp	r4, #0
 397 0016 09D0     		beq	.L27
 154:USBUARTConfig.c ****             buffer[count  ] = 0;
 398              		.loc 1 154 0
 399 0018 1E49     		ldr	r1, .L33
 400 001a 4888     		ldrh	r0, [r1, #2]
 401 001c 421C     		adds	r2, r0, #1
 402 001e 93B2     		uxth	r3, r2
 403 0020 4B80     		strh	r3, [r1, #2]
 404 0022 0818     		adds	r0, r1, r0
 405 0024 0471     		strb	r4, [r0, #4]
 155:USBUARTConfig.c ****         }
 406              		.loc 1 155 0
 407 0026 CB18     		adds	r3, r1, r3
 408 0028 0022     		movs	r2, #0
 409 002a 1A71     		strb	r2, [r3, #4]
 410              	.L27:
 157:USBUARTConfig.c ****  
 411              		.loc 1 157 0
ARM GAS  C:\Users\theGu\AppData\Local\Temp\cc6Yj1rA.s 			page 13


 412 002c 0120     		movs	r0, #1
 413 002e FFF7FEFF 		bl	USBUART_IsTxReady
 414              	.LVL45:
 415 0032 0028     		cmp	r0, #0
 416 0034 2DD0     		beq	.L25
 159:USBUARTConfig.c ****         {
 417              		.loc 1 159 0
 418 0036 0A2C     		cmp	r4, #10
 419 0038 03D0     		beq	.L28
 159:USBUARTConfig.c ****         {
 420              		.loc 1 159 0 is_stmt 0 discriminator 1
 421 003a 164B     		ldr	r3, .L33
 422 003c 5B88     		ldrh	r3, [r3, #2]
 423 003e 3F2B     		cmp	r3, #63
 424 0040 27D9     		bls	.L25
 425              	.L28:
 161:USBUARTConfig.c ****             {
 426              		.loc 1 161 0 is_stmt 1
 427 0042 144B     		ldr	r3, .L33
 428 0044 5988     		ldrh	r1, [r3, #2]
 429 0046 3F29     		cmp	r1, #63
 430 0048 06D8     		bhi	.L29
 163:USBUARTConfig.c ****                 count = 0;
 431              		.loc 1 163 0
 432 004a 1C00     		movs	r4, r3
 433 004c 181D     		adds	r0, r3, #4
 434 004e FFF7FEFF 		bl	USBUART_PutData
 435              	.LVL46:
 164:USBUARTConfig.c ****             }
 436              		.loc 1 164 0
 437 0052 0023     		movs	r3, #0
 438 0054 6380     		strh	r3, [r4, #2]
 439 0056 1CE0     		b	.L25
 440              	.L29:
 168:USBUARTConfig.c ****                 
 441              		.loc 1 168 0
 442 0058 0E48     		ldr	r0, .L33
 443 005a 0430     		adds	r0, r0, #4
 444 005c FFF7FEFF 		bl	USBUART_PutData
 445              	.LVL47:
 446              	.LBB6:
 170:USBUARTConfig.c ****                 
 447              		.loc 1 170 0
 448 0060 4023     		movs	r3, #64
 449 0062 07E0     		b	.L30
 450              	.LVL48:
 451              	.L31:
 170:USBUARTConfig.c ****                 
 452              		.loc 1 170 0 is_stmt 0 discriminator 3
 453 0064 1A00     		movs	r2, r3
 454 0066 403A     		subs	r2, r2, #64
 455 0068 0A49     		ldr	r1, .L33
 456 006a C818     		adds	r0, r1, r3
 457 006c 0079     		ldrb	r0, [r0, #4]
 458 006e 8A18     		adds	r2, r1, r2
 459 0070 1071     		strb	r0, [r2, #4]
 460 0072 0133     		adds	r3, r3, #1
ARM GAS  C:\Users\theGu\AppData\Local\Temp\cc6Yj1rA.s 			page 14


 461              	.LVL49:
 462              	.L30:
 170:USBUARTConfig.c ****                 
 463              		.loc 1 170 0 discriminator 1
 464 0074 074A     		ldr	r2, .L33
 465 0076 5288     		ldrh	r2, [r2, #2]
 466 0078 9342     		cmp	r3, r2
 467 007a F3DB     		blt	.L31
 468              	.LBE6:
 172:USBUARTConfig.c ****                 
 469              		.loc 1 172 0 is_stmt 1
 470 007c 403A     		subs	r2, r2, #64
 471 007e 054B     		ldr	r3, .L33
 472              	.LVL50:
 473 0080 5A80     		strh	r2, [r3, #2]
 474              	.L32:
 175:USBUARTConfig.c **** 
 475              		.loc 1 175 0 discriminator 1
 476 0082 FFF7FEFF 		bl	USBUART_CDCIsReady
 477              	.LVL51:
 478 0086 0028     		cmp	r0, #0
 479 0088 FBD0     		beq	.L32
 178:USBUARTConfig.c ****             }
 480              		.loc 1 178 0
 481 008a 0021     		movs	r1, #0
 482 008c 0020     		movs	r0, #0
 483 008e FFF7FEFF 		bl	USBUART_PutData
 484              	.LVL52:
 485              	.L25:
 183:USBUARTConfig.c **** 
 486              		.loc 1 183 0
 487              		@ sp needed
 488 0092 10BD     		pop	{r4, pc}
 489              	.L34:
 490              		.align	2
 491              	.L33:
 492 0094 00000000 		.word	.LANCHOR1
 493              		.cfi_endproc
 494              	.LFE65:
 495              		.size	USB_WIFI_Monitoring, .-USB_WIFI_Monitoring
 496              		.global	usb_active
 497              		.comm	g_Cmd,100,4
 498              		.global	g_USBUART_Config_Loop
 499              		.global	g_requestType
 500              		.global	g_bUSBUART_Connected
 501              		.comm	Param,6,4
 502              		.data
 503              		.set	.LANCHOR0,. + 0
 504              		.type	usb_active, %object
 505              		.size	usb_active, 1
 506              	usb_active:
 507 0000 01       		.byte	1
 508              		.section	.rodata.str1.4,"aMS",%progbits,1
 509              		.align	2
 510              	.LC1:
 511 0000 4F757420 		.ascii	"Out of Data in USBUARTprintf()\015\012\000"
 511      6F662044 
ARM GAS  C:\Users\theGu\AppData\Local\Temp\cc6Yj1rA.s 			page 15


 511      61746120 
 511      696E2055 
 511      53425541 
 512              		.bss
 513              		.align	2
 514              		.set	.LANCHOR1,. + 0
 515              		.type	g_bUSBUART_Connected, %object
 516              		.size	g_bUSBUART_Connected, 1
 517              	g_bUSBUART_Connected:
 518 0000 00       		.space	1
 519 0001 00       		.space	1
 520              		.type	count.9162, %object
 521              		.size	count.9162, 2
 522              	count.9162:
 523 0002 0000     		.space	2
 524              		.type	buffer.9163, %object
 525              		.size	buffer.9163, 256
 526              	buffer.9163:
 527 0004 00000000 		.space	256
 527      00000000 
 527      00000000 
 527      00000000 
 527      00000000 
 528              		.type	g_USBUART_Config_Loop, %object
 529              		.size	g_USBUART_Config_Loop, 2
 530              	g_USBUART_Config_Loop:
 531 0104 0000     		.space	2
 532              		.type	g_requestType, %object
 533              		.size	g_requestType, 1
 534              	g_requestType:
 535 0106 00       		.space	1
 536              		.text
 537              	.Letext0:
 538              		.file 2 "c:\\program files (x86)\\cypress\\psoc creator\\4.4\\psoc creator\\import\\gnu\\arm\\5.4.
 539              		.file 3 "c:\\program files (x86)\\cypress\\psoc creator\\4.4\\psoc creator\\import\\gnu\\arm\\5.4.
 540              		.file 4 "Generated_Source\\PSoC4/cytypes.h"
 541              		.file 5 "c:\\program files (x86)\\cypress\\psoc creator\\4.4\\psoc creator\\import\\gnu\\arm\\5.4.
 542              		.file 6 "<built-in>"
 543              		.file 7 "main.h"
 544              		.file 8 "fonts.h"
 545              		.file 9 "Generated_Source\\PSoC4/USBUART.h"
 546              		.file 10 "Generated_Source\\PSoC4/USBUART_cdc.h"
 547              		.file 11 "JSONParser.h"
 548              		.file 12 "Generated_Source\\PSoC4/UART_SPI_UART.h"
 549              		.file 13 "RealTimeClock.h"
 550              		.file 14 "Generated_Source\\PSoC4/CyLib.h"
 551              		.file 15 "c:\\program files (x86)\\cypress\\psoc creator\\4.4\\psoc creator\\import\\gnu\\arm\\5.4
 552              		.file 16 "c:\\program files (x86)\\cypress\\psoc creator\\4.4\\psoc creator\\import\\gnu\\arm\\5.4
 553              		.file 17 "debug.h"