ARM GAS  C:\Users\luvsd\AppData\Local\Temp\cceWh3pe.s 			page 1


   1              		.syntax unified
   2              		.cpu cortex-m0
   3              		.fpu softvfp
   4              		.eabi_attribute 20, 1
   5              		.eabi_attribute 21, 1
   6              		.eabi_attribute 23, 3
   7              		.eabi_attribute 24, 1
   8              		.eabi_attribute 25, 1
   9              		.eabi_attribute 26, 1
  10              		.eabi_attribute 30, 1
  11              		.eabi_attribute 34, 0
  12              		.eabi_attribute 18, 4
  13              		.thumb
  14              		.syntax unified
  15              		.file	"widget.c"
  16              		.text
  17              	.Ltext0:
  18              		.cfi_sections	.debug_frame
  19              		.section	.text.initWidget,"ax",%progbits
  20              		.align	2
  21              		.global	initWidget
  22              		.code	16
  23              		.thumb_func
  24              		.type	initWidget, %function
  25              	initWidget:
  26              	.LFB62:
  27              		.file 1 "lib\\widget.c"
   1:lib/widget.c  **** /* ========================================
   2:lib/widget.c  ****  *
   3:lib/widget.c  ****  * Copyright Suntech, 2023.02.01
   4:lib/widget.c  ****  * All Rights Reserved
   5:lib/widget.c  ****  * UNPUBLISHED, LICENSED SOFTWARE.
   6:lib/widget.c  ****  *
   7:lib/widget.c  ****  * CONFIDENTIAL AND PROPRIETARY INFORMATION
   8:lib/widget.c  ****  * WHICH IS THE PROPERTY OF your company.
   9:lib/widget.c  ****  *
  10:lib/widget.c  ****  * ========================================
  11:lib/widget.c  **** */
  12:lib/widget.c  **** #include "widget.h"
  13:lib/widget.c  **** #include "menuDesign.h"
  14:lib/widget.c  **** #include "image.h"
  15:lib/widget.c  **** #include "externalFlash.h"
  16:lib/widget.c  **** #include "UI.h"
  17:lib/widget.c  **** #include "WIFI.h"
  18:lib/widget.c  **** #include "server.h"
  19:lib/widget.c  **** #include "LEDControl.h"
  20:lib/widget.c  **** 
  21:lib/widget.c  **** BUTTON g_btnBottom[2];
  22:lib/widget.c  **** 
  23:lib/widget.c  **** IMAGE g_imageUpArrow =
  24:lib/widget.c  **** {
  25:lib/widget.c  ****     .image = image_arrow_up,
  26:lib/widget.c  ****     .width = 32,
  27:lib/widget.c  ****     .height=32,
  28:lib/widget.c  **** };
  29:lib/widget.c  **** 
  30:lib/widget.c  **** IMAGE g_imageDownArrow =
ARM GAS  C:\Users\luvsd\AppData\Local\Temp\cceWh3pe.s 			page 2


  31:lib/widget.c  **** {
  32:lib/widget.c  ****     .image = image_arrow_down,
  33:lib/widget.c  ****     .width = 32,
  34:lib/widget.c  ****     .height=32,
  35:lib/widget.c  **** };
  36:lib/widget.c  **** 
  37:lib/widget.c  **** IMAGE g_imageWifi =
  38:lib/widget.c  **** {
  39:lib/widget.c  ****     .image = image_wifi_4,
  40:lib/widget.c  ****     .width = 32,
  41:lib/widget.c  ****     .height=32,
  42:lib/widget.c  **** };
  43:lib/widget.c  **** 
  44:lib/widget.c  **** RECT        g_rectWifi;
  45:lib/widget.c  **** BUTTON      g_wifi_strength;
  46:lib/widget.c  **** BUTTON      g_TitleBar;
  47:lib/widget.c  **** LIST_MENU   g_ListMenu;
  48:lib/widget.c  **** 
  49:lib/widget.c  **** IMAGE g_DownArrowImage;
  50:lib/widget.c  **** void initWidget()
  51:lib/widget.c  **** {
  28              		.loc 1 51 0
  29              		.cfi_startproc
  30              		@ args = 0, pretend = 0, frame = 0
  31              		@ frame_needed = 0, uses_anonymous_args = 0
  32 0000 F8B5     		push	{r3, r4, r5, r6, r7, lr}
  33              		.cfi_def_cfa_offset 24
  34              		.cfi_offset 3, -24
  35              		.cfi_offset 4, -20
  36              		.cfi_offset 5, -16
  37              		.cfi_offset 6, -12
  38              		.cfi_offset 7, -8
  39              		.cfi_offset 14, -4
  52:lib/widget.c  ****     // wifi Strength /////////////////////////////////////    
  53:lib/widget.c  ****     g_wifi_strength.rect.top      = 0;
  40              		.loc 1 53 0
  41 0002 1A4C     		ldr	r4, .L2
  42 0004 0025     		movs	r5, #0
  43 0006 2581     		strh	r5, [r4, #8]
  54:lib/widget.c  ****     g_wifi_strength.rect.bottom   =  DEFAULT_TOP_TITLE_HEIGHT-2;
  44              		.loc 1 54 0
  45 0008 2626     		movs	r6, #38
  46 000a 6681     		strh	r6, [r4, #10]
  55:lib/widget.c  ****     g_wifi_strength.rect.right = g_SCREEN_WIDTH-1;
  47              		.loc 1 55 0
  48 000c 184F     		ldr	r7, .L2+4
  49 000e 3B88     		ldrh	r3, [r7]
  50 0010 013B     		subs	r3, r3, #1
  51 0012 9BB2     		uxth	r3, r3
  52 0014 E380     		strh	r3, [r4, #6]
  56:lib/widget.c  ****     g_wifi_strength.rect.left  = g_wifi_strength.rect.right - 30;
  53              		.loc 1 56 0
  54 0016 1E3B     		subs	r3, r3, #30
  55 0018 A380     		strh	r3, [r4, #4]
  57:lib/widget.c  ****     SetDefaultButtonStyle(&g_wifi_strength);    
  56              		.loc 1 57 0
  57 001a 2000     		movs	r0, r4
ARM GAS  C:\Users\luvsd\AppData\Local\Temp\cceWh3pe.s 			page 3


  58 001c FFF7FEFF 		bl	SetDefaultButtonStyle
  59              	.LVL0:
  58:lib/widget.c  ****     SetButtonStyleColor(&g_wifi_strength,BUTTON_STYLE_TEXT);
  60              		.loc 1 58 0
  61 0020 0421     		movs	r1, #4
  62 0022 2000     		movs	r0, r4
  63 0024 FFF7FEFF 		bl	SetButtonStyleColor
  64              	.LVL1:
  59:lib/widget.c  ****         
  60:lib/widget.c  ****     // wifi Icon /////////////////////////////////////
  61:lib/widget.c  ****     g_rectWifi.right  = g_wifi_strength.rect.left-1;
  65              		.loc 1 61 0
  66 0028 A388     		ldrh	r3, [r4, #4]
  67 002a 013B     		subs	r3, r3, #1
  68 002c 9BB2     		uxth	r3, r3
  69 002e 114A     		ldr	r2, .L2+8
  70 0030 5380     		strh	r3, [r2, #2]
  62:lib/widget.c  ****     g_rectWifi.left   = g_rectWifi.right - g_imageWifi.width;
  71              		.loc 1 62 0
  72 0032 1149     		ldr	r1, .L2+12
  73 0034 8988     		ldrh	r1, [r1, #4]
  74 0036 5B1A     		subs	r3, r3, r1
  75 0038 1380     		strh	r3, [r2]
  63:lib/widget.c  ****     g_rectWifi.top    = g_wifi_strength.rect.top;
  76              		.loc 1 63 0
  77 003a 2389     		ldrh	r3, [r4, #8]
  78 003c 9380     		strh	r3, [r2, #4]
  64:lib/widget.c  ****     g_rectWifi.bottom = g_wifi_strength.rect.bottom;
  79              		.loc 1 64 0
  80 003e 6389     		ldrh	r3, [r4, #10]
  81 0040 D380     		strh	r3, [r2, #6]
  65:lib/widget.c  ****     
  66:lib/widget.c  ****     // title Bar /////////////////////////////////////    
  67:lib/widget.c  ****     #ifdef USE_WIFI
  68:lib/widget.c  ****     g_TitleBar.rect.right  = g_rectWifi.left;
  69:lib/widget.c  ****     #else
  70:lib/widget.c  ****     g_TitleBar.rect.right  = g_SCREEN_WIDTH-1 ;    
  82              		.loc 1 70 0
  83 0042 0E4C     		ldr	r4, .L2+16
  84 0044 3B88     		ldrh	r3, [r7]
  85 0046 013B     		subs	r3, r3, #1
  86 0048 E380     		strh	r3, [r4, #6]
  71:lib/widget.c  ****     #endif
  72:lib/widget.c  ****     g_TitleBar.rect.left   = 0;
  87              		.loc 1 72 0
  88 004a A580     		strh	r5, [r4, #4]
  73:lib/widget.c  ****     g_TitleBar.rect.top    = 0;
  89              		.loc 1 73 0
  90 004c 2581     		strh	r5, [r4, #8]
  74:lib/widget.c  ****     g_TitleBar.rect.bottom = DEFAULT_TOP_TITLE_HEIGHT-2;
  91              		.loc 1 74 0
  92 004e 6681     		strh	r6, [r4, #10]
  75:lib/widget.c  ****     
  76:lib/widget.c  ****     SetButtonStyleColor(&g_TitleBar,BUTTON_STYLE_WHITE);
  93              		.loc 1 76 0
  94 0050 0521     		movs	r1, #5
  95 0052 2000     		movs	r0, r4
ARM GAS  C:\Users\luvsd\AppData\Local\Temp\cceWh3pe.s 			page 4


  96 0054 FFF7FEFF 		bl	SetButtonStyleColor
  97              	.LVL2:
  77:lib/widget.c  ****     SetButtonText(&g_TitleBar,"%s",g_ptrServer->deviceName);
  98              		.loc 1 77 0
  99 0058 094B     		ldr	r3, .L2+20
 100 005a 1A68     		ldr	r2, [r3]
 101 005c 6E32     		adds	r2, r2, #110
 102 005e 0949     		ldr	r1, .L2+24
 103 0060 2000     		movs	r0, r4
 104 0062 FFF7FEFF 		bl	SetButtonText
 105              	.LVL3:
  78:lib/widget.c  ****         
  79:lib/widget.c  ****     initMenuDesign();
 106              		.loc 1 79 0
 107 0066 FFF7FEFF 		bl	initMenuDesign
 108              	.LVL4:
  80:lib/widget.c  **** }
 109              		.loc 1 80 0
 110              		@ sp needed
 111 006a F8BD     		pop	{r3, r4, r5, r6, r7, pc}
 112              	.L3:
 113              		.align	2
 114              	.L2:
 115 006c 00000000 		.word	g_wifi_strength
 116 0070 00000000 		.word	g_SCREEN_WIDTH
 117 0074 00000000 		.word	g_rectWifi
 118 0078 00000000 		.word	.LANCHOR0
 119 007c 00000000 		.word	g_TitleBar
 120 0080 00000000 		.word	g_ptrServer
 121 0084 00000000 		.word	.LC6
 122              		.cfi_endproc
 123              	.LFE62:
 124              		.size	initWidget, .-initWidget
 125              		.section	.text.SetDrawBottomButtons,"ax",%progbits
 126              		.align	2
 127              		.global	SetDrawBottomButtons
 128              		.code	16
 129              		.thumb_func
 130              		.type	SetDrawBottomButtons, %function
 131              	SetDrawBottomButtons:
 132              	.LFB63:
  81:lib/widget.c  **** 
  82:lib/widget.c  **** void SetDrawBottomButtons(char *leftText, char *rightText, uint16 styleLeft, uint16 styleRight)
  83:lib/widget.c  **** {
 133              		.loc 1 83 0
 134              		.cfi_startproc
 135              		@ args = 0, pretend = 0, frame = 16
 136              		@ frame_needed = 0, uses_anonymous_args = 0
 137              	.LVL5:
 138 0000 F0B5     		push	{r4, r5, r6, r7, lr}
 139              		.cfi_def_cfa_offset 20
 140              		.cfi_offset 4, -20
 141              		.cfi_offset 5, -16
 142              		.cfi_offset 6, -12
 143              		.cfi_offset 7, -8
 144              		.cfi_offset 14, -4
 145 0002 87B0     		sub	sp, sp, #28
ARM GAS  C:\Users\luvsd\AppData\Local\Temp\cceWh3pe.s 			page 5


 146              		.cfi_def_cfa_offset 48
 147 0004 0390     		str	r0, [sp, #12]
 148 0006 0491     		str	r1, [sp, #16]
 149 0008 1500     		movs	r5, r2
 150 000a 0593     		str	r3, [sp, #20]
 151              	.LVL6:
  84:lib/widget.c  ****     BUTTON *leftButton  = &g_btnBottom[0];
  85:lib/widget.c  ****     BUTTON *rightButton = &g_btnBottom[1];
  86:lib/widget.c  ****     
  87:lib/widget.c  ****     SetDefaultButtonStyle(leftButton);
 152              		.loc 1 87 0
 153 000c 1F4C     		ldr	r4, .L9
 154 000e 2000     		movs	r0, r4
 155              	.LVL7:
 156 0010 FFF7FEFF 		bl	SetDefaultButtonStyle
 157              	.LVL8:
  88:lib/widget.c  ****     SetButtonStyleColor(leftButton,  styleLeft);    
 158              		.loc 1 88 0
 159 0014 2900     		movs	r1, r5
 160 0016 2000     		movs	r0, r4
 161 0018 FFF7FEFF 		bl	SetButtonStyleColor
 162              	.LVL9:
  89:lib/widget.c  ****     SetButtonSize(leftButton, 0,g_DEFAULT_BUTTON_HEIGHT,BUTTON_X_1_2,BUTTON_Y_BOTTOM,FALSE);
 163              		.loc 1 89 0
 164 001c 1C4D     		ldr	r5, .L9+4
 165 001e 2A88     		ldrh	r2, [r5]
 166 0020 0026     		movs	r6, #0
 167 0022 0196     		str	r6, [sp, #4]
 168 0024 1427     		movs	r7, #20
 169 0026 0097     		str	r7, [sp]
 170 0028 0223     		movs	r3, #2
 171 002a 0021     		movs	r1, #0
 172 002c 2000     		movs	r0, r4
 173 002e FFF7FEFF 		bl	SetButtonSize
 174              	.LVL10:
  90:lib/widget.c  **** 
  91:lib/widget.c  ****     SetDefaultButtonStyle(rightButton);
 175              		.loc 1 91 0
 176 0032 4034     		adds	r4, r4, #64
 177 0034 2000     		movs	r0, r4
 178 0036 FFF7FEFF 		bl	SetDefaultButtonStyle
 179              	.LVL11:
  92:lib/widget.c  ****     SetButtonStyleColor(rightButton, styleRight);
 180              		.loc 1 92 0
 181 003a 0599     		ldr	r1, [sp, #20]
 182 003c 2000     		movs	r0, r4
 183 003e FFF7FEFF 		bl	SetButtonStyleColor
 184              	.LVL12:
  93:lib/widget.c  ****     SetButtonSize(rightButton,0,g_DEFAULT_BUTTON_HEIGHT,BUTTON_X_2_2,BUTTON_Y_BOTTOM,FALSE);       
 185              		.loc 1 93 0
 186 0042 2A88     		ldrh	r2, [r5]
 187 0044 0196     		str	r6, [sp, #4]
 188 0046 0097     		str	r7, [sp]
 189 0048 0323     		movs	r3, #3
 190 004a 0021     		movs	r1, #0
 191 004c 2000     		movs	r0, r4
 192 004e FFF7FEFF 		bl	SetButtonSize
ARM GAS  C:\Users\luvsd\AppData\Local\Temp\cceWh3pe.s 			page 6


 193              	.LVL13:
  94:lib/widget.c  ****  
  95:lib/widget.c  ****     // Bottom left Button       
  96:lib/widget.c  ****     if(leftText != NULL)
 194              		.loc 1 96 0
 195 0052 039B     		ldr	r3, [sp, #12]
 196 0054 002B     		cmp	r3, #0
 197 0056 04D0     		beq	.L5
  97:lib/widget.c  ****     {
  98:lib/widget.c  ****         SetButtonText(leftButton, leftText);
 198              		.loc 1 98 0
 199 0058 1900     		movs	r1, r3
 200 005a 0C48     		ldr	r0, .L9
 201 005c FFF7FEFF 		bl	SetButtonText
 202              	.LVL14:
 203 0060 02E0     		b	.L6
 204              	.L5:
  99:lib/widget.c  ****     } else {
 100:lib/widget.c  ****         SetHiddenButtonStyle(leftButton);
 205              		.loc 1 100 0
 206 0062 0A48     		ldr	r0, .L9
 207 0064 FFF7FEFF 		bl	SetHiddenButtonStyle
 208              	.LVL15:
 209              	.L6:
 101:lib/widget.c  ****     }
 102:lib/widget.c  ****     
 103:lib/widget.c  ****     // Bottom Right Button        
 104:lib/widget.c  ****     if(rightText != NULL)
 210              		.loc 1 104 0
 211 0068 049B     		ldr	r3, [sp, #16]
 212 006a 002B     		cmp	r3, #0
 213 006c 04D0     		beq	.L7
 105:lib/widget.c  ****     {
 106:lib/widget.c  ****         SetButtonText(rightButton, rightText);
 214              		.loc 1 106 0
 215 006e 1900     		movs	r1, r3
 216 0070 0848     		ldr	r0, .L9+8
 217              	.LVL16:
 218 0072 FFF7FEFF 		bl	SetButtonText
 219              	.LVL17:
 220 0076 02E0     		b	.L8
 221              	.L7:
 107:lib/widget.c  ****     } else {
 108:lib/widget.c  ****         SetHiddenButtonStyle(rightButton);
 222              		.loc 1 108 0
 223 0078 0648     		ldr	r0, .L9+8
 224              	.LVL18:
 225 007a FFF7FEFF 		bl	SetHiddenButtonStyle
 226              	.LVL19:
 227              	.L8:
 109:lib/widget.c  ****     }
 110:lib/widget.c  ****     
 111:lib/widget.c  ****     DrawButtons(g_btnBottom,2);    
 228              		.loc 1 111 0
 229 007e 0221     		movs	r1, #2
 230 0080 0248     		ldr	r0, .L9
 231 0082 FFF7FEFF 		bl	DrawButtons
ARM GAS  C:\Users\luvsd\AppData\Local\Temp\cceWh3pe.s 			page 7


 232              	.LVL20:
 112:lib/widget.c  **** }
 233              		.loc 1 112 0
 234 0086 07B0     		add	sp, sp, #28
 235              		@ sp needed
 236 0088 F0BD     		pop	{r4, r5, r6, r7, pc}
 237              	.L10:
 238 008a C046     		.align	2
 239              	.L9:
 240 008c 00000000 		.word	g_btnBottom
 241 0090 00000000 		.word	g_DEFAULT_BUTTON_HEIGHT
 242 0094 40000000 		.word	g_btnBottom+64
 243              		.cfi_endproc
 244              	.LFE63:
 245              		.size	SetDrawBottomButtons, .-SetDrawBottomButtons
 246              		.section	.text.DrawTitleButton,"ax",%progbits
 247              		.align	2
 248              		.global	DrawTitleButton
 249              		.code	16
 250              		.thumb_func
 251              		.type	DrawTitleButton, %function
 252              	DrawTitleButton:
 253              	.LFB64:
 113:lib/widget.c  **** 
 114:lib/widget.c  **** uint16 DrawTitleButton(char *title, uint8 withScroll)
 115:lib/widget.c  **** {    
 254              		.loc 1 115 0
 255              		.cfi_startproc
 256              		@ args = 0, pretend = 0, frame = 64
 257              		@ frame_needed = 0, uses_anonymous_args = 0
 258              	.LVL21:
 259 0000 70B5     		push	{r4, r5, r6, lr}
 260              		.cfi_def_cfa_offset 16
 261              		.cfi_offset 4, -16
 262              		.cfi_offset 5, -12
 263              		.cfi_offset 6, -8
 264              		.cfi_offset 14, -4
 265 0002 92B0     		sub	sp, sp, #72
 266              		.cfi_def_cfa_offset 88
 267 0004 0500     		movs	r5, r0
 268 0006 0E00     		movs	r6, r1
 116:lib/widget.c  ****     // Title Button  
 117:lib/widget.c  ****     if(title != NULL)
 269              		.loc 1 117 0
 270 0008 0028     		cmp	r0, #0
 271 000a 1ED0     		beq	.L13
 272              	.LBB2:
 118:lib/widget.c  ****     {
 119:lib/widget.c  ****         BUTTON btn;
 120:lib/widget.c  ****         SetDefaultButtonStyle(&btn);        
 273              		.loc 1 120 0
 274 000c 02AC     		add	r4, sp, #8
 275 000e 2000     		movs	r0, r4
 276              	.LVL22:
 277 0010 FFF7FEFF 		bl	SetDefaultButtonStyle
 278              	.LVL23:
 121:lib/widget.c  ****         SetButtonSize(&btn,0,g_DEFAULT_BUTTON_HEIGHT-1,BUTTON_X_FULL,BUTTON_Y_FIRST,withScroll);
ARM GAS  C:\Users\luvsd\AppData\Local\Temp\cceWh3pe.s 			page 8


 279              		.loc 1 121 0
 280 0014 0E4B     		ldr	r3, .L14
 281 0016 1A88     		ldrh	r2, [r3]
 282 0018 013A     		subs	r2, r2, #1
 283 001a 92B2     		uxth	r2, r2
 284 001c 0196     		str	r6, [sp, #4]
 285 001e 0D23     		movs	r3, #13
 286 0020 0093     		str	r3, [sp]
 287 0022 0C3B     		subs	r3, r3, #12
 288 0024 0021     		movs	r1, #0
 289 0026 2000     		movs	r0, r4
 290 0028 FFF7FEFF 		bl	SetButtonSize
 291              	.LVL24:
 122:lib/widget.c  ****         SetButtonStyleColor(&btn,BUTTON_STYLE_R_RED);        
 292              		.loc 1 122 0
 293 002c 0E21     		movs	r1, #14
 294 002e 2000     		movs	r0, r4
 295 0030 FFF7FEFF 		bl	SetButtonStyleColor
 296              	.LVL25:
 123:lib/widget.c  ****         SetButtonText(&btn, title);        
 297              		.loc 1 123 0
 298 0034 2900     		movs	r1, r5
 299 0036 2000     		movs	r0, r4
 300 0038 FFF7FEFF 		bl	SetButtonText
 301              	.LVL26:
 124:lib/widget.c  ****         DrawButton(&btn);
 302              		.loc 1 124 0
 303 003c 2000     		movs	r0, r4
 304 003e FFF7FEFF 		bl	DrawButton
 305              	.LVL27:
 125:lib/widget.c  ****         
 126:lib/widget.c  ****         return btn.rect.bottom + 1;
 306              		.loc 1 126 0
 307 0042 6089     		ldrh	r0, [r4, #10]
 308 0044 0130     		adds	r0, r0, #1
 309 0046 80B2     		uxth	r0, r0
 310 0048 00E0     		b	.L12
 311              	.LVL28:
 312              	.L13:
 313              	.LBE2:
 127:lib/widget.c  ****     }
 128:lib/widget.c  ****     return 0;
 314              		.loc 1 128 0
 315 004a 0020     		movs	r0, #0
 316              	.LVL29:
 317              	.L12:
 129:lib/widget.c  **** }
 318              		.loc 1 129 0 discriminator 1
 319 004c 12B0     		add	sp, sp, #72
 320              		@ sp needed
 321              	.LVL30:
 322 004e 70BD     		pop	{r4, r5, r6, pc}
 323              	.L15:
 324              		.align	2
 325              	.L14:
 326 0050 00000000 		.word	g_DEFAULT_BUTTON_HEIGHT
 327              		.cfi_endproc
ARM GAS  C:\Users\luvsd\AppData\Local\Temp\cceWh3pe.s 			page 9


 328              	.LFE64:
 329              		.size	DrawTitleButton, .-DrawTitleButton
 330              		.section	.text.getMaxNoOfItemInListButton,"ax",%progbits
 331              		.align	2
 332              		.global	getMaxNoOfItemInListButton
 333              		.code	16
 334              		.thumb_func
 335              		.type	getMaxNoOfItemInListButton, %function
 336              	getMaxNoOfItemInListButton:
 337              	.LFB65:
 130:lib/widget.c  **** 
 131:lib/widget.c  **** // 리스트 버턴에 넣을 수 있는 버턴의 개수
 132:lib/widget.c  **** uint16 getMaxNoOfItemInListButton()
 133:lib/widget.c  **** {
 338              		.loc 1 133 0
 339              		.cfi_startproc
 340              		@ args = 0, pretend = 0, frame = 0
 341              		@ frame_needed = 0, uses_anonymous_args = 0
 342 0000 10B5     		push	{r4, lr}
 343              		.cfi_def_cfa_offset 8
 344              		.cfi_offset 4, -8
 345              		.cfi_offset 14, -4
 134:lib/widget.c  ****     return (getMiscConfig()->bDisplayDir == DISPLAY_DIRECTION_PORTRAIT) ? 5 : 4; 
 346              		.loc 1 134 0
 347 0002 FFF7FEFF 		bl	getMiscConfig
 348              	.LVL31:
 349 0006 0388     		ldrh	r3, [r0]
 350 0008 002B     		cmp	r3, #0
 351 000a 01D1     		bne	.L18
 352 000c 0520     		movs	r0, #5
 353 000e 00E0     		b	.L17
 354              	.L18:
 355 0010 0420     		movs	r0, #4
 356              	.L17:
 135:lib/widget.c  **** }
 357              		.loc 1 135 0 discriminator 4
 358              		@ sp needed
 359 0012 10BD     		pop	{r4, pc}
 360              		.cfi_endproc
 361              	.LFE65:
 362              		.size	getMaxNoOfItemInListButton, .-getMaxNoOfItemInListButton
 363              		.section	.text.isExistScroll,"ax",%progbits
 364              		.align	2
 365              		.global	isExistScroll
 366              		.code	16
 367              		.thumb_func
 368              		.type	isExistScroll, %function
 369              	isExistScroll:
 370              	.LFB66:
 136:lib/widget.c  **** 
 137:lib/widget.c  **** uint8 isExistScroll(LIST_MENU *menu)
 138:lib/widget.c  **** {
 371              		.loc 1 138 0
 372              		.cfi_startproc
 373              		@ args = 0, pretend = 0, frame = 0
 374              		@ frame_needed = 0, uses_anonymous_args = 0
 375              		@ link register save eliminated.
ARM GAS  C:\Users\luvsd\AppData\Local\Temp\cceWh3pe.s 			page 10


 376              	.LVL32:
 139:lib/widget.c  ****     return (menu->noOfDisplayButton < menu->sizeOfList) ? TRUE : FALSE;
 377              		.loc 1 139 0
 378 0000 B923     		movs	r3, #185
 379 0002 9B00     		lsls	r3, r3, #2
 380 0004 C25A     		ldrh	r2, [r0, r3]
 381 0006 044B     		ldr	r3, .L22
 382 0008 C35A     		ldrh	r3, [r0, r3]
 383 000a 9A42     		cmp	r2, r3
 384 000c 01D2     		bcs	.L21
 385 000e 0120     		movs	r0, #1
 386              	.LVL33:
 387 0010 00E0     		b	.L20
 388              	.LVL34:
 389              	.L21:
 390 0012 0020     		movs	r0, #0
 391              	.LVL35:
 392              	.L20:
 140:lib/widget.c  **** }
 393              		.loc 1 140 0 discriminator 4
 394              		@ sp needed
 395 0014 7047     		bx	lr
 396              	.L23:
 397 0016 C046     		.align	2
 398              	.L22:
 399 0018 E6020000 		.word	742
 400              		.cfi_endproc
 401              	.LFE66:
 402              		.size	isExistScroll, .-isExistScroll
 403              		.global	__aeabi_idiv
 404              		.section	.text.getIndexOfClickedListMenu,"ax",%progbits
 405              		.align	2
 406              		.global	getIndexOfClickedListMenu
 407              		.code	16
 408              		.thumb_func
 409              		.type	getIndexOfClickedListMenu, %function
 410              	getIndexOfClickedListMenu:
 411              	.LFB70:
 141:lib/widget.c  **** 
 142:lib/widget.c  **** ///////////////////////////////////////////////////////////////////////////////////////////////////
 143:lib/widget.c  **** void SetDrawListButtons(LIST_MENU *menu, char *title, char *textArray[], uint16 sizeOfList)
 144:lib/widget.c  **** ///////////////////////////////////////////////////////////////////////////////////////////////////
 145:lib/widget.c  **** /*
 146:lib/widget.c  ****     indexSelect: selected index, if no used 0xFFFF
 147:lib/widget.c  **** */
 148:lib/widget.c  **** {
 149:lib/widget.c  ****     RECT bodyRect = GetBodyArea();
 150:lib/widget.c  ****     uint16 yPos = bodyRect.top;
 151:lib/widget.c  ****     uint16 yPosTitle;
 152:lib/widget.c  ****  
 153:lib/widget.c  ****     menu->noOfDisplayButton = getMaxNoOfItemInListButton();
 154:lib/widget.c  **** 
 155:lib/widget.c  ****     if(title != NULL) menu->noOfDisplayButton--;
 156:lib/widget.c  ****    
 157:lib/widget.c  ****     menu->sizeOfList = sizeOfList;
 158:lib/widget.c  ****     strcpy(menu->title,title);
 159:lib/widget.c  ****   //  menu->listText = textArray;
ARM GAS  C:\Users\luvsd\AppData\Local\Temp\cceWh3pe.s 			page 11


 160:lib/widget.c  ****     
 161:lib/widget.c  ****     uint8 withScroll = isExistScroll(menu);
 162:lib/widget.c  ****     
 163:lib/widget.c  ****     if((yPosTitle = DrawTitleButton(title,withScroll)) > 0) yPos = yPosTitle;
 164:lib/widget.c  ****       
 165:lib/widget.c  ****     if(textArray != NULL)
 166:lib/widget.c  ****         for(int i=0; i < menu->noOfDisplayButton; i++)
 167:lib/widget.c  ****         {                        
 168:lib/widget.c  ****             BUTTON *btn = &menu->btns[i];
 169:lib/widget.c  ****             SetDefaultButtonStyle(btn);     
 170:lib/widget.c  ****             SetButtonStyleColor(btn, BUTTON_STYLE_LIST);        
 171:lib/widget.c  ****             SetButtonSize      (btn, yPos, g_DEFAULT_BUTTON_HEIGHT, BUTTON_X_FULL, BUTTON_Y,withScr
 172:lib/widget.c  ****             btn->align = TEXT_ALIGN_LEFT;
 173:lib/widget.c  ****             
 174:lib/widget.c  ****             uint16 textIdx = menu->noOfDisplayButton * menu->curPage + i;
 175:lib/widget.c  ****             if(textIdx >= menu->sizeOfList) break;
 176:lib/widget.c  ****          
 177:lib/widget.c  ****             strcpy(menu->listText[textIdx],textArray[textIdx]);
 178:lib/widget.c  ****             strcpy(btn->text,textArray[textIdx]);        
 179:lib/widget.c  ****             yPos += g_DEFAULT_BUTTON_HEIGHT;
 180:lib/widget.c  ****            // DrawButton(btn);
 181:lib/widget.c  ****         }
 182:lib/widget.c  ****     else
 183:lib/widget.c  ****         {
 184:lib/widget.c  ****             EraseBlankArea(yPos, FALSE);
 185:lib/widget.c  ****         }
 186:lib/widget.c  **** 
 187:lib/widget.c  ****     if(withScroll) SetDrawScrollButton(menu);     
 188:lib/widget.c  **** }
 189:lib/widget.c  **** 
 190:lib/widget.c  **** void SetDrawNodeListButtons(MENUNODE *parent, LIST_MENU *menu)
 191:lib/widget.c  **** {
 192:lib/widget.c  ****     RECT bodyRect = GetBodyArea();
 193:lib/widget.c  ****     uint16 yPos = bodyRect.top;
 194:lib/widget.c  ****     uint16 yPosTitle;
 195:lib/widget.c  ****  
 196:lib/widget.c  ****     menu->noOfDisplayButton = getMaxNoOfItemInListButton() -1;
 197:lib/widget.c  ****    
 198:lib/widget.c  ****     menu->sizeOfList = getNoOfChild(parent);
 199:lib/widget.c  ****     strcpy(menu->title,parent->nodeName);
 200:lib/widget.c  ****     
 201:lib/widget.c  ****     uint8 withScroll = isExistScroll(menu);
 202:lib/widget.c  ****     
 203:lib/widget.c  ****     if((yPosTitle = DrawTitleButton(menu->title,withScroll)) > 0) yPos = yPosTitle;
 204:lib/widget.c  ****       
 205:lib/widget.c  ****     if(parent->firstChild != NULL)
 206:lib/widget.c  ****     {
 207:lib/widget.c  ****         for(int i=0; i < menu->sizeOfList; i++)
 208:lib/widget.c  ****         {  
 209:lib/widget.c  ****             strcpy(menu->listText[i],getNthChild(parent,i)->nodeName);              
 210:lib/widget.c  ****         }
 211:lib/widget.c  ****         
 212:lib/widget.c  ****         for(int i=0; i < menu->noOfDisplayButton; i++)
 213:lib/widget.c  ****         {                        
 214:lib/widget.c  ****             BUTTON *btn = &menu->btns[i];
 215:lib/widget.c  ****             SetDefaultButtonStyle(btn);     
 216:lib/widget.c  ****             SetButtonStyleColor(btn, BUTTON_STYLE_LIST);        
ARM GAS  C:\Users\luvsd\AppData\Local\Temp\cceWh3pe.s 			page 12


 217:lib/widget.c  ****             SetButtonSize      (btn, yPos, g_DEFAULT_BUTTON_HEIGHT, BUTTON_X_FULL, BUTTON_Y,withScr
 218:lib/widget.c  ****             btn->align = TEXT_ALIGN_LEFT;
 219:lib/widget.c  ****             
 220:lib/widget.c  ****             uint16 textIdx = menu->noOfDisplayButton * menu->curPage + i;
 221:lib/widget.c  ****             if(textIdx >= menu->sizeOfList) break;
 222:lib/widget.c  ****             
 223:lib/widget.c  ****             strcpy(btn->text,menu->listText[textIdx]);        
 224:lib/widget.c  ****             yPos += g_DEFAULT_BUTTON_HEIGHT;
 225:lib/widget.c  ****         }
 226:lib/widget.c  ****     }
 227:lib/widget.c  ****     else
 228:lib/widget.c  ****         {
 229:lib/widget.c  ****             EraseBlankArea(yPos, FALSE);
 230:lib/widget.c  ****         }
 231:lib/widget.c  **** 
 232:lib/widget.c  ****     if(withScroll) SetDrawScrollButton(menu);       
 233:lib/widget.c  **** }
 234:lib/widget.c  **** //
 235:lib/widget.c  **** //void SetDrawNodeListButtons2(MENUNODE *parent, LIST_MENU *menu)
 236:lib/widget.c  **** //{
 237:lib/widget.c  **** //    RECT bodyRect = GetBodyArea();
 238:lib/widget.c  **** //    uint16 yPos = bodyRect.top;
 239:lib/widget.c  **** //    uint16 yPosTitle;
 240:lib/widget.c  **** // 
 241:lib/widget.c  **** //    menu->noOfDisplayButton = getMaxNoOfItemInListButton() -1;
 242:lib/widget.c  **** //   
 243:lib/widget.c  **** //    menu->sizeOfList = getNoOfChild(parent);
 244:lib/widget.c  **** //    strcpy(menu->title,parent->nodeName);
 245:lib/widget.c  **** //    
 246:lib/widget.c  **** //    uint8 withScroll = isExistScroll(menu);
 247:lib/widget.c  **** //    
 248:lib/widget.c  **** //    if((yPosTitle = DrawTitleButton(menu->title,withScroll)) > 0) yPos = yPosTitle;
 249:lib/widget.c  **** //      
 250:lib/widget.c  **** //    if(parent->firstChild != NULL)
 251:lib/widget.c  **** //        for(int i=0; i < menu->noOfDisplayButton; i++)
 252:lib/widget.c  **** //        {                        
 253:lib/widget.c  **** //            BUTTON *btn = &menu->btns[i];
 254:lib/widget.c  **** //            SetDefaultButtonStyle(btn);     
 255:lib/widget.c  **** //            SetButtonStyleColor(btn, BUTTON_STYLE_LIST);        
 256:lib/widget.c  **** //            SetButtonSize      (btn, yPos, g_DEFAULT_BUTTON_HEIGHT, BUTTON_X_FULL, BUTTON_Y,withS
 257:lib/widget.c  **** //            btn->align = TEXT_ALIGN_LEFT;
 258:lib/widget.c  **** //            
 259:lib/widget.c  **** //            uint16 textIdx = menu->noOfDisplayButton * menu->curPage + i;
 260:lib/widget.c  **** //            if(textIdx >= menu->sizeOfList) break;
 261:lib/widget.c  **** //            
 262:lib/widget.c  **** //            MENUNODE *child = getNthChild(parent,textIdx);
 263:lib/widget.c  **** //            strcpy(menu->listText[textIdx],child->nodeName);
 264:lib/widget.c  **** //            strcpy(btn->text,menu->listText[textIdx]);        
 265:lib/widget.c  **** //            yPos += g_DEFAULT_BUTTON_HEIGHT;
 266:lib/widget.c  **** //        }
 267:lib/widget.c  **** //    else
 268:lib/widget.c  **** //        {
 269:lib/widget.c  **** //            EraseBlankArea(yPos, FALSE);
 270:lib/widget.c  **** //        }
 271:lib/widget.c  **** //
 272:lib/widget.c  **** //    if(withScroll) SetDrawScrollButton(menu);       
 273:lib/widget.c  **** //}
ARM GAS  C:\Users\luvsd\AppData\Local\Temp\cceWh3pe.s 			page 13


 274:lib/widget.c  **** void UpdateDrawListButtons(LIST_MENU *menu, uint16 indexSelect)
 275:lib/widget.c  **** {
 276:lib/widget.c  ****     uint16 yPos;    
 277:lib/widget.c  ****         
 278:lib/widget.c  ****     for(int i=0; i < menu->noOfDisplayButton; i++)
 279:lib/widget.c  ****     {                        
 280:lib/widget.c  ****         int j = i+menu->curPage*menu->noOfDisplayButton;
 281:lib/widget.c  ****         if(j >= menu->sizeOfList) break;
 282:lib/widget.c  ****         
 283:lib/widget.c  ****         BUTTON *btn = &menu->btns[i];
 284:lib/widget.c  ****         
 285:lib/widget.c  ****         if(indexSelect != NO_SELECT)
 286:lib/widget.c  ****         {
 287:lib/widget.c  ****             char buff[30];
 288:lib/widget.c  ****             sprintf(buff,"%c%s",(indexSelect==j) ? '>' : ' ',menu->listText[j]);
 289:lib/widget.c  ****             strcpy(btn->text,buff);              
 290:lib/widget.c  ****         } else {
 291:lib/widget.c  ****             SetButtonText(btn,menu->listText[j]);              
 292:lib/widget.c  ****         }
 293:lib/widget.c  **** 
 294:lib/widget.c  ****         DrawButton(btn);
 295:lib/widget.c  ****         yPos = btn->rect.bottom + 1;
 296:lib/widget.c  ****     }
 297:lib/widget.c  ****     
 298:lib/widget.c  ****     EraseBlankArea(yPos, isExistScroll(menu));
 299:lib/widget.c  **** }
 300:lib/widget.c  **** 
 301:lib/widget.c  **** uint16 getIndexOfClickedListMenu(TOUCH *tc, LIST_MENU *menu)
 302:lib/widget.c  **** {
 412              		.loc 1 302 0
 413              		.cfi_startproc
 414              		@ args = 0, pretend = 0, frame = 0
 415              		@ frame_needed = 0, uses_anonymous_args = 0
 416              	.LVL36:
 417 0000 F8B5     		push	{r3, r4, r5, r6, r7, lr}
 418              		.cfi_def_cfa_offset 24
 419              		.cfi_offset 3, -24
 420              		.cfi_offset 4, -20
 421              		.cfi_offset 5, -16
 422              		.cfi_offset 6, -12
 423              		.cfi_offset 7, -8
 424              		.cfi_offset 14, -4
 425 0002 4F46     		mov	r7, r9
 426 0004 4646     		mov	r6, r8
 427 0006 C0B4     		push	{r6, r7}
 428              		.cfi_def_cfa_offset 32
 429              		.cfi_offset 8, -32
 430              		.cfi_offset 9, -28
 431 0008 0500     		movs	r5, r0
 432 000a 0F00     		movs	r7, r1
 303:lib/widget.c  ****     int8 bIsFirstPage = (menu->curPage == 0 ) ? TRUE : FALSE;
 433              		.loc 1 303 0
 434 000c DA23     		movs	r3, #218
 435 000e 9B00     		lsls	r3, r3, #2
 436 0010 CC5A     		ldrh	r4, [r1, r3]
 437 0012 002C     		cmp	r4, #0
 438 0014 02D1     		bne	.L33
ARM GAS  C:\Users\luvsd\AppData\Local\Temp\cceWh3pe.s 			page 14


 439 0016 0123     		movs	r3, #1
 440 0018 9846     		mov	r8, r3
 441 001a 01E0     		b	.L25
 442              	.L33:
 443 001c 0023     		movs	r3, #0
 444 001e 9846     		mov	r8, r3
 445              	.L25:
 446              	.LVL37:
 304:lib/widget.c  ****     int8 bIsLastPage  = (menu->curPage == (menu->sizeOfList-1) / menu->noOfDisplayButton) ? TRUE : 
 447              		.loc 1 304 0 discriminator 4
 448 0020 254B     		ldr	r3, .L38
 449 0022 F85A     		ldrh	r0, [r7, r3]
 450              	.LVL38:
 451 0024 0138     		subs	r0, r0, #1
 452 0026 023B     		subs	r3, r3, #2
 453 0028 F95A     		ldrh	r1, [r7, r3]
 454              	.LVL39:
 455 002a FFF7FEFF 		bl	__aeabi_idiv
 456              	.LVL40:
 457 002e 8442     		cmp	r4, r0
 458 0030 02D1     		bne	.L34
 459              		.loc 1 304 0 is_stmt 0
 460 0032 0123     		movs	r3, #1
 461 0034 9946     		mov	r9, r3
 462 0036 01E0     		b	.L26
 463              	.L34:
 464 0038 0023     		movs	r3, #0
 465 003a 9946     		mov	r9, r3
 466              	.L26:
 467              	.LVL41:
 468              	.LBB3:
 305:lib/widget.c  ****         
 306:lib/widget.c  ****     for(int i=0; i < menu->noOfDisplayButton; i++)
 469              		.loc 1 306 0 is_stmt 1 discriminator 4
 470 003c 0026     		movs	r6, #0
 471 003e 15E0     		b	.L27
 472              	.LVL42:
 473              	.L31:
 474              	.LBB4:
 307:lib/widget.c  ****     {
 308:lib/widget.c  ****         int j = i + menu->curPage * menu->noOfDisplayButton;
 475              		.loc 1 308 0
 476 0040 DA23     		movs	r3, #218
 477 0042 9B00     		lsls	r3, r3, #2
 478 0044 F85A     		ldrh	r0, [r7, r3]
 479 0046 4443     		muls	r4, r0
 480 0048 3419     		adds	r4, r6, r4
 481              	.LVL43:
 309:lib/widget.c  ****         
 310:lib/widget.c  ****         if(j >= menu->sizeOfList) break;
 482              		.loc 1 310 0
 483 004a 1B4B     		ldr	r3, .L38
 484 004c FB5A     		ldrh	r3, [r7, r3]
 485 004e 9C42     		cmp	r4, r3
 486 0050 11DA     		bge	.L28
 311:lib/widget.c  ****         
 312:lib/widget.c  ****         if(getClickedButton(tc,  &menu->btns[i]) == TRUE)
ARM GAS  C:\Users\luvsd\AppData\Local\Temp\cceWh3pe.s 			page 15


 487              		.loc 1 312 0
 488 0052 B101     		lsls	r1, r6, #6
 489 0054 A131     		adds	r1, r1, #161
 490 0056 FF31     		adds	r1, r1, #255
 491 0058 7918     		adds	r1, r7, r1
 492 005a 0431     		adds	r1, r1, #4
 493 005c 2800     		movs	r0, r5
 494 005e FFF7FEFF 		bl	getClickedButton
 495              	.LVL44:
 496 0062 0128     		cmp	r0, #1
 497 0064 01D1     		bne	.L29
 313:lib/widget.c  ****         {
 314:lib/widget.c  ****             return j;
 498              		.loc 1 314 0
 499 0066 A0B2     		uxth	r0, r4
 500 0068 22E0     		b	.L30
 501              	.L29:
 502              	.LBE4:
 306:lib/widget.c  ****     {
 503              		.loc 1 306 0 discriminator 2
 504 006a 0136     		adds	r6, r6, #1
 505              	.LVL45:
 506              	.L27:
 306:lib/widget.c  ****     {
 507              		.loc 1 306 0 is_stmt 0 discriminator 1
 508 006c B923     		movs	r3, #185
 509 006e 9B00     		lsls	r3, r3, #2
 510 0070 FC5A     		ldrh	r4, [r7, r3]
 511 0072 A642     		cmp	r6, r4
 512 0074 E4DB     		blt	.L31
 513              	.L28:
 514              	.LBE3:
 315:lib/widget.c  ****         }
 316:lib/widget.c  ****     }
 317:lib/widget.c  ****      
 318:lib/widget.c  ****     if(! bIsFirstPage) // 처음 페이지가 아니면 앞으로 이동 할 수 있음
 515              		.loc 1 318 0 is_stmt 1
 516 0076 4346     		mov	r3, r8
 517 0078 002B     		cmp	r3, #0
 518 007a 07D1     		bne	.L32
 319:lib/widget.c  ****     {
 320:lib/widget.c  ****         if(getClickedButton(tc,  &menu->upScroll) == TRUE) return IDX_SCROLL_UP;
 519              		.loc 1 320 0
 520 007c BA23     		movs	r3, #186
 521 007e 9B00     		lsls	r3, r3, #2
 522 0080 F918     		adds	r1, r7, r3
 523 0082 2800     		movs	r0, r5
 524 0084 FFF7FEFF 		bl	getClickedButton
 525              	.LVL46:
 526 0088 0128     		cmp	r0, #1
 527 008a 0CD0     		beq	.L35
 528              	.L32:
 321:lib/widget.c  ****     }
 322:lib/widget.c  ****     
 323:lib/widget.c  ****     if(!bIsLastPage) // 마지막 페이지가 아니면 뒤로 이동 할 수 있음
 529              		.loc 1 323 0
 530 008c 4B46     		mov	r3, r9
ARM GAS  C:\Users\luvsd\AppData\Local\Temp\cceWh3pe.s 			page 16


 531 008e 002B     		cmp	r3, #0
 532 0090 0BD1     		bne	.L36
 324:lib/widget.c  ****     {
 325:lib/widget.c  ****         if(getClickedButton(tc,  &menu->downScroll) == TRUE) return IDX_SCROLL_DOWN;        
 533              		.loc 1 325 0
 534 0092 CA23     		movs	r3, #202
 535 0094 9B00     		lsls	r3, r3, #2
 536 0096 F918     		adds	r1, r7, r3
 537 0098 2800     		movs	r0, r5
 538 009a FFF7FEFF 		bl	getClickedButton
 539              	.LVL47:
 540 009e 0128     		cmp	r0, #1
 541 00a0 05D1     		bne	.L37
 542 00a2 0630     		adds	r0, r0, #6
 543 00a4 04E0     		b	.L30
 544              	.L35:
 320:lib/widget.c  ****     }
 545              		.loc 1 320 0
 546 00a6 0620     		movs	r0, #6
 547 00a8 02E0     		b	.L30
 548              	.L36:
 326:lib/widget.c  ****     }
 327:lib/widget.c  ****         
 328:lib/widget.c  ****     return NO_CLICK;
 549              		.loc 1 328 0
 550 00aa FF20     		movs	r0, #255
 551 00ac 00E0     		b	.L30
 552              	.L37:
 553 00ae FF20     		movs	r0, #255
 554              	.L30:
 329:lib/widget.c  **** }
 555              		.loc 1 329 0
 556              		@ sp needed
 557              	.LVL48:
 558              	.LVL49:
 559              	.LVL50:
 560              	.LVL51:
 561              	.LVL52:
 562 00b0 0CBC     		pop	{r2, r3}
 563 00b2 9046     		mov	r8, r2
 564 00b4 9946     		mov	r9, r3
 565 00b6 F8BD     		pop	{r3, r4, r5, r6, r7, pc}
 566              	.L39:
 567              		.align	2
 568              	.L38:
 569 00b8 E6020000 		.word	742
 570              		.cfi_endproc
 571              	.LFE70:
 572              		.size	getIndexOfClickedListMenu, .-getIndexOfClickedListMenu
 573              		.global	__aeabi_i2d
 574              		.global	__aeabi_dmul
 575              		.global	__aeabi_d2uiz
 576              		.global	__aeabi_dadd
 577              		.section	.text.SetDrawScrollButton,"ax",%progbits
 578              		.align	2
 579              		.global	SetDrawScrollButton
 580              		.code	16
ARM GAS  C:\Users\luvsd\AppData\Local\Temp\cceWh3pe.s 			page 17


 581              		.thumb_func
 582              		.type	SetDrawScrollButton, %function
 583              	SetDrawScrollButton:
 584              	.LFB72:
 330:lib/widget.c  **** 
 331:lib/widget.c  **** /////////////////////////////////////////////////////////////////////////////////////////////////
 332:lib/widget.c  **** int doListMenu(void *this, uint8 reflash) ///////////////////////////////////////////////////////
 333:lib/widget.c  **** /////////////////////////////////////////////////////////////////////////////////////////////////
 334:lib/widget.c  **** {    
 335:lib/widget.c  ****     MENUNODE *thisMenu = (MENUNODE *) this;     
 336:lib/widget.c  ****     static uint16 noOfList;
 337:lib/widget.c  ****     switch(reflash)
 338:lib/widget.c  ****     {
 339:lib/widget.c  ****         case TRUE: // 화면이 바뀔때 실행
 340:lib/widget.c  ****             {
 341:lib/widget.c  ****                 noOfList = getNoOfChild(thisMenu);
 342:lib/widget.c  ****                 g_ListMenu.curPage = 0;
 343:lib/widget.c  ****                 SetDrawNodeListButtons(thisMenu, &g_ListMenu);
 344:lib/widget.c  ****                 UpdateDrawListButtons(&g_ListMenu,NO_SELECT);
 345:lib/widget.c  ****                 SetDrawBottomButtons("QUIT", NULL, BUTTON_STYLE_R_GREEN, BUTTON_STYLE_R_BLUE); 
 346:lib/widget.c  ****             }
 347:lib/widget.c  ****             break;  
 348:lib/widget.c  ****         
 349:lib/widget.c  ****         case FALSE: // Cliking Check
 350:lib/widget.c  ****             {
 351:lib/widget.c  ****                 TOUCH tc = GetTouch();
 352:lib/widget.c  ****                 if(tc.isClick == FALSE) break;
 353:lib/widget.c  ****                 
 354:lib/widget.c  ****                 uint16 idx = getIndexOfClickedListMenu(&tc, &g_ListMenu);
 355:lib/widget.c  ****                 
 356:lib/widget.c  ****                 switch(idx)
 357:lib/widget.c  ****                 {
 358:lib/widget.c  ****                     case IDX_SCROLL_UP:   g_ListMenu.curPage--;
 359:lib/widget.c  ****                           UpdateDrawListButtons(&g_ListMenu,NO_SELECT);
 360:lib/widget.c  ****                         break;
 361:lib/widget.c  ****                     case IDX_SCROLL_DOWN: g_ListMenu.curPage++;
 362:lib/widget.c  ****                           UpdateDrawListButtons(&g_ListMenu,NO_SELECT);                   
 363:lib/widget.c  ****                         break;
 364:lib/widget.c  ****                     case NO_CLICK :
 365:lib/widget.c  ****                         {
 366:lib/widget.c  ****                             switch(getIndexOfClickedButton(&tc,g_btnBottom,2))
 367:lib/widget.c  ****                             {
 368:lib/widget.c  ****                                 case BOTTOM_LEFT:  return MENU_RETURN_PARENT;
 369:lib/widget.c  ****                             //  case BOTTOM_RIGHT: return 1;                            
 370:lib/widget.c  ****                             }
 371:lib/widget.c  ****                             break;
 372:lib/widget.c  ****                         }
 373:lib/widget.c  ****                     default: 
 374:lib/widget.c  ****                         if(idx < noOfList) return idx;
 375:lib/widget.c  ****                 }                
 376:lib/widget.c  ****             }
 377:lib/widget.c  ****             break;
 378:lib/widget.c  ****     }
 379:lib/widget.c  ****     return MENU_RETURN_THIS;    
 380:lib/widget.c  **** }
 381:lib/widget.c  **** 
 382:lib/widget.c  **** 
ARM GAS  C:\Users\luvsd\AppData\Local\Temp\cceWh3pe.s 			page 18


 383:lib/widget.c  **** void SetDrawScrollButton(LIST_MENU *menu)
 384:lib/widget.c  **** {
 585              		.loc 1 384 0
 586              		.cfi_startproc
 587              		@ args = 0, pretend = 0, frame = 24
 588              		@ frame_needed = 0, uses_anonymous_args = 0
 589              	.LVL53:
 590 0000 F0B5     		push	{r4, r5, r6, r7, lr}
 591              		.cfi_def_cfa_offset 20
 592              		.cfi_offset 4, -20
 593              		.cfi_offset 5, -16
 594              		.cfi_offset 6, -12
 595              		.cfi_offset 7, -8
 596              		.cfi_offset 14, -4
 597 0002 87B0     		sub	sp, sp, #28
 598              		.cfi_def_cfa_offset 48
 599 0004 0400     		movs	r4, r0
 385:lib/widget.c  ****     RECT r = GetBodyArea();
 600              		.loc 1 385 0
 601 0006 04A8     		add	r0, sp, #16
 602              	.LVL54:
 603 0008 FFF7FEFF 		bl	GetBodyArea
 604              	.LVL55:
 386:lib/widget.c  ****    
 387:lib/widget.c  ****     menu->upScroll.rect.left     = g_SCREEN_WIDTH - 40;
 605              		.loc 1 387 0
 606 000c 294D     		ldr	r5, .L41
 607 000e 2B88     		ldrh	r3, [r5]
 608 0010 1900     		movs	r1, r3
 609 0012 2839     		subs	r1, r1, #40
 610 0014 BB22     		movs	r2, #187
 611 0016 9200     		lsls	r2, r2, #2
 612 0018 A152     		strh	r1, [r4, r2]
 388:lib/widget.c  ****     menu->upScroll.rect.right    = g_SCREEN_WIDTH -  1;    
 613              		.loc 1 388 0
 614 001a 013B     		subs	r3, r3, #1
 615 001c 264A     		ldr	r2, .L41+4
 616 001e A352     		strh	r3, [r4, r2]
 389:lib/widget.c  ****     menu->upScroll.rect.top      = r.top;  
 617              		.loc 1 389 0
 618 0020 04AB     		add	r3, sp, #16
 619 0022 9888     		ldrh	r0, [r3, #4]
 620 0024 BC23     		movs	r3, #188
 621 0026 9B00     		lsls	r3, r3, #2
 622 0028 E052     		strh	r0, [r4, r3]
 390:lib/widget.c  ****     menu->upScroll.rect.bottom   = (r.top + r.bottom)*.5;
 623              		.loc 1 390 0
 624 002a 04AB     		add	r3, sp, #16
 625 002c DE88     		ldrh	r6, [r3, #6]
 626 002e 8019     		adds	r0, r0, r6
 627 0030 FFF7FEFF 		bl	__aeabi_i2d
 628              	.LVL56:
 629 0034 0022     		movs	r2, #0
 630 0036 214B     		ldr	r3, .L41+8
 631 0038 FFF7FEFF 		bl	__aeabi_dmul
 632              	.LVL57:
 633 003c 0290     		str	r0, [sp, #8]
ARM GAS  C:\Users\luvsd\AppData\Local\Temp\cceWh3pe.s 			page 19


 634 003e 0391     		str	r1, [sp, #12]
 635 0040 FFF7FEFF 		bl	__aeabi_d2uiz
 636              	.LVL58:
 637 0044 1E4B     		ldr	r3, .L41+12
 638 0046 E052     		strh	r0, [r4, r3]
 391:lib/widget.c  ****     SetDefaultButtonStyle(&menu->upScroll);
 639              		.loc 1 391 0
 640 0048 0A3B     		subs	r3, r3, #10
 641 004a 9C46     		mov	ip, r3
 642 004c A444     		add	ip, ip, r4
 643 004e 6346     		mov	r3, ip
 644 0050 0193     		str	r3, [sp, #4]
 645 0052 6046     		mov	r0, ip
 646 0054 FFF7FEFF 		bl	SetDefaultButtonStyle
 647              	.LVL59:
 392:lib/widget.c  ****     menu->upScroll.image = &g_imageUpArrow;  
 648              		.loc 1 392 0
 649 0058 1A4F     		ldr	r7, .L41+16
 650 005a 3A00     		movs	r2, r7
 651 005c 0832     		adds	r2, r2, #8
 652 005e BA23     		movs	r3, #186
 653 0060 9B00     		lsls	r3, r3, #2
 654 0062 E250     		str	r2, [r4, r3]
 393:lib/widget.c  **** 
 394:lib/widget.c  ****     menu->downScroll.rect.left     = g_SCREEN_WIDTH - 40;
 655              		.loc 1 394 0
 656 0064 2B88     		ldrh	r3, [r5]
 657 0066 1900     		movs	r1, r3
 658 0068 2839     		subs	r1, r1, #40
 659 006a CB22     		movs	r2, #203
 660 006c 9200     		lsls	r2, r2, #2
 661 006e A152     		strh	r1, [r4, r2]
 395:lib/widget.c  ****     menu->downScroll.rect.right    = g_SCREEN_WIDTH -  1;    
 662              		.loc 1 395 0
 663 0070 013B     		subs	r3, r3, #1
 664 0072 154A     		ldr	r2, .L41+20
 665 0074 A352     		strh	r3, [r4, r2]
 396:lib/widget.c  ****     menu->downScroll.rect.top      = (r.top + r.bottom)*.5 + 1;
 666              		.loc 1 396 0
 667 0076 0022     		movs	r2, #0
 668 0078 144B     		ldr	r3, .L41+24
 669 007a 0298     		ldr	r0, [sp, #8]
 670 007c 0399     		ldr	r1, [sp, #12]
 671 007e FFF7FEFF 		bl	__aeabi_dadd
 672              	.LVL60:
 673 0082 FFF7FEFF 		bl	__aeabi_d2uiz
 674              	.LVL61:
 675 0086 CC23     		movs	r3, #204
 676 0088 9B00     		lsls	r3, r3, #2
 677 008a E052     		strh	r0, [r4, r3]
 397:lib/widget.c  ****     menu->downScroll.rect.bottom   = r.bottom;
 678              		.loc 1 397 0
 679 008c 104B     		ldr	r3, .L41+28
 680 008e E652     		strh	r6, [r4, r3]
 398:lib/widget.c  ****     SetDefaultButtonStyle(&menu->downScroll);
 681              		.loc 1 398 0
 682 0090 CA22     		movs	r2, #202
ARM GAS  C:\Users\luvsd\AppData\Local\Temp\cceWh3pe.s 			page 20


 683 0092 9200     		lsls	r2, r2, #2
 684 0094 A618     		adds	r6, r4, r2
 685 0096 3000     		movs	r0, r6
 686 0098 FFF7FEFF 		bl	SetDefaultButtonStyle
 687              	.LVL62:
 399:lib/widget.c  ****     menu->downScroll.image = &g_imageDownArrow;  
 688              		.loc 1 399 0
 689 009c 1037     		adds	r7, r7, #16
 690 009e CA22     		movs	r2, #202
 691 00a0 9200     		lsls	r2, r2, #2
 692 00a2 A750     		str	r7, [r4, r2]
 400:lib/widget.c  ****     
 401:lib/widget.c  ****     DrawButton(&menu->upScroll);
 693              		.loc 1 401 0
 694 00a4 0198     		ldr	r0, [sp, #4]
 695 00a6 FFF7FEFF 		bl	DrawButton
 696              	.LVL63:
 402:lib/widget.c  ****     DrawButton(&menu->downScroll);   
 697              		.loc 1 402 0
 698 00aa 3000     		movs	r0, r6
 699 00ac FFF7FEFF 		bl	DrawButton
 700              	.LVL64:
 403:lib/widget.c  ****     
 404:lib/widget.c  **** }
 701              		.loc 1 404 0
 702 00b0 07B0     		add	sp, sp, #28
 703              		@ sp needed
 704              	.LVL65:
 705              	.LVL66:
 706 00b2 F0BD     		pop	{r4, r5, r6, r7, pc}
 707              	.L42:
 708              		.align	2
 709              	.L41:
 710 00b4 00000000 		.word	g_SCREEN_WIDTH
 711 00b8 EE020000 		.word	750
 712 00bc 0000E03F 		.word	1071644672
 713 00c0 F2020000 		.word	754
 714 00c4 00000000 		.word	.LANCHOR0
 715 00c8 2E030000 		.word	814
 716 00cc 0000F03F 		.word	1072693248
 717 00d0 32030000 		.word	818
 718              		.cfi_endproc
 719              	.LFE72:
 720              		.size	SetDrawScrollButton, .-SetDrawScrollButton
 721              		.section	.text.EraseBlankArea,"ax",%progbits
 722              		.align	2
 723              		.global	EraseBlankArea
 724              		.code	16
 725              		.thumb_func
 726              		.type	EraseBlankArea, %function
 727              	EraseBlankArea:
 728              	.LFB75:
 405:lib/widget.c  **** 
 406:lib/widget.c  **** void DrawUpDownMenu(UP_DOWN_MENU *menu, char *title, char *remark, const char *fmt, ...)
 407:lib/widget.c  **** {
 408:lib/widget.c  ****     va_list ap;
 409:lib/widget.c  ****     char buff[20];
ARM GAS  C:\Users\luvsd\AppData\Local\Temp\cceWh3pe.s 			page 21


 410:lib/widget.c  ****     va_start(ap, fmt);
 411:lib/widget.c  ****     vsprintf(buff, fmt, ap);
 412:lib/widget.c  ****     va_end(ap);
 413:lib/widget.c  ****             
 414:lib/widget.c  ****     SetDefaultButtonStyleArray(menu->btn,2);
 415:lib/widget.c  ****     SetDefaultButtonStyle(&menu->btnMessage);
 416:lib/widget.c  ****     
 417:lib/widget.c  ****     uint16 yPos = DrawTitleButton(title,FALSE);
 418:lib/widget.c  ****     EraseBlankArea(yPos,FALSE);
 419:lib/widget.c  ****     
 420:lib/widget.c  ****     BUTTON *leftBtn = &menu->btn[0];
 421:lib/widget.c  ****     BUTTON *rightBtn = &menu->btn[1];
 422:lib/widget.c  **** 
 423:lib/widget.c  ****     SetButtonSize(leftBtn, 0,g_DEFAULT_BUTTON_HEIGHT,BUTTON_X_1_2,BUTTON_Y_HALF,FALSE);
 424:lib/widget.c  ****     SetButtonSize(rightBtn,0,g_DEFAULT_BUTTON_HEIGHT,BUTTON_X_2_2,BUTTON_Y_HALF,FALSE); 
 425:lib/widget.c  ****             
 426:lib/widget.c  ****     SetButtonText(&menu->btnMessage,buff);
 427:lib/widget.c  ****     DrawButton(&menu->btnMessage);
 428:lib/widget.c  ****     
 429:lib/widget.c  ****     BUTTON remarkBtn;
 430:lib/widget.c  ****     SetDefaultButtonStyle(&remarkBtn);
 431:lib/widget.c  ****     SetButtonStyleColor(&remarkBtn,BUTTON_STYLE_WHITE);
 432:lib/widget.c  ****     SetButtonSize(&remarkBtn,menu->btnMessage.rect.bottom+2,g_DEFAULT_BUTTON_HEIGHT,BUTTON_X_FULL,B
 433:lib/widget.c  **** 
 434:lib/widget.c  ****     SetButtonText(&remarkBtn,remark);
 435:lib/widget.c  ****     DrawButton(&remarkBtn);
 436:lib/widget.c  **** }
 437:lib/widget.c  **** 
 438:lib/widget.c  **** void SetDrawMonitoringMenu(MONITORING_MENU *menu, const char *title, ...)
 439:lib/widget.c  **** {
 440:lib/widget.c  ****     va_list ap;
 441:lib/widget.c  ****     char buff[20];
 442:lib/widget.c  ****     va_start(ap, title);
 443:lib/widget.c  ****     vsprintf(buff, title, ap);
 444:lib/widget.c  ****     va_end(ap);
 445:lib/widget.c  ****     
 446:lib/widget.c  ****     SetDefaultButtonStyleArray(menu->btn,7);
 447:lib/widget.c  ****     
 448:lib/widget.c  ****     BUTTON *btn;
 449:lib/widget.c  ****     
 450:lib/widget.c  ****     // title
 451:lib/widget.c  ****     btn = &menu->btn[0];
 452:lib/widget.c  ****     SetButtonSize(btn,0,g_DEFAULT_BUTTON_HEIGHT-3,BUTTON_X_FULL,BUTTON_Y_FIRST,FALSE);
 453:lib/widget.c  ****     SetButtonStyleColor(btn,BUTTON_STYLE_ORANGE);        
 454:lib/widget.c  ****     SetButtonText(btn, buff);
 455:lib/widget.c  ****     DrawButton(btn);
 456:lib/widget.c  ****     
 457:lib/widget.c  ****     EraseBlankArea(btn->rect.bottom+1,FALSE);    
 458:lib/widget.c  ****     
 459:lib/widget.c  ****     // first 
 460:lib/widget.c  ****     btn = &menu->btn[1];
 461:lib/widget.c  ****     SetButtonSize(btn,0,g_DEFAULT_BUTTON_HEIGHT, BUTTON_X_1_2, BUTTON_Y_2_4,FALSE);
 462:lib/widget.c  ****     SetButtonStyleColor(btn,BUTTON_STYLE_WHITE);
 463:lib/widget.c  ****     btn->align = TEXT_ALIGN_LEFT;
 464:lib/widget.c  ****     //SetButtonText(btn,first);    
 465:lib/widget.c  ****     //DrawButton(btn);
 466:lib/widget.c  ****     
ARM GAS  C:\Users\luvsd\AppData\Local\Temp\cceWh3pe.s 			page 22


 467:lib/widget.c  ****     // first value    
 468:lib/widget.c  ****     btn = &menu->btn[2];
 469:lib/widget.c  ****     SetButtonSize(btn,0,g_DEFAULT_BUTTON_HEIGHT, BUTTON_X_2_2, BUTTON_Y_2_4,FALSE);
 470:lib/widget.c  ****     SetButtonStyleColor(btn,BUTTON_STYLE_YELLOW);
 471:lib/widget.c  ****     btn->align = TEXT_ALIGN_RIGHT;
 472:lib/widget.c  ****    // SetButtonText(btn,"9999");    
 473:lib/widget.c  ****    // DrawButton(btn);
 474:lib/widget.c  ****     
 475:lib/widget.c  ****     // second 
 476:lib/widget.c  ****     btn = &menu->btn[3];
 477:lib/widget.c  ****     SetButtonSize(btn,0,g_DEFAULT_BUTTON_HEIGHT, BUTTON_X_1_2, BUTTON_Y_3_4,FALSE);
 478:lib/widget.c  ****     SetButtonStyleColor(btn,BUTTON_STYLE_WHITE);
 479:lib/widget.c  ****     btn->align = TEXT_ALIGN_LEFT;
 480:lib/widget.c  ****     //SetButtonText(btn,second);    
 481:lib/widget.c  ****     //DrawButton(btn);
 482:lib/widget.c  ****     
 483:lib/widget.c  ****     // second value    
 484:lib/widget.c  ****     btn = &menu->btn[4];
 485:lib/widget.c  ****     SetButtonSize(btn,0,g_DEFAULT_BUTTON_HEIGHT, BUTTON_X_2_2, BUTTON_Y_3_4,FALSE);
 486:lib/widget.c  ****     SetButtonStyleColor(btn,BUTTON_STYLE_YELLOW);
 487:lib/widget.c  ****     btn->align = TEXT_ALIGN_RIGHT;
 488:lib/widget.c  ****   //  SetButtonText(btn,"9999");    
 489:lib/widget.c  ****   //  DrawButton(btn);
 490:lib/widget.c  ****     
 491:lib/widget.c  ****     // third 
 492:lib/widget.c  ****     btn = &menu->btn[5];
 493:lib/widget.c  ****     SetButtonSize(btn,0,g_DEFAULT_BUTTON_HEIGHT, BUTTON_X_1_2, BUTTON_Y_4_4,FALSE);
 494:lib/widget.c  ****     SetButtonStyleColor(btn,BUTTON_STYLE_WHITE);
 495:lib/widget.c  ****     btn->align = TEXT_ALIGN_LEFT;
 496:lib/widget.c  ****     //SetButtonText(btn,third);    
 497:lib/widget.c  ****     //DrawButton(btn);
 498:lib/widget.c  ****     
 499:lib/widget.c  ****     // third value    
 500:lib/widget.c  ****     btn = &menu->btn[6];
 501:lib/widget.c  ****     SetButtonSize(btn,0,g_DEFAULT_BUTTON_HEIGHT, BUTTON_X_2_2, BUTTON_Y_4_4,FALSE);
 502:lib/widget.c  ****     SetButtonStyleColor(btn,BUTTON_STYLE_YELLOW);
 503:lib/widget.c  ****     btn->align = TEXT_ALIGN_RIGHT;
 504:lib/widget.c  ****  //   SetButtonText(btn,"999.9");    
 505:lib/widget.c  ****   //  DrawButton(btn);    
 506:lib/widget.c  **** }
 507:lib/widget.c  **** 
 508:lib/widget.c  **** void EraseBlankArea(uint16 y,uint8 withScroll)
 509:lib/widget.c  **** {
 729              		.loc 1 509 0
 730              		.cfi_startproc
 731              		@ args = 0, pretend = 0, frame = 16
 732              		@ frame_needed = 0, uses_anonymous_args = 0
 733              	.LVL67:
 734 0000 10B5     		push	{r4, lr}
 735              		.cfi_def_cfa_offset 8
 736              		.cfi_offset 4, -8
 737              		.cfi_offset 14, -4
 738 0002 84B0     		sub	sp, sp, #16
 739              		.cfi_def_cfa_offset 24
 510:lib/widget.c  ****     uint16 width = g_SCREEN_WIDTH;
 740              		.loc 1 510 0
 741 0004 0E4B     		ldr	r3, .L46
ARM GAS  C:\Users\luvsd\AppData\Local\Temp\cceWh3pe.s 			page 23


 742 0006 1B88     		ldrh	r3, [r3]
 743              	.LVL68:
 511:lib/widget.c  ****     
 512:lib/widget.c  ****     if(withScroll == TRUE) width -= 40;
 744              		.loc 1 512 0
 745 0008 0129     		cmp	r1, #1
 746 000a 01D1     		bne	.L44
 747              		.loc 1 512 0 is_stmt 0 discriminator 1
 748 000c 283B     		subs	r3, r3, #40
 749              	.LVL69:
 750 000e 9BB2     		uxth	r3, r3
 751              	.LVL70:
 752              	.L44:
 513:lib/widget.c  ****     
 514:lib/widget.c  ****     RECT blank;
 515:lib/widget.c  ****     blank.left = 0;
 753              		.loc 1 515 0 is_stmt 1
 754 0010 0022     		movs	r2, #0
 755 0012 6946     		mov	r1, sp
 756              	.LVL71:
 757 0014 0A80     		strh	r2, [r1]
 516:lib/widget.c  ****     blank.right = width-1;
 758              		.loc 1 516 0
 759 0016 013B     		subs	r3, r3, #1
 760              	.LVL72:
 761 0018 4B80     		strh	r3, [r1, #2]
 517:lib/widget.c  ****     blank.top = y;
 762              		.loc 1 517 0
 763 001a 8880     		strh	r0, [r1, #4]
 518:lib/widget.c  ****     blank.bottom = GetBodyArea().bottom;
 764              		.loc 1 518 0
 765 001c 02AC     		add	r4, sp, #8
 766 001e 2000     		movs	r0, r4
 767              	.LVL73:
 768 0020 FFF7FEFF 		bl	GetBodyArea
 769              	.LVL74:
 770 0024 E388     		ldrh	r3, [r4, #6]
 771 0026 6A46     		mov	r2, sp
 772 0028 D380     		strh	r3, [r2, #6]
 519:lib/widget.c  ****     
 520:lib/widget.c  ****     if(blank.bottom-blank.top > 1) FillRect(&blank,BLACK);        
 773              		.loc 1 520 0
 774 002a 9288     		ldrh	r2, [r2, #4]
 775 002c 9B1A     		subs	r3, r3, r2
 776 002e 012B     		cmp	r3, #1
 777 0030 03DD     		ble	.L43
 778              		.loc 1 520 0 is_stmt 0 discriminator 1
 779 0032 0021     		movs	r1, #0
 780 0034 6846     		mov	r0, sp
 781 0036 FFF7FEFF 		bl	FillRect
 782              	.LVL75:
 783              	.L43:
 521:lib/widget.c  **** }
 784              		.loc 1 521 0 is_stmt 1
 785 003a 04B0     		add	sp, sp, #16
 786              		@ sp needed
 787 003c 10BD     		pop	{r4, pc}
ARM GAS  C:\Users\luvsd\AppData\Local\Temp\cceWh3pe.s 			page 24


 788              	.L47:
 789 003e C046     		.align	2
 790              	.L46:
 791 0040 00000000 		.word	g_SCREEN_WIDTH
 792              		.cfi_endproc
 793              	.LFE75:
 794              		.size	EraseBlankArea, .-EraseBlankArea
 795              		.section	.text.SetDrawListButtons,"ax",%progbits
 796              		.align	2
 797              		.global	SetDrawListButtons
 798              		.code	16
 799              		.thumb_func
 800              		.type	SetDrawListButtons, %function
 801              	SetDrawListButtons:
 802              	.LFB67:
 148:lib/widget.c  ****     RECT bodyRect = GetBodyArea();
 803              		.loc 1 148 0
 804              		.cfi_startproc
 805              		@ args = 0, pretend = 0, frame = 8
 806              		@ frame_needed = 0, uses_anonymous_args = 0
 807              	.LVL76:
 808 0000 F0B5     		push	{r4, r5, r6, r7, lr}
 809              		.cfi_def_cfa_offset 20
 810              		.cfi_offset 4, -20
 811              		.cfi_offset 5, -16
 812              		.cfi_offset 6, -12
 813              		.cfi_offset 7, -8
 814              		.cfi_offset 14, -4
 815 0002 5746     		mov	r7, r10
 816 0004 4E46     		mov	r6, r9
 817 0006 4546     		mov	r5, r8
 818 0008 E0B4     		push	{r5, r6, r7}
 819              		.cfi_def_cfa_offset 32
 820              		.cfi_offset 8, -32
 821              		.cfi_offset 9, -28
 822              		.cfi_offset 10, -24
 823 000a 84B0     		sub	sp, sp, #16
 824              		.cfi_def_cfa_offset 48
 825 000c 0400     		movs	r4, r0
 826 000e 0D00     		movs	r5, r1
 827 0010 9146     		mov	r9, r2
 828 0012 1F00     		movs	r7, r3
 149:lib/widget.c  ****     uint16 yPos = bodyRect.top;
 829              		.loc 1 149 0
 830 0014 02AE     		add	r6, sp, #8
 831 0016 3000     		movs	r0, r6
 832              	.LVL77:
 833 0018 FFF7FEFF 		bl	GetBodyArea
 834              	.LVL78:
 150:lib/widget.c  ****     uint16 yPosTitle;
 835              		.loc 1 150 0
 836 001c B688     		ldrh	r6, [r6, #4]
 837              	.LVL79:
 153:lib/widget.c  **** 
 838              		.loc 1 153 0
 839 001e FFF7FEFF 		bl	getMaxNoOfItemInListButton
 840              	.LVL80:
ARM GAS  C:\Users\luvsd\AppData\Local\Temp\cceWh3pe.s 			page 25


 841 0022 B923     		movs	r3, #185
 842 0024 9B00     		lsls	r3, r3, #2
 843 0026 E052     		strh	r0, [r4, r3]
 155:lib/widget.c  ****    
 844              		.loc 1 155 0
 845 0028 002D     		cmp	r5, #0
 846 002a 01D0     		beq	.L49
 155:lib/widget.c  ****    
 847              		.loc 1 155 0 is_stmt 0 discriminator 1
 848 002c 0138     		subs	r0, r0, #1
 849 002e E052     		strh	r0, [r4, r3]
 850              	.L49:
 157:lib/widget.c  ****     strcpy(menu->title,title);
 851              		.loc 1 157 0 is_stmt 1
 852 0030 374B     		ldr	r3, .L58
 853 0032 E752     		strh	r7, [r4, r3]
 158:lib/widget.c  ****   //  menu->listText = textArray;
 854              		.loc 1 158 0
 855 0034 2900     		movs	r1, r5
 856 0036 2000     		movs	r0, r4
 857 0038 FFF7FEFF 		bl	strcpy
 858              	.LVL81:
 161:lib/widget.c  ****     
 859              		.loc 1 161 0
 860 003c 2000     		movs	r0, r4
 861 003e FFF7FEFF 		bl	isExistScroll
 862              	.LVL82:
 863 0042 0100     		movs	r1, r0
 864 0044 8046     		mov	r8, r0
 865              	.LVL83:
 163:lib/widget.c  ****       
 866              		.loc 1 163 0
 867 0046 2800     		movs	r0, r5
 868 0048 FFF7FEFF 		bl	DrawTitleButton
 869              	.LVL84:
 870 004c 071E     		subs	r7, r0, #0
 871              	.LVL85:
 872 004e 00D1     		bne	.L50
 150:lib/widget.c  ****     uint16 yPosTitle;
 873              		.loc 1 150 0
 874 0050 3700     		movs	r7, r6
 875              	.L50:
 876              	.LVL86:
 165:lib/widget.c  ****         for(int i=0; i < menu->noOfDisplayButton; i++)
 877              		.loc 1 165 0
 878 0052 4B46     		mov	r3, r9
 879 0054 002B     		cmp	r3, #0
 880 0056 43D1     		bne	.L56
 881              	.LVL87:
 882 0058 49E0     		b	.L57
 883              	.LVL88:
 884              	.L54:
 885              	.LBB5:
 886              	.LBB6:
 168:lib/widget.c  ****             SetDefaultButtonStyle(btn);     
 887              		.loc 1 168 0
 888 005a B301     		lsls	r3, r6, #6
ARM GAS  C:\Users\luvsd\AppData\Local\Temp\cceWh3pe.s 			page 26


 889 005c 9A46     		mov	r10, r3
 890 005e 1D00     		movs	r5, r3
 891 0060 A135     		adds	r5, r5, #161
 892 0062 FF35     		adds	r5, r5, #255
 893 0064 6519     		adds	r5, r4, r5
 894 0066 0435     		adds	r5, r5, #4
 895              	.LVL89:
 169:lib/widget.c  ****             SetButtonStyleColor(btn, BUTTON_STYLE_LIST);        
 896              		.loc 1 169 0
 897 0068 2800     		movs	r0, r5
 898 006a FFF7FEFF 		bl	SetDefaultButtonStyle
 899              	.LVL90:
 170:lib/widget.c  ****             SetButtonSize      (btn, yPos, g_DEFAULT_BUTTON_HEIGHT, BUTTON_X_FULL, BUTTON_Y,withScr
 900              		.loc 1 170 0
 901 006e 0021     		movs	r1, #0
 902 0070 2800     		movs	r0, r5
 903 0072 FFF7FEFF 		bl	SetButtonStyleColor
 904              	.LVL91:
 171:lib/widget.c  ****             btn->align = TEXT_ALIGN_LEFT;
 905              		.loc 1 171 0
 906 0076 274B     		ldr	r3, .L58+4
 907 0078 1A88     		ldrh	r2, [r3]
 908 007a 4346     		mov	r3, r8
 909 007c 0193     		str	r3, [sp, #4]
 910 007e 0B23     		movs	r3, #11
 911 0080 0093     		str	r3, [sp]
 912 0082 0A3B     		subs	r3, r3, #10
 913 0084 3900     		movs	r1, r7
 914 0086 2800     		movs	r0, r5
 915 0088 FFF7FEFF 		bl	SetButtonSize
 916              	.LVL92:
 172:lib/widget.c  ****             
 917              		.loc 1 172 0
 918 008c 5346     		mov	r3, r10
 919 008e E318     		adds	r3, r4, r3
 920 0090 DF33     		adds	r3, r3, #223
 921 0092 FF33     		adds	r3, r3, #255
 922 0094 0122     		movs	r2, #1
 923 0096 1A70     		strb	r2, [r3]
 174:lib/widget.c  ****             if(textIdx >= menu->sizeOfList) break;
 924              		.loc 1 174 0
 925 0098 B923     		movs	r3, #185
 926 009a 9B00     		lsls	r3, r3, #2
 927 009c E25A     		ldrh	r2, [r4, r3]
 928 009e 8433     		adds	r3, r3, #132
 929 00a0 E35A     		ldrh	r3, [r4, r3]
 930 00a2 5343     		muls	r3, r2
 931 00a4 9B19     		adds	r3, r3, r6
 932 00a6 9BB2     		uxth	r3, r3
 933              	.LVL93:
 175:lib/widget.c  ****          
 934              		.loc 1 175 0
 935 00a8 194A     		ldr	r2, .L58
 936 00aa A25A     		ldrh	r2, [r4, r2]
 937 00ac 9342     		cmp	r3, r2
 938 00ae 22D2     		bcs	.L53
 177:lib/widget.c  ****             strcpy(btn->text,textArray[textIdx]);        
ARM GAS  C:\Users\luvsd\AppData\Local\Temp\cceWh3pe.s 			page 27


 939              		.loc 1 177 0 discriminator 2
 940 00b0 9D00     		lsls	r5, r3, #2
 941              	.LVL94:
 942 00b2 EB18     		adds	r3, r5, r3
 943              	.LVL95:
 944 00b4 9800     		lsls	r0, r3, #2
 945 00b6 1030     		adds	r0, r0, #16
 946 00b8 2018     		adds	r0, r4, r0
 947 00ba 0430     		adds	r0, r0, #4
 948 00bc 4D44     		add	r5, r5, r9
 949 00be 2968     		ldr	r1, [r5]
 950 00c0 FFF7FEFF 		bl	strcpy
 951              	.LVL96:
 178:lib/widget.c  ****             yPos += g_DEFAULT_BUTTON_HEIGHT;
 952              		.loc 1 178 0 discriminator 2
 953 00c4 5046     		mov	r0, r10
 954 00c6 A930     		adds	r0, r0, #169
 955 00c8 FF30     		adds	r0, r0, #255
 956 00ca 2018     		adds	r0, r4, r0
 957 00cc 0830     		adds	r0, r0, #8
 958 00ce 2968     		ldr	r1, [r5]
 959 00d0 FFF7FEFF 		bl	strcpy
 960              	.LVL97:
 179:lib/widget.c  ****            // DrawButton(btn);
 961              		.loc 1 179 0 discriminator 2
 962 00d4 0F4B     		ldr	r3, .L58+4
 963 00d6 1888     		ldrh	r0, [r3]
 964 00d8 3F18     		adds	r7, r7, r0
 965              	.LVL98:
 966 00da BFB2     		uxth	r7, r7
 967              	.LVL99:
 968              	.LBE6:
 166:lib/widget.c  ****         {                        
 969              		.loc 1 166 0 discriminator 2
 970 00dc 0136     		adds	r6, r6, #1
 971              	.LVL100:
 972 00de 00E0     		b	.L51
 973              	.LVL101:
 974              	.L56:
 975              	.LBE5:
 976 00e0 0026     		movs	r6, #0
 977              	.LVL102:
 978              	.L51:
 979              	.LBB7:
 166:lib/widget.c  ****         {                        
 980              		.loc 1 166 0 is_stmt 0 discriminator 1
 981 00e2 B923     		movs	r3, #185
 982 00e4 9B00     		lsls	r3, r3, #2
 983 00e6 E35A     		ldrh	r3, [r4, r3]
 984 00e8 9E42     		cmp	r6, r3
 985 00ea B6DB     		blt	.L54
 986 00ec 03E0     		b	.L53
 987              	.LVL103:
 988              	.L57:
 989              	.LBE7:
 184:lib/widget.c  ****         }
 990              		.loc 1 184 0 is_stmt 1
ARM GAS  C:\Users\luvsd\AppData\Local\Temp\cceWh3pe.s 			page 28


 991 00ee 0021     		movs	r1, #0
 992 00f0 3800     		movs	r0, r7
 993              	.LVL104:
 994 00f2 FFF7FEFF 		bl	EraseBlankArea
 995              	.LVL105:
 996              	.L53:
 187:lib/widget.c  **** }
 997              		.loc 1 187 0
 998 00f6 4346     		mov	r3, r8
 999 00f8 002B     		cmp	r3, #0
 1000 00fa 02D0     		beq	.L48
 187:lib/widget.c  **** }
 1001              		.loc 1 187 0 is_stmt 0 discriminator 1
 1002 00fc 2000     		movs	r0, r4
 1003 00fe FFF7FEFF 		bl	SetDrawScrollButton
 1004              	.LVL106:
 1005              	.L48:
 188:lib/widget.c  **** 
 1006              		.loc 1 188 0 is_stmt 1
 1007 0102 04B0     		add	sp, sp, #16
 1008              		@ sp needed
 1009              	.LVL107:
 1010              	.LVL108:
 1011              	.LVL109:
 1012 0104 1CBC     		pop	{r2, r3, r4}
 1013 0106 9046     		mov	r8, r2
 1014 0108 9946     		mov	r9, r3
 1015 010a A246     		mov	r10, r4
 1016 010c F0BD     		pop	{r4, r5, r6, r7, pc}
 1017              	.L59:
 1018 010e C046     		.align	2
 1019              	.L58:
 1020 0110 E6020000 		.word	742
 1021 0114 00000000 		.word	g_DEFAULT_BUTTON_HEIGHT
 1022              		.cfi_endproc
 1023              	.LFE67:
 1024              		.size	SetDrawListButtons, .-SetDrawListButtons
 1025              		.section	.text.SetDrawNodeListButtons,"ax",%progbits
 1026              		.align	2
 1027              		.global	SetDrawNodeListButtons
 1028              		.code	16
 1029              		.thumb_func
 1030              		.type	SetDrawNodeListButtons, %function
 1031              	SetDrawNodeListButtons:
 1032              	.LFB68:
 191:lib/widget.c  ****     RECT bodyRect = GetBodyArea();
 1033              		.loc 1 191 0
 1034              		.cfi_startproc
 1035              		@ args = 0, pretend = 0, frame = 16
 1036              		@ frame_needed = 0, uses_anonymous_args = 0
 1037              	.LVL110:
 1038 0000 F0B5     		push	{r4, r5, r6, r7, lr}
 1039              		.cfi_def_cfa_offset 20
 1040              		.cfi_offset 4, -20
 1041              		.cfi_offset 5, -16
 1042              		.cfi_offset 6, -12
 1043              		.cfi_offset 7, -8
ARM GAS  C:\Users\luvsd\AppData\Local\Temp\cceWh3pe.s 			page 29


 1044              		.cfi_offset 14, -4
 1045 0002 4F46     		mov	r7, r9
 1046 0004 4646     		mov	r6, r8
 1047 0006 C0B4     		push	{r6, r7}
 1048              		.cfi_def_cfa_offset 28
 1049              		.cfi_offset 8, -28
 1050              		.cfi_offset 9, -24
 1051 0008 87B0     		sub	sp, sp, #28
 1052              		.cfi_def_cfa_offset 56
 1053 000a 0500     		movs	r5, r0
 1054 000c 0290     		str	r0, [sp, #8]
 1055 000e 0C00     		movs	r4, r1
 192:lib/widget.c  ****     uint16 yPos = bodyRect.top;
 1056              		.loc 1 192 0
 1057 0010 04AE     		add	r6, sp, #16
 1058 0012 3000     		movs	r0, r6
 1059              	.LVL111:
 1060 0014 FFF7FEFF 		bl	GetBodyArea
 1061              	.LVL112:
 193:lib/widget.c  ****     uint16 yPosTitle;
 1062              		.loc 1 193 0
 1063 0018 B688     		ldrh	r6, [r6, #4]
 1064              	.LVL113:
 196:lib/widget.c  ****    
 1065              		.loc 1 196 0
 1066 001a FFF7FEFF 		bl	getMaxNoOfItemInListButton
 1067              	.LVL114:
 1068 001e 0138     		subs	r0, r0, #1
 1069 0020 B923     		movs	r3, #185
 1070 0022 9B00     		lsls	r3, r3, #2
 1071 0024 E052     		strh	r0, [r4, r3]
 198:lib/widget.c  ****     strcpy(menu->title,parent->nodeName);
 1072              		.loc 1 198 0
 1073 0026 2800     		movs	r0, r5
 1074 0028 FFF7FEFF 		bl	getNoOfChild
 1075              	.LVL115:
 1076 002c 404B     		ldr	r3, .L71
 1077 002e E052     		strh	r0, [r4, r3]
 199:lib/widget.c  ****     
 1078              		.loc 1 199 0
 1079 0030 2900     		movs	r1, r5
 1080 0032 1031     		adds	r1, r1, #16
 1081 0034 2000     		movs	r0, r4
 1082 0036 FFF7FEFF 		bl	strcpy
 1083              	.LVL116:
 201:lib/widget.c  ****     
 1084              		.loc 1 201 0
 1085 003a 2000     		movs	r0, r4
 1086 003c FFF7FEFF 		bl	isExistScroll
 1087              	.LVL117:
 1088 0040 0100     		movs	r1, r0
 1089 0042 8046     		mov	r8, r0
 1090              	.LVL118:
 203:lib/widget.c  ****       
 1091              		.loc 1 203 0
 1092 0044 2000     		movs	r0, r4
 1093 0046 FFF7FEFF 		bl	DrawTitleButton
ARM GAS  C:\Users\luvsd\AppData\Local\Temp\cceWh3pe.s 			page 30


 1094              	.LVL119:
 1095 004a 071E     		subs	r7, r0, #0
 1096              	.LVL120:
 1097 004c 00D1     		bne	.L61
 193:lib/widget.c  ****     uint16 yPosTitle;
 1098              		.loc 1 193 0
 1099 004e 3700     		movs	r7, r6
 1100              	.L61:
 1101              	.LVL121:
 205:lib/widget.c  ****     {
 1102              		.loc 1 205 0
 1103 0050 029B     		ldr	r3, [sp, #8]
 1104 0052 5B68     		ldr	r3, [r3, #4]
 1105 0054 0393     		str	r3, [sp, #12]
 1106 0056 002B     		cmp	r3, #0
 1107 0058 11D1     		bne	.L69
 1108 005a 5AE0     		b	.L70
 1109              	.LVL122:
 1110              	.L64:
 1111              	.LBB8:
 209:lib/widget.c  ****         }
 1112              		.loc 1 209 0 discriminator 3
 1113 005c AB00     		lsls	r3, r5, #2
 1114 005e 5B19     		adds	r3, r3, r5
 1115 0060 9800     		lsls	r0, r3, #2
 1116 0062 1030     		adds	r0, r0, #16
 1117 0064 2018     		adds	r0, r4, r0
 1118 0066 061D     		adds	r6, r0, #4
 1119 0068 2900     		movs	r1, r5
 1120 006a 0298     		ldr	r0, [sp, #8]
 1121 006c FFF7FEFF 		bl	getNthChild
 1122              	.LVL123:
 1123 0070 0100     		movs	r1, r0
 1124 0072 1031     		adds	r1, r1, #16
 1125 0074 3000     		movs	r0, r6
 1126 0076 FFF7FEFF 		bl	strcpy
 1127              	.LVL124:
 207:lib/widget.c  ****         {  
 1128              		.loc 1 207 0 discriminator 3
 1129 007a 0135     		adds	r5, r5, #1
 1130              	.LVL125:
 1131 007c 00E0     		b	.L62
 1132              	.LVL126:
 1133              	.L69:
 1134              	.LBE8:
 1135 007e 0025     		movs	r5, #0
 1136              	.LVL127:
 1137              	.L62:
 1138              	.LBB9:
 207:lib/widget.c  ****         {  
 1139              		.loc 1 207 0 is_stmt 0 discriminator 1
 1140 0080 2B4B     		ldr	r3, .L71
 1141 0082 E35A     		ldrh	r3, [r4, r3]
 1142 0084 9D42     		cmp	r5, r3
 1143 0086 E9DB     		blt	.L64
 1144 0088 0026     		movs	r6, #0
 1145 008a 3CE0     		b	.L65
ARM GAS  C:\Users\luvsd\AppData\Local\Temp\cceWh3pe.s 			page 31


 1146              	.LVL128:
 1147              	.L67:
 1148              	.LBE9:
 1149              	.LBB10:
 1150              	.LBB11:
 214:lib/widget.c  ****             SetDefaultButtonStyle(btn);     
 1151              		.loc 1 214 0 is_stmt 1
 1152 008c B301     		lsls	r3, r6, #6
 1153 008e 9946     		mov	r9, r3
 1154 0090 1D00     		movs	r5, r3
 1155 0092 A135     		adds	r5, r5, #161
 1156 0094 FF35     		adds	r5, r5, #255
 1157 0096 6519     		adds	r5, r4, r5
 1158 0098 0435     		adds	r5, r5, #4
 1159              	.LVL129:
 215:lib/widget.c  ****             SetButtonStyleColor(btn, BUTTON_STYLE_LIST);        
 1160              		.loc 1 215 0
 1161 009a 2800     		movs	r0, r5
 1162 009c FFF7FEFF 		bl	SetDefaultButtonStyle
 1163              	.LVL130:
 216:lib/widget.c  ****             SetButtonSize      (btn, yPos, g_DEFAULT_BUTTON_HEIGHT, BUTTON_X_FULL, BUTTON_Y,withScr
 1164              		.loc 1 216 0
 1165 00a0 0021     		movs	r1, #0
 1166 00a2 2800     		movs	r0, r5
 1167 00a4 FFF7FEFF 		bl	SetButtonStyleColor
 1168              	.LVL131:
 217:lib/widget.c  ****             btn->align = TEXT_ALIGN_LEFT;
 1169              		.loc 1 217 0
 1170 00a8 224B     		ldr	r3, .L71+4
 1171 00aa 1A88     		ldrh	r2, [r3]
 1172 00ac 4346     		mov	r3, r8
 1173 00ae 0193     		str	r3, [sp, #4]
 1174 00b0 0B23     		movs	r3, #11
 1175 00b2 0093     		str	r3, [sp]
 1176 00b4 0A3B     		subs	r3, r3, #10
 1177 00b6 3900     		movs	r1, r7
 1178 00b8 2800     		movs	r0, r5
 1179 00ba FFF7FEFF 		bl	SetButtonSize
 1180              	.LVL132:
 218:lib/widget.c  ****             
 1181              		.loc 1 218 0
 1182 00be 4B46     		mov	r3, r9
 1183 00c0 E318     		adds	r3, r4, r3
 1184 00c2 DF33     		adds	r3, r3, #223
 1185 00c4 FF33     		adds	r3, r3, #255
 1186 00c6 0122     		movs	r2, #1
 1187 00c8 1A70     		strb	r2, [r3]
 220:lib/widget.c  ****             if(textIdx >= menu->sizeOfList) break;
 1188              		.loc 1 220 0
 1189 00ca B923     		movs	r3, #185
 1190 00cc 9B00     		lsls	r3, r3, #2
 1191 00ce E25A     		ldrh	r2, [r4, r3]
 1192 00d0 8433     		adds	r3, r3, #132
 1193 00d2 E35A     		ldrh	r3, [r4, r3]
 1194 00d4 5343     		muls	r3, r2
 1195 00d6 9B19     		adds	r3, r3, r6
 1196 00d8 9BB2     		uxth	r3, r3
ARM GAS  C:\Users\luvsd\AppData\Local\Temp\cceWh3pe.s 			page 32


 1197              	.LVL133:
 221:lib/widget.c  ****             
 1198              		.loc 1 221 0
 1199 00da 154A     		ldr	r2, .L71
 1200 00dc A25A     		ldrh	r2, [r4, r2]
 1201 00de 9342     		cmp	r3, r2
 1202 00e0 1BD2     		bcs	.L66
 223:lib/widget.c  ****             yPos += g_DEFAULT_BUTTON_HEIGHT;
 1203              		.loc 1 223 0 discriminator 2
 1204 00e2 4846     		mov	r0, r9
 1205 00e4 A930     		adds	r0, r0, #169
 1206 00e6 FF30     		adds	r0, r0, #255
 1207 00e8 2018     		adds	r0, r4, r0
 1208 00ea 0830     		adds	r0, r0, #8
 1209 00ec 9A00     		lsls	r2, r3, #2
 1210 00ee D318     		adds	r3, r2, r3
 1211              	.LVL134:
 1212 00f0 9900     		lsls	r1, r3, #2
 1213 00f2 1031     		adds	r1, r1, #16
 1214 00f4 6118     		adds	r1, r4, r1
 1215 00f6 0431     		adds	r1, r1, #4
 1216 00f8 FFF7FEFF 		bl	strcpy
 1217              	.LVL135:
 224:lib/widget.c  ****         }
 1218              		.loc 1 224 0 discriminator 2
 1219 00fc 0D4B     		ldr	r3, .L71+4
 1220 00fe 1888     		ldrh	r0, [r3]
 1221 0100 3F18     		adds	r7, r7, r0
 1222              	.LVL136:
 1223 0102 BFB2     		uxth	r7, r7
 1224              	.LVL137:
 1225              	.LBE11:
 212:lib/widget.c  ****         {                        
 1226              		.loc 1 212 0 discriminator 2
 1227 0104 0136     		adds	r6, r6, #1
 1228              	.LVL138:
 1229              	.L65:
 212:lib/widget.c  ****         {                        
 1230              		.loc 1 212 0 is_stmt 0 discriminator 1
 1231 0106 B923     		movs	r3, #185
 1232 0108 9B00     		lsls	r3, r3, #2
 1233 010a E35A     		ldrh	r3, [r4, r3]
 1234 010c 9E42     		cmp	r6, r3
 1235 010e BDDB     		blt	.L67
 1236 0110 03E0     		b	.L66
 1237              	.LVL139:
 1238              	.L70:
 1239              	.LBE10:
 229:lib/widget.c  ****         }
 1240              		.loc 1 229 0 is_stmt 1
 1241 0112 0021     		movs	r1, #0
 1242 0114 3800     		movs	r0, r7
 1243              	.LVL140:
 1244 0116 FFF7FEFF 		bl	EraseBlankArea
 1245              	.LVL141:
 1246              	.L66:
 232:lib/widget.c  **** }
ARM GAS  C:\Users\luvsd\AppData\Local\Temp\cceWh3pe.s 			page 33


 1247              		.loc 1 232 0
 1248 011a 4346     		mov	r3, r8
 1249 011c 002B     		cmp	r3, #0
 1250 011e 02D0     		beq	.L60
 232:lib/widget.c  **** }
 1251              		.loc 1 232 0 is_stmt 0 discriminator 1
 1252 0120 2000     		movs	r0, r4
 1253 0122 FFF7FEFF 		bl	SetDrawScrollButton
 1254              	.LVL142:
 1255              	.L60:
 233:lib/widget.c  **** //
 1256              		.loc 1 233 0 is_stmt 1
 1257 0126 07B0     		add	sp, sp, #28
 1258              		@ sp needed
 1259              	.LVL143:
 1260              	.LVL144:
 1261 0128 0CBC     		pop	{r2, r3}
 1262 012a 9046     		mov	r8, r2
 1263 012c 9946     		mov	r9, r3
 1264 012e F0BD     		pop	{r4, r5, r6, r7, pc}
 1265              	.L72:
 1266              		.align	2
 1267              	.L71:
 1268 0130 E6020000 		.word	742
 1269 0134 00000000 		.word	g_DEFAULT_BUTTON_HEIGHT
 1270              		.cfi_endproc
 1271              	.LFE68:
 1272              		.size	SetDrawNodeListButtons, .-SetDrawNodeListButtons
 1273              		.section	.text.UpdateDrawListButtons,"ax",%progbits
 1274              		.align	2
 1275              		.global	UpdateDrawListButtons
 1276              		.code	16
 1277              		.thumb_func
 1278              		.type	UpdateDrawListButtons, %function
 1279              	UpdateDrawListButtons:
 1280              	.LFB69:
 275:lib/widget.c  ****     uint16 yPos;    
 1281              		.loc 1 275 0
 1282              		.cfi_startproc
 1283              		@ args = 0, pretend = 0, frame = 32
 1284              		@ frame_needed = 0, uses_anonymous_args = 0
 1285              	.LVL145:
 1286 0000 F0B5     		push	{r4, r5, r6, r7, lr}
 1287              		.cfi_def_cfa_offset 20
 1288              		.cfi_offset 4, -20
 1289              		.cfi_offset 5, -16
 1290              		.cfi_offset 6, -12
 1291              		.cfi_offset 7, -8
 1292              		.cfi_offset 14, -4
 1293 0002 89B0     		sub	sp, sp, #36
 1294              		.cfi_def_cfa_offset 56
 1295 0004 0500     		movs	r5, r0
 1296 0006 0F00     		movs	r7, r1
 1297              	.LVL146:
 1298              	.LBB12:
 278:lib/widget.c  ****     {                        
 1299              		.loc 1 278 0
ARM GAS  C:\Users\luvsd\AppData\Local\Temp\cceWh3pe.s 			page 34


 1300 0008 0026     		movs	r6, #0
 1301 000a 3DE0     		b	.L74
 1302              	.LVL147:
 1303              	.L79:
 1304              	.LBB13:
 280:lib/widget.c  ****         if(j >= menu->sizeOfList) break;
 1305              		.loc 1 280 0
 1306 000c DA22     		movs	r2, #218
 1307 000e 9200     		lsls	r2, r2, #2
 1308 0010 AA5A     		ldrh	r2, [r5, r2]
 1309 0012 5343     		muls	r3, r2
 1310 0014 F318     		adds	r3, r6, r3
 1311              	.LVL148:
 281:lib/widget.c  ****         
 1312              		.loc 1 281 0
 1313 0016 234A     		ldr	r2, .L81
 1314 0018 AA5A     		ldrh	r2, [r5, r2]
 1315 001a 9342     		cmp	r3, r2
 1316 001c 39DA     		bge	.L75
 283:lib/widget.c  ****         
 1317              		.loc 1 283 0
 1318 001e B401     		lsls	r4, r6, #6
 1319              	.LVL149:
 1320 0020 A134     		adds	r4, r4, #161
 1321 0022 FF34     		adds	r4, r4, #255
 1322 0024 2C19     		adds	r4, r5, r4
 1323 0026 0434     		adds	r4, r4, #4
 1324              	.LVL150:
 285:lib/widget.c  ****         {
 1325              		.loc 1 285 0
 1326 0028 1F4A     		ldr	r2, .L81+4
 1327 002a 9742     		cmp	r7, r2
 1328 002c 18D0     		beq	.L76
 1329              	.LBB14:
 288:lib/widget.c  ****             strcpy(btn->text,buff);              
 1330              		.loc 1 288 0
 1331 002e BB42     		cmp	r3, r7
 1332 0030 01D1     		bne	.L80
 1333 0032 3E22     		movs	r2, #62
 1334 0034 00E0     		b	.L77
 1335              	.L80:
 1336 0036 2022     		movs	r2, #32
 1337              	.L77:
 288:lib/widget.c  ****             strcpy(btn->text,buff);              
 1338              		.loc 1 288 0 is_stmt 0 discriminator 4
 1339 0038 9900     		lsls	r1, r3, #2
 1340 003a CB18     		adds	r3, r1, r3
 1341              	.LVL151:
 1342 003c 9900     		lsls	r1, r3, #2
 1343 003e 0B00     		movs	r3, r1
 1344 0040 1033     		adds	r3, r3, #16
 1345 0042 E918     		adds	r1, r5, r3
 1346 0044 0B1D     		adds	r3, r1, #4
 1347 0046 1949     		ldr	r1, .L81+8
 1348 0048 6846     		mov	r0, sp
 1349 004a FFF7FEFF 		bl	sprintf
 1350              	.LVL152:
ARM GAS  C:\Users\luvsd\AppData\Local\Temp\cceWh3pe.s 			page 35


 289:lib/widget.c  ****         } else {
 1351              		.loc 1 289 0 is_stmt 1 discriminator 4
 1352 004e B001     		lsls	r0, r6, #6
 1353 0050 A930     		adds	r0, r0, #169
 1354 0052 FF30     		adds	r0, r0, #255
 1355 0054 2818     		adds	r0, r5, r0
 1356 0056 0830     		adds	r0, r0, #8
 1357 0058 6946     		mov	r1, sp
 1358 005a FFF7FEFF 		bl	strcpy
 1359              	.LVL153:
 1360              	.LBE14:
 1361 005e 08E0     		b	.L78
 1362              	.LVL154:
 1363              	.L76:
 291:lib/widget.c  ****         }
 1364              		.loc 1 291 0
 1365 0060 9A00     		lsls	r2, r3, #2
 1366 0062 D318     		adds	r3, r2, r3
 1367              	.LVL155:
 1368 0064 9A00     		lsls	r2, r3, #2
 1369 0066 1032     		adds	r2, r2, #16
 1370 0068 AA18     		adds	r2, r5, r2
 1371 006a 111D     		adds	r1, r2, #4
 1372 006c 2000     		movs	r0, r4
 1373 006e FFF7FEFF 		bl	SetButtonText
 1374              	.LVL156:
 1375              	.L78:
 294:lib/widget.c  ****         yPos = btn->rect.bottom + 1;
 1376              		.loc 1 294 0 discriminator 2
 1377 0072 2000     		movs	r0, r4
 1378 0074 FFF7FEFF 		bl	DrawButton
 1379              	.LVL157:
 295:lib/widget.c  ****     }
 1380              		.loc 1 295 0 discriminator 2
 1381 0078 B301     		lsls	r3, r6, #6
 1382 007a EB18     		adds	r3, r5, r3
 1383 007c AF33     		adds	r3, r3, #175
 1384 007e FF33     		adds	r3, r3, #255
 1385 0080 1888     		ldrh	r0, [r3]
 1386 0082 0130     		adds	r0, r0, #1
 1387 0084 84B2     		uxth	r4, r0
 1388              	.LVL158:
 1389              	.LBE13:
 278:lib/widget.c  ****     {                        
 1390              		.loc 1 278 0 discriminator 2
 1391 0086 0136     		adds	r6, r6, #1
 1392              	.LVL159:
 1393              	.L74:
 278:lib/widget.c  ****     {                        
 1394              		.loc 1 278 0 is_stmt 0 discriminator 1
 1395 0088 B923     		movs	r3, #185
 1396 008a 9B00     		lsls	r3, r3, #2
 1397 008c EB5A     		ldrh	r3, [r5, r3]
 1398 008e 9E42     		cmp	r6, r3
 1399 0090 BCDB     		blt	.L79
 1400              	.L75:
 1401              	.LBE12:
ARM GAS  C:\Users\luvsd\AppData\Local\Temp\cceWh3pe.s 			page 36


 298:lib/widget.c  **** }
 1402              		.loc 1 298 0 is_stmt 1
 1403 0092 2800     		movs	r0, r5
 1404 0094 FFF7FEFF 		bl	isExistScroll
 1405              	.LVL160:
 1406 0098 0100     		movs	r1, r0
 1407 009a 2000     		movs	r0, r4
 1408 009c FFF7FEFF 		bl	EraseBlankArea
 1409              	.LVL161:
 299:lib/widget.c  **** 
 1410              		.loc 1 299 0
 1411 00a0 09B0     		add	sp, sp, #36
 1412              		@ sp needed
 1413              	.LVL162:
 1414              	.LVL163:
 1415              	.LVL164:
 1416 00a2 F0BD     		pop	{r4, r5, r6, r7, pc}
 1417              	.L82:
 1418              		.align	2
 1419              	.L81:
 1420 00a4 E6020000 		.word	742
 1421 00a8 FFFF0000 		.word	65535
 1422 00ac 04000000 		.word	.LC19
 1423              		.cfi_endproc
 1424              	.LFE69:
 1425              		.size	UpdateDrawListButtons, .-UpdateDrawListButtons
 1426              		.section	.text.doListMenu,"ax",%progbits
 1427              		.align	2
 1428              		.global	doListMenu
 1429              		.code	16
 1430              		.thumb_func
 1431              		.type	doListMenu, %function
 1432              	doListMenu:
 1433              	.LFB71:
 334:lib/widget.c  ****     MENUNODE *thisMenu = (MENUNODE *) this;     
 1434              		.loc 1 334 0
 1435              		.cfi_startproc
 1436              		@ args = 0, pretend = 0, frame = 8
 1437              		@ frame_needed = 0, uses_anonymous_args = 0
 1438              	.LVL165:
 1439 0000 30B5     		push	{r4, r5, lr}
 1440              		.cfi_def_cfa_offset 12
 1441              		.cfi_offset 4, -12
 1442              		.cfi_offset 5, -8
 1443              		.cfi_offset 14, -4
 1444 0002 83B0     		sub	sp, sp, #12
 1445              		.cfi_def_cfa_offset 24
 1446 0004 0400     		movs	r4, r0
 1447              	.LVL166:
 337:lib/widget.c  ****     {
 1448              		.loc 1 337 0
 1449 0006 0029     		cmp	r1, #0
 1450 0008 1AD0     		beq	.L85
 1451 000a 0129     		cmp	r1, #1
 1452 000c 50D1     		bne	.L96
 341:lib/widget.c  ****                 g_ListMenu.curPage = 0;
 1453              		.loc 1 341 0
ARM GAS  C:\Users\luvsd\AppData\Local\Temp\cceWh3pe.s 			page 37


 1454 000e FFF7FEFF 		bl	getNoOfChild
 1455              	.LVL167:
 1456 0012 294B     		ldr	r3, .L98
 1457 0014 1880     		strh	r0, [r3]
 342:lib/widget.c  ****                 SetDrawNodeListButtons(thisMenu, &g_ListMenu);
 1458              		.loc 1 342 0
 1459 0016 294D     		ldr	r5, .L98+4
 1460 0018 0022     		movs	r2, #0
 1461 001a DA23     		movs	r3, #218
 1462 001c 9B00     		lsls	r3, r3, #2
 1463 001e EA52     		strh	r2, [r5, r3]
 343:lib/widget.c  ****                 UpdateDrawListButtons(&g_ListMenu,NO_SELECT);
 1464              		.loc 1 343 0
 1465 0020 2900     		movs	r1, r5
 1466 0022 2000     		movs	r0, r4
 1467 0024 FFF7FEFF 		bl	SetDrawNodeListButtons
 1468              	.LVL168:
 344:lib/widget.c  ****                 SetDrawBottomButtons("QUIT", NULL, BUTTON_STYLE_R_GREEN, BUTTON_STYLE_R_BLUE); 
 1469              		.loc 1 344 0
 1470 0028 2549     		ldr	r1, .L98+8
 1471 002a 2800     		movs	r0, r5
 1472 002c FFF7FEFF 		bl	UpdateDrawListButtons
 1473              	.LVL169:
 345:lib/widget.c  ****             }
 1474              		.loc 1 345 0
 1475 0030 1223     		movs	r3, #18
 1476 0032 1122     		movs	r2, #17
 1477 0034 0021     		movs	r1, #0
 1478 0036 2348     		ldr	r0, .L98+12
 1479 0038 FFF7FEFF 		bl	SetDrawBottomButtons
 1480              	.LVL170:
 379:lib/widget.c  **** }
 1481              		.loc 1 379 0
 1482 003c 2248     		ldr	r0, .L98+16
 347:lib/widget.c  ****         
 1483              		.loc 1 347 0
 1484 003e 38E0     		b	.L84
 1485              	.LVL171:
 1486              	.L85:
 1487              	.LBB15:
 351:lib/widget.c  ****                 if(tc.isClick == FALSE) break;
 1488              		.loc 1 351 0
 1489 0040 6846     		mov	r0, sp
 1490              	.LVL172:
 1491 0042 FFF7FEFF 		bl	GetTouch
 1492              	.LVL173:
 352:lib/widget.c  ****                 
 1493              		.loc 1 352 0
 1494 0046 6B46     		mov	r3, sp
 1495 0048 1B88     		ldrh	r3, [r3]
 1496 004a 002B     		cmp	r3, #0
 1497 004c 2BD0     		beq	.L87
 354:lib/widget.c  ****                 
 1498              		.loc 1 354 0
 1499 004e 1B49     		ldr	r1, .L98+4
 1500 0050 6846     		mov	r0, sp
 1501 0052 FFF7FEFF 		bl	getIndexOfClickedListMenu
ARM GAS  C:\Users\luvsd\AppData\Local\Temp\cceWh3pe.s 			page 38


 1502              	.LVL174:
 356:lib/widget.c  ****                 {
 1503              		.loc 1 356 0
 1504 0056 0728     		cmp	r0, #7
 1505 0058 0DD0     		beq	.L89
 1506 005a FF28     		cmp	r0, #255
 1507 005c 15D0     		beq	.L90
 1508 005e 0628     		cmp	r0, #6
 1509 0060 1BD1     		bne	.L97
 358:lib/widget.c  ****                           UpdateDrawListButtons(&g_ListMenu,NO_SELECT);
 1510              		.loc 1 358 0
 1511 0062 1648     		ldr	r0, .L98+4
 1512              	.LVL175:
 1513 0064 DA22     		movs	r2, #218
 1514 0066 9200     		lsls	r2, r2, #2
 1515 0068 835A     		ldrh	r3, [r0, r2]
 1516 006a 013B     		subs	r3, r3, #1
 1517 006c 8352     		strh	r3, [r0, r2]
 359:lib/widget.c  ****                         break;
 1518              		.loc 1 359 0
 1519 006e 1449     		ldr	r1, .L98+8
 1520 0070 FFF7FEFF 		bl	UpdateDrawListButtons
 1521              	.LVL176:
 360:lib/widget.c  ****                     case IDX_SCROLL_DOWN: g_ListMenu.curPage++;
 1522              		.loc 1 360 0
 1523 0074 15E0     		b	.L92
 1524              	.LVL177:
 1525              	.L89:
 361:lib/widget.c  ****                           UpdateDrawListButtons(&g_ListMenu,NO_SELECT);                   
 1526              		.loc 1 361 0
 1527 0076 1148     		ldr	r0, .L98+4
 1528              	.LVL178:
 1529 0078 DA22     		movs	r2, #218
 1530 007a 9200     		lsls	r2, r2, #2
 1531 007c 835A     		ldrh	r3, [r0, r2]
 1532 007e 0133     		adds	r3, r3, #1
 1533 0080 8352     		strh	r3, [r0, r2]
 362:lib/widget.c  ****                         break;
 1534              		.loc 1 362 0
 1535 0082 0F49     		ldr	r1, .L98+8
 1536 0084 FFF7FEFF 		bl	UpdateDrawListButtons
 1537              	.LVL179:
 363:lib/widget.c  ****                     case NO_CLICK :
 1538              		.loc 1 363 0
 1539 0088 0BE0     		b	.L92
 1540              	.LVL180:
 1541              	.L90:
 366:lib/widget.c  ****                             {
 1542              		.loc 1 366 0
 1543 008a 0222     		movs	r2, #2
 1544 008c 0F49     		ldr	r1, .L98+20
 1545 008e 6846     		mov	r0, sp
 1546              	.LVL181:
 1547 0090 FFF7FEFF 		bl	getIndexOfClickedButton
 1548              	.LVL182:
 1549 0094 0028     		cmp	r0, #0
 1550 0096 08D0     		beq	.L95
ARM GAS  C:\Users\luvsd\AppData\Local\Temp\cceWh3pe.s 			page 39


 1551 0098 03E0     		b	.L92
 1552              	.LVL183:
 1553              	.L97:
 374:lib/widget.c  ****                 }                
 1554              		.loc 1 374 0
 1555 009a 074A     		ldr	r2, .L98
 1556 009c 1288     		ldrh	r2, [r2]
 1557 009e 9042     		cmp	r0, r2
 1558 00a0 07D3     		bcc	.L84
 1559              	.LVL184:
 1560              	.L92:
 1561              	.LBE15:
 379:lib/widget.c  **** }
 1562              		.loc 1 379 0 discriminator 1
 1563 00a2 0948     		ldr	r0, .L98+16
 377:lib/widget.c  ****     }
 1564              		.loc 1 377 0 discriminator 1
 1565 00a4 05E0     		b	.L84
 1566              	.L87:
 379:lib/widget.c  **** }
 1567              		.loc 1 379 0
 1568 00a6 0848     		ldr	r0, .L98+16
 1569 00a8 03E0     		b	.L84
 1570              	.L95:
 1571              	.LBB16:
 368:lib/widget.c  ****                             //  case BOTTOM_RIGHT: return 1;                            
 1572              		.loc 1 368 0
 1573 00aa 8020     		movs	r0, #128
 1574 00ac 0006     		lsls	r0, r0, #24
 1575 00ae 00E0     		b	.L84
 1576              	.LVL185:
 1577              	.L96:
 1578              	.LBE16:
 379:lib/widget.c  **** }
 1579              		.loc 1 379 0
 1580 00b0 0548     		ldr	r0, .L98+16
 1581              	.LVL186:
 1582              	.L84:
 380:lib/widget.c  **** 
 1583              		.loc 1 380 0
 1584 00b2 03B0     		add	sp, sp, #12
 1585              		@ sp needed
 1586              	.LVL187:
 1587 00b4 30BD     		pop	{r4, r5, pc}
 1588              	.L99:
 1589 00b6 C046     		.align	2
 1590              	.L98:
 1591 00b8 00000000 		.word	.LANCHOR1
 1592 00bc 00000000 		.word	g_ListMenu
 1593 00c0 FFFF0000 		.word	65535
 1594 00c4 0C000000 		.word	.LC23
 1595 00c8 01000080 		.word	-2147483647
 1596 00cc 00000000 		.word	g_btnBottom
 1597              		.cfi_endproc
 1598              	.LFE71:
 1599              		.size	doListMenu, .-doListMenu
 1600              		.section	.text.DrawUpDownMenu,"ax",%progbits
ARM GAS  C:\Users\luvsd\AppData\Local\Temp\cceWh3pe.s 			page 40


 1601              		.align	2
 1602              		.global	DrawUpDownMenu
 1603              		.code	16
 1604              		.thumb_func
 1605              		.type	DrawUpDownMenu, %function
 1606              	DrawUpDownMenu:
 1607              	.LFB73:
 407:lib/widget.c  ****     va_list ap;
 1608              		.loc 1 407 0
 1609              		.cfi_startproc
 1610              		@ args = 4, pretend = 4, frame = 104
 1611              		@ frame_needed = 0, uses_anonymous_args = 1
 1612              	.LVL188:
 1613 0000 08B4     		push	{r3}
 1614              		.cfi_def_cfa_offset 4
 1615 0002 F0B5     		push	{r4, r5, r6, r7, lr}
 1616              		.cfi_def_cfa_offset 24
 1617              		.cfi_offset 4, -24
 1618              		.cfi_offset 5, -20
 1619              		.cfi_offset 6, -16
 1620              		.cfi_offset 7, -12
 1621              		.cfi_offset 14, -8
 1622 0004 5F46     		mov	r7, fp
 1623 0006 80B4     		push	{r7}
 1624              		.cfi_def_cfa_offset 28
 1625              		.cfi_offset 11, -28
 1626 0008 9DB0     		sub	sp, sp, #116
 1627              		.cfi_def_cfa_offset 144
 1628 000a 0600     		movs	r6, r0
 1629 000c 0F00     		movs	r7, r1
 1630 000e 0592     		str	r2, [sp, #20]
 1631 0010 23AA     		add	r2, sp, #140
 1632              	.LVL189:
 1633 0012 02CA     		ldmia	r2!, {r1}
 1634              	.LVL190:
 410:lib/widget.c  ****     vsprintf(buff, fmt, ap);
 1635              		.loc 1 410 0
 1636 0014 1B92     		str	r2, [sp, #108]
 411:lib/widget.c  ****     va_end(ap);
 1637              		.loc 1 411 0
 1638 0016 16A8     		add	r0, sp, #88
 1639              	.LVL191:
 1640 0018 FFF7FEFF 		bl	vsprintf
 1641              	.LVL192:
 414:lib/widget.c  ****     SetDefaultButtonStyle(&menu->btnMessage);
 1642              		.loc 1 414 0
 1643 001c 3C23     		movs	r3, #60
 1644 001e 9C46     		mov	ip, r3
 1645 0020 B444     		add	ip, ip, r6
 1646 0022 6346     		mov	r3, ip
 1647 0024 0221     		movs	r1, #2
 1648 0026 0393     		str	r3, [sp, #12]
 1649 0028 6046     		mov	r0, ip
 1650 002a FFF7FEFF 		bl	SetDefaultButtonStyleArray
 1651              	.LVL193:
 415:lib/widget.c  ****     
 1652              		.loc 1 415 0
ARM GAS  C:\Users\luvsd\AppData\Local\Temp\cceWh3pe.s 			page 41


 1653 002e BC24     		movs	r4, #188
 1654 0030 A446     		mov	ip, r4
 1655 0032 B444     		add	ip, ip, r6
 1656 0034 6346     		mov	r3, ip
 1657 0036 0493     		str	r3, [sp, #16]
 1658 0038 6046     		mov	r0, ip
 1659 003a FFF7FEFF 		bl	SetDefaultButtonStyle
 1660              	.LVL194:
 417:lib/widget.c  ****     EraseBlankArea(yPos,FALSE);
 1661              		.loc 1 417 0
 1662 003e 0021     		movs	r1, #0
 1663 0040 3800     		movs	r0, r7
 1664 0042 FFF7FEFF 		bl	DrawTitleButton
 1665              	.LVL195:
 418:lib/widget.c  ****     
 1666              		.loc 1 418 0
 1667 0046 0021     		movs	r1, #0
 1668 0048 FFF7FEFF 		bl	EraseBlankArea
 1669              	.LVL196:
 421:lib/widget.c  **** 
 1670              		.loc 1 421 0
 1671 004c 403C     		subs	r4, r4, #64
 1672 004e A346     		mov	fp, r4
 1673 0050 B344     		add	fp, fp, r6
 1674              	.LVL197:
 423:lib/widget.c  ****     SetButtonSize(rightBtn,0,g_DEFAULT_BUTTON_HEIGHT,BUTTON_X_2_2,BUTTON_Y_HALF,FALSE); 
 1675              		.loc 1 423 0
 1676 0052 1E4C     		ldr	r4, .L101
 1677 0054 2288     		ldrh	r2, [r4]
 1678 0056 0027     		movs	r7, #0
 1679              	.LVL198:
 1680 0058 0197     		str	r7, [sp, #4]
 1681 005a 0E25     		movs	r5, #14
 1682 005c 0095     		str	r5, [sp]
 1683 005e 0223     		movs	r3, #2
 1684 0060 0021     		movs	r1, #0
 1685 0062 0398     		ldr	r0, [sp, #12]
 1686 0064 FFF7FEFF 		bl	SetButtonSize
 1687              	.LVL199:
 424:lib/widget.c  ****             
 1688              		.loc 1 424 0
 1689 0068 2288     		ldrh	r2, [r4]
 1690 006a 0197     		str	r7, [sp, #4]
 1691 006c 0095     		str	r5, [sp]
 1692 006e 0323     		movs	r3, #3
 1693 0070 0021     		movs	r1, #0
 1694 0072 5846     		mov	r0, fp
 1695 0074 FFF7FEFF 		bl	SetButtonSize
 1696              	.LVL200:
 426:lib/widget.c  ****     DrawButton(&menu->btnMessage);
 1697              		.loc 1 426 0
 1698 0078 16A9     		add	r1, sp, #88
 1699 007a 049D     		ldr	r5, [sp, #16]
 1700 007c 2800     		movs	r0, r5
 1701 007e FFF7FEFF 		bl	SetButtonText
 1702              	.LVL201:
 427:lib/widget.c  ****     
ARM GAS  C:\Users\luvsd\AppData\Local\Temp\cceWh3pe.s 			page 42


 1703              		.loc 1 427 0
 1704 0082 2800     		movs	r0, r5
 1705 0084 FFF7FEFF 		bl	DrawButton
 1706              	.LVL202:
 430:lib/widget.c  ****     SetButtonStyleColor(&remarkBtn,BUTTON_STYLE_WHITE);
 1707              		.loc 1 430 0
 1708 0088 06A8     		add	r0, sp, #24
 1709 008a FFF7FEFF 		bl	SetDefaultButtonStyle
 1710              	.LVL203:
 431:lib/widget.c  ****     SetButtonSize(&remarkBtn,menu->btnMessage.rect.bottom+2,g_DEFAULT_BUTTON_HEIGHT,BUTTON_X_FULL,B
 1711              		.loc 1 431 0
 1712 008e 0521     		movs	r1, #5
 1713 0090 06A8     		add	r0, sp, #24
 1714 0092 FFF7FEFF 		bl	SetButtonStyleColor
 1715              	.LVL204:
 432:lib/widget.c  **** 
 1716              		.loc 1 432 0
 1717 0096 C623     		movs	r3, #198
 1718 0098 F15A     		ldrh	r1, [r6, r3]
 1719 009a 2288     		ldrh	r2, [r4]
 1720 009c 0231     		adds	r1, r1, #2
 1721 009e 89B2     		uxth	r1, r1
 1722 00a0 0197     		str	r7, [sp, #4]
 1723 00a2 BB3B     		subs	r3, r3, #187
 1724 00a4 0093     		str	r3, [sp]
 1725 00a6 0A3B     		subs	r3, r3, #10
 1726 00a8 06A8     		add	r0, sp, #24
 1727 00aa FFF7FEFF 		bl	SetButtonSize
 1728              	.LVL205:
 434:lib/widget.c  ****     DrawButton(&remarkBtn);
 1729              		.loc 1 434 0
 1730 00ae 0599     		ldr	r1, [sp, #20]
 1731 00b0 06A8     		add	r0, sp, #24
 1732 00b2 FFF7FEFF 		bl	SetButtonText
 1733              	.LVL206:
 435:lib/widget.c  **** }
 1734              		.loc 1 435 0
 1735 00b6 06A8     		add	r0, sp, #24
 1736 00b8 FFF7FEFF 		bl	DrawButton
 1737              	.LVL207:
 436:lib/widget.c  **** 
 1738              		.loc 1 436 0
 1739 00bc 1DB0     		add	sp, sp, #116
 1740              		@ sp needed
 1741              	.LVL208:
 1742              	.LVL209:
 1743 00be 04BC     		pop	{r2}
 1744 00c0 9346     		mov	fp, r2
 1745 00c2 F0BC     		pop	{r4, r5, r6, r7}
 1746 00c4 08BC     		pop	{r3}
 1747 00c6 01B0     		add	sp, sp, #4
 1748 00c8 1847     		bx	r3
 1749              	.L102:
 1750 00ca C046     		.align	2
 1751              	.L101:
 1752 00cc 00000000 		.word	g_DEFAULT_BUTTON_HEIGHT
 1753              		.cfi_endproc
ARM GAS  C:\Users\luvsd\AppData\Local\Temp\cceWh3pe.s 			page 43


 1754              	.LFE73:
 1755              		.size	DrawUpDownMenu, .-DrawUpDownMenu
 1756              		.section	.text.SetDrawMonitoringMenu,"ax",%progbits
 1757              		.align	2
 1758              		.global	SetDrawMonitoringMenu
 1759              		.code	16
 1760              		.thumb_func
 1761              		.type	SetDrawMonitoringMenu, %function
 1762              	SetDrawMonitoringMenu:
 1763              	.LFB74:
 439:lib/widget.c  ****     va_list ap;
 1764              		.loc 1 439 0
 1765              		.cfi_startproc
 1766              		@ args = 4, pretend = 12, frame = 24
 1767              		@ frame_needed = 0, uses_anonymous_args = 1
 1768              	.LVL210:
 1769 0000 0EB4     		push	{r1, r2, r3}
 1770              		.cfi_def_cfa_offset 12
 1771 0002 F0B5     		push	{r4, r5, r6, r7, lr}
 1772              		.cfi_def_cfa_offset 32
 1773              		.cfi_offset 4, -32
 1774              		.cfi_offset 5, -28
 1775              		.cfi_offset 6, -24
 1776              		.cfi_offset 7, -20
 1777              		.cfi_offset 14, -16
 1778 0004 5746     		mov	r7, r10
 1779 0006 4E46     		mov	r6, r9
 1780 0008 4546     		mov	r5, r8
 1781 000a E0B4     		push	{r5, r6, r7}
 1782              		.cfi_def_cfa_offset 44
 1783              		.cfi_offset 8, -44
 1784              		.cfi_offset 9, -40
 1785              		.cfi_offset 10, -36
 1786 000c 89B0     		sub	sp, sp, #36
 1787              		.cfi_def_cfa_offset 80
 1788 000e 0400     		movs	r4, r0
 1789 0010 11AA     		add	r2, sp, #68
 1790 0012 02CA     		ldmia	r2!, {r1}
 442:lib/widget.c  ****     vsprintf(buff, title, ap);
 1791              		.loc 1 442 0
 1792 0014 0792     		str	r2, [sp, #28]
 443:lib/widget.c  ****     va_end(ap);
 1793              		.loc 1 443 0
 1794 0016 02A8     		add	r0, sp, #8
 1795              	.LVL211:
 1796 0018 FFF7FEFF 		bl	vsprintf
 1797              	.LVL212:
 446:lib/widget.c  ****     
 1798              		.loc 1 446 0
 1799 001c 0721     		movs	r1, #7
 1800 001e 2000     		movs	r0, r4
 1801 0020 FFF7FEFF 		bl	SetDefaultButtonStyleArray
 1802              	.LVL213:
 452:lib/widget.c  ****     SetButtonStyleColor(btn,BUTTON_STYLE_ORANGE);        
 1803              		.loc 1 452 0
 1804 0024 4D4E     		ldr	r6, .L104
 1805 0026 3288     		ldrh	r2, [r6]
ARM GAS  C:\Users\luvsd\AppData\Local\Temp\cceWh3pe.s 			page 44


 1806 0028 033A     		subs	r2, r2, #3
 1807 002a 92B2     		uxth	r2, r2
 1808 002c 0025     		movs	r5, #0
 1809 002e 0195     		str	r5, [sp, #4]
 1810 0030 0D23     		movs	r3, #13
 1811 0032 0093     		str	r3, [sp]
 1812 0034 0C3B     		subs	r3, r3, #12
 1813 0036 0021     		movs	r1, #0
 1814 0038 2000     		movs	r0, r4
 1815 003a FFF7FEFF 		bl	SetButtonSize
 1816              	.LVL214:
 453:lib/widget.c  ****     SetButtonText(btn, buff);
 1817              		.loc 1 453 0
 1818 003e 0721     		movs	r1, #7
 1819 0040 2000     		movs	r0, r4
 1820 0042 FFF7FEFF 		bl	SetButtonStyleColor
 1821              	.LVL215:
 454:lib/widget.c  ****     DrawButton(btn);
 1822              		.loc 1 454 0
 1823 0046 02A9     		add	r1, sp, #8
 1824 0048 2000     		movs	r0, r4
 1825 004a FFF7FEFF 		bl	SetButtonText
 1826              	.LVL216:
 455:lib/widget.c  ****     
 1827              		.loc 1 455 0
 1828 004e 2000     		movs	r0, r4
 1829 0050 FFF7FEFF 		bl	DrawButton
 1830              	.LVL217:
 457:lib/widget.c  ****     
 1831              		.loc 1 457 0
 1832 0054 6089     		ldrh	r0, [r4, #10]
 1833 0056 0130     		adds	r0, r0, #1
 1834 0058 80B2     		uxth	r0, r0
 1835 005a 0021     		movs	r1, #0
 1836 005c FFF7FEFF 		bl	EraseBlankArea
 1837              	.LVL218:
 460:lib/widget.c  ****     SetButtonSize(btn,0,g_DEFAULT_BUTTON_HEIGHT, BUTTON_X_1_2, BUTTON_Y_2_4,FALSE);
 1838              		.loc 1 460 0
 1839 0060 2700     		movs	r7, r4
 1840 0062 4037     		adds	r7, r7, #64
 1841              	.LVL219:
 461:lib/widget.c  ****     SetButtonStyleColor(btn,BUTTON_STYLE_WHITE);
 1842              		.loc 1 461 0
 1843 0064 3288     		ldrh	r2, [r6]
 1844 0066 0195     		str	r5, [sp, #4]
 1845 0068 1123     		movs	r3, #17
 1846 006a 9946     		mov	r9, r3
 1847 006c 0093     		str	r3, [sp]
 1848 006e 0F3B     		subs	r3, r3, #15
 1849 0070 0021     		movs	r1, #0
 1850 0072 3800     		movs	r0, r7
 1851 0074 FFF7FEFF 		bl	SetButtonSize
 1852              	.LVL220:
 462:lib/widget.c  ****     btn->align = TEXT_ALIGN_LEFT;
 1853              		.loc 1 462 0
 1854 0078 0521     		movs	r1, #5
 1855 007a 3800     		movs	r0, r7
ARM GAS  C:\Users\luvsd\AppData\Local\Temp\cceWh3pe.s 			page 45


 1856 007c FFF7FEFF 		bl	SetButtonStyleColor
 1857              	.LVL221:
 463:lib/widget.c  ****     //SetButtonText(btn,first);    
 1858              		.loc 1 463 0
 1859 0080 2300     		movs	r3, r4
 1860 0082 7A33     		adds	r3, r3, #122
 1861 0084 0122     		movs	r2, #1
 1862 0086 9046     		mov	r8, r2
 1863 0088 1A70     		strb	r2, [r3]
 468:lib/widget.c  ****     SetButtonSize(btn,0,g_DEFAULT_BUTTON_HEIGHT, BUTTON_X_2_2, BUTTON_Y_2_4,FALSE);
 1864              		.loc 1 468 0
 1865 008a 4037     		adds	r7, r7, #64
 1866              	.LVL222:
 469:lib/widget.c  ****     SetButtonStyleColor(btn,BUTTON_STYLE_YELLOW);
 1867              		.loc 1 469 0
 1868 008c 3288     		ldrh	r2, [r6]
 1869 008e 0195     		str	r5, [sp, #4]
 1870 0090 4B46     		mov	r3, r9
 1871 0092 0093     		str	r3, [sp]
 1872 0094 0E3B     		subs	r3, r3, #14
 1873 0096 0021     		movs	r1, #0
 1874 0098 3800     		movs	r0, r7
 1875 009a FFF7FEFF 		bl	SetButtonSize
 1876              	.LVL223:
 470:lib/widget.c  ****     btn->align = TEXT_ALIGN_RIGHT;
 1877              		.loc 1 470 0
 1878 009e 0821     		movs	r1, #8
 1879 00a0 3800     		movs	r0, r7
 1880 00a2 FFF7FEFF 		bl	SetButtonStyleColor
 1881              	.LVL224:
 471:lib/widget.c  ****    // SetButtonText(btn,"9999");    
 1882              		.loc 1 471 0
 1883 00a6 2300     		movs	r3, r4
 1884 00a8 BA33     		adds	r3, r3, #186
 1885 00aa 0222     		movs	r2, #2
 1886 00ac 9146     		mov	r9, r2
 1887 00ae 1A70     		strb	r2, [r3]
 476:lib/widget.c  ****     SetButtonSize(btn,0,g_DEFAULT_BUTTON_HEIGHT, BUTTON_X_1_2, BUTTON_Y_3_4,FALSE);
 1888              		.loc 1 476 0
 1889 00b0 4037     		adds	r7, r7, #64
 1890              	.LVL225:
 477:lib/widget.c  ****     SetButtonStyleColor(btn,BUTTON_STYLE_WHITE);
 1891              		.loc 1 477 0
 1892 00b2 3288     		ldrh	r2, [r6]
 1893 00b4 0195     		str	r5, [sp, #4]
 1894 00b6 1223     		movs	r3, #18
 1895 00b8 9A46     		mov	r10, r3
 1896 00ba 0093     		str	r3, [sp]
 1897 00bc 103B     		subs	r3, r3, #16
 1898 00be 0021     		movs	r1, #0
 1899 00c0 3800     		movs	r0, r7
 1900 00c2 FFF7FEFF 		bl	SetButtonSize
 1901              	.LVL226:
 478:lib/widget.c  ****     btn->align = TEXT_ALIGN_LEFT;
 1902              		.loc 1 478 0
 1903 00c6 0521     		movs	r1, #5
 1904 00c8 3800     		movs	r0, r7
ARM GAS  C:\Users\luvsd\AppData\Local\Temp\cceWh3pe.s 			page 46


 1905 00ca FFF7FEFF 		bl	SetButtonStyleColor
 1906              	.LVL227:
 479:lib/widget.c  ****     //SetButtonText(btn,second);    
 1907              		.loc 1 479 0
 1908 00ce 2300     		movs	r3, r4
 1909 00d0 FA33     		adds	r3, r3, #250
 1910 00d2 4246     		mov	r2, r8
 1911 00d4 1A70     		strb	r2, [r3]
 484:lib/widget.c  ****     SetButtonSize(btn,0,g_DEFAULT_BUTTON_HEIGHT, BUTTON_X_2_2, BUTTON_Y_3_4,FALSE);
 1912              		.loc 1 484 0
 1913 00d6 671C     		adds	r7, r4, #1
 1914              	.LVL228:
 1915 00d8 FF37     		adds	r7, r7, #255
 1916              	.LVL229:
 485:lib/widget.c  ****     SetButtonStyleColor(btn,BUTTON_STYLE_YELLOW);
 1917              		.loc 1 485 0
 1918 00da 3288     		ldrh	r2, [r6]
 1919 00dc 0195     		str	r5, [sp, #4]
 1920 00de 5346     		mov	r3, r10
 1921 00e0 0093     		str	r3, [sp]
 1922 00e2 0F3B     		subs	r3, r3, #15
 1923 00e4 0021     		movs	r1, #0
 1924 00e6 3800     		movs	r0, r7
 1925 00e8 FFF7FEFF 		bl	SetButtonSize
 1926              	.LVL230:
 486:lib/widget.c  ****     btn->align = TEXT_ALIGN_RIGHT;
 1927              		.loc 1 486 0
 1928 00ec 0821     		movs	r1, #8
 1929 00ee 3800     		movs	r0, r7
 1930 00f0 FFF7FEFF 		bl	SetButtonStyleColor
 1931              	.LVL231:
 487:lib/widget.c  ****   //  SetButtonText(btn,"9999");    
 1932              		.loc 1 487 0
 1933 00f4 2300     		movs	r3, r4
 1934 00f6 3B33     		adds	r3, r3, #59
 1935 00f8 FF33     		adds	r3, r3, #255
 1936 00fa 4A46     		mov	r2, r9
 1937 00fc 1A70     		strb	r2, [r3]
 492:lib/widget.c  ****     SetButtonSize(btn,0,g_DEFAULT_BUTTON_HEIGHT, BUTTON_X_1_2, BUTTON_Y_4_4,FALSE);
 1938              		.loc 1 492 0
 1939 00fe 4037     		adds	r7, r7, #64
 1940              	.LVL232:
 493:lib/widget.c  ****     SetButtonStyleColor(btn,BUTTON_STYLE_WHITE);
 1941              		.loc 1 493 0
 1942 0100 3288     		ldrh	r2, [r6]
 1943 0102 0195     		str	r5, [sp, #4]
 1944 0104 1323     		movs	r3, #19
 1945 0106 9A46     		mov	r10, r3
 1946 0108 0093     		str	r3, [sp]
 1947 010a 113B     		subs	r3, r3, #17
 1948 010c 0021     		movs	r1, #0
 1949 010e 3800     		movs	r0, r7
 1950 0110 FFF7FEFF 		bl	SetButtonSize
 1951              	.LVL233:
 494:lib/widget.c  ****     btn->align = TEXT_ALIGN_LEFT;
 1952              		.loc 1 494 0
 1953 0114 0521     		movs	r1, #5
ARM GAS  C:\Users\luvsd\AppData\Local\Temp\cceWh3pe.s 			page 47


 1954 0116 3800     		movs	r0, r7
 1955 0118 FFF7FEFF 		bl	SetButtonStyleColor
 1956              	.LVL234:
 495:lib/widget.c  ****     //SetButtonText(btn,third);    
 1957              		.loc 1 495 0
 1958 011c 2300     		movs	r3, r4
 1959 011e 7B33     		adds	r3, r3, #123
 1960 0120 FF33     		adds	r3, r3, #255
 1961 0122 4246     		mov	r2, r8
 1962 0124 1A70     		strb	r2, [r3]
 500:lib/widget.c  ****     SetButtonSize(btn,0,g_DEFAULT_BUTTON_HEIGHT, BUTTON_X_2_2, BUTTON_Y_4_4,FALSE);
 1963              		.loc 1 500 0
 1964 0126 4037     		adds	r7, r7, #64
 1965              	.LVL235:
 501:lib/widget.c  ****     SetButtonStyleColor(btn,BUTTON_STYLE_YELLOW);
 1966              		.loc 1 501 0
 1967 0128 3288     		ldrh	r2, [r6]
 1968 012a 0195     		str	r5, [sp, #4]
 1969 012c 5346     		mov	r3, r10
 1970 012e 0093     		str	r3, [sp]
 1971 0130 103B     		subs	r3, r3, #16
 1972 0132 0021     		movs	r1, #0
 1973 0134 3800     		movs	r0, r7
 1974 0136 FFF7FEFF 		bl	SetButtonSize
 1975              	.LVL236:
 502:lib/widget.c  ****     btn->align = TEXT_ALIGN_RIGHT;
 1976              		.loc 1 502 0
 1977 013a 0821     		movs	r1, #8
 1978 013c 3800     		movs	r0, r7
 1979 013e FFF7FEFF 		bl	SetButtonStyleColor
 1980              	.LVL237:
 503:lib/widget.c  ****  //   SetButtonText(btn,"999.9");    
 1981              		.loc 1 503 0
 1982 0142 BB34     		adds	r4, r4, #187
 1983              	.LVL238:
 1984 0144 FF34     		adds	r4, r4, #255
 1985              	.LVL239:
 1986 0146 4B46     		mov	r3, r9
 1987 0148 2370     		strb	r3, [r4]
 506:lib/widget.c  **** 
 1988              		.loc 1 506 0
 1989 014a 09B0     		add	sp, sp, #36
 1990              		@ sp needed
 1991              	.LVL240:
 1992              	.LVL241:
 1993 014c 1CBC     		pop	{r2, r3, r4}
 1994 014e 9046     		mov	r8, r2
 1995 0150 9946     		mov	r9, r3
 1996 0152 A246     		mov	r10, r4
 1997 0154 F0BC     		pop	{r4, r5, r6, r7}
 1998 0156 08BC     		pop	{r3}
 1999 0158 03B0     		add	sp, sp, #12
 2000 015a 1847     		bx	r3
 2001              	.L105:
 2002              		.align	2
 2003              	.L104:
 2004 015c 00000000 		.word	g_DEFAULT_BUTTON_HEIGHT
ARM GAS  C:\Users\luvsd\AppData\Local\Temp\cceWh3pe.s 			page 48


 2005              		.cfi_endproc
 2006              	.LFE74:
 2007              		.size	SetDrawMonitoringMenu, .-SetDrawMonitoringMenu
 2008              		.section	.text.EraseBlankAreaWithoutHeader,"ax",%progbits
 2009              		.align	2
 2010              		.global	EraseBlankAreaWithoutHeader
 2011              		.code	16
 2012              		.thumb_func
 2013              		.type	EraseBlankAreaWithoutHeader, %function
 2014              	EraseBlankAreaWithoutHeader:
 2015              	.LFB76:
 522:lib/widget.c  **** 
 523:lib/widget.c  **** void EraseBlankAreaWithoutHeader()
 524:lib/widget.c  **** {
 2016              		.loc 1 524 0
 2017              		.cfi_startproc
 2018              		@ args = 0, pretend = 0, frame = 16
 2019              		@ frame_needed = 0, uses_anonymous_args = 0
 2020 0000 10B5     		push	{r4, lr}
 2021              		.cfi_def_cfa_offset 8
 2022              		.cfi_offset 4, -8
 2023              		.cfi_offset 14, -4
 2024 0002 84B0     		sub	sp, sp, #16
 2025              		.cfi_def_cfa_offset 24
 525:lib/widget.c  ****     RECT blank;
 526:lib/widget.c  ****     blank.left = 0;
 2026              		.loc 1 526 0
 2027 0004 0023     		movs	r3, #0
 2028 0006 6A46     		mov	r2, sp
 2029 0008 1380     		strh	r3, [r2]
 527:lib/widget.c  ****     blank.right = g_SCREEN_WIDTH-1;
 2030              		.loc 1 527 0
 2031 000a 0A4B     		ldr	r3, .L107
 2032 000c 1B88     		ldrh	r3, [r3]
 2033 000e 013B     		subs	r3, r3, #1
 2034 0010 5380     		strh	r3, [r2, #2]
 528:lib/widget.c  ****     blank.top = GetBodyArea().top;;
 2035              		.loc 1 528 0
 2036 0012 02AC     		add	r4, sp, #8
 2037 0014 2000     		movs	r0, r4
 2038 0016 FFF7FEFF 		bl	GetBodyArea
 2039              	.LVL242:
 2040 001a A388     		ldrh	r3, [r4, #4]
 2041 001c 6A46     		mov	r2, sp
 2042 001e 9380     		strh	r3, [r2, #4]
 529:lib/widget.c  ****     blank.bottom = g_SCREEN_HEIGHT-1;
 2043              		.loc 1 529 0
 2044 0020 054B     		ldr	r3, .L107+4
 2045 0022 1B88     		ldrh	r3, [r3]
 2046 0024 013B     		subs	r3, r3, #1
 2047 0026 D380     		strh	r3, [r2, #6]
 530:lib/widget.c  ****     
 531:lib/widget.c  ****     FillRect(&blank,BLACK);     
 2048              		.loc 1 531 0
 2049 0028 0021     		movs	r1, #0
 2050 002a 6846     		mov	r0, sp
 2051 002c FFF7FEFF 		bl	FillRect
ARM GAS  C:\Users\luvsd\AppData\Local\Temp\cceWh3pe.s 			page 49


 2052              	.LVL243:
 532:lib/widget.c  **** }
 2053              		.loc 1 532 0
 2054 0030 04B0     		add	sp, sp, #16
 2055              		@ sp needed
 2056 0032 10BD     		pop	{r4, pc}
 2057              	.L108:
 2058              		.align	2
 2059              	.L107:
 2060 0034 00000000 		.word	g_SCREEN_WIDTH
 2061 0038 00000000 		.word	g_SCREEN_HEIGHT
 2062              		.cfi_endproc
 2063              	.LFE76:
 2064              		.size	EraseBlankAreaWithoutHeader, .-EraseBlankAreaWithoutHeader
 2065              		.section	.text.SetDrawUpDownTwoMenu,"ax",%progbits
 2066              		.align	2
 2067              		.global	SetDrawUpDownTwoMenu
 2068              		.code	16
 2069              		.thumb_func
 2070              		.type	SetDrawUpDownTwoMenu, %function
 2071              	SetDrawUpDownTwoMenu:
 2072              	.LFB77:
 533:lib/widget.c  ****  
 534:lib/widget.c  **** void SetDrawUpDownTwoMenu(UP_DOWN_TWO_MENU *menu, char *first, char *second, const char *title, ...
 535:lib/widget.c  **** {
 2073              		.loc 1 535 0
 2074              		.cfi_startproc
 2075              		@ args = 4, pretend = 4, frame = 24
 2076              		@ frame_needed = 0, uses_anonymous_args = 1
 2077              	.LVL244:
 2078 0000 08B4     		push	{r3}
 2079              		.cfi_def_cfa_offset 4
 2080 0002 F0B5     		push	{r4, r5, r6, r7, lr}
 2081              		.cfi_def_cfa_offset 24
 2082              		.cfi_offset 4, -24
 2083              		.cfi_offset 5, -20
 2084              		.cfi_offset 6, -16
 2085              		.cfi_offset 7, -12
 2086              		.cfi_offset 14, -8
 2087 0004 88B0     		sub	sp, sp, #32
 2088              		.cfi_def_cfa_offset 56
 2089 0006 0400     		movs	r4, r0
 2090 0008 0E00     		movs	r6, r1
 2091 000a 1500     		movs	r5, r2
 2092 000c 0DAA     		add	r2, sp, #52
 2093              	.LVL245:
 2094 000e 02CA     		ldmia	r2!, {r1}
 2095              	.LVL246:
 536:lib/widget.c  ****     va_list ap;
 537:lib/widget.c  ****     char buff[20];
 538:lib/widget.c  ****     va_start(ap, title);
 2096              		.loc 1 538 0
 2097 0010 0792     		str	r2, [sp, #28]
 539:lib/widget.c  ****     vsprintf(buff, title, ap);
 2098              		.loc 1 539 0
 2099 0012 02A8     		add	r0, sp, #8
 2100              	.LVL247:
ARM GAS  C:\Users\luvsd\AppData\Local\Temp\cceWh3pe.s 			page 50


 2101 0014 FFF7FEFF 		bl	vsprintf
 2102              	.LVL248:
 540:lib/widget.c  ****     va_end(ap);
 541:lib/widget.c  ****     
 542:lib/widget.c  ****     SetDefaultButtonStyleArray(menu->btn,7);
 2103              		.loc 1 542 0
 2104 0018 0721     		movs	r1, #7
 2105 001a 2000     		movs	r0, r4
 2106 001c FFF7FEFF 		bl	SetDefaultButtonStyleArray
 2107              	.LVL249:
 543:lib/widget.c  ****     
 544:lib/widget.c  ****     BUTTON *btn;
 545:lib/widget.c  ****     
 546:lib/widget.c  ****     // title
 547:lib/widget.c  ****     btn = &menu->btn[UPDOWNTWO_TITLE];
 548:lib/widget.c  ****     SetButtonSize(btn,0,g_DEFAULT_BUTTON_HEIGHT,BUTTON_X_FULL,BUTTON_Y_FIRST,FALSE);
 2108              		.loc 1 548 0
 2109 0020 9A4B     		ldr	r3, .L122
 2110 0022 1A88     		ldrh	r2, [r3]
 2111 0024 0023     		movs	r3, #0
 2112 0026 0193     		str	r3, [sp, #4]
 2113 0028 0D33     		adds	r3, r3, #13
 2114 002a 0093     		str	r3, [sp]
 2115 002c 0C3B     		subs	r3, r3, #12
 2116 002e 0021     		movs	r1, #0
 2117 0030 2000     		movs	r0, r4
 2118 0032 FFF7FEFF 		bl	SetButtonSize
 2119              	.LVL250:
 549:lib/widget.c  ****     SetButtonStyleColor(btn,BUTTON_STYLE_ORANGE);        
 2120              		.loc 1 549 0
 2121 0036 0721     		movs	r1, #7
 2122 0038 2000     		movs	r0, r4
 2123 003a FFF7FEFF 		bl	SetButtonStyleColor
 2124              	.LVL251:
 550:lib/widget.c  ****     SetButtonText(btn, buff);
 2125              		.loc 1 550 0
 2126 003e 02A9     		add	r1, sp, #8
 2127 0040 2000     		movs	r0, r4
 2128 0042 FFF7FEFF 		bl	SetButtonText
 2129              	.LVL252:
 551:lib/widget.c  ****     DrawButton(btn);
 2130              		.loc 1 551 0
 2131 0046 2000     		movs	r0, r4
 2132 0048 FFF7FEFF 		bl	DrawButton
 2133              	.LVL253:
 552:lib/widget.c  ****     
 553:lib/widget.c  ****     EraseBlankArea(btn->rect.bottom+1,FALSE);    
 2134              		.loc 1 553 0
 2135 004c 6089     		ldrh	r0, [r4, #10]
 2136 004e 0130     		adds	r0, r0, #1
 2137 0050 80B2     		uxth	r0, r0
 2138 0052 0021     		movs	r1, #0
 2139 0054 FFF7FEFF 		bl	EraseBlankArea
 2140              	.LVL254:
 554:lib/widget.c  ****     
 555:lib/widget.c  ****     // first 
 556:lib/widget.c  ****     btn = &menu->btn[UPDOWNTWO_FIRST_TEXT];
ARM GAS  C:\Users\luvsd\AppData\Local\Temp\cceWh3pe.s 			page 51


 2141              		.loc 1 556 0
 2142 0058 2700     		movs	r7, r4
 2143 005a 4037     		adds	r7, r7, #64
 2144              	.LVL255:
 557:lib/widget.c  ****     if(getMiscConfig()->bDisplayDir == DISPLAY_DIRECTION_PORTRAIT)
 2145              		.loc 1 557 0
 2146 005c FFF7FEFF 		bl	getMiscConfig
 2147              	.LVL256:
 2148 0060 0388     		ldrh	r3, [r0]
 2149 0062 002B     		cmp	r3, #0
 2150 0064 0DD1     		bne	.L110
 558:lib/widget.c  ****         SetButtonSize(btn,0,g_DEFAULT_BUTTON_HEIGHT+12, BUTTON_X_1_2, BUTTON_Y_2_4,FALSE);
 2151              		.loc 1 558 0
 2152 0066 894B     		ldr	r3, .L122
 2153 0068 1A88     		ldrh	r2, [r3]
 2154 006a 0C32     		adds	r2, r2, #12
 2155 006c 92B2     		uxth	r2, r2
 2156 006e 0023     		movs	r3, #0
 2157 0070 0193     		str	r3, [sp, #4]
 2158 0072 1133     		adds	r3, r3, #17
 2159 0074 0093     		str	r3, [sp]
 2160 0076 0F3B     		subs	r3, r3, #15
 2161 0078 0021     		movs	r1, #0
 2162 007a 3800     		movs	r0, r7
 2163 007c FFF7FEFF 		bl	SetButtonSize
 2164              	.LVL257:
 2165 0080 0CE0     		b	.L111
 2166              	.L110:
 559:lib/widget.c  ****     else
 560:lib/widget.c  ****         SetButtonSize(btn,0,g_DEFAULT_BUTTON_HEIGHT+12, BUTTON_X_1_3, BUTTON_Y_2_3,FALSE);
 2167              		.loc 1 560 0
 2168 0082 824B     		ldr	r3, .L122
 2169 0084 1A88     		ldrh	r2, [r3]
 2170 0086 0C32     		adds	r2, r2, #12
 2171 0088 92B2     		uxth	r2, r2
 2172 008a 0023     		movs	r3, #0
 2173 008c 0193     		str	r3, [sp, #4]
 2174 008e 0F33     		adds	r3, r3, #15
 2175 0090 0093     		str	r3, [sp]
 2176 0092 0B3B     		subs	r3, r3, #11
 2177 0094 0021     		movs	r1, #0
 2178 0096 3800     		movs	r0, r7
 2179 0098 FFF7FEFF 		bl	SetButtonSize
 2180              	.LVL258:
 2181              	.L111:
 561:lib/widget.c  ****         
 562:lib/widget.c  ****     SetButtonStyleColor(btn,BUTTON_STYLE_WHITE);
 2182              		.loc 1 562 0
 2183 009c 0521     		movs	r1, #5
 2184 009e 3800     		movs	r0, r7
 2185 00a0 FFF7FEFF 		bl	SetButtonStyleColor
 2186              	.LVL259:
 563:lib/widget.c  ****     SetButtonText(btn,first);    
 2187              		.loc 1 563 0
 2188 00a4 3100     		movs	r1, r6
 2189 00a6 3800     		movs	r0, r7
 2190 00a8 FFF7FEFF 		bl	SetButtonText
ARM GAS  C:\Users\luvsd\AppData\Local\Temp\cceWh3pe.s 			page 52


 2191              	.LVL260:
 564:lib/widget.c  ****     //DrawButton(btn);
 565:lib/widget.c  ****     
 566:lib/widget.c  ****     // Second 
 567:lib/widget.c  ****     btn = &menu->btn[UPDOWNTWO_SECOND_TEXT];
 2192              		.loc 1 567 0
 2193 00ac 2600     		movs	r6, r4
 2194              	.LVL261:
 2195 00ae 8036     		adds	r6, r6, #128
 2196              	.LVL262:
 568:lib/widget.c  ****     
 569:lib/widget.c  ****     if(getMiscConfig()->bDisplayDir == DISPLAY_DIRECTION_PORTRAIT)
 2197              		.loc 1 569 0
 2198 00b0 FFF7FEFF 		bl	getMiscConfig
 2199              	.LVL263:
 2200 00b4 0388     		ldrh	r3, [r0]
 2201 00b6 002B     		cmp	r3, #0
 2202 00b8 0DD1     		bne	.L112
 570:lib/widget.c  ****         SetButtonSize(btn,0,g_DEFAULT_BUTTON_HEIGHT+12, BUTTON_X_2_2, BUTTON_Y_2_4,FALSE);
 2203              		.loc 1 570 0
 2204 00ba 744B     		ldr	r3, .L122
 2205 00bc 1A88     		ldrh	r2, [r3]
 2206 00be 0C32     		adds	r2, r2, #12
 2207 00c0 92B2     		uxth	r2, r2
 2208 00c2 0023     		movs	r3, #0
 2209 00c4 0193     		str	r3, [sp, #4]
 2210 00c6 1133     		adds	r3, r3, #17
 2211 00c8 0093     		str	r3, [sp]
 2212 00ca 0E3B     		subs	r3, r3, #14
 2213 00cc 0021     		movs	r1, #0
 2214 00ce 3000     		movs	r0, r6
 2215 00d0 FFF7FEFF 		bl	SetButtonSize
 2216              	.LVL264:
 2217 00d4 0CE0     		b	.L113
 2218              	.L112:
 571:lib/widget.c  ****     else
 572:lib/widget.c  ****         SetButtonSize(btn,0,g_DEFAULT_BUTTON_HEIGHT+12, BUTTON_X_2_3, BUTTON_Y_2_3,FALSE);
 2219              		.loc 1 572 0
 2220 00d6 6D4B     		ldr	r3, .L122
 2221 00d8 1A88     		ldrh	r2, [r3]
 2222 00da 0C32     		adds	r2, r2, #12
 2223 00dc 92B2     		uxth	r2, r2
 2224 00de 0023     		movs	r3, #0
 2225 00e0 0193     		str	r3, [sp, #4]
 2226 00e2 0F33     		adds	r3, r3, #15
 2227 00e4 0093     		str	r3, [sp]
 2228 00e6 0A3B     		subs	r3, r3, #10
 2229 00e8 0021     		movs	r1, #0
 2230 00ea 3000     		movs	r0, r6
 2231 00ec FFF7FEFF 		bl	SetButtonSize
 2232              	.LVL265:
 2233              	.L113:
 573:lib/widget.c  ****     SetButtonStyleColor(btn,BUTTON_STYLE_DARKGREY);
 2234              		.loc 1 573 0
 2235 00f0 0C21     		movs	r1, #12
 2236 00f2 3000     		movs	r0, r6
 2237 00f4 FFF7FEFF 		bl	SetButtonStyleColor
ARM GAS  C:\Users\luvsd\AppData\Local\Temp\cceWh3pe.s 			page 53


 2238              	.LVL266:
 574:lib/widget.c  ****     SetButtonText(btn,second);    
 2239              		.loc 1 574 0
 2240 00f8 2900     		movs	r1, r5
 2241 00fa 3000     		movs	r0, r6
 2242 00fc FFF7FEFF 		bl	SetButtonText
 2243              	.LVL267:
 575:lib/widget.c  ****     //DrawButton(btn);
 576:lib/widget.c  ****     
 577:lib/widget.c  ****     // first value
 578:lib/widget.c  ****     btn = &menu->btn[UPDOWNTWO_FIRST_VALUE];
 2244              		.loc 1 578 0
 2245 0100 2500     		movs	r5, r4
 2246              	.LVL268:
 2247 0102 C035     		adds	r5, r5, #192
 2248              	.LVL269:
 579:lib/widget.c  ****     
 580:lib/widget.c  ****     if(getMiscConfig()->bDisplayDir == DISPLAY_DIRECTION_PORTRAIT)
 2249              		.loc 1 580 0
 2250 0104 FFF7FEFF 		bl	getMiscConfig
 2251              	.LVL270:
 2252 0108 0388     		ldrh	r3, [r0]
 2253 010a 002B     		cmp	r3, #0
 2254 010c 0BD1     		bne	.L114
 581:lib/widget.c  ****         SetButtonSize(btn,0,g_DEFAULT_BUTTON_HEIGHT, BUTTON_X_1_2, BUTTON_Y_3_4,FALSE);
 2255              		.loc 1 581 0
 2256 010e 5F4B     		ldr	r3, .L122
 2257 0110 1A88     		ldrh	r2, [r3]
 2258 0112 0023     		movs	r3, #0
 2259 0114 0193     		str	r3, [sp, #4]
 2260 0116 1233     		adds	r3, r3, #18
 2261 0118 0093     		str	r3, [sp]
 2262 011a 103B     		subs	r3, r3, #16
 2263 011c 0021     		movs	r1, #0
 2264 011e 2800     		movs	r0, r5
 2265 0120 FFF7FEFF 		bl	SetButtonSize
 2266              	.LVL271:
 2267 0124 0AE0     		b	.L115
 2268              	.L114:
 582:lib/widget.c  ****     else
 583:lib/widget.c  ****         SetButtonSize(btn,0,g_DEFAULT_BUTTON_HEIGHT, BUTTON_X_1_3, BUTTON_Y_3_3,FALSE);
 2269              		.loc 1 583 0
 2270 0126 594B     		ldr	r3, .L122
 2271 0128 1A88     		ldrh	r2, [r3]
 2272 012a 0023     		movs	r3, #0
 2273 012c 0193     		str	r3, [sp, #4]
 2274 012e 1033     		adds	r3, r3, #16
 2275 0130 0093     		str	r3, [sp]
 2276 0132 0C3B     		subs	r3, r3, #12
 2277 0134 0021     		movs	r1, #0
 2278 0136 2800     		movs	r0, r5
 2279 0138 FFF7FEFF 		bl	SetButtonSize
 2280              	.LVL272:
 2281              	.L115:
 584:lib/widget.c  ****     SetButtonStyleColor(btn,BUTTON_STYLE_YELLOW);
 2282              		.loc 1 584 0
 2283 013c 0821     		movs	r1, #8
ARM GAS  C:\Users\luvsd\AppData\Local\Temp\cceWh3pe.s 			page 54


 2284 013e 2800     		movs	r0, r5
 2285 0140 FFF7FEFF 		bl	SetButtonStyleColor
 2286              	.LVL273:
 585:lib/widget.c  ****     SetButtonText(btn,"2");    
 2287              		.loc 1 585 0
 2288 0144 5249     		ldr	r1, .L122+4
 2289 0146 2800     		movs	r0, r5
 2290 0148 FFF7FEFF 		bl	SetButtonText
 2291              	.LVL274:
 586:lib/widget.c  ****     //DrawButton(btn);
 587:lib/widget.c  ****     
 588:lib/widget.c  ****     // Second value
 589:lib/widget.c  ****     btn = &menu->btn[UPDOWNTWO_SECOND_VALUE];
 2292              		.loc 1 589 0
 2293 014c 651C     		adds	r5, r4, #1
 2294              	.LVL275:
 2295 014e FF35     		adds	r5, r5, #255
 2296              	.LVL276:
 590:lib/widget.c  ****     
 591:lib/widget.c  ****     if(getMiscConfig()->bDisplayDir == DISPLAY_DIRECTION_PORTRAIT)
 2297              		.loc 1 591 0
 2298 0150 FFF7FEFF 		bl	getMiscConfig
 2299              	.LVL277:
 2300 0154 0388     		ldrh	r3, [r0]
 2301 0156 002B     		cmp	r3, #0
 2302 0158 0BD1     		bne	.L116
 592:lib/widget.c  ****         SetButtonSize(btn,0,g_DEFAULT_BUTTON_HEIGHT, BUTTON_X_2_2, BUTTON_Y_3_4,FALSE);
 2303              		.loc 1 592 0
 2304 015a 4C4B     		ldr	r3, .L122
 2305 015c 1A88     		ldrh	r2, [r3]
 2306 015e 0023     		movs	r3, #0
 2307 0160 0193     		str	r3, [sp, #4]
 2308 0162 1233     		adds	r3, r3, #18
 2309 0164 0093     		str	r3, [sp]
 2310 0166 0F3B     		subs	r3, r3, #15
 2311 0168 0021     		movs	r1, #0
 2312 016a 2800     		movs	r0, r5
 2313 016c FFF7FEFF 		bl	SetButtonSize
 2314              	.LVL278:
 2315 0170 0AE0     		b	.L117
 2316              	.L116:
 593:lib/widget.c  ****     else
 594:lib/widget.c  ****         SetButtonSize(btn,0,g_DEFAULT_BUTTON_HEIGHT, BUTTON_X_2_3, BUTTON_Y_3_3,FALSE);
 2317              		.loc 1 594 0
 2318 0172 464B     		ldr	r3, .L122
 2319 0174 1A88     		ldrh	r2, [r3]
 2320 0176 0023     		movs	r3, #0
 2321 0178 0193     		str	r3, [sp, #4]
 2322 017a 1033     		adds	r3, r3, #16
 2323 017c 0093     		str	r3, [sp]
 2324 017e 0B3B     		subs	r3, r3, #11
 2325 0180 0021     		movs	r1, #0
 2326 0182 2800     		movs	r0, r5
 2327 0184 FFF7FEFF 		bl	SetButtonSize
 2328              	.LVL279:
 2329              	.L117:
 595:lib/widget.c  ****     SetButtonStyleColor(btn,BUTTON_STYLE_DARKGREY);
ARM GAS  C:\Users\luvsd\AppData\Local\Temp\cceWh3pe.s 			page 55


 2330              		.loc 1 595 0
 2331 0188 0C21     		movs	r1, #12
 2332 018a 2800     		movs	r0, r5
 2333 018c FFF7FEFF 		bl	SetButtonStyleColor
 2334              	.LVL280:
 596:lib/widget.c  ****     SetButtonText(btn,"2.5");    
 2335              		.loc 1 596 0
 2336 0190 4049     		ldr	r1, .L122+8
 2337 0192 2800     		movs	r0, r5
 2338 0194 FFF7FEFF 		bl	SetButtonText
 2339              	.LVL281:
 597:lib/widget.c  ****     //DrawButton(btn);
 598:lib/widget.c  ****     
 599:lib/widget.c  ****     // Up
 600:lib/widget.c  ****     btn = &menu->btn[UPDOWNTWO_UP_BUTTON];
 2340              		.loc 1 600 0
 2341 0198 2500     		movs	r5, r4
 2342              	.LVL282:
 2343 019a 4135     		adds	r5, r5, #65
 2344 019c FF35     		adds	r5, r5, #255
 2345              	.LVL283:
 601:lib/widget.c  ****     
 602:lib/widget.c  ****     if(getMiscConfig()->bDisplayDir == DISPLAY_DIRECTION_PORTRAIT)
 2346              		.loc 1 602 0
 2347 019e FFF7FEFF 		bl	getMiscConfig
 2348              	.LVL284:
 2349 01a2 0388     		ldrh	r3, [r0]
 2350 01a4 002B     		cmp	r3, #0
 2351 01a6 0BD1     		bne	.L118
 603:lib/widget.c  ****         SetButtonSize(btn,0,g_DEFAULT_BUTTON_HEIGHT, BUTTON_X_1_2, BUTTON_Y_4_4,FALSE);
 2352              		.loc 1 603 0
 2353 01a8 384B     		ldr	r3, .L122
 2354 01aa 1A88     		ldrh	r2, [r3]
 2355 01ac 0023     		movs	r3, #0
 2356 01ae 0193     		str	r3, [sp, #4]
 2357 01b0 1333     		adds	r3, r3, #19
 2358 01b2 0093     		str	r3, [sp]
 2359 01b4 113B     		subs	r3, r3, #17
 2360 01b6 0021     		movs	r1, #0
 2361 01b8 2800     		movs	r0, r5
 2362 01ba FFF7FEFF 		bl	SetButtonSize
 2363              	.LVL285:
 2364 01be 0AE0     		b	.L119
 2365              	.L118:
 604:lib/widget.c  ****     else
 605:lib/widget.c  ****         SetButtonSize(btn,0,g_DEFAULT_BUTTON_HEIGHT, BUTTON_X_3_3, BUTTON_Y_2_3,FALSE);
 2366              		.loc 1 605 0
 2367 01c0 324B     		ldr	r3, .L122
 2368 01c2 1A88     		ldrh	r2, [r3]
 2369 01c4 0023     		movs	r3, #0
 2370 01c6 0193     		str	r3, [sp, #4]
 2371 01c8 0F33     		adds	r3, r3, #15
 2372 01ca 0093     		str	r3, [sp]
 2373 01cc 093B     		subs	r3, r3, #9
 2374 01ce 0021     		movs	r1, #0
 2375 01d0 2800     		movs	r0, r5
 2376 01d2 FFF7FEFF 		bl	SetButtonSize
ARM GAS  C:\Users\luvsd\AppData\Local\Temp\cceWh3pe.s 			page 56


 2377              	.LVL286:
 2378              	.L119:
 606:lib/widget.c  ****     RectangleSizeShrink(&btn->rect,+10,-10,-2,+2);
 2379              		.loc 1 606 0
 2380 01d6 2000     		movs	r0, r4
 2381 01d8 4530     		adds	r0, r0, #69
 2382 01da FF30     		adds	r0, r0, #255
 2383 01dc 0223     		movs	r3, #2
 2384 01de 0093     		str	r3, [sp]
 2385 01e0 043B     		subs	r3, r3, #4
 2386 01e2 0A22     		movs	r2, #10
 2387 01e4 5242     		rsbs	r2, r2, #0
 2388 01e6 0A21     		movs	r1, #10
 2389 01e8 FFF7FEFF 		bl	RectangleSizeShrink
 2390              	.LVL287:
 607:lib/widget.c  ****     SetButtonStyleColor(btn,BUTTON_STYLE_R_BLUE);
 2391              		.loc 1 607 0
 2392 01ec 1221     		movs	r1, #18
 2393 01ee 2800     		movs	r0, r5
 2394 01f0 FFF7FEFF 		bl	SetButtonStyleColor
 2395              	.LVL288:
 608:lib/widget.c  ****     SetButtonText(btn,"");    
 2396              		.loc 1 608 0
 2397 01f4 2849     		ldr	r1, .L122+12
 2398 01f6 2800     		movs	r0, r5
 2399 01f8 FFF7FEFF 		bl	SetButtonText
 2400              	.LVL289:
 609:lib/widget.c  ****     btn->image = &g_imageUpArrow;  
 2401              		.loc 1 609 0
 2402 01fc 274B     		ldr	r3, .L122+16
 2403 01fe 0833     		adds	r3, r3, #8
 2404 0200 A022     		movs	r2, #160
 2405 0202 5200     		lsls	r2, r2, #1
 2406 0204 A350     		str	r3, [r4, r2]
 610:lib/widget.c  ****     DrawButton(btn);
 2407              		.loc 1 610 0
 2408 0206 2800     		movs	r0, r5
 2409 0208 FFF7FEFF 		bl	DrawButton
 2410              	.LVL290:
 611:lib/widget.c  ****     
 612:lib/widget.c  ****     // Down
 613:lib/widget.c  ****     btn = &menu->btn[UPDOWNTWO_DOWN_BUTTON];
 2411              		.loc 1 613 0
 2412 020c 2500     		movs	r5, r4
 2413              	.LVL291:
 2414 020e 8135     		adds	r5, r5, #129
 2415 0210 FF35     		adds	r5, r5, #255
 2416              	.LVL292:
 614:lib/widget.c  ****     
 615:lib/widget.c  ****     if(getMiscConfig()->bDisplayDir == DISPLAY_DIRECTION_PORTRAIT)
 2417              		.loc 1 615 0
 2418 0212 FFF7FEFF 		bl	getMiscConfig
 2419              	.LVL293:
 2420 0216 0388     		ldrh	r3, [r0]
 2421 0218 002B     		cmp	r3, #0
 2422 021a 0BD1     		bne	.L120
 616:lib/widget.c  ****         SetButtonSize(btn,0,g_DEFAULT_BUTTON_HEIGHT, BUTTON_X_2_2, BUTTON_Y_4_4,FALSE);
ARM GAS  C:\Users\luvsd\AppData\Local\Temp\cceWh3pe.s 			page 57


 2423              		.loc 1 616 0
 2424 021c 1B4B     		ldr	r3, .L122
 2425 021e 1A88     		ldrh	r2, [r3]
 2426 0220 0023     		movs	r3, #0
 2427 0222 0193     		str	r3, [sp, #4]
 2428 0224 1333     		adds	r3, r3, #19
 2429 0226 0093     		str	r3, [sp]
 2430 0228 103B     		subs	r3, r3, #16
 2431 022a 0021     		movs	r1, #0
 2432 022c 2800     		movs	r0, r5
 2433 022e FFF7FEFF 		bl	SetButtonSize
 2434              	.LVL294:
 2435 0232 0AE0     		b	.L121
 2436              	.L120:
 617:lib/widget.c  ****     else
 618:lib/widget.c  ****         SetButtonSize(btn,0,g_DEFAULT_BUTTON_HEIGHT, BUTTON_X_3_3, BUTTON_Y_3_3,FALSE);
 2437              		.loc 1 618 0
 2438 0234 154B     		ldr	r3, .L122
 2439 0236 1A88     		ldrh	r2, [r3]
 2440 0238 0023     		movs	r3, #0
 2441 023a 0193     		str	r3, [sp, #4]
 2442 023c 1033     		adds	r3, r3, #16
 2443 023e 0093     		str	r3, [sp]
 2444 0240 0A3B     		subs	r3, r3, #10
 2445 0242 0021     		movs	r1, #0
 2446 0244 2800     		movs	r0, r5
 2447 0246 FFF7FEFF 		bl	SetButtonSize
 2448              	.LVL295:
 2449              	.L121:
 619:lib/widget.c  ****     RectangleSizeShrink(&btn->rect,+10,-10,-2,+2);    
 2450              		.loc 1 619 0
 2451 024a 2000     		movs	r0, r4
 2452 024c 8530     		adds	r0, r0, #133
 2453 024e FF30     		adds	r0, r0, #255
 2454 0250 0223     		movs	r3, #2
 2455 0252 0093     		str	r3, [sp]
 2456 0254 043B     		subs	r3, r3, #4
 2457 0256 0A22     		movs	r2, #10
 2458 0258 5242     		rsbs	r2, r2, #0
 2459 025a 0A21     		movs	r1, #10
 2460 025c FFF7FEFF 		bl	RectangleSizeShrink
 2461              	.LVL296:
 620:lib/widget.c  ****     SetButtonStyleColor(btn,BUTTON_STYLE_R_RED);
 2462              		.loc 1 620 0
 2463 0260 0E21     		movs	r1, #14
 2464 0262 2800     		movs	r0, r5
 2465 0264 FFF7FEFF 		bl	SetButtonStyleColor
 2466              	.LVL297:
 621:lib/widget.c  ****     btn->image = &g_imageDownArrow;    
 2467              		.loc 1 621 0
 2468 0268 0C4B     		ldr	r3, .L122+16
 2469 026a 1033     		adds	r3, r3, #16
 2470 026c C022     		movs	r2, #192
 2471 026e 5200     		lsls	r2, r2, #1
 2472 0270 A350     		str	r3, [r4, r2]
 622:lib/widget.c  ****     SetButtonText(btn,"");    
 2473              		.loc 1 622 0
ARM GAS  C:\Users\luvsd\AppData\Local\Temp\cceWh3pe.s 			page 58


 2474 0272 0949     		ldr	r1, .L122+12
 2475 0274 2800     		movs	r0, r5
 2476 0276 FFF7FEFF 		bl	SetButtonText
 2477              	.LVL298:
 623:lib/widget.c  ****     DrawButton(btn);      
 2478              		.loc 1 623 0
 2479 027a 2800     		movs	r0, r5
 2480 027c FFF7FEFF 		bl	DrawButton
 2481              	.LVL299:
 624:lib/widget.c  **** }
 2482              		.loc 1 624 0
 2483 0280 08B0     		add	sp, sp, #32
 2484              		@ sp needed
 2485              	.LVL300:
 2486              	.LVL301:
 2487              	.LVL302:
 2488              	.LVL303:
 2489 0282 F0BC     		pop	{r4, r5, r6, r7}
 2490 0284 08BC     		pop	{r3}
 2491 0286 01B0     		add	sp, sp, #4
 2492 0288 1847     		bx	r3
 2493              	.L123:
 2494 028a C046     		.align	2
 2495              	.L122:
 2496 028c 00000000 		.word	g_DEFAULT_BUTTON_HEIGHT
 2497 0290 14000000 		.word	.LC31
 2498 0294 18000000 		.word	.LC33
 2499 0298 1C000000 		.word	.LC35
 2500 029c 00000000 		.word	.LANCHOR0
 2501              		.cfi_endproc
 2502              	.LFE77:
 2503              		.size	SetDrawUpDownTwoMenu, .-SetDrawUpDownTwoMenu
 2504              		.section	.text.SetDrawUpDownOneMenu,"ax",%progbits
 2505              		.align	2
 2506              		.global	SetDrawUpDownOneMenu
 2507              		.code	16
 2508              		.thumb_func
 2509              		.type	SetDrawUpDownOneMenu, %function
 2510              	SetDrawUpDownOneMenu:
 2511              	.LFB78:
 625:lib/widget.c  **** /*
 626:lib/widget.c  **** void SetDrawUpDownOneMenu(UP_DOWN_ONE_MENU *menu, char *first, const char *title, ...)
 627:lib/widget.c  **** {
 628:lib/widget.c  ****     va_list ap;
 629:lib/widget.c  ****     char buff[20];
 630:lib/widget.c  ****     va_start(ap, title);
 631:lib/widget.c  ****     vsprintf(buff, title, ap);
 632:lib/widget.c  ****     va_end(ap);
 633:lib/widget.c  ****     
 634:lib/widget.c  ****     SetDefaultButtonStyleArray(menu->btn,8);
 635:lib/widget.c  ****     
 636:lib/widget.c  ****     BUTTON *btn;
 637:lib/widget.c  ****     
 638:lib/widget.c  ****     // title
 639:lib/widget.c  ****     btn = &menu->btn[0];
 640:lib/widget.c  ****     SetButtonSize(btn,0,g_DEFAULT_BUTTON_HEIGHT,BUTTON_X_FULL,BUTTON_Y_FIRST,FALSE);
 641:lib/widget.c  ****     SetButtonStyleColor(btn,BUTTON_STYLE_ORANGE);        
ARM GAS  C:\Users\luvsd\AppData\Local\Temp\cceWh3pe.s 			page 59


 642:lib/widget.c  ****     SetButtonText(btn, buff);
 643:lib/widget.c  ****     DrawButton(btn);
 644:lib/widget.c  ****     
 645:lib/widget.c  ****     EraseBlankArea(btn->rect.bottom+1,FALSE);  
 646:lib/widget.c  ****     
 647:lib/widget.c  ****     // text
 648:lib/widget.c  ****     btn = &menu->btn[1];
 649:lib/widget.c  ****     if(getMiscConfig()->bDisplayDir == DISPLAY_DIRECTION_PORTRAIT)
 650:lib/widget.c  ****         SetButtonSize(btn,0,g_DEFAULT_BUTTON_HEIGHT, BUTTON_X_1_2, BUTTON_Y_2_4,FALSE);
 651:lib/widget.c  ****     else
 652:lib/widget.c  ****         SetButtonSize(btn,0,g_DEFAULT_BUTTON_HEIGHT, BUTTON_X_1_3, BUTTON_Y_2_3,FALSE);  
 653:lib/widget.c  **** 
 654:lib/widget.c  ****     SetButtonStyleColor(btn,BUTTON_STYLE_WHITE);        
 655:lib/widget.c  ****     SetButtonText(btn, first);
 656:lib/widget.c  ****     btn->align = TEXT_ALIGN_LEFT;    
 657:lib/widget.c  ****     DrawButton(btn);
 658:lib/widget.c  ****     
 659:lib/widget.c  ****     // value
 660:lib/widget.c  ****     btn = &menu->btn[2];
 661:lib/widget.c  ****     if(getMiscConfig()->bDisplayDir == DISPLAY_DIRECTION_PORTRAIT)
 662:lib/widget.c  ****         SetButtonSize(btn,0,g_DEFAULT_BUTTON_HEIGHT, BUTTON_X_2_2, BUTTON_Y_2_4,FALSE);
 663:lib/widget.c  ****     else
 664:lib/widget.c  ****         SetButtonSize(btn,0,g_DEFAULT_BUTTON_HEIGHT, BUTTON_X_2_3, BUTTON_Y_2_3,FALSE);
 665:lib/widget.c  ****     SetButtonStyleColor(btn,BUTTON_STYLE_YELLOW);     
 666:lib/widget.c  ****   //  SetButtonText(btn, "9999");
 667:lib/widget.c  ****     btn->align = TEXT_ALIGN_RIGHT;
 668:lib/widget.c  ****     //DrawButton(btn);
 669:lib/widget.c  ****     
 670:lib/widget.c  ****     // Up
 671:lib/widget.c  ****     btn = &menu->btn[3];
 672:lib/widget.c  ****     
 673:lib/widget.c  ****     if(getMiscConfig()->bDisplayDir == DISPLAY_DIRECTION_PORTRAIT)
 674:lib/widget.c  ****         SetButtonSize(btn,0,g_DEFAULT_BUTTON_HEIGHT, BUTTON_X_1_2, BUTTON_Y_3_4,FALSE);
 675:lib/widget.c  ****     else
 676:lib/widget.c  ****         SetButtonSize(btn,0,g_DEFAULT_BUTTON_HEIGHT, BUTTON_X_4_4, BUTTON_Y_2_3,FALSE); 
 677:lib/widget.c  ****     RectangleSizeShrink(&btn->rect,+10,-10,-2,+2);
 678:lib/widget.c  ****     SetButtonStyleColor(btn,BUTTON_STYLE_R_BLUE);
 679:lib/widget.c  ****     SetButtonText(btn,"");    
 680:lib/widget.c  ****     btn->image = &g_imageUpArrow;  
 681:lib/widget.c  ****     DrawButton(btn);
 682:lib/widget.c  ****     
 683:lib/widget.c  ****     // Down
 684:lib/widget.c  ****     btn = &menu->btn[4];
 685:lib/widget.c  ****     
 686:lib/widget.c  ****     if(getMiscConfig()->bDisplayDir == DISPLAY_DIRECTION_PORTRAIT)
 687:lib/widget.c  ****         SetButtonSize(btn,0,g_DEFAULT_BUTTON_HEIGHT, BUTTON_X_2_2, BUTTON_Y_3_4,FALSE);
 688:lib/widget.c  ****     else
 689:lib/widget.c  ****         SetButtonSize(btn,0,g_DEFAULT_BUTTON_HEIGHT, BUTTON_X_4_4, BUTTON_Y_3_3,FALSE);
 690:lib/widget.c  ****     RectangleSizeShrink(&btn->rect,+10,-10,-2,+2);    
 691:lib/widget.c  ****     SetButtonStyleColor(btn,BUTTON_STYLE_R_RED);
 692:lib/widget.c  ****     btn->image = &g_imageDownArrow;    
 693:lib/widget.c  ****     SetButtonText(btn,"");    
 694:lib/widget.c  ****     DrawButton(btn);
 695:lib/widget.c  ****     
 696:lib/widget.c  ****     // Incre 1
 697:lib/widget.c  ****     btn = &menu->btn[5];
 698:lib/widget.c  ****     
ARM GAS  C:\Users\luvsd\AppData\Local\Temp\cceWh3pe.s 			page 60


 699:lib/widget.c  ****     if(getMiscConfig()->bDisplayDir == DISPLAY_DIRECTION_PORTRAIT)
 700:lib/widget.c  ****         SetButtonSize(btn,0,g_DEFAULT_BUTTON_HEIGHT, BUTTON_X_1_3, BUTTON_Y_4_4,FALSE);
 701:lib/widget.c  ****     else
 702:lib/widget.c  ****         SetButtonSize(btn,0,g_DEFAULT_BUTTON_HEIGHT, BUTTON_X_1_4, BUTTON_Y_3_3,FALSE);
 703:lib/widget.c  ****         
 704:lib/widget.c  ****     RectangleSizeShrink(&btn->rect,+10,-10,0,0);
 705:lib/widget.c  ****     SetButtonStyleColor(btn,BUTTON_STYLE_WHITE);
 706:lib/widget.c  ****     SetButtonText(btn,"%d", menu->inc[0]);
 707:lib/widget.c  ****     btn->outlineColor = DARKGREY;
 708:lib/widget.c  ****     //DrawButton(btn);
 709:lib/widget.c  ****     
 710:lib/widget.c  ****     // Incre 2
 711:lib/widget.c  ****     btn = &menu->btn[6];
 712:lib/widget.c  ****     
 713:lib/widget.c  ****     if(getMiscConfig()->bDisplayDir == DISPLAY_DIRECTION_PORTRAIT)
 714:lib/widget.c  ****         SetButtonSize(btn,0,g_DEFAULT_BUTTON_HEIGHT, BUTTON_X_2_3, BUTTON_Y_4_4,FALSE);
 715:lib/widget.c  ****     else
 716:lib/widget.c  ****         SetButtonSize(btn,0,g_DEFAULT_BUTTON_HEIGHT, BUTTON_X_2_4, BUTTON_Y_3_3,FALSE);
 717:lib/widget.c  ****         
 718:lib/widget.c  ****     RectangleSizeShrink(&btn->rect,+10,-10,0,0);
 719:lib/widget.c  ****     SetButtonStyleColor(btn,BUTTON_STYLE_WHITE);
 720:lib/widget.c  ****     SetButtonText(btn,"%d", menu->inc[1]); 
 721:lib/widget.c  ****     btn->outlineColor = DARKGREY;
 722:lib/widget.c  ****     //DrawButton(btn);
 723:lib/widget.c  ****     
 724:lib/widget.c  ****     // Incre 3
 725:lib/widget.c  ****     btn = &menu->btn[7];
 726:lib/widget.c  ****     
 727:lib/widget.c  ****     if(getMiscConfig()->bDisplayDir == DISPLAY_DIRECTION_PORTRAIT)
 728:lib/widget.c  ****         SetButtonSize(btn,0,g_DEFAULT_BUTTON_HEIGHT, BUTTON_X_3_3, BUTTON_Y_4_4,FALSE);
 729:lib/widget.c  ****     else
 730:lib/widget.c  ****         SetButtonSize(btn,0,g_DEFAULT_BUTTON_HEIGHT, BUTTON_X_3_4, BUTTON_Y_3_3,FALSE);
 731:lib/widget.c  ****         
 732:lib/widget.c  ****     RectangleSizeShrink(&btn->rect,+10,-10,0,0);
 733:lib/widget.c  ****     SetButtonStyleColor(btn,BUTTON_STYLE_WHITE);
 734:lib/widget.c  ****     SetButtonText(btn,"%d", menu->inc[2]);
 735:lib/widget.c  ****     btn->outlineColor = DARKGREY;
 736:lib/widget.c  ****    // DrawButton(btn);
 737:lib/widget.c  **** }
 738:lib/widget.c  **** */
 739:lib/widget.c  **** 
 740:lib/widget.c  **** // increase 숫자가 2만 있는 것
 741:lib/widget.c  **** void SetDrawUpDownOneMenu(UP_DOWN_ONE_MENU *menu, char *first, const char *title, ...)
 742:lib/widget.c  **** {
 2512              		.loc 1 742 0
 2513              		.cfi_startproc
 2514              		@ args = 4, pretend = 8, frame = 24
 2515              		@ frame_needed = 0, uses_anonymous_args = 1
 2516              	.LVL304:
 2517 0000 0CB4     		push	{r2, r3}
 2518              		.cfi_def_cfa_offset 8
 2519 0002 70B5     		push	{r4, r5, r6, lr}
 2520              		.cfi_def_cfa_offset 24
 2521              		.cfi_offset 4, -24
 2522              		.cfi_offset 5, -20
 2523              		.cfi_offset 6, -16
 2524              		.cfi_offset 14, -12
ARM GAS  C:\Users\luvsd\AppData\Local\Temp\cceWh3pe.s 			page 61


 2525 0004 88B0     		sub	sp, sp, #32
 2526              		.cfi_def_cfa_offset 56
 2527 0006 0400     		movs	r4, r0
 2528 0008 0D00     		movs	r5, r1
 2529 000a 0CAA     		add	r2, sp, #48
 2530 000c 02CA     		ldmia	r2!, {r1}
 2531              	.LVL305:
 743:lib/widget.c  ****     va_list ap;
 744:lib/widget.c  ****     char buff[20];
 745:lib/widget.c  ****     va_start(ap, title);
 2532              		.loc 1 745 0
 2533 000e 0792     		str	r2, [sp, #28]
 746:lib/widget.c  ****     vsprintf(buff, title, ap);
 2534              		.loc 1 746 0
 2535 0010 02A8     		add	r0, sp, #8
 2536              	.LVL306:
 2537 0012 FFF7FEFF 		bl	vsprintf
 2538              	.LVL307:
 747:lib/widget.c  ****     va_end(ap);
 748:lib/widget.c  ****     
 749:lib/widget.c  ****     SetDefaultButtonStyleArray(menu->btn,8);
 2539              		.loc 1 749 0
 2540 0016 0821     		movs	r1, #8
 2541 0018 2000     		movs	r0, r4
 2542 001a FFF7FEFF 		bl	SetDefaultButtonStyleArray
 2543              	.LVL308:
 750:lib/widget.c  ****     
 751:lib/widget.c  ****     BUTTON *btn;
 752:lib/widget.c  ****     
 753:lib/widget.c  ****     // title
 754:lib/widget.c  ****     btn = &menu->btn[0];
 755:lib/widget.c  ****     SetButtonSize(btn,0,g_DEFAULT_BUTTON_HEIGHT,BUTTON_X_FULL,BUTTON_Y_FIRST,FALSE);
 2544              		.loc 1 755 0
 2545 001e D24B     		ldr	r3, .L146
 2546 0020 1A88     		ldrh	r2, [r3]
 2547 0022 0023     		movs	r3, #0
 2548 0024 0193     		str	r3, [sp, #4]
 2549 0026 0D33     		adds	r3, r3, #13
 2550 0028 0093     		str	r3, [sp]
 2551 002a 0C3B     		subs	r3, r3, #12
 2552 002c 0021     		movs	r1, #0
 2553 002e 2000     		movs	r0, r4
 2554 0030 FFF7FEFF 		bl	SetButtonSize
 2555              	.LVL309:
 756:lib/widget.c  ****     SetButtonStyleColor(btn,BUTTON_STYLE_ORANGE);        
 2556              		.loc 1 756 0
 2557 0034 0721     		movs	r1, #7
 2558 0036 2000     		movs	r0, r4
 2559 0038 FFF7FEFF 		bl	SetButtonStyleColor
 2560              	.LVL310:
 757:lib/widget.c  ****     SetButtonText(btn, buff);
 2561              		.loc 1 757 0
 2562 003c 02A9     		add	r1, sp, #8
 2563 003e 2000     		movs	r0, r4
 2564 0040 FFF7FEFF 		bl	SetButtonText
 2565              	.LVL311:
 758:lib/widget.c  ****     DrawButton(btn);
ARM GAS  C:\Users\luvsd\AppData\Local\Temp\cceWh3pe.s 			page 62


 2566              		.loc 1 758 0
 2567 0044 2000     		movs	r0, r4
 2568 0046 FFF7FEFF 		bl	DrawButton
 2569              	.LVL312:
 759:lib/widget.c  ****     
 760:lib/widget.c  ****     EraseBlankArea(btn->rect.bottom+1,FALSE);  
 2570              		.loc 1 760 0
 2571 004a 6089     		ldrh	r0, [r4, #10]
 2572 004c 0130     		adds	r0, r0, #1
 2573 004e 80B2     		uxth	r0, r0
 2574 0050 0021     		movs	r1, #0
 2575 0052 FFF7FEFF 		bl	EraseBlankArea
 2576              	.LVL313:
 761:lib/widget.c  ****     
 762:lib/widget.c  ****     // text
 763:lib/widget.c  ****     btn = &menu->btn[1];
 2577              		.loc 1 763 0
 2578 0056 2600     		movs	r6, r4
 2579 0058 4036     		adds	r6, r6, #64
 2580              	.LVL314:
 764:lib/widget.c  ****     if(getMiscConfig()->bDisplayDir == DISPLAY_DIRECTION_PORTRAIT)
 2581              		.loc 1 764 0
 2582 005a FFF7FEFF 		bl	getMiscConfig
 2583              	.LVL315:
 2584 005e 0388     		ldrh	r3, [r0]
 2585 0060 002B     		cmp	r3, #0
 2586 0062 0BD1     		bne	.L125
 765:lib/widget.c  ****         SetButtonSize(btn,0,g_DEFAULT_BUTTON_HEIGHT, BUTTON_X_1_2, BUTTON_Y_2_4,FALSE);
 2587              		.loc 1 765 0
 2588 0064 C04B     		ldr	r3, .L146
 2589 0066 1A88     		ldrh	r2, [r3]
 2590 0068 0023     		movs	r3, #0
 2591 006a 0193     		str	r3, [sp, #4]
 2592 006c 1133     		adds	r3, r3, #17
 2593 006e 0093     		str	r3, [sp]
 2594 0070 0F3B     		subs	r3, r3, #15
 2595 0072 0021     		movs	r1, #0
 2596 0074 3000     		movs	r0, r6
 2597 0076 FFF7FEFF 		bl	SetButtonSize
 2598              	.LVL316:
 2599 007a 0AE0     		b	.L126
 2600              	.L125:
 766:lib/widget.c  ****     else
 767:lib/widget.c  ****         SetButtonSize(btn,0,g_DEFAULT_BUTTON_HEIGHT, BUTTON_X_1_3, BUTTON_Y_2_3,FALSE);  
 2601              		.loc 1 767 0
 2602 007c BA4B     		ldr	r3, .L146
 2603 007e 1A88     		ldrh	r2, [r3]
 2604 0080 0023     		movs	r3, #0
 2605 0082 0193     		str	r3, [sp, #4]
 2606 0084 0F33     		adds	r3, r3, #15
 2607 0086 0093     		str	r3, [sp]
 2608 0088 0B3B     		subs	r3, r3, #11
 2609 008a 0021     		movs	r1, #0
 2610 008c 3000     		movs	r0, r6
 2611 008e FFF7FEFF 		bl	SetButtonSize
 2612              	.LVL317:
 2613              	.L126:
ARM GAS  C:\Users\luvsd\AppData\Local\Temp\cceWh3pe.s 			page 63


 768:lib/widget.c  **** 
 769:lib/widget.c  ****     SetButtonStyleColor(btn,BUTTON_STYLE_WHITE);        
 2614              		.loc 1 769 0
 2615 0092 0521     		movs	r1, #5
 2616 0094 3000     		movs	r0, r6
 2617 0096 FFF7FEFF 		bl	SetButtonStyleColor
 2618              	.LVL318:
 770:lib/widget.c  ****     SetButtonText(btn, first);
 2619              		.loc 1 770 0
 2620 009a 2900     		movs	r1, r5
 2621 009c 3000     		movs	r0, r6
 2622 009e FFF7FEFF 		bl	SetButtonText
 2623              	.LVL319:
 771:lib/widget.c  ****     btn->align = TEXT_ALIGN_LEFT;    
 2624              		.loc 1 771 0
 2625 00a2 0122     		movs	r2, #1
 2626 00a4 2300     		movs	r3, r4
 2627 00a6 7A33     		adds	r3, r3, #122
 2628 00a8 1A70     		strb	r2, [r3]
 772:lib/widget.c  ****     DrawButton(btn);
 2629              		.loc 1 772 0
 2630 00aa 3000     		movs	r0, r6
 2631 00ac FFF7FEFF 		bl	DrawButton
 2632              	.LVL320:
 773:lib/widget.c  ****     
 774:lib/widget.c  ****     // value
 775:lib/widget.c  ****     btn = &menu->btn[2];
 2633              		.loc 1 775 0
 2634 00b0 2500     		movs	r5, r4
 2635              	.LVL321:
 2636 00b2 8035     		adds	r5, r5, #128
 2637              	.LVL322:
 776:lib/widget.c  ****     if(getMiscConfig()->bDisplayDir == DISPLAY_DIRECTION_PORTRAIT)
 2638              		.loc 1 776 0
 2639 00b4 FFF7FEFF 		bl	getMiscConfig
 2640              	.LVL323:
 2641 00b8 0388     		ldrh	r3, [r0]
 2642 00ba 002B     		cmp	r3, #0
 2643 00bc 0BD1     		bne	.L127
 777:lib/widget.c  ****         SetButtonSize(btn,0,g_DEFAULT_BUTTON_HEIGHT, BUTTON_X_2_2, BUTTON_Y_2_4,FALSE);
 2644              		.loc 1 777 0
 2645 00be AA4B     		ldr	r3, .L146
 2646 00c0 1A88     		ldrh	r2, [r3]
 2647 00c2 0023     		movs	r3, #0
 2648 00c4 0193     		str	r3, [sp, #4]
 2649 00c6 1133     		adds	r3, r3, #17
 2650 00c8 0093     		str	r3, [sp]
 2651 00ca 0E3B     		subs	r3, r3, #14
 2652 00cc 0021     		movs	r1, #0
 2653 00ce 2800     		movs	r0, r5
 2654 00d0 FFF7FEFF 		bl	SetButtonSize
 2655              	.LVL324:
 2656 00d4 0AE0     		b	.L128
 2657              	.L127:
 778:lib/widget.c  ****     else
 779:lib/widget.c  ****         SetButtonSize(btn,0,g_DEFAULT_BUTTON_HEIGHT, BUTTON_X_2_3, BUTTON_Y_2_3,FALSE);
 2658              		.loc 1 779 0
ARM GAS  C:\Users\luvsd\AppData\Local\Temp\cceWh3pe.s 			page 64


 2659 00d6 A44B     		ldr	r3, .L146
 2660 00d8 1A88     		ldrh	r2, [r3]
 2661 00da 0023     		movs	r3, #0
 2662 00dc 0193     		str	r3, [sp, #4]
 2663 00de 0F33     		adds	r3, r3, #15
 2664 00e0 0093     		str	r3, [sp]
 2665 00e2 0A3B     		subs	r3, r3, #10
 2666 00e4 0021     		movs	r1, #0
 2667 00e6 2800     		movs	r0, r5
 2668 00e8 FFF7FEFF 		bl	SetButtonSize
 2669              	.LVL325:
 2670              	.L128:
 780:lib/widget.c  ****     SetButtonStyleColor(btn,BUTTON_STYLE_YELLOW);     
 2671              		.loc 1 780 0
 2672 00ec 0821     		movs	r1, #8
 2673 00ee 2800     		movs	r0, r5
 2674 00f0 FFF7FEFF 		bl	SetButtonStyleColor
 2675              	.LVL326:
 781:lib/widget.c  ****   //  SetButtonText(btn, "9999");
 782:lib/widget.c  ****     btn->align = TEXT_ALIGN_RIGHT;
 2676              		.loc 1 782 0
 2677 00f4 0222     		movs	r2, #2
 2678 00f6 2300     		movs	r3, r4
 2679 00f8 BA33     		adds	r3, r3, #186
 2680 00fa 1A70     		strb	r2, [r3]
 783:lib/widget.c  ****     //DrawButton(btn);
 784:lib/widget.c  ****     
 785:lib/widget.c  ****     // Up
 786:lib/widget.c  ****     btn = &menu->btn[3];
 2681              		.loc 1 786 0
 2682 00fc 2500     		movs	r5, r4
 2683              	.LVL327:
 2684 00fe C035     		adds	r5, r5, #192
 2685              	.LVL328:
 787:lib/widget.c  ****     
 788:lib/widget.c  ****     if(getMiscConfig()->bDisplayDir == DISPLAY_DIRECTION_PORTRAIT)
 2686              		.loc 1 788 0
 2687 0100 FFF7FEFF 		bl	getMiscConfig
 2688              	.LVL329:
 2689 0104 0388     		ldrh	r3, [r0]
 2690 0106 002B     		cmp	r3, #0
 2691 0108 0BD1     		bne	.L129
 789:lib/widget.c  ****         SetButtonSize(btn,0,g_DEFAULT_BUTTON_HEIGHT, BUTTON_X_1_2, BUTTON_Y_3_4,FALSE);
 2692              		.loc 1 789 0
 2693 010a 974B     		ldr	r3, .L146
 2694 010c 1A88     		ldrh	r2, [r3]
 2695 010e 0023     		movs	r3, #0
 2696 0110 0193     		str	r3, [sp, #4]
 2697 0112 1233     		adds	r3, r3, #18
 2698 0114 0093     		str	r3, [sp]
 2699 0116 103B     		subs	r3, r3, #16
 2700 0118 0021     		movs	r1, #0
 2701 011a 2800     		movs	r0, r5
 2702 011c FFF7FEFF 		bl	SetButtonSize
 2703              	.LVL330:
 2704 0120 0AE0     		b	.L130
 2705              	.L129:
ARM GAS  C:\Users\luvsd\AppData\Local\Temp\cceWh3pe.s 			page 65


 790:lib/widget.c  ****     else
 791:lib/widget.c  ****         SetButtonSize(btn,0,g_DEFAULT_BUTTON_HEIGHT, BUTTON_X_4_4, BUTTON_Y_2_3,FALSE); 
 2706              		.loc 1 791 0
 2707 0122 914B     		ldr	r3, .L146
 2708 0124 1A88     		ldrh	r2, [r3]
 2709 0126 0023     		movs	r3, #0
 2710 0128 0193     		str	r3, [sp, #4]
 2711 012a 0F33     		adds	r3, r3, #15
 2712 012c 0093     		str	r3, [sp]
 2713 012e 053B     		subs	r3, r3, #5
 2714 0130 0021     		movs	r1, #0
 2715 0132 2800     		movs	r0, r5
 2716 0134 FFF7FEFF 		bl	SetButtonSize
 2717              	.LVL331:
 2718              	.L130:
 792:lib/widget.c  ****     RectangleSizeShrink(&btn->rect,+10,-10,-2,+2);
 2719              		.loc 1 792 0
 2720 0138 2000     		movs	r0, r4
 2721 013a C430     		adds	r0, r0, #196
 2722 013c 0223     		movs	r3, #2
 2723 013e 0093     		str	r3, [sp]
 2724 0140 043B     		subs	r3, r3, #4
 2725 0142 0A22     		movs	r2, #10
 2726 0144 5242     		rsbs	r2, r2, #0
 2727 0146 0A21     		movs	r1, #10
 2728 0148 FFF7FEFF 		bl	RectangleSizeShrink
 2729              	.LVL332:
 793:lib/widget.c  ****     SetButtonStyleColor(btn,BUTTON_STYLE_R_BLUE);
 2730              		.loc 1 793 0
 2731 014c 1221     		movs	r1, #18
 2732 014e 2800     		movs	r0, r5
 2733 0150 FFF7FEFF 		bl	SetButtonStyleColor
 2734              	.LVL333:
 794:lib/widget.c  ****     SetButtonText(btn,"");    
 2735              		.loc 1 794 0
 2736 0154 8549     		ldr	r1, .L146+4
 2737 0156 2800     		movs	r0, r5
 2738 0158 FFF7FEFF 		bl	SetButtonText
 2739              	.LVL334:
 795:lib/widget.c  ****     btn->image = &g_imageUpArrow;  
 2740              		.loc 1 795 0
 2741 015c 844B     		ldr	r3, .L146+8
 2742 015e 0833     		adds	r3, r3, #8
 2743 0160 C022     		movs	r2, #192
 2744 0162 A350     		str	r3, [r4, r2]
 796:lib/widget.c  ****     DrawButton(btn);
 2745              		.loc 1 796 0
 2746 0164 2800     		movs	r0, r5
 2747 0166 FFF7FEFF 		bl	DrawButton
 2748              	.LVL335:
 797:lib/widget.c  ****     
 798:lib/widget.c  ****     // Down
 799:lib/widget.c  ****     btn = &menu->btn[4];
 2749              		.loc 1 799 0
 2750 016a 651C     		adds	r5, r4, #1
 2751              	.LVL336:
 2752 016c FF35     		adds	r5, r5, #255
ARM GAS  C:\Users\luvsd\AppData\Local\Temp\cceWh3pe.s 			page 66


 2753              	.LVL337:
 800:lib/widget.c  ****     
 801:lib/widget.c  ****     if(getMiscConfig()->bDisplayDir == DISPLAY_DIRECTION_PORTRAIT)
 2754              		.loc 1 801 0
 2755 016e FFF7FEFF 		bl	getMiscConfig
 2756              	.LVL338:
 2757 0172 0388     		ldrh	r3, [r0]
 2758 0174 002B     		cmp	r3, #0
 2759 0176 0BD1     		bne	.L131
 802:lib/widget.c  ****         SetButtonSize(btn,0,g_DEFAULT_BUTTON_HEIGHT, BUTTON_X_2_2, BUTTON_Y_3_4,FALSE);
 2760              		.loc 1 802 0
 2761 0178 7B4B     		ldr	r3, .L146
 2762 017a 1A88     		ldrh	r2, [r3]
 2763 017c 0023     		movs	r3, #0
 2764 017e 0193     		str	r3, [sp, #4]
 2765 0180 1233     		adds	r3, r3, #18
 2766 0182 0093     		str	r3, [sp]
 2767 0184 0F3B     		subs	r3, r3, #15
 2768 0186 0021     		movs	r1, #0
 2769 0188 2800     		movs	r0, r5
 2770 018a FFF7FEFF 		bl	SetButtonSize
 2771              	.LVL339:
 2772 018e 0AE0     		b	.L132
 2773              	.L131:
 803:lib/widget.c  ****     else
 804:lib/widget.c  ****         SetButtonSize(btn,0,g_DEFAULT_BUTTON_HEIGHT, BUTTON_X_4_4, BUTTON_Y_3_3,FALSE);
 2774              		.loc 1 804 0
 2775 0190 754B     		ldr	r3, .L146
 2776 0192 1A88     		ldrh	r2, [r3]
 2777 0194 0023     		movs	r3, #0
 2778 0196 0193     		str	r3, [sp, #4]
 2779 0198 1033     		adds	r3, r3, #16
 2780 019a 0093     		str	r3, [sp]
 2781 019c 063B     		subs	r3, r3, #6
 2782 019e 0021     		movs	r1, #0
 2783 01a0 2800     		movs	r0, r5
 2784 01a2 FFF7FEFF 		bl	SetButtonSize
 2785              	.LVL340:
 2786              	.L132:
 805:lib/widget.c  ****     RectangleSizeShrink(&btn->rect,+10,-10,-2,+2);    
 2787              		.loc 1 805 0
 2788 01a6 601D     		adds	r0, r4, #5
 2789 01a8 FF30     		adds	r0, r0, #255
 2790 01aa 0223     		movs	r3, #2
 2791 01ac 0093     		str	r3, [sp]
 2792 01ae 043B     		subs	r3, r3, #4
 2793 01b0 0A22     		movs	r2, #10
 2794 01b2 5242     		rsbs	r2, r2, #0
 2795 01b4 0A21     		movs	r1, #10
 2796 01b6 FFF7FEFF 		bl	RectangleSizeShrink
 2797              	.LVL341:
 806:lib/widget.c  ****     SetButtonStyleColor(btn,BUTTON_STYLE_R_RED);
 2798              		.loc 1 806 0
 2799 01ba 0E21     		movs	r1, #14
 2800 01bc 2800     		movs	r0, r5
 2801 01be FFF7FEFF 		bl	SetButtonStyleColor
 2802              	.LVL342:
ARM GAS  C:\Users\luvsd\AppData\Local\Temp\cceWh3pe.s 			page 67


 807:lib/widget.c  ****     btn->image = &g_imageDownArrow;    
 2803              		.loc 1 807 0
 2804 01c2 6B4B     		ldr	r3, .L146+8
 2805 01c4 1033     		adds	r3, r3, #16
 2806 01c6 8022     		movs	r2, #128
 2807 01c8 5200     		lsls	r2, r2, #1
 2808 01ca A350     		str	r3, [r4, r2]
 808:lib/widget.c  ****     SetButtonText(btn,"");    
 2809              		.loc 1 808 0
 2810 01cc 6749     		ldr	r1, .L146+4
 2811 01ce 2800     		movs	r0, r5
 2812 01d0 FFF7FEFF 		bl	SetButtonText
 2813              	.LVL343:
 809:lib/widget.c  ****     DrawButton(btn);
 2814              		.loc 1 809 0
 2815 01d4 2800     		movs	r0, r5
 2816 01d6 FFF7FEFF 		bl	DrawButton
 2817              	.LVL344:
 810:lib/widget.c  ****     
 811:lib/widget.c  ****     // Incre 1
 812:lib/widget.c  ****     btn = &menu->btn[5];
 2818              		.loc 1 812 0
 2819 01da 2500     		movs	r5, r4
 2820              	.LVL345:
 2821 01dc 4135     		adds	r5, r5, #65
 2822 01de FF35     		adds	r5, r5, #255
 2823              	.LVL346:
 813:lib/widget.c  ****     
 814:lib/widget.c  ****     if(getMiscConfig()->bDisplayDir == DISPLAY_DIRECTION_PORTRAIT)
 2824              		.loc 1 814 0
 2825 01e0 FFF7FEFF 		bl	getMiscConfig
 2826              	.LVL347:
 2827 01e4 0388     		ldrh	r3, [r0]
 2828 01e6 002B     		cmp	r3, #0
 2829 01e8 0BD1     		bne	.L133
 815:lib/widget.c  ****         SetButtonSize(btn,0,g_DEFAULT_BUTTON_HEIGHT, BUTTON_X_1_3, BUTTON_Y_4_4,FALSE);
 2830              		.loc 1 815 0
 2831 01ea 5F4B     		ldr	r3, .L146
 2832 01ec 1A88     		ldrh	r2, [r3]
 2833 01ee 0023     		movs	r3, #0
 2834 01f0 0193     		str	r3, [sp, #4]
 2835 01f2 1333     		adds	r3, r3, #19
 2836 01f4 0093     		str	r3, [sp]
 2837 01f6 0F3B     		subs	r3, r3, #15
 2838 01f8 0021     		movs	r1, #0
 2839 01fa 2800     		movs	r0, r5
 2840 01fc FFF7FEFF 		bl	SetButtonSize
 2841              	.LVL348:
 2842 0200 0AE0     		b	.L134
 2843              	.L133:
 816:lib/widget.c  ****     else
 817:lib/widget.c  ****         SetButtonSize(btn,0,g_DEFAULT_BUTTON_HEIGHT, BUTTON_X_1_4, BUTTON_Y_3_3,FALSE);
 2844              		.loc 1 817 0
 2845 0202 594B     		ldr	r3, .L146
 2846 0204 1A88     		ldrh	r2, [r3]
 2847 0206 0023     		movs	r3, #0
 2848 0208 0193     		str	r3, [sp, #4]
ARM GAS  C:\Users\luvsd\AppData\Local\Temp\cceWh3pe.s 			page 68


 2849 020a 1033     		adds	r3, r3, #16
 2850 020c 0093     		str	r3, [sp]
 2851 020e 093B     		subs	r3, r3, #9
 2852 0210 0021     		movs	r1, #0
 2853 0212 2800     		movs	r0, r5
 2854 0214 FFF7FEFF 		bl	SetButtonSize
 2855              	.LVL349:
 2856              	.L134:
 818:lib/widget.c  ****         
 819:lib/widget.c  ****     RectangleSizeShrink(&btn->rect,+10,-10,0,0);
 2857              		.loc 1 819 0
 2858 0218 2600     		movs	r6, r4
 2859 021a 4536     		adds	r6, r6, #69
 2860 021c FF36     		adds	r6, r6, #255
 2861 021e 0023     		movs	r3, #0
 2862 0220 0093     		str	r3, [sp]
 2863 0222 0A22     		movs	r2, #10
 2864 0224 5242     		rsbs	r2, r2, #0
 2865 0226 0A21     		movs	r1, #10
 2866 0228 3000     		movs	r0, r6
 2867 022a FFF7FEFF 		bl	RectangleSizeShrink
 2868              	.LVL350:
 820:lib/widget.c  ****     
 821:lib/widget.c  ****     if(menu->inc[2] == 0) RectangleSizeShrink(&btn->rect,0, 20,0,0);   
 2869              		.loc 1 821 0
 2870 022e 8123     		movs	r3, #129
 2871 0230 9B00     		lsls	r3, r3, #2
 2872 0232 E35A     		ldrh	r3, [r4, r3]
 2873 0234 002B     		cmp	r3, #0
 2874 0236 05D1     		bne	.L135
 2875              		.loc 1 821 0 is_stmt 0 discriminator 1
 2876 0238 0093     		str	r3, [sp]
 2877 023a 1422     		movs	r2, #20
 2878 023c 0021     		movs	r1, #0
 2879 023e 3000     		movs	r0, r6
 2880 0240 FFF7FEFF 		bl	RectangleSizeShrink
 2881              	.LVL351:
 2882              	.L135:
 822:lib/widget.c  ****     SetButtonStyleColor(btn,BUTTON_STYLE_WHITE);
 2883              		.loc 1 822 0 is_stmt 1
 2884 0244 0521     		movs	r1, #5
 2885 0246 2800     		movs	r0, r5
 2886 0248 FFF7FEFF 		bl	SetButtonStyleColor
 2887              	.LVL352:
 823:lib/widget.c  ****     SetButtonText(btn,"%d", menu->inc[0]);
 2888              		.loc 1 823 0
 2889 024c 8023     		movs	r3, #128
 2890 024e 9B00     		lsls	r3, r3, #2
 2891 0250 E25A     		ldrh	r2, [r4, r3]
 2892 0252 4849     		ldr	r1, .L146+12
 2893 0254 2800     		movs	r0, r5
 2894 0256 FFF7FEFF 		bl	SetButtonText
 2895              	.LVL353:
 824:lib/widget.c  ****     btn->outlineColor = DARKGREY;
 2896              		.loc 1 824 0
 2897 025a 2300     		movs	r3, r4
 2898 025c 4133     		adds	r3, r3, #65
ARM GAS  C:\Users\luvsd\AppData\Local\Temp\cceWh3pe.s 			page 69


 2899 025e FF33     		adds	r3, r3, #255
 2900 0260 454A     		ldr	r2, .L146+16
 2901 0262 9A86     		strh	r2, [r3, #52]
 825:lib/widget.c  ****     //DrawButton(btn);
 826:lib/widget.c  ****     
 827:lib/widget.c  ****     // Incre 2
 828:lib/widget.c  ****     btn = &menu->btn[6];
 2902              		.loc 1 828 0
 2903 0264 2500     		movs	r5, r4
 2904              	.LVL354:
 2905 0266 8135     		adds	r5, r5, #129
 2906 0268 FF35     		adds	r5, r5, #255
 2907              	.LVL355:
 829:lib/widget.c  ****     
 830:lib/widget.c  ****     if(menu->inc[2] != 0)
 2908              		.loc 1 830 0
 2909 026a 8123     		movs	r3, #129
 2910 026c 9B00     		lsls	r3, r3, #2
 2911 026e E35A     		ldrh	r3, [r4, r3]
 2912 0270 002B     		cmp	r3, #0
 2913 0272 26D0     		beq	.L136
 831:lib/widget.c  ****     {    
 832:lib/widget.c  ****         if(getMiscConfig()->bDisplayDir == DISPLAY_DIRECTION_PORTRAIT)
 2914              		.loc 1 832 0
 2915 0274 FFF7FEFF 		bl	getMiscConfig
 2916              	.LVL356:
 2917 0278 0388     		ldrh	r3, [r0]
 2918 027a 002B     		cmp	r3, #0
 2919 027c 0BD1     		bne	.L137
 833:lib/widget.c  ****             SetButtonSize(btn,0,g_DEFAULT_BUTTON_HEIGHT, BUTTON_X_2_3, BUTTON_Y_4_4,FALSE);
 2920              		.loc 1 833 0
 2921 027e 3A4B     		ldr	r3, .L146
 2922 0280 1A88     		ldrh	r2, [r3]
 2923 0282 0023     		movs	r3, #0
 2924 0284 0193     		str	r3, [sp, #4]
 2925 0286 1333     		adds	r3, r3, #19
 2926 0288 0093     		str	r3, [sp]
 2927 028a 0E3B     		subs	r3, r3, #14
 2928 028c 0021     		movs	r1, #0
 2929 028e 2800     		movs	r0, r5
 2930 0290 FFF7FEFF 		bl	SetButtonSize
 2931              	.LVL357:
 2932 0294 0AE0     		b	.L138
 2933              	.L137:
 834:lib/widget.c  ****         else
 835:lib/widget.c  ****             SetButtonSize(btn,0,g_DEFAULT_BUTTON_HEIGHT, BUTTON_X_2_4, BUTTON_Y_3_3,FALSE);
 2934              		.loc 1 835 0
 2935 0296 344B     		ldr	r3, .L146
 2936 0298 1A88     		ldrh	r2, [r3]
 2937 029a 0023     		movs	r3, #0
 2938 029c 0193     		str	r3, [sp, #4]
 2939 029e 1033     		adds	r3, r3, #16
 2940 02a0 0093     		str	r3, [sp]
 2941 02a2 083B     		subs	r3, r3, #8
 2942 02a4 0021     		movs	r1, #0
 2943 02a6 2800     		movs	r0, r5
 2944 02a8 FFF7FEFF 		bl	SetButtonSize
ARM GAS  C:\Users\luvsd\AppData\Local\Temp\cceWh3pe.s 			page 70


 2945              	.LVL358:
 2946              	.L138:
 836:lib/widget.c  ****             
 837:lib/widget.c  ****         RectangleSizeShrink(&btn->rect,+10,-10,0,0);            
 2947              		.loc 1 837 0
 2948 02ac 2000     		movs	r0, r4
 2949 02ae 8530     		adds	r0, r0, #133
 2950 02b0 FF30     		adds	r0, r0, #255
 2951 02b2 0023     		movs	r3, #0
 2952 02b4 0093     		str	r3, [sp]
 2953 02b6 0A22     		movs	r2, #10
 2954 02b8 5242     		rsbs	r2, r2, #0
 2955 02ba 0A21     		movs	r1, #10
 2956 02bc FFF7FEFF 		bl	RectangleSizeShrink
 2957              	.LVL359:
 2958 02c0 25E0     		b	.L139
 2959              	.L136:
 838:lib/widget.c  ****     }
 839:lib/widget.c  ****     else
 840:lib/widget.c  ****     {
 841:lib/widget.c  ****         if(getMiscConfig()->bDisplayDir == DISPLAY_DIRECTION_PORTRAIT)
 2960              		.loc 1 841 0
 2961 02c2 FFF7FEFF 		bl	getMiscConfig
 2962              	.LVL360:
 2963 02c6 0388     		ldrh	r3, [r0]
 2964 02c8 002B     		cmp	r3, #0
 2965 02ca 0BD1     		bne	.L140
 842:lib/widget.c  ****             SetButtonSize(btn,0,g_DEFAULT_BUTTON_HEIGHT, BUTTON_X_3_3, BUTTON_Y_4_4,FALSE);
 2966              		.loc 1 842 0
 2967 02cc 264B     		ldr	r3, .L146
 2968 02ce 1A88     		ldrh	r2, [r3]
 2969 02d0 0023     		movs	r3, #0
 2970 02d2 0193     		str	r3, [sp, #4]
 2971 02d4 1333     		adds	r3, r3, #19
 2972 02d6 0093     		str	r3, [sp]
 2973 02d8 0D3B     		subs	r3, r3, #13
 2974 02da 0021     		movs	r1, #0
 2975 02dc 2800     		movs	r0, r5
 2976 02de FFF7FEFF 		bl	SetButtonSize
 2977              	.LVL361:
 2978 02e2 0AE0     		b	.L141
 2979              	.L140:
 843:lib/widget.c  ****         else
 844:lib/widget.c  ****             SetButtonSize(btn,0,g_DEFAULT_BUTTON_HEIGHT, BUTTON_X_3_4, BUTTON_Y_3_3,FALSE);  
 2980              		.loc 1 844 0
 2981 02e4 204B     		ldr	r3, .L146
 2982 02e6 1A88     		ldrh	r2, [r3]
 2983 02e8 0023     		movs	r3, #0
 2984 02ea 0193     		str	r3, [sp, #4]
 2985 02ec 1033     		adds	r3, r3, #16
 2986 02ee 0093     		str	r3, [sp]
 2987 02f0 073B     		subs	r3, r3, #7
 2988 02f2 0021     		movs	r1, #0
 2989 02f4 2800     		movs	r0, r5
 2990 02f6 FFF7FEFF 		bl	SetButtonSize
 2991              	.LVL362:
 2992              	.L141:
ARM GAS  C:\Users\luvsd\AppData\Local\Temp\cceWh3pe.s 			page 71


 845:lib/widget.c  ****             
 846:lib/widget.c  ****         RectangleSizeShrink(&btn->rect,-10,-10,0,0);            
 2993              		.loc 1 846 0
 2994 02fa 0A21     		movs	r1, #10
 2995 02fc 4942     		rsbs	r1, r1, #0
 2996 02fe 2000     		movs	r0, r4
 2997 0300 8530     		adds	r0, r0, #133
 2998 0302 FF30     		adds	r0, r0, #255
 2999 0304 0023     		movs	r3, #0
 3000 0306 0093     		str	r3, [sp]
 3001 0308 0A00     		movs	r2, r1
 3002 030a FFF7FEFF 		bl	RectangleSizeShrink
 3003              	.LVL363:
 3004              	.L139:
 847:lib/widget.c  ****     }
 848:lib/widget.c  **** 
 849:lib/widget.c  ****     SetButtonStyleColor(btn,BUTTON_STYLE_WHITE);
 3005              		.loc 1 849 0
 3006 030e 0521     		movs	r1, #5
 3007 0310 2800     		movs	r0, r5
 3008 0312 FFF7FEFF 		bl	SetButtonStyleColor
 3009              	.LVL364:
 850:lib/widget.c  ****     SetButtonText(btn,"%d", menu->inc[1]); 
 3010              		.loc 1 850 0
 3011 0316 194B     		ldr	r3, .L146+20
 3012 0318 E25A     		ldrh	r2, [r4, r3]
 3013 031a 1649     		ldr	r1, .L146+12
 3014 031c 2800     		movs	r0, r5
 3015 031e FFF7FEFF 		bl	SetButtonText
 3016              	.LVL365:
 851:lib/widget.c  ****     btn->outlineColor = DARKGREY;
 3017              		.loc 1 851 0
 3018 0322 2300     		movs	r3, r4
 3019 0324 8133     		adds	r3, r3, #129
 3020 0326 FF33     		adds	r3, r3, #255
 3021 0328 134A     		ldr	r2, .L146+16
 3022 032a 9A86     		strh	r2, [r3, #52]
 852:lib/widget.c  ****     //DrawButton(btn);
 853:lib/widget.c  ****     
 854:lib/widget.c  ****     // Incre 3
 855:lib/widget.c  ****     btn = &menu->btn[7];
 3023              		.loc 1 855 0
 3024 032c 2500     		movs	r5, r4
 3025              	.LVL366:
 3026 032e C135     		adds	r5, r5, #193
 3027 0330 FF35     		adds	r5, r5, #255
 3028              	.LVL367:
 856:lib/widget.c  ****     if(menu->inc[2] != 0)
 3029              		.loc 1 856 0
 3030 0332 8123     		movs	r3, #129
 3031 0334 9B00     		lsls	r3, r3, #2
 3032 0336 E35A     		ldrh	r3, [r4, r3]
 3033 0338 002B     		cmp	r3, #0
 3034 033a 46D0     		beq	.L142
 857:lib/widget.c  ****     {
 858:lib/widget.c  ****         btn->ghost = FALSE;
 3035              		.loc 1 858 0
ARM GAS  C:\Users\luvsd\AppData\Local\Temp\cceWh3pe.s 			page 72


 3036 033c 0022     		movs	r2, #0
 3037 033e 2300     		movs	r3, r4
 3038 0340 FE33     		adds	r3, r3, #254
 3039 0342 FF33     		adds	r3, r3, #255
 3040 0344 1A70     		strb	r2, [r3]
 859:lib/widget.c  ****         
 860:lib/widget.c  ****         if(getMiscConfig()->bDisplayDir == DISPLAY_DIRECTION_PORTRAIT)
 3041              		.loc 1 860 0
 3042 0346 FFF7FEFF 		bl	getMiscConfig
 3043              	.LVL368:
 3044 034a 0388     		ldrh	r3, [r0]
 3045 034c 002B     		cmp	r3, #0
 3046 034e 17D1     		bne	.L143
 861:lib/widget.c  ****             SetButtonSize(btn,0,g_DEFAULT_BUTTON_HEIGHT, BUTTON_X_3_3, BUTTON_Y_4_4,FALSE);
 3047              		.loc 1 861 0
 3048 0350 054B     		ldr	r3, .L146
 3049 0352 1A88     		ldrh	r2, [r3]
 3050 0354 0023     		movs	r3, #0
 3051 0356 0193     		str	r3, [sp, #4]
 3052 0358 1333     		adds	r3, r3, #19
 3053 035a 0093     		str	r3, [sp]
 3054 035c 0D3B     		subs	r3, r3, #13
 3055 035e 0021     		movs	r1, #0
 3056 0360 2800     		movs	r0, r5
 3057 0362 FFF7FEFF 		bl	SetButtonSize
 3058              	.LVL369:
 3059 0366 16E0     		b	.L144
 3060              	.L147:
 3061              		.align	2
 3062              	.L146:
 3063 0368 00000000 		.word	g_DEFAULT_BUTTON_HEIGHT
 3064 036c 1C000000 		.word	.LC35
 3065 0370 00000000 		.word	.LANCHOR0
 3066 0374 20000000 		.word	.LC43
 3067 0378 EF7B0000 		.word	31727
 3068 037c 02020000 		.word	514
 3069              	.L143:
 862:lib/widget.c  ****         else
 863:lib/widget.c  ****             SetButtonSize(btn,0,g_DEFAULT_BUTTON_HEIGHT, BUTTON_X_3_4, BUTTON_Y_3_3,FALSE);
 3070              		.loc 1 863 0
 3071 0380 164B     		ldr	r3, .L148
 3072 0382 1A88     		ldrh	r2, [r3]
 3073 0384 0023     		movs	r3, #0
 3074 0386 0193     		str	r3, [sp, #4]
 3075 0388 1033     		adds	r3, r3, #16
 3076 038a 0093     		str	r3, [sp]
 3077 038c 073B     		subs	r3, r3, #7
 3078 038e 0021     		movs	r1, #0
 3079 0390 2800     		movs	r0, r5
 3080 0392 FFF7FEFF 		bl	SetButtonSize
 3081              	.LVL370:
 3082              	.L144:
 864:lib/widget.c  ****             
 865:lib/widget.c  ****         RectangleSizeShrink(&btn->rect,+10,-10,0,0);
 3083              		.loc 1 865 0
 3084 0396 2000     		movs	r0, r4
 3085 0398 C530     		adds	r0, r0, #197
ARM GAS  C:\Users\luvsd\AppData\Local\Temp\cceWh3pe.s 			page 73


 3086 039a FF30     		adds	r0, r0, #255
 3087 039c 0023     		movs	r3, #0
 3088 039e 0093     		str	r3, [sp]
 3089 03a0 0A22     		movs	r2, #10
 3090 03a2 5242     		rsbs	r2, r2, #0
 3091 03a4 0A21     		movs	r1, #10
 3092 03a6 FFF7FEFF 		bl	RectangleSizeShrink
 3093              	.LVL371:
 866:lib/widget.c  ****         SetButtonStyleColor(btn,BUTTON_STYLE_WHITE);
 3094              		.loc 1 866 0
 3095 03aa 0521     		movs	r1, #5
 3096 03ac 2800     		movs	r0, r5
 3097 03ae FFF7FEFF 		bl	SetButtonStyleColor
 3098              	.LVL372:
 867:lib/widget.c  ****         SetButtonText(btn,"%d", menu->inc[2]);
 3099              		.loc 1 867 0
 3100 03b2 8123     		movs	r3, #129
 3101 03b4 9B00     		lsls	r3, r3, #2
 3102 03b6 E25A     		ldrh	r2, [r4, r3]
 3103 03b8 0949     		ldr	r1, .L148+4
 3104 03ba 2800     		movs	r0, r5
 3105 03bc FFF7FEFF 		bl	SetButtonText
 3106              	.LVL373:
 868:lib/widget.c  ****         btn->outlineColor = DARKGREY;
 3107              		.loc 1 868 0
 3108 03c0 C134     		adds	r4, r4, #193
 3109              	.LVL374:
 3110 03c2 FF34     		adds	r4, r4, #255
 3111 03c4 074B     		ldr	r3, .L148+8
 3112 03c6 A386     		strh	r3, [r4, #52]
 3113 03c8 03E0     		b	.L124
 3114              	.LVL375:
 3115              	.L142:
 869:lib/widget.c  ****     }
 870:lib/widget.c  ****     else
 871:lib/widget.c  ****     {    
 872:lib/widget.c  ****         btn->ghost = TRUE;
 3116              		.loc 1 872 0
 3117 03ca FE34     		adds	r4, r4, #254
 3118              	.LVL376:
 3119 03cc FF34     		adds	r4, r4, #255
 3120 03ce 0123     		movs	r3, #1
 3121 03d0 2370     		strb	r3, [r4]
 3122              	.L124:
 873:lib/widget.c  ****     }        
 874:lib/widget.c  ****     //DrawButton(btn);
 875:lib/widget.c  **** }
 3123              		.loc 1 875 0
 3124 03d2 08B0     		add	sp, sp, #32
 3125              		@ sp needed
 3126              	.LVL377:
 3127              	.LVL378:
 3128 03d4 70BC     		pop	{r4, r5, r6}
 3129 03d6 08BC     		pop	{r3}
 3130 03d8 02B0     		add	sp, sp, #8
 3131 03da 1847     		bx	r3
 3132              	.L149:
ARM GAS  C:\Users\luvsd\AppData\Local\Temp\cceWh3pe.s 			page 74


 3133              		.align	2
 3134              	.L148:
 3135 03dc 00000000 		.word	g_DEFAULT_BUTTON_HEIGHT
 3136 03e0 20000000 		.word	.LC43
 3137 03e4 EF7B0000 		.word	31727
 3138              		.cfi_endproc
 3139              	.LFE78:
 3140              		.size	SetDrawUpDownOneMenu, .-SetDrawUpDownOneMenu
 3141              		.section	.text.SetDrawYesNoButtons,"ax",%progbits
 3142              		.align	2
 3143              		.global	SetDrawYesNoButtons
 3144              		.code	16
 3145              		.thumb_func
 3146              		.type	SetDrawYesNoButtons, %function
 3147              	SetDrawYesNoButtons:
 3148              	.LFB79:
 876:lib/widget.c  **** 
 877:lib/widget.c  **** 
 878:lib/widget.c  **** void SetDrawYesNoButtons(YES_NO_MENU *menu, const char *message, ...)
 879:lib/widget.c  **** {
 3149              		.loc 1 879 0
 3150              		.cfi_startproc
 3151              		@ args = 4, pretend = 12, frame = 88
 3152              		@ frame_needed = 0, uses_anonymous_args = 1
 3153              	.LVL379:
 3154 0000 0EB4     		push	{r1, r2, r3}
 3155              		.cfi_def_cfa_offset 12
 3156 0002 30B5     		push	{r4, r5, lr}
 3157              		.cfi_def_cfa_offset 24
 3158              		.cfi_offset 4, -24
 3159              		.cfi_offset 5, -20
 3160              		.cfi_offset 14, -16
 3161 0004 98B0     		sub	sp, sp, #96
 3162              		.cfi_def_cfa_offset 120
 3163 0006 0500     		movs	r5, r0
 3164 0008 1BAA     		add	r2, sp, #108
 3165 000a 10CA     		ldmia	r2!, {r4}
 880:lib/widget.c  ****     va_list ap;
 881:lib/widget.c  ****     char buff[20];
 882:lib/widget.c  ****     va_start(ap, message);
 3166              		.loc 1 882 0
 3167 000c 1792     		str	r2, [sp, #92]
 883:lib/widget.c  ****     vsprintf(buff, message, ap);
 3168              		.loc 1 883 0
 3169 000e 2100     		movs	r1, r4
 3170 0010 12A8     		add	r0, sp, #72
 3171              	.LVL380:
 3172 0012 FFF7FEFF 		bl	vsprintf
 3173              	.LVL381:
 884:lib/widget.c  ****     va_end(ap);
 885:lib/widget.c  ****     
 886:lib/widget.c  ****     uint16 ypos = DrawTitleButton(menu->title,FALSE);      
 3174              		.loc 1 886 0
 3175 0016 0021     		movs	r1, #0
 3176 0018 2800     		movs	r0, r5
 3177 001a FFF7FEFF 		bl	DrawTitleButton
 3178              	.LVL382:
ARM GAS  C:\Users\luvsd\AppData\Local\Temp\cceWh3pe.s 			page 75


 887:lib/widget.c  ****     EraseBlankArea(ypos, FALSE);
 3179              		.loc 1 887 0
 3180 001e 0021     		movs	r1, #0
 3181 0020 FFF7FEFF 		bl	EraseBlankArea
 3182              	.LVL383:
 888:lib/widget.c  ****     
 889:lib/widget.c  ****     BUTTON button;
 890:lib/widget.c  ****     SetButtonSize(&button,0,g_DEFAULT_BUTTON_HEIGHT, BUTTON_X_FULL, BUTTON_Y_3_4,FALSE);
 3183              		.loc 1 890 0
 3184 0024 0D4B     		ldr	r3, .L151
 3185 0026 1A88     		ldrh	r2, [r3]
 3186 0028 0023     		movs	r3, #0
 3187 002a 0193     		str	r3, [sp, #4]
 3188 002c 1233     		adds	r3, r3, #18
 3189 002e 0093     		str	r3, [sp]
 3190 0030 113B     		subs	r3, r3, #17
 3191 0032 0021     		movs	r1, #0
 3192 0034 02A8     		add	r0, sp, #8
 3193 0036 FFF7FEFF 		bl	SetButtonSize
 3194              	.LVL384:
 891:lib/widget.c  ****     SetButtonStyleColor(&button,BUTTON_STYLE_TEXT);
 3195              		.loc 1 891 0
 3196 003a 0421     		movs	r1, #4
 3197 003c 02A8     		add	r0, sp, #8
 3198 003e FFF7FEFF 		bl	SetButtonStyleColor
 3199              	.LVL385:
 892:lib/widget.c  ****     SetButtonText(&button,message);
 3200              		.loc 1 892 0
 3201 0042 2100     		movs	r1, r4
 3202 0044 02A8     		add	r0, sp, #8
 3203 0046 FFF7FEFF 		bl	SetButtonText
 3204              	.LVL386:
 893:lib/widget.c  ****     
 894:lib/widget.c  ****     DrawButton(&button);
 3205              		.loc 1 894 0
 3206 004a 02A8     		add	r0, sp, #8
 3207 004c FFF7FEFF 		bl	DrawButton
 3208              	.LVL387:
 895:lib/widget.c  **** }
 3209              		.loc 1 895 0
 3210 0050 18B0     		add	sp, sp, #96
 3211              		@ sp needed
 3212              	.LVL388:
 3213 0052 30BC     		pop	{r4, r5}
 3214 0054 08BC     		pop	{r3}
 3215 0056 03B0     		add	sp, sp, #12
 3216 0058 1847     		bx	r3
 3217              	.L152:
 3218 005a C046     		.align	2
 3219              	.L151:
 3220 005c 00000000 		.word	g_DEFAULT_BUTTON_HEIGHT
 3221              		.cfi_endproc
 3222              	.LFE79:
 3223              		.size	SetDrawYesNoButtons, .-SetDrawYesNoButtons
 3224              		.section	.text.ShowMessage,"ax",%progbits
 3225              		.align	2
 3226              		.global	ShowMessage
ARM GAS  C:\Users\luvsd\AppData\Local\Temp\cceWh3pe.s 			page 76


 3227              		.code	16
 3228              		.thumb_func
 3229              		.type	ShowMessage, %function
 3230              	ShowMessage:
 3231              	.LFB80:
 896:lib/widget.c  **** 
 897:lib/widget.c  **** void ShowMessage(const char *msg, ...)
 898:lib/widget.c  **** {
 3232              		.loc 1 898 0
 3233              		.cfi_startproc
 3234              		@ args = 4, pretend = 16, frame = 88
 3235              		@ frame_needed = 0, uses_anonymous_args = 1
 3236              	.LVL389:
 3237 0000 0FB4     		push	{r0, r1, r2, r3}
 3238              		.cfi_def_cfa_offset 16
 3239 0002 30B5     		push	{r4, r5, lr}
 3240              		.cfi_def_cfa_offset 28
 3241              		.cfi_offset 4, -28
 3242              		.cfi_offset 5, -24
 3243              		.cfi_offset 14, -20
 3244 0004 99B0     		sub	sp, sp, #100
 3245              		.cfi_def_cfa_offset 128
 3246 0006 1CAA     		add	r2, sp, #112
 3247 0008 02CA     		ldmia	r2!, {r1}
 899:lib/widget.c  ****     va_list ap;
 900:lib/widget.c  ****     char buff[20];
 901:lib/widget.c  ****     va_start(ap, msg);
 3248              		.loc 1 901 0
 3249 000a 1792     		str	r2, [sp, #92]
 902:lib/widget.c  ****     vsprintf(buff, msg, ap);
 3250              		.loc 1 902 0
 3251 000c 12A8     		add	r0, sp, #72
 3252 000e FFF7FEFF 		bl	vsprintf
 3253              	.LVL390:
 903:lib/widget.c  ****     va_end(ap);
 904:lib/widget.c  ****     
 905:lib/widget.c  ****     BUTTON btn;
 906:lib/widget.c  ****     SetDefaultButtonStyle(&btn);    
 3254              		.loc 1 906 0
 3255 0012 02AC     		add	r4, sp, #8
 3256 0014 2000     		movs	r0, r4
 3257 0016 FFF7FEFF 		bl	SetDefaultButtonStyle
 3258              	.LVL391:
 907:lib/widget.c  ****     SetButtonSize(&btn,0,g_DEFAULT_BUTTON_HEIGHT*2, BUTTON_X_FULL, BUTTON_Y_2_3,FALSE); 
 3259              		.loc 1 907 0
 3260 001a 144B     		ldr	r3, .L154
 3261 001c 1A88     		ldrh	r2, [r3]
 3262 001e 5200     		lsls	r2, r2, #1
 3263 0020 92B2     		uxth	r2, r2
 3264 0022 0025     		movs	r5, #0
 3265 0024 0195     		str	r5, [sp, #4]
 3266 0026 0F23     		movs	r3, #15
 3267 0028 0093     		str	r3, [sp]
 3268 002a 0E3B     		subs	r3, r3, #14
 3269 002c 0021     		movs	r1, #0
 3270 002e 2000     		movs	r0, r4
 3271 0030 FFF7FEFF 		bl	SetButtonSize
ARM GAS  C:\Users\luvsd\AppData\Local\Temp\cceWh3pe.s 			page 77


 3272              	.LVL392:
 908:lib/widget.c  ****     RectangleSizeShrink(&btn.rect,+10,-10,0,0);    
 3273              		.loc 1 908 0
 3274 0034 0095     		str	r5, [sp]
 3275 0036 0023     		movs	r3, #0
 3276 0038 0A22     		movs	r2, #10
 3277 003a 5242     		rsbs	r2, r2, #0
 3278 003c 0A21     		movs	r1, #10
 3279 003e 03A8     		add	r0, sp, #12
 3280 0040 FFF7FEFF 		bl	RectangleSizeShrink
 3281              	.LVL393:
 909:lib/widget.c  ****     SetButtonStyleColor(&btn,BUTTON_STYLE_WHITE);    
 3282              		.loc 1 909 0
 3283 0044 0521     		movs	r1, #5
 3284 0046 2000     		movs	r0, r4
 3285 0048 FFF7FEFF 		bl	SetButtonStyleColor
 3286              	.LVL394:
 910:lib/widget.c  ****     SetButtonText(&btn,buff);
 3287              		.loc 1 910 0
 3288 004c 12A9     		add	r1, sp, #72
 3289 004e 2000     		movs	r0, r4
 3290 0050 FFF7FEFF 		bl	SetButtonText
 3291              	.LVL395:
 911:lib/widget.c  ****     btn.outlineColor = WHITE;
 3292              		.loc 1 911 0
 3293 0054 0123     		movs	r3, #1
 3294 0056 5B42     		rsbs	r3, r3, #0
 3295 0058 A386     		strh	r3, [r4, #52]
 912:lib/widget.c  ****     
 913:lib/widget.c  ****     DrawButton(&btn);      
 3296              		.loc 1 913 0
 3297 005a 2000     		movs	r0, r4
 3298 005c FFF7FEFF 		bl	DrawButton
 3299              	.LVL396:
 914:lib/widget.c  **** }
 3300              		.loc 1 914 0
 3301 0060 19B0     		add	sp, sp, #100
 3302              		@ sp needed
 3303 0062 30BC     		pop	{r4, r5}
 3304 0064 08BC     		pop	{r3}
 3305 0066 04B0     		add	sp, sp, #16
 3306 0068 1847     		bx	r3
 3307              	.L155:
 3308 006a C046     		.align	2
 3309              	.L154:
 3310 006c 00000000 		.word	g_DEFAULT_BUTTON_HEIGHT
 3311              		.cfi_endproc
 3312              	.LFE80:
 3313              		.size	ShowMessage, .-ShowMessage
 3314              		.section	.text.ShowWaitMessage,"ax",%progbits
 3315              		.align	2
 3316              		.global	ShowWaitMessage
 3317              		.code	16
 3318              		.thumb_func
 3319              		.type	ShowWaitMessage, %function
 3320              	ShowWaitMessage:
 3321              	.LFB81:
ARM GAS  C:\Users\luvsd\AppData\Local\Temp\cceWh3pe.s 			page 78


 915:lib/widget.c  **** 
 916:lib/widget.c  **** void ShowWaitMessage()
 917:lib/widget.c  **** {
 3322              		.loc 1 917 0
 3323              		.cfi_startproc
 3324              		@ args = 0, pretend = 0, frame = 0
 3325              		@ frame_needed = 0, uses_anonymous_args = 0
 3326 0000 10B5     		push	{r4, lr}
 3327              		.cfi_def_cfa_offset 8
 3328              		.cfi_offset 4, -8
 3329              		.cfi_offset 14, -4
 918:lib/widget.c  ****    ShowMessage("Waiting...");
 3330              		.loc 1 918 0
 3331 0002 0248     		ldr	r0, .L157
 3332 0004 FFF7FEFF 		bl	ShowMessage
 3333              	.LVL397:
 919:lib/widget.c  **** }
 3334              		.loc 1 919 0
 3335              		@ sp needed
 3336 0008 10BD     		pop	{r4, pc}
 3337              	.L158:
 3338 000a C046     		.align	2
 3339              	.L157:
 3340 000c 24000000 		.word	.LC49
 3341              		.cfi_endproc
 3342              	.LFE81:
 3343              		.size	ShowWaitMessage, .-ShowWaitMessage
 3344              		.section	.text.DrawWifi,"ax",%progbits
 3345              		.align	2
 3346              		.global	DrawWifi
 3347              		.code	16
 3348              		.thumb_func
 3349              		.type	DrawWifi, %function
 3350              	DrawWifi:
 3351              	.LFB82:
 920:lib/widget.c  **** 
 921:lib/widget.c  **** void DrawWifi()
 922:lib/widget.c  **** {     
 3352              		.loc 1 922 0
 3353              		.cfi_startproc
 3354              		@ args = 0, pretend = 0, frame = 0
 3355              		@ frame_needed = 0, uses_anonymous_args = 0
 3356 0000 10B5     		push	{r4, lr}
 3357              		.cfi_def_cfa_offset 8
 3358              		.cfi_offset 4, -8
 3359              		.cfi_offset 14, -4
 3360              	.LVL398:
 923:lib/widget.c  ****     uint8 uLevel = 0;
 924:lib/widget.c  **** 
 925:lib/widget.c  ****     if     (g_network.RSSI == 0)   uLevel=0; 
 3361              		.loc 1 925 0
 3362 0002 374B     		ldr	r3, .L178
 3363 0004 0222     		movs	r2, #2
 3364 0006 9B5E     		ldrsh	r3, [r3, r2]
 3365 0008 002B     		cmp	r3, #0
 3366 000a 0FD0     		beq	.L171
 926:lib/widget.c  ****     else if(-30 <= g_network.RSSI) uLevel=5;
ARM GAS  C:\Users\luvsd\AppData\Local\Temp\cceWh3pe.s 			page 79


 3367              		.loc 1 926 0
 3368 000c 1A00     		movs	r2, r3
 3369 000e 1E32     		adds	r2, r2, #30
 3370 0010 0EDA     		bge	.L172
 927:lib/widget.c  ****     else if(-67 <= g_network.RSSI) uLevel=4;
 3371              		.loc 1 927 0
 3372 0012 1A00     		movs	r2, r3
 3373 0014 4332     		adds	r2, r2, #67
 3374 0016 0DDA     		bge	.L173
 928:lib/widget.c  ****     else if(-70 <= g_network.RSSI) uLevel=3;
 3375              		.loc 1 928 0
 3376 0018 1A00     		movs	r2, r3
 3377 001a 4632     		adds	r2, r2, #70
 3378 001c 0CDA     		bge	.L174
 929:lib/widget.c  ****     else if(-80 <= g_network.RSSI) uLevel=2;
 3379              		.loc 1 929 0
 3380 001e 1A00     		movs	r2, r3
 3381 0020 5032     		adds	r2, r2, #80
 3382 0022 0BDA     		bge	.L175
 930:lib/widget.c  ****     else if(-90 <= g_network.RSSI) uLevel=1;
 3383              		.loc 1 930 0
 3384 0024 5A33     		adds	r3, r3, #90
 3385 0026 0BDA     		bge	.L176
 923:lib/widget.c  **** 
 3386              		.loc 1 923 0
 3387 0028 0024     		movs	r4, #0
 3388 002a 0AE0     		b	.L160
 3389              	.L171:
 925:lib/widget.c  ****     else if(-30 <= g_network.RSSI) uLevel=5;
 3390              		.loc 1 925 0
 3391 002c 0024     		movs	r4, #0
 3392 002e 08E0     		b	.L160
 3393              	.L172:
 926:lib/widget.c  ****     else if(-67 <= g_network.RSSI) uLevel=4;
 3394              		.loc 1 926 0
 3395 0030 0524     		movs	r4, #5
 3396 0032 06E0     		b	.L160
 3397              	.L173:
 927:lib/widget.c  ****     else if(-70 <= g_network.RSSI) uLevel=3;
 3398              		.loc 1 927 0
 3399 0034 0424     		movs	r4, #4
 3400 0036 04E0     		b	.L160
 3401              	.L174:
 928:lib/widget.c  ****     else if(-80 <= g_network.RSSI) uLevel=2;
 3402              		.loc 1 928 0
 3403 0038 0324     		movs	r4, #3
 3404 003a 02E0     		b	.L160
 3405              	.L175:
 929:lib/widget.c  ****     else if(-90 <= g_network.RSSI) uLevel=1;
 3406              		.loc 1 929 0
 3407 003c 0224     		movs	r4, #2
 3408 003e 00E0     		b	.L160
 3409              	.L176:
 3410              		.loc 1 930 0
 3411 0040 0124     		movs	r4, #1
 3412              	.L160:
 3413              	.LVL399:
ARM GAS  C:\Users\luvsd\AppData\Local\Temp\cceWh3pe.s 			page 80


 931:lib/widget.c  **** 
 932:lib/widget.c  ****     
 933:lib/widget.c  ****     switch(uLevel)
 3414              		.loc 1 933 0
 3415 0042 002C     		cmp	r4, #0
 3416 0044 0FD1     		bne	.L177
 934:lib/widget.c  ****     {
 935:lib/widget.c  ****         case 0:
 936:lib/widget.c  ****             SetButtonText(&g_wifi_strength,"");
 3417              		.loc 1 936 0
 3418 0046 274C     		ldr	r4, .L178+4
 3419              	.LVL400:
 3420 0048 2749     		ldr	r1, .L178+8
 3421 004a 2000     		movs	r0, r4
 3422 004c FFF7FEFF 		bl	SetButtonText
 3423              	.LVL401:
 937:lib/widget.c  ****             g_wifi_strength.foregroundColor = WHITE;
 3424              		.loc 1 937 0
 3425 0050 0123     		movs	r3, #1
 3426 0052 5B42     		rsbs	r3, r3, #0
 3427 0054 2386     		strh	r3, [r4, #48]
 938:lib/widget.c  ****             DrawButton(&g_wifi_strength);
 3428              		.loc 1 938 0
 3429 0056 2000     		movs	r0, r4
 3430 0058 FFF7FEFF 		bl	DrawButton
 3431              	.LVL402:
 939:lib/widget.c  ****             g_imageWifi.image = image_wifi_0;
 3432              		.loc 1 939 0
 3433 005c 234B     		ldr	r3, .L178+12
 3434 005e 1A00     		movs	r2, r3
 3435 0060 1832     		adds	r2, r2, #24
 3436 0062 1A60     		str	r2, [r3]
 940:lib/widget.c  ****         
 941:lib/widget.c  ****             break;
 3437              		.loc 1 941 0
 3438 0064 35E0     		b	.L163
 3439              	.LVL403:
 3440              	.L177:
 942:lib/widget.c  ****         default:
 943:lib/widget.c  ****             SetButtonText(&g_wifi_strength,"%d",uLevel);
 3441              		.loc 1 943 0
 3442 0066 2200     		movs	r2, r4
 3443 0068 2149     		ldr	r1, .L178+16
 3444 006a 1E48     		ldr	r0, .L178+4
 3445 006c FFF7FEFF 		bl	SetButtonText
 3446              	.LVL404:
 944:lib/widget.c  ****             switch(uLevel)
 3447              		.loc 1 944 0
 3448 0070 052C     		cmp	r4, #5
 3449 0072 27D8     		bhi	.L164
 3450 0074 A400     		lsls	r4, r4, #2
 3451              	.LVL405:
 3452 0076 1F4B     		ldr	r3, .L178+20
 3453 0078 1B59     		ldr	r3, [r3, r4]
 3454 007a 9F46     		mov	pc, r3
 3455              		.section	.rodata
 3456              		.align	2
ARM GAS  C:\Users\luvsd\AppData\Local\Temp\cceWh3pe.s 			page 81


 3457              	.L166:
 3458 0000 7C000000 		.word	.L165
 3459 0004 7C000000 		.word	.L165
 3460 0008 8A000000 		.word	.L167
 3461 000c 98000000 		.word	.L168
 3462 0010 A8000000 		.word	.L169
 3463 0014 B8000000 		.word	.L170
 3464              		.section	.text.DrawWifi
 3465              	.L165:
 945:lib/widget.c  ****             {
 946:lib/widget.c  ****                 case 0:
 947:lib/widget.c  ****                 case 1: g_wifi_strength.foregroundColor = RED;   
 3466              		.loc 1 947 0
 3467 007c 1E4A     		ldr	r2, .L178+24
 3468 007e 194B     		ldr	r3, .L178+4
 3469 0080 1A86     		strh	r2, [r3, #48]
 948:lib/widget.c  ****                         g_uLED1_Color = LED_RED;
 3470              		.loc 1 948 0
 3471 0082 0122     		movs	r2, #1
 3472 0084 1D4B     		ldr	r3, .L178+28
 3473 0086 1A80     		strh	r2, [r3]
 949:lib/widget.c  ****                         break;
 3474              		.loc 1 949 0
 3475 0088 1CE0     		b	.L164
 3476              	.L167:
 950:lib/widget.c  ****                 case 2: g_wifi_strength.foregroundColor = ORANGE;
 3477              		.loc 1 950 0
 3478 008a 1D4A     		ldr	r2, .L178+32
 3479 008c 154B     		ldr	r3, .L178+4
 3480 008e 1A86     		strh	r2, [r3, #48]
 951:lib/widget.c  ****                         g_uLED1_Color = LED_PINK;                
 3481              		.loc 1 951 0
 3482 0090 0522     		movs	r2, #5
 3483 0092 1A4B     		ldr	r3, .L178+28
 3484 0094 1A80     		strh	r2, [r3]
 952:lib/widget.c  ****                         break;
 3485              		.loc 1 952 0
 3486 0096 15E0     		b	.L164
 3487              	.L168:
 953:lib/widget.c  ****                 case 3: g_wifi_strength.foregroundColor = YELLOW;
 3488              		.loc 1 953 0
 3489 0098 2022     		movs	r2, #32
 3490 009a 5242     		rsbs	r2, r2, #0
 3491 009c 114B     		ldr	r3, .L178+4
 3492 009e 1A86     		strh	r2, [r3, #48]
 954:lib/widget.c  ****                          g_uLED1_Color = LED_YELLOW;    
 3493              		.loc 1 954 0
 3494 00a0 2332     		adds	r2, r2, #35
 3495 00a2 164B     		ldr	r3, .L178+28
 3496 00a4 1A80     		strh	r2, [r3]
 955:lib/widget.c  ****                         break;
 3497              		.loc 1 955 0
 3498 00a6 0DE0     		b	.L164
 3499              	.L169:
 956:lib/widget.c  ****                 case 4: g_wifi_strength.foregroundColor = GREEN;
 3500              		.loc 1 956 0
 3501 00a8 FC22     		movs	r2, #252
ARM GAS  C:\Users\luvsd\AppData\Local\Temp\cceWh3pe.s 			page 82


 3502 00aa D200     		lsls	r2, r2, #3
 3503 00ac 0D4B     		ldr	r3, .L178+4
 3504 00ae 1A86     		strh	r2, [r3, #48]
 957:lib/widget.c  ****                          g_uLED1_Color = LED_GREEN;   
 3505              		.loc 1 957 0
 3506 00b0 0222     		movs	r2, #2
 3507 00b2 124B     		ldr	r3, .L178+28
 3508 00b4 1A80     		strh	r2, [r3]
 958:lib/widget.c  ****                         break;
 3509              		.loc 1 958 0
 3510 00b6 05E0     		b	.L164
 3511              	.L170:
 959:lib/widget.c  ****                 case 5: g_wifi_strength.foregroundColor = BLUE;
 3512              		.loc 1 959 0
 3513 00b8 1F22     		movs	r2, #31
 3514 00ba 0A4B     		ldr	r3, .L178+4
 3515 00bc 1A86     		strh	r2, [r3, #48]
 960:lib/widget.c  ****                          g_uLED1_Color = LED_BLUE;   
 3516              		.loc 1 960 0
 3517 00be 1B3A     		subs	r2, r2, #27
 3518 00c0 0E4B     		ldr	r3, .L178+28
 3519 00c2 1A80     		strh	r2, [r3]
 3520              	.L164:
 961:lib/widget.c  ****                         break;             
 962:lib/widget.c  ****             }
 963:lib/widget.c  ****             DrawButton(&g_wifi_strength);
 3521              		.loc 1 963 0
 3522 00c4 0748     		ldr	r0, .L178+4
 3523 00c6 FFF7FEFF 		bl	DrawButton
 3524              	.LVL406:
 964:lib/widget.c  ****             g_imageWifi.image = image_wifi_4;  
 3525              		.loc 1 964 0
 3526 00ca 0E4B     		ldr	r3, .L178+36
 3527 00cc 1833     		adds	r3, r3, #24
 3528 00ce 074A     		ldr	r2, .L178+12
 3529 00d0 1360     		str	r3, [r2]
 3530              	.L163:
 965:lib/widget.c  ****             break;            
 966:lib/widget.c  ****     }
 967:lib/widget.c  ****         DrawImageRect(&g_rectWifi,&g_imageWifi,BLACK);   
 3531              		.loc 1 967 0
 3532 00d2 0022     		movs	r2, #0
 3533 00d4 0549     		ldr	r1, .L178+12
 3534 00d6 0C48     		ldr	r0, .L178+40
 3535 00d8 FFF7FEFF 		bl	DrawImageRect
 3536              	.LVL407:
 968:lib/widget.c  **** 
 969:lib/widget.c  **** }
 3537              		.loc 1 969 0
 3538              		@ sp needed
 3539 00dc 10BD     		pop	{r4, pc}
 3540              	.L179:
 3541 00de C046     		.align	2
 3542              	.L178:
 3543 00e0 00000000 		.word	g_network
 3544 00e4 00000000 		.word	g_wifi_strength
 3545 00e8 1C000000 		.word	.LC35
ARM GAS  C:\Users\luvsd\AppData\Local\Temp\cceWh3pe.s 			page 83


 3546 00ec 00000000 		.word	.LANCHOR0
 3547 00f0 20000000 		.word	.LC43
 3548 00f4 00000000 		.word	.L166
 3549 00f8 00F8FFFF 		.word	-2048
 3550 00fc 00000000 		.word	g_uLED1_Color
 3551 0100 20FDFFFF 		.word	-736
 3552 0104 00080000 		.word	.LANCHOR2
 3553 0108 00000000 		.word	g_rectWifi
 3554              		.cfi_endproc
 3555              	.LFE82:
 3556              		.size	DrawWifi, .-DrawWifi
 3557              		.section	.text.SetTitleBarText,"ax",%progbits
 3558              		.align	2
 3559              		.global	SetTitleBarText
 3560              		.code	16
 3561              		.thumb_func
 3562              		.type	SetTitleBarText, %function
 3563              	SetTitleBarText:
 3564              	.LFB83:
 970:lib/widget.c  **** 
 971:lib/widget.c  **** void SetTitleBarText(char *str)
 972:lib/widget.c  **** {
 3565              		.loc 1 972 0
 3566              		.cfi_startproc
 3567              		@ args = 0, pretend = 0, frame = 0
 3568              		@ frame_needed = 0, uses_anonymous_args = 0
 3569              	.LVL408:
 3570 0000 10B5     		push	{r4, lr}
 3571              		.cfi_def_cfa_offset 8
 3572              		.cfi_offset 4, -8
 3573              		.cfi_offset 14, -4
 3574 0002 0100     		movs	r1, r0
 973:lib/widget.c  ****     SetButtonText(&g_TitleBar,str);
 3575              		.loc 1 973 0
 3576 0004 0148     		ldr	r0, .L181
 3577              	.LVL409:
 3578 0006 FFF7FEFF 		bl	SetButtonText
 3579              	.LVL410:
 974:lib/widget.c  **** }
 3580              		.loc 1 974 0
 3581              		@ sp needed
 3582 000a 10BD     		pop	{r4, pc}
 3583              	.L182:
 3584              		.align	2
 3585              	.L181:
 3586 000c 00000000 		.word	g_TitleBar
 3587              		.cfi_endproc
 3588              	.LFE83:
 3589              		.size	SetTitleBarText, .-SetTitleBarText
 3590              		.section	.text.DrawTitle,"ax",%progbits
 3591              		.align	2
 3592              		.global	DrawTitle
 3593              		.code	16
 3594              		.thumb_func
 3595              		.type	DrawTitle, %function
 3596              	DrawTitle:
 3597              	.LFB84:
ARM GAS  C:\Users\luvsd\AppData\Local\Temp\cceWh3pe.s 			page 84


 975:lib/widget.c  **** 
 976:lib/widget.c  **** void DrawTitle()
 977:lib/widget.c  **** {
 3598              		.loc 1 977 0
 3599              		.cfi_startproc
 3600              		@ args = 0, pretend = 0, frame = 0
 3601              		@ frame_needed = 0, uses_anonymous_args = 0
 3602 0000 10B5     		push	{r4, lr}
 3603              		.cfi_def_cfa_offset 8
 3604              		.cfi_offset 4, -8
 3605              		.cfi_offset 14, -4
 978:lib/widget.c  ****     DrawButton(&g_TitleBar);    
 3606              		.loc 1 978 0
 3607 0002 0248     		ldr	r0, .L184
 3608 0004 FFF7FEFF 		bl	DrawButton
 3609              	.LVL411:
 979:lib/widget.c  **** }
 3610              		.loc 1 979 0
 3611              		@ sp needed
 3612 0008 10BD     		pop	{r4, pc}
 3613              	.L185:
 3614 000a C046     		.align	2
 3615              	.L184:
 3616 000c 00000000 		.word	g_TitleBar
 3617              		.cfi_endproc
 3618              	.LFE84:
 3619              		.size	DrawTitle, .-DrawTitle
 3620              		.section	.text.DrawHeader,"ax",%progbits
 3621              		.align	2
 3622              		.global	DrawHeader
 3623              		.code	16
 3624              		.thumb_func
 3625              		.type	DrawHeader, %function
 3626              	DrawHeader:
 3627              	.LFB85:
 980:lib/widget.c  **** 
 981:lib/widget.c  **** void DrawHeader()
 982:lib/widget.c  **** {
 3628              		.loc 1 982 0
 3629              		.cfi_startproc
 3630              		@ args = 0, pretend = 0, frame = 0
 3631              		@ frame_needed = 0, uses_anonymous_args = 0
 3632 0000 10B5     		push	{r4, lr}
 3633              		.cfi_def_cfa_offset 8
 3634              		.cfi_offset 4, -8
 3635              		.cfi_offset 14, -4
 983:lib/widget.c  ****     #ifdef USE_WIFI
 984:lib/widget.c  ****     DrawWifi();
 985:lib/widget.c  ****     #endif
 986:lib/widget.c  ****     
 987:lib/widget.c  ****     DrawTitle();
 3636              		.loc 1 987 0
 3637 0002 FFF7FEFF 		bl	DrawTitle
 3638              	.LVL412:
 988:lib/widget.c  ****     
 989:lib/widget.c  ****     // split line
 990:lib/widget.c  ****     DrawHorizontalLine(0,g_SCREEN_WIDTH-1,DEFAULT_TOP_TITLE_HEIGHT-1,WHITE);    
ARM GAS  C:\Users\luvsd\AppData\Local\Temp\cceWh3pe.s 			page 85


 3639              		.loc 1 990 0
 3640 0006 054B     		ldr	r3, .L187
 3641 0008 1988     		ldrh	r1, [r3]
 3642 000a 0139     		subs	r1, r1, #1
 3643 000c 89B2     		uxth	r1, r1
 3644 000e 044B     		ldr	r3, .L187+4
 3645 0010 2722     		movs	r2, #39
 3646 0012 0020     		movs	r0, #0
 3647 0014 FFF7FEFF 		bl	DrawHorizontalLine
 3648              	.LVL413:
 991:lib/widget.c  **** }
 3649              		.loc 1 991 0
 3650              		@ sp needed
 3651 0018 10BD     		pop	{r4, pc}
 3652              	.L188:
 3653 001a C046     		.align	2
 3654              	.L187:
 3655 001c 00000000 		.word	g_SCREEN_WIDTH
 3656 0020 FFFF0000 		.word	65535
 3657              		.cfi_endproc
 3658              	.LFE85:
 3659              		.size	DrawHeader, .-DrawHeader
 3660              		.comm	g_DownArrowImage,8,4
 3661              		.comm	g_ListMenu,876,4
 3662              		.comm	g_TitleBar,64,4
 3663              		.comm	g_wifi_strength,64,4
 3664              		.comm	g_rectWifi,8,4
 3665              		.global	g_imageWifi
 3666              		.global	g_imageDownArrow
 3667              		.global	g_imageUpArrow
 3668              		.comm	g_btnBottom,128,4
 3669              		.comm	Param,6,4
 3670              		.data
 3671              		.align	2
 3672              		.set	.LANCHOR0,. + 0
 3673              		.set	.LANCHOR2,. + 2048
 3674              		.type	g_imageWifi, %object
 3675              		.size	g_imageWifi, 8
 3676              	g_imageWifi:
 3677 0000 18080000 		.word	image_wifi_4
 3678 0004 2000     		.short	32
 3679 0006 2000     		.short	32
 3680              		.type	g_imageUpArrow, %object
 3681              		.size	g_imageUpArrow, 8
 3682              	g_imageUpArrow:
 3683 0008 18180000 		.word	image_arrow_up
 3684 000c 2000     		.short	32
 3685 000e 2000     		.short	32
 3686              		.type	g_imageDownArrow, %object
 3687              		.size	g_imageDownArrow, 8
 3688              	g_imageDownArrow:
 3689 0010 18100000 		.word	image_arrow_down
 3690 0014 2000     		.short	32
 3691 0016 2000     		.short	32
 3692              		.type	image_wifi_0, %object
 3693              		.size	image_wifi_0, 2048
 3694              	image_wifi_0:
ARM GAS  C:\Users\luvsd\AppData\Local\Temp\cceWh3pe.s 			page 86


 3695 0018 0000     		.short	0
 3696 001a 0000     		.short	0
 3697 001c 0000     		.short	0
 3698 001e 0000     		.short	0
 3699 0020 0000     		.short	0
 3700 0022 0000     		.short	0
 3701 0024 0000     		.short	0
 3702 0026 0000     		.short	0
 3703 0028 0000     		.short	0
 3704 002a 0000     		.short	0
 3705 002c 0000     		.short	0
 3706 002e 0000     		.short	0
 3707 0030 0000     		.short	0
 3708 0032 0000     		.short	0
 3709 0034 0000     		.short	0
 3710 0036 0000     		.short	0
 3711 0038 0000     		.short	0
 3712 003a 0000     		.short	0
 3713 003c 0000     		.short	0
 3714 003e 0000     		.short	0
 3715 0040 0000     		.short	0
 3716 0042 0000     		.short	0
 3717 0044 0000     		.short	0
 3718 0046 0000     		.short	0
 3719 0048 0000     		.short	0
 3720 004a 0000     		.short	0
 3721 004c 0000     		.short	0
 3722 004e 0000     		.short	0
 3723 0050 0000     		.short	0
 3724 0052 0000     		.short	0
 3725 0054 0000     		.short	0
 3726 0056 0000     		.short	0
 3727 0058 0000     		.short	0
 3728 005a 0000     		.short	0
 3729 005c 0000     		.short	0
 3730 005e 0000     		.short	0
 3731 0060 0000     		.short	0
 3732 0062 0000     		.short	0
 3733 0064 0000     		.short	0
 3734 0066 0000     		.short	0
 3735 0068 0000     		.short	0
 3736 006a 0000     		.short	0
 3737 006c 0000     		.short	0
 3738 006e 0000     		.short	0
 3739 0070 0000     		.short	0
 3740 0072 0000     		.short	0
 3741 0074 0000     		.short	0
 3742 0076 0000     		.short	0
 3743 0078 0000     		.short	0
 3744 007a 0000     		.short	0
 3745 007c 0000     		.short	0
 3746 007e 0000     		.short	0
 3747 0080 0000     		.short	0
 3748 0082 0000     		.short	0
 3749 0084 0000     		.short	0
 3750 0086 0000     		.short	0
 3751 0088 0000     		.short	0
ARM GAS  C:\Users\luvsd\AppData\Local\Temp\cceWh3pe.s 			page 87


 3752 008a 0000     		.short	0
 3753 008c 0000     		.short	0
 3754 008e 0000     		.short	0
 3755 0090 0000     		.short	0
 3756 0092 0000     		.short	0
 3757 0094 0000     		.short	0
 3758 0096 0000     		.short	0
 3759 0098 0000     		.short	0
 3760 009a 0000     		.short	0
 3761 009c 0000     		.short	0
 3762 009e 0000     		.short	0
 3763 00a0 0000     		.short	0
 3764 00a2 0000     		.short	0
 3765 00a4 0000     		.short	0
 3766 00a6 0000     		.short	0
 3767 00a8 0000     		.short	0
 3768 00aa 0000     		.short	0
 3769 00ac 0000     		.short	0
 3770 00ae 0000     		.short	0
 3771 00b0 0000     		.short	0
 3772 00b2 0000     		.short	0
 3773 00b4 0000     		.short	0
 3774 00b6 0000     		.short	0
 3775 00b8 0000     		.short	0
 3776 00ba 0000     		.short	0
 3777 00bc 0000     		.short	0
 3778 00be 0000     		.short	0
 3779 00c0 0000     		.short	0
 3780 00c2 0000     		.short	0
 3781 00c4 0000     		.short	0
 3782 00c6 0000     		.short	0
 3783 00c8 0000     		.short	0
 3784 00ca 0000     		.short	0
 3785 00cc 0000     		.short	0
 3786 00ce 0000     		.short	0
 3787 00d0 0000     		.short	0
 3788 00d2 0000     		.short	0
 3789 00d4 0000     		.short	0
 3790 00d6 0000     		.short	0
 3791 00d8 0000     		.short	0
 3792 00da 0000     		.short	0
 3793 00dc 0000     		.short	0
 3794 00de 0000     		.short	0
 3795 00e0 0000     		.short	0
 3796 00e2 0000     		.short	0
 3797 00e4 0000     		.short	0
 3798 00e6 0000     		.short	0
 3799 00e8 0000     		.short	0
 3800 00ea 0000     		.short	0
 3801 00ec 0000     		.short	0
 3802 00ee 0000     		.short	0
 3803 00f0 0000     		.short	0
 3804 00f2 0000     		.short	0
 3805 00f4 0000     		.short	0
 3806 00f6 0000     		.short	0
 3807 00f8 0000     		.short	0
 3808 00fa 0000     		.short	0
ARM GAS  C:\Users\luvsd\AppData\Local\Temp\cceWh3pe.s 			page 88


 3809 00fc 0000     		.short	0
 3810 00fe 0000     		.short	0
 3811 0100 0000     		.short	0
 3812 0102 0000     		.short	0
 3813 0104 2000     		.short	32
 3814 0106 59CE     		.short	-12711
 3815 0108 38C6     		.short	-14792
 3816 010a 0000     		.short	0
 3817 010c 0000     		.short	0
 3818 010e 0000     		.short	0
 3819 0110 0000     		.short	0
 3820 0112 0000     		.short	0
 3821 0114 0000     		.short	0
 3822 0116 0000     		.short	0
 3823 0118 0000     		.short	0
 3824 011a 0000     		.short	0
 3825 011c 0000     		.short	0
 3826 011e 0000     		.short	0
 3827 0120 0000     		.short	0
 3828 0122 0000     		.short	0
 3829 0124 0000     		.short	0
 3830 0126 0000     		.short	0
 3831 0128 0000     		.short	0
 3832 012a 0000     		.short	0
 3833 012c 0000     		.short	0
 3834 012e 0000     		.short	0
 3835 0130 0000     		.short	0
 3836 0132 0000     		.short	0
 3837 0134 0000     		.short	0
 3838 0136 0000     		.short	0
 3839 0138 0000     		.short	0
 3840 013a 0000     		.short	0
 3841 013c 0000     		.short	0
 3842 013e 0000     		.short	0
 3843 0140 0000     		.short	0
 3844 0142 0000     		.short	0
 3845 0144 3084     		.short	-31696
 3846 0146 FFFF     		.short	-1
 3847 0148 9AD6     		.short	-10598
 3848 014a 0000     		.short	0
 3849 014c 0000     		.short	0
 3850 014e 0000     		.short	0
 3851 0150 0000     		.short	0
 3852 0152 0000     		.short	0
 3853 0154 0000     		.short	0
 3854 0156 0000     		.short	0
 3855 0158 0000     		.short	0
 3856 015a 0000     		.short	0
 3857 015c 0000     		.short	0
 3858 015e 0000     		.short	0
 3859 0160 0000     		.short	0
 3860 0162 0000     		.short	0
 3861 0164 0000     		.short	0
 3862 0166 0000     		.short	0
 3863 0168 0000     		.short	0
 3864 016a 0000     		.short	0
 3865 016c 0000     		.short	0
ARM GAS  C:\Users\luvsd\AppData\Local\Temp\cceWh3pe.s 			page 89


 3866 016e C318     		.short	6339
 3867 0170 AA52     		.short	21162
 3868 0172 EF7B     		.short	31727
 3869 0174 F39C     		.short	-25357
 3870 0176 55AD     		.short	-21163
 3871 0178 34A5     		.short	-23244
 3872 017a 9294     		.short	-27502
 3873 017c CF7B     		.short	31695
 3874 017e 494A     		.short	19017
 3875 0180 6108     		.short	2145
 3876 0182 A631     		.short	12710
 3877 0184 DFFF     		.short	-33
 3878 0186 FFFF     		.short	-1
 3879 0188 C739     		.short	14791
 3880 018a 0000     		.short	0
 3881 018c 0000     		.short	0
 3882 018e 0000     		.short	0
 3883 0190 0000     		.short	0
 3884 0192 0000     		.short	0
 3885 0194 0000     		.short	0
 3886 0196 0000     		.short	0
 3887 0198 0000     		.short	0
 3888 019a 0000     		.short	0
 3889 019c 0000     		.short	0
 3890 019e 0000     		.short	0
 3891 01a0 0000     		.short	0
 3892 01a2 0000     		.short	0
 3893 01a4 0000     		.short	0
 3894 01a6 0000     		.short	0
 3895 01a8 8210     		.short	4226
 3896 01aa AE73     		.short	29614
 3897 01ac 9AD6     		.short	-10598
 3898 01ae FFFF     		.short	-1
 3899 01b0 FFFF     		.short	-1
 3900 01b2 FFFF     		.short	-1
 3901 01b4 FFFF     		.short	-1
 3902 01b6 FFFF     		.short	-1
 3903 01b8 FFFF     		.short	-1
 3904 01ba FFFF     		.short	-1
 3905 01bc FFFF     		.short	-1
 3906 01be FFFF     		.short	-1
 3907 01c0 FFFF     		.short	-1
 3908 01c2 9EF7     		.short	-2146
 3909 01c4 FFFF     		.short	-1
 3910 01c6 518C     		.short	-29615
 3911 01c8 0000     		.short	0
 3912 01ca 0000     		.short	0
 3913 01cc 0000     		.short	0
 3914 01ce 0000     		.short	0
 3915 01d0 0000     		.short	0
 3916 01d2 0000     		.short	0
 3917 01d4 0000     		.short	0
 3918 01d6 0000     		.short	0
 3919 01d8 0000     		.short	0
 3920 01da 0000     		.short	0
 3921 01dc 0000     		.short	0
 3922 01de 0000     		.short	0
ARM GAS  C:\Users\luvsd\AppData\Local\Temp\cceWh3pe.s 			page 90


 3923 01e0 0000     		.short	0
 3924 01e2 0000     		.short	0
 3925 01e4 6108     		.short	2145
 3926 01e6 518C     		.short	-29615
 3927 01e8 9EF7     		.short	-2146
 3928 01ea FFFF     		.short	-1
 3929 01ec FFFF     		.short	-1
 3930 01ee FFFF     		.short	-1
 3931 01f0 FFFF     		.short	-1
 3932 01f2 FFFF     		.short	-1
 3933 01f4 FFFF     		.short	-1
 3934 01f6 FFFF     		.short	-1
 3935 01f8 FFFF     		.short	-1
 3936 01fa FFFF     		.short	-1
 3937 01fc FFFF     		.short	-1
 3938 01fe FFFF     		.short	-1
 3939 0200 FFFF     		.short	-1
 3940 0202 FFFF     		.short	-1
 3941 0204 BAD6     		.short	-10566
 3942 0206 4108     		.short	2113
 3943 0208 CB5A     		.short	23243
 3944 020a 2000     		.short	32
 3945 020c 0000     		.short	0
 3946 020e 0000     		.short	0
 3947 0210 0000     		.short	0
 3948 0212 0000     		.short	0
 3949 0214 0000     		.short	0
 3950 0216 0000     		.short	0
 3951 0218 0000     		.short	0
 3952 021a 0000     		.short	0
 3953 021c 0000     		.short	0
 3954 021e 0000     		.short	0
 3955 0220 0000     		.short	0
 3956 0222 2842     		.short	16936
 3957 0224 3CE7     		.short	-6340
 3958 0226 FFFF     		.short	-1
 3959 0228 FFFF     		.short	-1
 3960 022a FFFF     		.short	-1
 3961 022c BEF7     		.short	-2114
 3962 022e 55AD     		.short	-21163
 3963 0230 2C63     		.short	25388
 3964 0232 8631     		.short	12678
 3965 0234 8210     		.short	4226
 3966 0236 0000     		.short	0
 3967 0238 0000     		.short	0
 3968 023a A210     		.short	4258
 3969 023c C739     		.short	14791
 3970 023e D39C     		.short	-25389
 3971 0240 FFFF     		.short	-1
 3972 0242 FFFF     		.short	-1
 3973 0244 C739     		.short	14791
 3974 0246 CB5A     		.short	23243
 3975 0248 FFFF     		.short	-1
 3976 024a DBDE     		.short	-8485
 3977 024c E739     		.short	14823
 3978 024e 0000     		.short	0
 3979 0250 0000     		.short	0
ARM GAS  C:\Users\luvsd\AppData\Local\Temp\cceWh3pe.s 			page 91


 3980 0252 0000     		.short	0
 3981 0254 0000     		.short	0
 3982 0256 0000     		.short	0
 3983 0258 0000     		.short	0
 3984 025a 0000     		.short	0
 3985 025c 0000     		.short	0
 3986 025e 0000     		.short	0
 3987 0260 EF7B     		.short	31727
 3988 0262 FFFF     		.short	-1
 3989 0264 FFFF     		.short	-1
 3990 0266 FFFF     		.short	-1
 3991 0268 3CE7     		.short	-6340
 3992 026a 8E73     		.short	29582
 3993 026c 6108     		.short	2145
 3994 026e 0000     		.short	0
 3995 0270 0000     		.short	0
 3996 0272 0000     		.short	0
 3997 0274 0000     		.short	0
 3998 0276 0000     		.short	0
 3999 0278 0000     		.short	0
 4000 027a 0000     		.short	0
 4001 027c 2000     		.short	32
 4002 027e BAD6     		.short	-10566
 4003 0280 FFFF     		.short	-1
 4004 0282 518C     		.short	-29615
 4005 0284 2000     		.short	32
 4006 0286 FBDE     		.short	-8453
 4007 0288 FFFF     		.short	-1
 4008 028a FFFF     		.short	-1
 4009 028c FFFF     		.short	-1
 4010 028e 6D6B     		.short	27501
 4011 0290 0000     		.short	0
 4012 0292 0000     		.short	0
 4013 0294 0000     		.short	0
 4014 0296 0000     		.short	0
 4015 0298 0000     		.short	0
 4016 029a 0000     		.short	0
 4017 029c 0000     		.short	0
 4018 029e B294     		.short	-27470
 4019 02a0 FFFF     		.short	-1
 4020 02a2 FFFF     		.short	-1
 4021 02a4 FFFF     		.short	-1
 4022 02a6 B294     		.short	-27470
 4023 02a8 6108     		.short	2145
 4024 02aa 0000     		.short	0
 4025 02ac 0000     		.short	0
 4026 02ae 0000     		.short	0
 4027 02b0 0000     		.short	0
 4028 02b2 0000     		.short	0
 4029 02b4 0000     		.short	0
 4030 02b6 0000     		.short	0
 4031 02b8 0000     		.short	0
 4032 02ba 0000     		.short	0
 4033 02bc 3084     		.short	-31696
 4034 02be FFFF     		.short	-1
 4035 02c0 BAD6     		.short	-10566
 4036 02c2 4108     		.short	2113
ARM GAS  C:\Users\luvsd\AppData\Local\Temp\cceWh3pe.s 			page 92


 4037 02c4 0000     		.short	0
 4038 02c6 C318     		.short	6339
 4039 02c8 34A5     		.short	-23244
 4040 02ca FFFF     		.short	-1
 4041 02cc FFFF     		.short	-1
 4042 02ce FFFF     		.short	-1
 4043 02d0 718C     		.short	-29583
 4044 02d2 0000     		.short	0
 4045 02d4 0000     		.short	0
 4046 02d6 0000     		.short	0
 4047 02d8 0000     		.short	0
 4048 02da 0000     		.short	0
 4049 02dc 0842     		.short	16904
 4050 02de FFFF     		.short	-1
 4051 02e0 FFFF     		.short	-1
 4052 02e2 BEF7     		.short	-2114
 4053 02e4 8A52     		.short	21130
 4054 02e6 0000     		.short	0
 4055 02e8 0000     		.short	0
 4056 02ea 0000     		.short	0
 4057 02ec 0000     		.short	0
 4058 02ee 4108     		.short	2113
 4059 02f0 494A     		.short	19017
 4060 02f2 9294     		.short	-27502
 4061 02f4 96B5     		.short	-19050
 4062 02f6 79CE     		.short	-12679
 4063 02f8 79CE     		.short	-12679
 4064 02fa B6B5     		.short	-19018
 4065 02fc DFFF     		.short	-33
 4066 02fe FFFF     		.short	-1
 4067 0300 C739     		.short	14791
 4068 0302 0000     		.short	0
 4069 0304 0000     		.short	0
 4070 0306 0000     		.short	0
 4071 0308 0000     		.short	0
 4072 030a EB5A     		.short	23275
 4073 030c DFFF     		.short	-33
 4074 030e FFFF     		.short	-1
 4075 0310 FFFF     		.short	-1
 4076 0312 E739     		.short	14823
 4077 0314 0000     		.short	0
 4078 0316 0000     		.short	0
 4079 0318 0000     		.short	0
 4080 031a 0000     		.short	0
 4081 031c E318     		.short	6371
 4082 031e 5DEF     		.short	-4259
 4083 0320 5DEF     		.short	-4259
 4084 0322 E739     		.short	14823
 4085 0324 0000     		.short	0
 4086 0326 0000     		.short	0
 4087 0328 0000     		.short	0
 4088 032a 6108     		.short	2145
 4089 032c 3084     		.short	-31696
 4090 032e 9EF7     		.short	-2146
 4091 0330 FFFF     		.short	-1
 4092 0332 FFFF     		.short	-1
 4093 0334 FFFF     		.short	-1
ARM GAS  C:\Users\luvsd\AppData\Local\Temp\cceWh3pe.s 			page 93


 4094 0336 FFFF     		.short	-1
 4095 0338 FFFF     		.short	-1
 4096 033a FFFF     		.short	-1
 4097 033c FFFF     		.short	-1
 4098 033e 518C     		.short	-29615
 4099 0340 C318     		.short	6339
 4100 0342 EF7B     		.short	31727
 4101 0344 4108     		.short	2113
 4102 0346 0000     		.short	0
 4103 0348 0000     		.short	0
 4104 034a 0000     		.short	0
 4105 034c 0842     		.short	16904
 4106 034e 5DEF     		.short	-4259
 4107 0350 5DEF     		.short	-4259
 4108 0352 E318     		.short	6371
 4109 0354 0000     		.short	0
 4110 0356 0000     		.short	0
 4111 0358 0000     		.short	0
 4112 035a 0000     		.short	0
 4113 035c 0000     		.short	0
 4114 035e 2000     		.short	32
 4115 0360 2000     		.short	32
 4116 0362 0000     		.short	0
 4117 0364 0000     		.short	0
 4118 0366 0000     		.short	0
 4119 0368 494A     		.short	19017
 4120 036a 5DEF     		.short	-4259
 4121 036c FFFF     		.short	-1
 4122 036e FFFF     		.short	-1
 4123 0370 FFFF     		.short	-1
 4124 0372 FFFF     		.short	-1
 4125 0374 BEF7     		.short	-2114
 4126 0376 FBDE     		.short	-8453
 4127 0378 BEF7     		.short	-2114
 4128 037a FFFF     		.short	-1
 4129 037c BAD6     		.short	-10566
 4130 037e 4108     		.short	2113
 4131 0380 75AD     		.short	-21131
 4132 0382 FFFF     		.short	-1
 4133 0384 3CE7     		.short	-6340
 4134 0386 494A     		.short	19017
 4135 0388 0000     		.short	0
 4136 038a 0000     		.short	0
 4137 038c 0000     		.short	0
 4138 038e 2000     		.short	32
 4139 0390 2000     		.short	32
 4140 0392 0000     		.short	0
 4141 0394 0000     		.short	0
 4142 0396 0000     		.short	0
 4143 0398 0000     		.short	0
 4144 039a 0000     		.short	0
 4145 039c 0000     		.short	0
 4146 039e 0000     		.short	0
 4147 03a0 0000     		.short	0
 4148 03a2 0000     		.short	0
 4149 03a4 0000     		.short	0
 4150 03a6 4D6B     		.short	27469
ARM GAS  C:\Users\luvsd\AppData\Local\Temp\cceWh3pe.s 			page 94


 4151 03a8 FFFF     		.short	-1
 4152 03aa FFFF     		.short	-1
 4153 03ac FFFF     		.short	-1
 4154 03ae 5DEF     		.short	-4259
 4155 03b0 EF7B     		.short	31727
 4156 03b2 6529     		.short	10597
 4157 03b4 0000     		.short	0
 4158 03b6 A631     		.short	12710
 4159 03b8 FFFF     		.short	-1
 4160 03ba FFFF     		.short	-1
 4161 03bc C739     		.short	14791
 4162 03be 2421     		.short	8484
 4163 03c0 7DEF     		.short	-4227
 4164 03c2 FFFF     		.short	-1
 4165 03c4 FFFF     		.short	-1
 4166 03c6 DFFF     		.short	-33
 4167 03c8 4D6B     		.short	27469
 4168 03ca 0000     		.short	0
 4169 03cc 0000     		.short	0
 4170 03ce 0000     		.short	0
 4171 03d0 0000     		.short	0
 4172 03d2 0000     		.short	0
 4173 03d4 0000     		.short	0
 4174 03d6 0000     		.short	0
 4175 03d8 0000     		.short	0
 4176 03da 0000     		.short	0
 4177 03dc 0000     		.short	0
 4178 03de 0000     		.short	0
 4179 03e0 0000     		.short	0
 4180 03e2 0000     		.short	0
 4181 03e4 A631     		.short	12710
 4182 03e6 FFFF     		.short	-1
 4183 03e8 FFFF     		.short	-1
 4184 03ea FFFF     		.short	-1
 4185 03ec 718C     		.short	-29583
 4186 03ee 6108     		.short	2145
 4187 03f0 0000     		.short	0
 4188 03f2 0000     		.short	0
 4189 03f4 2000     		.short	32
 4190 03f6 BAD6     		.short	-10566
 4191 03f8 FFFF     		.short	-1
 4192 03fa 518C     		.short	-29615
 4193 03fc 0000     		.short	0
 4194 03fe 0000     		.short	0
 4195 0400 8210     		.short	4226
 4196 0402 9294     		.short	-27502
 4197 0404 FFFF     		.short	-1
 4198 0406 FFFF     		.short	-1
 4199 0408 FFFF     		.short	-1
 4200 040a A631     		.short	12710
 4201 040c 0000     		.short	0
 4202 040e 0000     		.short	0
 4203 0410 0000     		.short	0
 4204 0412 0000     		.short	0
 4205 0414 0000     		.short	0
 4206 0416 0000     		.short	0
 4207 0418 0000     		.short	0
ARM GAS  C:\Users\luvsd\AppData\Local\Temp\cceWh3pe.s 			page 95


 4208 041a 0000     		.short	0
 4209 041c 0000     		.short	0
 4210 041e 0000     		.short	0
 4211 0420 0000     		.short	0
 4212 0422 0000     		.short	0
 4213 0424 2421     		.short	8484
 4214 0426 BEF7     		.short	-2114
 4215 0428 BEF7     		.short	-2114
 4216 042a EB5A     		.short	23275
 4217 042c 0000     		.short	0
 4218 042e 0000     		.short	0
 4219 0430 0000     		.short	0
 4220 0432 0000     		.short	0
 4221 0434 518C     		.short	-29615
 4222 0436 FFFF     		.short	-1
 4223 0438 BAD6     		.short	-10566
 4224 043a 4108     		.short	2113
 4225 043c 0000     		.short	0
 4226 043e 0000     		.short	0
 4227 0440 0000     		.short	0
 4228 0442 0000     		.short	0
 4229 0444 0C63     		.short	25356
 4230 0446 DFFF     		.short	-33
 4231 0448 BEF7     		.short	-2114
 4232 044a 2421     		.short	8484
 4233 044c 0000     		.short	0
 4234 044e 0000     		.short	0
 4235 0450 0000     		.short	0
 4236 0452 0000     		.short	0
 4237 0454 0000     		.short	0
 4238 0456 0000     		.short	0
 4239 0458 0000     		.short	0
 4240 045a 0000     		.short	0
 4241 045c 0000     		.short	0
 4242 045e 0000     		.short	0
 4243 0460 0000     		.short	0
 4244 0462 0000     		.short	0
 4245 0464 0000     		.short	0
 4246 0466 C318     		.short	6339
 4247 0468 C318     		.short	6339
 4248 046a 0000     		.short	0
 4249 046c 0000     		.short	0
 4250 046e 0000     		.short	0
 4251 0470 8210     		.short	4226
 4252 0472 CF7B     		.short	31695
 4253 0474 DFFF     		.short	-33
 4254 0476 FFFF     		.short	-1
 4255 0478 C739     		.short	14791
 4256 047a 8A52     		.short	21130
 4257 047c AE73     		.short	29614
 4258 047e 8210     		.short	4226
 4259 0480 0000     		.short	0
 4260 0482 0000     		.short	0
 4261 0484 0000     		.short	0
 4262 0486 C318     		.short	6339
 4263 0488 C318     		.short	6339
 4264 048a 0000     		.short	0
ARM GAS  C:\Users\luvsd\AppData\Local\Temp\cceWh3pe.s 			page 96


 4265 048c 0000     		.short	0
 4266 048e 0000     		.short	0
 4267 0490 0000     		.short	0
 4268 0492 0000     		.short	0
 4269 0494 0000     		.short	0
 4270 0496 0000     		.short	0
 4271 0498 0000     		.short	0
 4272 049a 0000     		.short	0
 4273 049c 0000     		.short	0
 4274 049e 0000     		.short	0
 4275 04a0 0000     		.short	0
 4276 04a2 0000     		.short	0
 4277 04a4 0000     		.short	0
 4278 04a6 0000     		.short	0
 4279 04a8 0000     		.short	0
 4280 04aa 0000     		.short	0
 4281 04ac 0000     		.short	0
 4282 04ae 2842     		.short	16936
 4283 04b0 7DEF     		.short	-4227
 4284 04b2 FFFF     		.short	-1
 4285 04b4 FFFF     		.short	-1
 4286 04b6 518C     		.short	-29615
 4287 04b8 A210     		.short	4258
 4288 04ba 5DEF     		.short	-4259
 4289 04bc FFFF     		.short	-1
 4290 04be 7DEF     		.short	-4227
 4291 04c0 2842     		.short	16936
 4292 04c2 0000     		.short	0
 4293 04c4 0000     		.short	0
 4294 04c6 0000     		.short	0
 4295 04c8 0000     		.short	0
 4296 04ca 0000     		.short	0
 4297 04cc 0000     		.short	0
 4298 04ce 0000     		.short	0
 4299 04d0 0000     		.short	0
 4300 04d2 0000     		.short	0
 4301 04d4 0000     		.short	0
 4302 04d6 0000     		.short	0
 4303 04d8 0000     		.short	0
 4304 04da 0000     		.short	0
 4305 04dc 0000     		.short	0
 4306 04de 0000     		.short	0
 4307 04e0 0000     		.short	0
 4308 04e2 0000     		.short	0
 4309 04e4 0000     		.short	0
 4310 04e6 0000     		.short	0
 4311 04e8 0000     		.short	0
 4312 04ea 0000     		.short	0
 4313 04ec 6529     		.short	10597
 4314 04ee FFFF     		.short	-1
 4315 04f0 FFFF     		.short	-1
 4316 04f2 FFFF     		.short	-1
 4317 04f4 BAD6     		.short	-10566
 4318 04f6 4108     		.short	2113
 4319 04f8 EF7B     		.short	31727
 4320 04fa DFFF     		.short	-33
 4321 04fc FFFF     		.short	-1
ARM GAS  C:\Users\luvsd\AppData\Local\Temp\cceWh3pe.s 			page 97


 4322 04fe FFFF     		.short	-1
 4323 0500 FFFF     		.short	-1
 4324 0502 6529     		.short	10597
 4325 0504 0000     		.short	0
 4326 0506 0000     		.short	0
 4327 0508 0000     		.short	0
 4328 050a 0000     		.short	0
 4329 050c 0000     		.short	0
 4330 050e 0000     		.short	0
 4331 0510 0000     		.short	0
 4332 0512 0000     		.short	0
 4333 0514 0000     		.short	0
 4334 0516 0000     		.short	0
 4335 0518 0000     		.short	0
 4336 051a 0000     		.short	0
 4337 051c 0000     		.short	0
 4338 051e 0000     		.short	0
 4339 0520 0000     		.short	0
 4340 0522 0000     		.short	0
 4341 0524 0000     		.short	0
 4342 0526 0000     		.short	0
 4343 0528 0000     		.short	0
 4344 052a 0000     		.short	0
 4345 052c 8631     		.short	12678
 4346 052e FFFF     		.short	-1
 4347 0530 FFFF     		.short	-1
 4348 0532 FFFF     		.short	-1
 4349 0534 C739     		.short	14791
 4350 0536 0000     		.short	0
 4351 0538 0000     		.short	0
 4352 053a 4108     		.short	2113
 4353 053c 3084     		.short	-31696
 4354 053e FFFF     		.short	-1
 4355 0540 FFFF     		.short	-1
 4356 0542 8631     		.short	12678
 4357 0544 0000     		.short	0
 4358 0546 0000     		.short	0
 4359 0548 0000     		.short	0
 4360 054a 0000     		.short	0
 4361 054c 0000     		.short	0
 4362 054e 0000     		.short	0
 4363 0550 0000     		.short	0
 4364 0552 0000     		.short	0
 4365 0554 0000     		.short	0
 4366 0556 0000     		.short	0
 4367 0558 0000     		.short	0
 4368 055a 0000     		.short	0
 4369 055c 0000     		.short	0
 4370 055e 0000     		.short	0
 4371 0560 0000     		.short	0
 4372 0562 0000     		.short	0
 4373 0564 0000     		.short	0
 4374 0566 0000     		.short	0
 4375 0568 0000     		.short	0
 4376 056a 0000     		.short	0
 4377 056c 2000     		.short	32
 4378 056e FBDE     		.short	-8453
ARM GAS  C:\Users\luvsd\AppData\Local\Temp\cceWh3pe.s 			page 98


 4379 0570 FFFF     		.short	-1
 4380 0572 518C     		.short	-29615
 4381 0574 0000     		.short	0
 4382 0576 0000     		.short	0
 4383 0578 0000     		.short	0
 4384 057a 0000     		.short	0
 4385 057c 0000     		.short	0
 4386 057e A631     		.short	12710
 4387 0580 A631     		.short	12710
 4388 0582 0000     		.short	0
 4389 0584 0000     		.short	0
 4390 0586 0000     		.short	0
 4391 0588 0000     		.short	0
 4392 058a 0000     		.short	0
 4393 058c 0000     		.short	0
 4394 058e 0000     		.short	0
 4395 0590 0000     		.short	0
 4396 0592 0000     		.short	0
 4397 0594 0000     		.short	0
 4398 0596 0000     		.short	0
 4399 0598 0000     		.short	0
 4400 059a 0000     		.short	0
 4401 059c 0000     		.short	0
 4402 059e 0000     		.short	0
 4403 05a0 0000     		.short	0
 4404 05a2 0000     		.short	0
 4405 05a4 0000     		.short	0
 4406 05a6 0000     		.short	0
 4407 05a8 0000     		.short	0
 4408 05aa 0000     		.short	0
 4409 05ac 518C     		.short	-29615
 4410 05ae FFFF     		.short	-1
 4411 05b0 BAD6     		.short	-10566
 4412 05b2 4108     		.short	2113
 4413 05b4 0000     		.short	0
 4414 05b6 C739     		.short	14791
 4415 05b8 C739     		.short	14791
 4416 05ba 0000     		.short	0
 4417 05bc 0000     		.short	0
 4418 05be 0000     		.short	0
 4419 05c0 0000     		.short	0
 4420 05c2 0000     		.short	0
 4421 05c4 0000     		.short	0
 4422 05c6 0000     		.short	0
 4423 05c8 0000     		.short	0
 4424 05ca 0000     		.short	0
 4425 05cc 0000     		.short	0
 4426 05ce 0000     		.short	0
 4427 05d0 0000     		.short	0
 4428 05d2 0000     		.short	0
 4429 05d4 0000     		.short	0
 4430 05d6 0000     		.short	0
 4431 05d8 0000     		.short	0
 4432 05da 0000     		.short	0
 4433 05dc 0000     		.short	0
 4434 05de 0000     		.short	0
 4435 05e0 0000     		.short	0
ARM GAS  C:\Users\luvsd\AppData\Local\Temp\cceWh3pe.s 			page 99


 4436 05e2 0000     		.short	0
 4437 05e4 0000     		.short	0
 4438 05e6 0000     		.short	0
 4439 05e8 0000     		.short	0
 4440 05ea 8631     		.short	12678
 4441 05ec DFFF     		.short	-33
 4442 05ee FFFF     		.short	-1
 4443 05f0 C739     		.short	14791
 4444 05f2 0000     		.short	0
 4445 05f4 9294     		.short	-27502
 4446 05f6 FFFF     		.short	-1
 4447 05f8 FFFF     		.short	-1
 4448 05fa 718C     		.short	-29583
 4449 05fc 0000     		.short	0
 4450 05fe 0000     		.short	0
 4451 0600 0000     		.short	0
 4452 0602 0000     		.short	0
 4453 0604 0000     		.short	0
 4454 0606 0000     		.short	0
 4455 0608 0000     		.short	0
 4456 060a 0000     		.short	0
 4457 060c 0000     		.short	0
 4458 060e 0000     		.short	0
 4459 0610 0000     		.short	0
 4460 0612 0000     		.short	0
 4461 0614 0000     		.short	0
 4462 0616 0000     		.short	0
 4463 0618 0000     		.short	0
 4464 061a 0000     		.short	0
 4465 061c 0000     		.short	0
 4466 061e 0000     		.short	0
 4467 0620 0000     		.short	0
 4468 0622 0000     		.short	0
 4469 0624 0000     		.short	0
 4470 0626 0000     		.short	0
 4471 0628 2000     		.short	32
 4472 062a BAD6     		.short	-10566
 4473 062c FFFF     		.short	-1
 4474 062e 518C     		.short	-29615
 4475 0630 0000     		.short	0
 4476 0632 0000     		.short	0
 4477 0634 9EF7     		.short	-2146
 4478 0636 FFFF     		.short	-1
 4479 0638 FFFF     		.short	-1
 4480 063a 7DEF     		.short	-4227
 4481 063c 0000     		.short	0
 4482 063e 0000     		.short	0
 4483 0640 0000     		.short	0
 4484 0642 0000     		.short	0
 4485 0644 0000     		.short	0
 4486 0646 0000     		.short	0
 4487 0648 0000     		.short	0
 4488 064a 0000     		.short	0
 4489 064c 0000     		.short	0
 4490 064e 0000     		.short	0
 4491 0650 0000     		.short	0
 4492 0652 0000     		.short	0
ARM GAS  C:\Users\luvsd\AppData\Local\Temp\cceWh3pe.s 			page 100


 4493 0654 0000     		.short	0
 4494 0656 0000     		.short	0
 4495 0658 0000     		.short	0
 4496 065a 0000     		.short	0
 4497 065c 0000     		.short	0
 4498 065e 0000     		.short	0
 4499 0660 0000     		.short	0
 4500 0662 0000     		.short	0
 4501 0664 0000     		.short	0
 4502 0666 0000     		.short	0
 4503 0668 518C     		.short	-29615
 4504 066a FFFF     		.short	-1
 4505 066c BAD6     		.short	-10566
 4506 066e 4108     		.short	2113
 4507 0670 0000     		.short	0
 4508 0672 0000     		.short	0
 4509 0674 18C6     		.short	-14824
 4510 0676 FFFF     		.short	-1
 4511 0678 FFFF     		.short	-1
 4512 067a F7BD     		.short	-16905
 4513 067c 0000     		.short	0
 4514 067e 0000     		.short	0
 4515 0680 0000     		.short	0
 4516 0682 0000     		.short	0
 4517 0684 0000     		.short	0
 4518 0686 0000     		.short	0
 4519 0688 0000     		.short	0
 4520 068a 0000     		.short	0
 4521 068c 0000     		.short	0
 4522 068e 0000     		.short	0
 4523 0690 0000     		.short	0
 4524 0692 0000     		.short	0
 4525 0694 0000     		.short	0
 4526 0696 0000     		.short	0
 4527 0698 0000     		.short	0
 4528 069a 0000     		.short	0
 4529 069c 0000     		.short	0
 4530 069e 0000     		.short	0
 4531 06a0 0000     		.short	0
 4532 06a2 0000     		.short	0
 4533 06a4 0000     		.short	0
 4534 06a6 8631     		.short	12678
 4535 06a8 DFFF     		.short	-33
 4536 06aa FFFF     		.short	-1
 4537 06ac C739     		.short	14791
 4538 06ae 0000     		.short	0
 4539 06b0 0000     		.short	0
 4540 06b2 0000     		.short	0
 4541 06b4 C318     		.short	6339
 4542 06b6 718C     		.short	-29583
 4543 06b8 718C     		.short	-29583
 4544 06ba A210     		.short	4258
 4545 06bc 0000     		.short	0
 4546 06be 0000     		.short	0
 4547 06c0 0000     		.short	0
 4548 06c2 0000     		.short	0
 4549 06c4 0000     		.short	0
ARM GAS  C:\Users\luvsd\AppData\Local\Temp\cceWh3pe.s 			page 101


 4550 06c6 0000     		.short	0
 4551 06c8 0000     		.short	0
 4552 06ca 0000     		.short	0
 4553 06cc 0000     		.short	0
 4554 06ce 0000     		.short	0
 4555 06d0 0000     		.short	0
 4556 06d2 0000     		.short	0
 4557 06d4 0000     		.short	0
 4558 06d6 0000     		.short	0
 4559 06d8 0000     		.short	0
 4560 06da 0000     		.short	0
 4561 06dc 0000     		.short	0
 4562 06de 0000     		.short	0
 4563 06e0 0000     		.short	0
 4564 06e2 0000     		.short	0
 4565 06e4 0000     		.short	0
 4566 06e6 9AD6     		.short	-10598
 4567 06e8 FFFF     		.short	-1
 4568 06ea 518C     		.short	-29615
 4569 06ec 0000     		.short	0
 4570 06ee 0000     		.short	0
 4571 06f0 0000     		.short	0
 4572 06f2 0000     		.short	0
 4573 06f4 0000     		.short	0
 4574 06f6 0000     		.short	0
 4575 06f8 0000     		.short	0
 4576 06fa 0000     		.short	0
 4577 06fc 0000     		.short	0
 4578 06fe 0000     		.short	0
 4579 0700 0000     		.short	0
 4580 0702 0000     		.short	0
 4581 0704 0000     		.short	0
 4582 0706 0000     		.short	0
 4583 0708 0000     		.short	0
 4584 070a 0000     		.short	0
 4585 070c 0000     		.short	0
 4586 070e 0000     		.short	0
 4587 0710 0000     		.short	0
 4588 0712 0000     		.short	0
 4589 0714 0000     		.short	0
 4590 0716 0000     		.short	0
 4591 0718 0000     		.short	0
 4592 071a 0000     		.short	0
 4593 071c 0000     		.short	0
 4594 071e 0000     		.short	0
 4595 0720 0000     		.short	0
 4596 0722 0000     		.short	0
 4597 0724 0000     		.short	0
 4598 0726 18C6     		.short	-14824
 4599 0728 38C6     		.short	-14792
 4600 072a 4108     		.short	2113
 4601 072c 0000     		.short	0
 4602 072e 0000     		.short	0
 4603 0730 0000     		.short	0
 4604 0732 0000     		.short	0
 4605 0734 0000     		.short	0
 4606 0736 0000     		.short	0
ARM GAS  C:\Users\luvsd\AppData\Local\Temp\cceWh3pe.s 			page 102


 4607 0738 0000     		.short	0
 4608 073a 0000     		.short	0
 4609 073c 0000     		.short	0
 4610 073e 0000     		.short	0
 4611 0740 0000     		.short	0
 4612 0742 0000     		.short	0
 4613 0744 0000     		.short	0
 4614 0746 0000     		.short	0
 4615 0748 0000     		.short	0
 4616 074a 0000     		.short	0
 4617 074c 0000     		.short	0
 4618 074e 0000     		.short	0
 4619 0750 0000     		.short	0
 4620 0752 0000     		.short	0
 4621 0754 0000     		.short	0
 4622 0756 0000     		.short	0
 4623 0758 0000     		.short	0
 4624 075a 0000     		.short	0
 4625 075c 0000     		.short	0
 4626 075e 0000     		.short	0
 4627 0760 0000     		.short	0
 4628 0762 0000     		.short	0
 4629 0764 0000     		.short	0
 4630 0766 0000     		.short	0
 4631 0768 0000     		.short	0
 4632 076a 0000     		.short	0
 4633 076c 0000     		.short	0
 4634 076e 0000     		.short	0
 4635 0770 0000     		.short	0
 4636 0772 0000     		.short	0
 4637 0774 0000     		.short	0
 4638 0776 0000     		.short	0
 4639 0778 0000     		.short	0
 4640 077a 0000     		.short	0
 4641 077c 0000     		.short	0
 4642 077e 0000     		.short	0
 4643 0780 0000     		.short	0
 4644 0782 0000     		.short	0
 4645 0784 0000     		.short	0
 4646 0786 0000     		.short	0
 4647 0788 0000     		.short	0
 4648 078a 0000     		.short	0
 4649 078c 0000     		.short	0
 4650 078e 0000     		.short	0
 4651 0790 0000     		.short	0
 4652 0792 0000     		.short	0
 4653 0794 0000     		.short	0
 4654 0796 0000     		.short	0
 4655 0798 0000     		.short	0
 4656 079a 0000     		.short	0
 4657 079c 0000     		.short	0
 4658 079e 0000     		.short	0
 4659 07a0 0000     		.short	0
 4660 07a2 0000     		.short	0
 4661 07a4 0000     		.short	0
 4662 07a6 0000     		.short	0
 4663 07a8 0000     		.short	0
ARM GAS  C:\Users\luvsd\AppData\Local\Temp\cceWh3pe.s 			page 103


 4664 07aa 0000     		.short	0
 4665 07ac 0000     		.short	0
 4666 07ae 0000     		.short	0
 4667 07b0 0000     		.short	0
 4668 07b2 0000     		.short	0
 4669 07b4 0000     		.short	0
 4670 07b6 0000     		.short	0
 4671 07b8 0000     		.short	0
 4672 07ba 0000     		.short	0
 4673 07bc 0000     		.short	0
 4674 07be 0000     		.short	0
 4675 07c0 0000     		.short	0
 4676 07c2 0000     		.short	0
 4677 07c4 0000     		.short	0
 4678 07c6 0000     		.short	0
 4679 07c8 0000     		.short	0
 4680 07ca 0000     		.short	0
 4681 07cc 0000     		.short	0
 4682 07ce 0000     		.short	0
 4683 07d0 0000     		.short	0
 4684 07d2 0000     		.short	0
 4685 07d4 0000     		.short	0
 4686 07d6 0000     		.short	0
 4687 07d8 0000     		.short	0
 4688 07da 0000     		.short	0
 4689 07dc 0000     		.short	0
 4690 07de 0000     		.short	0
 4691 07e0 0000     		.short	0
 4692 07e2 0000     		.short	0
 4693 07e4 0000     		.short	0
 4694 07e6 0000     		.short	0
 4695 07e8 0000     		.short	0
 4696 07ea 0000     		.short	0
 4697 07ec 0000     		.short	0
 4698 07ee 0000     		.short	0
 4699 07f0 0000     		.short	0
 4700 07f2 0000     		.short	0
 4701 07f4 0000     		.short	0
 4702 07f6 0000     		.short	0
 4703 07f8 0000     		.short	0
 4704 07fa 0000     		.short	0
 4705 07fc 0000     		.short	0
 4706 07fe 0000     		.short	0
 4707 0800 0000     		.short	0
 4708 0802 0000     		.short	0
 4709 0804 0000     		.short	0
 4710 0806 0000     		.short	0
 4711 0808 0000     		.short	0
 4712 080a 0000     		.short	0
 4713 080c 0000     		.short	0
 4714 080e 0000     		.short	0
 4715 0810 0000     		.short	0
 4716 0812 0000     		.short	0
 4717 0814 0000     		.short	0
 4718 0816 0000     		.short	0
 4719              		.type	image_wifi_4, %object
 4720              		.size	image_wifi_4, 2048
ARM GAS  C:\Users\luvsd\AppData\Local\Temp\cceWh3pe.s 			page 104


 4721              	image_wifi_4:
 4722 0818 0000     		.short	0
 4723 081a 0000     		.short	0
 4724 081c 0000     		.short	0
 4725 081e 0000     		.short	0
 4726 0820 0000     		.short	0
 4727 0822 0000     		.short	0
 4728 0824 0000     		.short	0
 4729 0826 0000     		.short	0
 4730 0828 0000     		.short	0
 4731 082a 0000     		.short	0
 4732 082c 0000     		.short	0
 4733 082e 0000     		.short	0
 4734 0830 0000     		.short	0
 4735 0832 0000     		.short	0
 4736 0834 0000     		.short	0
 4737 0836 0000     		.short	0
 4738 0838 0000     		.short	0
 4739 083a 0000     		.short	0
 4740 083c 0000     		.short	0
 4741 083e 0000     		.short	0
 4742 0840 0000     		.short	0
 4743 0842 0000     		.short	0
 4744 0844 0000     		.short	0
 4745 0846 0000     		.short	0
 4746 0848 0000     		.short	0
 4747 084a 0000     		.short	0
 4748 084c 0000     		.short	0
 4749 084e 0000     		.short	0
 4750 0850 0000     		.short	0
 4751 0852 0000     		.short	0
 4752 0854 0000     		.short	0
 4753 0856 0000     		.short	0
 4754 0858 0000     		.short	0
 4755 085a 0000     		.short	0
 4756 085c 0000     		.short	0
 4757 085e 0000     		.short	0
 4758 0860 0000     		.short	0
 4759 0862 0000     		.short	0
 4760 0864 0000     		.short	0
 4761 0866 0000     		.short	0
 4762 0868 0000     		.short	0
 4763 086a 0000     		.short	0
 4764 086c 0000     		.short	0
 4765 086e 0000     		.short	0
 4766 0870 0000     		.short	0
 4767 0872 0000     		.short	0
 4768 0874 0000     		.short	0
 4769 0876 0000     		.short	0
 4770 0878 0000     		.short	0
 4771 087a 0000     		.short	0
 4772 087c 0000     		.short	0
 4773 087e 0000     		.short	0
 4774 0880 0000     		.short	0
 4775 0882 0000     		.short	0
 4776 0884 0000     		.short	0
 4777 0886 0000     		.short	0
ARM GAS  C:\Users\luvsd\AppData\Local\Temp\cceWh3pe.s 			page 105


 4778 0888 0000     		.short	0
 4779 088a 0000     		.short	0
 4780 088c 0000     		.short	0
 4781 088e 0000     		.short	0
 4782 0890 0000     		.short	0
 4783 0892 0000     		.short	0
 4784 0894 0000     		.short	0
 4785 0896 0000     		.short	0
 4786 0898 0000     		.short	0
 4787 089a 0000     		.short	0
 4788 089c 0000     		.short	0
 4789 089e 0000     		.short	0
 4790 08a0 0000     		.short	0
 4791 08a2 0000     		.short	0
 4792 08a4 0000     		.short	0
 4793 08a6 0000     		.short	0
 4794 08a8 0000     		.short	0
 4795 08aa 0000     		.short	0
 4796 08ac 0000     		.short	0
 4797 08ae 0000     		.short	0
 4798 08b0 0000     		.short	0
 4799 08b2 0000     		.short	0
 4800 08b4 0000     		.short	0
 4801 08b6 0000     		.short	0
 4802 08b8 0000     		.short	0
 4803 08ba 0000     		.short	0
 4804 08bc 0000     		.short	0
 4805 08be 0000     		.short	0
 4806 08c0 0000     		.short	0
 4807 08c2 0000     		.short	0
 4808 08c4 0000     		.short	0
 4809 08c6 0000     		.short	0
 4810 08c8 0000     		.short	0
 4811 08ca 0000     		.short	0
 4812 08cc 0000     		.short	0
 4813 08ce 0000     		.short	0
 4814 08d0 0000     		.short	0
 4815 08d2 0000     		.short	0
 4816 08d4 0000     		.short	0
 4817 08d6 0000     		.short	0
 4818 08d8 0000     		.short	0
 4819 08da 0000     		.short	0
 4820 08dc 0000     		.short	0
 4821 08de 0000     		.short	0
 4822 08e0 0000     		.short	0
 4823 08e2 0000     		.short	0
 4824 08e4 0000     		.short	0
 4825 08e6 0000     		.short	0
 4826 08e8 0000     		.short	0
 4827 08ea 0000     		.short	0
 4828 08ec 0000     		.short	0
 4829 08ee 0000     		.short	0
 4830 08f0 0000     		.short	0
 4831 08f2 0000     		.short	0
 4832 08f4 0000     		.short	0
 4833 08f6 4108     		.short	2113
 4834 08f8 4108     		.short	2113
ARM GAS  C:\Users\luvsd\AppData\Local\Temp\cceWh3pe.s 			page 106


 4835 08fa 0000     		.short	0
 4836 08fc 0000     		.short	0
 4837 08fe 0000     		.short	0
 4838 0900 0000     		.short	0
 4839 0902 0000     		.short	0
 4840 0904 0000     		.short	0
 4841 0906 0000     		.short	0
 4842 0908 0000     		.short	0
 4843 090a 0000     		.short	0
 4844 090c 0000     		.short	0
 4845 090e 0000     		.short	0
 4846 0910 0000     		.short	0
 4847 0912 0000     		.short	0
 4848 0914 0000     		.short	0
 4849 0916 0000     		.short	0
 4850 0918 0000     		.short	0
 4851 091a 0000     		.short	0
 4852 091c 0000     		.short	0
 4853 091e 0000     		.short	0
 4854 0920 0000     		.short	0
 4855 0922 0000     		.short	0
 4856 0924 0000     		.short	0
 4857 0926 0000     		.short	0
 4858 0928 0000     		.short	0
 4859 092a 4108     		.short	2113
 4860 092c 694A     		.short	19049
 4861 092e B294     		.short	-27470
 4862 0930 18C6     		.short	-14824
 4863 0932 DBDE     		.short	-8485
 4864 0934 9EF7     		.short	-2146
 4865 0936 FFFF     		.short	-1
 4866 0938 FFFF     		.short	-1
 4867 093a 9EF7     		.short	-2146
 4868 093c DBDE     		.short	-8485
 4869 093e 18C6     		.short	-14824
 4870 0940 B294     		.short	-27470
 4871 0942 694A     		.short	19049
 4872 0944 4108     		.short	2113
 4873 0946 0000     		.short	0
 4874 0948 0000     		.short	0
 4875 094a 0000     		.short	0
 4876 094c 0000     		.short	0
 4877 094e 0000     		.short	0
 4878 0950 0000     		.short	0
 4879 0952 0000     		.short	0
 4880 0954 0000     		.short	0
 4881 0956 0000     		.short	0
 4882 0958 0000     		.short	0
 4883 095a 0000     		.short	0
 4884 095c 0000     		.short	0
 4885 095e 0000     		.short	0
 4886 0960 0000     		.short	0
 4887 0962 0000     		.short	0
 4888 0964 0000     		.short	0
 4889 0966 EB5A     		.short	23275
 4890 0968 D7BD     		.short	-16937
 4891 096a DFFF     		.short	-33
ARM GAS  C:\Users\luvsd\AppData\Local\Temp\cceWh3pe.s 			page 107


 4892 096c FFFF     		.short	-1
 4893 096e FFFF     		.short	-1
 4894 0970 FFFF     		.short	-1
 4895 0972 FFFF     		.short	-1
 4896 0974 FFFF     		.short	-1
 4897 0976 FFFF     		.short	-1
 4898 0978 FFFF     		.short	-1
 4899 097a FFFF     		.short	-1
 4900 097c FFFF     		.short	-1
 4901 097e FFFF     		.short	-1
 4902 0980 FFFF     		.short	-1
 4903 0982 FFFF     		.short	-1
 4904 0984 DFFF     		.short	-33
 4905 0986 D7BD     		.short	-16937
 4906 0988 EB5A     		.short	23275
 4907 098a 0000     		.short	0
 4908 098c 0000     		.short	0
 4909 098e 0000     		.short	0
 4910 0990 0000     		.short	0
 4911 0992 0000     		.short	0
 4912 0994 0000     		.short	0
 4913 0996 0000     		.short	0
 4914 0998 0000     		.short	0
 4915 099a 0000     		.short	0
 4916 099c 0000     		.short	0
 4917 099e 0000     		.short	0
 4918 09a0 0000     		.short	0
 4919 09a2 8A52     		.short	21130
 4920 09a4 BAD6     		.short	-10566
 4921 09a6 FFFF     		.short	-1
 4922 09a8 FFFF     		.short	-1
 4923 09aa FFFF     		.short	-1
 4924 09ac FFFF     		.short	-1
 4925 09ae FFFF     		.short	-1
 4926 09b0 FFFF     		.short	-1
 4927 09b2 FFFF     		.short	-1
 4928 09b4 FFFF     		.short	-1
 4929 09b6 FFFF     		.short	-1
 4930 09b8 FFFF     		.short	-1
 4931 09ba FFFF     		.short	-1
 4932 09bc FFFF     		.short	-1
 4933 09be FFFF     		.short	-1
 4934 09c0 FFFF     		.short	-1
 4935 09c2 FFFF     		.short	-1
 4936 09c4 FFFF     		.short	-1
 4937 09c6 FFFF     		.short	-1
 4938 09c8 FFFF     		.short	-1
 4939 09ca BAD6     		.short	-10566
 4940 09cc 8A52     		.short	21130
 4941 09ce 0000     		.short	0
 4942 09d0 0000     		.short	0
 4943 09d2 0000     		.short	0
 4944 09d4 0000     		.short	0
 4945 09d6 0000     		.short	0
 4946 09d8 0000     		.short	0
 4947 09da 0000     		.short	0
 4948 09dc 0000     		.short	0
ARM GAS  C:\Users\luvsd\AppData\Local\Temp\cceWh3pe.s 			page 108


 4949 09de 6529     		.short	10597
 4950 09e0 59CE     		.short	-12711
 4951 09e2 FFFF     		.short	-1
 4952 09e4 FFFF     		.short	-1
 4953 09e6 FFFF     		.short	-1
 4954 09e8 FFFF     		.short	-1
 4955 09ea FFFF     		.short	-1
 4956 09ec FFFF     		.short	-1
 4957 09ee 7DEF     		.short	-4227
 4958 09f0 75AD     		.short	-21131
 4959 09f2 718C     		.short	-29583
 4960 09f4 AE73     		.short	29614
 4961 09f6 EB5A     		.short	23275
 4962 09f8 EB5A     		.short	23275
 4963 09fa AE73     		.short	29614
 4964 09fc 718C     		.short	-29583
 4965 09fe 75AD     		.short	-21131
 4966 0a00 7DEF     		.short	-4227
 4967 0a02 FFFF     		.short	-1
 4968 0a04 FFFF     		.short	-1
 4969 0a06 FFFF     		.short	-1
 4970 0a08 FFFF     		.short	-1
 4971 0a0a FFFF     		.short	-1
 4972 0a0c FFFF     		.short	-1
 4973 0a0e 59CE     		.short	-12711
 4974 0a10 6529     		.short	10597
 4975 0a12 0000     		.short	0
 4976 0a14 0000     		.short	0
 4977 0a16 0000     		.short	0
 4978 0a18 0000     		.short	0
 4979 0a1a 0000     		.short	0
 4980 0a1c AA52     		.short	21162
 4981 0a1e BEF7     		.short	-2114
 4982 0a20 FFFF     		.short	-1
 4983 0a22 FFFF     		.short	-1
 4984 0a24 FFFF     		.short	-1
 4985 0a26 FFFF     		.short	-1
 4986 0a28 5DEF     		.short	-4259
 4987 0a2a 718C     		.short	-29583
 4988 0a2c E739     		.short	14823
 4989 0a2e 2000     		.short	32
 4990 0a30 0000     		.short	0
 4991 0a32 0000     		.short	0
 4992 0a34 0000     		.short	0
 4993 0a36 0000     		.short	0
 4994 0a38 0000     		.short	0
 4995 0a3a 0000     		.short	0
 4996 0a3c 0000     		.short	0
 4997 0a3e 0000     		.short	0
 4998 0a40 2000     		.short	32
 4999 0a42 E739     		.short	14823
 5000 0a44 718C     		.short	-29583
 5001 0a46 5DEF     		.short	-4259
 5002 0a48 FFFF     		.short	-1
 5003 0a4a FFFF     		.short	-1
 5004 0a4c FFFF     		.short	-1
 5005 0a4e FFFF     		.short	-1
ARM GAS  C:\Users\luvsd\AppData\Local\Temp\cceWh3pe.s 			page 109


 5006 0a50 BEF7     		.short	-2114
 5007 0a52 AA52     		.short	21162
 5008 0a54 0000     		.short	0
 5009 0a56 0000     		.short	0
 5010 0a58 0000     		.short	0
 5011 0a5a 1084     		.short	-31728
 5012 0a5c FFFF     		.short	-1
 5013 0a5e FFFF     		.short	-1
 5014 0a60 FFFF     		.short	-1
 5015 0a62 FFFF     		.short	-1
 5016 0a64 9EF7     		.short	-2146
 5017 0a66 EF7B     		.short	31727
 5018 0a68 6108     		.short	2145
 5019 0a6a 0000     		.short	0
 5020 0a6c 0000     		.short	0
 5021 0a6e 0000     		.short	0
 5022 0a70 0000     		.short	0
 5023 0a72 0000     		.short	0
 5024 0a74 0000     		.short	0
 5025 0a76 0000     		.short	0
 5026 0a78 0000     		.short	0
 5027 0a7a 0000     		.short	0
 5028 0a7c 0000     		.short	0
 5029 0a7e 0000     		.short	0
 5030 0a80 0000     		.short	0
 5031 0a82 0000     		.short	0
 5032 0a84 0000     		.short	0
 5033 0a86 6108     		.short	2145
 5034 0a88 EF7B     		.short	31727
 5035 0a8a 9EF7     		.short	-2146
 5036 0a8c FFFF     		.short	-1
 5037 0a8e FFFF     		.short	-1
 5038 0a90 FFFF     		.short	-1
 5039 0a92 FFFF     		.short	-1
 5040 0a94 1084     		.short	-31728
 5041 0a96 0000     		.short	0
 5042 0a98 518C     		.short	-29615
 5043 0a9a FFFF     		.short	-1
 5044 0a9c FFFF     		.short	-1
 5045 0a9e FFFF     		.short	-1
 5046 0aa0 FFFF     		.short	-1
 5047 0aa2 14A5     		.short	-23276
 5048 0aa4 8210     		.short	4226
 5049 0aa6 0000     		.short	0
 5050 0aa8 0000     		.short	0
 5051 0aaa 0000     		.short	0
 5052 0aac 0000     		.short	0
 5053 0aae 0000     		.short	0
 5054 0ab0 2000     		.short	32
 5055 0ab2 8631     		.short	12678
 5056 0ab4 494A     		.short	19017
 5057 0ab6 0C63     		.short	25356
 5058 0ab8 0C63     		.short	25356
 5059 0aba 494A     		.short	19017
 5060 0abc 8631     		.short	12678
 5061 0abe 2000     		.short	32
 5062 0ac0 0000     		.short	0
ARM GAS  C:\Users\luvsd\AppData\Local\Temp\cceWh3pe.s 			page 110


 5063 0ac2 0000     		.short	0
 5064 0ac4 0000     		.short	0
 5065 0ac6 0000     		.short	0
 5066 0ac8 0000     		.short	0
 5067 0aca 8210     		.short	4226
 5068 0acc 14A5     		.short	-23276
 5069 0ace FFFF     		.short	-1
 5070 0ad0 FFFF     		.short	-1
 5071 0ad2 FFFF     		.short	-1
 5072 0ad4 FFFF     		.short	-1
 5073 0ad6 518C     		.short	-29615
 5074 0ad8 3CE7     		.short	-6340
 5075 0ada FFFF     		.short	-1
 5076 0adc FFFF     		.short	-1
 5077 0ade FFFF     		.short	-1
 5078 0ae0 AE73     		.short	29614
 5079 0ae2 0000     		.short	0
 5080 0ae4 0000     		.short	0
 5081 0ae6 0000     		.short	0
 5082 0ae8 0000     		.short	0
 5083 0aea 4108     		.short	2113
 5084 0aec 4D6B     		.short	27469
 5085 0aee 96B5     		.short	-19050
 5086 0af0 BEF7     		.short	-2114
 5087 0af2 FFFF     		.short	-1
 5088 0af4 FFFF     		.short	-1
 5089 0af6 FFFF     		.short	-1
 5090 0af8 FFFF     		.short	-1
 5091 0afa FFFF     		.short	-1
 5092 0afc FFFF     		.short	-1
 5093 0afe BEF7     		.short	-2114
 5094 0b00 96B5     		.short	-19050
 5095 0b02 4D6B     		.short	27469
 5096 0b04 4108     		.short	2113
 5097 0b06 0000     		.short	0
 5098 0b08 0000     		.short	0
 5099 0b0a 0000     		.short	0
 5100 0b0c 0000     		.short	0
 5101 0b0e 8E73     		.short	29582
 5102 0b10 FFFF     		.short	-1
 5103 0b12 FFFF     		.short	-1
 5104 0b14 FFFF     		.short	-1
 5105 0b16 3CE7     		.short	-6340
 5106 0b18 518C     		.short	-29615
 5107 0b1a FFFF     		.short	-1
 5108 0b1c 5DEF     		.short	-4259
 5109 0b1e 494A     		.short	19017
 5110 0b20 0000     		.short	0
 5111 0b22 0000     		.short	0
 5112 0b24 0000     		.short	0
 5113 0b26 2000     		.short	32
 5114 0b28 4D6B     		.short	27469
 5115 0b2a 3CE7     		.short	-6340
 5116 0b2c FFFF     		.short	-1
 5117 0b2e FFFF     		.short	-1
 5118 0b30 FFFF     		.short	-1
 5119 0b32 FFFF     		.short	-1
ARM GAS  C:\Users\luvsd\AppData\Local\Temp\cceWh3pe.s 			page 111


 5120 0b34 FFFF     		.short	-1
 5121 0b36 FFFF     		.short	-1
 5122 0b38 FFFF     		.short	-1
 5123 0b3a FFFF     		.short	-1
 5124 0b3c FFFF     		.short	-1
 5125 0b3e FFFF     		.short	-1
 5126 0b40 FFFF     		.short	-1
 5127 0b42 FFFF     		.short	-1
 5128 0b44 3CE7     		.short	-6340
 5129 0b46 4D6B     		.short	27469
 5130 0b48 2000     		.short	32
 5131 0b4a 0000     		.short	0
 5132 0b4c 0000     		.short	0
 5133 0b4e 0000     		.short	0
 5134 0b50 2842     		.short	16936
 5135 0b52 3CE7     		.short	-6340
 5136 0b54 FFFF     		.short	-1
 5137 0b56 518C     		.short	-29615
 5138 0b58 0000     		.short	0
 5139 0b5a 0421     		.short	8452
 5140 0b5c 2000     		.short	32
 5141 0b5e 0000     		.short	0
 5142 0b60 0000     		.short	0
 5143 0b62 0000     		.short	0
 5144 0b64 E318     		.short	6371
