ARM GAS  C:\Users\luvsd\AppData\Local\Temp\ccPwAV0N.s 			page 1


   1              		.syntax unified
   2              		.cpu cortex-m0
   3              		.fpu softvfp
   4              		.eabi_attribute 20, 1
   5              		.eabi_attribute 21, 1
   6              		.eabi_attribute 23, 3
   7              		.eabi_attribute 24, 1
   8              		.eabi_attribute 25, 1
   9              		.eabi_attribute 26, 1
  10              		.eabi_attribute 30, 1
  11              		.eabi_attribute 34, 0
  12              		.eabi_attribute 18, 4
  13              		.thumb
  14              		.syntax unified
  15              		.file	"WIFI.c"
  16              		.text
  17              	.Ltext0:
  18              		.cfi_sections	.debug_frame
  19              		.section	.text.initWIFI,"ax",%progbits
  20              		.align	2
  21              		.global	initWIFI
  22              		.code	16
  23              		.thumb_func
  24              		.type	initWIFI, %function
  25              	initWIFI:
  26              	.LFB62:
  27              		.file 1 "lib\\WIFI.c"
   1:lib/WIFI.c    **** /* ========================================
   2:lib/WIFI.c    ****  *
   3:lib/WIFI.c    ****  * Copyright Suntech, 2023.02.01
   4:lib/WIFI.c    ****  * All Rights Reserved
   5:lib/WIFI.c    ****  * UNPUBLISHED, LICENSED SOFTWARE.
   6:lib/WIFI.c    ****  *
   7:lib/WIFI.c    ****  * CONFIDENTIAL AND PROPRIETARY INFORMATION
   8:lib/WIFI.c    ****  * WHICH IS THE PROPERTY OF Suntech.
   9:lib/WIFI.c    ****  *
  10:lib/WIFI.c    ****  * ========================================
  11:lib/WIFI.c    **** */
  12:lib/WIFI.c    **** /* [] END OF FILE */
  13:lib/WIFI.c    **** #include "WIFI.h"
  14:lib/WIFI.c    **** #include "andonApi.h"
  15:lib/WIFI.c    **** #include "sysTick.h"
  16:lib/WIFI.c    **** #include "widget.h"
  17:lib/WIFI.c    **** #include "server.h"
  18:lib/WIFI.c    **** #include "utility.h"
  19:lib/WIFI.c    **** #include "LEDControl.h"
  20:lib/WIFI.c    **** 
  21:lib/WIFI.c    **** NETWORK      g_network;
  22:lib/WIFI.c    **** 
  23:lib/WIFI.c    **** uint8 g_WIFI_ReceiveBuffer[MAX_WIFI_RECEIVE_BUFFER+1];
  24:lib/WIFI.c    **** uint16 g_size_WIFI_ReceiveBuffer=0;
  25:lib/WIFI.c    **** 
  26:lib/WIFI.c    **** ACCESS_POINT g_APs[MAX_NO_OF_ACCESS_POINT];
  27:lib/WIFI.c    **** uint16 g_SizeOfAPs;
  28:lib/WIFI.c    **** 
  29:lib/WIFI.c    **** char *g_ptrHttpReceivedText=NULL;
  30:lib/WIFI.c    **** uint16 g_sizeOfHttpText;
ARM GAS  C:\Users\luvsd\AppData\Local\Temp\ccPwAV0N.s 			page 2


  31:lib/WIFI.c    **** 
  32:lib/WIFI.c    **** uint8 g_wifi_cmd = WIFI_CMD_IDLE;
  33:lib/WIFI.c    **** 
  34:lib/WIFI.c    **** uint8 g_index_WifiStrength;
  35:lib/WIFI.c    **** 
  36:lib/WIFI.c    **** #define WIFI_CMD(str) wifi_printf("%s\r\n",str)
  37:lib/WIFI.c    **** 
  38:lib/WIFI.c    **** void initWIFI()
  39:lib/WIFI.c    **** {  
  28              		.loc 1 39 0
  29              		.cfi_startproc
  30              		@ args = 0, pretend = 0, frame = 0
  31              		@ frame_needed = 0, uses_anonymous_args = 0
  32 0000 10B5     		push	{r4, lr}
  33              		.cfi_def_cfa_offset 8
  34              		.cfi_offset 4, -8
  35              		.cfi_offset 14, -4
  40:lib/WIFI.c    ****     //////////////////////////////////////////////////////////////
  41:lib/WIFI.c    ****     memset(&g_network,0,sizeof(g_network));       
  36              		.loc 1 41 0
  37 0002 0C4C     		ldr	r4, .L2
  38 0004 8022     		movs	r2, #128
  39 0006 0021     		movs	r1, #0
  40 0008 2000     		movs	r0, r4
  41 000a FFF7FEFF 		bl	memset
  42              	.LVL0:
  42:lib/WIFI.c    ****     g_network.RSSI = INT16_MIN;
  43              		.loc 1 42 0
  44 000e 0A4B     		ldr	r3, .L2+4
  45 0010 6380     		strh	r3, [r4, #2]
  43:lib/WIFI.c    ****     g_network.bWifiReady = FALSE;
  44:lib/WIFI.c    ****     
  45:lib/WIFI.c    ****     UART_WIFI_Start();    
  46              		.loc 1 45 0
  47 0012 FFF7FEFF 		bl	UART_WIFI_Start
  48              	.LVL1:
  46:lib/WIFI.c    ****     WIFI_EN_Write(1);
  49              		.loc 1 46 0
  50 0016 0120     		movs	r0, #1
  51 0018 FFF7FEFF 		bl	WIFI_EN_Write
  52              	.LVL2:
  47:lib/WIFI.c    ****     CyDelay(20); // Minimum 10ms
  53              		.loc 1 47 0
  54 001c 1420     		movs	r0, #20
  55 001e FFF7FEFF 		bl	CyDelay
  56              	.LVL3:
  48:lib/WIFI.c    ****     WIFI_RESET_Write(1);
  57              		.loc 1 48 0
  58 0022 0120     		movs	r0, #1
  59 0024 FFF7FEFF 		bl	WIFI_RESET_Write
  60              	.LVL4:
  49:lib/WIFI.c    **** 
  50:lib/WIFI.c    ****     g_index_WifiStrength = registerCounter_1ms(5000);
  61              		.loc 1 50 0
  62 0028 0448     		ldr	r0, .L2+8
  63 002a FFF7FEFF 		bl	registerCounter_1ms
  64              	.LVL5:
ARM GAS  C:\Users\luvsd\AppData\Local\Temp\ccPwAV0N.s 			page 3


  65 002e 044B     		ldr	r3, .L2+12
  66 0030 1870     		strb	r0, [r3]
  51:lib/WIFI.c    **** }
  67              		.loc 1 51 0
  68              		@ sp needed
  69 0032 10BD     		pop	{r4, pc}
  70              	.L3:
  71              		.align	2
  72              	.L2:
  73 0034 00000000 		.word	g_network
  74 0038 0080FFFF 		.word	-32768
  75 003c 88130000 		.word	5000
  76 0040 00000000 		.word	g_index_WifiStrength
  77              		.cfi_endproc
  78              	.LFE62:
  79              		.size	initWIFI, .-initWIFI
  80              		.section	.text.wifiLoop,"ax",%progbits
  81              		.align	2
  82              		.global	wifiLoop
  83              		.code	16
  84              		.thumb_func
  85              		.type	wifiLoop, %function
  86              	wifiLoop:
  87              	.LFB63:
  52:lib/WIFI.c    **** 
  53:lib/WIFI.c    **** void wifiLoop()
  54:lib/WIFI.c    **** {
  88              		.loc 1 54 0
  89              		.cfi_startproc
  90              		@ args = 0, pretend = 0, frame = 0
  91              		@ frame_needed = 0, uses_anonymous_args = 0
  92              		@ link register save eliminated.
  55:lib/WIFI.c    ****     /*static uint8 bReset = TRUE;
  56:lib/WIFI.c    ****     
  57:lib/WIFI.c    ****     if(g_network.RSSI == INT16_MIN || g_network.RSSI == 0)
  58:lib/WIFI.c    ****     {
  59:lib/WIFI.c    ****         g_bLED1_Flickering = TRUE;
  60:lib/WIFI.c    ****     } else {
  61:lib/WIFI.c    ****         g_bLED1_Flickering = FALSE;        
  62:lib/WIFI.c    ****     }
  63:lib/WIFI.c    ****     
  64:lib/WIFI.c    ****     // AP에서 IP를 받았고, WIFI Module에 CMD처리가 없고, 안돈 cmd가 있다면 처리
  65:lib/WIFI.c    ****     if(g_network.isConnectAP && g_wifi_cmd == WIFI_CMD_IDLE)
  66:lib/WIFI.c    ****     {
  67:lib/WIFI.c    ****         if(andonLoop() == FALSE) // 안돈에서 처리할 것이 없다면
  68:lib/WIFI.c    ****         {
  69:lib/WIFI.c    ****             if(isFinishCounter_1ms(g_index_WifiStrength)) // Wifi Strength 체크를 5sec마다 수
  70:lib/WIFI.c    ****             {
  71:lib/WIFI.c    ****                 resetCounter_1ms(g_index_WifiStrength);
  72:lib/WIFI.c    ****                 wifi_cmd(WIFI_CMD_RECEIVED_STRENGTH);               
  73:lib/WIFI.c    ****             }
  74:lib/WIFI.c    ****         }
  75:lib/WIFI.c    ****     }
  76:lib/WIFI.c    ****     
  77:lib/WIFI.c    ****     if(wifi_receive_data())
  78:lib/WIFI.c    ****     {    
  79:lib/WIFI.c    ****         if(g_network.isConnectAP)  // IDLE
ARM GAS  C:\Users\luvsd\AppData\Local\Temp\ccPwAV0N.s 			page 4


  80:lib/WIFI.c    ****         {
  81:lib/WIFI.c    ****             wifi_get_response();
  82:lib/WIFI.c    ****             if(g_sizeOfHttpText > 0)
  83:lib/WIFI.c    ****             {
  84:lib/WIFI.c    ****                 andonResponse(g_ptrHttpReceivedText,g_sizeOfHttpText);
  85:lib/WIFI.c    ****                 
  86:lib/WIFI.c    ****                 g_sizeOfHttpText = 0;
  87:lib/WIFI.c    ****                 g_ptrHttpReceivedText=NULL;
  88:lib/WIFI.c    ****             }
  89:lib/WIFI.c    ****         }
  90:lib/WIFI.c    ****         else
  91:lib/WIFI.c    ****         {
  92:lib/WIFI.c    ****             wifiConnectAP(bReset);
  93:lib/WIFI.c    ****         }
  94:lib/WIFI.c    ****         
  95:lib/WIFI.c    ****         clearWifiBuffer();
  96:lib/WIFI.c    ****     }*/
  97:lib/WIFI.c    **** }
  93              		.loc 1 97 0
  94              		@ sp needed
  95 0000 7047     		bx	lr
  96              		.cfi_endproc
  97              	.LFE63:
  98              		.size	wifiLoop, .-wifiLoop
  99 0002 C046     		.section	.text.wifi_receive_data,"ax",%progbits
 100              		.align	2
 101              		.global	wifi_receive_data
 102              		.code	16
 103              		.thumb_func
 104              		.type	wifi_receive_data, %function
 105              	wifi_receive_data:
 106              	.LFB65:
  98:lib/WIFI.c    **** 
  99:lib/WIFI.c    **** #define STRSTR_WIFI_BUFFER(str) strstr((char*) g_WIFI_ReceiveBuffer,str)
 100:lib/WIFI.c    ****     
 101:lib/WIFI.c    **** // 할당된 IP를 찾는다.
 102:lib/WIFI.c    **** uint8 wifiConnectAP()
 103:lib/WIFI.c    **** {    
 104:lib/WIFI.c    ****     int i=0;    
 105:lib/WIFI.c    ****     static uint8 nLoop = 0;
 106:lib/WIFI.c    ****         
 107:lib/WIFI.c    ****     switch(nLoop)
 108:lib/WIFI.c    ****     {
 109:lib/WIFI.c    ****         case 0: // Wifi Ready Check
 110:lib/WIFI.c    ****             if(STRSTR_WIFI_BUFFER("*ICT*DEVICEREADY") != NULL)            
 111:lib/WIFI.c    ****             {
 112:lib/WIFI.c    ****                 printf("Ready Wifi\r\n");
 113:lib/WIFI.c    ****                 g_network.isConnectAP = FALSE;
 114:lib/WIFI.c    ****                 wifi_cmd(WIFI_CMD_GET_MAC); // request MAC                
 115:lib/WIFI.c    ****                 nLoop++;
 116:lib/WIFI.c    ****             }
 117:lib/WIFI.c    ****             break;
 118:lib/WIFI.c    ****         case 1: // get Mac
 119:lib/WIFI.c    ****             if(STRSTR_WIFI_BUFFER("*ICT*MAC:OK") != NULL)            
 120:lib/WIFI.c    ****             {
 121:lib/WIFI.c    ****                 char *p = STRSTR_WIFI_BUFFER(" "); p++;
 122:lib/WIFI.c    ****                 while(*p != CR)  g_network.MAC[i++]  = *p++;                  
ARM GAS  C:\Users\luvsd\AppData\Local\Temp\ccPwAV0N.s 			page 5


 123:lib/WIFI.c    ****                // printNetworkInfo();   
 124:lib/WIFI.c    ****                 g_network.bWifiReady = TRUE;
 125:lib/WIFI.c    ****             } else 
 126:lib/WIFI.c    ****                 printf("WIFI_RESP_GET_MAC ERROR\r\n");   
 127:lib/WIFI.c    ****                               
 128:lib/WIFI.c    ****             nLoop++;
 129:lib/WIFI.c    ****             break;            
 130:lib/WIFI.c    ****         case 2: // get IP
 131:lib/WIFI.c    ****             if(STRSTR_WIFI_BUFFER("*ICT*IPALLOCATED:") != NULL)            
 132:lib/WIFI.c    ****             {
 133:lib/WIFI.c    ****                 char *p = STRSTR_WIFI_BUFFER(":"); p++;
 134:lib/WIFI.c    ****                 
 135:lib/WIFI.c    ****                 while(*p != ' ') g_network.IPv4[i++]       = *p++; p++; i=0; // IPv4
 136:lib/WIFI.c    ****                 while(*p != ' ') g_network.SubnetMask[i++] = *p++; p++; i=0; // Subnet Mask        
 137:lib/WIFI.c    ****                 while(*p != ' ') g_network.Gateway[i++]    = *p++; p++; i=0; // Gateway
 138:lib/WIFI.c    ****                 while(*p != CR)  g_network.DNSServer[i++]  = *p++; p++; i=0; // DNS Server         
 139:lib/WIFI.c    **** //                printNetworkInfo();                   
 140:lib/WIFI.c    **** 
 141:lib/WIFI.c    ****                 nLoop++;
 142:lib/WIFI.c    ****                 WIFI_CMD("AT*ICT*MIB=0"); break;
 143:lib/WIFI.c    ****             }
 144:lib/WIFI.c    ****             break;
 145:lib/WIFI.c    ****             case 3:
 146:lib/WIFI.c    ****                 if(STRSTR_WIFI_BUFFER("*ICT*MIB:OK") != NULL)
 147:lib/WIFI.c    ****                 {
 148:lib/WIFI.c    ****                     char * p = STRSTR_WIFI_BUFFER(" "); p++;
 149:lib/WIFI.c    ****                     strcpy(g_network.SSID,p);
 150:lib/WIFI.c    ****                 } else
 151:lib/WIFI.c    ****                     printf("WIFI_CMD_RECEIVED_STRENGTH ERROR\r\n");
 152:lib/WIFI.c    ****                            
 153:lib/WIFI.c    ****                 g_network.isConnectAP = TRUE;  
 154:lib/WIFI.c    ****                 
 155:lib/WIFI.c    ****                 wifi_cmd(WIFI_CMD_RECEIVED_STRENGTH);
 156:lib/WIFI.c    ****                 resetCounter_1ms(g_index_WifiStrength);
 157:lib/WIFI.c    ****                 
 158:lib/WIFI.c    ****                 initAndon();
 159:lib/WIFI.c    ****                 nLoop = 0;
 160:lib/WIFI.c    ****                     
 161:lib/WIFI.c    ****             break;
 162:lib/WIFI.c    **** 
 163:lib/WIFI.c    ****     }    
 164:lib/WIFI.c    ****     return nLoop;
 165:lib/WIFI.c    **** }
 166:lib/WIFI.c    **** 
 167:lib/WIFI.c    **** uint8 wifi_receive_data()
 168:lib/WIFI.c    **** {
 107              		.loc 1 168 0
 108              		.cfi_startproc
 109              		@ args = 0, pretend = 0, frame = 0
 110              		@ frame_needed = 0, uses_anonymous_args = 0
 111 0000 10B5     		push	{r4, lr}
 112              		.cfi_def_cfa_offset 8
 113              		.cfi_offset 4, -8
 114              		.cfi_offset 14, -4
 169:lib/WIFI.c    ****     uint8 c;   
 170:lib/WIFI.c    ****     while(UART_WIFI_SpiUartGetRxBufferSize() > 0 )
 115              		.loc 1 170 0
ARM GAS  C:\Users\luvsd\AppData\Local\Temp\ccPwAV0N.s 			page 6


 116 0002 0FE0     		b	.L7
 117              	.L9:
 171:lib/WIFI.c    ****     {
 172:lib/WIFI.c    ****         if((c = UART_WIFI_UartGetChar()) > 0)
 118              		.loc 1 172 0
 119 0004 FFF7FEFF 		bl	UART_WIFI_UartGetChar
 120              	.LVL6:
 121 0008 C0B2     		uxtb	r0, r0
 122              	.LVL7:
 123 000a 0028     		cmp	r0, #0
 124 000c 0AD0     		beq	.L7
 173:lib/WIFI.c    ****         {
 174:lib/WIFI.c    ****             g_WIFI_ReceiveBuffer[g_size_WIFI_ReceiveBuffer++] = c;
 125              		.loc 1 174 0
 126 000e 094A     		ldr	r2, .L11
 127 0010 1188     		ldrh	r1, [r2]
 128 0012 4B1C     		adds	r3, r1, #1
 129 0014 9BB2     		uxth	r3, r3
 130 0016 1380     		strh	r3, [r2]
 131 0018 074A     		ldr	r2, .L11+4
 132 001a 5054     		strb	r0, [r2, r1]
 175:lib/WIFI.c    ****             g_WIFI_ReceiveBuffer[g_size_WIFI_ReceiveBuffer] = 0;
 133              		.loc 1 175 0
 134 001c 0021     		movs	r1, #0
 135 001e D154     		strb	r1, [r2, r3]
 176:lib/WIFI.c    ****             if(c == LF) return TRUE;
 136              		.loc 1 176 0
 137 0020 0A28     		cmp	r0, #10
 138 0022 04D0     		beq	.L10
 139              	.LVL8:
 140              	.L7:
 170:lib/WIFI.c    ****     {
 141              		.loc 1 170 0
 142 0024 FFF7FEFF 		bl	UART_WIFI_SpiUartGetRxBufferSize
 143              	.LVL9:
 144 0028 0028     		cmp	r0, #0
 145 002a EBD1     		bne	.L9
 146 002c 00E0     		b	.L8
 147              	.LVL10:
 148              	.L10:
 149              		.loc 1 176 0
 150 002e 0120     		movs	r0, #1
 151              	.LVL11:
 152              	.L8:
 177:lib/WIFI.c    ****         }
 178:lib/WIFI.c    ****     }
 179:lib/WIFI.c    ****     return FALSE;
 180:lib/WIFI.c    **** }
 153              		.loc 1 180 0
 154              		@ sp needed
 155 0030 10BD     		pop	{r4, pc}
 156              	.L12:
 157 0032 C046     		.align	2
 158              	.L11:
 159 0034 00000000 		.word	.LANCHOR0
 160 0038 00000000 		.word	g_WIFI_ReceiveBuffer
 161              		.cfi_endproc
ARM GAS  C:\Users\luvsd\AppData\Local\Temp\ccPwAV0N.s 			page 7


 162              	.LFE65:
 163              		.size	wifi_receive_data, .-wifi_receive_data
 164              		.section	.text.getWifiBuffer,"ax",%progbits
 165              		.align	2
 166              		.global	getWifiBuffer
 167              		.code	16
 168              		.thumb_func
 169              		.type	getWifiBuffer, %function
 170              	getWifiBuffer:
 171              	.LFB66:
 181:lib/WIFI.c    **** 
 182:lib/WIFI.c    **** uint8 *getWifiBuffer() {return g_WIFI_ReceiveBuffer;};
 172              		.loc 1 182 0
 173              		.cfi_startproc
 174              		@ args = 0, pretend = 0, frame = 0
 175              		@ frame_needed = 0, uses_anonymous_args = 0
 176              		@ link register save eliminated.
 177              		.loc 1 182 0
 178 0000 0048     		ldr	r0, .L14
 179              		@ sp needed
 180 0002 7047     		bx	lr
 181              	.L15:
 182              		.align	2
 183              	.L14:
 184 0004 00000000 		.word	g_WIFI_ReceiveBuffer
 185              		.cfi_endproc
 186              	.LFE66:
 187              		.size	getWifiBuffer, .-getWifiBuffer
 188              		.section	.text.wifi_printf,"ax",%progbits
 189              		.align	2
 190              		.global	wifi_printf
 191              		.code	16
 192              		.thumb_func
 193              		.type	wifi_printf, %function
 194              	wifi_printf:
 195              	.LFB70:
 183:lib/WIFI.c    **** 
 184:lib/WIFI.c    **** void wifi_cmd(uint16 cmd)
 185:lib/WIFI.c    **** {    
 186:lib/WIFI.c    ****     switch(cmd)
 187:lib/WIFI.c    ****     {
 188:lib/WIFI.c    ****         case WIFI_CMD_GET_MAC:           WIFI_CMD("AT*ICT*MAC=?");      break;
 189:lib/WIFI.c    ****         case WIFI_CMD_RECEIVED_STRENGTH: WIFI_CMD("AT*ICT*MIB=112");    break;
 190:lib/WIFI.c    ****         case WIFI_CMD_AP_SCAN:           WIFI_CMD("AT*ICT*SCAN");       break;
 191:lib/WIFI.c    ****         case WIFI_CMD_IPCONFIG:          WIFI_CMD("AT*ICT*IPCONFIG=1"); break; 
 192:lib/WIFI.c    ****         case WIFI_CMD_CONNECT_AP:        WIFI_CMD("AT*ICT*IPCONFIG=1"); break; 
 193:lib/WIFI.c    ****         case WIFI_CMD_FACTORY_RESET:     WIFI_CMD("AT*ICT*FACRESET=0"); break;         
 194:lib/WIFI.c    ****     }
 195:lib/WIFI.c    ****     g_wifi_cmd = cmd;
 196:lib/WIFI.c    **** }
 197:lib/WIFI.c    **** 
 198:lib/WIFI.c    **** void wifi_cmd_http(char *url)
 199:lib/WIFI.c    **** { 
 200:lib/WIFI.c    ****     wifi_printf("AT*ICT*HTTPGET=http://%s:%d%s%s\r\n",g_ptrServer->IP,g_ptrServer->port,g_ptrServer
 201:lib/WIFI.c    ****    // printf("AT*ICT*HTTPGET=http://%s:%d%s%s\r\n",g_ptrServer->IP,g_ptrServer->port,g_ptrServer->p
 202:lib/WIFI.c    ****          
 203:lib/WIFI.c    ****     g_wifi_cmd = WIFI_CMD_HTTP;    
ARM GAS  C:\Users\luvsd\AppData\Local\Temp\ccPwAV0N.s 			page 8


 204:lib/WIFI.c    **** }
 205:lib/WIFI.c    **** 
 206:lib/WIFI.c    **** void wifi_get_response()
 207:lib/WIFI.c    **** {
 208:lib/WIFI.c    ****     int i=0;
 209:lib/WIFI.c    ****     char *p = NULL;
 210:lib/WIFI.c    ****     
 211:lib/WIFI.c    ****     switch(g_wifi_cmd)
 212:lib/WIFI.c    ****     {
 213:lib/WIFI.c    ****         //////////////////////////////////////////////////////////////////////////////////
 214:lib/WIFI.c    ****         // Get Mac Address ///////////////////////////////////////////////////////////////
 215:lib/WIFI.c    ****         //////////////////////////////////////////////////////////////////////////////////       
 216:lib/WIFI.c    ****         case WIFI_CMD_GET_MAC:
 217:lib/WIFI.c    ****         {
 218:lib/WIFI.c    ****             if(STRSTR_WIFI_BUFFER("*ICT*MAC:OK") != NULL)            
 219:lib/WIFI.c    ****             {
 220:lib/WIFI.c    ****                 p = STRSTR_WIFI_BUFFER(" "); p++;
 221:lib/WIFI.c    ****                 while(*p != CR)  g_network.MAC[i++]  = *p++;   
 222:lib/WIFI.c    ****                 
 223:lib/WIFI.c    ****                  //printNetworkInfo();                
 224:lib/WIFI.c    ****             } else 
 225:lib/WIFI.c    ****                 printf("WIFI_RESP_GET_MAC ERROR\r\n");
 226:lib/WIFI.c    ****             
 227:lib/WIFI.c    ****             g_wifi_cmd = WIFI_CMD_IDLE;
 228:lib/WIFI.c    ****         }
 229:lib/WIFI.c    ****         break;   
 230:lib/WIFI.c    ****         //////////////////////////////////////////////////////////////////////////////////
 231:lib/WIFI.c    ****         // get Received signal strength indication ///////////////////////////////////////
 232:lib/WIFI.c    ****         //////////////////////////////////////////////////////////////////////////////////        
 233:lib/WIFI.c    ****         case WIFI_CMD_RECEIVED_STRENGTH:
 234:lib/WIFI.c    ****             if(STRSTR_WIFI_BUFFER("*ICT*MIB:OK") != NULL)
 235:lib/WIFI.c    ****             {
 236:lib/WIFI.c    ****                 p = STRSTR_WIFI_BUFFER(" "); p++;
 237:lib/WIFI.c    ****                 g_network.RSSI = atoi(p);
 238:lib/WIFI.c    ****                 DrawWifi();
 239:lib/WIFI.c    ****             } else
 240:lib/WIFI.c    ****                 printf("WIFI_CMD_RECEIVED_STRENGTH ERROR\r\n");
 241:lib/WIFI.c    **** 
 242:lib/WIFI.c    ****             g_wifi_cmd = WIFI_CMD_IDLE;    
 243:lib/WIFI.c    ****         break;
 244:lib/WIFI.c    ****         //////////////////////////////////////////////////////////////////////////////////         
 245:lib/WIFI.c    ****         // get AP Scan list //////////////////////////////////////////////////////////////
 246:lib/WIFI.c    ****         //////////////////////////////////////////////////////////////////////////////////         
 247:lib/WIFI.c    ****         case WIFI_CMD_AP_SCAN:
 248:lib/WIFI.c    ****                 printWifiBuffer();                
 249:lib/WIFI.c    ****             if(STRSTR_WIFI_BUFFER("*ICT*SCAN:OK") != NULL)
 250:lib/WIFI.c    ****             {
 251:lib/WIFI.c    ****                 g_SizeOfAPs = 0;
 252:lib/WIFI.c    ****             }
 253:lib/WIFI.c    ****             else if(STRSTR_WIFI_BUFFER("*ICT*SCANIND:") != NULL)
 254:lib/WIFI.c    ****             {
 255:lib/WIFI.c    **** 
 256:lib/WIFI.c    ****                 p = STRSTR_WIFI_BUFFER(" "); p++;
 257:lib/WIFI.c    ****                 appendAP(p);
 258:lib/WIFI.c    ****             }
 259:lib/WIFI.c    ****             else if(STRSTR_WIFI_BUFFER("*ICT*SCANRESULT") != NULL)
 260:lib/WIFI.c    ****             {
ARM GAS  C:\Users\luvsd\AppData\Local\Temp\ccPwAV0N.s 			page 9


 261:lib/WIFI.c    ****                 g_wifi_cmd = WIFI_CMD_IDLE;
 262:lib/WIFI.c    ****             } else
 263:lib/WIFI.c    ****                 printf("WIFI_CMD_AP_SCAN ERROR\r\n");
 264:lib/WIFI.c    ****         break;
 265:lib/WIFI.c    ****         //////////////////////////////////////////////////////////////////////////////////         
 266:lib/WIFI.c    ****         // Set IP Config /////////////////////////////////////////////////////////////////
 267:lib/WIFI.c    ****         //////////////////////////////////////////////////////////////////////////////////   
 268:lib/WIFI.c    ****         case WIFI_CMD_FACTORY_RESET:
 269:lib/WIFI.c    ****             {
 270:lib/WIFI.c    ****                 printWifiBuffer();   
 271:lib/WIFI.c    ****                 if(STRSTR_WIFI_BUFFER("*ICT*FACRESET:OK") != NULL)
 272:lib/WIFI.c    ****                 {
 273:lib/WIFI.c    ****                     wifi_cmd(WIFI_CMD_IPCONFIG);
 274:lib/WIFI.c    ****                     break;
 275:lib/WIFI.c    ****                 }
 276:lib/WIFI.c    ****             }
 277:lib/WIFI.c    ****             break;
 278:lib/WIFI.c    ****         //////////////////////////////////////////////////////////////////////////////////         
 279:lib/WIFI.c    ****         // Set IP Config /////////////////////////////////////////////////////////////////
 280:lib/WIFI.c    ****         //////////////////////////////////////////////////////////////////////////////////         
 281:lib/WIFI.c    ****         case WIFI_CMD_IPCONFIG:
 282:lib/WIFI.c    ****                 printWifiBuffer();                
 283:lib/WIFI.c    ****             if(STRSTR_WIFI_BUFFER("*ICT*IPCONFIG:OK") != NULL)
 284:lib/WIFI.c    ****             {
 285:lib/WIFI.c    ****                 wifi_printf("AT*ICT*SCONN=%s %s\r\n",g_ptrServer->SSID, g_ptrServer->password);
 286:lib/WIFI.c    ****                 printf("AT*ICT*SCONN=%s %s\r\n",g_ptrServer->SSID, g_ptrServer->password);         
 287:lib/WIFI.c    ****             }
 288:lib/WIFI.c    ****             else if(STRSTR_WIFI_BUFFER("*ICT*SCONN:OK") != NULL)
 289:lib/WIFI.c    ****             {
 290:lib/WIFI.c    ****                 WIFI_RESET_Write(0);                
 291:lib/WIFI.c    ****                 CyDelay(20);
 292:lib/WIFI.c    ****                 WIFI_RESET_Write(1);   
 293:lib/WIFI.c    ****                 CyDelay(20);            
 294:lib/WIFI.c    ****                CySoftwareReset();
 295:lib/WIFI.c    ****             }               
 296:lib/WIFI.c    ****             else if(STRSTR_WIFI_BUFFER("*ICT*IPRELEASED") != NULL)
 297:lib/WIFI.c    ****             {
 298:lib/WIFI.c    ****             }            
 299:lib/WIFI.c    ****             else if(STRSTR_WIFI_BUFFER("*ICT*SSL_CLOSED:OK") != NULL)
 300:lib/WIFI.c    ****             {
 301:lib/WIFI.c    ****             }
 302:lib/WIFI.c    ****             else if(STRSTR_WIFI_BUFFER("*ICT*DISASSOCIATED") != NULL)
 303:lib/WIFI.c    ****             {
 304:lib/WIFI.c    ****             }    
 305:lib/WIFI.c    ****             else if(STRSTR_WIFI_BUFFER("*ICT*ASSOCIATED:0") != NULL)
 306:lib/WIFI.c    ****             {
 307:lib/WIFI.c    ****             }               
 308:lib/WIFI.c    ****             else if(STRSTR_WIFI_BUFFER("*ICT*IPALLOCATED:") != NULL)
 309:lib/WIFI.c    ****             {
 310:lib/WIFI.c    ****                 g_wifi_cmd = WIFI_CMD_IDLE;
 311:lib/WIFI.c    ****             }  
 312:lib/WIFI.c    ****             else
 313:lib/WIFI.c    ****             {
 314:lib/WIFI.c    ****             //    ShowMessage("ACCESS FAILUE");
 315:lib/WIFI.c    ****                 printf("WIFI_CMD_IPCONFIG ERROR\r\n");
 316:lib/WIFI.c    ****             }
 317:lib/WIFI.c    ****         break;                
ARM GAS  C:\Users\luvsd\AppData\Local\Temp\ccPwAV0N.s 			page 10


 318:lib/WIFI.c    ****         //////////////////////////////////////////////////////////////////////////////////         
 319:lib/WIFI.c    ****         // request HTTP //////////////////////////////////////////////////////////////////
 320:lib/WIFI.c    ****         //////////////////////////////////////////////////////////////////////////////////         
 321:lib/WIFI.c    ****         case WIFI_CMD_HTTP:
 322:lib/WIFI.c    ****             if     (STRSTR_WIFI_BUFFER("*ICT*HTTPGET:OK") != NULL)
 323:lib/WIFI.c    ****             {
 324:lib/WIFI.c    ****             }
 325:lib/WIFI.c    ****             else if(STRSTR_WIFI_BUFFER("*ICT*HTTPGET:ERROR") != NULL)
 326:lib/WIFI.c    ****             {
 327:lib/WIFI.c    ****                 printf("ICT*HTTPGET:ERROR\r\n");
 328:lib/WIFI.c    ****                 g_wifi_cmd = WIFI_CMD_IDLE;
 329:lib/WIFI.c    ****             }
 330:lib/WIFI.c    ****             else if(STRSTR_WIFI_BUFFER("*ICT*HTTPBODY:") != NULL)
 331:lib/WIFI.c    ****             {
 332:lib/WIFI.c    ****               
 333:lib/WIFI.c    ****                 p = STRSTR_WIFI_BUFFER(":"); p++;
 334:lib/WIFI.c    ****                 g_sizeOfHttpText = atoi(p); // No. of Received Data
 335:lib/WIFI.c    ****             
 336:lib/WIFI.c    ****                 p = STRSTR_WIFI_BUFFER(" "); p++;
 337:lib/WIFI.c    **** 
 338:lib/WIFI.c    ****                 g_ptrHttpReceivedText=p;    // pointer of Received Data
 339:lib/WIFI.c    ****             }
 340:lib/WIFI.c    ****             else if(STRSTR_WIFI_BUFFER("*ICT*HTTPCLOSE:OK") != NULL)
 341:lib/WIFI.c    ****             {
 342:lib/WIFI.c    ****                 g_wifi_cmd = WIFI_CMD_IDLE;     
 343:lib/WIFI.c    ****             }            
 344:lib/WIFI.c    ****     }
 345:lib/WIFI.c    **** }
 346:lib/WIFI.c    **** 
 347:lib/WIFI.c    **** void wifi_printf(const char *fmt, ...)
 348:lib/WIFI.c    **** {
 196              		.loc 1 348 0
 197              		.cfi_startproc
 198              		@ args = 4, pretend = 16, frame = 1032
 199              		@ frame_needed = 0, uses_anonymous_args = 1
 200              	.LVL12:
 201 0000 0FB4     		push	{r0, r1, r2, r3}
 202              		.cfi_def_cfa_offset 16
 203 0002 30B5     		push	{r4, r5, lr}
 204              		.cfi_def_cfa_offset 28
 205              		.cfi_offset 4, -28
 206              		.cfi_offset 5, -24
 207              		.cfi_offset 14, -20
 208 0004 114C     		ldr	r4, .L19
 209 0006 A544     		add	sp, sp, r4
 210              		.cfi_def_cfa_offset 1064
 211 0008 FFAA     		add	r2, sp, #1020
 212 000a 1C32     		adds	r2, r2, #28
 213 000c 02CA     		ldmia	r2!, {r1}
 349:lib/WIFI.c    ****     va_list ap;
 350:lib/WIFI.c    ****     char buff[1024];
 351:lib/WIFI.c    ****     
 352:lib/WIFI.c    ****     va_start(ap, fmt);
 214              		.loc 1 352 0
 215 000e FFAB     		add	r3, sp, #1020
 216 0010 0833     		adds	r3, r3, #8
 217 0012 1A60     		str	r2, [r3]
ARM GAS  C:\Users\luvsd\AppData\Local\Temp\ccPwAV0N.s 			page 11


 353:lib/WIFI.c    **** 
 354:lib/WIFI.c    ****     vsprintf(buff, fmt, ap);
 218              		.loc 1 354 0
 219 0014 01A8     		add	r0, sp, #4
 220 0016 FFF7FEFF 		bl	vsprintf
 221              	.LVL13:
 355:lib/WIFI.c    ****     va_end(ap);
 356:lib/WIFI.c    ****     
 357:lib/WIFI.c    ****     uint16 nLength = strlen(buff);
 222              		.loc 1 357 0
 223 001a 01A8     		add	r0, sp, #4
 224 001c FFF7FEFF 		bl	strlen
 225              	.LVL14:
 226 0020 0500     		movs	r5, r0
 227              	.LVL15:
 228              	.LBB2:
 358:lib/WIFI.c    ****     for(int i=0; i < nLength; i++)
 229              		.loc 1 358 0
 230 0022 0024     		movs	r4, #0
 231 0024 08E0     		b	.L17
 232              	.LVL16:
 233              	.L18:
 359:lib/WIFI.c    ****     {
 360:lib/WIFI.c    ****         while(UART_WIFI_SpiUartGetTxBufferSize());
 234              		.loc 1 360 0 discriminator 1
 235 0026 FFF7FEFF 		bl	UART_WIFI_SpiUartGetTxBufferSize
 236              	.LVL17:
 237 002a 0028     		cmp	r0, #0
 238 002c FBD1     		bne	.L18
 361:lib/WIFI.c    ****         UART_WIFI_UartPutChar(buff[i]);
 239              		.loc 1 361 0 discriminator 2
 240 002e 01AB     		add	r3, sp, #4
 241 0030 185D     		ldrb	r0, [r3, r4]
 242 0032 FFF7FEFF 		bl	UART_WIFI_SpiUartWriteTxData
 243              	.LVL18:
 358:lib/WIFI.c    ****     for(int i=0; i < nLength; i++)
 244              		.loc 1 358 0 discriminator 2
 245 0036 0134     		adds	r4, r4, #1
 246              	.LVL19:
 247              	.L17:
 358:lib/WIFI.c    ****     for(int i=0; i < nLength; i++)
 248              		.loc 1 358 0 is_stmt 0 discriminator 1
 249 0038 2B04     		lsls	r3, r5, #16
 250 003a 1B0C     		lsrs	r3, r3, #16
 251 003c 9C42     		cmp	r4, r3
 252 003e F2DB     		blt	.L18
 253              	.LBE2:
 362:lib/WIFI.c    ****     }
 363:lib/WIFI.c    **** }
 254              		.loc 1 363 0 is_stmt 1
 255 0040 034B     		ldr	r3, .L19+4
 256 0042 9D44     		add	sp, sp, r3
 257              		@ sp needed
 258              	.LVL20:
 259              	.LVL21:
 260 0044 30BC     		pop	{r4, r5}
 261 0046 08BC     		pop	{r3}
ARM GAS  C:\Users\luvsd\AppData\Local\Temp\ccPwAV0N.s 			page 12


 262 0048 04B0     		add	sp, sp, #16
 263 004a 1847     		bx	r3
 264              	.L20:
 265              		.align	2
 266              	.L19:
 267 004c F4FBFFFF 		.word	-1036
 268 0050 0C040000 		.word	1036
 269              		.cfi_endproc
 270              	.LFE70:
 271              		.size	wifi_printf, .-wifi_printf
 272              		.section	.text.wifi_cmd,"ax",%progbits
 273              		.align	2
 274              		.global	wifi_cmd
 275              		.code	16
 276              		.thumb_func
 277              		.type	wifi_cmd, %function
 278              	wifi_cmd:
 279              	.LFB67:
 185:lib/WIFI.c    ****     switch(cmd)
 280              		.loc 1 185 0
 281              		.cfi_startproc
 282              		@ args = 0, pretend = 0, frame = 0
 283              		@ frame_needed = 0, uses_anonymous_args = 0
 284              	.LVL22:
 285 0000 10B5     		push	{r4, lr}
 286              		.cfi_def_cfa_offset 8
 287              		.cfi_offset 4, -8
 288              		.cfi_offset 14, -4
 289 0002 0400     		movs	r4, r0
 186:lib/WIFI.c    ****     {
 290              		.loc 1 186 0
 291 0004 0728     		cmp	r0, #7
 292 0006 20D8     		bhi	.L22
 293 0008 8300     		lsls	r3, r0, #2
 294 000a 114A     		ldr	r2, .L30
 295 000c D358     		ldr	r3, [r2, r3]
 296 000e 9F46     		mov	pc, r3
 297              		.section	.rodata
 298              		.align	2
 299              	.L24:
 300 0000 4A000000 		.word	.L22
 301 0004 10000000 		.word	.L23
 302 0008 1A000000 		.word	.L25
 303 000c 24000000 		.word	.L26
 304 0010 2E000000 		.word	.L27
 305 0014 4A000000 		.word	.L22
 306 0018 38000000 		.word	.L28
 307 001c 42000000 		.word	.L29
 308              		.section	.text.wifi_cmd
 309              	.L23:
 188:lib/WIFI.c    ****         case WIFI_CMD_RECEIVED_STRENGTH: WIFI_CMD("AT*ICT*MIB=112");    break;
 310              		.loc 1 188 0
 311 0010 1049     		ldr	r1, .L30+4
 312 0012 1148     		ldr	r0, .L30+8
 313              	.LVL23:
 314 0014 FFF7FEFF 		bl	wifi_printf
 315              	.LVL24:
ARM GAS  C:\Users\luvsd\AppData\Local\Temp\ccPwAV0N.s 			page 13


 316 0018 17E0     		b	.L22
 317              	.LVL25:
 318              	.L25:
 189:lib/WIFI.c    ****         case WIFI_CMD_AP_SCAN:           WIFI_CMD("AT*ICT*SCAN");       break;
 319              		.loc 1 189 0
 320 001a 1049     		ldr	r1, .L30+12
 321 001c 0E48     		ldr	r0, .L30+8
 322              	.LVL26:
 323 001e FFF7FEFF 		bl	wifi_printf
 324              	.LVL27:
 325 0022 12E0     		b	.L22
 326              	.LVL28:
 327              	.L26:
 190:lib/WIFI.c    ****         case WIFI_CMD_IPCONFIG:          WIFI_CMD("AT*ICT*IPCONFIG=1"); break; 
 328              		.loc 1 190 0
 329 0024 0E49     		ldr	r1, .L30+16
 330 0026 0C48     		ldr	r0, .L30+8
 331              	.LVL29:
 332 0028 FFF7FEFF 		bl	wifi_printf
 333              	.LVL30:
 334 002c 0DE0     		b	.L22
 335              	.LVL31:
 336              	.L27:
 191:lib/WIFI.c    ****         case WIFI_CMD_CONNECT_AP:        WIFI_CMD("AT*ICT*IPCONFIG=1"); break; 
 337              		.loc 1 191 0
 338 002e 0D49     		ldr	r1, .L30+20
 339 0030 0948     		ldr	r0, .L30+8
 340              	.LVL32:
 341 0032 FFF7FEFF 		bl	wifi_printf
 342              	.LVL33:
 343 0036 08E0     		b	.L22
 344              	.LVL34:
 345              	.L28:
 192:lib/WIFI.c    ****         case WIFI_CMD_FACTORY_RESET:     WIFI_CMD("AT*ICT*FACRESET=0"); break;         
 346              		.loc 1 192 0
 347 0038 0A49     		ldr	r1, .L30+20
 348 003a 0748     		ldr	r0, .L30+8
 349              	.LVL35:
 350 003c FFF7FEFF 		bl	wifi_printf
 351              	.LVL36:
 352 0040 03E0     		b	.L22
 353              	.LVL37:
 354              	.L29:
 193:lib/WIFI.c    ****     }
 355              		.loc 1 193 0
 356 0042 0949     		ldr	r1, .L30+24
 357 0044 0448     		ldr	r0, .L30+8
 358              	.LVL38:
 359 0046 FFF7FEFF 		bl	wifi_printf
 360              	.LVL39:
 361              	.L22:
 195:lib/WIFI.c    **** }
 362              		.loc 1 195 0
 363 004a 084B     		ldr	r3, .L30+28
 364 004c 9C70     		strb	r4, [r3, #2]
 196:lib/WIFI.c    **** 
 365              		.loc 1 196 0
ARM GAS  C:\Users\luvsd\AppData\Local\Temp\ccPwAV0N.s 			page 14


 366              		@ sp needed
 367 004e 10BD     		pop	{r4, pc}
 368              	.L31:
 369              		.align	2
 370              	.L30:
 371 0050 00000000 		.word	.L24
 372 0054 00000000 		.word	.LC6
 373 0058 10000000 		.word	.LC8
 374 005c 18000000 		.word	.LC10
 375 0060 28000000 		.word	.LC12
 376 0064 34000000 		.word	.LC14
 377 0068 48000000 		.word	.LC16
 378 006c 00000000 		.word	.LANCHOR0
 379              		.cfi_endproc
 380              	.LFE67:
 381              		.size	wifi_cmd, .-wifi_cmd
 382              		.section	.text.wifiConnectAP,"ax",%progbits
 383              		.align	2
 384              		.global	wifiConnectAP
 385              		.code	16
 386              		.thumb_func
 387              		.type	wifiConnectAP, %function
 388              	wifiConnectAP:
 389              	.LFB64:
 103:lib/WIFI.c    ****     int i=0;    
 390              		.loc 1 103 0
 391              		.cfi_startproc
 392              		@ args = 0, pretend = 0, frame = 0
 393              		@ frame_needed = 0, uses_anonymous_args = 0
 394 0000 10B5     		push	{r4, lr}
 395              		.cfi_def_cfa_offset 8
 396              		.cfi_offset 4, -8
 397              		.cfi_offset 14, -4
 398              	.LVL40:
 107:lib/WIFI.c    ****     {
 399              		.loc 1 107 0
 400 0002 544B     		ldr	r3, .L52
 401 0004 DC78     		ldrb	r4, [r3, #3]
 402 0006 012C     		cmp	r4, #1
 403 0008 1BD0     		beq	.L34
 404 000a 002C     		cmp	r4, #0
 405 000c 04D0     		beq	.L35
 406 000e 022C     		cmp	r4, #2
 407 0010 3AD0     		beq	.L36
 408 0012 032C     		cmp	r4, #3
 409 0014 7AD0     		beq	.L37
 410 0016 9AE0     		b	.L33
 411              	.L35:
 110:lib/WIFI.c    ****             {
 412              		.loc 1 110 0
 413 0018 4F49     		ldr	r1, .L52+4
 414 001a 5048     		ldr	r0, .L52+8
 415 001c FFF7FEFF 		bl	strstr
 416              	.LVL41:
 417 0020 0028     		cmp	r0, #0
 418 0022 00D1     		bne	.LCB341
 419 0024 93E0     		b	.L33	@long jump
ARM GAS  C:\Users\luvsd\AppData\Local\Temp\ccPwAV0N.s 			page 15


 420              	.LCB341:
 112:lib/WIFI.c    ****                 g_network.isConnectAP = FALSE;
 421              		.loc 1 112 0
 422 0026 4E48     		ldr	r0, .L52+12
 423 0028 FFF7FEFF 		bl	puts
 424              	.LVL42:
 113:lib/WIFI.c    ****                 wifi_cmd(WIFI_CMD_GET_MAC); // request MAC                
 425              		.loc 1 113 0
 426 002c 0022     		movs	r2, #0
 427 002e 4D4B     		ldr	r3, .L52+16
 428 0030 1A70     		strb	r2, [r3]
 114:lib/WIFI.c    ****                 nLoop++;
 429              		.loc 1 114 0
 430 0032 0120     		movs	r0, #1
 431 0034 FFF7FEFF 		bl	wifi_cmd
 432              	.LVL43:
 115:lib/WIFI.c    ****             }
 433              		.loc 1 115 0
 434 0038 464A     		ldr	r2, .L52
 435 003a D378     		ldrb	r3, [r2, #3]
 436 003c 0133     		adds	r3, r3, #1
 437 003e D370     		strb	r3, [r2, #3]
 438 0040 85E0     		b	.L33
 439              	.L34:
 119:lib/WIFI.c    ****             {
 440              		.loc 1 119 0
 441 0042 4949     		ldr	r1, .L52+20
 442 0044 4548     		ldr	r0, .L52+8
 443 0046 FFF7FEFF 		bl	strstr
 444              	.LVL44:
 445 004a 0028     		cmp	r0, #0
 446 004c 14D0     		beq	.L38
 447              	.LBB3:
 121:lib/WIFI.c    ****                 while(*p != CR)  g_network.MAC[i++]  = *p++;                  
 448              		.loc 1 121 0
 449 004e 2021     		movs	r1, #32
 450 0050 4248     		ldr	r0, .L52+8
 451 0052 FFF7FEFF 		bl	strchr
 452              	.LVL45:
 453 0056 0130     		adds	r0, r0, #1
 454              	.LVL46:
 455              	.LBE3:
 104:lib/WIFI.c    ****     static uint8 nLoop = 0;
 456              		.loc 1 104 0
 457 0058 0021     		movs	r1, #0
 458              	.LBB4:
 122:lib/WIFI.c    ****                // printNetworkInfo();   
 459              		.loc 1 122 0
 460 005a 05E0     		b	.L39
 461              	.LVL47:
 462              	.L40:
 122:lib/WIFI.c    ****                // printNetworkInfo();   
 463              		.loc 1 122 0 is_stmt 0 discriminator 2
 464 005c 0130     		adds	r0, r0, #1
 465              	.LVL48:
 466 005e 414B     		ldr	r3, .L52+16
 467 0060 5B18     		adds	r3, r3, r1
ARM GAS  C:\Users\luvsd\AppData\Local\Temp\ccPwAV0N.s 			page 16


 468 0062 6C33     		adds	r3, r3, #108
 469 0064 1A70     		strb	r2, [r3]
 470 0066 0131     		adds	r1, r1, #1
 471              	.LVL49:
 472              	.L39:
 122:lib/WIFI.c    ****                // printNetworkInfo();   
 473              		.loc 1 122 0 discriminator 1
 474 0068 0278     		ldrb	r2, [r0]
 475 006a 0D2A     		cmp	r2, #13
 476 006c F6D1     		bne	.L40
 124:lib/WIFI.c    ****             } else 
 477              		.loc 1 124 0 is_stmt 1
 478 006e 0121     		movs	r1, #1
 479              	.LVL50:
 480 0070 7E23     		movs	r3, #126
 481 0072 3C4A     		ldr	r2, .L52+16
 482 0074 D154     		strb	r1, [r2, r3]
 483              	.LBE4:
 484 0076 02E0     		b	.L41
 485              	.LVL51:
 486              	.L38:
 126:lib/WIFI.c    ****                               
 487              		.loc 1 126 0
 488 0078 3C48     		ldr	r0, .L52+24
 489 007a FFF7FEFF 		bl	puts
 490              	.LVL52:
 491              	.L41:
 128:lib/WIFI.c    ****             break;            
 492              		.loc 1 128 0
 493 007e 354A     		ldr	r2, .L52
 494 0080 D378     		ldrb	r3, [r2, #3]
 495 0082 0133     		adds	r3, r3, #1
 496 0084 D370     		strb	r3, [r2, #3]
 129:lib/WIFI.c    ****         case 2: // get IP
 497              		.loc 1 129 0
 498 0086 62E0     		b	.L33
 499              	.LVL53:
 500              	.L36:
 131:lib/WIFI.c    ****             {
 501              		.loc 1 131 0
 502 0088 3949     		ldr	r1, .L52+28
 503 008a 3448     		ldr	r0, .L52+8
 504 008c FFF7FEFF 		bl	strstr
 505              	.LVL54:
 506 0090 0028     		cmp	r0, #0
 507 0092 5CD0     		beq	.L33
 508              	.LBB5:
 133:lib/WIFI.c    ****                 
 509              		.loc 1 133 0
 510 0094 3A21     		movs	r1, #58
 511 0096 3148     		ldr	r0, .L52+8
 512 0098 FFF7FEFF 		bl	strchr
 513              	.LVL55:
 514 009c 0130     		adds	r0, r0, #1
 515              	.LVL56:
 516              	.LBE5:
 104:lib/WIFI.c    ****     static uint8 nLoop = 0;
ARM GAS  C:\Users\luvsd\AppData\Local\Temp\ccPwAV0N.s 			page 17


 517              		.loc 1 104 0
 518 009e 0021     		movs	r1, #0
 519              	.LBB6:
 135:lib/WIFI.c    ****                 while(*p != ' ') g_network.SubnetMask[i++] = *p++; p++; i=0; // Subnet Mask        
 520              		.loc 1 135 0
 521 00a0 05E0     		b	.L42
 522              	.LVL57:
 523              	.L43:
 135:lib/WIFI.c    ****                 while(*p != ' ') g_network.SubnetMask[i++] = *p++; p++; i=0; // Subnet Mask        
 524              		.loc 1 135 0 is_stmt 0 discriminator 2
 525 00a2 0130     		adds	r0, r0, #1
 526              	.LVL58:
 527 00a4 2F4B     		ldr	r3, .L52+16
 528 00a6 5B18     		adds	r3, r3, r1
 529 00a8 2C33     		adds	r3, r3, #44
 530 00aa 1A70     		strb	r2, [r3]
 531 00ac 0131     		adds	r1, r1, #1
 532              	.LVL59:
 533              	.L42:
 135:lib/WIFI.c    ****                 while(*p != ' ') g_network.SubnetMask[i++] = *p++; p++; i=0; // Subnet Mask        
 534              		.loc 1 135 0 discriminator 1
 535 00ae 0278     		ldrb	r2, [r0]
 536 00b0 202A     		cmp	r2, #32
 537 00b2 F6D1     		bne	.L43
 135:lib/WIFI.c    ****                 while(*p != ' ') g_network.SubnetMask[i++] = *p++; p++; i=0; // Subnet Mask        
 538              		.loc 1 135 0 discriminator 3
 539 00b4 0130     		adds	r0, r0, #1
 540              	.LVL60:
 541 00b6 0021     		movs	r1, #0
 136:lib/WIFI.c    ****                 while(*p != ' ') g_network.Gateway[i++]    = *p++; p++; i=0; // Gateway
 542              		.loc 1 136 0 is_stmt 1 discriminator 3
 543 00b8 05E0     		b	.L44
 544              	.LVL61:
 545              	.L45:
 136:lib/WIFI.c    ****                 while(*p != ' ') g_network.Gateway[i++]    = *p++; p++; i=0; // Gateway
 546              		.loc 1 136 0 is_stmt 0 discriminator 2
 547 00ba 0130     		adds	r0, r0, #1
 548              	.LVL62:
 549 00bc 294B     		ldr	r3, .L52+16
 550 00be 5B18     		adds	r3, r3, r1
 551 00c0 3C33     		adds	r3, r3, #60
 552 00c2 1A70     		strb	r2, [r3]
 553 00c4 0131     		adds	r1, r1, #1
 554              	.LVL63:
 555              	.L44:
 136:lib/WIFI.c    ****                 while(*p != ' ') g_network.Gateway[i++]    = *p++; p++; i=0; // Gateway
 556              		.loc 1 136 0 discriminator 1
 557 00c6 0278     		ldrb	r2, [r0]
 558 00c8 202A     		cmp	r2, #32
 559 00ca F6D1     		bne	.L45
 136:lib/WIFI.c    ****                 while(*p != ' ') g_network.Gateway[i++]    = *p++; p++; i=0; // Gateway
 560              		.loc 1 136 0 discriminator 3
 561 00cc 0130     		adds	r0, r0, #1
 562              	.LVL64:
 563 00ce 0021     		movs	r1, #0
 137:lib/WIFI.c    ****                 while(*p != CR)  g_network.DNSServer[i++]  = *p++; p++; i=0; // DNS Server         
 564              		.loc 1 137 0 is_stmt 1 discriminator 3
ARM GAS  C:\Users\luvsd\AppData\Local\Temp\ccPwAV0N.s 			page 18


 565 00d0 05E0     		b	.L46
 566              	.LVL65:
 567              	.L47:
 137:lib/WIFI.c    ****                 while(*p != CR)  g_network.DNSServer[i++]  = *p++; p++; i=0; // DNS Server         
 568              		.loc 1 137 0 is_stmt 0 discriminator 2
 569 00d2 0130     		adds	r0, r0, #1
 570              	.LVL66:
 571 00d4 234B     		ldr	r3, .L52+16
 572 00d6 5B18     		adds	r3, r3, r1
 573 00d8 4C33     		adds	r3, r3, #76
 574 00da 1A70     		strb	r2, [r3]
 575 00dc 0131     		adds	r1, r1, #1
 576              	.LVL67:
 577              	.L46:
 137:lib/WIFI.c    ****                 while(*p != CR)  g_network.DNSServer[i++]  = *p++; p++; i=0; // DNS Server         
 578              		.loc 1 137 0 discriminator 1
 579 00de 0278     		ldrb	r2, [r0]
 580 00e0 202A     		cmp	r2, #32
 581 00e2 F6D1     		bne	.L47
 137:lib/WIFI.c    ****                 while(*p != CR)  g_network.DNSServer[i++]  = *p++; p++; i=0; // DNS Server         
 582              		.loc 1 137 0 discriminator 3
 583 00e4 0130     		adds	r0, r0, #1
 584              	.LVL68:
 585 00e6 0021     		movs	r1, #0
 138:lib/WIFI.c    **** //                printNetworkInfo();                   
 586              		.loc 1 138 0 is_stmt 1 discriminator 3
 587 00e8 05E0     		b	.L48
 588              	.LVL69:
 589              	.L49:
 138:lib/WIFI.c    **** //                printNetworkInfo();                   
 590              		.loc 1 138 0 is_stmt 0 discriminator 2
 591 00ea 0130     		adds	r0, r0, #1
 592              	.LVL70:
 593 00ec 1D4B     		ldr	r3, .L52+16
 594 00ee 5B18     		adds	r3, r3, r1
 595 00f0 5C33     		adds	r3, r3, #92
 596 00f2 1A70     		strb	r2, [r3]
 597 00f4 0131     		adds	r1, r1, #1
 598              	.LVL71:
 599              	.L48:
 138:lib/WIFI.c    **** //                printNetworkInfo();                   
 600              		.loc 1 138 0 discriminator 1
 601 00f6 0278     		ldrb	r2, [r0]
 602 00f8 0D2A     		cmp	r2, #13
 603 00fa F6D1     		bne	.L49
 604              	.LVL72:
 141:lib/WIFI.c    ****                 WIFI_CMD("AT*ICT*MIB=0"); break;
 605              		.loc 1 141 0 is_stmt 1 discriminator 3
 606 00fc 0134     		adds	r4, r4, #1
 607 00fe 154B     		ldr	r3, .L52
 608 0100 DC70     		strb	r4, [r3, #3]
 142:lib/WIFI.c    ****             }
 609              		.loc 1 142 0 discriminator 3
 610 0102 1C49     		ldr	r1, .L52+32
 611 0104 1C48     		ldr	r0, .L52+36
 612              	.LVL73:
 613 0106 FFF7FEFF 		bl	wifi_printf
ARM GAS  C:\Users\luvsd\AppData\Local\Temp\ccPwAV0N.s 			page 19


 614              	.LVL74:
 615 010a 20E0     		b	.L33
 616              	.L37:
 617              	.LBE6:
 146:lib/WIFI.c    ****                 {
 618              		.loc 1 146 0
 619 010c 1B49     		ldr	r1, .L52+40
 620 010e 1348     		ldr	r0, .L52+8
 621 0110 FFF7FEFF 		bl	strstr
 622              	.LVL75:
 623 0114 0028     		cmp	r0, #0
 624 0116 08D0     		beq	.L50
 625              	.LBB7:
 148:lib/WIFI.c    ****                     strcpy(g_network.SSID,p);
 626              		.loc 1 148 0
 627 0118 2021     		movs	r1, #32
 628 011a 1048     		ldr	r0, .L52+8
 629 011c FFF7FEFF 		bl	strchr
 630              	.LVL76:
 631 0120 411C     		adds	r1, r0, #1
 632              	.LVL77:
 149:lib/WIFI.c    ****                 } else
 633              		.loc 1 149 0
 634 0122 1748     		ldr	r0, .L52+44
 635 0124 FFF7FEFF 		bl	strcpy
 636              	.LVL78:
 637              	.LBE7:
 638 0128 02E0     		b	.L51
 639              	.L50:
 151:lib/WIFI.c    ****                            
 640              		.loc 1 151 0
 641 012a 1648     		ldr	r0, .L52+48
 642 012c FFF7FEFF 		bl	puts
 643              	.LVL79:
 644              	.L51:
 153:lib/WIFI.c    ****                 
 645              		.loc 1 153 0
 646 0130 0122     		movs	r2, #1
 647 0132 0C4B     		ldr	r3, .L52+16
 648 0134 1A70     		strb	r2, [r3]
 155:lib/WIFI.c    ****                 resetCounter_1ms(g_index_WifiStrength);
 649              		.loc 1 155 0
 650 0136 0220     		movs	r0, #2
 651 0138 FFF7FEFF 		bl	wifi_cmd
 652              	.LVL80:
 156:lib/WIFI.c    ****                 
 653              		.loc 1 156 0
 654 013c 124B     		ldr	r3, .L52+52
 655 013e 1878     		ldrb	r0, [r3]
 656 0140 FFF7FEFF 		bl	resetCounter_1ms
 657              	.LVL81:
 158:lib/WIFI.c    ****                 nLoop = 0;
 658              		.loc 1 158 0
 659 0144 FFF7FEFF 		bl	initAndon
 660              	.LVL82:
 159:lib/WIFI.c    ****                     
 661              		.loc 1 159 0
ARM GAS  C:\Users\luvsd\AppData\Local\Temp\ccPwAV0N.s 			page 20


 662 0148 0022     		movs	r2, #0
 663 014a 024B     		ldr	r3, .L52
 664 014c DA70     		strb	r2, [r3, #3]
 665              	.LVL83:
 666              	.L33:
 164:lib/WIFI.c    **** }
 667              		.loc 1 164 0
 668 014e 014B     		ldr	r3, .L52
 669 0150 D878     		ldrb	r0, [r3, #3]
 165:lib/WIFI.c    **** 
 670              		.loc 1 165 0
 671              		@ sp needed
 672 0152 10BD     		pop	{r4, pc}
 673              	.L53:
 674              		.align	2
 675              	.L52:
 676 0154 00000000 		.word	.LANCHOR0
 677 0158 5C000000 		.word	.LC20
 678 015c 00000000 		.word	g_WIFI_ReceiveBuffer
 679 0160 70000000 		.word	.LC23
 680 0164 00000000 		.word	g_network
 681 0168 7C000000 		.word	.LC26
 682 016c 88000000 		.word	.LC28
 683 0170 A4000000 		.word	.LC30
 684 0174 B8000000 		.word	.LC32
 685 0178 10000000 		.word	.LC8
 686 017c C8000000 		.word	.LC35
 687 0180 04000000 		.word	g_network+4
 688 0184 D4000000 		.word	.LC38
 689 0188 00000000 		.word	g_index_WifiStrength
 690              		.cfi_endproc
 691              	.LFE64:
 692              		.size	wifiConnectAP, .-wifiConnectAP
 693              		.section	.text.wifi_cmd_http,"ax",%progbits
 694              		.align	2
 695              		.global	wifi_cmd_http
 696              		.code	16
 697              		.thumb_func
 698              		.type	wifi_cmd_http, %function
 699              	wifi_cmd_http:
 700              	.LFB68:
 199:lib/WIFI.c    ****     wifi_printf("AT*ICT*HTTPGET=http://%s:%d%s%s\r\n",g_ptrServer->IP,g_ptrServer->port,g_ptrServer
 701              		.loc 1 199 0
 702              		.cfi_startproc
 703              		@ args = 0, pretend = 0, frame = 0
 704              		@ frame_needed = 0, uses_anonymous_args = 0
 705              	.LVL84:
 706 0000 70B5     		push	{r4, r5, r6, lr}
 707              		.cfi_def_cfa_offset 16
 708              		.cfi_offset 4, -16
 709              		.cfi_offset 5, -12
 710              		.cfi_offset 6, -8
 711              		.cfi_offset 14, -4
 712 0002 82B0     		sub	sp, sp, #8
 713              		.cfi_def_cfa_offset 24
 200:lib/WIFI.c    ****    // printf("AT*ICT*HTTPGET=http://%s:%d%s%s\r\n",g_ptrServer->IP,g_ptrServer->port,g_ptrServer->p
 714              		.loc 1 200 0
ARM GAS  C:\Users\luvsd\AppData\Local\Temp\ccPwAV0N.s 			page 21


 715 0004 094B     		ldr	r3, .L55
 716 0006 1C68     		ldr	r4, [r3]
 717 0008 258E     		ldrh	r5, [r4, #48]
 718 000a 2600     		movs	r6, r4
 719 000c 1036     		adds	r6, r6, #16
 720 000e FFF7FEFF 		bl	getReplaceBlank
 721              	.LVL85:
 722 0012 0090     		str	r0, [sp]
 723 0014 3300     		movs	r3, r6
 724 0016 2A00     		movs	r2, r5
 725 0018 2100     		movs	r1, r4
 726 001a 0548     		ldr	r0, .L55+4
 727 001c FFF7FEFF 		bl	wifi_printf
 728              	.LVL86:
 203:lib/WIFI.c    **** }
 729              		.loc 1 203 0
 730 0020 0522     		movs	r2, #5
 731 0022 044B     		ldr	r3, .L55+8
 732 0024 9A70     		strb	r2, [r3, #2]
 204:lib/WIFI.c    **** 
 733              		.loc 1 204 0
 734 0026 02B0     		add	sp, sp, #8
 735              		@ sp needed
 736 0028 70BD     		pop	{r4, r5, r6, pc}
 737              	.L56:
 738 002a C046     		.align	2
 739              	.L55:
 740 002c 00000000 		.word	g_ptrServer
 741 0030 F8000000 		.word	.LC42
 742 0034 00000000 		.word	.LANCHOR0
 743              		.cfi_endproc
 744              	.LFE68:
 745              		.size	wifi_cmd_http, .-wifi_cmd_http
 746              		.section	.text.clearWifiBuffer,"ax",%progbits
 747              		.align	2
 748              		.global	clearWifiBuffer
 749              		.code	16
 750              		.thumb_func
 751              		.type	clearWifiBuffer, %function
 752              	clearWifiBuffer:
 753              	.LFB71:
 364:lib/WIFI.c    **** 
 365:lib/WIFI.c    **** void clearWifiBuffer() { g_size_WIFI_ReceiveBuffer = 0; }
 754              		.loc 1 365 0
 755              		.cfi_startproc
 756              		@ args = 0, pretend = 0, frame = 0
 757              		@ frame_needed = 0, uses_anonymous_args = 0
 758              		@ link register save eliminated.
 759              		.loc 1 365 0
 760 0000 0022     		movs	r2, #0
 761 0002 014B     		ldr	r3, .L58
 762 0004 1A80     		strh	r2, [r3]
 763              		@ sp needed
 764 0006 7047     		bx	lr
 765              	.L59:
 766              		.align	2
 767              	.L58:
ARM GAS  C:\Users\luvsd\AppData\Local\Temp\ccPwAV0N.s 			page 22


 768 0008 00000000 		.word	.LANCHOR0
 769              		.cfi_endproc
 770              	.LFE71:
 771              		.size	clearWifiBuffer, .-clearWifiBuffer
 772              		.section	.text.printWifiBuffer,"ax",%progbits
 773              		.align	2
 774              		.global	printWifiBuffer
 775              		.code	16
 776              		.thumb_func
 777              		.type	printWifiBuffer, %function
 778              	printWifiBuffer:
 779              	.LFB72:
 366:lib/WIFI.c    **** 
 367:lib/WIFI.c    **** 
 368:lib/WIFI.c    **** void printWifiBuffer()
 369:lib/WIFI.c    **** {
 780              		.loc 1 369 0
 781              		.cfi_startproc
 782              		@ args = 0, pretend = 0, frame = 0
 783              		@ frame_needed = 0, uses_anonymous_args = 0
 784 0000 10B5     		push	{r4, lr}
 785              		.cfi_def_cfa_offset 8
 786              		.cfi_offset 4, -8
 787              		.cfi_offset 14, -4
 370:lib/WIFI.c    ****     if(g_size_WIFI_ReceiveBuffer >0 ) printf("%s\r\n",g_WIFI_ReceiveBuffer);
 788              		.loc 1 370 0
 789 0002 044B     		ldr	r3, .L62
 790 0004 1B88     		ldrh	r3, [r3]
 791 0006 002B     		cmp	r3, #0
 792 0008 03D0     		beq	.L60
 793              		.loc 1 370 0 is_stmt 0 discriminator 1
 794 000a 0349     		ldr	r1, .L62+4
 795 000c 0348     		ldr	r0, .L62+8
 796 000e FFF7FEFF 		bl	printf
 797              	.LVL87:
 798              	.L60:
 371:lib/WIFI.c    **** }
 799              		.loc 1 371 0 is_stmt 1
 800              		@ sp needed
 801 0012 10BD     		pop	{r4, pc}
 802              	.L63:
 803              		.align	2
 804              	.L62:
 805 0014 00000000 		.word	.LANCHOR0
 806 0018 00000000 		.word	g_WIFI_ReceiveBuffer
 807 001c 10000000 		.word	.LC8
 808              		.cfi_endproc
 809              	.LFE72:
 810              		.size	printWifiBuffer, .-printWifiBuffer
 811              		.section	.text.printNetworkInfo,"ax",%progbits
 812              		.align	2
 813              		.global	printNetworkInfo
 814              		.code	16
 815              		.thumb_func
 816              		.type	printNetworkInfo, %function
 817              	printNetworkInfo:
 818              	.LFB73:
ARM GAS  C:\Users\luvsd\AppData\Local\Temp\ccPwAV0N.s 			page 23


 372:lib/WIFI.c    **** 
 373:lib/WIFI.c    **** void printNetworkInfo()
 374:lib/WIFI.c    **** {                                
 819              		.loc 1 374 0
 820              		.cfi_startproc
 821              		@ args = 0, pretend = 0, frame = 0
 822              		@ frame_needed = 0, uses_anonymous_args = 0
 823 0000 10B5     		push	{r4, lr}
 824              		.cfi_def_cfa_offset 8
 825              		.cfi_offset 4, -8
 826              		.cfi_offset 14, -4
 375:lib/WIFI.c    ****     printf("IPv4        : %s\r\n",g_network.IPv4);
 827              		.loc 1 375 0
 828 0002 0D4C     		ldr	r4, .L65
 829 0004 2100     		movs	r1, r4
 830 0006 0D48     		ldr	r0, .L65+4
 831 0008 FFF7FEFF 		bl	printf
 832              	.LVL88:
 376:lib/WIFI.c    ****     printf("Subnet Mask : %s\r\n",g_network.SubnetMask);
 833              		.loc 1 376 0
 834 000c 2100     		movs	r1, r4
 835 000e 1031     		adds	r1, r1, #16
 836 0010 0B48     		ldr	r0, .L65+8
 837 0012 FFF7FEFF 		bl	printf
 838              	.LVL89:
 377:lib/WIFI.c    ****     printf("Gateway     : %s\r\n",g_network.Gateway);
 839              		.loc 1 377 0
 840 0016 2100     		movs	r1, r4
 841 0018 2031     		adds	r1, r1, #32
 842 001a 0A48     		ldr	r0, .L65+12
 843 001c FFF7FEFF 		bl	printf
 844              	.LVL90:
 378:lib/WIFI.c    ****     printf("DNS Server  : %s\r\n",g_network.DNSServer);
 845              		.loc 1 378 0
 846 0020 2100     		movs	r1, r4
 847 0022 3031     		adds	r1, r1, #48
 848 0024 0848     		ldr	r0, .L65+16
 849 0026 FFF7FEFF 		bl	printf
 850              	.LVL91:
 379:lib/WIFI.c    ****     printf("MAC Address : %s\r\n",g_network.MAC); 
 851              		.loc 1 379 0
 852 002a 2100     		movs	r1, r4
 853 002c 4031     		adds	r1, r1, #64
 854 002e 0748     		ldr	r0, .L65+20
 855 0030 FFF7FEFF 		bl	printf
 856              	.LVL92:
 380:lib/WIFI.c    **** }
 857              		.loc 1 380 0
 858              		@ sp needed
 859 0034 10BD     		pop	{r4, pc}
 860              	.L66:
 861 0036 C046     		.align	2
 862              	.L65:
 863 0038 2C000000 		.word	g_network+44
 864 003c 1C010000 		.word	.LC50
 865 0040 30010000 		.word	.LC53
 866 0044 44010000 		.word	.LC56
ARM GAS  C:\Users\luvsd\AppData\Local\Temp\ccPwAV0N.s 			page 24


 867 0048 58010000 		.word	.LC59
 868 004c 6C010000 		.word	.LC62
 869              		.cfi_endproc
 870              	.LFE73:
 871              		.size	printNetworkInfo, .-printNetworkInfo
 872              		.section	.text.appendAP,"ax",%progbits
 873              		.align	2
 874              		.global	appendAP
 875              		.code	16
 876              		.thumb_func
 877              		.type	appendAP, %function
 878              	appendAP:
 879              	.LFB74:
 381:lib/WIFI.c    **** 
 382:lib/WIFI.c    **** void appendAP(char *str)
 383:lib/WIFI.c    **** {
 880              		.loc 1 383 0
 881              		.cfi_startproc
 882              		@ args = 0, pretend = 0, frame = 0
 883              		@ frame_needed = 0, uses_anonymous_args = 0
 884              	.LVL93:
 885 0000 70B5     		push	{r4, r5, r6, lr}
 886              		.cfi_def_cfa_offset 16
 887              		.cfi_offset 4, -16
 888              		.cfi_offset 5, -12
 889              		.cfi_offset 6, -8
 890              		.cfi_offset 14, -4
 891              	.LVL94:
 384:lib/WIFI.c    ****     char *ptr = str;
 385:lib/WIFI.c    ****     
 386:lib/WIFI.c    ****     if(ptr[0] == ' ') return; // SSID가 없는 경우가 있다.
 892              		.loc 1 386 0
 893 0002 0378     		ldrb	r3, [r0]
 894 0004 202B     		cmp	r3, #32
 895 0006 57D0     		beq	.L67
 387:lib/WIFI.c    ****  
 388:lib/WIFI.c    ****     if(g_SizeOfAPs > MAX_NO_OF_ACCESS_POINT - 2) return;
 896              		.loc 1 388 0
 897 0008 2C4B     		ldr	r3, .L81
 898 000a 1C88     		ldrh	r4, [r3]
 899 000c 262C     		cmp	r4, #38
 900 000e 53D8     		bhi	.L67
 901              	.LVL95:
 389:lib/WIFI.c    ****     
 390:lib/WIFI.c    ****     int i=0;
 391:lib/WIFI.c    ****     ACCESS_POINT *ptrAP = &g_APs[g_SizeOfAPs++];
 902              		.loc 1 391 0
 903 0010 631C     		adds	r3, r4, #1
 904 0012 2A4A     		ldr	r2, .L81
 905 0014 1380     		strh	r3, [r2]
 906 0016 2100     		movs	r1, r4
 907              	.LVL96:
 390:lib/WIFI.c    ****     ACCESS_POINT *ptrAP = &g_APs[g_SizeOfAPs++];
 908              		.loc 1 390 0
 909 0018 0025     		movs	r5, #0
 392:lib/WIFI.c    **** 
 393:lib/WIFI.c    ****     // get SSID /////////////////////////////////
ARM GAS  C:\Users\luvsd\AppData\Local\Temp\ccPwAV0N.s 			page 25


 394:lib/WIFI.c    ****     while(*ptr != ' ') ptrAP->SSID[i++] = *ptr++;
 910              		.loc 1 394 0
 911 001a 08E0     		b	.L69
 912              	.LVL97:
 913              	.L70:
 914              		.loc 1 394 0 is_stmt 0 discriminator 2
 915 001c 0130     		adds	r0, r0, #1
 916              	.LVL98:
 917 001e 0A01     		lsls	r2, r1, #4
 918 0020 521A     		subs	r2, r2, r1
 919 0022 9300     		lsls	r3, r2, #2
 920 0024 264A     		ldr	r2, .L81+4
 921 0026 D318     		adds	r3, r2, r3
 922 0028 5B19     		adds	r3, r3, r5
 923 002a 9E70     		strb	r6, [r3, #2]
 924 002c 0135     		adds	r5, r5, #1
 925              	.LVL99:
 926              	.L69:
 927              		.loc 1 394 0 discriminator 1
 928 002e 0678     		ldrb	r6, [r0]
 929 0030 202E     		cmp	r6, #32
 930 0032 F3D1     		bne	.L70
 395:lib/WIFI.c    ****     ptrAP->SSID[i] = 0;
 931              		.loc 1 395 0 is_stmt 1
 932 0034 2201     		lsls	r2, r4, #4
 933 0036 121B     		subs	r2, r2, r4
 934 0038 9300     		lsls	r3, r2, #2
 935 003a 214A     		ldr	r2, .L81+4
 936 003c D318     		adds	r3, r2, r3
 937 003e 5D19     		adds	r5, r3, r5
 938              	.LVL100:
 939 0040 0022     		movs	r2, #0
 940 0042 AA70     		strb	r2, [r5, #2]
 396:lib/WIFI.c    ****     ptrAP->SSID[MAX_STRING_SSID-1] = 0;
 941              		.loc 1 396 0
 942 0044 2933     		adds	r3, r3, #41
 943 0046 1A70     		strb	r2, [r3]
 397:lib/WIFI.c    ****  
 398:lib/WIFI.c    ****     // get MAC Address /////////////////////////
 399:lib/WIFI.c    ****     while(*ptr != ':') ptr++; // ':'을 먼저 찾고 앞으로 2자 이동한다.
 944              		.loc 1 399 0
 945 0048 00E0     		b	.L71
 946              	.L72:
 947              		.loc 1 399 0 is_stmt 0 discriminator 2
 948 004a 0130     		adds	r0, r0, #1
 949              	.LVL101:
 950              	.L71:
 951              		.loc 1 399 0 discriminator 1
 952 004c 0378     		ldrb	r3, [r0]
 953 004e 3A2B     		cmp	r3, #58
 954 0050 FBD1     		bne	.L72
 955              	.LVL102:
 400:lib/WIFI.c    ****     ptr--;
 401:lib/WIFI.c    ****     ptr--;    
 956              		.loc 1 401 0 is_stmt 1
 957 0052 0238     		subs	r0, r0, #2
 958              	.LVL103:
ARM GAS  C:\Users\luvsd\AppData\Local\Temp\ccPwAV0N.s 			page 26


 402:lib/WIFI.c    ****  
 403:lib/WIFI.c    ****     i=0;   
 959              		.loc 1 403 0
 960 0054 0025     		movs	r5, #0
 404:lib/WIFI.c    ****     while(*ptr != ' ') ptrAP->MAC[i++] = *ptr++;
 961              		.loc 1 404 0
 962 0056 09E0     		b	.L73
 963              	.LVL104:
 964              	.L74:
 965              		.loc 1 404 0 is_stmt 0 discriminator 2
 966 0058 0130     		adds	r0, r0, #1
 967              	.LVL105:
 968 005a 0A01     		lsls	r2, r1, #4
 969 005c 521A     		subs	r2, r2, r1
 970 005e 9300     		lsls	r3, r2, #2
 971 0060 174A     		ldr	r2, .L81+4
 972 0062 D318     		adds	r3, r2, r3
 973 0064 5B19     		adds	r3, r3, r5
 974 0066 2A33     		adds	r3, r3, #42
 975 0068 1E70     		strb	r6, [r3]
 976 006a 0135     		adds	r5, r5, #1
 977              	.LVL106:
 978              	.L73:
 979              		.loc 1 404 0 discriminator 1
 980 006c 0678     		ldrb	r6, [r0]
 981 006e 202E     		cmp	r6, #32
 982 0070 F2D1     		bne	.L74
 405:lib/WIFI.c    ****     ptrAP->MAC[i] = 0;
 983              		.loc 1 405 0 is_stmt 1
 984 0072 2201     		lsls	r2, r4, #4
 985 0074 121B     		subs	r2, r2, r4
 986 0076 9300     		lsls	r3, r2, #2
 987 0078 114A     		ldr	r2, .L81+4
 988 007a D318     		adds	r3, r2, r3
 989 007c 5D19     		adds	r5, r3, r5
 990              	.LVL107:
 991 007e 2A35     		adds	r5, r5, #42
 992 0080 0023     		movs	r3, #0
 993 0082 2B70     		strb	r3, [r5]
 406:lib/WIFI.c    ****     
 407:lib/WIFI.c    ****     // Skip 
 408:lib/WIFI.c    ****     ptr++;    
 994              		.loc 1 408 0
 995 0084 0130     		adds	r0, r0, #1
 996              	.LVL108:
 409:lib/WIFI.c    ****     while(*ptr != ' ') ptr++;
 997              		.loc 1 409 0
 998 0086 00E0     		b	.L75
 999              	.L76:
 1000              		.loc 1 409 0 is_stmt 0 discriminator 2
 1001 0088 0130     		adds	r0, r0, #1
 1002              	.LVL109:
 1003              	.L75:
 1004              		.loc 1 409 0 discriminator 1
 1005 008a 0378     		ldrb	r3, [r0]
 1006 008c 202B     		cmp	r3, #32
 1007 008e FBD1     		bne	.L76
ARM GAS  C:\Users\luvsd\AppData\Local\Temp\ccPwAV0N.s 			page 27


 410:lib/WIFI.c    ****     // Skip  
 411:lib/WIFI.c    ****     ptr++;    
 1008              		.loc 1 411 0 is_stmt 1
 1009 0090 0130     		adds	r0, r0, #1
 1010              	.LVL110:
 412:lib/WIFI.c    ****     while(*ptr != ' ') ptr++;
 1011              		.loc 1 412 0
 1012 0092 00E0     		b	.L77
 1013              	.L78:
 1014              		.loc 1 412 0 is_stmt 0 discriminator 2
 1015 0094 0130     		adds	r0, r0, #1
 1016              	.LVL111:
 1017              	.L77:
 1018              		.loc 1 412 0 discriminator 1
 1019 0096 0378     		ldrb	r3, [r0]
 1020 0098 202B     		cmp	r3, #32
 1021 009a FBD1     		bne	.L78
 413:lib/WIFI.c    ****     // Skip     
 414:lib/WIFI.c    ****     ptr++;    
 1022              		.loc 1 414 0 is_stmt 1
 1023 009c 0130     		adds	r0, r0, #1
 1024              	.LVL112:
 415:lib/WIFI.c    ****     while(*ptr != ' ') ptr++;
 1025              		.loc 1 415 0
 1026 009e 00E0     		b	.L79
 1027              	.L80:
 1028              		.loc 1 415 0 is_stmt 0 discriminator 2
 1029 00a0 0130     		adds	r0, r0, #1
 1030              	.LVL113:
 1031              	.L79:
 1032              		.loc 1 415 0 discriminator 1
 1033 00a2 0378     		ldrb	r3, [r0]
 1034 00a4 202B     		cmp	r3, #32
 1035 00a6 FBD1     		bne	.L80
 416:lib/WIFI.c    ****  
 417:lib/WIFI.c    ****     // get MAC Address /////////////////////////    
 418:lib/WIFI.c    ****     ptr++;
 1036              		.loc 1 418 0 is_stmt 1
 1037 00a8 0130     		adds	r0, r0, #1
 1038              	.LVL114:
 419:lib/WIFI.c    ****     ptrAP->RSSI = atoi(ptr);    
 1039              		.loc 1 419 0
 1040 00aa FFF7FEFF 		bl	atoi
 1041              	.LVL115:
 1042 00ae 2301     		lsls	r3, r4, #4
 1043 00b0 1C1B     		subs	r4, r3, r4
 1044              	.LVL116:
 1045 00b2 A300     		lsls	r3, r4, #2
 1046 00b4 024A     		ldr	r2, .L81+4
 1047 00b6 9852     		strh	r0, [r3, r2]
 1048              	.L67:
 420:lib/WIFI.c    ****     
 421:lib/WIFI.c    **** //    printf(">%s %s %d\r\n",ptrAP->SSID, ptrAP->MAC, ptrAP->RSSI);
 422:lib/WIFI.c    **** }...
 1049              		.loc 1 422 0
 1050              		@ sp needed
 1051 00b8 70BD     		pop	{r4, r5, r6, pc}
ARM GAS  C:\Users\luvsd\AppData\Local\Temp\ccPwAV0N.s 			page 28


 1052              	.L82:
 1053 00ba C046     		.align	2
 1054              	.L81:
 1055 00bc 00000000 		.word	g_SizeOfAPs
 1056 00c0 00000000 		.word	g_APs
 1057              		.cfi_endproc
 1058              	.LFE74:
 1059              		.size	appendAP, .-appendAP
 1060              		.section	.text.wifi_get_response,"ax",%progbits
 1061              		.align	2
 1062              		.global	wifi_get_response
 1063              		.code	16
 1064              		.thumb_func
 1065              		.type	wifi_get_response, %function
 1066              	wifi_get_response:
 1067              	.LFB69:
 207:lib/WIFI.c    **** {
 1068              		.loc 1 207 0
 1069              		.cfi_startproc
 1070              		@ args = 0, pretend = 0, frame = 0
 1071              		@ frame_needed = 0, uses_anonymous_args = 0
 1072 0000 70B5     		push	{r4, r5, r6, lr}
 1073              		.cfi_def_cfa_offset 16
 1074              		.cfi_offset 4, -16
 1075              		.cfi_offset 5, -12
 1076              		.cfi_offset 6, -8
 1077              		.cfi_offset 14, -4
 1078              	.LVL117:
 211:lib/WIFI.c    ****     switch(g_wifi_cmd)
 1079              		.loc 1 211 0
 1080 0002 7F4B     		ldr	r3, .L106
 1081 0004 9A78     		ldrb	r2, [r3, #2]
 1082 0006 072A     		cmp	r2, #7
 1083 0008 00D9     		bls	.LCB1059
 1084 000a F7E0     		b	.L83	@long jump
 1085              	.LCB1059:
 1086 000c 9300     		lsls	r3, r2, #2
 1087 000e 7D4A     		ldr	r2, .L106+4
 1088 0010 D358     		ldr	r3, [r2, r3]
 1089 0012 9F46     		mov	pc, r3
 1090              		.section	.rodata
 1091              		.align	2
 1092              	.L86:
 1093 0020 FC010000 		.word	.L83
 1094 0024 14000000 		.word	.L85
 1095 0028 50000000 		.word	.L87
 1096 002c 82000000 		.word	.L88
 1097 0030 EC000000 		.word	.L89
 1098 0034 94010000 		.word	.L90
 1099 0038 FC010000 		.word	.L83
 1100 003c D2000000 		.word	.L91
 1101              		.section	.text.wifi_get_response
 1102              	.L85:
 218:lib/WIFI.c    ****             if(STRSTR_WIFI_BUFFER("*ICT*MAC:OK") != NULL)            
 1103              		.loc 1 218 0
 1104 0014 7C49     		ldr	r1, .L106+8
 1105 0016 7D48     		ldr	r0, .L106+12
ARM GAS  C:\Users\luvsd\AppData\Local\Temp\ccPwAV0N.s 			page 29


 1106 0018 FFF7FEFF 		bl	strstr
 1107              	.LVL118:
 1108 001c 0028     		cmp	r0, #0
 1109 001e 10D0     		beq	.L92
 220:lib/WIFI.c    ****                 p = STRSTR_WIFI_BUFFER(" "); p++;
 1110              		.loc 1 220 0
 1111 0020 2021     		movs	r1, #32
 1112 0022 7A48     		ldr	r0, .L106+12
 1113 0024 FFF7FEFF 		bl	strchr
 1114              	.LVL119:
 1115 0028 0130     		adds	r0, r0, #1
 1116              	.LVL120:
 208:lib/WIFI.c    ****     int i=0;
 1117              		.loc 1 208 0
 1118 002a 0021     		movs	r1, #0
 221:lib/WIFI.c    ****                 while(*p != CR)  g_network.MAC[i++]  = *p++;   
 1119              		.loc 1 221 0
 1120 002c 05E0     		b	.L93
 1121              	.LVL121:
 1122              	.L94:
 221:lib/WIFI.c    ****                 while(*p != CR)  g_network.MAC[i++]  = *p++;   
 1123              		.loc 1 221 0 is_stmt 0 discriminator 2
 1124 002e 0130     		adds	r0, r0, #1
 1125              	.LVL122:
 1126 0030 774B     		ldr	r3, .L106+16
 1127 0032 5B18     		adds	r3, r3, r1
 1128 0034 6C33     		adds	r3, r3, #108
 1129 0036 1A70     		strb	r2, [r3]
 1130 0038 0131     		adds	r1, r1, #1
 1131              	.LVL123:
 1132              	.L93:
 221:lib/WIFI.c    ****                 while(*p != CR)  g_network.MAC[i++]  = *p++;   
 1133              		.loc 1 221 0 discriminator 1
 1134 003a 0278     		ldrb	r2, [r0]
 1135 003c 0D2A     		cmp	r2, #13
 1136 003e F6D1     		bne	.L94
 1137 0040 02E0     		b	.L95
 1138              	.LVL124:
 1139              	.L92:
 225:lib/WIFI.c    ****                 printf("WIFI_RESP_GET_MAC ERROR\r\n");
 1140              		.loc 1 225 0 is_stmt 1
 1141 0042 7448     		ldr	r0, .L106+20
 1142 0044 FFF7FEFF 		bl	puts
 1143              	.LVL125:
 1144              	.L95:
 227:lib/WIFI.c    ****             g_wifi_cmd = WIFI_CMD_IDLE;
 1145              		.loc 1 227 0
 1146 0048 0022     		movs	r2, #0
 1147 004a 6D4B     		ldr	r3, .L106
 1148 004c 9A70     		strb	r2, [r3, #2]
 229:lib/WIFI.c    ****         break;   
 1149              		.loc 1 229 0
 1150 004e D5E0     		b	.L83
 1151              	.LVL126:
 1152              	.L87:
 234:lib/WIFI.c    ****             if(STRSTR_WIFI_BUFFER("*ICT*MIB:OK") != NULL)
 1153              		.loc 1 234 0
ARM GAS  C:\Users\luvsd\AppData\Local\Temp\ccPwAV0N.s 			page 30


 1154 0050 7149     		ldr	r1, .L106+24
 1155 0052 6E48     		ldr	r0, .L106+12
 1156 0054 FFF7FEFF 		bl	strstr
 1157              	.LVL127:
 1158 0058 0028     		cmp	r0, #0
 1159 005a 0BD0     		beq	.L96
 236:lib/WIFI.c    ****                 p = STRSTR_WIFI_BUFFER(" "); p++;
 1160              		.loc 1 236 0
 1161 005c 2021     		movs	r1, #32
 1162 005e 6B48     		ldr	r0, .L106+12
 1163 0060 FFF7FEFF 		bl	strchr
 1164              	.LVL128:
 1165 0064 0130     		adds	r0, r0, #1
 1166              	.LVL129:
 237:lib/WIFI.c    ****                 g_network.RSSI = atoi(p);
 1167              		.loc 1 237 0
 1168 0066 FFF7FEFF 		bl	atoi
 1169              	.LVL130:
 1170 006a 694B     		ldr	r3, .L106+16
 1171 006c 5880     		strh	r0, [r3, #2]
 238:lib/WIFI.c    ****                 DrawWifi();
 1172              		.loc 1 238 0
 1173 006e FFF7FEFF 		bl	DrawWifi
 1174              	.LVL131:
 1175 0072 02E0     		b	.L97
 1176              	.LVL132:
 1177              	.L96:
 240:lib/WIFI.c    ****                 printf("WIFI_CMD_RECEIVED_STRENGTH ERROR\r\n");
 1178              		.loc 1 240 0
 1179 0074 6948     		ldr	r0, .L106+28
 1180 0076 FFF7FEFF 		bl	puts
 1181              	.LVL133:
 1182              	.L97:
 242:lib/WIFI.c    ****             g_wifi_cmd = WIFI_CMD_IDLE;    
 1183              		.loc 1 242 0
 1184 007a 0022     		movs	r2, #0
 1185 007c 604B     		ldr	r3, .L106
 1186 007e 9A70     		strb	r2, [r3, #2]
 243:lib/WIFI.c    ****         break;
 1187              		.loc 1 243 0
 1188 0080 BCE0     		b	.L83
 1189              	.LVL134:
 1190              	.L88:
 248:lib/WIFI.c    ****                 printWifiBuffer();                
 1191              		.loc 1 248 0
 1192 0082 FFF7FEFF 		bl	printWifiBuffer
 1193              	.LVL135:
 249:lib/WIFI.c    ****             if(STRSTR_WIFI_BUFFER("*ICT*SCAN:OK") != NULL)
 1194              		.loc 1 249 0
 1195 0086 6649     		ldr	r1, .L106+32
 1196 0088 6048     		ldr	r0, .L106+12
 1197 008a FFF7FEFF 		bl	strstr
 1198              	.LVL136:
 1199 008e 0028     		cmp	r0, #0
 1200 0090 03D0     		beq	.L98
 251:lib/WIFI.c    ****                 g_SizeOfAPs = 0;
 1201              		.loc 1 251 0
ARM GAS  C:\Users\luvsd\AppData\Local\Temp\ccPwAV0N.s 			page 31


 1202 0092 0022     		movs	r2, #0
 1203 0094 634B     		ldr	r3, .L106+36
 1204 0096 1A80     		strh	r2, [r3]
 1205 0098 B0E0     		b	.L83
 1206              	.L98:
 253:lib/WIFI.c    ****             else if(STRSTR_WIFI_BUFFER("*ICT*SCANIND:") != NULL)
 1207              		.loc 1 253 0
 1208 009a 6349     		ldr	r1, .L106+40
 1209 009c 5B48     		ldr	r0, .L106+12
 1210 009e FFF7FEFF 		bl	strstr
 1211              	.LVL137:
 1212 00a2 0028     		cmp	r0, #0
 1213 00a4 07D0     		beq	.L99
 256:lib/WIFI.c    ****                 p = STRSTR_WIFI_BUFFER(" "); p++;
 1214              		.loc 1 256 0
 1215 00a6 2021     		movs	r1, #32
 1216 00a8 5848     		ldr	r0, .L106+12
 1217 00aa FFF7FEFF 		bl	strchr
 1218              	.LVL138:
 1219 00ae 0130     		adds	r0, r0, #1
 1220              	.LVL139:
 257:lib/WIFI.c    ****                 appendAP(p);
 1221              		.loc 1 257 0
 1222 00b0 FFF7FEFF 		bl	appendAP
 1223              	.LVL140:
 1224 00b4 A2E0     		b	.L83
 1225              	.LVL141:
 1226              	.L99:
 259:lib/WIFI.c    ****             else if(STRSTR_WIFI_BUFFER("*ICT*SCANRESULT") != NULL)
 1227              		.loc 1 259 0
 1228 00b6 5D49     		ldr	r1, .L106+44
 1229 00b8 5448     		ldr	r0, .L106+12
 1230 00ba FFF7FEFF 		bl	strstr
 1231              	.LVL142:
 1232 00be 0028     		cmp	r0, #0
 1233 00c0 03D0     		beq	.L100
 261:lib/WIFI.c    ****                 g_wifi_cmd = WIFI_CMD_IDLE;
 1234              		.loc 1 261 0
 1235 00c2 0022     		movs	r2, #0
 1236 00c4 4E4B     		ldr	r3, .L106
 1237 00c6 9A70     		strb	r2, [r3, #2]
 1238 00c8 98E0     		b	.L83
 1239              	.L100:
 263:lib/WIFI.c    ****                 printf("WIFI_CMD_AP_SCAN ERROR\r\n");
 1240              		.loc 1 263 0
 1241 00ca 5948     		ldr	r0, .L106+48
 1242 00cc FFF7FEFF 		bl	puts
 1243              	.LVL143:
 1244 00d0 94E0     		b	.L83
 1245              	.L91:
 270:lib/WIFI.c    ****                 printWifiBuffer();   
 1246              		.loc 1 270 0
 1247 00d2 FFF7FEFF 		bl	printWifiBuffer
 1248              	.LVL144:
 271:lib/WIFI.c    ****                 if(STRSTR_WIFI_BUFFER("*ICT*FACRESET:OK") != NULL)
 1249              		.loc 1 271 0
 1250 00d6 5749     		ldr	r1, .L106+52
ARM GAS  C:\Users\luvsd\AppData\Local\Temp\ccPwAV0N.s 			page 32


 1251 00d8 4C48     		ldr	r0, .L106+12
 1252 00da FFF7FEFF 		bl	strstr
 1253              	.LVL145:
 1254 00de 0028     		cmp	r0, #0
 1255 00e0 00D1     		bne	.LCB1239
 1256 00e2 8BE0     		b	.L83	@long jump
 1257              	.LCB1239:
 273:lib/WIFI.c    ****                     wifi_cmd(WIFI_CMD_IPCONFIG);
 1258              		.loc 1 273 0
 1259 00e4 0420     		movs	r0, #4
 1260 00e6 FFF7FEFF 		bl	wifi_cmd
 1261              	.LVL146:
 274:lib/WIFI.c    ****                     break;
 1262              		.loc 1 274 0
 1263 00ea 87E0     		b	.L83
 1264              	.L89:
 282:lib/WIFI.c    ****                 printWifiBuffer();                
 1265              		.loc 1 282 0
 1266 00ec FFF7FEFF 		bl	printWifiBuffer
 1267              	.LVL147:
 283:lib/WIFI.c    ****             if(STRSTR_WIFI_BUFFER("*ICT*IPCONFIG:OK") != NULL)
 1268              		.loc 1 283 0
 1269 00f0 5149     		ldr	r1, .L106+56
 1270 00f2 4648     		ldr	r0, .L106+12
 1271 00f4 FFF7FEFF 		bl	strstr
 1272              	.LVL148:
 1273 00f8 0028     		cmp	r0, #0
 1274 00fa 10D0     		beq	.L101
 285:lib/WIFI.c    ****                 wifi_printf("AT*ICT*SCONN=%s %s\r\n",g_ptrServer->SSID, g_ptrServer->password);
 1275              		.loc 1 285 0
 1276 00fc 4F4D     		ldr	r5, .L106+60
 1277 00fe 2A68     		ldr	r2, [r5]
 1278 0100 1100     		movs	r1, r2
 1279 0102 3231     		adds	r1, r1, #50
 1280 0104 5A32     		adds	r2, r2, #90
 1281 0106 4E4C     		ldr	r4, .L106+64
 1282 0108 2000     		movs	r0, r4
 1283 010a FFF7FEFF 		bl	wifi_printf
 1284              	.LVL149:
 286:lib/WIFI.c    ****                 printf("AT*ICT*SCONN=%s %s\r\n",g_ptrServer->SSID, g_ptrServer->password);         
 1285              		.loc 1 286 0
 1286 010e 2A68     		ldr	r2, [r5]
 1287 0110 1100     		movs	r1, r2
 1288 0112 3231     		adds	r1, r1, #50
 1289 0114 5A32     		adds	r2, r2, #90
 1290 0116 2000     		movs	r0, r4
 1291 0118 FFF7FEFF 		bl	printf
 1292              	.LVL150:
 1293 011c 6EE0     		b	.L83
 1294              	.L101:
 288:lib/WIFI.c    ****             else if(STRSTR_WIFI_BUFFER("*ICT*SCONN:OK") != NULL)
 1295              		.loc 1 288 0
 1296 011e 4949     		ldr	r1, .L106+68
 1297 0120 3A48     		ldr	r0, .L106+12
 1298 0122 FFF7FEFF 		bl	strstr
 1299              	.LVL151:
 1300 0126 0028     		cmp	r0, #0
ARM GAS  C:\Users\luvsd\AppData\Local\Temp\ccPwAV0N.s 			page 33


 1301 0128 0ED0     		beq	.L102
 290:lib/WIFI.c    ****                 WIFI_RESET_Write(0);                
 1302              		.loc 1 290 0
 1303 012a 0020     		movs	r0, #0
 1304 012c FFF7FEFF 		bl	WIFI_RESET_Write
 1305              	.LVL152:
 291:lib/WIFI.c    ****                 CyDelay(20);
 1306              		.loc 1 291 0
 1307 0130 1420     		movs	r0, #20
 1308 0132 FFF7FEFF 		bl	CyDelay
 1309              	.LVL153:
 292:lib/WIFI.c    ****                 WIFI_RESET_Write(1);   
 1310              		.loc 1 292 0
 1311 0136 0120     		movs	r0, #1
 1312 0138 FFF7FEFF 		bl	WIFI_RESET_Write
 1313              	.LVL154:
 293:lib/WIFI.c    ****                 CyDelay(20);            
 1314              		.loc 1 293 0
 1315 013c 1420     		movs	r0, #20
 1316 013e FFF7FEFF 		bl	CyDelay
 1317              	.LVL155:
 294:lib/WIFI.c    ****                CySoftwareReset();
 1318              		.loc 1 294 0
 1319 0142 FFF7FEFF 		bl	CySoftwareReset
 1320              	.LVL156:
 1321 0146 59E0     		b	.L83
 1322              	.L102:
 296:lib/WIFI.c    ****             else if(STRSTR_WIFI_BUFFER("*ICT*IPRELEASED") != NULL)
 1323              		.loc 1 296 0
 1324 0148 3F49     		ldr	r1, .L106+72
 1325 014a 3048     		ldr	r0, .L106+12
 1326 014c FFF7FEFF 		bl	strstr
 1327              	.LVL157:
 1328 0150 0028     		cmp	r0, #0
 1329 0152 53D1     		bne	.L83
 299:lib/WIFI.c    ****             else if(STRSTR_WIFI_BUFFER("*ICT*SSL_CLOSED:OK") != NULL)
 1330              		.loc 1 299 0
 1331 0154 3D49     		ldr	r1, .L106+76
 1332 0156 2D48     		ldr	r0, .L106+12
 1333 0158 FFF7FEFF 		bl	strstr
 1334              	.LVL158:
 1335 015c 0028     		cmp	r0, #0
 1336 015e 4DD1     		bne	.L83
 302:lib/WIFI.c    ****             else if(STRSTR_WIFI_BUFFER("*ICT*DISASSOCIATED") != NULL)
 1337              		.loc 1 302 0
 1338 0160 3B49     		ldr	r1, .L106+80
 1339 0162 2A48     		ldr	r0, .L106+12
 1340 0164 FFF7FEFF 		bl	strstr
 1341              	.LVL159:
 1342 0168 0028     		cmp	r0, #0
 1343 016a 47D1     		bne	.L83
 305:lib/WIFI.c    ****             else if(STRSTR_WIFI_BUFFER("*ICT*ASSOCIATED:0") != NULL)
 1344              		.loc 1 305 0
 1345 016c 3949     		ldr	r1, .L106+84
 1346 016e 2748     		ldr	r0, .L106+12
 1347 0170 FFF7FEFF 		bl	strstr
 1348              	.LVL160:
ARM GAS  C:\Users\luvsd\AppData\Local\Temp\ccPwAV0N.s 			page 34


 1349 0174 0028     		cmp	r0, #0
 1350 0176 41D1     		bne	.L83
 308:lib/WIFI.c    ****             else if(STRSTR_WIFI_BUFFER("*ICT*IPALLOCATED:") != NULL)
 1351              		.loc 1 308 0
 1352 0178 3749     		ldr	r1, .L106+88
 1353 017a 2448     		ldr	r0, .L106+12
 1354 017c FFF7FEFF 		bl	strstr
 1355              	.LVL161:
 1356 0180 0028     		cmp	r0, #0
 1357 0182 03D0     		beq	.L103
 310:lib/WIFI.c    ****                 g_wifi_cmd = WIFI_CMD_IDLE;
 1358              		.loc 1 310 0
 1359 0184 0022     		movs	r2, #0
 1360 0186 1E4B     		ldr	r3, .L106
 1361 0188 9A70     		strb	r2, [r3, #2]
 1362 018a 37E0     		b	.L83
 1363              	.L103:
 315:lib/WIFI.c    ****                 printf("WIFI_CMD_IPCONFIG ERROR\r\n");
 1364              		.loc 1 315 0
 1365 018c 3348     		ldr	r0, .L106+92
 1366 018e FFF7FEFF 		bl	puts
 1367              	.LVL162:
 1368 0192 33E0     		b	.L83
 1369              	.L90:
 322:lib/WIFI.c    ****             if     (STRSTR_WIFI_BUFFER("*ICT*HTTPGET:OK") != NULL)
 1370              		.loc 1 322 0
 1371 0194 3249     		ldr	r1, .L106+96
 1372 0196 1D48     		ldr	r0, .L106+12
 1373 0198 FFF7FEFF 		bl	strstr
 1374              	.LVL163:
 1375 019c 0028     		cmp	r0, #0
 1376 019e 2DD1     		bne	.L83
 325:lib/WIFI.c    ****             else if(STRSTR_WIFI_BUFFER("*ICT*HTTPGET:ERROR") != NULL)
 1377              		.loc 1 325 0
 1378 01a0 3049     		ldr	r1, .L106+100
 1379 01a2 1A48     		ldr	r0, .L106+12
 1380 01a4 FFF7FEFF 		bl	strstr
 1381              	.LVL164:
 1382 01a8 0028     		cmp	r0, #0
 1383 01aa 06D0     		beq	.L104
 327:lib/WIFI.c    ****                 printf("ICT*HTTPGET:ERROR\r\n");
 1384              		.loc 1 327 0
 1385 01ac 2E48     		ldr	r0, .L106+104
 1386 01ae FFF7FEFF 		bl	puts
 1387              	.LVL165:
 328:lib/WIFI.c    ****                 g_wifi_cmd = WIFI_CMD_IDLE;
 1388              		.loc 1 328 0
 1389 01b2 0022     		movs	r2, #0
 1390 01b4 124B     		ldr	r3, .L106
 1391 01b6 9A70     		strb	r2, [r3, #2]
 1392 01b8 20E0     		b	.L83
 1393              	.L104:
 330:lib/WIFI.c    ****             else if(STRSTR_WIFI_BUFFER("*ICT*HTTPBODY:") != NULL)
 1394              		.loc 1 330 0
 1395 01ba 2C49     		ldr	r1, .L106+108
 1396 01bc 1348     		ldr	r0, .L106+12
 1397 01be FFF7FEFF 		bl	strstr
ARM GAS  C:\Users\luvsd\AppData\Local\Temp\ccPwAV0N.s 			page 35


 1398              	.LVL166:
 1399 01c2 0028     		cmp	r0, #0
 1400 01c4 11D0     		beq	.L105
 333:lib/WIFI.c    ****                 p = STRSTR_WIFI_BUFFER(":"); p++;
 1401              		.loc 1 333 0
 1402 01c6 114C     		ldr	r4, .L106+12
 1403 01c8 3A21     		movs	r1, #58
 1404 01ca 2000     		movs	r0, r4
 1405 01cc FFF7FEFF 		bl	strchr
 1406              	.LVL167:
 1407 01d0 0130     		adds	r0, r0, #1
 1408              	.LVL168:
 334:lib/WIFI.c    ****                 g_sizeOfHttpText = atoi(p); // No. of Received Data
 1409              		.loc 1 334 0
 1410 01d2 FFF7FEFF 		bl	atoi
 1411              	.LVL169:
 1412 01d6 264B     		ldr	r3, .L106+112
 1413 01d8 1880     		strh	r0, [r3]
 336:lib/WIFI.c    ****                 p = STRSTR_WIFI_BUFFER(" "); p++;
 1414              		.loc 1 336 0
 1415 01da 2021     		movs	r1, #32
 1416 01dc 2000     		movs	r0, r4
 1417 01de FFF7FEFF 		bl	strchr
 1418              	.LVL170:
 1419 01e2 0130     		adds	r0, r0, #1
 1420              	.LVL171:
 338:lib/WIFI.c    ****                 g_ptrHttpReceivedText=p;    // pointer of Received Data
 1421              		.loc 1 338 0
 1422 01e4 064B     		ldr	r3, .L106
 1423 01e6 5860     		str	r0, [r3, #4]
 1424 01e8 08E0     		b	.L83
 1425              	.LVL172:
 1426              	.L105:
 340:lib/WIFI.c    ****             else if(STRSTR_WIFI_BUFFER("*ICT*HTTPCLOSE:OK") != NULL)
 1427              		.loc 1 340 0
 1428 01ea 2249     		ldr	r1, .L106+116
 1429 01ec 0748     		ldr	r0, .L106+12
 1430 01ee FFF7FEFF 		bl	strstr
 1431              	.LVL173:
 1432 01f2 0028     		cmp	r0, #0
 1433 01f4 02D0     		beq	.L83
 342:lib/WIFI.c    ****                 g_wifi_cmd = WIFI_CMD_IDLE;     
 1434              		.loc 1 342 0
 1435 01f6 0022     		movs	r2, #0
 1436 01f8 014B     		ldr	r3, .L106
 1437 01fa 9A70     		strb	r2, [r3, #2]
 1438              	.LVL174:
 1439              	.L83:
 345:lib/WIFI.c    **** }
 1440              		.loc 1 345 0
 1441              		@ sp needed
 1442 01fc 70BD     		pop	{r4, r5, r6, pc}
 1443              	.L107:
 1444 01fe C046     		.align	2
 1445              	.L106:
 1446 0200 00000000 		.word	.LANCHOR0
 1447 0204 20000000 		.word	.L86
ARM GAS  C:\Users\luvsd\AppData\Local\Temp\ccPwAV0N.s 			page 36


 1448 0208 7C000000 		.word	.LC26
 1449 020c 00000000 		.word	g_WIFI_ReceiveBuffer
 1450 0210 00000000 		.word	g_network
 1451 0214 88000000 		.word	.LC28
 1452 0218 C8000000 		.word	.LC35
 1453 021c D4000000 		.word	.LC38
 1454 0220 80010000 		.word	.LC74
 1455 0224 00000000 		.word	g_SizeOfAPs
 1456 0228 90010000 		.word	.LC77
 1457 022c A0010000 		.word	.LC79
 1458 0230 B0010000 		.word	.LC81
 1459 0234 C8010000 		.word	.LC83
 1460 0238 DC010000 		.word	.LC85
 1461 023c 00000000 		.word	g_ptrServer
 1462 0240 F0010000 		.word	.LC88
 1463 0244 08020000 		.word	.LC90
 1464 0248 18020000 		.word	.LC92
 1465 024c 28020000 		.word	.LC94
 1466 0250 3C020000 		.word	.LC96
 1467 0254 50020000 		.word	.LC98
 1468 0258 A4000000 		.word	.LC30
 1469 025c 64020000 		.word	.LC101
 1470 0260 80020000 		.word	.LC103
 1471 0264 90020000 		.word	.LC105
 1472 0268 A4020000 		.word	.LC107
 1473 026c B8020000 		.word	.LC109
 1474 0270 00000000 		.word	g_sizeOfHttpText
 1475 0274 C8020000 		.word	.LC112
 1476              		.cfi_endproc
 1477              	.LFE69:
 1478              		.size	wifi_get_response, .-wifi_get_response
 1479              		.comm	g_index_WifiStrength,1,1
 1480              		.global	g_wifi_cmd
 1481              		.comm	g_sizeOfHttpText,2,2
 1482              		.global	g_ptrHttpReceivedText
 1483              		.comm	g_SizeOfAPs,2,2
 1484              		.comm	g_APs,2400,4
 1485              		.global	g_size_WIFI_ReceiveBuffer
 1486              		.comm	g_WIFI_ReceiveBuffer,2049,4
 1487              		.comm	g_network,128,4
 1488              		.comm	Param,6,4
 1489              		.section	.rodata.str1.4,"aMS",%progbits,1
 1490              		.align	2
 1491              	.LC6:
 1492 0000 41542A49 		.ascii	"AT*ICT*MAC=?\000"
 1492      43542A4D 
 1492      41433D3F 
 1492      00
 1493 000d 000000   		.space	3
 1494              	.LC8:
 1495 0010 25730D0A 		.ascii	"%s\015\012\000"
 1495      00
 1496 0015 000000   		.space	3
 1497              	.LC10:
 1498 0018 41542A49 		.ascii	"AT*ICT*MIB=112\000"
 1498      43542A4D 
 1498      49423D31 
ARM GAS  C:\Users\luvsd\AppData\Local\Temp\ccPwAV0N.s 			page 37


 1498      313200
 1499 0027 00       		.space	1
 1500              	.LC12:
 1501 0028 41542A49 		.ascii	"AT*ICT*SCAN\000"
 1501      43542A53 
 1501      43414E00 
 1502              	.LC14:
 1503 0034 41542A49 		.ascii	"AT*ICT*IPCONFIG=1\000"
 1503      43542A49 
 1503      50434F4E 
 1503      4649473D 
 1503      3100
 1504 0046 0000     		.space	2
 1505              	.LC16:
 1506 0048 41542A49 		.ascii	"AT*ICT*FACRESET=0\000"
 1506      43542A46 
 1506      41435245 
 1506      5345543D 
 1506      3000
 1507 005a 0000     		.space	2
 1508              	.LC20:
 1509 005c 2A494354 		.ascii	"*ICT*DEVICEREADY\000"
 1509      2A444556 
 1509      49434552 
 1509      45414459 
 1509      00
 1510 006d 000000   		.space	3
 1511              	.LC23:
 1512 0070 52656164 		.ascii	"Ready Wifi\015\000"
 1512      79205769 
 1512      66690D00 
 1513              	.LC26:
 1514 007c 2A494354 		.ascii	"*ICT*MAC:OK\000"
 1514      2A4D4143 
 1514      3A4F4B00 
 1515              	.LC28:
 1516 0088 57494649 		.ascii	"WIFI_RESP_GET_MAC ERROR\015\000"
 1516      5F524553 
 1516      505F4745 
 1516      545F4D41 
 1516      43204552 
 1517 00a1 000000   		.space	3
 1518              	.LC30:
 1519 00a4 2A494354 		.ascii	"*ICT*IPALLOCATED:\000"
 1519      2A495041 
 1519      4C4C4F43 
 1519      41544544 
 1519      3A00
 1520 00b6 0000     		.space	2
 1521              	.LC32:
 1522 00b8 41542A49 		.ascii	"AT*ICT*MIB=0\000"
 1522      43542A4D 
 1522      49423D30 
 1522      00
 1523 00c5 000000   		.space	3
 1524              	.LC35:
 1525 00c8 2A494354 		.ascii	"*ICT*MIB:OK\000"
ARM GAS  C:\Users\luvsd\AppData\Local\Temp\ccPwAV0N.s 			page 38


 1525      2A4D4942 
 1525      3A4F4B00 
 1526              	.LC38:
 1527 00d4 57494649 		.ascii	"WIFI_CMD_RECEIVED_STRENGTH ERROR\015\000"
 1527      5F434D44 
 1527      5F524543 
 1527      45495645 
 1527      445F5354 
 1528 00f6 0000     		.space	2
 1529              	.LC42:
 1530 00f8 41542A49 		.ascii	"AT*ICT*HTTPGET=http://%s:%d%s%s\015\012\000"
 1530      43542A48 
 1530      54545047 
 1530      45543D68 
 1530      7474703A 
 1531 011a 0000     		.space	2
 1532              	.LC50:
 1533 011c 49507634 		.ascii	"IPv4        : %s\015\012\000"
 1533      20202020 
 1533      20202020 
 1533      3A202573 
 1533      0D0A00
 1534 012f 00       		.space	1
 1535              	.LC53:
 1536 0130 5375626E 		.ascii	"Subnet Mask : %s\015\012\000"
 1536      6574204D 
 1536      61736B20 
 1536      3A202573 
 1536      0D0A00
 1537 0143 00       		.space	1
 1538              	.LC56:
 1539 0144 47617465 		.ascii	"Gateway     : %s\015\012\000"
 1539      77617920 
 1539      20202020 
 1539      3A202573 
 1539      0D0A00
 1540 0157 00       		.space	1
 1541              	.LC59:
 1542 0158 444E5320 		.ascii	"DNS Server  : %s\015\012\000"
 1542      53657276 
 1542      65722020 
 1542      3A202573 
 1542      0D0A00
 1543 016b 00       		.space	1
 1544              	.LC62:
 1545 016c 4D414320 		.ascii	"MAC Address : %s\015\012\000"
 1545      41646472 
 1545      65737320 
 1545      3A202573 
 1545      0D0A00
 1546 017f 00       		.space	1
 1547              	.LC74:
 1548 0180 2A494354 		.ascii	"*ICT*SCAN:OK\000"
 1548      2A534341 
 1548      4E3A4F4B 
 1548      00
 1549 018d 000000   		.space	3
ARM GAS  C:\Users\luvsd\AppData\Local\Temp\ccPwAV0N.s 			page 39


 1550              	.LC77:
 1551 0190 2A494354 		.ascii	"*ICT*SCANIND:\000"
 1551      2A534341 
 1551      4E494E44 
 1551      3A00
 1552 019e 0000     		.space	2
 1553              	.LC79:
 1554 01a0 2A494354 		.ascii	"*ICT*SCANRESULT\000"
 1554      2A534341 
 1554      4E524553 
 1554      554C5400 
 1555              	.LC81:
 1556 01b0 57494649 		.ascii	"WIFI_CMD_AP_SCAN ERROR\015\000"
 1556      5F434D44 
 1556      5F41505F 
 1556      5343414E 
 1556      20455252 
 1557              	.LC83:
 1558 01c8 2A494354 		.ascii	"*ICT*FACRESET:OK\000"
 1558      2A464143 
 1558      52455345 
 1558      543A4F4B 
 1558      00
 1559 01d9 000000   		.space	3
 1560              	.LC85:
 1561 01dc 2A494354 		.ascii	"*ICT*IPCONFIG:OK\000"
 1561      2A495043 
 1561      4F4E4649 
 1561      473A4F4B 
 1561      00
 1562 01ed 000000   		.space	3
 1563              	.LC88:
 1564 01f0 41542A49 		.ascii	"AT*ICT*SCONN=%s %s\015\012\000"
 1564      43542A53 
 1564      434F4E4E 
 1564      3D257320 
 1564      25730D0A 
 1565 0205 000000   		.space	3
 1566              	.LC90:
 1567 0208 2A494354 		.ascii	"*ICT*SCONN:OK\000"
 1567      2A53434F 
 1567      4E4E3A4F 
 1567      4B00
 1568 0216 0000     		.space	2
 1569              	.LC92:
 1570 0218 2A494354 		.ascii	"*ICT*IPRELEASED\000"
 1570      2A495052 
 1570      454C4541 
 1570      53454400 
 1571              	.LC94:
 1572 0228 2A494354 		.ascii	"*ICT*SSL_CLOSED:OK\000"
 1572      2A53534C 
 1572      5F434C4F 
 1572      5345443A 
 1572      4F4B00
 1573 023b 00       		.space	1
 1574              	.LC96:
ARM GAS  C:\Users\luvsd\AppData\Local\Temp\ccPwAV0N.s 			page 40


 1575 023c 2A494354 		.ascii	"*ICT*DISASSOCIATED\000"
 1575      2A444953 
 1575      4153534F 
 1575      43494154 
 1575      454400
 1576 024f 00       		.space	1
 1577              	.LC98:
 1578 0250 2A494354 		.ascii	"*ICT*ASSOCIATED:0\000"
 1578      2A415353 
 1578      4F434941 
 1578      5445443A 
 1578      3000
 1579 0262 0000     		.space	2
 1580              	.LC101:
 1581 0264 57494649 		.ascii	"WIFI_CMD_IPCONFIG ERROR\015\000"
 1581      5F434D44 
 1581      5F495043 
 1581      4F4E4649 
 1581      47204552 
 1582 027d 000000   		.space	3
 1583              	.LC103:
 1584 0280 2A494354 		.ascii	"*ICT*HTTPGET:OK\000"
 1584      2A485454 
 1584      50474554 
 1584      3A4F4B00 
 1585              	.LC105:
 1586 0290 2A494354 		.ascii	"*ICT*HTTPGET:ERROR\000"
 1586      2A485454 
 1586      50474554 
 1586      3A455252 
 1586      4F5200
 1587 02a3 00       		.space	1
 1588              	.LC107:
 1589 02a4 4943542A 		.ascii	"ICT*HTTPGET:ERROR\015\000"
 1589      48545450 
 1589      4745543A 
 1589      4552524F 
 1589      520D00
 1590 02b7 00       		.space	1
 1591              	.LC109:
 1592 02b8 2A494354 		.ascii	"*ICT*HTTPBODY:\000"
 1592      2A485454 
 1592      50424F44 
 1592      593A00
 1593 02c7 00       		.space	1
 1594              	.LC112:
 1595 02c8 2A494354 		.ascii	"*ICT*HTTPCLOSE:OK\000"
 1595      2A485454 
 1595      50434C4F 
 1595      53453A4F 
 1595      4B00
 1596              		.bss
 1597              		.align	2
 1598              		.set	.LANCHOR0,. + 0
 1599              		.type	g_size_WIFI_ReceiveBuffer, %object
 1600              		.size	g_size_WIFI_ReceiveBuffer, 2
 1601              	g_size_WIFI_ReceiveBuffer:
ARM GAS  C:\Users\luvsd\AppData\Local\Temp\ccPwAV0N.s 			page 41


 1602 0000 0000     		.space	2
 1603              		.type	g_wifi_cmd, %object
 1604              		.size	g_wifi_cmd, 1
 1605              	g_wifi_cmd:
 1606 0002 00       		.space	1
 1607              		.type	nLoop.9358, %object
 1608              		.size	nLoop.9358, 1
 1609              	nLoop.9358:
 1610 0003 00       		.space	1
 1611              		.type	g_ptrHttpReceivedText, %object
 1612              		.size	g_ptrHttpReceivedText, 4
 1613              	g_ptrHttpReceivedText:
 1614 0004 00000000 		.space	4
 1615              		.text
 1616              	.Letext0:
 1617              		.file 2 "Generated_Source\\PSoC4/cytypes.h"
 1618              		.file 3 "c:\\program files (x86)\\cypress\\psoc creator\\4.4\\psoc creator\\import\\gnu\\arm\\5.4.
 1619              		.file 4 "<built-in>"
 1620              		.file 5 "./main.h"
 1621              		.file 6 "lib\\WIFI.h"
 1622              		.file 7 "lib\\server.h"
 1623              		.file 8 "lib\\fonts.h"
 1624              		.file 9 "Generated_Source\\PSoC4/RTC.h"
 1625              		.file 10 "Generated_Source\\PSoC4/UART_WIFI.h"
 1626              		.file 11 "Generated_Source\\PSoC4/WIFI_EN.h"
 1627              		.file 12 "Generated_Source\\PSoC4/CyLib.h"
 1628              		.file 13 "Generated_Source\\PSoC4/WIFI_RESET.h"
 1629              		.file 14 "lib\\sysTick.h"
 1630              		.file 15 "Generated_Source\\PSoC4/UART_WIFI_SPI_UART.h"
 1631              		.file 16 "c:\\program files (x86)\\cypress\\psoc creator\\4.4\\psoc creator\\import\\gnu\\arm\\5.4
 1632              		.file 17 "c:\\program files (x86)\\cypress\\psoc creator\\4.4\\psoc creator\\import\\gnu\\arm\\5.4
 1633              		.file 18 "./andonApi.h"
 1634              		.file 19 "lib\\utility.h"
 1635              		.file 20 "c:\\program files (x86)\\cypress\\psoc creator\\4.4\\psoc creator\\import\\gnu\\arm\\5.4
 1636              		.file 21 "lib\\widget.h"