ARM GAS  C:\Users\luvsd\AppData\Local\Temp\ccrvSYII.s 			page 1


   1              		.syntax unified
   2              		.cpu cortex-m0
   3              		.fpu softvfp
   4              		.eabi_attribute 20, 1
   5              		.eabi_attribute 21, 1
   6              		.eabi_attribute 23, 3
   7              		.eabi_attribute 24, 1
   8              		.eabi_attribute 25, 1
   9              		.eabi_attribute 26, 1
  10              		.eabi_attribute 30, 1
  11              		.eabi_attribute 34, 0
  12              		.eabi_attribute 18, 4
  13              		.thumb
  14              		.syntax unified
  15              		.file	"andonApi.c"
  16              		.text
  17              	.Ltext0:
  18              		.cfi_sections	.debug_frame
  19              		.section	.text.andonResponse,"ax",%progbits
  20              		.align	2
  21              		.global	andonResponse
  22              		.code	16
  23              		.thumb_func
  24              		.type	andonResponse, %function
  25              	andonResponse:
  26              	.LFB63:
  27              		.file 1 "andonApi.c"
   1:andonApi.c    **** /* ========================================
   2:andonApi.c    ****  *
   3:andonApi.c    ****  * Copyright Suntech, 2023.02.01
   4:andonApi.c    ****  * All Rights Reserved
   5:andonApi.c    ****  * UNPUBLISHED, LICENSED SOFTWARE.
   6:andonApi.c    ****  *
   7:andonApi.c    ****  * CONFIDENTIAL AND PROPRIETARY INFORMATION
   8:andonApi.c    ****  * WHICH IS THE PROPERTY OF Suntech.
   9:andonApi.c    ****  *
  10:andonApi.c    ****  * ========================================
  11:andonApi.c    **** */
  12:andonApi.c    **** #include "andonApi.h"
  13:andonApi.c    **** #include "andonJson.h"
  14:andonApi.c    **** #include "andonMessageQueue.h"
  15:andonApi.c    **** #include "lib/WIFI.h"
  16:andonApi.c    **** #include "lib/server.h"
  17:andonApi.c    **** #include "lib/utility.h"
  18:andonApi.c    **** #include "userProjectPatternSewing.h"
  19:andonApi.c    **** #include "count.h"
  20:andonApi.c    **** #include "package.h"
  21:andonApi.c    **** #include "lib/sysTick.h"
  22:andonApi.c    **** #include "WarningLight.h"
  23:andonApi.c    **** #include "downtime.h"
  24:andonApi.c    **** #include "defective.h"
  25:andonApi.c    **** 
  26:andonApi.c    **** ANDON_LISTS g_AndonLists;
  27:andonApi.c    **** uint8       g_bDeviceInfoUpdate=FALSE;
  28:andonApi.c    **** uint8       g_uReplyResult=RR_INIT;
  29:andonApi.c    **** static uint16 g_uAndonRequestType = ANDON_NONE;  /* andonApi.c 내부에서만 사용 */
  30:andonApi.c    **** uint8       g_bTargetReceived = FALSE;
ARM GAS  C:\Users\luvsd\AppData\Local\Temp\ccrvSYII.s 			page 2


  31:andonApi.c    **** uint8       g_index_request_interval=0;
  32:andonApi.c    **** uint8       g_bReceivedAndonStart = 0;
  33:andonApi.c    **** 
  34:andonApi.c    **** INFO  g_Info = {
  35:andonApi.c    ****     .nNoOfLineForNotice =0, 
  36:andonApi.c    **** };
  37:andonApi.c    **** 
  38:andonApi.c    **** uint8 andonLoop()
  39:andonApi.c    **** {
  40:andonApi.c    ****     if(!isEmptyQueueANDON())
  41:andonApi.c    ****     {
  42:andonApi.c    ****         ANDON_QUEUE *aq = deQueueANDON();
  43:andonApi.c    ****         
  44:andonApi.c    ****         char url[512];
  45:andonApi.c    ****         snprintf(url, sizeof(url), "%s?code=%s", DEFAULT_API_ENDPOINT, aq->message);
  46:andonApi.c    **** 
  47:andonApi.c    ****         g_uAndonRequestType = aq->type;
  48:andonApi.c    **** 
  49:andonApi.c    ****         wifi_cmd_http(url);
  50:andonApi.c    ****         
  51:andonApi.c    ****         return TRUE;
  52:andonApi.c    ****     }
  53:andonApi.c    ****     
  54:andonApi.c    ****     if(g_bReceivedAndonStart)
  55:andonApi.c    ****     {
  56:andonApi.c    ****         if(isFinishCounter_1ms(g_index_request_interval)) // Wifi Strength 체크를 5sec마다 수
  57:andonApi.c    ****         {
  58:andonApi.c    ****             resetCounter_1ms(g_index_request_interval);
  59:andonApi.c    ****             
  60:andonApi.c    ****             if(g_ptrMachineParameter->andon_enable==TRUE) makeAndonList();             
  61:andonApi.c    ****             
  62:andonApi.c    ****             return TRUE;
  63:andonApi.c    ****         }
  64:andonApi.c    ****         
  65:andonApi.c    ****         WarningLight();
  66:andonApi.c    ****     }
  67:andonApi.c    ****    
  68:andonApi.c    ****     return FALSE;
  69:andonApi.c    **** }
  70:andonApi.c    **** 
  71:andonApi.c    **** 
  72:andonApi.c    **** void andonResponse(char *ptrText, int16 sizeOfText)
  73:andonApi.c    **** {
  28              		.loc 1 73 0
  29              		.cfi_startproc
  30              		@ args = 0, pretend = 0, frame = 0
  31              		@ frame_needed = 0, uses_anonymous_args = 0
  32              	.LVL0:
  33 0000 10B5     		push	{r4, lr}
  34              		.cfi_def_cfa_offset 8
  35              		.cfi_offset 4, -8
  36              		.cfi_offset 14, -4
  37 0002 0300     		movs	r3, r0
  38 0004 0A00     		movs	r2, r1
  74:andonApi.c    ****     andonJsonParsor(g_uAndonRequestType, ptrText, sizeOfText);
  39              		.loc 1 74 0
  40 0006 044C     		ldr	r4, .L2
ARM GAS  C:\Users\luvsd\AppData\Local\Temp\ccrvSYII.s 			page 3


  41 0008 2088     		ldrh	r0, [r4]
  42              	.LVL1:
  43 000a 1900     		movs	r1, r3
  44              	.LVL2:
  45 000c FFF7FEFF 		bl	andonJsonParsor
  46              	.LVL3:
  75:andonApi.c    ****     g_uAndonRequestType = ANDON_NONE;
  47              		.loc 1 75 0
  48 0010 0023     		movs	r3, #0
  49 0012 2380     		strh	r3, [r4]
  76:andonApi.c    **** }
  50              		.loc 1 76 0
  51              		@ sp needed
  52 0014 10BD     		pop	{r4, pc}
  53              	.L3:
  54 0016 C046     		.align	2
  55              	.L2:
  56 0018 00000000 		.word	.LANCHOR0
  57              		.cfi_endproc
  58              	.LFE63:
  59              		.size	andonResponse, .-andonResponse
  60              		.section	.text.makeAndonCurrentTimeRequest,"ax",%progbits
  61              		.align	2
  62              		.global	makeAndonCurrentTimeRequest
  63              		.code	16
  64              		.thumb_func
  65              		.type	makeAndonCurrentTimeRequest, %function
  66              	makeAndonCurrentTimeRequest:
  67              	.LFB64:
  77:andonApi.c    **** 
  78:andonApi.c    **** void makeAndonCurrentTimeRequest()
  79:andonApi.c    **** {
  68              		.loc 1 79 0
  69              		.cfi_startproc
  70              		@ args = 0, pretend = 0, frame = 0
  71              		@ frame_needed = 0, uses_anonymous_args = 0
  72 0000 10B5     		push	{r4, lr}
  73              		.cfi_def_cfa_offset 8
  74              		.cfi_offset 4, -8
  75              		.cfi_offset 14, -4
  80:andonApi.c    ****     enQueueANDON_printf(ANDON_CURRENT_TIME,"get_dateTime");
  76              		.loc 1 80 0
  77 0002 0249     		ldr	r1, .L5
  78 0004 0120     		movs	r0, #1
  79 0006 FFF7FEFF 		bl	enQueueANDON_printf
  80              	.LVL4:
  81:andonApi.c    **** }
  81              		.loc 1 81 0
  82              		@ sp needed
  83 000a 10BD     		pop	{r4, pc}
  84              	.L6:
  85              		.align	2
  86              	.L5:
  87 000c 00000000 		.word	.LC1
  88              		.cfi_endproc
  89              	.LFE64:
  90              		.size	makeAndonCurrentTimeRequest, .-makeAndonCurrentTimeRequest
ARM GAS  C:\Users\luvsd\AppData\Local\Temp\ccrvSYII.s 			page 4


  91              		.section	.text.makeAndonStart,"ax",%progbits
  92              		.align	2
  93              		.global	makeAndonStart
  94              		.code	16
  95              		.thumb_func
  96              		.type	makeAndonStart, %function
  97              	makeAndonStart:
  98              	.LFB65:
  82:andonApi.c    **** 
  83:andonApi.c    **** void makeAndonStart()
  84:andonApi.c    **** {
  99              		.loc 1 84 0
 100              		.cfi_startproc
 101              		@ args = 0, pretend = 0, frame = 0
 102              		@ frame_needed = 0, uses_anonymous_args = 0
 103 0000 00B5     		push	{lr}
 104              		.cfi_def_cfa_offset 4
 105              		.cfi_offset 14, -4
 106 0002 83B0     		sub	sp, sp, #12
 107              		.cfi_def_cfa_offset 16
  85:andonApi.c    ****     //enQueueANDON_printf(ANDON_START,"start&mac=%s&name=%s&ip=%s&ver=%s",
  86:andonApi.c    ****     enQueueANDON_printf(ANDON_START,"start&mac=%s&machine_no=%s&ip=%s&ver=%s",
  87:andonApi.c    ****         g_network.MAC,
  88:andonApi.c    ****         g_ptrServer->deviceName,
 108              		.loc 1 88 0
 109 0004 074B     		ldr	r3, .L8
 110 0006 1B68     		ldr	r3, [r3]
 111 0008 7033     		adds	r3, r3, #112
  86:andonApi.c    ****         g_network.MAC,
 112              		.loc 1 86 0
 113 000a 074A     		ldr	r2, .L8+4
 114 000c 0749     		ldr	r1, .L8+8
 115 000e 0191     		str	r1, [sp, #4]
 116 0010 1100     		movs	r1, r2
 117 0012 4039     		subs	r1, r1, #64
 118 0014 0091     		str	r1, [sp]
 119 0016 0649     		ldr	r1, .L8+12
 120 0018 0F20     		movs	r0, #15
 121 001a FFF7FEFF 		bl	enQueueANDON_printf
 122              	.LVL5:
  89:andonApi.c    ****         g_network.IPv4,
  90:andonApi.c    ****         PROJECT_FIRMWARE_VERSION
  91:andonApi.c    ****     ); 
  92:andonApi.c    **** }
 123              		.loc 1 92 0
 124 001e 03B0     		add	sp, sp, #12
 125              		@ sp needed
 126 0020 00BD     		pop	{pc}
 127              	.L9:
 128 0022 C046     		.align	2
 129              	.L8:
 130 0024 00000000 		.word	g_ptrServer
 131 0028 6C000000 		.word	g_network+108
 132 002c 38000000 		.word	.LC7
 133 0030 10000000 		.word	.LC5
 134              		.cfi_endproc
 135              	.LFE65:
ARM GAS  C:\Users\luvsd\AppData\Local\Temp\ccrvSYII.s 			page 5


 136              		.size	makeAndonStart, .-makeAndonStart
 137              		.section	.text.makeAndonList,"ax",%progbits
 138              		.align	2
 139              		.global	makeAndonList
 140              		.code	16
 141              		.thumb_func
 142              		.type	makeAndonList, %function
 143              	makeAndonList:
 144              	.LFB66:
  93:andonApi.c    **** 
  94:andonApi.c    **** void makeAndonList()
  95:andonApi.c    **** {
 145              		.loc 1 95 0
 146              		.cfi_startproc
 147              		@ args = 0, pretend = 0, frame = 0
 148              		@ frame_needed = 0, uses_anonymous_args = 0
 149 0000 10B5     		push	{r4, lr}
 150              		.cfi_def_cfa_offset 8
 151              		.cfi_offset 4, -8
 152              		.cfi_offset 14, -4
  96:andonApi.c    ****     enQueueANDON_printf(ANDON_REQUEST_LIST,"get_andonList&mac=%s",
 153              		.loc 1 96 0
 154 0002 034A     		ldr	r2, .L11
 155 0004 0349     		ldr	r1, .L11+4
 156 0006 0520     		movs	r0, #5
 157 0008 FFF7FEFF 		bl	enQueueANDON_printf
 158              	.LVL6:
  97:andonApi.c    ****         g_network.MAC
  98:andonApi.c    ****     );   
  99:andonApi.c    **** }
 159              		.loc 1 99 0
 160              		@ sp needed
 161 000c 10BD     		pop	{r4, pc}
 162              	.L12:
 163 000e C046     		.align	2
 164              	.L11:
 165 0010 6C000000 		.word	g_network+108
 166 0014 48000000 		.word	.LC11
 167              		.cfi_endproc
 168              	.LFE66:
 169              		.size	makeAndonList, .-makeAndonList
 170              		.section	.text.andonLoop,"ax",%progbits
 171              		.align	2
 172              		.global	andonLoop
 173              		.code	16
 174              		.thumb_func
 175              		.type	andonLoop, %function
 176              	andonLoop:
 177              	.LFB62:
  39:andonApi.c    ****     if(!isEmptyQueueANDON())
 178              		.loc 1 39 0
 179              		.cfi_startproc
 180              		@ args = 0, pretend = 0, frame = 512
 181              		@ frame_needed = 0, uses_anonymous_args = 0
 182 0000 10B5     		push	{r4, lr}
 183              		.cfi_def_cfa_offset 8
 184              		.cfi_offset 4, -8
ARM GAS  C:\Users\luvsd\AppData\Local\Temp\ccrvSYII.s 			page 6


 185              		.cfi_offset 14, -4
 186 0002 1D4C     		ldr	r4, .L18
 187 0004 A544     		add	sp, sp, r4
 188              		.cfi_def_cfa_offset 528
  40:andonApi.c    ****     {
 189              		.loc 1 40 0
 190 0006 FFF7FEFF 		bl	isEmptyQueueANDON
 191              	.LVL7:
 192 000a 0028     		cmp	r0, #0
 193 000c 14D1     		bne	.L14
 194              	.LBB2:
  42:andonApi.c    ****         
 195              		.loc 1 42 0
 196 000e FFF7FEFF 		bl	deQueueANDON
 197              	.LVL8:
 198 0012 0400     		movs	r4, r0
 199              	.LVL9:
  45:andonApi.c    **** 
 200              		.loc 1 45 0
 201 0014 0090     		str	r0, [sp]
 202 0016 194B     		ldr	r3, .L18+4
 203 0018 194A     		ldr	r2, .L18+8
 204 001a 8021     		movs	r1, #128
 205 001c 8900     		lsls	r1, r1, #2
 206 001e 02A8     		add	r0, sp, #8
 207              	.LVL10:
 208 0020 FFF7FEFF 		bl	snprintf
 209              	.LVL11:
  47:andonApi.c    **** 
 210              		.loc 1 47 0
 211 0024 8023     		movs	r3, #128
 212 0026 5B00     		lsls	r3, r3, #1
 213 0028 E25A     		ldrh	r2, [r4, r3]
 214 002a 164B     		ldr	r3, .L18+12
 215 002c 1A80     		strh	r2, [r3]
  49:andonApi.c    ****         
 216              		.loc 1 49 0
 217 002e 02A8     		add	r0, sp, #8
 218 0030 FFF7FEFF 		bl	wifi_cmd_http
 219              	.LVL12:
  51:andonApi.c    ****     }
 220              		.loc 1 51 0
 221 0034 0124     		movs	r4, #1
 222              	.LVL13:
 223 0036 19E0     		b	.L15
 224              	.L14:
 225              	.LBE2:
  54:andonApi.c    ****     {
 226              		.loc 1 54 0
 227 0038 124B     		ldr	r3, .L18+12
 228 003a 9C78     		ldrb	r4, [r3, #2]
 229 003c 002C     		cmp	r4, #0
 230 003e 15D0     		beq	.L15
  56:andonApi.c    ****         {
 231              		.loc 1 56 0
 232 0040 D878     		ldrb	r0, [r3, #3]
 233 0042 FFF7FEFF 		bl	isFinishCounter_1ms
ARM GAS  C:\Users\luvsd\AppData\Local\Temp\ccrvSYII.s 			page 7


 234              	.LVL14:
 235 0046 041E     		subs	r4, r0, #0
 236 0048 0CD0     		beq	.L16
  58:andonApi.c    ****             
 237              		.loc 1 58 0
 238 004a 0E4B     		ldr	r3, .L18+12
 239 004c D878     		ldrb	r0, [r3, #3]
 240 004e FFF7FEFF 		bl	resetCounter_1ms
 241              	.LVL15:
  60:andonApi.c    ****             
 242              		.loc 1 60 0
 243 0052 0D4B     		ldr	r3, .L18+16
 244 0054 1B68     		ldr	r3, [r3]
 245 0056 9B8A     		ldrh	r3, [r3, #20]
 246 0058 012B     		cmp	r3, #1
 247 005a 06D1     		bne	.L17
  60:andonApi.c    ****             
 248              		.loc 1 60 0 is_stmt 0 discriminator 1
 249 005c FFF7FEFF 		bl	makeAndonList
 250              	.LVL16:
  62:andonApi.c    ****         }
 251              		.loc 1 62 0 is_stmt 1 discriminator 1
 252 0060 0124     		movs	r4, #1
 253 0062 03E0     		b	.L15
 254              	.L16:
  65:andonApi.c    ****     }
 255              		.loc 1 65 0
 256 0064 FFF7FEFF 		bl	WarningLight
 257              	.LVL17:
 258 0068 00E0     		b	.L15
 259              	.L17:
  62:andonApi.c    ****         }
 260              		.loc 1 62 0
 261 006a 0124     		movs	r4, #1
 262              	.L15:
  69:andonApi.c    **** 
 263              		.loc 1 69 0 discriminator 1
 264 006c 2000     		movs	r0, r4
 265 006e 8223     		movs	r3, #130
 266 0070 9B00     		lsls	r3, r3, #2
 267 0072 9D44     		add	sp, sp, r3
 268              		@ sp needed
 269 0074 10BD     		pop	{r4, pc}
 270              	.L19:
 271 0076 C046     		.align	2
 272              	.L18:
 273 0078 F8FDFFFF 		.word	-520
 274 007c 60000000 		.word	.LC13
 275 0080 70000000 		.word	.LC15
 276 0084 00000000 		.word	.LANCHOR0
 277 0088 00000000 		.word	g_ptrMachineParameter
 278              		.cfi_endproc
 279              	.LFE62:
 280              		.size	andonLoop, .-andonLoop
 281              		.section	.text.makeAndonWarningRequest,"ax",%progbits
 282              		.align	2
 283              		.global	makeAndonWarningRequest
ARM GAS  C:\Users\luvsd\AppData\Local\Temp\ccrvSYII.s 			page 8


 284              		.code	16
 285              		.thumb_func
 286              		.type	makeAndonWarningRequest, %function
 287              	makeAndonWarningRequest:
 288              	.LFB67:
 100:andonApi.c    **** 
 101:andonApi.c    **** void makeAndonWarningRequest(int idx)
 102:andonApi.c    **** {
 289              		.loc 1 102 0
 290              		.cfi_startproc
 291              		@ args = 0, pretend = 0, frame = 0
 292              		@ frame_needed = 0, uses_anonymous_args = 0
 293              	.LVL18:
 294 0000 10B5     		push	{r4, lr}
 295              		.cfi_def_cfa_offset 8
 296              		.cfi_offset 4, -8
 297              		.cfi_offset 14, -4
 298 0002 0300     		movs	r3, r0
 103:andonApi.c    ****     //enQueueANDON_printf(ANDON_REQUEST_ITEM,"send_andon_warning&mac=%s&andon_text_idx=%d",
 104:andonApi.c    ****     enQueueANDON_printf(ANDON_REQUEST_ITEM,"send_andon_warning&mac=%s&andon_idx=%d",
 299              		.loc 1 104 0
 300 0004 024A     		ldr	r2, .L21
 301 0006 0349     		ldr	r1, .L21+4
 302 0008 0420     		movs	r0, #4
 303              	.LVL19:
 304 000a FFF7FEFF 		bl	enQueueANDON_printf
 305              	.LVL20:
 105:andonApi.c    ****         g_network.MAC,
 106:andonApi.c    ****         idx
 107:andonApi.c    ****     );  
 108:andonApi.c    **** }
 306              		.loc 1 108 0
 307              		@ sp needed
 308 000e 10BD     		pop	{r4, pc}
 309              	.L22:
 310              		.align	2
 311              	.L21:
 312 0010 6C000000 		.word	g_network+108
 313 0014 7C000000 		.word	.LC20
 314              		.cfi_endproc
 315              	.LFE67:
 316              		.size	makeAndonWarningRequest, .-makeAndonWarningRequest
 317              		.section	.text.makeAndonCompleteRequest,"ax",%progbits
 318              		.align	2
 319              		.global	makeAndonCompleteRequest
 320              		.code	16
 321              		.thumb_func
 322              		.type	makeAndonCompleteRequest, %function
 323              	makeAndonCompleteRequest:
 324              	.LFB68:
 109:andonApi.c    **** 
 110:andonApi.c    **** void makeAndonCompleteRequest(int idx)
 111:andonApi.c    **** {
 325              		.loc 1 111 0
 326              		.cfi_startproc
 327              		@ args = 0, pretend = 0, frame = 0
 328              		@ frame_needed = 0, uses_anonymous_args = 0
ARM GAS  C:\Users\luvsd\AppData\Local\Temp\ccrvSYII.s 			page 9


 329              	.LVL21:
 330 0000 10B5     		push	{r4, lr}
 331              		.cfi_def_cfa_offset 8
 332              		.cfi_offset 4, -8
 333              		.cfi_offset 14, -4
 334 0002 0300     		movs	r3, r0
 112:andonApi.c    ****     //enQueueANDON_printf(ANDON_REQUEST_ITEM,"send_andon_completed&mac=%s&andon_text_idx=%d",
 113:andonApi.c    ****     enQueueANDON_printf(ANDON_REQUEST_ITEM,"send_andon_completed&mac=%s&andon_idx=%d",
 335              		.loc 1 113 0
 336 0004 024A     		ldr	r2, .L24
 337 0006 0349     		ldr	r1, .L24+4
 338 0008 0420     		movs	r0, #4
 339              	.LVL22:
 340 000a FFF7FEFF 		bl	enQueueANDON_printf
 341              	.LVL23:
 114:andonApi.c    ****         g_network.MAC,
 115:andonApi.c    ****         idx);  
 116:andonApi.c    **** }
 342              		.loc 1 116 0
 343              		@ sp needed
 344 000e 10BD     		pop	{r4, pc}
 345              	.L25:
 346              		.align	2
 347              	.L24:
 348 0010 6C000000 		.word	g_network+108
 349 0014 A4000000 		.word	.LC23
 350              		.cfi_endproc
 351              	.LFE68:
 352              		.size	makeAndonCompleteRequest, .-makeAndonCompleteRequest
 353              		.section	.text.updateRuntimeSum,"ax",%progbits
 354              		.align	2
 355              		.global	updateRuntimeSum
 356              		.code	16
 357              		.thumb_func
 358              		.type	updateRuntimeSum, %function
 359              	updateRuntimeSum:
 360              	.LFB69:
 117:andonApi.c    **** 
 118:andonApi.c    **** /* 전류센서 신호. (디바이스 2pin) */
 119:andonApi.c    **** void updateRuntimeSum(uint32 runtimeSum,uint32 elaspedTime)
 120:andonApi.c    **** {    
 361              		.loc 1 120 0
 362              		.cfi_startproc
 363              		@ args = 0, pretend = 0, frame = 0
 364              		@ frame_needed = 0, uses_anonymous_args = 0
 365              	.LVL24:
 366 0000 70B5     		push	{r4, r5, r6, lr}
 367              		.cfi_def_cfa_offset 16
 368              		.cfi_offset 4, -16
 369              		.cfi_offset 5, -12
 370              		.cfi_offset 6, -8
 371              		.cfi_offset 14, -4
 372 0002 84B0     		sub	sp, sp, #16
 373              		.cfi_def_cfa_offset 32
 374 0004 0500     		movs	r5, r0
 375 0006 0E00     		movs	r6, r1
 121:andonApi.c    ****     enQueueANDON_printf(ANDON_UPDATE_RUNTIME_SUM,"send_rCount_test&mac=%s&d_idx=%u&target=%lu&motor
ARM GAS  C:\Users\luvsd\AppData\Local\Temp\ccrvSYII.s 			page 10


 122:andonApi.c    ****         g_network.MAC,
 123:andonApi.c    ****         g_Info.DeviceIdx, 
 376              		.loc 1 123 0
 377 0008 074B     		ldr	r3, .L27
 378 000a DC8D     		ldrh	r4, [r3, #46]
 121:andonApi.c    ****     enQueueANDON_printf(ANDON_UPDATE_RUNTIME_SUM,"send_rCount_test&mac=%s&d_idx=%u&target=%lu&motor
 379              		.loc 1 121 0
 380 000c FFF7FEFF 		bl	getTarget
 381              	.LVL25:
 382 0010 0296     		str	r6, [sp, #8]
 383 0012 0195     		str	r5, [sp, #4]
 384 0014 0090     		str	r0, [sp]
 385 0016 2300     		movs	r3, r4
 386 0018 044A     		ldr	r2, .L27+4
 387 001a 0549     		ldr	r1, .L27+8
 388 001c 1220     		movs	r0, #18
 389 001e FFF7FEFF 		bl	enQueueANDON_printf
 390              	.LVL26:
 124:andonApi.c    ****         getTarget(), 
 125:andonApi.c    ****         runtimeSum, 
 126:andonApi.c    ****         elaspedTime
 127:andonApi.c    ****     );    
 128:andonApi.c    **** }
 391              		.loc 1 128 0
 392 0022 04B0     		add	sp, sp, #16
 393              		@ sp needed
 394              	.LVL27:
 395              	.LVL28:
 396 0024 70BD     		pop	{r4, r5, r6, pc}
 397              	.L28:
 398 0026 C046     		.align	2
 399              	.L27:
 400 0028 00000000 		.word	.LANCHOR0
 401 002c 6C000000 		.word	g_network+108
 402 0030 D0000000 		.word	.LC27
 403              		.cfi_endproc
 404              	.LFE69:
 405              		.size	updateRuntimeSum, .-updateRuntimeSum
 406              		.global	__aeabi_ui2d
 407              		.global	__aeabi_ddiv
 408              		.global	__aeabi_i2d
 409              		.section	.text.makeAndonSewingCount2,"ax",%progbits
 410              		.align	2
 411              		.global	makeAndonSewingCount2
 412              		.code	16
 413              		.thumb_func
 414              		.type	makeAndonSewingCount2, %function
 415              	makeAndonSewingCount2:
 416              	.LFB70:
 129:andonApi.c    **** 
 130:andonApi.c    **** /* 초성 CPU 의 3.3~5V High~Low 신호. (디바이스 6pin. 1번,6번) */
 131:andonApi.c    **** void makeAndonSewingCount2(uint16 elapsedTime)
 132:andonApi.c    **** {
 417              		.loc 1 132 0
 418              		.cfi_startproc
 419              		@ args = 0, pretend = 0, frame = 0
 420              		@ frame_needed = 0, uses_anonymous_args = 0
ARM GAS  C:\Users\luvsd\AppData\Local\Temp\ccrvSYII.s 			page 11


 421              	.LVL29:
 422 0000 F0B5     		push	{r4, r5, r6, r7, lr}
 423              		.cfi_def_cfa_offset 20
 424              		.cfi_offset 4, -20
 425              		.cfi_offset 5, -16
 426              		.cfi_offset 6, -12
 427              		.cfi_offset 7, -8
 428              		.cfi_offset 14, -4
 429 0002 4746     		mov	r7, r8
 430 0004 80B4     		push	{r7}
 431              		.cfi_def_cfa_offset 24
 432              		.cfi_offset 8, -24
 433 0006 88B0     		sub	sp, sp, #32
 434              		.cfi_def_cfa_offset 56
 435 0008 0600     		movs	r6, r0
 133:andonApi.c    ****     COUNT *ptrCount = getCount();     
 436              		.loc 1 133 0
 437 000a FFF7FEFF 		bl	getCount
 438              	.LVL30:
 439 000e 0400     		movs	r4, r0
 440              	.LVL31:
 134:andonApi.c    ****     uint32 pts =   GetWorkingTimeCount();
 441              		.loc 1 134 0
 442 0010 FFF7FEFF 		bl	GetWorkingTimeCount
 443              	.LVL32:
 444 0014 0700     		movs	r7, r0
 445              	.LVL33:
 135:andonApi.c    ****     ResetWorkingTimeCount(); 
 446              		.loc 1 135 0
 447 0016 FFF7FEFF 		bl	ResetWorkingTimeCount
 448              	.LVL34:
 136:andonApi.c    ****     
 137:andonApi.c    ****     // Edit coed
 138:andonApi.c    ****     enQueueANDON_printf(ANDON_SEND_SEWING_COUNT,"send_cCount_test&mac=%s&pi=%0.1f&tg=%u&sc=%0.1f&ct
 139:andonApi.c    ****         g_network.MAC,
 140:andonApi.c    ****         //g_Info.DeviceIdx,
 141:andonApi.c    ****         //g_ptrMachineParameter->sewingPairTrim,                                                   
 142:andonApi.c    ****         g_ptrMachineParameter->sewingPair / 10. ,                                                  
 449              		.loc 1 142 0
 450 001a 134B     		ldr	r3, .L30
 451 001c 1B68     		ldr	r3, [r3]
 452 001e 9D89     		ldrh	r5, [r3, #12]
 143:andonApi.c    ****         g_ptrMachineParameter->sewingTarget,                                                       
 453              		.loc 1 143 0
 454 0020 1B89     		ldrh	r3, [r3, #8]
 455 0022 9846     		mov	r8, r3
 144:andonApi.c    ****         (uint32) CONVERT_TO_4BYTE(ptrCount->sewingActualH,ptrCount->sewingActualL) / 10.,          
 456              		.loc 1 144 0
 457 0024 2088     		ldrh	r0, [r4]
 458 0026 0004     		lsls	r0, r0, #16
 459 0028 6388     		ldrh	r3, [r4, #2]
 460 002a 1843     		orrs	r0, r3
 138:andonApi.c    ****         g_network.MAC,
 461              		.loc 1 138 0
 462 002c 0797     		str	r7, [sp, #28]
 463 002e 0696     		str	r6, [sp, #24]
 464 0030 FFF7FEFF 		bl	__aeabi_ui2d
ARM GAS  C:\Users\luvsd\AppData\Local\Temp\ccrvSYII.s 			page 12


 465              	.LVL35:
 466 0034 0022     		movs	r2, #0
 467 0036 0D4B     		ldr	r3, .L30+4
 468 0038 FFF7FEFF 		bl	__aeabi_ddiv
 469              	.LVL36:
 470 003c 0490     		str	r0, [sp, #16]
 471 003e 0591     		str	r1, [sp, #20]
 472 0040 4346     		mov	r3, r8
 473 0042 0293     		str	r3, [sp, #8]
 474 0044 2800     		movs	r0, r5
 475 0046 FFF7FEFF 		bl	__aeabi_i2d
 476              	.LVL37:
 477 004a 0022     		movs	r2, #0
 478 004c 074B     		ldr	r3, .L30+4
 479 004e FFF7FEFF 		bl	__aeabi_ddiv
 480              	.LVL38:
 481 0052 0090     		str	r0, [sp]
 482 0054 0191     		str	r1, [sp, #4]
 483 0056 064A     		ldr	r2, .L30+8
 484 0058 0649     		ldr	r1, .L30+12
 485 005a 1020     		movs	r0, #16
 486 005c FFF7FEFF 		bl	enQueueANDON_printf
 487              	.LVL39:
 145:andonApi.c    ****         //ptrCount->sewingCycleTime,                                                               
 146:andonApi.c    ****         //(uint32) CONVERT_TO_4BYTE(ptrCount->sewingCycleTimeSumH, ptrCount->sewingCycleTimeSumL), 
 147:andonApi.c    ****         //ptrCount->sewingMotorRunTime,                                                            
 148:andonApi.c    ****         //(uint32) CONVERT_TO_4BYTE(ptrCount->sewingMotorRunTimeSumH, ptrCount->sewingMotorRunTimeS
 149:andonApi.c    ****         //ptrCount->sewingNoStitch,                                                                
 150:andonApi.c    ****         //(uint32) CONVERT_TO_4BYTE(ptrCount->sewingNoStitchSumH,ptrCount->sewingNoStitchSumL),    
 151:andonApi.c    ****         //g_ptrMachineParameter->sewingPairTrim,                                                   
 152:andonApi.c    ****         //(uint32) CONVERT_TO_4BYTE(ptrCount->sewingTrimCountSumH,ptrCount->sewingTrimCountSumL),  
 153:andonApi.c    ****         elapsedTime,                                                                               
 154:andonApi.c    ****         pts                                                                                        
 155:andonApi.c    ****         );  
 156:andonApi.c    ****     
 157:andonApi.c    ****     // Original code
 158:andonApi.c    ****     /*enQueueANDON_printf(ANDON_SEND_SEWING_COUNT,"send_cCount_test&mac=%s&&d_idx=%u&pi=%0.1f&tg=%u
 159:andonApi.c    ****         g_network.MAC,
 160:andonApi.c    ****         g_Info.DeviceIdx,
 161:andonApi.c    ****         //g_ptrMachineParameter->sewingPairTrim,                                                   
 162:andonApi.c    ****         g_ptrMachineParameter->sewingPair / 10. ,                                                  
 163:andonApi.c    ****         g_ptrMachineParameter->sewingTarget,                                                       
 164:andonApi.c    ****         (uint32) CONVERT_TO_4BYTE(ptrCount->sewingActualH,ptrCount->sewingActualL) / 10.,          
 165:andonApi.c    ****         ptrCount->sewingCycleTime,                                                                 
 166:andonApi.c    ****         (uint32) CONVERT_TO_4BYTE(ptrCount->sewingCycleTimeSumH, ptrCount->sewingCycleTimeSumL),   
 167:andonApi.c    ****         ptrCount->sewingMotorRunTime,                                                              
 168:andonApi.c    ****         (uint32) CONVERT_TO_4BYTE(ptrCount->sewingMotorRunTimeSumH, ptrCount->sewingMotorRunTimeSum
 169:andonApi.c    ****         ptrCount->sewingNoStitch,                                                                  
 170:andonApi.c    ****         (uint32) CONVERT_TO_4BYTE(ptrCount->sewingNoStitchSumH,ptrCount->sewingNoStitchSumL),      
 171:andonApi.c    ****         g_ptrMachineParameter->sewingPairTrim,                                                     
 172:andonApi.c    ****         (uint32) CONVERT_TO_4BYTE(ptrCount->sewingTrimCountSumH,ptrCount->sewingTrimCountSumL),    
 173:andonApi.c    ****         elapsedTime,                                                                               
 174:andonApi.c    ****         pts                                                                                        
 175:andonApi.c    ****         );*/
 176:andonApi.c    **** }
 488              		.loc 1 176 0
 489 0060 08B0     		add	sp, sp, #32
ARM GAS  C:\Users\luvsd\AppData\Local\Temp\ccrvSYII.s 			page 13


 490              		@ sp needed
 491              	.LVL40:
 492              	.LVL41:
 493 0062 04BC     		pop	{r2}
 494 0064 9046     		mov	r8, r2
 495 0066 F0BD     		pop	{r4, r5, r6, r7, pc}
 496              	.L31:
 497              		.align	2
 498              	.L30:
 499 0068 00000000 		.word	g_ptrMachineParameter
 500 006c 00002440 		.word	1076101120
 501 0070 6C000000 		.word	g_network+108
 502 0074 24010000 		.word	.LC31
 503              		.cfi_endproc
 504              	.LFE70:
 505              		.size	makeAndonSewingCount2, .-makeAndonSewingCount2
 506              		.section	.text.makeAndonPatternCount,"ax",%progbits
 507              		.align	2
 508              		.global	makeAndonPatternCount
 509              		.code	16
 510              		.thumb_func
 511              		.type	makeAndonPatternCount, %function
 512              	makeAndonPatternCount:
 513              	.LFB71:
 177:andonApi.c    **** 
 178:andonApi.c    **** /* 패턴 New CPU 보드의 Uart 신호. (디바이스 4pin. 1번,2번) */
 179:andonApi.c    **** void makeAndonPatternCount()
 180:andonApi.c    **** {
 514              		.loc 1 180 0
 515              		.cfi_startproc
 516              		@ args = 0, pretend = 0, frame = 0
 517              		@ frame_needed = 0, uses_anonymous_args = 0
 518 0000 70B5     		push	{r4, r5, r6, lr}
 519              		.cfi_def_cfa_offset 16
 520              		.cfi_offset 4, -16
 521              		.cfi_offset 5, -12
 522              		.cfi_offset 6, -8
 523              		.cfi_offset 14, -4
 524 0002 86B0     		sub	sp, sp, #24
 525              		.cfi_def_cfa_offset 40
 181:andonApi.c    ****     COUNT *ptrCount = getCount();    
 526              		.loc 1 181 0
 527 0004 FFF7FEFF 		bl	getCount
 528              	.LVL42:
 529 0008 0400     		movs	r4, r0
 530              	.LVL43:
 182:andonApi.c    ****     uint32 pts =   GetWorkingTimeCount();
 531              		.loc 1 182 0
 532 000a FFF7FEFF 		bl	GetWorkingTimeCount
 533              	.LVL44:
 183:andonApi.c    ****     ResetWorkingTimeCount();
 534              		.loc 1 183 0
 535 000e FFF7FEFF 		bl	ResetWorkingTimeCount
 536              	.LVL45:
 184:andonApi.c    **** 
 185:andonApi.c    ****     //enQueueANDON_printf(ANDON_SEND_PATTERN_COUNT,"send_pCount&mac=%s&d_idx=%u&pc=%u&pi=%0.1f&tg=%
 186:andonApi.c    ****     //enQueueANDON_printf(ANDON_SEND_PATTERN_COUNT,"send_pCount&mac=%s&pc=%u&pi=%0.1f&tg=%u&sc=%0.1
ARM GAS  C:\Users\luvsd\AppData\Local\Temp\ccrvSYII.s 			page 14


 187:andonApi.c    ****     enQueueANDON_printf(ANDON_SEND_PATTERN_COUNT,"send_pCount&mac=%s&pc=%u&pi=%0.1f&sc=%0.1f&design
 188:andonApi.c    ****         g_network.MAC,
 189:andonApi.c    ****         //g_Info.DeviceIdx,
 190:andonApi.c    ****         g_ptrMachineParameter->patternPairCount,                                                   
 537              		.loc 1 190 0
 538 0012 124B     		ldr	r3, .L33
 539 0014 1B68     		ldr	r3, [r3]
 540 0016 9D88     		ldrh	r5, [r3, #4]
 191:andonApi.c    ****         g_ptrMachineParameter->patternPair / 10.,                                                  
 541              		.loc 1 191 0
 542 0018 DE88     		ldrh	r6, [r3, #6]
 192:andonApi.c    ****         //g_ptrMachineParameter->patternTarget,                                                    
 193:andonApi.c    ****         (uint32) CONVERT_TO_4BYTE(ptrCount->patternActualH,ptrCount->patternActualL) / 10.,        
 543              		.loc 1 193 0
 544 001a A08B     		ldrh	r0, [r4, #28]
 545 001c 0004     		lsls	r0, r0, #16
 546 001e E38B     		ldrh	r3, [r4, #30]
 547 0020 1843     		orrs	r0, r3
 194:andonApi.c    ****         ptrCount->patternNo,
 548              		.loc 1 194 0
 549 0022 638C     		ldrh	r3, [r4, #34]
 195:andonApi.c    ****         //ptrCount->patternEmergencyTime,                                                          
 196:andonApi.c    ****         //(uint32) CONVERT_TO_4BYTE(ptrCount->patternEmergencyTimeSumH,ptrCount->patternEmergencyTi
 197:andonApi.c    ****         ptrCount->patternCycleTime                                                                 
 550              		.loc 1 197 0
 551 0024 628D     		ldrh	r2, [r4, #42]
 187:andonApi.c    ****         g_network.MAC,
 552              		.loc 1 187 0
 553 0026 0592     		str	r2, [sp, #20]
 554 0028 0493     		str	r3, [sp, #16]
 555 002a FFF7FEFF 		bl	__aeabi_ui2d
 556              	.LVL46:
 557 002e 0022     		movs	r2, #0
 558 0030 0B4B     		ldr	r3, .L33+4
 559 0032 FFF7FEFF 		bl	__aeabi_ddiv
 560              	.LVL47:
 561 0036 0290     		str	r0, [sp, #8]
 562 0038 0391     		str	r1, [sp, #12]
 563 003a 3000     		movs	r0, r6
 564 003c FFF7FEFF 		bl	__aeabi_i2d
 565              	.LVL48:
 566 0040 0022     		movs	r2, #0
 567 0042 074B     		ldr	r3, .L33+4
 568 0044 FFF7FEFF 		bl	__aeabi_ddiv
 569              	.LVL49:
 570 0048 0090     		str	r0, [sp]
 571 004a 0191     		str	r1, [sp, #4]
 572 004c 2B00     		movs	r3, r5
 573 004e 054A     		ldr	r2, .L33+8
 574 0050 0549     		ldr	r1, .L33+12
 575 0052 1120     		movs	r0, #17
 576 0054 FFF7FEFF 		bl	enQueueANDON_printf
 577              	.LVL50:
 198:andonApi.c    ****         //(uint32) CONVERT_TO_4BYTE(ptrCount->patternCycleTimeSumH,ptrCount->patternCycleTimeSumL),
 199:andonApi.c    ****         //ptrCount->patternMotorRunTime,                                                           
 200:andonApi.c    ****         //(uint32) CONVERT_TO_4BYTE(ptrCount->patternMotorRunTimeSumH, ptrCount->patternMotorRunTim
 201:andonApi.c    ****         //ptrCount->patternNoStitch,                                                               
ARM GAS  C:\Users\luvsd\AppData\Local\Temp\ccrvSYII.s 			page 15


 202:andonApi.c    ****         //(uint32) CONVERT_TO_4BYTE(ptrCount->patternNoStitchSumH, ptrCount->patternNoStitchSumL), 
 203:andonApi.c    ****         //ptrCount->patternStitchLength,                                                           
 204:andonApi.c    ****         //(uint32) CONVERT_TO_4BYTE(ptrCount->patternStitchLengthSumH,ptrCount->patternStitchLength
 205:andonApi.c    ****         //ptrCount->patternTrimCount,                                                              
 206:andonApi.c    ****         //(uint32) CONVERT_TO_4BYTE(ptrCount->patternTrimCountSumH,ptrCount->patternTrimCountSumL),
 207:andonApi.c    ****         //ptrCount->patternSPM,                                                                    
 208:andonApi.c    ****         //pts                                                                                      
 209:andonApi.c    ****         );
 210:andonApi.c    **** }
 578              		.loc 1 210 0
 579 0058 06B0     		add	sp, sp, #24
 580              		@ sp needed
 581              	.LVL51:
 582 005a 70BD     		pop	{r4, r5, r6, pc}
 583              	.L34:
 584              		.align	2
 585              	.L33:
 586 005c 00000000 		.word	g_ptrMachineParameter
 587 0060 00002440 		.word	1076101120
 588 0064 6C000000 		.word	g_network+108
 589 0068 64010000 		.word	.LC35
 590              		.cfi_endproc
 591              	.LFE71:
 592              		.size	makeAndonPatternCount, .-makeAndonPatternCount
 593              		.section	.text.makeAndonDevice,"ax",%progbits
 594              		.align	2
 595              		.global	makeAndonDevice
 596              		.code	16
 597              		.thumb_func
 598              		.type	makeAndonDevice, %function
 599              	makeAndonDevice:
 600              	.LFB72:
 211:andonApi.c    **** 
 212:andonApi.c    **** /* 현 버전에서 사용하지 않는 함수들 Start. */
 213:andonApi.c    **** void makeAndonDevice()
 214:andonApi.c    **** {
 601              		.loc 1 214 0
 602              		.cfi_startproc
 603              		@ args = 0, pretend = 0, frame = 0
 604              		@ frame_needed = 0, uses_anonymous_args = 0
 605 0000 00B5     		push	{lr}
 606              		.cfi_def_cfa_offset 4
 607              		.cfi_offset 14, -4
 608 0002 83B0     		sub	sp, sp, #12
 609              		.cfi_def_cfa_offset 16
 215:andonApi.c    ****     enQueueANDON_printf(ANDON_GET_DEVICE_NAME,"send_device&mac=%s&name=%s&ip=%s&ver=%s",g_network.M
 610              		.loc 1 215 0
 611 0004 074B     		ldr	r3, .L36
 612 0006 1B68     		ldr	r3, [r3]
 613 0008 7033     		adds	r3, r3, #112
 614 000a 074A     		ldr	r2, .L36+4
 615 000c 0749     		ldr	r1, .L36+8
 616 000e 0191     		str	r1, [sp, #4]
 617 0010 1100     		movs	r1, r2
 618 0012 4039     		subs	r1, r1, #64
 619 0014 0091     		str	r1, [sp]
 620 0016 0649     		ldr	r1, .L36+12
ARM GAS  C:\Users\luvsd\AppData\Local\Temp\ccrvSYII.s 			page 16


 621 0018 0320     		movs	r0, #3
 622 001a FFF7FEFF 		bl	enQueueANDON_printf
 623              	.LVL52:
 216:andonApi.c    **** }
 624              		.loc 1 216 0
 625 001e 03B0     		add	sp, sp, #12
 626              		@ sp needed
 627 0020 00BD     		pop	{pc}
 628              	.L37:
 629 0022 C046     		.align	2
 630              	.L36:
 631 0024 00000000 		.word	g_ptrServer
 632 0028 6C000000 		.word	g_network+108
 633 002c 38000000 		.word	.LC7
 634 0030 A4010000 		.word	.LC39
 635              		.cfi_endproc
 636              	.LFE72:
 637              		.size	makeAndonDevice, .-makeAndonDevice
 638              		.section	.text.makeRequestTarget,"ax",%progbits
 639              		.align	2
 640              		.global	makeRequestTarget
 641              		.code	16
 642              		.thumb_func
 643              		.type	makeRequestTarget, %function
 644              	makeRequestTarget:
 645              	.LFB73:
 217:andonApi.c    **** 
 218:andonApi.c    **** void makeRequestTarget()
 219:andonApi.c    **** {
 646              		.loc 1 219 0
 647              		.cfi_startproc
 648              		@ args = 0, pretend = 0, frame = 0
 649              		@ frame_needed = 0, uses_anonymous_args = 0
 650 0000 10B5     		push	{r4, lr}
 651              		.cfi_def_cfa_offset 8
 652              		.cfi_offset 4, -8
 653              		.cfi_offset 14, -4
 220:andonApi.c    ****     enQueueANDON_printf(ANDON_REQUEST_TARGET,"get_target&device_idx=%d",g_Info.DeviceIdx);    
 654              		.loc 1 220 0
 655 0002 034B     		ldr	r3, .L39
 656 0004 DA8D     		ldrh	r2, [r3, #46]
 657 0006 0349     		ldr	r1, .L39+4
 658 0008 0720     		movs	r0, #7
 659 000a FFF7FEFF 		bl	enQueueANDON_printf
 660              	.LVL53:
 221:andonApi.c    **** }
 661              		.loc 1 221 0
 662              		@ sp needed
 663 000e 10BD     		pop	{r4, pc}
 664              	.L40:
 665              		.align	2
 666              	.L39:
 667 0010 00000000 		.word	.LANCHOR0
 668 0014 CC010000 		.word	.LC44
 669              		.cfi_endproc
 670              	.LFE73:
 671              		.size	makeRequestTarget, .-makeRequestTarget
ARM GAS  C:\Users\luvsd\AppData\Local\Temp\ccrvSYII.s 			page 17


 672              		.section	.text.makeAndonTextList,"ax",%progbits
 673              		.align	2
 674              		.global	makeAndonTextList
 675              		.code	16
 676              		.thumb_func
 677              		.type	makeAndonTextList, %function
 678              	makeAndonTextList:
 679              	.LFB74:
 222:andonApi.c    **** 
 223:andonApi.c    **** void makeAndonTextList()
 224:andonApi.c    **** {
 680              		.loc 1 224 0
 681              		.cfi_startproc
 682              		@ args = 0, pretend = 0, frame = 0
 683              		@ frame_needed = 0, uses_anonymous_args = 0
 684 0000 10B5     		push	{r4, lr}
 685              		.cfi_def_cfa_offset 8
 686              		.cfi_offset 4, -8
 687              		.cfi_offset 14, -4
 225:andonApi.c    ****     enQueueANDON_printf(ANDON_REQUEST_TEXT_LIST,"get_textList&device_idx=%d",g_ptrServer->deviceInd
 688              		.loc 1 225 0
 689 0002 044B     		ldr	r3, .L42
 690 0004 1A68     		ldr	r2, [r3]
 691 0006 8423     		movs	r3, #132
 692 0008 D25A     		ldrh	r2, [r2, r3]
 693 000a 0349     		ldr	r1, .L42+4
 694 000c 0620     		movs	r0, #6
 695 000e FFF7FEFF 		bl	enQueueANDON_printf
 696              	.LVL54:
 226:andonApi.c    **** }
 697              		.loc 1 226 0
 698              		@ sp needed
 699 0012 10BD     		pop	{r4, pc}
 700              	.L43:
 701              		.align	2
 702              	.L42:
 703 0014 00000000 		.word	g_ptrServer
 704 0018 E8010000 		.word	.LC47
 705              		.cfi_endproc
 706              	.LFE74:
 707              		.size	makeAndonTextList, .-makeAndonTextList
 708              		.section	.text.makeAndonSewingCount,"ax",%progbits
 709              		.align	2
 710              		.global	makeAndonSewingCount
 711              		.code	16
 712              		.thumb_func
 713              		.type	makeAndonSewingCount, %function
 714              	makeAndonSewingCount:
 715              	.LFB75:
 227:andonApi.c    **** 
 228:andonApi.c    **** /* trim 신호. (디바이스 6pin. 1번,6번) */
 229:andonApi.c    **** // makeAndonSewingCount2 로 대체함.
 230:andonApi.c    **** void makeAndonSewingCount()
 231:andonApi.c    **** {
 716              		.loc 1 231 0
 717              		.cfi_startproc
 718              		@ args = 0, pretend = 0, frame = 0
ARM GAS  C:\Users\luvsd\AppData\Local\Temp\ccrvSYII.s 			page 18


 719              		@ frame_needed = 0, uses_anonymous_args = 0
 720 0000 10B5     		push	{r4, lr}
 721              		.cfi_def_cfa_offset 8
 722              		.cfi_offset 4, -8
 723              		.cfi_offset 14, -4
 232:andonApi.c    ****     COUNT *ptrCount = getCount();  
 724              		.loc 1 232 0
 725 0002 FFF7FEFF 		bl	getCount
 726              	.LVL55:
 233:andonApi.c    ****     
 234:andonApi.c    ****     /*enQueueANDON_printf(ANDON_SEND_SEWING_COUNT,"send_cCount&d_idx=%u&pi=%0.1f&tg=%u&sc=%0.1f&ct=
 235:andonApi.c    ****         g_Info.DeviceIdx,
 236:andonApi.c    ****         //g_ptrMachineParameter->sewingPairTrim,                                                   
 237:andonApi.c    ****         g_ptrMachineParameter->sewingPair / 10. ,                                                  
 238:andonApi.c    ****         g_ptrMachineParameter->sewingTarget,                                                       
 239:andonApi.c    ****         (uint32) CONVERT_TO_4BYTE(ptrCount->sewingActualH,ptrCount->sewingActualL) / 10.,          
 240:andonApi.c    ****         ptrCount->sewingCycleTime,                                                                 
 241:andonApi.c    ****         (uint32) CONVERT_TO_4BYTE(ptrCount->sewingCycleTimeSumH, ptrCount->sewingCycleTimeSumL),   
 242:andonApi.c    ****         ptrCount->sewingMotorRunTime,                                                              
 243:andonApi.c    ****         (uint32) CONVERT_TO_4BYTE(ptrCount->sewingMotorRunTimeSumH, ptrCount->sewingMotorRunTimeSum
 244:andonApi.c    ****         ptrCount->sewingNoStitch,                                                                  
 245:andonApi.c    ****         (uint32) CONVERT_TO_4BYTE(ptrCount->sewingNoStitchSumH,ptrCount->sewingNoStitchSumL),      
 246:andonApi.c    ****         g_ptrMachineParameter->sewingPairTrim,                                                     
 247:andonApi.c    ****         (uint32) CONVERT_TO_4BYTE(ptrCount->sewingTrimCountSumH,ptrCount->sewingTrimCountSumL)     
 248:andonApi.c    ****         );*/
 249:andonApi.c    ****     printf("6 pin High Level Start...\r\n");
 727              		.loc 1 249 0
 728 0006 0248     		ldr	r0, .L45
 729 0008 FFF7FEFF 		bl	puts
 730              	.LVL56:
 250:andonApi.c    **** }
 731              		.loc 1 250 0
 732              		@ sp needed
 733 000c 10BD     		pop	{r4, pc}
 734              	.L46:
 735 000e C046     		.align	2
 736              	.L45:
 737 0010 04020000 		.word	.LC49
 738              		.cfi_endproc
 739              	.LFE75:
 740              		.size	makeAndonSewingCount, .-makeAndonSewingCount
 741              		.section	.text.initAndon,"ax",%progbits
 742              		.align	2
 743              		.global	initAndon
 744              		.code	16
 745              		.thumb_func
 746              		.type	initAndon, %function
 747              	initAndon:
 748              	.LFB76:
 251:andonApi.c    **** /* 현 버전에서 사용하지 않는 함수들 End */
 252:andonApi.c    **** 
 253:andonApi.c    **** void initAndon()
 254:andonApi.c    **** {
 749              		.loc 1 254 0
 750              		.cfi_startproc
 751              		@ args = 0, pretend = 0, frame = 0
 752              		@ frame_needed = 0, uses_anonymous_args = 0
ARM GAS  C:\Users\luvsd\AppData\Local\Temp\ccrvSYII.s 			page 19


 753 0000 10B5     		push	{r4, lr}
 754              		.cfi_def_cfa_offset 8
 755              		.cfi_offset 4, -8
 756              		.cfi_offset 14, -4
 255:andonApi.c    ****     g_index_request_interval = registerCounter_1ms(5000);
 757              		.loc 1 255 0
 758 0002 0848     		ldr	r0, .L48
 759 0004 FFF7FEFF 		bl	registerCounter_1ms
 760              	.LVL57:
 761 0008 074B     		ldr	r3, .L48+4
 762 000a D870     		strb	r0, [r3, #3]
 256:andonApi.c    ****     makeAndonCurrentTimeRequest();
 763              		.loc 1 256 0
 764 000c FFF7FEFF 		bl	makeAndonCurrentTimeRequest
 765              	.LVL58:
 257:andonApi.c    ****     makeAndonStart();
 766              		.loc 1 257 0
 767 0010 FFF7FEFF 		bl	makeAndonStart
 768              	.LVL59:
 258:andonApi.c    ****     makeAndonList();
 769              		.loc 1 258 0
 770 0014 FFF7FEFF 		bl	makeAndonList
 771              	.LVL60:
 259:andonApi.c    ****     makeDownTimeList();
 772              		.loc 1 259 0
 773 0018 FFF7FEFF 		bl	makeDownTimeList
 774              	.LVL61:
 260:andonApi.c    ****     makeDefectiveList();
 775              		.loc 1 260 0
 776 001c FFF7FEFF 		bl	makeDefectiveList
 777              	.LVL62:
 261:andonApi.c    ****     //makeAndonTextList();
 262:andonApi.c    **** }
 778              		.loc 1 262 0
 779              		@ sp needed
 780 0020 10BD     		pop	{r4, pc}
 781              	.L49:
 782 0022 C046     		.align	2
 783              	.L48:
 784 0024 88130000 		.word	5000
 785 0028 00000000 		.word	.LANCHOR0
 786              		.cfi_endproc
 787              	.LFE76:
 788              		.size	initAndon, .-initAndon
 789              		.global	g_Info
 790              		.global	g_bReceivedAndonStart
 791              		.global	g_index_request_interval
 792              		.global	g_bTargetReceived
 793              		.global	g_uReplyResult
 794              		.global	g_bDeviceInfoUpdate
 795              		.comm	g_AndonLists,194,4
 796              		.comm	Param,6,4
 797              		.section	.rodata.str1.4,"aMS",%progbits,1
 798              		.align	2
 799              	.LC1:
 800 0000 6765745F 		.ascii	"get_dateTime\000"
 800      64617465 
ARM GAS  C:\Users\luvsd\AppData\Local\Temp\ccrvSYII.s 			page 20


 800      54696D65 
 800      00
 801 000d 000000   		.space	3
 802              	.LC5:
 803 0010 73746172 		.ascii	"start&mac=%s&machine_no=%s&ip=%s&ver=%s\000"
 803      74266D61 
 803      633D2573 
 803      266D6163 
 803      68696E65 
 804              	.LC7:
 805 0038 496E7465 		.ascii	"Integrated V1\000"
 805      67726174 
 805      65642056 
 805      3100
 806 0046 0000     		.space	2
 807              	.LC11:
 808 0048 6765745F 		.ascii	"get_andonList&mac=%s\000"
 808      616E646F 
 808      6E4C6973 
 808      74266D61 
 808      633D2573 
 809 005d 000000   		.space	3
 810              	.LC13:
 811 0060 2F617069 		.ascii	"/api/sewing.php\000"
 811      2F736577 
 811      696E672E 
 811      70687000 
 812              	.LC15:
 813 0070 25733F63 		.ascii	"%s?code=%s\000"
 813      6F64653D 
 813      257300
 814 007b 00       		.space	1
 815              	.LC20:
 816 007c 73656E64 		.ascii	"send_andon_warning&mac=%s&andon_idx=%d\000"
 816      5F616E64 
 816      6F6E5F77 
 816      61726E69 
 816      6E67266D 
 817 00a3 00       		.space	1
 818              	.LC23:
 819 00a4 73656E64 		.ascii	"send_andon_completed&mac=%s&andon_idx=%d\000"
 819      5F616E64 
 819      6F6E5F63 
 819      6F6D706C 
 819      65746564 
 820 00cd 000000   		.space	3
 821              	.LC27:
 822 00d0 73656E64 		.ascii	"send_rCount_test&mac=%s&d_idx=%u&target=%lu&motor_r"
 822      5F72436F 
 822      756E745F 
 822      74657374 
 822      266D6163 
 823 0103 756E7469 		.ascii	"untime_sum=%lu&elaspedTime=%lu\000"
 823      6D655F73 
 823      756D3D25 
 823      6C752665 
 823      6C617370 
ARM GAS  C:\Users\luvsd\AppData\Local\Temp\ccrvSYII.s 			page 21


 824 0122 0000     		.space	2
 825              	.LC31:
 826 0124 73656E64 		.ascii	"send_cCount_test&mac=%s&pi=%0.1f&tg=%u&sc=%0.1f&cts"
 826      5F63436F 
 826      756E745F 
 826      74657374 
 826      266D6163 
 827 0157 323D2575 		.ascii	"2=%u&pts=%lu\000"
 827      26707473 
 827      3D256C75 
 827      00
 828              	.LC35:
 829 0164 73656E64 		.ascii	"send_pCount&mac=%s&pc=%u&pi=%0.1f&sc=%0.1f&design_n"
 829      5F70436F 
 829      756E7426 
 829      6D61633D 
 829      25732670 
 830 0197 6F3D2575 		.ascii	"o=%u&ct=%u\015\012\000"
 830      2663743D 
 830      25750D0A 
 830      00
 831              	.LC39:
 832 01a4 73656E64 		.ascii	"send_device&mac=%s&name=%s&ip=%s&ver=%s\000"
 832      5F646576 
 832      69636526 
 832      6D61633D 
 832      2573266E 
 833              	.LC44:
 834 01cc 6765745F 		.ascii	"get_target&device_idx=%d\000"
 834      74617267 
 834      65742664 
 834      65766963 
 834      655F6964 
 835 01e5 000000   		.space	3
 836              	.LC47:
 837 01e8 6765745F 		.ascii	"get_textList&device_idx=%d\000"
 837      74657874 
 837      4C697374 
 837      26646576 
 837      6963655F 
 838 0203 00       		.space	1
 839              	.LC49:
 840 0204 36207069 		.ascii	"6 pin High Level Start...\015\000"
 840      6E204869 
 840      6768204C 
 840      6576656C 
 840      20537461 
 841              		.bss
 842              		.align	2
 843              		.set	.LANCHOR0,. + 0
 844              		.type	g_uAndonRequestType, %object
 845              		.size	g_uAndonRequestType, 2
 846              	g_uAndonRequestType:
 847 0000 0000     		.space	2
 848              		.type	g_bReceivedAndonStart, %object
 849              		.size	g_bReceivedAndonStart, 1
 850              	g_bReceivedAndonStart:
ARM GAS  C:\Users\luvsd\AppData\Local\Temp\ccrvSYII.s 			page 22


 851 0002 00       		.space	1
 852              		.type	g_index_request_interval, %object
 853              		.size	g_index_request_interval, 1
 854              	g_index_request_interval:
 855 0003 00       		.space	1
 856              		.type	g_Info, %object
 857              		.size	g_Info, 392
 858              	g_Info:
 859 0004 00000000 		.space	392
 859      00000000 
 859      00000000 
 859      00000000 
 859      00000000 
 860              		.type	g_bTargetReceived, %object
 861              		.size	g_bTargetReceived, 1
 862              	g_bTargetReceived:
 863 018c 00       		.space	1
 864              		.type	g_uReplyResult, %object
 865              		.size	g_uReplyResult, 1
 866              	g_uReplyResult:
 867 018d 00       		.space	1
 868              		.type	g_bDeviceInfoUpdate, %object
 869              		.size	g_bDeviceInfoUpdate, 1
 870              	g_bDeviceInfoUpdate:
 871 018e 00       		.space	1
 872              		.text
 873              	.Letext0:
 874              		.file 2 "c:\\program files (x86)\\cypress\\psoc creator\\4.4\\psoc creator\\import\\gnu\\arm\\5.4.
 875              		.file 3 "c:\\program files (x86)\\cypress\\psoc creator\\4.4\\psoc creator\\import\\gnu\\arm\\5.4.
 876              		.file 4 "Generated_Source\\PSoC4/cytypes.h"
 877              		.file 5 "main.h"
 878              		.file 6 "andonApi.h"
 879              		.file 7 "andonMessageQueue.h"
 880              		.file 8 "lib/WIFI.h"
 881              		.file 9 "lib/server.h"
 882              		.file 10 "userProjectPatternSewing.h"
 883              		.file 11 "count.h"
 884              		.file 12 "Generated_Source\\PSoC4/RTC.h"
 885              		.file 13 "andonJson.h"
 886              		.file 14 "c:\\program files (x86)\\cypress\\psoc creator\\4.4\\psoc creator\\import\\gnu\\arm\\5.4
 887              		.file 15 "lib/sysTick.h"
 888              		.file 16 "WarningLight.h"
 889              		.file 17 "downtime.h"
 890              		.file 18 "defective.h"
 891              		.file 19 "<built-in>"