ARM GAS  C:\Users\luvsd\AppData\Local\Temp\ccB8JUeb.s 			page 1


   1              		.syntax unified
   2              		.cpu cortex-m0
   3              		.fpu softvfp
   4              		.eabi_attribute 20, 1
   5              		.eabi_attribute 21, 1
   6              		.eabi_attribute 23, 3
   7              		.eabi_attribute 24, 1
   8              		.eabi_attribute 25, 1
   9              		.eabi_attribute 26, 1
  10              		.eabi_attribute 30, 1
  11              		.eabi_attribute 34, 0
  12              		.eabi_attribute 18, 4
  13              		.thumb
  14              		.syntax unified
  15              		.file	"LEDControl.c"
  16              		.text
  17              	.Ltext0:
  18              		.cfi_sections	.debug_frame
  19              		.section	.text.LED_Brightness,"ax",%progbits
  20              		.align	2
  21              		.global	LED_Brightness
  22              		.code	16
  23              		.thumb_func
  24              		.type	LED_Brightness, %function
  25              	LED_Brightness:
  26              	.LFB63:
  27              		.file 1 "lib\\LEDControl.c"
   1:lib/LEDControl.c **** /* ========================================
   2:lib/LEDControl.c ****  *
   3:lib/LEDControl.c ****  * Copyright Suntech, 2023.02.01
   4:lib/LEDControl.c ****  * All Rights Reserved
   5:lib/LEDControl.c ****  * UNPUBLISHED, LICENSED SOFTWARE.
   6:lib/LEDControl.c ****  *
   7:lib/LEDControl.c ****  * CONFIDENTIAL AND PROPRIETARY INFORMATION
   8:lib/LEDControl.c ****  * WHICH IS THE PROPERTY OF Suntech.
   9:lib/LEDControl.c ****  *
  10:lib/LEDControl.c ****  * ========================================
  11:lib/LEDControl.c **** */
  12:lib/LEDControl.c **** #include "LEDControl.h"
  13:lib/LEDControl.c **** //#include "externalFlash.h"
  14:lib/LEDControl.c **** uint16 g_uLED1_Color = LED_OFF;
  15:lib/LEDControl.c **** uint16 g_uLED2_Color = LED_OFF;
  16:lib/LEDControl.c **** uint8  g_bLED1_Flickering = FALSE;   
  17:lib/LEDControl.c **** uint8  g_bLED2_Flickering = FALSE;  
  18:lib/LEDControl.c **** 
  19:lib/LEDControl.c **** void initLEDControl()
  20:lib/LEDControl.c **** {
  21:lib/LEDControl.c ****     TCPWM_LED_Start();    
  22:lib/LEDControl.c ****     Control_Reg_LED_1_Write(g_uLED1_Color);
  23:lib/LEDControl.c ****     Control_Reg_LED_2_Write(g_uLED2_Color);  
  24:lib/LEDControl.c ****     
  25:lib/LEDControl.c ****     LED_Brightness(50);
  26:lib/LEDControl.c **** }
  27:lib/LEDControl.c **** 
  28:lib/LEDControl.c **** void LED_Brightness(uint16 brightness)
  29:lib/LEDControl.c **** {
  28              		.loc 1 29 0
ARM GAS  C:\Users\luvsd\AppData\Local\Temp\ccB8JUeb.s 			page 2


  29              		.cfi_startproc
  30              		@ args = 0, pretend = 0, frame = 0
  31              		@ frame_needed = 0, uses_anonymous_args = 0
  32              	.LVL0:
  33 0000 10B5     		push	{r4, lr}
  34              		.cfi_def_cfa_offset 8
  35              		.cfi_offset 4, -8
  36              		.cfi_offset 14, -4
  30:lib/LEDControl.c ****     TCPWM_LED_WriteCompare(brightness);
  37              		.loc 1 30 0
  38 0002 FFF7FEFF 		bl	TCPWM_LED_WriteCompare
  39              	.LVL1:
  31:lib/LEDControl.c **** }
  40              		.loc 1 31 0
  41              		@ sp needed
  42 0006 10BD     		pop	{r4, pc}
  43              		.cfi_endproc
  44              	.LFE63:
  45              		.size	LED_Brightness, .-LED_Brightness
  46              		.section	.text.initLEDControl,"ax",%progbits
  47              		.align	2
  48              		.global	initLEDControl
  49              		.code	16
  50              		.thumb_func
  51              		.type	initLEDControl, %function
  52              	initLEDControl:
  53              	.LFB62:
  20:lib/LEDControl.c ****     TCPWM_LED_Start();    
  54              		.loc 1 20 0
  55              		.cfi_startproc
  56              		@ args = 0, pretend = 0, frame = 0
  57              		@ frame_needed = 0, uses_anonymous_args = 0
  58 0000 10B5     		push	{r4, lr}
  59              		.cfi_def_cfa_offset 8
  60              		.cfi_offset 4, -8
  61              		.cfi_offset 14, -4
  21:lib/LEDControl.c ****     Control_Reg_LED_1_Write(g_uLED1_Color);
  62              		.loc 1 21 0
  63 0002 FFF7FEFF 		bl	TCPWM_LED_Start
  64              	.LVL2:
  22:lib/LEDControl.c ****     Control_Reg_LED_2_Write(g_uLED2_Color);  
  65              		.loc 1 22 0
  66 0006 054C     		ldr	r4, .L3
  67 0008 2078     		ldrb	r0, [r4]
  68 000a FFF7FEFF 		bl	Control_Reg_LED_1_Write
  69              	.LVL3:
  23:lib/LEDControl.c ****     
  70              		.loc 1 23 0
  71 000e A078     		ldrb	r0, [r4, #2]
  72 0010 FFF7FEFF 		bl	Control_Reg_LED_2_Write
  73              	.LVL4:
  25:lib/LEDControl.c **** }
  74              		.loc 1 25 0
  75 0014 3220     		movs	r0, #50
  76 0016 FFF7FEFF 		bl	LED_Brightness
  77              	.LVL5:
  26:lib/LEDControl.c **** 
ARM GAS  C:\Users\luvsd\AppData\Local\Temp\ccB8JUeb.s 			page 3


  78              		.loc 1 26 0
  79              		@ sp needed
  80 001a 10BD     		pop	{r4, pc}
  81              	.L4:
  82              		.align	2
  83              	.L3:
  84 001c 00000000 		.word	.LANCHOR0
  85              		.cfi_endproc
  86              	.LFE62:
  87              		.size	initLEDControl, .-initLEDControl
  88              		.section	.text.LED_OneSecondControl,"ax",%progbits
  89              		.align	2
  90              		.global	LED_OneSecondControl
  91              		.code	16
  92              		.thumb_func
  93              		.type	LED_OneSecondControl, %function
  94              	LED_OneSecondControl:
  95              	.LFB64:
  32:lib/LEDControl.c **** 
  33:lib/LEDControl.c **** void LED_OneSecondControl()
  34:lib/LEDControl.c **** {
  96              		.loc 1 34 0
  97              		.cfi_startproc
  98              		@ args = 0, pretend = 0, frame = 0
  99              		@ frame_needed = 0, uses_anonymous_args = 0
 100 0000 10B5     		push	{r4, lr}
 101              		.cfi_def_cfa_offset 8
 102              		.cfi_offset 4, -8
 103              		.cfi_offset 14, -4
  35:lib/LEDControl.c ****     static uint8 count =0;
  36:lib/LEDControl.c ****     static uint8 Flickering = FALSE;
  37:lib/LEDControl.c ****     
  38:lib/LEDControl.c ****     Flickering = Flickering ? FALSE : TRUE;
 104              		.loc 1 38 0
 105 0002 174A     		ldr	r2, .L12
 106 0004 1379     		ldrb	r3, [r2, #4]
 107 0006 5942     		rsbs	r1, r3, #0
 108 0008 4B41     		adcs	r3, r3, r1
 109 000a DBB2     		uxtb	r3, r3
 110 000c 1371     		strb	r3, [r2, #4]
  39:lib/LEDControl.c ****     
  40:lib/LEDControl.c ****     if(g_bLED1_Flickering)
 111              		.loc 1 40 0
 112 000e 5279     		ldrb	r2, [r2, #5]
 113 0010 002A     		cmp	r2, #0
 114 0012 0AD0     		beq	.L6
  41:lib/LEDControl.c ****     {
  42:lib/LEDControl.c ****         if(Flickering) Control_Reg_LED_1_Write(g_uLED1_Color);
 115              		.loc 1 42 0
 116 0014 002B     		cmp	r3, #0
 117 0016 04D0     		beq	.L7
 118              		.loc 1 42 0 is_stmt 0 discriminator 1
 119 0018 114B     		ldr	r3, .L12
 120 001a 1878     		ldrb	r0, [r3]
 121 001c FFF7FEFF 		bl	Control_Reg_LED_1_Write
 122              	.LVL6:
 123 0020 07E0     		b	.L8
ARM GAS  C:\Users\luvsd\AppData\Local\Temp\ccB8JUeb.s 			page 4


 124              	.L7:
  43:lib/LEDControl.c ****         else           Control_Reg_LED_1_Write(LED_OFF);
 125              		.loc 1 43 0 is_stmt 1
 126 0022 0020     		movs	r0, #0
 127 0024 FFF7FEFF 		bl	Control_Reg_LED_1_Write
 128              	.LVL7:
 129 0028 03E0     		b	.L8
 130              	.L6:
  44:lib/LEDControl.c ****     } else {
  45:lib/LEDControl.c ****         Control_Reg_LED_1_Write(g_uLED1_Color);
 131              		.loc 1 45 0
 132 002a 0D4B     		ldr	r3, .L12
 133 002c 1878     		ldrb	r0, [r3]
 134 002e FFF7FEFF 		bl	Control_Reg_LED_1_Write
 135              	.LVL8:
 136              	.L8:
  46:lib/LEDControl.c ****     }
  47:lib/LEDControl.c ****     
  48:lib/LEDControl.c **** 
  49:lib/LEDControl.c ****     if(g_bLED2_Flickering)
 137              		.loc 1 49 0
 138 0032 0B4B     		ldr	r3, .L12
 139 0034 9B79     		ldrb	r3, [r3, #6]
 140 0036 002B     		cmp	r3, #0
 141 0038 0CD0     		beq	.L9
  50:lib/LEDControl.c ****     {
  51:lib/LEDControl.c ****         if(Flickering) Control_Reg_LED_2_Write(g_uLED2_Color);
 142              		.loc 1 51 0
 143 003a 094B     		ldr	r3, .L12
 144 003c 1B79     		ldrb	r3, [r3, #4]
 145 003e 002B     		cmp	r3, #0
 146 0040 04D0     		beq	.L10
 147              		.loc 1 51 0 is_stmt 0 discriminator 1
 148 0042 074B     		ldr	r3, .L12
 149 0044 9878     		ldrb	r0, [r3, #2]
 150 0046 FFF7FEFF 		bl	Control_Reg_LED_2_Write
 151              	.LVL9:
 152 004a 07E0     		b	.L5
 153              	.L10:
  52:lib/LEDControl.c ****         else           Control_Reg_LED_2_Write(LED_OFF);
 154              		.loc 1 52 0 is_stmt 1
 155 004c 0020     		movs	r0, #0
 156 004e FFF7FEFF 		bl	Control_Reg_LED_2_Write
 157              	.LVL10:
 158 0052 03E0     		b	.L5
 159              	.L9:
  53:lib/LEDControl.c ****     } else {
  54:lib/LEDControl.c ****         Control_Reg_LED_2_Write(g_uLED2_Color);
 160              		.loc 1 54 0
 161 0054 024B     		ldr	r3, .L12
 162 0056 9878     		ldrb	r0, [r3, #2]
 163 0058 FFF7FEFF 		bl	Control_Reg_LED_2_Write
 164              	.LVL11:
 165              	.L5:
  55:lib/LEDControl.c ****     }
  56:lib/LEDControl.c ****     
  57:lib/LEDControl.c **** }
ARM GAS  C:\Users\luvsd\AppData\Local\Temp\ccB8JUeb.s 			page 5


 166              		.loc 1 57 0
 167              		@ sp needed
 168 005c 10BD     		pop	{r4, pc}
 169              	.L13:
 170 005e C046     		.align	2
 171              	.L12:
 172 0060 00000000 		.word	.LANCHOR0
 173              		.cfi_endproc
 174              	.LFE64:
 175              		.size	LED_OneSecondControl, .-LED_OneSecondControl
 176              		.global	g_bLED2_Flickering
 177              		.global	g_bLED1_Flickering
 178              		.global	g_uLED2_Color
 179              		.global	g_uLED1_Color
 180              		.comm	Param,6,4
 181              		.bss
 182              		.align	1
 183              		.set	.LANCHOR0,. + 0
 184              		.type	g_uLED1_Color, %object
 185              		.size	g_uLED1_Color, 2
 186              	g_uLED1_Color:
 187 0000 0000     		.space	2
 188              		.type	g_uLED2_Color, %object
 189              		.size	g_uLED2_Color, 2
 190              	g_uLED2_Color:
 191 0002 0000     		.space	2
 192              		.type	Flickering.8930, %object
 193              		.size	Flickering.8930, 1
 194              	Flickering.8930:
 195 0004 00       		.space	1
 196              		.type	g_bLED1_Flickering, %object
 197              		.size	g_bLED1_Flickering, 1
 198              	g_bLED1_Flickering:
 199 0005 00       		.space	1
 200              		.type	g_bLED2_Flickering, %object
 201              		.size	g_bLED2_Flickering, 1
 202              	g_bLED2_Flickering:
 203 0006 00       		.space	1
 204              		.text
 205              	.Letext0:
 206              		.file 2 "Generated_Source\\PSoC4/cytypes.h"
 207              		.file 3 "./main.h"
 208              		.file 4 "Generated_Source\\PSoC4/RTC.h"
 209              		.file 5 "Generated_Source\\PSoC4/TCPWM_LED.h"
 210              		.file 6 "Generated_Source\\PSoC4/Control_Reg_LED_1.h"
 211              		.file 7 "Generated_Source\\PSoC4/Control_Reg_LED_2.h"