ARM GAS  C:\Users\luvsd\AppData\Local\Temp\ccYNkZDN.s 			page 1


   1              		.syntax unified
   2              		.cpu cortex-m0
   3              		.fpu softvfp
   4              		.eabi_attribute 20, 1
   5              		.eabi_attribute 21, 1
   6              		.eabi_attribute 23, 3
   7              		.eabi_attribute 24, 1
   8              		.eabi_attribute 25, 1
   9              		.eabi_attribute 26, 1
  10              		.eabi_attribute 30, 1
  11              		.eabi_attribute 34, 0
  12              		.eabi_attribute 18, 4
  13              		.thumb
  14              		.syntax unified
  15              		.file	"sysTick.c"
  16              		.text
  17              	.Ltext0:
  18              		.cfi_sections	.debug_frame
  19              		.section	.text.SysTickISRCallback_1ms,"ax",%progbits
  20              		.align	2
  21              		.global	SysTickISRCallback_1ms
  22              		.code	16
  23              		.thumb_func
  24              		.type	SysTickISRCallback_1ms, %function
  25              	SysTickISRCallback_1ms:
  26              	.LFB67:
  27              		.file 1 "lib\\sysTick.c"
   1:lib/sysTick.c **** /* ========================================
   2:lib/sysTick.c ****  *
   3:lib/sysTick.c ****  * Copyright Suntech, 2023.02.01
   4:lib/sysTick.c ****  * All Rights Reserved
   5:lib/sysTick.c ****  * UNPUBLISHED, LICENSED SOFTWARE.
   6:lib/sysTick.c ****  *
   7:lib/sysTick.c ****  * CONFIDENTIAL AND PROPRIETARY INFORMATION
   8:lib/sysTick.c ****  * WHICH IS THE PROPERTY OF Suntech.
   9:lib/sysTick.c ****  *
  10:lib/sysTick.c ****  * ========================================
  11:lib/sysTick.c **** */
  12:lib/sysTick.c **** #include "main.h"
  13:lib/sysTick.c **** #include "lib/sysTick.h"
  14:lib/sysTick.c **** 
  15:lib/sysTick.c **** #define MAX_NO_MILISECOND_COUNTER  16u
  16:lib/sysTick.c **** 
  17:lib/sysTick.c **** typedef struct {
  18:lib/sysTick.c ****     uint32 max;
  19:lib/sysTick.c ****     uint32 current;
  20:lib/sysTick.c **** } TIMER_COUNTER;
  21:lib/sysTick.c **** 
  22:lib/sysTick.c **** //////////////////////////////////////////////////////////////
  23:lib/sysTick.c **** // 1msņŚÉ Ļ┤ĆļĀ©ļÉ£ Ļ▓āļōż  //////////////////////////////////////////////
  24:lib/sysTick.c **** ///////////////////////////////////////////////////////////////
  25:lib/sysTick.c **** static uint8 g_uNoMiliSecondCounter=0;                              /* sysTick.c ļé┤ļČĆ ņĀäņÜ® */
  26:lib/sysTick.c **** static TIMER_COUNTER g_timerCounter_1ms[MAX_NO_MILISECOND_COUNTER]; /* ņĀæĻĘ╝ņ×É ĒĢ©ņłśļĪ£ļ¦ī ņÖĖļČ
  27:lib/sysTick.c **** 
  28:lib/sysTick.c **** // 1ms countņØś ļ¬®Ēæ£ņŚÉ ļÅäļŗ¼ Ē¢łļŖöņ¦Ć ņŚ¼ļČĆ, indexļŖö ONE_MILISECOND_COUNTER enumĻ░Æ
  29:lib/sysTick.c **** // ņŻ╝ņØś : main loopņØś  ņ┤Ø ņłśĒ¢ēņŗ£Ļ░äņØ┤ 1ms ļ│┤ļŗż Ēü¼ļ®┤ ļ¬®Ēæ£Ļ░ÆņŚÉ ļÅäļŗ¼ĒĢ£ Ļ▓āņØä ļåōņ╣
  30:lib/sysTick.c **** uint8 isFinishCounter_1ms(uint16 index)
ARM GAS  C:\Users\luvsd\AppData\Local\Temp\ccYNkZDN.s 			page 2


  31:lib/sysTick.c **** {
  32:lib/sysTick.c ****    return g_timerCounter_1ms[index].current == 0 ? TRUE : FALSE;
  33:lib/sysTick.c **** }
  34:lib/sysTick.c **** 
  35:lib/sysTick.c **** void resetCounter_1ms(uint16 index)
  36:lib/sysTick.c **** {
  37:lib/sysTick.c ****     g_timerCounter_1ms[index].current = 
  38:lib/sysTick.c ****     g_timerCounter_1ms[index].max;
  39:lib/sysTick.c **** }
  40:lib/sysTick.c **** 
  41:lib/sysTick.c **** void setCountMax_1ms(uint16 index, uint32 maxCount)
  42:lib/sysTick.c **** {
  43:lib/sysTick.c ****     g_timerCounter_1ms[index].current = 0;
  44:lib/sysTick.c ****     g_timerCounter_1ms[index].max     = maxCount;
  45:lib/sysTick.c **** }
  46:lib/sysTick.c **** 
  47:lib/sysTick.c **** // 1s timer counter ļō▒ļĪØ 
  48:lib/sysTick.c **** uint8 registerCounter_1ms(uint32 maxCount)
  49:lib/sysTick.c **** {
  50:lib/sysTick.c ****     if(g_uNoMiliSecondCounter < MAX_NO_MILISECOND_COUNTER-1)
  51:lib/sysTick.c ****     {
  52:lib/sysTick.c ****         g_timerCounter_1ms[g_uNoMiliSecondCounter].current = 
  53:lib/sysTick.c ****         g_timerCounter_1ms[g_uNoMiliSecondCounter].max = maxCount;
  54:lib/sysTick.c ****         
  55:lib/sysTick.c ****         return g_uNoMiliSecondCounter++;
  56:lib/sysTick.c ****     } else {
  57:lib/sysTick.c ****         printf("Warning : resisterCounter_1ms()\r\n"); 
  58:lib/sysTick.c ****     }
  59:lib/sysTick.c ****     return 0xFF;   
  60:lib/sysTick.c **** }
  61:lib/sysTick.c **** 
  62:lib/sysTick.c **** // Ēśäņ×¼ counter Ļ░ÆņØä ņĢīņĢäļéĖļŗż. 
  63:lib/sysTick.c **** // ņŻ╝ņØś counter is Decreasing..
  64:lib/sysTick.c **** uint16 getCurrentTimerCounter_1ms(uint16 index) { return g_timerCounter_1ms[index].current; }
  65:lib/sysTick.c **** 
  66:lib/sysTick.c **** /*******************************************************************************
  67:lib/sysTick.c **** * Function Definitions
  68:lib/sysTick.c **** *******************************************************************************/
  69:lib/sysTick.c **** // 1ms ļ¦łļŗż ņØĖĒä░ļ¤ĮĒŖĖņŚÉ ņØśĒĢ£ ĒśĖņČ£ļÉśļŖö ISR
  70:lib/sysTick.c **** void SysTickISRCallback_1ms(void)
  71:lib/sysTick.c **** {
  28              		.loc 1 71 0
  29              		.cfi_startproc
  30              		@ args = 0, pretend = 0, frame = 0
  31              		@ frame_needed = 0, uses_anonymous_args = 0
  32 0000 10B5     		push	{r4, lr}
  33              		.cfi_def_cfa_offset 8
  34              		.cfi_offset 4, -8
  35              		.cfi_offset 14, -4
  72:lib/sysTick.c ****     OneMilliSecond_ISR(); 
  36              		.loc 1 72 0
  37 0002 FFF7FEFF 		bl	OneMilliSecond_ISR
  38              	.LVL0:
  39              	.LBB2:
  73:lib/sysTick.c ****     
  74:lib/sysTick.c ****     for(int i=0; i < g_uNoMiliSecondCounter; i++)
  40              		.loc 1 74 0
ARM GAS  C:\Users\luvsd\AppData\Local\Temp\ccYNkZDN.s 			page 3


  41 0006 0022     		movs	r2, #0
  42 0008 10E0     		b	.L2
  43              	.LVL1:
  44              	.L5:
  75:lib/sysTick.c ****     {
  76:lib/sysTick.c ****         if(g_timerCounter_1ms[i].current == 0)
  45              		.loc 1 76 0
  46 000a D300     		lsls	r3, r2, #3
  47 000c 0A49     		ldr	r1, .L6
  48 000e CB18     		adds	r3, r1, r3
  49 0010 5B68     		ldr	r3, [r3, #4]
  50 0012 002B     		cmp	r3, #0
  51 0014 04D1     		bne	.L3
  77:lib/sysTick.c ****             g_timerCounter_1ms[i].current = g_timerCounter_1ms[i].max;
  52              		.loc 1 77 0
  53 0016 D300     		lsls	r3, r2, #3
  54 0018 5858     		ldr	r0, [r3, r1]
  55 001a CB18     		adds	r3, r1, r3
  56 001c 5860     		str	r0, [r3, #4]
  57 001e 04E0     		b	.L4
  58              	.L3:
  78:lib/sysTick.c ****         else
  79:lib/sysTick.c ****             g_timerCounter_1ms[i].current--;            
  59              		.loc 1 79 0
  60 0020 D100     		lsls	r1, r2, #3
  61 0022 0548     		ldr	r0, .L6
  62 0024 4118     		adds	r1, r0, r1
  63 0026 013B     		subs	r3, r3, #1
  64 0028 4B60     		str	r3, [r1, #4]
  65              	.L4:
  74:lib/sysTick.c ****     {
  66              		.loc 1 74 0 discriminator 2
  67 002a 0132     		adds	r2, r2, #1
  68              	.LVL2:
  69              	.L2:
  74:lib/sysTick.c ****     {
  70              		.loc 1 74 0 is_stmt 0 discriminator 1
  71 002c 034B     		ldr	r3, .L6+4
  72 002e 1B78     		ldrb	r3, [r3]
  73 0030 9A42     		cmp	r2, r3
  74 0032 EADB     		blt	.L5
  75              	.LBE2:
  80:lib/sysTick.c ****     }
  81:lib/sysTick.c **** }
  76              		.loc 1 81 0 is_stmt 1
  77              		@ sp needed
  78 0034 10BD     		pop	{r4, pc}
  79              	.L7:
  80 0036 C046     		.align	2
  81              	.L6:
  82 0038 00000000 		.word	.LANCHOR0
  83 003c 80000000 		.word	.LANCHOR1
  84              		.cfi_endproc
  85              	.LFE67:
  86              		.size	SysTickISRCallback_1ms, .-SysTickISRCallback_1ms
  87              		.section	.text.isFinishCounter_1ms,"ax",%progbits
  88              		.align	2
ARM GAS  C:\Users\luvsd\AppData\Local\Temp\ccYNkZDN.s 			page 4


  89              		.global	isFinishCounter_1ms
  90              		.code	16
  91              		.thumb_func
  92              		.type	isFinishCounter_1ms, %function
  93              	isFinishCounter_1ms:
  94              	.LFB62:
  31:lib/sysTick.c ****    return g_timerCounter_1ms[index].current == 0 ? TRUE : FALSE;
  95              		.loc 1 31 0
  96              		.cfi_startproc
  97              		@ args = 0, pretend = 0, frame = 0
  98              		@ frame_needed = 0, uses_anonymous_args = 0
  99              		@ link register save eliminated.
 100              	.LVL3:
  32:lib/sysTick.c **** }
 101              		.loc 1 32 0
 102 0000 C000     		lsls	r0, r0, #3
 103              	.LVL4:
 104 0002 044B     		ldr	r3, .L11
 105 0004 1818     		adds	r0, r3, r0
 106 0006 4368     		ldr	r3, [r0, #4]
 107 0008 002B     		cmp	r3, #0
 108 000a 01D1     		bne	.L10
 109 000c 0120     		movs	r0, #1
 110 000e 00E0     		b	.L9
 111              	.L10:
 112 0010 0020     		movs	r0, #0
 113              	.L9:
  33:lib/sysTick.c **** 
 114              		.loc 1 33 0 discriminator 4
 115              		@ sp needed
 116 0012 7047     		bx	lr
 117              	.L12:
 118              		.align	2
 119              	.L11:
 120 0014 00000000 		.word	.LANCHOR0
 121              		.cfi_endproc
 122              	.LFE62:
 123              		.size	isFinishCounter_1ms, .-isFinishCounter_1ms
 124              		.section	.text.resetCounter_1ms,"ax",%progbits
 125              		.align	2
 126              		.global	resetCounter_1ms
 127              		.code	16
 128              		.thumb_func
 129              		.type	resetCounter_1ms, %function
 130              	resetCounter_1ms:
 131              	.LFB63:
  36:lib/sysTick.c ****     g_timerCounter_1ms[index].current = 
 132              		.loc 1 36 0
 133              		.cfi_startproc
 134              		@ args = 0, pretend = 0, frame = 0
 135              		@ frame_needed = 0, uses_anonymous_args = 0
 136              		@ link register save eliminated.
 137              	.LVL5:
  38:lib/sysTick.c **** }
 138              		.loc 1 38 0
 139 0000 024B     		ldr	r3, .L14
 140 0002 C000     		lsls	r0, r0, #3
ARM GAS  C:\Users\luvsd\AppData\Local\Temp\ccYNkZDN.s 			page 5


 141              	.LVL6:
 142 0004 C258     		ldr	r2, [r0, r3]
  37:lib/sysTick.c ****     g_timerCounter_1ms[index].max;
 143              		.loc 1 37 0
 144 0006 1818     		adds	r0, r3, r0
 145 0008 4260     		str	r2, [r0, #4]
  39:lib/sysTick.c **** 
 146              		.loc 1 39 0
 147              		@ sp needed
 148 000a 7047     		bx	lr
 149              	.L15:
 150              		.align	2
 151              	.L14:
 152 000c 00000000 		.word	.LANCHOR0
 153              		.cfi_endproc
 154              	.LFE63:
 155              		.size	resetCounter_1ms, .-resetCounter_1ms
 156              		.section	.text.setCountMax_1ms,"ax",%progbits
 157              		.align	2
 158              		.global	setCountMax_1ms
 159              		.code	16
 160              		.thumb_func
 161              		.type	setCountMax_1ms, %function
 162              	setCountMax_1ms:
 163              	.LFB64:
  42:lib/sysTick.c ****     g_timerCounter_1ms[index].current = 0;
 164              		.loc 1 42 0
 165              		.cfi_startproc
 166              		@ args = 0, pretend = 0, frame = 0
 167              		@ frame_needed = 0, uses_anonymous_args = 0
 168              	.LVL7:
 169 0000 10B5     		push	{r4, lr}
 170              		.cfi_def_cfa_offset 8
 171              		.cfi_offset 4, -8
 172              		.cfi_offset 14, -4
  43:lib/sysTick.c ****     g_timerCounter_1ms[index].max     = maxCount;
 173              		.loc 1 43 0
 174 0002 034B     		ldr	r3, .L17
 175 0004 C000     		lsls	r0, r0, #3
 176              	.LVL8:
 177 0006 1A18     		adds	r2, r3, r0
 178 0008 0024     		movs	r4, #0
 179 000a 5460     		str	r4, [r2, #4]
  44:lib/sysTick.c **** }
 180              		.loc 1 44 0
 181 000c C150     		str	r1, [r0, r3]
  45:lib/sysTick.c **** 
 182              		.loc 1 45 0
 183              		@ sp needed
 184 000e 10BD     		pop	{r4, pc}
 185              	.L18:
 186              		.align	2
 187              	.L17:
 188 0010 00000000 		.word	.LANCHOR0
 189              		.cfi_endproc
 190              	.LFE64:
 191              		.size	setCountMax_1ms, .-setCountMax_1ms
ARM GAS  C:\Users\luvsd\AppData\Local\Temp\ccYNkZDN.s 			page 6


 192              		.section	.text.registerCounter_1ms,"ax",%progbits
 193              		.align	2
 194              		.global	registerCounter_1ms
 195              		.code	16
 196              		.thumb_func
 197              		.type	registerCounter_1ms, %function
 198              	registerCounter_1ms:
 199              	.LFB65:
  49:lib/sysTick.c ****     if(g_uNoMiliSecondCounter < MAX_NO_MILISECOND_COUNTER-1)
 200              		.loc 1 49 0
 201              		.cfi_startproc
 202              		@ args = 0, pretend = 0, frame = 0
 203              		@ frame_needed = 0, uses_anonymous_args = 0
 204              	.LVL9:
 205 0000 10B5     		push	{r4, lr}
 206              		.cfi_def_cfa_offset 8
 207              		.cfi_offset 4, -8
 208              		.cfi_offset 14, -4
  50:lib/sysTick.c ****     {
 209              		.loc 1 50 0
 210 0002 094B     		ldr	r3, .L22
 211 0004 1B78     		ldrb	r3, [r3]
 212 0006 0E2B     		cmp	r3, #14
 213 0008 08D8     		bhi	.L20
  53:lib/sysTick.c ****         
 214              		.loc 1 53 0
 215 000a 0849     		ldr	r1, .L22+4
 216 000c DA00     		lsls	r2, r3, #3
 217 000e 5050     		str	r0, [r2, r1]
  52:lib/sysTick.c ****         g_timerCounter_1ms[g_uNoMiliSecondCounter].max = maxCount;
 218              		.loc 1 52 0
 219 0010 8A18     		adds	r2, r1, r2
 220 0012 5060     		str	r0, [r2, #4]
  55:lib/sysTick.c ****     } else {
 221              		.loc 1 55 0
 222 0014 5A1C     		adds	r2, r3, #1
 223 0016 0449     		ldr	r1, .L22
 224 0018 0A70     		strb	r2, [r1]
 225 001a 03E0     		b	.L21
 226              	.L20:
  57:lib/sysTick.c ****     }
 227              		.loc 1 57 0
 228 001c 0448     		ldr	r0, .L22+8
 229              	.LVL10:
 230 001e FFF7FEFF 		bl	puts
 231              	.LVL11:
  59:lib/sysTick.c **** }
 232              		.loc 1 59 0
 233 0022 FF23     		movs	r3, #255
 234              	.L21:
  60:lib/sysTick.c **** 
 235              		.loc 1 60 0
 236 0024 1800     		movs	r0, r3
 237              		@ sp needed
 238 0026 10BD     		pop	{r4, pc}
 239              	.L23:
 240              		.align	2
ARM GAS  C:\Users\luvsd\AppData\Local\Temp\ccYNkZDN.s 			page 7


 241              	.L22:
 242 0028 80000000 		.word	.LANCHOR1
 243 002c 00000000 		.word	.LANCHOR0
 244 0030 00000000 		.word	.LC7
 245              		.cfi_endproc
 246              	.LFE65:
 247              		.size	registerCounter_1ms, .-registerCounter_1ms
 248              		.section	.text.getCurrentTimerCounter_1ms,"ax",%progbits
 249              		.align	2
 250              		.global	getCurrentTimerCounter_1ms
 251              		.code	16
 252              		.thumb_func
 253              		.type	getCurrentTimerCounter_1ms, %function
 254              	getCurrentTimerCounter_1ms:
 255              	.LFB66:
  64:lib/sysTick.c **** 
 256              		.loc 1 64 0
 257              		.cfi_startproc
 258              		@ args = 0, pretend = 0, frame = 0
 259              		@ frame_needed = 0, uses_anonymous_args = 0
 260              		@ link register save eliminated.
 261              	.LVL12:
  64:lib/sysTick.c **** 
 262              		.loc 1 64 0
 263 0000 C000     		lsls	r0, r0, #3
 264              	.LVL13:
 265 0002 024B     		ldr	r3, .L25
 266 0004 1818     		adds	r0, r3, r0
 267 0006 8088     		ldrh	r0, [r0, #4]
 268              		@ sp needed
 269 0008 7047     		bx	lr
 270              	.L26:
 271 000a C046     		.align	2
 272              	.L25:
 273 000c 00000000 		.word	.LANCHOR0
 274              		.cfi_endproc
 275              	.LFE66:
 276              		.size	getCurrentTimerCounter_1ms, .-getCurrentTimerCounter_1ms
 277              		.section	.text.setSysTick,"ax",%progbits
 278              		.align	2
 279              		.global	setSysTick
 280              		.code	16
 281              		.thumb_func
 282              		.type	setSysTick, %function
 283              	setSysTick:
 284              	.LFB68:
  82:lib/sysTick.c **** 
  83:lib/sysTick.c **** void setSysTick(void)
  84:lib/sysTick.c **** {
 285              		.loc 1 84 0
 286              		.cfi_startproc
 287              		@ args = 0, pretend = 0, frame = 0
 288              		@ frame_needed = 0, uses_anonymous_args = 0
 289 0000 10B5     		push	{r4, lr}
 290              		.cfi_def_cfa_offset 8
 291              		.cfi_offset 4, -8
 292              		.cfi_offset 14, -4
ARM GAS  C:\Users\luvsd\AppData\Local\Temp\ccYNkZDN.s 			page 8


  85:lib/sysTick.c ****     uint32 i;
  86:lib/sysTick.c ****     
  87:lib/sysTick.c ****     CySysTickStart();
 293              		.loc 1 87 0
 294 0002 FFF7FEFF 		bl	CySysTickStart
 295              	.LVL14:
  88:lib/sysTick.c ****     
  89:lib/sysTick.c ****     /* Find unused callback slot and assign the callback. */
  90:lib/sysTick.c ****     for (i = 0u; i < CY_SYS_SYST_NUM_OF_CALLBACKS; ++i)
 296              		.loc 1 90 0
 297 0006 0024     		movs	r4, #0
 298 0008 0AE0     		b	.L28
 299              	.LVL15:
 300              	.L31:
  91:lib/sysTick.c ****     {
  92:lib/sysTick.c ****         if (CySysTickGetCallback(i) == NULL)
 301              		.loc 1 92 0
 302 000a 2000     		movs	r0, r4
 303 000c FFF7FEFF 		bl	CySysTickGetCallback
 304              	.LVL16:
 305 0010 0028     		cmp	r0, #0
 306 0012 04D1     		bne	.L29
  93:lib/sysTick.c ****         {
  94:lib/sysTick.c ****             /* Set callback */
  95:lib/sysTick.c ****             CySysTickSetCallback(i, SysTickISRCallback_1ms);
 307              		.loc 1 95 0
 308 0014 0449     		ldr	r1, .L32
 309 0016 2000     		movs	r0, r4
 310 0018 FFF7FEFF 		bl	CySysTickSetCallback
 311              	.LVL17:
  96:lib/sysTick.c ****             break;
 312              		.loc 1 96 0
 313 001c 02E0     		b	.L27
 314              	.L29:
  90:lib/sysTick.c ****     {
 315              		.loc 1 90 0 discriminator 2
 316 001e 0134     		adds	r4, r4, #1
 317              	.LVL18:
 318              	.L28:
  90:lib/sysTick.c ****     {
 319              		.loc 1 90 0 is_stmt 0 discriminator 1
 320 0020 042C     		cmp	r4, #4
 321 0022 F2D9     		bls	.L31
 322              	.L27:
  97:lib/sysTick.c ****         }
  98:lib/sysTick.c ****     }
  99:lib/sysTick.c **** }
 323              		.loc 1 99 0 is_stmt 1
 324              		@ sp needed
 325              	.LVL19:
 326 0024 10BD     		pop	{r4, pc}
 327              	.L33:
 328 0026 C046     		.align	2
 329              	.L32:
 330 0028 00000000 		.word	SysTickISRCallback_1ms
 331              		.cfi_endproc
 332              	.LFE68:
ARM GAS  C:\Users\luvsd\AppData\Local\Temp\ccYNkZDN.s 			page 9


 333              		.size	setSysTick, .-setSysTick
 334              		.comm	Param,6,4
 335              		.section	.rodata.str1.4,"aMS",%progbits,1
 336              		.align	2
 337              	.LC7:
 338 0000 5761726E 		.ascii	"Warning : resisterCounter_1ms()\015\000"
 338      696E6720 
 338      3A207265 
 338      73697374 
 338      6572436F 
 339              		.bss
 340              		.align	2
 341              		.set	.LANCHOR0,. + 0
 342              		.set	.LANCHOR1,. + 128
 343              		.type	g_timerCounter_1ms, %object
 344              		.size	g_timerCounter_1ms, 128
 345              	g_timerCounter_1ms:
 346 0000 00000000 		.space	128
 346      00000000 
 346      00000000 
 346      00000000 
 346      00000000 
 347              		.type	g_uNoMiliSecondCounter, %object
 348              		.size	g_uNoMiliSecondCounter, 1
 349              	g_uNoMiliSecondCounter:
 350 0080 00       		.space	1
 351              		.text
 352              	.Letext0:
 353              		.file 2 "Generated_Source\\PSoC4/cytypes.h"
 354              		.file 3 "./main.h"
 355              		.file 4 "Generated_Source\\PSoC4/RTC.h"
 356              		.file 5 "./lib/sysTick.h"
 357              		.file 6 "Generated_Source\\PSoC4/CyLib.h"
 358              		.file 7 "<built-in>"