ARM GAS  C:\Users\luvsd\AppData\Local\Temp\ccolYuxf.s 			page 1


   1              		.syntax unified
   2              		.cpu cortex-m0
   3              		.fpu softvfp
   4              		.eabi_attribute 20, 1
   5              		.eabi_attribute 21, 1
   6              		.eabi_attribute 23, 3
   7              		.eabi_attribute 24, 1
   8              		.eabi_attribute 25, 1
   9              		.eabi_attribute 26, 1
  10              		.eabi_attribute 30, 1
  11              		.eabi_attribute 34, 0
  12              		.eabi_attribute 18, 4
  13              		.thumb
  14              		.syntax unified
  15              		.file	"UI.c"
  16              		.text
  17              	.Ltext0:
  18              		.cfi_sections	.debug_frame
  19              		.section	.text.setDisplayDirection,"ax",%progbits
  20              		.align	2
  21              		.global	setDisplayDirection
  22              		.code	16
  23              		.thumb_func
  24              		.type	setDisplayDirection, %function
  25              	setDisplayDirection:
  26              	.LFB62:
  27              		.file 1 "lib\\UI.c"
   1:lib/UI.c      **** /* ========================================
   2:lib/UI.c      ****  *
   3:lib/UI.c      ****  * Copyright Suntech, 2023.02.01
   4:lib/UI.c      ****  * All Rights Reserved
   5:lib/UI.c      ****  * UNPUBLISHED, LICENSED SOFTWARE.
   6:lib/UI.c      ****  *
   7:lib/UI.c      ****  * CONFIDENTIAL AND PROPRIETARY INFORMATION
   8:lib/UI.c      ****  * WHICH IS THE PROPERTY OF Suntech.
   9:lib/UI.c      ****  *
  10:lib/UI.c      ****  * ========================================
  11:lib/UI.c      **** */
  12:lib/UI.c      **** #include "UI.h"
  13:lib/UI.c      **** #include "FT5x46.h"
  14:lib/UI.c      **** #include "sysTick.h"
  15:lib/UI.c      **** #include "userTimer.h"
  16:lib/UI.c      **** 
  17:lib/UI.c      **** static uint8 g_displayDir = DISPLAY_DIRECTION_PORTRAIT;
  18:lib/UI.c      **** 
  19:lib/UI.c      **** //uint8 g_displayDirection = DISPLAY_DIRECTION_PORTRAIT;
  20:lib/UI.c      **** uint16 g_DEFAULT_BUTTON_HEIGHT = DEFAULT_BUTTON_HEIGHT_PORTRAIT;
  21:lib/UI.c      **** 
  22:lib/UI.c      **** uint16 g_SCREEN_WIDTH  = LCD_WIDTH;
  23:lib/UI.c      **** uint16 g_SCREEN_HEIGHT = LCD_HEIGHT;
  24:lib/UI.c      **** 
  25:lib/UI.c      **** uint8 g_index_touch_counter;
  26:lib/UI.c      **** 
  27:lib/UI.c      **** void setDisplayDirection(uint8 dir)
  28:lib/UI.c      **** {
  28              		.loc 1 28 0
  29              		.cfi_startproc
ARM GAS  C:\Users\luvsd\AppData\Local\Temp\ccolYuxf.s 			page 2


  30              		@ args = 0, pretend = 0, frame = 0
  31              		@ frame_needed = 0, uses_anonymous_args = 0
  32              		@ link register save eliminated.
  33              	.LVL0:
  29:lib/UI.c      ****     g_displayDir = dir;
  34              		.loc 1 29 0
  35 0000 0A4B     		ldr	r3, .L4
  36 0002 1870     		strb	r0, [r3]
  30:lib/UI.c      **** 
  31:lib/UI.c      ****     if(dir == DISPLAY_DIRECTION_PORTRAIT)
  37              		.loc 1 31 0
  38 0004 0028     		cmp	r0, #0
  39 0006 08D1     		bne	.L2
  32:lib/UI.c      ****     {
  33:lib/UI.c      ****         g_SCREEN_WIDTH  = LCD_WIDTH;
  40              		.loc 1 33 0
  41 0008 094B     		ldr	r3, .L4+4
  42 000a F022     		movs	r2, #240
  43 000c 1A80     		strh	r2, [r3]
  34:lib/UI.c      ****         g_SCREEN_HEIGHT = LCD_HEIGHT;
  44              		.loc 1 34 0
  45 000e 5032     		adds	r2, r2, #80
  46 0010 5A80     		strh	r2, [r3, #2]
  35:lib/UI.c      ****         g_DEFAULT_BUTTON_HEIGHT = DEFAULT_BUTTON_HEIGHT_PORTRAIT;
  47              		.loc 1 35 0
  48 0012 133A     		subs	r2, r2, #19
  49 0014 FF3A     		subs	r2, r2, #255
  50 0016 9A80     		strh	r2, [r3, #4]
  51 0018 07E0     		b	.L1
  52              	.L2:
  36:lib/UI.c      ****     }
  37:lib/UI.c      ****     else
  38:lib/UI.c      ****     {
  39:lib/UI.c      ****         g_SCREEN_WIDTH  = LCD_HEIGHT;
  53              		.loc 1 39 0
  54 001a 054B     		ldr	r3, .L4+4
  55 001c A022     		movs	r2, #160
  56 001e 5200     		lsls	r2, r2, #1
  57 0020 1A80     		strh	r2, [r3]
  40:lib/UI.c      ****         g_SCREEN_HEIGHT = LCD_WIDTH;
  58              		.loc 1 40 0
  59 0022 503A     		subs	r2, r2, #80
  60 0024 5A80     		strh	r2, [r3, #2]
  41:lib/UI.c      ****         g_DEFAULT_BUTTON_HEIGHT = DEFAULT_BUTTON_HEIGHT_LANDSCAPE;
  61              		.loc 1 41 0
  62 0026 C83A     		subs	r2, r2, #200
  63 0028 9A80     		strh	r2, [r3, #4]
  64              	.L1:
  42:lib/UI.c      ****     }
  43:lib/UI.c      **** }
  65              		.loc 1 43 0
  66              		@ sp needed
  67 002a 7047     		bx	lr
  68              	.L5:
  69              		.align	2
  70              	.L4:
  71 002c 00000000 		.word	.LANCHOR0
ARM GAS  C:\Users\luvsd\AppData\Local\Temp\ccolYuxf.s 			page 3


  72 0030 00000000 		.word	.LANCHOR1
  73              		.cfi_endproc
  74              	.LFE62:
  75              		.size	setDisplayDirection, .-setDisplayDirection
  76              		.section	.text.MapToDeviceCoordinate,"ax",%progbits
  77              		.align	2
  78              		.global	MapToDeviceCoordinate
  79              		.code	16
  80              		.thumb_func
  81              		.type	MapToDeviceCoordinate, %function
  82              	MapToDeviceCoordinate:
  83              	.LFB63:
  44:lib/UI.c      **** 
  45:lib/UI.c      **** POINT MapToDeviceCoordinate(uint16 x, uint16 y)
  46:lib/UI.c      **** {
  84              		.loc 1 46 0
  85              		.cfi_startproc
  86              		@ args = 0, pretend = 0, frame = 8
  87              		@ frame_needed = 0, uses_anonymous_args = 0
  88              		@ link register save eliminated.
  89              	.LVL1:
  90 0000 82B0     		sub	sp, sp, #8
  91              		.cfi_def_cfa_offset 8
  47:lib/UI.c      ****     static POINT point;
  48:lib/UI.c      **** 
  49:lib/UI.c      ****     if(g_displayDir == DISPLAY_DIRECTION_PORTRAIT)
  92              		.loc 1 49 0
  93 0002 0B4B     		ldr	r3, .L9
  94 0004 1B78     		ldrb	r3, [r3]
  95 0006 002B     		cmp	r3, #0
  96 0008 03D1     		bne	.L7
  50:lib/UI.c      ****     {
  51:lib/UI.c      ****         point.x = x;
  97              		.loc 1 51 0
  98 000a 094B     		ldr	r3, .L9
  99 000c 9880     		strh	r0, [r3, #4]
  52:lib/UI.c      ****         point.y = y;
 100              		.loc 1 52 0
 101 000e D980     		strh	r1, [r3, #6]
 102 0010 04E0     		b	.L8
 103              	.L7:
  53:lib/UI.c      ****     }
  54:lib/UI.c      ****     else 
  55:lib/UI.c      ****     {
  56:lib/UI.c      ****         point.x = LCD_WIDTH - y - 1;
 104              		.loc 1 56 0
 105 0012 074A     		ldr	r2, .L9
 106 0014 EF23     		movs	r3, #239
 107 0016 591A     		subs	r1, r3, r1
 108              	.LVL2:
 109 0018 9180     		strh	r1, [r2, #4]
  57:lib/UI.c      ****         point.y = x;        
 110              		.loc 1 57 0
 111 001a D080     		strh	r0, [r2, #6]
 112              	.L8:
  58:lib/UI.c      ****     }
  59:lib/UI.c      **** 
ARM GAS  C:\Users\luvsd\AppData\Local\Temp\ccolYuxf.s 			page 4


  60:lib/UI.c      ****     return point;
 113              		.loc 1 60 0
 114 001c 044B     		ldr	r3, .L9
 115 001e 5B68     		ldr	r3, [r3, #4]
 116 0020 180C     		lsrs	r0, r3, #16
 117              	.LVL3:
 118 0022 0004     		lsls	r0, r0, #16
 119 0024 1B04     		lsls	r3, r3, #16
 120 0026 1B0C     		lsrs	r3, r3, #16
 121 0028 1843     		orrs	r0, r3
  61:lib/UI.c      **** }
 122              		.loc 1 61 0
 123 002a 02B0     		add	sp, sp, #8
 124              		@ sp needed
 125 002c 7047     		bx	lr
 126              	.L10:
 127 002e C046     		.align	2
 128              	.L9:
 129 0030 00000000 		.word	.LANCHOR0
 130              		.cfi_endproc
 131              	.LFE63:
 132              		.size	MapToDeviceCoordinate, .-MapToDeviceCoordinate
 133              		.section	.text.MapToScreenCoordinate,"ax",%progbits
 134              		.align	2
 135              		.global	MapToScreenCoordinate
 136              		.code	16
 137              		.thumb_func
 138              		.type	MapToScreenCoordinate, %function
 139              	MapToScreenCoordinate:
 140              	.LFB64:
  62:lib/UI.c      **** 
  63:lib/UI.c      **** POINT MapToScreenCoordinate(uint16 x, uint16 y)
  64:lib/UI.c      **** {
 141              		.loc 1 64 0
 142              		.cfi_startproc
 143              		@ args = 0, pretend = 0, frame = 8
 144              		@ frame_needed = 0, uses_anonymous_args = 0
 145              		@ link register save eliminated.
 146              	.LVL4:
 147 0000 82B0     		sub	sp, sp, #8
 148              		.cfi_def_cfa_offset 8
  65:lib/UI.c      ****     static POINT point;
  66:lib/UI.c      **** 
  67:lib/UI.c      ****     if(g_displayDir == DISPLAY_DIRECTION_PORTRAIT)
 149              		.loc 1 67 0
 150 0002 0B4B     		ldr	r3, .L14
 151 0004 1B78     		ldrb	r3, [r3]
 152 0006 002B     		cmp	r3, #0
 153 0008 03D1     		bne	.L12
  68:lib/UI.c      ****     {
  69:lib/UI.c      ****         point.x = x;
 154              		.loc 1 69 0
 155 000a 094B     		ldr	r3, .L14
 156 000c 1881     		strh	r0, [r3, #8]
  70:lib/UI.c      ****         point.y = y;
 157              		.loc 1 70 0
 158 000e 5981     		strh	r1, [r3, #10]
ARM GAS  C:\Users\luvsd\AppData\Local\Temp\ccolYuxf.s 			page 5


 159 0010 04E0     		b	.L13
 160              	.L12:
  71:lib/UI.c      ****     }
  72:lib/UI.c      ****     else 
  73:lib/UI.c      ****     {
  74:lib/UI.c      ****         point.x = y;
 161              		.loc 1 74 0
 162 0012 074A     		ldr	r2, .L14
 163 0014 1181     		strh	r1, [r2, #8]
  75:lib/UI.c      ****         point.y = LCD_WIDTH - x - 1; 
 164              		.loc 1 75 0
 165 0016 EF23     		movs	r3, #239
 166 0018 181A     		subs	r0, r3, r0
 167              	.LVL5:
 168 001a 5081     		strh	r0, [r2, #10]
 169              	.L13:
  76:lib/UI.c      ****     }
  77:lib/UI.c      ****     
  78:lib/UI.c      ****     return point;
 170              		.loc 1 78 0
 171 001c 044B     		ldr	r3, .L14
 172 001e 9B68     		ldr	r3, [r3, #8]
 173 0020 180C     		lsrs	r0, r3, #16
 174 0022 0004     		lsls	r0, r0, #16
 175 0024 1B04     		lsls	r3, r3, #16
 176 0026 1B0C     		lsrs	r3, r3, #16
 177 0028 1843     		orrs	r0, r3
  79:lib/UI.c      **** }
 178              		.loc 1 79 0
 179 002a 02B0     		add	sp, sp, #8
 180              		@ sp needed
 181 002c 7047     		bx	lr
 182              	.L15:
 183 002e C046     		.align	2
 184              	.L14:
 185 0030 00000000 		.word	.LANCHOR0
 186              		.cfi_endproc
 187              	.LFE64:
 188              		.size	MapToScreenCoordinate, .-MapToScreenCoordinate
 189              		.section	.text.ST7789V_setaddress_MapScreenCoordinate,"ax",%progbits
 190              		.align	2
 191              		.global	ST7789V_setaddress_MapScreenCoordinate
 192              		.code	16
 193              		.thumb_func
 194              		.type	ST7789V_setaddress_MapScreenCoordinate, %function
 195              	ST7789V_setaddress_MapScreenCoordinate:
 196              	.LFB65:
  80:lib/UI.c      **** 
  81:lib/UI.c      **** RECT ST7789V_setaddress_MapScreenCoordinate(uint16 x1,uint16 y1,uint16 x2,uint16 y2)
  82:lib/UI.c      **** {    
 197              		.loc 1 82 0
 198              		.cfi_startproc
 199              		@ args = 4, pretend = 0, frame = 8
 200              		@ frame_needed = 0, uses_anonymous_args = 0
 201              	.LVL6:
 202 0000 F0B5     		push	{r4, r5, r6, r7, lr}
 203              		.cfi_def_cfa_offset 20
ARM GAS  C:\Users\luvsd\AppData\Local\Temp\ccolYuxf.s 			page 6


 204              		.cfi_offset 4, -20
 205              		.cfi_offset 5, -16
 206              		.cfi_offset 6, -12
 207              		.cfi_offset 7, -8
 208              		.cfi_offset 14, -4
 209 0002 83B0     		sub	sp, sp, #12
 210              		.cfi_def_cfa_offset 32
 211 0004 0500     		movs	r5, r0
 212 0006 0800     		movs	r0, r1
 213              	.LVL7:
 214 0008 1C00     		movs	r4, r3
 215 000a 08AB     		add	r3, sp, #32
 216              	.LVL8:
 217 000c 1E88     		ldrh	r6, [r3]
  83:lib/UI.c      ****     POINT p1 = MapToDeviceCoordinate(x1, y1);
 218              		.loc 1 83 0
 219 000e 1100     		movs	r1, r2
 220              	.LVL9:
 221 0010 FFF7FEFF 		bl	MapToDeviceCoordinate
 222              	.LVL10:
 223 0014 0190     		str	r0, [sp, #4]
  84:lib/UI.c      ****     POINT p2 = MapToDeviceCoordinate(x2, y2);
 224              		.loc 1 84 0
 225 0016 3100     		movs	r1, r6
 226 0018 2000     		movs	r0, r4
 227 001a FFF7FEFF 		bl	MapToDeviceCoordinate
 228              	.LVL11:
 229 001e 0090     		str	r0, [sp]
  85:lib/UI.c      ****     
  86:lib/UI.c      ****     static RECT rect;
  87:lib/UI.c      ****     rect.left   = MIN(p1.x,p2.x);
 230              		.loc 1 87 0
 231 0020 83B2     		uxth	r3, r0
 232 0022 01AA     		add	r2, sp, #4
 233 0024 1288     		ldrh	r2, [r2]
 234 0026 191C     		adds	r1, r3, #0
 235 0028 9342     		cmp	r3, r2
 236 002a 00D9     		bls	.L17
 237 002c 111C     		adds	r1, r2, #0
 238              	.L17:
 239 002e 88B2     		uxth	r0, r1
 240 0030 124C     		ldr	r4, .L21
 241 0032 A181     		strh	r1, [r4, #12]
  88:lib/UI.c      ****     rect.right  = MAX(p1.x,p2.x); 
 242              		.loc 1 88 0
 243 0034 191C     		adds	r1, r3, #0
 244 0036 9342     		cmp	r3, r2
 245 0038 00D2     		bcs	.L18
 246 003a 111C     		adds	r1, r2, #0
 247              	.L18:
 248 003c 8AB2     		uxth	r2, r1
 249 003e 0F4B     		ldr	r3, .L21
 250 0040 D981     		strh	r1, [r3, #14]
  89:lib/UI.c      ****     rect.top    = MIN(p1.y,p2.y);
 251              		.loc 1 89 0
 252 0042 6B46     		mov	r3, sp
 253 0044 5B88     		ldrh	r3, [r3, #2]
ARM GAS  C:\Users\luvsd\AppData\Local\Temp\ccolYuxf.s 			page 7


 254 0046 01A9     		add	r1, sp, #4
 255 0048 4C88     		ldrh	r4, [r1, #2]
 256 004a 1E1C     		adds	r6, r3, #0
 257 004c A342     		cmp	r3, r4
 258 004e 00D9     		bls	.L19
 259 0050 261C     		adds	r6, r4, #0
 260              	.L19:
 261 0052 B1B2     		uxth	r1, r6
 262 0054 094F     		ldr	r7, .L21
 263 0056 3E82     		strh	r6, [r7, #16]
  90:lib/UI.c      ****     rect.bottom = MAX(p1.y,p2.y); 
 264              		.loc 1 90 0
 265 0058 1E1C     		adds	r6, r3, #0
 266 005a A342     		cmp	r3, r4
 267 005c 00D2     		bcs	.L20
 268 005e 261C     		adds	r6, r4, #0
 269              	.L20:
 270 0060 B3B2     		uxth	r3, r6
 271 0062 064C     		ldr	r4, .L21
 272 0064 6682     		strh	r6, [r4, #18]
  91:lib/UI.c      ****   
  92:lib/UI.c      ****     ST7789V_setaddress(rect.left, rect.top, rect.right, rect.bottom); 
 273              		.loc 1 92 0
 274 0066 FFF7FEFF 		bl	ST7789V_setaddress
 275              	.LVL12:
  93:lib/UI.c      ****     return rect;
 276              		.loc 1 93 0
 277 006a 2100     		movs	r1, r4
 278 006c 0C31     		adds	r1, r1, #12
 279 006e 0822     		movs	r2, #8
 280 0070 2800     		movs	r0, r5
 281 0072 FFF7FEFF 		bl	memcpy
 282              	.LVL13:
  94:lib/UI.c      **** }
 283              		.loc 1 94 0
 284 0076 2800     		movs	r0, r5
 285 0078 03B0     		add	sp, sp, #12
 286              		@ sp needed
 287              	.LVL14:
 288 007a F0BD     		pop	{r4, r5, r6, r7, pc}
 289              	.L22:
 290              		.align	2
 291              	.L21:
 292 007c 00000000 		.word	.LANCHOR0
 293              		.cfi_endproc
 294              	.LFE65:
 295              		.size	ST7789V_setaddress_MapScreenCoordinate, .-ST7789V_setaddress_MapScreenCoordinate
 296              		.section	.text.FillRectangle,"ax",%progbits
 297              		.align	2
 298              		.global	FillRectangle
 299              		.code	16
 300              		.thumb_func
 301              		.type	FillRectangle, %function
 302              	FillRectangle:
 303              	.LFB67:
  95:lib/UI.c      **** 
  96:lib/UI.c      **** void FillAllArea(COLOR color)
ARM GAS  C:\Users\luvsd\AppData\Local\Temp\ccolYuxf.s 			page 8


  97:lib/UI.c      **** {
  98:lib/UI.c      ****     FillRectangle(0, 0, g_SCREEN_WIDTH-1, g_SCREEN_HEIGHT-1, color);
  99:lib/UI.c      **** }
 100:lib/UI.c      **** 
 101:lib/UI.c      **** void FillRectangle(uint16 x1, uint16 y1, uint16 x2, uint16 y2, COLOR color)
 102:lib/UI.c      **** {        
 304              		.loc 1 102 0
 305              		.cfi_startproc
 306              		@ args = 4, pretend = 0, frame = 16
 307              		@ frame_needed = 0, uses_anonymous_args = 0
 308              	.LVL15:
 309 0000 F0B5     		push	{r4, r5, r6, r7, lr}
 310              		.cfi_def_cfa_offset 20
 311              		.cfi_offset 4, -20
 312              		.cfi_offset 5, -16
 313              		.cfi_offset 6, -12
 314              		.cfi_offset 7, -8
 315              		.cfi_offset 14, -4
 316 0002 4F46     		mov	r7, r9
 317 0004 80B4     		push	{r7}
 318              		.cfi_def_cfa_offset 24
 319              		.cfi_offset 9, -24
 320 0006 86B0     		sub	sp, sp, #24
 321              		.cfi_def_cfa_offset 48
 322 0008 0400     		movs	r4, r0
 323 000a 0391     		str	r1, [sp, #12]
 324 000c 9146     		mov	r9, r2
 325 000e 1D00     		movs	r5, r3
 326 0010 0CAB     		add	r3, sp, #48
 327              	.LVL16:
 328 0012 1E88     		ldrh	r6, [r3]
 103:lib/UI.c      ****     RECT rect = ST7789V_setaddress_MapScreenCoordinate(x1, y1, x2, y2);
 329              		.loc 1 103 0
 330 0014 0095     		str	r5, [sp]
 331 0016 1300     		movs	r3, r2
 332              	.LVL17:
 333 0018 0A00     		movs	r2, r1
 334              	.LVL18:
 335 001a 0100     		movs	r1, r0
 336              	.LVL19:
 337 001c 04A8     		add	r0, sp, #16
 338              	.LVL20:
 339 001e FFF7FEFF 		bl	ST7789V_setaddress_MapScreenCoordinate
 340              	.LVL21:
 341              	.LBB2:
 104:lib/UI.c      ****     
 105:lib/UI.c      ****     for(int i=x1; i <= x2; i++)
 342              		.loc 1 105 0
 343 0022 2700     		movs	r7, r4
 344              	.LVL22:
 345 0024 08E0     		b	.L24
 346              	.LVL23:
 347              	.L27:
 348              	.LBB3:
 106:lib/UI.c      ****        for(int j=y1; j<= y2; j++)
 349              		.loc 1 106 0
 350 0026 039C     		ldr	r4, [sp, #12]
ARM GAS  C:\Users\luvsd\AppData\Local\Temp\ccolYuxf.s 			page 9


 351              	.LVL24:
 352 0028 03E0     		b	.L25
 353              	.L26:
 107:lib/UI.c      ****           ST7789V_pushcolour(color); 
 354              		.loc 1 107 0 discriminator 3
 355 002a 3000     		movs	r0, r6
 356 002c FFF7FEFF 		bl	ST7789V_pushcolour
 357              	.LVL25:
 106:lib/UI.c      ****        for(int j=y1; j<= y2; j++)
 358              		.loc 1 106 0 discriminator 3
 359 0030 0134     		adds	r4, r4, #1
 360              	.LVL26:
 361              	.L25:
 106:lib/UI.c      ****        for(int j=y1; j<= y2; j++)
 362              		.loc 1 106 0 is_stmt 0 discriminator 1
 363 0032 AC42     		cmp	r4, r5
 364 0034 F9DD     		ble	.L26
 365              	.LBE3:
 105:lib/UI.c      ****        for(int j=y1; j<= y2; j++)
 366              		.loc 1 105 0 is_stmt 1 discriminator 2
 367 0036 0137     		adds	r7, r7, #1
 368              	.LVL27:
 369              	.L24:
 105:lib/UI.c      ****        for(int j=y1; j<= y2; j++)
 370              		.loc 1 105 0 is_stmt 0 discriminator 1
 371 0038 4F45     		cmp	r7, r9
 372 003a F4DD     		ble	.L27
 373              	.LBE2:
 108:lib/UI.c      **** }
 374              		.loc 1 108 0 is_stmt 1
 375 003c 06B0     		add	sp, sp, #24
 376              		@ sp needed
 377              	.LVL28:
 378 003e 04BC     		pop	{r2}
 379 0040 9146     		mov	r9, r2
 380 0042 F0BD     		pop	{r4, r5, r6, r7, pc}
 381              		.cfi_endproc
 382              	.LFE67:
 383              		.size	FillRectangle, .-FillRectangle
 384              		.section	.text.FillAllArea,"ax",%progbits
 385              		.align	2
 386              		.global	FillAllArea
 387              		.code	16
 388              		.thumb_func
 389              		.type	FillAllArea, %function
 390              	FillAllArea:
 391              	.LFB66:
  97:lib/UI.c      ****     FillRectangle(0, 0, g_SCREEN_WIDTH-1, g_SCREEN_HEIGHT-1, color);
 392              		.loc 1 97 0
 393              		.cfi_startproc
 394              		@ args = 0, pretend = 0, frame = 0
 395              		@ frame_needed = 0, uses_anonymous_args = 0
 396              	.LVL29:
 397 0000 00B5     		push	{lr}
 398              		.cfi_def_cfa_offset 4
 399              		.cfi_offset 14, -4
 400 0002 83B0     		sub	sp, sp, #12
ARM GAS  C:\Users\luvsd\AppData\Local\Temp\ccolYuxf.s 			page 10


 401              		.cfi_def_cfa_offset 16
  98:lib/UI.c      **** }
 402              		.loc 1 98 0
 403 0004 064A     		ldr	r2, .L29
 404 0006 5388     		ldrh	r3, [r2, #2]
 405 0008 013B     		subs	r3, r3, #1
 406 000a 9BB2     		uxth	r3, r3
 407 000c 1288     		ldrh	r2, [r2]
 408 000e 013A     		subs	r2, r2, #1
 409 0010 92B2     		uxth	r2, r2
 410 0012 0090     		str	r0, [sp]
 411 0014 0021     		movs	r1, #0
 412 0016 0020     		movs	r0, #0
 413              	.LVL30:
 414 0018 FFF7FEFF 		bl	FillRectangle
 415              	.LVL31:
  99:lib/UI.c      **** 
 416              		.loc 1 99 0
 417 001c 03B0     		add	sp, sp, #12
 418              		@ sp needed
 419 001e 00BD     		pop	{pc}
 420              	.L30:
 421              		.align	2
 422              	.L29:
 423 0020 00000000 		.word	.LANCHOR1
 424              		.cfi_endproc
 425              	.LFE66:
 426              		.size	FillAllArea, .-FillAllArea
 427              		.section	.text.FillRect,"ax",%progbits
 428              		.align	2
 429              		.global	FillRect
 430              		.code	16
 431              		.thumb_func
 432              		.type	FillRect, %function
 433              	FillRect:
 434              	.LFB68:
 109:lib/UI.c      **** 
 110:lib/UI.c      **** void FillRect(RECT *r, COLOR color)
 111:lib/UI.c      **** {        
 435              		.loc 1 111 0
 436              		.cfi_startproc
 437              		@ args = 0, pretend = 0, frame = 0
 438              		@ frame_needed = 0, uses_anonymous_args = 0
 439              	.LVL32:
 440 0000 10B5     		push	{r4, lr}
 441              		.cfi_def_cfa_offset 8
 442              		.cfi_offset 4, -8
 443              		.cfi_offset 14, -4
 444 0002 82B0     		sub	sp, sp, #8
 445              		.cfi_def_cfa_offset 16
 446 0004 0C00     		movs	r4, r1
 112:lib/UI.c      ****     FillRectangle(r->left, r->top, r->right, r->bottom, color);
 447              		.loc 1 112 0
 448 0006 C388     		ldrh	r3, [r0, #6]
 449 0008 4288     		ldrh	r2, [r0, #2]
 450 000a 8188     		ldrh	r1, [r0, #4]
 451              	.LVL33:
ARM GAS  C:\Users\luvsd\AppData\Local\Temp\ccolYuxf.s 			page 11


 452 000c 0088     		ldrh	r0, [r0]
 453              	.LVL34:
 454 000e 0094     		str	r4, [sp]
 455 0010 FFF7FEFF 		bl	FillRectangle
 456              	.LVL35:
 113:lib/UI.c      **** }
 457              		.loc 1 113 0
 458 0014 02B0     		add	sp, sp, #8
 459              		@ sp needed
 460 0016 10BD     		pop	{r4, pc}
 461              		.cfi_endproc
 462              	.LFE68:
 463              		.size	FillRect, .-FillRect
 464              		.section	.text.DrawHorizontalLine,"ax",%progbits
 465              		.align	2
 466              		.global	DrawHorizontalLine
 467              		.code	16
 468              		.thumb_func
 469              		.type	DrawHorizontalLine, %function
 470              	DrawHorizontalLine:
 471              	.LFB69:
 114:lib/UI.c      **** 
 115:lib/UI.c      **** 
 116:lib/UI.c      **** void DrawHorizontalLine(uint16 x1, uint16 x2, uint16 y, COLOR color)
 117:lib/UI.c      **** {
 472              		.loc 1 117 0
 473              		.cfi_startproc
 474              		@ args = 0, pretend = 0, frame = 8
 475              		@ frame_needed = 0, uses_anonymous_args = 0
 476              	.LVL36:
 477 0000 70B5     		push	{r4, r5, r6, lr}
 478              		.cfi_def_cfa_offset 16
 479              		.cfi_offset 4, -16
 480              		.cfi_offset 5, -12
 481              		.cfi_offset 6, -8
 482              		.cfi_offset 14, -4
 483 0002 84B0     		sub	sp, sp, #16
 484              		.cfi_def_cfa_offset 32
 485 0004 1D00     		movs	r5, r3
 118:lib/UI.c      ****     uint16 minX = MIN(x1,x2);
 486              		.loc 1 118 0
 487 0006 0C1C     		adds	r4, r1, #0
 488 0008 8142     		cmp	r1, r0
 489 000a 00D9     		bls	.L33
 490 000c 041C     		adds	r4, r0, #0
 491              	.L33:
 492 000e A4B2     		uxth	r4, r4
 493              	.LVL37:
 119:lib/UI.c      ****     uint16 maxX = MAX(x1,x2);
 494              		.loc 1 119 0
 495 0010 0E1C     		adds	r6, r1, #0
 496 0012 8142     		cmp	r1, r0
 497 0014 00D2     		bcs	.L34
 498 0016 061C     		adds	r6, r0, #0
 499              	.L34:
 500 0018 B6B2     		uxth	r6, r6
 501              	.LVL38:
ARM GAS  C:\Users\luvsd\AppData\Local\Temp\ccolYuxf.s 			page 12


 120:lib/UI.c      ****     
 121:lib/UI.c      ****     ST7789V_setaddress_MapScreenCoordinate(x1, y, x2, y);
 502              		.loc 1 121 0
 503 001a 0092     		str	r2, [sp]
 504 001c 0B00     		movs	r3, r1
 505              	.LVL39:
 506 001e 0100     		movs	r1, r0
 507              	.LVL40:
 508 0020 02A8     		add	r0, sp, #8
 509              	.LVL41:
 510 0022 FFF7FEFF 		bl	ST7789V_setaddress_MapScreenCoordinate
 511              	.LVL42:
 512              	.LBB4:
 122:lib/UI.c      ****     
 123:lib/UI.c      ****     for(uint16 i=minX; i <= maxX; i++)
 513              		.loc 1 123 0
 514 0026 04E0     		b	.L35
 515              	.LVL43:
 516              	.L36:
 124:lib/UI.c      ****         ST7789V_pushcolour(color);    
 517              		.loc 1 124 0 discriminator 3
 518 0028 2800     		movs	r0, r5
 519 002a FFF7FEFF 		bl	ST7789V_pushcolour
 520              	.LVL44:
 123:lib/UI.c      ****         ST7789V_pushcolour(color);    
 521              		.loc 1 123 0 discriminator 3
 522 002e 0134     		adds	r4, r4, #1
 523              	.LVL45:
 524 0030 A4B2     		uxth	r4, r4
 525              	.LVL46:
 526              	.L35:
 123:lib/UI.c      ****         ST7789V_pushcolour(color);    
 527              		.loc 1 123 0 is_stmt 0 discriminator 1
 528 0032 B442     		cmp	r4, r6
 529 0034 F8D9     		bls	.L36
 530              	.LBE4:
 125:lib/UI.c      **** }
 531              		.loc 1 125 0 is_stmt 1
 532 0036 04B0     		add	sp, sp, #16
 533              		@ sp needed
 534              	.LVL47:
 535              	.LVL48:
 536 0038 70BD     		pop	{r4, r5, r6, pc}
 537              		.cfi_endproc
 538              	.LFE69:
 539              		.size	DrawHorizontalLine, .-DrawHorizontalLine
 540 003a C046     		.section	.text.DrawVerticalLine,"ax",%progbits
 541              		.align	2
 542              		.global	DrawVerticalLine
 543              		.code	16
 544              		.thumb_func
 545              		.type	DrawVerticalLine, %function
 546              	DrawVerticalLine:
 547              	.LFB72:
 126:lib/UI.c      **** 
 127:lib/UI.c      **** void DrawRectangle     (uint16 x1, uint16 y1, uint16 x2, uint16 y2, COLOR color)
 128:lib/UI.c      **** {
ARM GAS  C:\Users\luvsd\AppData\Local\Temp\ccolYuxf.s 			page 13


 129:lib/UI.c      ****     DrawVerticalLine(x1,y1,y2,color);    
 130:lib/UI.c      ****     DrawHorizontalLine(x1+1, x2-1, y1, color);
 131:lib/UI.c      ****     DrawVerticalLine(x2,y1,y2,color);        
 132:lib/UI.c      ****     DrawHorizontalLine(x1+1, x2-1, y2, color);
 133:lib/UI.c      **** 
 134:lib/UI.c      **** }
 135:lib/UI.c      **** void DrawRect          (RECT rect, COLOR color)
 136:lib/UI.c      **** {
 137:lib/UI.c      ****     DrawRectangle(rect.left, rect.top, rect.right, rect.bottom, color);
 138:lib/UI.c      **** }
 139:lib/UI.c      **** 
 140:lib/UI.c      **** void DrawVerticalLine(uint16 x, uint16 y1, uint16 y2, COLOR color)
 141:lib/UI.c      **** {    
 548              		.loc 1 141 0
 549              		.cfi_startproc
 550              		@ args = 0, pretend = 0, frame = 8
 551              		@ frame_needed = 0, uses_anonymous_args = 0
 552              	.LVL49:
 553 0000 70B5     		push	{r4, r5, r6, lr}
 554              		.cfi_def_cfa_offset 16
 555              		.cfi_offset 4, -16
 556              		.cfi_offset 5, -12
 557              		.cfi_offset 6, -8
 558              		.cfi_offset 14, -4
 559 0002 84B0     		sub	sp, sp, #16
 560              		.cfi_def_cfa_offset 32
 561 0004 1D00     		movs	r5, r3
 142:lib/UI.c      ****     uint16 minY = MIN(y1,y2);
 562              		.loc 1 142 0
 563 0006 141C     		adds	r4, r2, #0
 564 0008 8A42     		cmp	r2, r1
 565 000a 00D9     		bls	.L38
 566 000c 0C1C     		adds	r4, r1, #0
 567              	.L38:
 568 000e A4B2     		uxth	r4, r4
 569              	.LVL50:
 143:lib/UI.c      ****     uint16 maxY = MAX(y1,y2);
 570              		.loc 1 143 0
 571 0010 161C     		adds	r6, r2, #0
 572 0012 8A42     		cmp	r2, r1
 573 0014 00D2     		bcs	.L39
 574 0016 0E1C     		adds	r6, r1, #0
 575              	.L39:
 576 0018 B6B2     		uxth	r6, r6
 577              	.LVL51:
 144:lib/UI.c      ****     
 145:lib/UI.c      ****     ST7789V_setaddress_MapScreenCoordinate(x, minY, x, maxY);
 578              		.loc 1 145 0
 579 001a 0096     		str	r6, [sp]
 580 001c 0300     		movs	r3, r0
 581              	.LVL52:
 582 001e 2200     		movs	r2, r4
 583              	.LVL53:
 584 0020 0100     		movs	r1, r0
 585              	.LVL54:
 586 0022 02A8     		add	r0, sp, #8
 587              	.LVL55:
ARM GAS  C:\Users\luvsd\AppData\Local\Temp\ccolYuxf.s 			page 14


 588 0024 FFF7FEFF 		bl	ST7789V_setaddress_MapScreenCoordinate
 589              	.LVL56:
 590              	.LBB5:
 146:lib/UI.c      ****     
 147:lib/UI.c      ****     for(uint16 i=minY; i <= maxY; i++)
 591              		.loc 1 147 0
 592 0028 04E0     		b	.L40
 593              	.LVL57:
 594              	.L41:
 148:lib/UI.c      ****         ST7789V_pushcolour(color);
 595              		.loc 1 148 0 discriminator 3
 596 002a 2800     		movs	r0, r5
 597 002c FFF7FEFF 		bl	ST7789V_pushcolour
 598              	.LVL58:
 147:lib/UI.c      ****         ST7789V_pushcolour(color);
 599              		.loc 1 147 0 discriminator 3
 600 0030 0134     		adds	r4, r4, #1
 601              	.LVL59:
 602 0032 A4B2     		uxth	r4, r4
 603              	.LVL60:
 604              	.L40:
 147:lib/UI.c      ****         ST7789V_pushcolour(color);
 605              		.loc 1 147 0 is_stmt 0 discriminator 1
 606 0034 B442     		cmp	r4, r6
 607 0036 F8D9     		bls	.L41
 608              	.LBE5:
 149:lib/UI.c      **** }
 609              		.loc 1 149 0 is_stmt 1
 610 0038 04B0     		add	sp, sp, #16
 611              		@ sp needed
 612              	.LVL61:
 613              	.LVL62:
 614 003a 70BD     		pop	{r4, r5, r6, pc}
 615              		.cfi_endproc
 616              	.LFE72:
 617              		.size	DrawVerticalLine, .-DrawVerticalLine
 618              		.section	.text.DrawRectangle,"ax",%progbits
 619              		.align	2
 620              		.global	DrawRectangle
 621              		.code	16
 622              		.thumb_func
 623              		.type	DrawRectangle, %function
 624              	DrawRectangle:
 625              	.LFB70:
 128:lib/UI.c      ****     DrawVerticalLine(x1,y1,y2,color);    
 626              		.loc 1 128 0
 627              		.cfi_startproc
 628              		@ args = 4, pretend = 0, frame = 8
 629              		@ frame_needed = 0, uses_anonymous_args = 0
 630              	.LVL63:
 631 0000 F0B5     		push	{r4, r5, r6, r7, lr}
 632              		.cfi_def_cfa_offset 20
 633              		.cfi_offset 4, -20
 634              		.cfi_offset 5, -16
 635              		.cfi_offset 6, -12
 636              		.cfi_offset 7, -8
 637              		.cfi_offset 14, -4
ARM GAS  C:\Users\luvsd\AppData\Local\Temp\ccolYuxf.s 			page 15


 638 0002 83B0     		sub	sp, sp, #12
 639              		.cfi_def_cfa_offset 32
 640 0004 0400     		movs	r4, r0
 641 0006 0091     		str	r1, [sp]
 642 0008 1700     		movs	r7, r2
 643 000a 0193     		str	r3, [sp, #4]
 644 000c 08AB     		add	r3, sp, #32
 645              	.LVL64:
 646 000e 1E88     		ldrh	r6, [r3]
 129:lib/UI.c      ****     DrawHorizontalLine(x1+1, x2-1, y1, color);
 647              		.loc 1 129 0
 648 0010 3300     		movs	r3, r6
 649              	.LVL65:
 650 0012 019A     		ldr	r2, [sp, #4]
 651              	.LVL66:
 652 0014 FFF7FEFF 		bl	DrawVerticalLine
 653              	.LVL67:
 130:lib/UI.c      ****     DrawVerticalLine(x2,y1,y2,color);        
 654              		.loc 1 130 0
 655 0018 0134     		adds	r4, r4, #1
 656 001a A4B2     		uxth	r4, r4
 657 001c 7D1E     		subs	r5, r7, #1
 658 001e ADB2     		uxth	r5, r5
 659 0020 3300     		movs	r3, r6
 660 0022 009A     		ldr	r2, [sp]
 661 0024 2900     		movs	r1, r5
 662 0026 2000     		movs	r0, r4
 663 0028 FFF7FEFF 		bl	DrawHorizontalLine
 664              	.LVL68:
 131:lib/UI.c      ****     DrawHorizontalLine(x1+1, x2-1, y2, color);
 665              		.loc 1 131 0
 666 002c 3300     		movs	r3, r6
 667 002e 019A     		ldr	r2, [sp, #4]
 668 0030 0099     		ldr	r1, [sp]
 669 0032 3800     		movs	r0, r7
 670 0034 FFF7FEFF 		bl	DrawVerticalLine
 671              	.LVL69:
 132:lib/UI.c      **** 
 672              		.loc 1 132 0
 673 0038 3300     		movs	r3, r6
 674 003a 019A     		ldr	r2, [sp, #4]
 675 003c 2900     		movs	r1, r5
 676 003e 2000     		movs	r0, r4
 677 0040 FFF7FEFF 		bl	DrawHorizontalLine
 678              	.LVL70:
 134:lib/UI.c      **** void DrawRect          (RECT rect, COLOR color)
 679              		.loc 1 134 0
 680 0044 03B0     		add	sp, sp, #12
 681              		@ sp needed
 682 0046 F0BD     		pop	{r4, r5, r6, r7, pc}
 683              		.cfi_endproc
 684              	.LFE70:
 685              		.size	DrawRectangle, .-DrawRectangle
 686              		.section	.text.DrawRect,"ax",%progbits
 687              		.align	2
 688              		.global	DrawRect
 689              		.code	16
ARM GAS  C:\Users\luvsd\AppData\Local\Temp\ccolYuxf.s 			page 16


 690              		.thumb_func
 691              		.type	DrawRect, %function
 692              	DrawRect:
 693              	.LFB71:
 136:lib/UI.c      ****     DrawRectangle(rect.left, rect.top, rect.right, rect.bottom, color);
 694              		.loc 1 136 0
 695              		.cfi_startproc
 696              		@ args = 0, pretend = 0, frame = 8
 697              		@ frame_needed = 0, uses_anonymous_args = 0
 698              	.LVL71:
 699 0000 10B5     		push	{r4, lr}
 700              		.cfi_def_cfa_offset 8
 701              		.cfi_offset 4, -8
 702              		.cfi_offset 14, -4
 703 0002 84B0     		sub	sp, sp, #16
 704              		.cfi_def_cfa_offset 24
 137:lib/UI.c      **** }
 705              		.loc 1 137 0
 706 0004 0B0C     		lsrs	r3, r1, #16
 707 0006 040C     		lsrs	r4, r0, #16
 708 0008 89B2     		uxth	r1, r1
 709 000a 80B2     		uxth	r0, r0
 710 000c 0092     		str	r2, [sp]
 711 000e 2200     		movs	r2, r4
 712              	.LVL72:
 713 0010 FFF7FEFF 		bl	DrawRectangle
 714              	.LVL73:
 138:lib/UI.c      **** 
 715              		.loc 1 138 0
 716 0014 04B0     		add	sp, sp, #16
 717              		@ sp needed
 718 0016 10BD     		pop	{r4, pc}
 719              		.cfi_endproc
 720              	.LFE71:
 721              		.size	DrawRect, .-DrawRect
 722              		.section	.text.DrawImage,"ax",%progbits
 723              		.align	2
 724              		.global	DrawImage
 725              		.code	16
 726              		.thumb_func
 727              		.type	DrawImage, %function
 728              	DrawImage:
 729              	.LFB73:
 150:lib/UI.c      **** 
 151:lib/UI.c      **** void DrawImage(uint16 xPos, uint16 yPos, uint16 width, uint16 height, uint16 *image)
 152:lib/UI.c      **** {
 730              		.loc 1 152 0
 731              		.cfi_startproc
 732              		@ args = 4, pretend = 0, frame = 16
 733              		@ frame_needed = 0, uses_anonymous_args = 0
 734              	.LVL74:
 735 0000 F0B5     		push	{r4, r5, r6, r7, lr}
 736              		.cfi_def_cfa_offset 20
 737              		.cfi_offset 4, -20
 738              		.cfi_offset 5, -16
 739              		.cfi_offset 6, -12
 740              		.cfi_offset 7, -8
ARM GAS  C:\Users\luvsd\AppData\Local\Temp\ccolYuxf.s 			page 17


 741              		.cfi_offset 14, -4
 742 0002 5F46     		mov	r7, fp
 743 0004 5646     		mov	r6, r10
 744 0006 4D46     		mov	r5, r9
 745 0008 4446     		mov	r4, r8
 746 000a F0B4     		push	{r4, r5, r6, r7}
 747              		.cfi_def_cfa_offset 36
 748              		.cfi_offset 8, -36
 749              		.cfi_offset 9, -32
 750              		.cfi_offset 10, -28
 751              		.cfi_offset 11, -24
 752 000c 87B0     		sub	sp, sp, #28
 753              		.cfi_def_cfa_offset 64
 754 000e 0390     		str	r0, [sp, #12]
 755 0010 8A46     		mov	r10, r1
 756 0012 1700     		movs	r7, r2
 757 0014 9B46     		mov	fp, r3
 758 0016 109B     		ldr	r3, [sp, #64]
 759              	.LVL75:
 760 0018 9846     		mov	r8, r3
 761              	.LVL76:
 153:lib/UI.c      ****     uint32_t index = 0, i = 0, j=0;
 154:lib/UI.c      ****  
 155:lib/UI.c      ****     ST7789V_setaddress_MapScreenCoordinate(xPos, yPos, xPos+width-1, yPos);
 762              		.loc 1 155 0
 763 001a 8318     		adds	r3, r0, r2
 764 001c 013B     		subs	r3, r3, #1
 765 001e 9BB2     		uxth	r3, r3
 766 0020 0293     		str	r3, [sp, #8]
 767 0022 0A00     		movs	r2, r1
 768              	.LVL77:
 769 0024 0091     		str	r1, [sp]
 770 0026 0100     		movs	r1, r0
 771              	.LVL78:
 772 0028 04A8     		add	r0, sp, #16
 773              	.LVL79:
 774 002a FFF7FEFF 		bl	ST7789V_setaddress_MapScreenCoordinate
 775              	.LVL80:
 153:lib/UI.c      ****     uint32_t index = 0, i = 0, j=0;
 776              		.loc 1 153 0
 777 002e 0024     		movs	r4, #0
 156:lib/UI.c      ****     
 157:lib/UI.c      ****     for( index = 0; index < height  ; index++)
 778              		.loc 1 157 0
 779 0030 0023     		movs	r3, #0
 780 0032 9946     		mov	r9, r3
 781 0034 18E0     		b	.L45
 782              	.LVL81:
 783              	.L46:
 158:lib/UI.c      ****     {
 159:lib/UI.c      ****         for(i = 0; i < width ; i++)
 160:lib/UI.c      ****         {
 161:lib/UI.c      ****             ST7789V_pushcolour(image[j++]);
 784              		.loc 1 161 0 discriminator 3
 785 0036 661C     		adds	r6, r4, #1
 786              	.LVL82:
 787 0038 6400     		lsls	r4, r4, #1
ARM GAS  C:\Users\luvsd\AppData\Local\Temp\ccolYuxf.s 			page 18


 788 003a 4346     		mov	r3, r8
 789 003c 185B     		ldrh	r0, [r3, r4]
 790 003e FFF7FEFF 		bl	ST7789V_pushcolour
 791              	.LVL83:
 159:lib/UI.c      ****         {
 792              		.loc 1 159 0 discriminator 3
 793 0042 0135     		adds	r5, r5, #1
 794              	.LVL84:
 795              		.loc 1 161 0 discriminator 3
 796 0044 3400     		movs	r4, r6
 797 0046 00E0     		b	.L47
 798              	.LVL85:
 799              	.L48:
 800 0048 0025     		movs	r5, #0
 801              	.L47:
 802              	.LVL86:
 159:lib/UI.c      ****         {
 803              		.loc 1 159 0 discriminator 1
 804 004a BD42     		cmp	r5, r7
 805 004c F3D3     		bcc	.L46
 162:lib/UI.c      ****         }
 163:lib/UI.c      ****         ST7789V_setaddress_MapScreenCoordinate(xPos, yPos+index+1, xPos+width-1, yPos+index+1);    
 806              		.loc 1 163 0 discriminator 2
 807 004e 5246     		mov	r2, r10
 808 0050 4A44     		add	r2, r2, r9
 809 0052 0132     		adds	r2, r2, #1
 810 0054 92B2     		uxth	r2, r2
 811 0056 0092     		str	r2, [sp]
 812 0058 029B     		ldr	r3, [sp, #8]
 813 005a 0399     		ldr	r1, [sp, #12]
 814 005c 04A8     		add	r0, sp, #16
 815 005e FFF7FEFF 		bl	ST7789V_setaddress_MapScreenCoordinate
 816              	.LVL87:
 157:lib/UI.c      ****     {
 817              		.loc 1 157 0 discriminator 2
 818 0062 0123     		movs	r3, #1
 819 0064 9C46     		mov	ip, r3
 820 0066 E144     		add	r9, r9, ip
 821              	.LVL88:
 822              	.L45:
 157:lib/UI.c      ****     {
 823              		.loc 1 157 0 is_stmt 0 discriminator 1
 824 0068 D945     		cmp	r9, fp
 825 006a EDD3     		bcc	.L48
 164:lib/UI.c      ****     }    
 165:lib/UI.c      **** }
 826              		.loc 1 165 0 is_stmt 1
 827 006c 07B0     		add	sp, sp, #28
 828              		@ sp needed
 829              	.LVL89:
 830              	.LVL90:
 831 006e 3CBC     		pop	{r2, r3, r4, r5}
 832 0070 9046     		mov	r8, r2
 833 0072 9946     		mov	r9, r3
 834 0074 A246     		mov	r10, r4
 835 0076 AB46     		mov	fp, r5
 836 0078 F0BD     		pop	{r4, r5, r6, r7, pc}
ARM GAS  C:\Users\luvsd\AppData\Local\Temp\ccolYuxf.s 			page 19


 837              		.cfi_endproc
 838              	.LFE73:
 839              		.size	DrawImage, .-DrawImage
 840 007a C046     		.section	.text.DrawImageBackColorReplace,"ax",%progbits
 841              		.align	2
 842              		.global	DrawImageBackColorReplace
 843              		.code	16
 844              		.thumb_func
 845              		.type	DrawImageBackColorReplace, %function
 846              	DrawImageBackColorReplace:
 847              	.LFB74:
 166:lib/UI.c      **** 
 167:lib/UI.c      **** void DrawImageBackColorReplace(uint16 xPos, uint16 yPos, uint16 width, uint16 height, uint16 *image
 168:lib/UI.c      **** {
 848              		.loc 1 168 0
 849              		.cfi_startproc
 850              		@ args = 8, pretend = 0, frame = 24
 851              		@ frame_needed = 0, uses_anonymous_args = 0
 852              	.LVL91:
 853 0000 F0B5     		push	{r4, r5, r6, r7, lr}
 854              		.cfi_def_cfa_offset 20
 855              		.cfi_offset 4, -20
 856              		.cfi_offset 5, -16
 857              		.cfi_offset 6, -12
 858              		.cfi_offset 7, -8
 859              		.cfi_offset 14, -4
 860 0002 5F46     		mov	r7, fp
 861 0004 5646     		mov	r6, r10
 862 0006 4D46     		mov	r5, r9
 863 0008 4446     		mov	r4, r8
 864 000a F0B4     		push	{r4, r5, r6, r7}
 865              		.cfi_def_cfa_offset 36
 866              		.cfi_offset 8, -36
 867              		.cfi_offset 9, -32
 868              		.cfi_offset 10, -28
 869              		.cfi_offset 11, -24
 870 000c 89B0     		sub	sp, sp, #36
 871              		.cfi_def_cfa_offset 72
 872 000e 0590     		str	r0, [sp, #20]
 873 0010 8A46     		mov	r10, r1
 874 0012 1700     		movs	r7, r2
 875 0014 9B46     		mov	fp, r3
 876 0016 12AB     		add	r3, sp, #72
 877              	.LVL92:
 878 0018 04CB     		ldmia	r3!, {r2}
 879              	.LVL93:
 880 001a 9046     		mov	r8, r2
 881 001c 1B88     		ldrh	r3, [r3]
 882              	.LVL94:
 883 001e 0393     		str	r3, [sp, #12]
 884              	.LVL95:
 169:lib/UI.c      ****     uint32_t index = 0, i = 0, j=0;
 170:lib/UI.c      ****  
 171:lib/UI.c      ****     ST7789V_setaddress_MapScreenCoordinate(xPos, yPos, xPos+width-1, yPos);
 885              		.loc 1 171 0
 886 0020 C319     		adds	r3, r0, r7
 887 0022 013B     		subs	r3, r3, #1
ARM GAS  C:\Users\luvsd\AppData\Local\Temp\ccolYuxf.s 			page 20


 888 0024 9BB2     		uxth	r3, r3
 889 0026 0493     		str	r3, [sp, #16]
 890 0028 0A00     		movs	r2, r1
 891 002a 0091     		str	r1, [sp]
 892 002c 0100     		movs	r1, r0
 893              	.LVL96:
 894 002e 06A8     		add	r0, sp, #24
 895              	.LVL97:
 896 0030 FFF7FEFF 		bl	ST7789V_setaddress_MapScreenCoordinate
 897              	.LVL98:
 169:lib/UI.c      ****     uint32_t index = 0, i = 0, j=0;
 898              		.loc 1 169 0
 899 0034 0024     		movs	r4, #0
 172:lib/UI.c      ****     
 173:lib/UI.c      ****     for( index = 0; index < height  ; index++)
 900              		.loc 1 173 0
 901 0036 0023     		movs	r3, #0
 902 0038 9946     		mov	r9, r3
 903 003a 1BE0     		b	.L50
 904              	.LVL99:
 905              	.L52:
 906              	.LBB6:
 174:lib/UI.c      ****     {
 175:lib/UI.c      ****         for(i = 0; i < width ; i++)
 176:lib/UI.c      ****         {
 177:lib/UI.c      ****             uint16 c = image[j++];
 907              		.loc 1 177 0
 908 003c 661C     		adds	r6, r4, #1
 909              	.LVL100:
 910 003e 6400     		lsls	r4, r4, #1
 911 0040 4346     		mov	r3, r8
 912 0042 185B     		ldrh	r0, [r3, r4]
 913              	.LVL101:
 178:lib/UI.c      ****             
 179:lib/UI.c      ****             if(c == 0) c = blackReplaceColor;
 914              		.loc 1 179 0
 915 0044 0028     		cmp	r0, #0
 916 0046 00D1     		bne	.L51
 917 0048 0398     		ldr	r0, [sp, #12]
 918              	.LVL102:
 919              	.L51:
 180:lib/UI.c      ****             ST7789V_pushcolour(c);
 920              		.loc 1 180 0 discriminator 2
 921 004a FFF7FEFF 		bl	ST7789V_pushcolour
 922              	.LVL103:
 923              	.LBE6:
 175:lib/UI.c      ****         {
 924              		.loc 1 175 0 discriminator 2
 925 004e 0135     		adds	r5, r5, #1
 926              	.LVL104:
 927              	.LBB7:
 177:lib/UI.c      ****             
 928              		.loc 1 177 0 discriminator 2
 929 0050 3400     		movs	r4, r6
 930 0052 00E0     		b	.L53
 931              	.LVL105:
 932              	.L55:
ARM GAS  C:\Users\luvsd\AppData\Local\Temp\ccolYuxf.s 			page 21


 933              	.LBE7:
 934 0054 0025     		movs	r5, #0
 935              	.L53:
 936              	.LVL106:
 175:lib/UI.c      ****         {
 937              		.loc 1 175 0 discriminator 1
 938 0056 BD42     		cmp	r5, r7
 939 0058 F0D3     		bcc	.L52
 181:lib/UI.c      ****         }
 182:lib/UI.c      ****         ST7789V_setaddress_MapScreenCoordinate(xPos, yPos+index+1, xPos+width-1, yPos+index+1);    
 940              		.loc 1 182 0 discriminator 2
 941 005a 5246     		mov	r2, r10
 942 005c 4A44     		add	r2, r2, r9
 943 005e 0132     		adds	r2, r2, #1
 944 0060 92B2     		uxth	r2, r2
 945 0062 0092     		str	r2, [sp]
 946 0064 049B     		ldr	r3, [sp, #16]
 947 0066 0599     		ldr	r1, [sp, #20]
 948 0068 06A8     		add	r0, sp, #24
 949 006a FFF7FEFF 		bl	ST7789V_setaddress_MapScreenCoordinate
 950              	.LVL107:
 173:lib/UI.c      ****     {
 951              		.loc 1 173 0 discriminator 2
 952 006e 0123     		movs	r3, #1
 953 0070 9C46     		mov	ip, r3
 954 0072 E144     		add	r9, r9, ip
 955              	.LVL108:
 956              	.L50:
 173:lib/UI.c      ****     {
 957              		.loc 1 173 0 is_stmt 0 discriminator 1
 958 0074 D945     		cmp	r9, fp
 959 0076 EDD3     		bcc	.L55
 183:lib/UI.c      ****     }    
 184:lib/UI.c      **** }
 960              		.loc 1 184 0 is_stmt 1
 961 0078 09B0     		add	sp, sp, #36
 962              		@ sp needed
 963              	.LVL109:
 964              	.LVL110:
 965 007a 3CBC     		pop	{r2, r3, r4, r5}
 966 007c 9046     		mov	r8, r2
 967 007e 9946     		mov	r9, r3
 968 0080 A246     		mov	r10, r4
 969 0082 AB46     		mov	fp, r5
 970 0084 F0BD     		pop	{r4, r5, r6, r7, pc}
 971              		.cfi_endproc
 972              	.LFE74:
 973              		.size	DrawImageBackColorReplace, .-DrawImageBackColorReplace
 974              		.global	__aeabi_i2d
 975              		.global	__aeabi_dmul
 976              		.global	__aeabi_d2f
 977              		.global	__aeabi_f2uiz
 978              		.global	__aeabi_ui2f
 979              		.global	__aeabi_fcmpeq
 980 0086 C046     		.section	.text.LCD_DrawFont,"ax",%progbits
 981              		.align	2
 982              		.global	LCD_DrawFont
ARM GAS  C:\Users\luvsd\AppData\Local\Temp\ccolYuxf.s 			page 22


 983              		.code	16
 984              		.thumb_func
 985              		.type	LCD_DrawFont, %function
 986              	LCD_DrawFont:
 987              	.LFB75:
 185:lib/UI.c      **** 
 186:lib/UI.c      **** void LCD_DrawFont(uint16 xPos, uint16 yPos, uint16 foregroundColor, uint16 backgroundColor, fontdat
 187:lib/UI.c      **** {
 988              		.loc 1 187 0
 989              		.cfi_startproc
 990              		@ args = 8, pretend = 0, frame = 32
 991              		@ frame_needed = 0, uses_anonymous_args = 0
 992              	.LVL111:
 993 0000 F0B5     		push	{r4, r5, r6, r7, lr}
 994              		.cfi_def_cfa_offset 20
 995              		.cfi_offset 4, -20
 996              		.cfi_offset 5, -16
 997              		.cfi_offset 6, -12
 998              		.cfi_offset 7, -8
 999              		.cfi_offset 14, -4
 1000 0002 5F46     		mov	r7, fp
 1001 0004 5646     		mov	r6, r10
 1002 0006 4D46     		mov	r5, r9
 1003 0008 4446     		mov	r4, r8
 1004 000a F0B4     		push	{r4, r5, r6, r7}
 1005              		.cfi_def_cfa_offset 36
 1006              		.cfi_offset 8, -36
 1007              		.cfi_offset 9, -32
 1008              		.cfi_offset 10, -28
 1009              		.cfi_offset 11, -24
 1010 000c 8BB0     		sub	sp, sp, #44
 1011              		.cfi_def_cfa_offset 80
 1012 000e 0690     		str	r0, [sp, #24]
 1013 0010 0791     		str	r1, [sp, #28]
 1014 0012 0392     		str	r2, [sp, #12]
 1015 0014 0493     		str	r3, [sp, #16]
 1016 0016 14AB     		add	r3, sp, #80
 1017              	.LVL112:
 1018 0018 04CB     		ldmia	r3!, {r2}
 1019              	.LVL113:
 1020 001a 9346     		mov	fp, r2
 1021 001c 1A78     		ldrb	r2, [r3]
 188:lib/UI.c      ****     uint16 width = font[0];
 1022              		.loc 1 188 0
 1023 001e 5B46     		mov	r3, fp
 1024              	.LVL114:
 1025 0020 1878     		ldrb	r0, [r3]
 1026              	.LVL115:
 1027 0022 83B2     		uxth	r3, r0
 1028 0024 9946     		mov	r9, r3
 1029              	.LVL116:
 189:lib/UI.c      ****     uint16 height = font[1];
 1030              		.loc 1 189 0
 1031 0026 5B46     		mov	r3, fp
 1032 0028 5B78     		ldrb	r3, [r3, #1]
 1033 002a 99B2     		uxth	r1, r3
 1034              	.LVL117:
ARM GAS  C:\Users\luvsd\AppData\Local\Temp\ccolYuxf.s 			page 23


 1035 002c 8A46     		mov	r10, r1
 1036              	.LVL118:
 190:lib/UI.c      ****     uint16 ascii_start = font[2];
 1037              		.loc 1 190 0
 1038 002e 5946     		mov	r1, fp
 1039 0030 8978     		ldrb	r1, [r1, #2]
 1040              	.LVL119:
 191:lib/UI.c      ****     uint16 noFont = font[3];
 192:lib/UI.c      ****     uint16 DataSize = width * height / 8;
 1041              		.loc 1 192 0
 1042 0032 4343     		muls	r3, r0
 1043 0034 DC17     		asrs	r4, r3, #31
 1044 0036 0725     		movs	r5, #7
 1045 0038 2C40     		ands	r4, r5
 1046 003a E318     		adds	r3, r4, r3
 1047 003c DB10     		asrs	r3, r3, #3
 1048              	.LVL120:
 193:lib/UI.c      ****         
 194:lib/UI.c      ****     uint32 p = DataSize * (st-ascii_start) + 4;
 1049              		.loc 1 194 0
 1050 003e 521A     		subs	r2, r2, r1
 1051 0040 1B04     		lsls	r3, r3, #16
 1052              	.LVL121:
 1053 0042 1B0C     		lsrs	r3, r3, #16
 1054 0044 5343     		muls	r3, r2
 1055 0046 1E1D     		adds	r6, r3, #4
 1056              	.LVL122:
 195:lib/UI.c      **** 
 196:lib/UI.c      ****     float n = width / 8.0;
 1057              		.loc 1 196 0
 1058 0048 FFF7FEFF 		bl	__aeabi_i2d
 1059              	.LVL123:
 1060 004c 0022     		movs	r2, #0
 1061 004e FF23     		movs	r3, #255
 1062 0050 9B05     		lsls	r3, r3, #22
 1063 0052 FFF7FEFF 		bl	__aeabi_dmul
 1064              	.LVL124:
 1065 0056 FFF7FEFF 		bl	__aeabi_d2f
 1066              	.LVL125:
 1067 005a 041C     		adds	r4, r0, #0
 1068              	.LVL126:
 197:lib/UI.c      ****     uint16 r = (uint16) n;
 1069              		.loc 1 197 0
 1070 005c FFF7FEFF 		bl	__aeabi_f2uiz
 1071              	.LVL127:
 1072 0060 83B2     		uxth	r3, r0
 1073 0062 9846     		mov	r8, r3
 1074              	.LVL128:
 198:lib/UI.c      **** 
 199:lib/UI.c      ****     if(n != (float) r) r++;
 1075              		.loc 1 199 0
 1076 0064 1800     		movs	r0, r3
 1077 0066 FFF7FEFF 		bl	__aeabi_ui2f
 1078              	.LVL129:
 1079 006a 011C     		adds	r1, r0, #0
 1080 006c 201C     		adds	r0, r4, #0
 1081 006e FFF7FEFF 		bl	__aeabi_fcmpeq
ARM GAS  C:\Users\luvsd\AppData\Local\Temp\ccolYuxf.s 			page 24


 1082              	.LVL130:
 1083 0072 0028     		cmp	r0, #0
 1084 0074 03D1     		bne	.L57
 1085              		.loc 1 199 0 is_stmt 0 discriminator 1
 1086 0076 4046     		mov	r0, r8
 1087 0078 0130     		adds	r0, r0, #1
 1088 007a 83B2     		uxth	r3, r0
 1089 007c 9846     		mov	r8, r3
 1090              	.LVL131:
 1091              	.L57:
 1092              	.LBB8:
 200:lib/UI.c      ****     
 201:lib/UI.c      **** //  printf("width  = %d \r\n",width);
 202:lib/UI.c      **** //  printf("height = %d \r\n",height);
 203:lib/UI.c      **** //  printf("start  = %c \r\n",ascii_start);
 204:lib/UI.c      **** //  printf("No     = %d \r\n",noFont);
 205:lib/UI.c      **** 
 206:lib/UI.c      ****     for(uint16 index = 0; index < height  ; index++)
 1093              		.loc 1 206 0 is_stmt 1
 1094 007e 0023     		movs	r3, #0
 1095 0080 4246     		mov	r2, r8
 1096 0082 0592     		str	r2, [sp, #20]
 1097 0084 9846     		mov	r8, r3
 1098              	.LVL132:
 1099 0086 28E0     		b	.L59
 1100              	.LVL133:
 1101              	.L66:
 1102              	.LBB9:
 207:lib/UI.c      ****     {
 208:lib/UI.c      ****         uint16 y = yPos+index;
 1103              		.loc 1 208 0
 1104 0088 079B     		ldr	r3, [sp, #28]
 1105 008a 4344     		add	r3, r3, r8
 1106 008c 9AB2     		uxth	r2, r3
 1107              	.LVL134:
 209:lib/UI.c      ****            
 210:lib/UI.c      ****         ST7789V_setaddress_MapScreenCoordinate(xPos, y, xPos+width-1, y);   
 1108              		.loc 1 210 0
 1109 008e 0699     		ldr	r1, [sp, #24]
 1110 0090 0B00     		movs	r3, r1
 1111 0092 4B44     		add	r3, r3, r9
 1112 0094 013B     		subs	r3, r3, #1
 1113 0096 9BB2     		uxth	r3, r3
 1114 0098 0092     		str	r2, [sp]
 1115 009a 08A8     		add	r0, sp, #32
 1116 009c FFF7FEFF 		bl	ST7789V_setaddress_MapScreenCoordinate
 1117              	.LVL135:
 1118              	.LBB10:
 211:lib/UI.c      **** 
 212:lib/UI.c      ****         for(int j=0; j < r; j++)
 1119              		.loc 1 212 0
 1120 00a0 0027     		movs	r7, #0
 1121 00a2 13E0     		b	.L60
 1122              	.LVL136:
 1123              	.L65:
 1124              	.LBB11:
 213:lib/UI.c      ****         {
ARM GAS  C:\Users\luvsd\AppData\Local\Temp\ccolYuxf.s 			page 25


 214:lib/UI.c      ****              uint8 data = font[p];
 1125              		.loc 1 214 0
 1126 00a4 5B46     		mov	r3, fp
 1127 00a6 9D5D     		ldrb	r5, [r3, r6]
 1128              	.LVL137:
 1129              	.LBB12:
 215:lib/UI.c      ****         
 216:lib/UI.c      ****             for(int i = 0; i < 8; i++)
 1130              		.loc 1 216 0
 1131 00a8 0024     		movs	r4, #0
 1132 00aa 0BE0     		b	.L61
 1133              	.LVL138:
 1134              	.L64:
 217:lib/UI.c      ****             {
 218:lib/UI.c      ****                 if((data  & (0x80 >> i)) == 0) 
 1135              		.loc 1 218 0
 1136 00ac 8023     		movs	r3, #128
 1137 00ae 2341     		asrs	r3, r3, r4
 1138 00b0 2B42     		tst	r3, r5
 1139 00b2 03D1     		bne	.L62
 219:lib/UI.c      ****                 {
 220:lib/UI.c      ****                     ST7789V_pushcolour(backgroundColor); 
 1140              		.loc 1 220 0
 1141 00b4 0498     		ldr	r0, [sp, #16]
 1142 00b6 FFF7FEFF 		bl	ST7789V_pushcolour
 1143              	.LVL139:
 1144 00ba 02E0     		b	.L63
 1145              	.L62:
 221:lib/UI.c      ****                 }else{
 222:lib/UI.c      ****                     ST7789V_pushcolour(foregroundColor);   
 1146              		.loc 1 222 0
 1147 00bc 0398     		ldr	r0, [sp, #12]
 1148 00be FFF7FEFF 		bl	ST7789V_pushcolour
 1149              	.LVL140:
 1150              	.L63:
 216:lib/UI.c      ****             {
 1151              		.loc 1 216 0 discriminator 2
 1152 00c2 0134     		adds	r4, r4, #1
 1153              	.LVL141:
 1154              	.L61:
 216:lib/UI.c      ****             {
 1155              		.loc 1 216 0 is_stmt 0 discriminator 1
 1156 00c4 072C     		cmp	r4, #7
 1157 00c6 F1DD     		ble	.L64
 1158              	.LBE12:
 223:lib/UI.c      ****                 }
 224:lib/UI.c      ****             }            
 225:lib/UI.c      ****             p++;
 1159              		.loc 1 225 0 is_stmt 1 discriminator 2
 1160 00c8 0136     		adds	r6, r6, #1
 1161              	.LVL142:
 1162              	.LBE11:
 212:lib/UI.c      ****         {
 1163              		.loc 1 212 0 discriminator 2
 1164 00ca 0137     		adds	r7, r7, #1
 1165              	.LVL143:
 1166              	.L60:
ARM GAS  C:\Users\luvsd\AppData\Local\Temp\ccolYuxf.s 			page 26


 212:lib/UI.c      ****         {
 1167              		.loc 1 212 0 is_stmt 0 discriminator 1
 1168 00cc 059B     		ldr	r3, [sp, #20]
 1169 00ce 9F42     		cmp	r7, r3
 1170 00d0 E8DB     		blt	.L65
 1171              	.LBE10:
 1172              	.LBE9:
 206:lib/UI.c      ****     {
 1173              		.loc 1 206 0 is_stmt 1 discriminator 2
 1174 00d2 4346     		mov	r3, r8
 1175 00d4 0133     		adds	r3, r3, #1
 1176 00d6 9BB2     		uxth	r3, r3
 1177 00d8 9846     		mov	r8, r3
 1178              	.LVL144:
 1179              	.L59:
 206:lib/UI.c      ****     {
 1180              		.loc 1 206 0 is_stmt 0 discriminator 1
 1181 00da D045     		cmp	r8, r10
 1182 00dc D4D3     		bcc	.L66
 1183              	.LBE8:
 226:lib/UI.c      ****         }        
 227:lib/UI.c      ****     }
 228:lib/UI.c      **** }
 1184              		.loc 1 228 0 is_stmt 1
 1185 00de 0BB0     		add	sp, sp, #44
 1186              		@ sp needed
 1187              	.LVL145:
 1188              	.LVL146:
 1189              	.LVL147:
 1190              	.LVL148:
 1191 00e0 3CBC     		pop	{r2, r3, r4, r5}
 1192 00e2 9046     		mov	r8, r2
 1193 00e4 9946     		mov	r9, r3
 1194 00e6 A246     		mov	r10, r4
 1195 00e8 AB46     		mov	fp, r5
 1196 00ea F0BD     		pop	{r4, r5, r6, r7, pc}
 1197              		.cfi_endproc
 1198              	.LFE75:
 1199              		.size	LCD_DrawFont, .-LCD_DrawFont
 1200              		.section	.text.LCD_printf,"ax",%progbits
 1201              		.align	2
 1202              		.global	LCD_printf
 1203              		.code	16
 1204              		.thumb_func
 1205              		.type	LCD_printf, %function
 1206              	LCD_printf:
 1207              	.LFB76:
 229:lib/UI.c      **** 
 230:lib/UI.c      **** void LCD_printf(uint16 xPos, uint16 yPos, uint16 foregroundColor, uint16 backgroundColor, fontdatat
 231:lib/UI.c      **** {
 1208              		.loc 1 231 0
 1209              		.cfi_startproc
 1210              		@ args = 8, pretend = 0, frame = 152
 1211              		@ frame_needed = 0, uses_anonymous_args = 1
 1212              	.LVL149:
 1213 0000 F0B5     		push	{r4, r5, r6, r7, lr}
 1214              		.cfi_def_cfa_offset 20
ARM GAS  C:\Users\luvsd\AppData\Local\Temp\ccolYuxf.s 			page 27


 1215              		.cfi_offset 4, -20
 1216              		.cfi_offset 5, -16
 1217              		.cfi_offset 6, -12
 1218              		.cfi_offset 7, -8
 1219              		.cfi_offset 14, -4
 1220 0002 5F46     		mov	r7, fp
 1221 0004 80B4     		push	{r7}
 1222              		.cfi_def_cfa_offset 24
 1223              		.cfi_offset 11, -24
 1224 0006 A8B0     		sub	sp, sp, #160
 1225              		.cfi_def_cfa_offset 184
 1226 0008 8346     		mov	fp, r0
 1227 000a 0391     		str	r1, [sp, #12]
 1228 000c 0492     		str	r2, [sp, #16]
 1229 000e 0593     		str	r3, [sp, #20]
 1230 0010 2E9F     		ldr	r7, [sp, #184]
 232:lib/UI.c      ****     va_list ap;
 233:lib/UI.c      ****     char buff[128];
 234:lib/UI.c      ****     
 235:lib/UI.c      ****     va_start(ap, fmt);
 1231              		.loc 1 235 0
 1232 0012 30AA     		add	r2, sp, #192
 1233              	.LVL150:
 1234 0014 2792     		str	r2, [sp, #156]
 236:lib/UI.c      **** 
 237:lib/UI.c      ****     vsprintf(buff, fmt, ap);
 1235              		.loc 1 237 0
 1236 0016 2F99     		ldr	r1, [sp, #188]
 1237              	.LVL151:
 1238 0018 07A8     		add	r0, sp, #28
 1239              	.LVL152:
 1240 001a FFF7FEFF 		bl	vsprintf
 1241              	.LVL153:
 238:lib/UI.c      ****     va_end(ap);
 239:lib/UI.c      ****         
 240:lib/UI.c      ****     uint16 xInterval = font[FONT_WIDTH];
 1242              		.loc 1 240 0
 1243 001e 3E78     		ldrb	r6, [r7]
 1244              	.LVL154:
 241:lib/UI.c      ****     uint16 nLength = strlen(buff);
 1245              		.loc 1 241 0
 1246 0020 07A8     		add	r0, sp, #28
 1247 0022 FFF7FEFF 		bl	strlen
 1248              	.LVL155:
 1249 0026 85B2     		uxth	r5, r0
 1250              	.LVL156:
 1251              	.LBB13:
 242:lib/UI.c      **** 
 243:lib/UI.c      ****     for(uint16 i=0; i < nLength; i++)
 1252              		.loc 1 243 0
 1253 0028 0024     		movs	r4, #0
 1254 002a 0EE0     		b	.L69
 1255              	.LVL157:
 1256              	.L70:
 244:lib/UI.c      ****     {
 245:lib/UI.c      ****         LCD_DrawFont(xPos + xInterval * i, yPos, foregroundColor, backgroundColor, font, buff[i]);
 1257              		.loc 1 245 0 discriminator 3
ARM GAS  C:\Users\luvsd\AppData\Local\Temp\ccolYuxf.s 			page 28


 1258 002c 3000     		movs	r0, r6
 1259 002e 6043     		muls	r0, r4
 1260 0030 5844     		add	r0, r0, fp
 1261 0032 80B2     		uxth	r0, r0
 1262 0034 07AB     		add	r3, sp, #28
 1263 0036 1B5D     		ldrb	r3, [r3, r4]
 1264 0038 0193     		str	r3, [sp, #4]
 1265 003a 0097     		str	r7, [sp]
 1266 003c 059B     		ldr	r3, [sp, #20]
 1267 003e 049A     		ldr	r2, [sp, #16]
 1268 0040 0399     		ldr	r1, [sp, #12]
 1269 0042 FFF7FEFF 		bl	LCD_DrawFont
 1270              	.LVL158:
 243:lib/UI.c      ****     {
 1271              		.loc 1 243 0 discriminator 3
 1272 0046 0134     		adds	r4, r4, #1
 1273              	.LVL159:
 1274 0048 A4B2     		uxth	r4, r4
 1275              	.LVL160:
 1276              	.L69:
 243:lib/UI.c      ****     {
 1277              		.loc 1 243 0 is_stmt 0 discriminator 1
 1278 004a AC42     		cmp	r4, r5
 1279 004c EED3     		bcc	.L70
 1280              	.LBE13:
 246:lib/UI.c      ****     }     
 247:lib/UI.c      **** }
 1281              		.loc 1 247 0 is_stmt 1
 1282 004e 28B0     		add	sp, sp, #160
 1283              		@ sp needed
 1284              	.LVL161:
 1285              	.LVL162:
 1286              	.LVL163:
 1287 0050 04BC     		pop	{r2}
 1288 0052 9346     		mov	fp, r2
 1289 0054 F0BD     		pop	{r4, r5, r6, r7, pc}
 1290              		.cfi_endproc
 1291              	.LFE76:
 1292              		.size	LCD_printf, .-LCD_printf
 1293              		.global	__aeabi_d2uiz
 1294 0056 C046     		.section	.text.CalculationOfLocationForString,"ax",%progbits
 1295              		.align	2
 1296              		.global	CalculationOfLocationForString
 1297              		.code	16
 1298              		.thumb_func
 1299              		.type	CalculationOfLocationForString, %function
 1300              	CalculationOfLocationForString:
 1301              	.LFB77:
 248:lib/UI.c      **** 
 249:lib/UI.c      **** POINT CalculationOfLocationForString(RECT boundingBox, uint16 font_width, uint16 font_height, uint1
 250:lib/UI.c      **** {
 1302              		.loc 1 250 0
 1303              		.cfi_startproc
 1304              		@ args = 20, pretend = 0, frame = 16
 1305              		@ frame_needed = 0, uses_anonymous_args = 0
 1306              	.LVL164:
 1307 0000 70B5     		push	{r4, r5, r6, lr}
ARM GAS  C:\Users\luvsd\AppData\Local\Temp\ccolYuxf.s 			page 29


 1308              		.cfi_def_cfa_offset 16
 1309              		.cfi_offset 4, -16
 1310              		.cfi_offset 5, -12
 1311              		.cfi_offset 6, -8
 1312              		.cfi_offset 14, -4
 1313 0002 84B0     		sub	sp, sp, #16
 1314              		.cfi_def_cfa_offset 32
 1315 0004 0090     		str	r0, [sp]
 1316 0006 0191     		str	r1, [sp, #4]
 1317 0008 1D00     		movs	r5, r3
 1318 000a 08AB     		add	r3, sp, #32
 1319              	.LVL165:
 1320 000c 1888     		ldrh	r0, [r3]
 1321 000e 09AB     		add	r3, sp, #36
 1322              	.LVL166:
 1323 0010 1E88     		ldrh	r6, [r3]
 1324 0012 0AAB     		add	r3, sp, #40
 1325              	.LVL167:
 1326 0014 1988     		ldrh	r1, [r3]
 1327 0016 0BAB     		add	r3, sp, #44
 1328              	.LVL168:
 1329 0018 1B78     		ldrb	r3, [r3]
 1330              	.LVL169:
 1331 001a 0CAC     		add	r4, sp, #48
 1332              	.LVL170:
 1333 001c 2478     		ldrb	r4, [r4]
 1334              	.LVL171:
 251:lib/UI.c      ****     POINT startPos;
 252:lib/UI.c      ****     switch(horizontalAlign)
 1335              		.loc 1 252 0
 1336 001e 012B     		cmp	r3, #1
 1337 0020 04D0     		beq	.L73
 1338 0022 002B     		cmp	r3, #0
 1339 0024 10D0     		beq	.L74
 1340 0026 022B     		cmp	r3, #2
 1341 0028 06D0     		beq	.L75
 1342 002a 1DE0     		b	.L72
 1343              	.L73:
 253:lib/UI.c      ****     {
 254:lib/UI.c      ****         case TEXT_ALIGN_LEFT:   startPos.x = boundingBox.left + marginLeftRight;                   
 1344              		.loc 1 254 0
 1345 002c 6B46     		mov	r3, sp
 1346 002e 1988     		ldrh	r1, [r3]
 1347 0030 0918     		adds	r1, r1, r0
 1348 0032 02AB     		add	r3, sp, #8
 1349 0034 1980     		strh	r1, [r3]
 1350 0036 17E0     		b	.L72
 1351              	.L75:
 255:lib/UI.c      ****         case TEXT_ALIGN_RIGHT:  startPos.x = boundingBox.right - font_width*strlength - marginLeftR
 1352              		.loc 1 255 0
 1353 0038 6B46     		mov	r3, sp
 1354 003a 5B88     		ldrh	r3, [r3, #2]
 1355 003c 5143     		muls	r1, r2
 1356 003e 591A     		subs	r1, r3, r1
 1357 0040 091A     		subs	r1, r1, r0
 1358 0042 02AB     		add	r3, sp, #8
 1359 0044 1980     		strh	r1, [r3]
ARM GAS  C:\Users\luvsd\AppData\Local\Temp\ccolYuxf.s 			page 30


 1360 0046 0FE0     		b	.L72
 1361              	.L74:
 256:lib/UI.c      ****         case TEXT_ALIGN_CENTER: startPos.x = ((boundingBox.right + boundingBox.left) - font_width*s
 1362              		.loc 1 256 0
 1363 0048 6B46     		mov	r3, sp
 1364 004a 5888     		ldrh	r0, [r3, #2]
 1365 004c 1B88     		ldrh	r3, [r3]
 1366 004e C018     		adds	r0, r0, r3
 1367 0050 5143     		muls	r1, r2
 1368 0052 401A     		subs	r0, r0, r1
 1369 0054 FFF7FEFF 		bl	__aeabi_i2d
 1370              	.LVL172:
 1371 0058 0022     		movs	r2, #0
 1372 005a 184B     		ldr	r3, .L80
 1373 005c FFF7FEFF 		bl	__aeabi_dmul
 1374              	.LVL173:
 1375 0060 FFF7FEFF 		bl	__aeabi_d2uiz
 1376              	.LVL174:
 1377 0064 02AB     		add	r3, sp, #8
 1378 0066 1880     		strh	r0, [r3]
 1379              	.L72:
 257:lib/UI.c      ****     }
 258:lib/UI.c      ****     switch(verticallAlign)
 1380              		.loc 1 258 0
 1381 0068 052C     		cmp	r4, #5
 1382 006a 10D0     		beq	.L77
 1383 006c 062C     		cmp	r4, #6
 1384 006e 07D0     		beq	.L78
 1385 0070 042C     		cmp	r4, #4
 1386 0072 1BD1     		bne	.L76
 259:lib/UI.c      ****     {
 260:lib/UI.c      ****         case TEXT_ALIGN_TOP:     startPos.y = boundingBox.top + marginTopBottom;                  b
 1387              		.loc 1 260 0
 1388 0074 6B46     		mov	r3, sp
 1389 0076 9D88     		ldrh	r5, [r3, #4]
 1390 0078 AE19     		adds	r6, r5, r6
 1391 007a 02AB     		add	r3, sp, #8
 1392 007c 5E80     		strh	r6, [r3, #2]
 1393 007e 15E0     		b	.L76
 1394              	.L78:
 261:lib/UI.c      ****         case TEXT_ALIGN_BOTTOM:  startPos.y = boundingBox.bottom - font_height - marginTopBottom; b
 1395              		.loc 1 261 0
 1396 0080 6B46     		mov	r3, sp
 1397 0082 D888     		ldrh	r0, [r3, #6]
 1398 0084 451B     		subs	r5, r0, r5
 1399 0086 AE1B     		subs	r6, r5, r6
 1400 0088 02AB     		add	r3, sp, #8
 1401 008a 5E80     		strh	r6, [r3, #2]
 1402 008c 0EE0     		b	.L76
 1403              	.L77:
 262:lib/UI.c      ****         case TEXT_ALIGN_MIDDLE:  startPos.y = ((boundingBox.bottom + boundingBox.top) - font_height
 1404              		.loc 1 262 0
 1405 008e 6B46     		mov	r3, sp
 1406 0090 D888     		ldrh	r0, [r3, #6]
 1407 0092 9B88     		ldrh	r3, [r3, #4]
 1408 0094 C018     		adds	r0, r0, r3
 1409 0096 401B     		subs	r0, r0, r5
ARM GAS  C:\Users\luvsd\AppData\Local\Temp\ccolYuxf.s 			page 31


 1410 0098 FFF7FEFF 		bl	__aeabi_i2d
 1411              	.LVL175:
 1412 009c 0022     		movs	r2, #0
 1413 009e 074B     		ldr	r3, .L80
 1414 00a0 FFF7FEFF 		bl	__aeabi_dmul
 1415              	.LVL176:
 1416 00a4 FFF7FEFF 		bl	__aeabi_d2uiz
 1417              	.LVL177:
 1418 00a8 02AB     		add	r3, sp, #8
 1419 00aa 5880     		strh	r0, [r3, #2]
 1420              	.L76:
 263:lib/UI.c      ****     }
 264:lib/UI.c      ****     return startPos;
 1421              		.loc 1 264 0
 1422 00ac 029B     		ldr	r3, [sp, #8]
 1423 00ae 180C     		lsrs	r0, r3, #16
 1424 00b0 0004     		lsls	r0, r0, #16
 1425 00b2 1B04     		lsls	r3, r3, #16
 1426 00b4 1B0C     		lsrs	r3, r3, #16
 1427 00b6 1843     		orrs	r0, r3
 265:lib/UI.c      **** }
 1428              		.loc 1 265 0
 1429 00b8 04B0     		add	sp, sp, #16
 1430              		@ sp needed
 1431 00ba 70BD     		pop	{r4, r5, r6, pc}
 1432              	.L81:
 1433              		.align	2
 1434              	.L80:
 1435 00bc 0000E03F 		.word	1071644672
 1436              		.cfi_endproc
 1437              	.LFE77:
 1438              		.size	CalculationOfLocationForString, .-CalculationOfLocationForString
 1439              		.section	.text.GetTouch,"ax",%progbits
 1440              		.align	2
 1441              		.global	GetTouch
 1442              		.code	16
 1443              		.thumb_func
 1444              		.type	GetTouch, %function
 1445              	GetTouch:
 1446              	.LFB78:
 266:lib/UI.c      **** 
 267:lib/UI.c      **** 
 268:lib/UI.c      **** TOUCH GetTouch()
 269:lib/UI.c      **** {
 1447              		.loc 1 269 0
 1448              		.cfi_startproc
 1449              		@ args = 0, pretend = 0, frame = 0
 1450              		@ frame_needed = 0, uses_anonymous_args = 0
 1451              	.LVL178:
 1452 0000 10B5     		push	{r4, lr}
 1453              		.cfi_def_cfa_offset 8
 1454              		.cfi_offset 4, -8
 1455              		.cfi_offset 14, -4
 1456 0002 0400     		movs	r4, r0
 270:lib/UI.c      ****     TOUCH touch = {
 1457              		.loc 1 270 0
 1458 0004 0023     		movs	r3, #0
ARM GAS  C:\Users\luvsd\AppData\Local\Temp\ccolYuxf.s 			page 32


 1459 0006 0380     		strh	r3, [r0]
 1460 0008 4380     		strh	r3, [r0, #2]
 1461 000a 8380     		strh	r3, [r0, #4]
 271:lib/UI.c      ****         .isClick = FALSE,
 272:lib/UI.c      ****         .point.x       = 0,
 273:lib/UI.c      ****         .point.y       = 0,
 274:lib/UI.c      ****     };
 275:lib/UI.c      ****     
 276:lib/UI.c      ****     static uint8 isUpStat = TRUE;
 277:lib/UI.c      ****     static uint8 oldRead = 0, read;
 278:lib/UI.c      **** 
 279:lib/UI.c      ****     read = ~TC_INT_Read() & 0x01;
 1462              		.loc 1 279 0
 1463 000c FFF7FEFF 		bl	TC_INT_Read
 1464              	.LVL179:
 1465 0010 0123     		movs	r3, #1
 1466 0012 5840     		eors	r0, r3
 1467 0014 0123     		movs	r3, #1
 1468 0016 1840     		ands	r0, r3
 1469 0018 194B     		ldr	r3, .L85
 1470 001a 1875     		strb	r0, [r3, #20]
 280:lib/UI.c      ****     
 281:lib/UI.c      ****     if(oldRead == 0 && read == 1)
 1471              		.loc 1 281 0
 1472 001c 5B7D     		ldrb	r3, [r3, #21]
 1473 001e 002B     		cmp	r3, #0
 1474 0020 1FD1     		bne	.L83
 1475              		.loc 1 281 0 is_stmt 0 discriminator 1
 1476 0022 0128     		cmp	r0, #1
 1477 0024 1DD1     		bne	.L83
 282:lib/UI.c      ****     {
 283:lib/UI.c      ****         resetCounter_1ms(g_index_touch_counter);
 1478              		.loc 1 283 0 is_stmt 1
 1479 0026 174B     		ldr	r3, .L85+4
 1480 0028 1878     		ldrb	r0, [r3]
 1481 002a FFF7FEFF 		bl	resetCounter_1ms
 1482              	.LVL180:
 284:lib/UI.c      ****         //tc_no_touch_count = 100;
 285:lib/UI.c      ****         
 286:lib/UI.c      ****         if(isUpStat)
 1483              		.loc 1 286 0
 1484 002e 164B     		ldr	r3, .L85+8
 1485 0030 9B79     		ldrb	r3, [r3, #6]
 1486 0032 002B     		cmp	r3, #0
 1487 0034 1ED0     		beq	.L84
 287:lib/UI.c      ****         {
 288:lib/UI.c      ****             TouchGetPosition();
 1488              		.loc 1 288 0
 1489 0036 FFF7FEFF 		bl	TouchGetPosition
 1490              	.LVL181:
 289:lib/UI.c      ****             if(touchActive)
 1491              		.loc 1 289 0
 1492 003a 144B     		ldr	r3, .L85+12
 1493 003c 1B78     		ldrb	r3, [r3]
 1494 003e 002B     		cmp	r3, #0
 1495 0040 18D0     		beq	.L84
 290:lib/UI.c      ****             {
ARM GAS  C:\Users\luvsd\AppData\Local\Temp\ccolYuxf.s 			page 33


 291:lib/UI.c      ****                 touch.point = MapToScreenCoordinate(ParamTouch.x[0], ParamTouch.y[0]);
 1496              		.loc 1 291 0
 1497 0042 134B     		ldr	r3, .L85+16
 1498 0044 5888     		ldrh	r0, [r3, #2]
 1499 0046 9989     		ldrh	r1, [r3, #12]
 1500 0048 FFF7FEFF 		bl	MapToScreenCoordinate
 1501              	.LVL182:
 1502 004c 6080     		strh	r0, [r4, #2]
 1503 004e 000C     		lsrs	r0, r0, #16
 1504 0050 A080     		strh	r0, [r4, #4]
 292:lib/UI.c      ****                 
 293:lib/UI.c      ****                 touch.isClick = TRUE;
 1505              		.loc 1 293 0
 1506 0052 0123     		movs	r3, #1
 1507 0054 2380     		strh	r3, [r4]
 294:lib/UI.c      ****                 isUpStat = FALSE;  
 1508              		.loc 1 294 0
 1509 0056 0023     		movs	r3, #0
 1510 0058 0B4A     		ldr	r2, .L85+8
 1511 005a 9371     		strb	r3, [r2, #6]
 295:lib/UI.c      ****                 
 296:lib/UI.c      ****                 touchActive = 0;                
 1512              		.loc 1 296 0
 1513 005c 0B4A     		ldr	r2, .L85+12
 1514 005e 1370     		strb	r3, [r2]
 1515 0060 08E0     		b	.L84
 1516              	.L83:
 297:lib/UI.c      ****             }
 298:lib/UI.c      ****         }
 299:lib/UI.c      ****         
 300:lib/UI.c      ****     }
 301:lib/UI.c      ****     else
 302:lib/UI.c      ****     {
 303:lib/UI.c      ****         if(isFinishCounter_1ms(g_index_touch_counter))
 1517              		.loc 1 303 0
 1518 0062 084B     		ldr	r3, .L85+4
 1519 0064 1878     		ldrb	r0, [r3]
 1520 0066 FFF7FEFF 		bl	isFinishCounter_1ms
 1521              	.LVL183:
 1522 006a 0028     		cmp	r0, #0
 1523 006c 02D0     		beq	.L84
 304:lib/UI.c      ****         {
 305:lib/UI.c      ****             //tc_no_touch_count = 0;
 306:lib/UI.c      ****             isUpStat = TRUE;
 1524              		.loc 1 306 0
 1525 006e 0122     		movs	r2, #1
 1526 0070 054B     		ldr	r3, .L85+8
 1527 0072 9A71     		strb	r2, [r3, #6]
 1528              	.L84:
 307:lib/UI.c      ****         }   
 308:lib/UI.c      ****     }
 309:lib/UI.c      ****         
 310:lib/UI.c      ****     oldRead = read;
 1529              		.loc 1 310 0
 1530 0074 024B     		ldr	r3, .L85
 1531 0076 1A7D     		ldrb	r2, [r3, #20]
 1532 0078 5A75     		strb	r2, [r3, #21]
ARM GAS  C:\Users\luvsd\AppData\Local\Temp\ccolYuxf.s 			page 34


 311:lib/UI.c      ****     return touch;
 312:lib/UI.c      **** }
 1533              		.loc 1 312 0
 1534 007a 2000     		movs	r0, r4
 1535              		@ sp needed
 1536              	.LVL184:
 1537 007c 10BD     		pop	{r4, pc}
 1538              	.L86:
 1539 007e C046     		.align	2
 1540              	.L85:
 1541 0080 00000000 		.word	.LANCHOR0
 1542 0084 00000000 		.word	g_index_touch_counter
 1543 0088 00000000 		.word	.LANCHOR1
 1544 008c 00000000 		.word	touchActive
 1545 0090 00000000 		.word	ParamTouch
 1546              		.cfi_endproc
 1547              	.LFE78:
 1548              		.size	GetTouch, .-GetTouch
 1549              		.section	.text.isPointInRect,"ax",%progbits
 1550              		.align	2
 1551              		.global	isPointInRect
 1552              		.code	16
 1553              		.thumb_func
 1554              		.type	isPointInRect, %function
 1555              	isPointInRect:
 1556              	.LFB79:
 313:lib/UI.c      **** 
 314:lib/UI.c      **** 
 315:lib/UI.c      **** uint8 isPointInRect(RECT *r, POINT pt)
 316:lib/UI.c      **** {
 1557              		.loc 1 316 0
 1558              		.cfi_startproc
 1559              		@ args = 0, pretend = 0, frame = 8
 1560              		@ frame_needed = 0, uses_anonymous_args = 0
 1561              		@ link register save eliminated.
 1562              	.LVL185:
 1563 0000 82B0     		sub	sp, sp, #8
 1564              		.cfi_def_cfa_offset 8
 1565 0002 0191     		str	r1, [sp, #4]
 317:lib/UI.c      ****     if(pt.x < r->left)   return FALSE;
 1566              		.loc 1 317 0
 1567 0004 89B2     		uxth	r1, r1
 1568 0006 0388     		ldrh	r3, [r0]
 1569 0008 9942     		cmp	r1, r3
 1570 000a 0CD3     		bcc	.L89
 318:lib/UI.c      ****     if(pt.x > r->right)  return FALSE;
 1571              		.loc 1 318 0
 1572 000c 4388     		ldrh	r3, [r0, #2]
 1573 000e 9942     		cmp	r1, r3
 1574 0010 0BD8     		bhi	.L90
 319:lib/UI.c      ****     if(pt.y < r->top)    return FALSE;
 1575              		.loc 1 319 0
 1576 0012 01AB     		add	r3, sp, #4
 1577 0014 5B88     		ldrh	r3, [r3, #2]
 1578 0016 8288     		ldrh	r2, [r0, #4]
 1579 0018 9342     		cmp	r3, r2
 1580 001a 08D3     		bcc	.L91
ARM GAS  C:\Users\luvsd\AppData\Local\Temp\ccolYuxf.s 			page 35


 320:lib/UI.c      ****     if(pt.y > r->bottom) return FALSE;
 1581              		.loc 1 320 0
 1582 001c C288     		ldrh	r2, [r0, #6]
 1583 001e 9342     		cmp	r3, r2
 1584 0020 07D9     		bls	.L92
 1585 0022 0020     		movs	r0, #0
 1586              	.LVL186:
 1587 0024 06E0     		b	.L88
 1588              	.LVL187:
 1589              	.L89:
 317:lib/UI.c      ****     if(pt.x > r->right)  return FALSE;
 1590              		.loc 1 317 0
 1591 0026 0020     		movs	r0, #0
 1592              	.LVL188:
 1593 0028 04E0     		b	.L88
 1594              	.LVL189:
 1595              	.L90:
 318:lib/UI.c      ****     if(pt.y < r->top)    return FALSE;
 1596              		.loc 1 318 0
 1597 002a 0020     		movs	r0, #0
 1598              	.LVL190:
 1599 002c 02E0     		b	.L88
 1600              	.LVL191:
 1601              	.L91:
 319:lib/UI.c      ****     if(pt.y > r->bottom) return FALSE;
 1602              		.loc 1 319 0
 1603 002e 0020     		movs	r0, #0
 1604              	.LVL192:
 1605 0030 00E0     		b	.L88
 1606              	.LVL193:
 1607              	.L92:
 321:lib/UI.c      ****     return TRUE;
 1608              		.loc 1 321 0
 1609 0032 0120     		movs	r0, #1
 1610              	.LVL194:
 1611              	.L88:
 322:lib/UI.c      **** }
 1612              		.loc 1 322 0
 1613 0034 02B0     		add	sp, sp, #8
 1614              		@ sp needed
 1615 0036 7047     		bx	lr
 1616              		.cfi_endproc
 1617              	.LFE79:
 1618              		.size	isPointInRect, .-isPointInRect
 1619              		.section	.text.Buzzer,"ax",%progbits
 1620              		.align	2
 1621              		.global	Buzzer
 1622              		.code	16
 1623              		.thumb_func
 1624              		.type	Buzzer, %function
 1625              	Buzzer:
 1626              	.LFB80:
 323:lib/UI.c      **** 
 324:lib/UI.c      **** 
 325:lib/UI.c      **** 
 326:lib/UI.c      **** BUZZER_CONTROL g_BuzzerControl = {
 327:lib/UI.c      ****     .uDownCount = 0,
ARM GAS  C:\Users\luvsd\AppData\Local\Temp\ccolYuxf.s 			page 36


 328:lib/UI.c      ****     .uUpCount   = 0,
 329:lib/UI.c      ****     .uInterate  = 0,
 330:lib/UI.c      ****     .type       = BUZZER_STOP,
 331:lib/UI.c      **** };
 332:lib/UI.c      **** 
 333:lib/UI.c      **** void Buzzer(uint8 type, uint16 noOfInterate)
 334:lib/UI.c      **** {
 1627              		.loc 1 334 0
 1628              		.cfi_startproc
 1629              		@ args = 0, pretend = 0, frame = 0
 1630              		@ frame_needed = 0, uses_anonymous_args = 0
 1631              	.LVL195:
 1632 0000 10B5     		push	{r4, lr}
 1633              		.cfi_def_cfa_offset 8
 1634              		.cfi_offset 4, -8
 1635              		.cfi_offset 14, -4
 335:lib/UI.c      ****     switch(g_BuzzerControl.type = type)
 1636              		.loc 1 335 0
 1637 0002 80B2     		uxth	r0, r0
 1638              	.LVL196:
 1639 0004 194B     		ldr	r3, .L103
 1640 0006 D883     		strh	r0, [r3, #30]
 1641 0008 0628     		cmp	r0, #6
 1642 000a 2DD8     		bhi	.L93
 1643 000c 8000     		lsls	r0, r0, #2
 1644 000e 184B     		ldr	r3, .L103+4
 1645 0010 1B58     		ldr	r3, [r3, r0]
 1646 0012 9F46     		mov	pc, r3
 1647              		.section	.rodata
 1648              		.align	2
 1649              	.L96:
 1650 0000 14000000 		.word	.L95
 1651 0004 26000000 		.word	.L97
 1652 0008 2E000000 		.word	.L98
 1653 000c 38000000 		.word	.L99
 1654 0010 48000000 		.word	.L100
 1655 0014 52000000 		.word	.L101
 1656 0018 62000000 		.word	.L102
 1657              		.section	.text.Buzzer
 1658              	.L95:
 336:lib/UI.c      ****     {
 337:lib/UI.c      ****         case BUZZER_STOP:        
 338:lib/UI.c      ****             g_BuzzerControl.uDownCount = 0;
 1659              		.loc 1 338 0
 1660 0014 154B     		ldr	r3, .L103
 1661 0016 0022     		movs	r2, #0
 1662 0018 1A83     		strh	r2, [r3, #24]
 339:lib/UI.c      ****             g_BuzzerControl.uUpCount = 0;
 1663              		.loc 1 339 0
 1664 001a 5A83     		strh	r2, [r3, #26]
 340:lib/UI.c      ****             g_BuzzerControl.uInterate = 0;
 1665              		.loc 1 340 0
 1666 001c 9A83     		strh	r2, [r3, #28]
 341:lib/UI.c      ****             BUZZER_Write(FALSE);
 1667              		.loc 1 341 0
 1668 001e 0020     		movs	r0, #0
 1669 0020 FFF7FEFF 		bl	BUZZER_Write
ARM GAS  C:\Users\luvsd\AppData\Local\Temp\ccolYuxf.s 			page 37


 1670              	.LVL197:
 342:lib/UI.c      ****             break;
 1671              		.loc 1 342 0
 1672 0024 20E0     		b	.L93
 1673              	.LVL198:
 1674              	.L97:
 343:lib/UI.c      ****         case BUZZER_CLICK:
 344:lib/UI.c      ****             g_BuzzerControl.uDownCount = 50;
 1675              		.loc 1 344 0
 1676 0026 3222     		movs	r2, #50
 1677 0028 104B     		ldr	r3, .L103
 1678 002a 1A83     		strh	r2, [r3, #24]
 345:lib/UI.c      ****             break;
 1679              		.loc 1 345 0
 1680 002c 1CE0     		b	.L93
 1681              	.L98:
 346:lib/UI.c      ****         case BUZZER_WARNING:
 347:lib/UI.c      ****             g_BuzzerControl.uUpCount = 0;
 1682              		.loc 1 347 0
 1683 002e 0F4B     		ldr	r3, .L103
 1684 0030 0022     		movs	r2, #0
 1685 0032 5A83     		strh	r2, [r3, #26]
 348:lib/UI.c      ****             g_BuzzerControl.uInterate = noOfInterate;
 1686              		.loc 1 348 0
 1687 0034 9983     		strh	r1, [r3, #28]
 349:lib/UI.c      ****             break;
 1688              		.loc 1 349 0
 1689 0036 17E0     		b	.L93
 1690              	.L99:
 350:lib/UI.c      ****         case BUZZER_WARNING_CONTINUOUS:
 351:lib/UI.c      ****             g_BuzzerControl.uUpCount = 0;
 1691              		.loc 1 351 0
 1692 0038 0C4B     		ldr	r3, .L103
 1693 003a 0022     		movs	r2, #0
 1694 003c 5A83     		strh	r2, [r3, #26]
 352:lib/UI.c      ****             g_BuzzerControl.uInterate = UINT16_MAX;
 1695              		.loc 1 352 0
 1696 003e 013A     		subs	r2, r2, #1
 1697 0040 9A83     		strh	r2, [r3, #28]
 353:lib/UI.c      ****             g_BuzzerControl.type = BUZZER_WARNING;
 1698              		.loc 1 353 0
 1699 0042 0332     		adds	r2, r2, #3
 1700 0044 DA83     		strh	r2, [r3, #30]
 354:lib/UI.c      ****             break;            
 1701              		.loc 1 354 0
 1702 0046 0FE0     		b	.L93
 1703              	.L100:
 355:lib/UI.c      ****         case BUZZER_SHORT_WARNING:
 356:lib/UI.c      ****             g_BuzzerControl.uUpCount = 0;
 1704              		.loc 1 356 0
 1705 0048 084B     		ldr	r3, .L103
 1706 004a 0022     		movs	r2, #0
 1707 004c 5A83     		strh	r2, [r3, #26]
 357:lib/UI.c      ****             g_BuzzerControl.uInterate = noOfInterate;              
 1708              		.loc 1 357 0
 1709 004e 9983     		strh	r1, [r3, #28]
 358:lib/UI.c      ****             break;
ARM GAS  C:\Users\luvsd\AppData\Local\Temp\ccolYuxf.s 			page 38


 1710              		.loc 1 358 0
 1711 0050 0AE0     		b	.L93
 1712              	.L101:
 359:lib/UI.c      ****         case BUZZER_SHORT_WARNING_CONTINUOUS:
 360:lib/UI.c      ****             g_BuzzerControl.uUpCount = 0;
 1713              		.loc 1 360 0
 1714 0052 064B     		ldr	r3, .L103
 1715 0054 0022     		movs	r2, #0
 1716 0056 5A83     		strh	r2, [r3, #26]
 361:lib/UI.c      ****             g_BuzzerControl.uInterate = UINT16_MAX;  
 1717              		.loc 1 361 0
 1718 0058 013A     		subs	r2, r2, #1
 1719 005a 9A83     		strh	r2, [r3, #28]
 362:lib/UI.c      ****             g_BuzzerControl.type = BUZZER_SHORT_WARNING;            
 1720              		.loc 1 362 0
 1721 005c 0532     		adds	r2, r2, #5
 1722 005e DA83     		strh	r2, [r3, #30]
 363:lib/UI.c      ****             break;   
 1723              		.loc 1 363 0
 1724 0060 02E0     		b	.L93
 1725              	.L102:
 364:lib/UI.c      ****         case BUZZER_CONTINUOUS_BEEP:
 365:lib/UI.c      ****             BUZZER_Write(TRUE);            
 1726              		.loc 1 365 0
 1727 0062 0120     		movs	r0, #1
 1728 0064 FFF7FEFF 		bl	BUZZER_Write
 1729              	.LVL199:
 1730              	.L93:
 366:lib/UI.c      ****             break;
 367:lib/UI.c      ****     }
 368:lib/UI.c      **** }
 1731              		.loc 1 368 0
 1732              		@ sp needed
 1733 0068 10BD     		pop	{r4, pc}
 1734              	.L104:
 1735 006a C046     		.align	2
 1736              	.L103:
 1737 006c 00000000 		.word	.LANCHOR0
 1738 0070 00000000 		.word	.L96
 1739              		.cfi_endproc
 1740              	.LFE80:
 1741              		.size	Buzzer, .-Buzzer
 1742              		.section	.text.BuzzerTimer,"ax",%progbits
 1743              		.align	2
 1744              		.global	BuzzerTimer
 1745              		.code	16
 1746              		.thumb_func
 1747              		.type	BuzzerTimer, %function
 1748              	BuzzerTimer:
 1749              	.LFB81:
 369:lib/UI.c      **** 
 370:lib/UI.c      **** void BuzzerTimer()
 371:lib/UI.c      **** {
 1750              		.loc 1 371 0
 1751              		.cfi_startproc
 1752              		@ args = 0, pretend = 0, frame = 0
 1753              		@ frame_needed = 0, uses_anonymous_args = 0
ARM GAS  C:\Users\luvsd\AppData\Local\Temp\ccolYuxf.s 			page 39


 1754 0000 10B5     		push	{r4, lr}
 1755              		.cfi_def_cfa_offset 8
 1756              		.cfi_offset 4, -8
 1757              		.cfi_offset 14, -4
 372:lib/UI.c      ****     switch(g_BuzzerControl.type)
 1758              		.loc 1 372 0
 1759 0002 314B     		ldr	r3, .L121
 1760 0004 DB8B     		ldrh	r3, [r3, #30]
 1761 0006 022B     		cmp	r3, #2
 1762 0008 08D0     		beq	.L107
 1763 000a 02D8     		bhi	.L108
 1764 000c 002B     		cmp	r3, #0
 1765 000e 5AD0     		beq	.L105
 1766 0010 4AE0     		b	.L106
 1767              	.L108:
 1768 0012 042B     		cmp	r3, #4
 1769 0014 20D0     		beq	.L110
 1770 0016 062B     		cmp	r3, #6
 1771 0018 55D0     		beq	.L105
 1772 001a 45E0     		b	.L106
 1773              	.L107:
 373:lib/UI.c      ****     {
 374:lib/UI.c      ****         case BUZZER_STOP:
 375:lib/UI.c      ****         case BUZZER_CONTINUOUS_BEEP:
 376:lib/UI.c      ****             return;
 377:lib/UI.c      ****         case BUZZER_WARNING:
 378:lib/UI.c      ****             if(g_BuzzerControl.uInterate==0)
 1774              		.loc 1 378 0
 1775 001c 2A4B     		ldr	r3, .L121
 1776 001e 9B8B     		ldrh	r3, [r3, #28]
 1777 0020 002B     		cmp	r3, #0
 1778 0022 03D1     		bne	.L111
 379:lib/UI.c      ****             {
 380:lib/UI.c      ****                 g_BuzzerControl.type = BUZZER_STOP;
 1779              		.loc 1 380 0
 1780 0024 0022     		movs	r2, #0
 1781 0026 284B     		ldr	r3, .L121
 1782 0028 DA83     		strh	r2, [r3, #30]
 1783 002a 3DE0     		b	.L106
 1784              	.L111:
 381:lib/UI.c      ****             } else {
 382:lib/UI.c      ****                 switch(g_BuzzerControl.uUpCount++)
 1785              		.loc 1 382 0
 1786 002c 2649     		ldr	r1, .L121
 1787 002e 4A8B     		ldrh	r2, [r1, #26]
 1788 0030 501C     		adds	r0, r2, #1
 1789 0032 4883     		strh	r0, [r1, #26]
 1790 0034 002A     		cmp	r2, #0
 1791 0036 04D0     		beq	.L112
 1792 0038 FA21     		movs	r1, #250
 1793 003a 8900     		lsls	r1, r1, #2
 1794 003c 8A42     		cmp	r2, r1
 1795 003e 05D0     		beq	.L113
 1796 0040 32E0     		b	.L106
 1797              	.L112:
 383:lib/UI.c      ****                 {
 384:lib/UI.c      ****                     case    0: g_BuzzerControl.uDownCount = 500; break;                 
ARM GAS  C:\Users\luvsd\AppData\Local\Temp\ccolYuxf.s 			page 40


 1798              		.loc 1 384 0
 1799 0042 FA22     		movs	r2, #250
 1800 0044 5200     		lsls	r2, r2, #1
 1801 0046 204B     		ldr	r3, .L121
 1802 0048 1A83     		strh	r2, [r3, #24]
 1803 004a 2DE0     		b	.L106
 1804              	.L113:
 385:lib/UI.c      ****                     case 1000: g_BuzzerControl.uUpCount = 0;
 1805              		.loc 1 385 0
 1806 004c 1E4A     		ldr	r2, .L121
 1807 004e 0021     		movs	r1, #0
 1808 0050 5183     		strh	r1, [r2, #26]
 386:lib/UI.c      ****                                g_BuzzerControl.uInterate--;  
 1809              		.loc 1 386 0
 1810 0052 013B     		subs	r3, r3, #1
 1811 0054 9383     		strh	r3, [r2, #28]
 1812 0056 27E0     		b	.L106
 1813              	.L110:
 387:lib/UI.c      ****                 }                
 388:lib/UI.c      ****             }
 389:lib/UI.c      ****             break;    
 390:lib/UI.c      ****         case BUZZER_SHORT_WARNING:
 391:lib/UI.c      ****             if(g_BuzzerControl.uInterate==0)
 1814              		.loc 1 391 0
 1815 0058 1B4B     		ldr	r3, .L121
 1816 005a 9A8B     		ldrh	r2, [r3, #28]
 1817 005c 002A     		cmp	r2, #0
 1818 005e 01D1     		bne	.L114
 392:lib/UI.c      ****             {
 393:lib/UI.c      ****                 g_BuzzerControl.type = BUZZER_STOP;
 1819              		.loc 1 393 0
 1820 0060 DA83     		strh	r2, [r3, #30]
 1821 0062 21E0     		b	.L106
 1822              	.L114:
 394:lib/UI.c      ****             } else {
 395:lib/UI.c      ****                 switch(g_BuzzerControl.uUpCount++)
 1823              		.loc 1 395 0
 1824 0064 1849     		ldr	r1, .L121
 1825 0066 4B8B     		ldrh	r3, [r1, #26]
 1826 0068 581C     		adds	r0, r3, #1
 1827 006a 4883     		strh	r0, [r1, #26]
 1828 006c 642B     		cmp	r3, #100
 1829 006e 0ED0     		beq	.L115
 1830 0070 02D8     		bhi	.L116
 1831 0072 002B     		cmp	r3, #0
 1832 0074 07D0     		beq	.L117
 1833 0076 17E0     		b	.L106
 1834              	.L116:
 1835 0078 C82B     		cmp	r3, #200
 1836 007a 0CD0     		beq	.L118
 1837 007c FA21     		movs	r1, #250
 1838 007e 8900     		lsls	r1, r1, #2
 1839 0080 8B42     		cmp	r3, r1
 1840 0082 0CD0     		beq	.L119
 1841 0084 10E0     		b	.L106
 1842              	.L117:
 396:lib/UI.c      ****                 {
ARM GAS  C:\Users\luvsd\AppData\Local\Temp\ccolYuxf.s 			page 41


 397:lib/UI.c      ****                     case    0: g_BuzzerControl.uDownCount = 50; break;
 1843              		.loc 1 397 0
 1844 0086 3222     		movs	r2, #50
 1845 0088 0F4B     		ldr	r3, .L121
 1846 008a 1A83     		strh	r2, [r3, #24]
 1847 008c 0CE0     		b	.L106
 1848              	.L115:
 398:lib/UI.c      ****                     case  100: g_BuzzerControl.uDownCount = 50; break;
 1849              		.loc 1 398 0
 1850 008e 3222     		movs	r2, #50
 1851 0090 0D4B     		ldr	r3, .L121
 1852 0092 1A83     		strh	r2, [r3, #24]
 1853 0094 08E0     		b	.L106
 1854              	.L118:
 399:lib/UI.c      ****                     case  200: g_BuzzerControl.uDownCount = 50; break;                         
 1855              		.loc 1 399 0
 1856 0096 3222     		movs	r2, #50
 1857 0098 0B4B     		ldr	r3, .L121
 1858 009a 1A83     		strh	r2, [r3, #24]
 1859 009c 04E0     		b	.L106
 1860              	.L119:
 400:lib/UI.c      ****                     case 1000: g_BuzzerControl.uUpCount = 0;
 1861              		.loc 1 400 0
 1862 009e 0A4B     		ldr	r3, .L121
 1863 00a0 0021     		movs	r1, #0
 1864 00a2 5983     		strh	r1, [r3, #26]
 401:lib/UI.c      ****                                g_BuzzerControl.uInterate--;                    
 1865              		.loc 1 401 0
 1866 00a4 013A     		subs	r2, r2, #1
 1867 00a6 9A83     		strh	r2, [r3, #28]
 1868              	.L106:
 402:lib/UI.c      ****                     break;
 403:lib/UI.c      ****                 }                
 404:lib/UI.c      ****             }
 405:lib/UI.c      ****             break;              
 406:lib/UI.c      ****     }
 407:lib/UI.c      ****     
 408:lib/UI.c      ****     if(g_BuzzerControl.uDownCount)
 1869              		.loc 1 408 0
 1870 00a8 074B     		ldr	r3, .L121
 1871 00aa 1B8B     		ldrh	r3, [r3, #24]
 1872 00ac 002B     		cmp	r3, #0
 1873 00ae 07D0     		beq	.L120
 409:lib/UI.c      ****     {
 410:lib/UI.c      ****         BUZZER_Write(TRUE);
 1874              		.loc 1 410 0
 1875 00b0 0120     		movs	r0, #1
 1876 00b2 FFF7FEFF 		bl	BUZZER_Write
 1877              	.LVL200:
 411:lib/UI.c      ****         g_BuzzerControl.uDownCount--;
 1878              		.loc 1 411 0
 1879 00b6 044A     		ldr	r2, .L121
 1880 00b8 138B     		ldrh	r3, [r2, #24]
 1881 00ba 013B     		subs	r3, r3, #1
 1882 00bc 1383     		strh	r3, [r2, #24]
 1883 00be 02E0     		b	.L105
 1884              	.L120:
ARM GAS  C:\Users\luvsd\AppData\Local\Temp\ccolYuxf.s 			page 42


 412:lib/UI.c      ****     } else {
 413:lib/UI.c      ****         BUZZER_Write(FALSE);
 1885              		.loc 1 413 0
 1886 00c0 0020     		movs	r0, #0
 1887 00c2 FFF7FEFF 		bl	BUZZER_Write
 1888              	.LVL201:
 1889              	.L105:
 414:lib/UI.c      ****     }        
 415:lib/UI.c      **** }
 1890              		.loc 1 415 0
 1891              		@ sp needed
 1892 00c6 10BD     		pop	{r4, pc}
 1893              	.L122:
 1894              		.align	2
 1895              	.L121:
 1896 00c8 00000000 		.word	.LANCHOR0
 1897              		.cfi_endproc
 1898              	.LFE81:
 1899              		.size	BuzzerTimer, .-BuzzerTimer
 1900              		.section	.text.GetBodyArea,"ax",%progbits
 1901              		.align	2
 1902              		.global	GetBodyArea
 1903              		.code	16
 1904              		.thumb_func
 1905              		.type	GetBodyArea, %function
 1906              	GetBodyArea:
 1907              	.LFB82:
 416:lib/UI.c      **** 
 417:lib/UI.c      **** //void SetIconButton(ICON_BUTTON *btn, uint16 x, uint16 y, uint16 width, uint16 height, uint16 *ima
 418:lib/UI.c      **** //{
 419:lib/UI.c      **** //    btn->image = image;
 420:lib/UI.c      **** //    btn->rect.left = x;
 421:lib/UI.c      **** //    btn->rect.top = y;
 422:lib/UI.c      **** //    btn->rect.right = x + width - 1;
 423:lib/UI.c      **** //    btn->rect.bottom = y + height - 1;
 424:lib/UI.c      **** //}
 425:lib/UI.c      **** 
 426:lib/UI.c      **** RECT GetBodyArea()
 427:lib/UI.c      **** {
 1908              		.loc 1 427 0
 1909              		.cfi_startproc
 1910              		@ args = 0, pretend = 0, frame = 0
 1911              		@ frame_needed = 0, uses_anonymous_args = 0
 1912              		@ link register save eliminated.
 1913              	.LVL202:
 428:lib/UI.c      ****     RECT body;
 429:lib/UI.c      ****     body.top = (DEFAULT_TOP_TITLE_HEIGHT + 1);
 1914              		.loc 1 429 0
 1915 0000 2923     		movs	r3, #41
 1916 0002 8380     		strh	r3, [r0, #4]
 430:lib/UI.c      ****     body.left = 0;
 1917              		.loc 1 430 0
 1918 0004 0023     		movs	r3, #0
 1919 0006 0380     		strh	r3, [r0]
 431:lib/UI.c      ****     body.right = g_SCREEN_WIDTH;
 1920              		.loc 1 431 0
 1921 0008 044A     		ldr	r2, .L124
ARM GAS  C:\Users\luvsd\AppData\Local\Temp\ccolYuxf.s 			page 43


 1922 000a 1388     		ldrh	r3, [r2]
 1923 000c 4380     		strh	r3, [r0, #2]
 432:lib/UI.c      ****     body.bottom = g_SCREEN_HEIGHT-g_DEFAULT_BUTTON_HEIGHT-1;
 1924              		.loc 1 432 0
 1925 000e 5388     		ldrh	r3, [r2, #2]
 1926 0010 9288     		ldrh	r2, [r2, #4]
 1927 0012 9B1A     		subs	r3, r3, r2
 1928 0014 013B     		subs	r3, r3, #1
 1929 0016 C380     		strh	r3, [r0, #6]
 433:lib/UI.c      ****     return body;
 434:lib/UI.c      **** }
 1930              		.loc 1 434 0
 1931              		@ sp needed
 1932 0018 7047     		bx	lr
 1933              	.L125:
 1934 001a C046     		.align	2
 1935              	.L124:
 1936 001c 00000000 		.word	.LANCHOR1
 1937              		.cfi_endproc
 1938              	.LFE82:
 1939              		.size	GetBodyArea, .-GetBodyArea
 1940              		.section	.text.RectangleSizeShrink,"ax",%progbits
 1941              		.align	2
 1942              		.global	RectangleSizeShrink
 1943              		.code	16
 1944              		.thumb_func
 1945              		.type	RectangleSizeShrink, %function
 1946              	RectangleSizeShrink:
 1947              	.LFB83:
 435:lib/UI.c      **** 
 436:lib/UI.c      **** void RectangleSizeShrink(RECT *r, int16 left, int16 right, int16 up, int16 down) // width, heightņØ
 437:lib/UI.c      **** {
 1948              		.loc 1 437 0
 1949              		.cfi_startproc
 1950              		@ args = 4, pretend = 0, frame = 0
 1951              		@ frame_needed = 0, uses_anonymous_args = 0
 1952              	.LVL203:
 1953 0000 30B5     		push	{r4, r5, lr}
 1954              		.cfi_def_cfa_offset 12
 1955              		.cfi_offset 4, -12
 1956              		.cfi_offset 5, -8
 1957              		.cfi_offset 14, -4
 1958 0002 03AC     		add	r4, sp, #12
 1959              	.LVL204:
 1960 0004 0025     		movs	r5, #0
 1961 0006 645F     		ldrsh	r4, [r4, r5]
 1962              	.LVL205:
 438:lib/UI.c      ****     r->left   +=  left;
 1963              		.loc 1 438 0
 1964 0008 0588     		ldrh	r5, [r0]
 1965 000a 6918     		adds	r1, r5, r1
 1966              	.LVL206:
 1967 000c 0180     		strh	r1, [r0]
 439:lib/UI.c      ****     r->right  += right;
 1968              		.loc 1 439 0
 1969 000e 4188     		ldrh	r1, [r0, #2]
 1970 0010 8A18     		adds	r2, r1, r2
ARM GAS  C:\Users\luvsd\AppData\Local\Temp\ccolYuxf.s 			page 44


 1971              	.LVL207:
 1972 0012 4280     		strh	r2, [r0, #2]
 440:lib/UI.c      ****     r->top    +=    up;
 1973              		.loc 1 440 0
 1974 0014 8288     		ldrh	r2, [r0, #4]
 1975 0016 D318     		adds	r3, r2, r3
 1976              	.LVL208:
 1977 0018 8380     		strh	r3, [r0, #4]
 441:lib/UI.c      ****     r->bottom +=  down;    
 1978              		.loc 1 441 0
 1979 001a C388     		ldrh	r3, [r0, #6]
 1980 001c 1B19     		adds	r3, r3, r4
 1981 001e C380     		strh	r3, [r0, #6]
 442:lib/UI.c      **** }
 1982              		.loc 1 442 0
 1983              		@ sp needed
 1984 0020 30BD     		pop	{r4, r5, pc}
 1985              		.cfi_endproc
 1986              	.LFE83:
 1987              		.size	RectangleSizeShrink, .-RectangleSizeShrink
 1988 0022 C046     		.section	.text.initUI,"ax",%progbits
 1989              		.align	2
 1990              		.global	initUI
 1991              		.code	16
 1992              		.thumb_func
 1993              		.type	initUI, %function
 1994              	initUI:
 1995              	.LFB84:
 443:lib/UI.c      **** void initUI()
 444:lib/UI.c      **** {
 1996              		.loc 1 444 0
 1997              		.cfi_startproc
 1998              		@ args = 0, pretend = 0, frame = 0
 1999              		@ frame_needed = 0, uses_anonymous_args = 0
 2000 0000 10B5     		push	{r4, lr}
 2001              		.cfi_def_cfa_offset 8
 2002              		.cfi_offset 4, -8
 2003              		.cfi_offset 14, -4
 445:lib/UI.c      ****     g_index_touch_counter = registerCounter_1ms(50); // 50msļÅÖņĢł ņŚ░ņåŹņĀüņ£╝ļĪ£  touchĻ░Ć ļÉśņ¢┤
 2004              		.loc 1 445 0
 2005 0002 3220     		movs	r0, #50
 2006 0004 FFF7FEFF 		bl	registerCounter_1ms
 2007              	.LVL209:
 2008 0008 014B     		ldr	r3, .L128
 2009 000a 1870     		strb	r0, [r3]
 446:lib/UI.c      **** }
 2010              		.loc 1 446 0
 2011              		@ sp needed
 2012 000c 10BD     		pop	{r4, pc}
 2013              	.L129:
 2014 000e C046     		.align	2
 2015              	.L128:
 2016 0010 00000000 		.word	g_index_touch_counter
 2017              		.cfi_endproc
 2018              	.LFE84:
 2019              		.size	initUI, .-initUI
 2020              		.global	g_BuzzerControl
ARM GAS  C:\Users\luvsd\AppData\Local\Temp\ccolYuxf.s 			page 45


 2021              		.comm	g_index_touch_counter,1,1
 2022              		.global	g_SCREEN_HEIGHT
 2023              		.global	g_SCREEN_WIDTH
 2024              		.global	g_DEFAULT_BUTTON_HEIGHT
 2025              		.comm	Param,6,4
 2026              		.data
 2027              		.align	1
 2028              		.set	.LANCHOR1,. + 0
 2029              		.type	g_SCREEN_WIDTH, %object
 2030              		.size	g_SCREEN_WIDTH, 2
 2031              	g_SCREEN_WIDTH:
 2032 0000 F000     		.short	240
 2033              		.type	g_SCREEN_HEIGHT, %object
 2034              		.size	g_SCREEN_HEIGHT, 2
 2035              	g_SCREEN_HEIGHT:
 2036 0002 4001     		.short	320
 2037              		.type	g_DEFAULT_BUTTON_HEIGHT, %object
 2038              		.size	g_DEFAULT_BUTTON_HEIGHT, 2
 2039              	g_DEFAULT_BUTTON_HEIGHT:
 2040 0004 2E00     		.short	46
 2041              		.type	isUpStat.9284, %object
 2042              		.size	isUpStat.9284, 1
 2043              	isUpStat.9284:
 2044 0006 01       		.byte	1
 2045              		.bss
 2046              		.align	2
 2047              		.set	.LANCHOR0,. + 0
 2048              		.type	g_displayDir, %object
 2049              		.size	g_displayDir, 1
 2050              	g_displayDir:
 2051 0000 00       		.space	1
 2052 0001 000000   		.space	3
 2053              		.type	point.9109, %object
 2054              		.size	point.9109, 4
 2055              	point.9109:
 2056 0004 00000000 		.space	4
 2057              		.type	point.9114, %object
 2058              		.size	point.9114, 4
 2059              	point.9114:
 2060 0008 00000000 		.space	4
 2061              		.type	rect.9123, %object
 2062              		.size	rect.9123, 8
 2063              	rect.9123:
 2064 000c 00000000 		.space	8
 2064      00000000 
 2065              		.type	read.9286, %object
 2066              		.size	read.9286, 1
 2067              	read.9286:
 2068 0014 00       		.space	1
 2069              		.type	oldRead.9285, %object
 2070              		.size	oldRead.9285, 1
 2071              	oldRead.9285:
 2072 0015 00       		.space	1
 2073 0016 0000     		.space	2
 2074              		.type	g_BuzzerControl, %object
 2075              		.size	g_BuzzerControl, 8
 2076              	g_BuzzerControl:
ARM GAS  C:\Users\luvsd\AppData\Local\Temp\ccolYuxf.s 			page 46


 2077 0018 00000000 		.space	8
 2077      00000000 
 2078              		.text
 2079              	.Letext0:
 2080              		.file 2 "c:\\program files (x86)\\cypress\\psoc creator\\4.4\\psoc creator\\import\\gnu\\arm\\5.4.
 2081              		.file 3 "c:\\program files (x86)\\cypress\\psoc creator\\4.4\\psoc creator\\import\\gnu\\arm\\5.4.
 2082              		.file 4 "Generated_Source\\PSoC4/cytypes.h"
 2083              		.file 5 "c:\\program files (x86)\\cypress\\psoc creator\\4.4\\psoc creator\\import\\gnu\\arm\\5.4.
 2084              		.file 6 "<built-in>"
 2085              		.file 7 "./main.h"
 2086              		.file 8 "lib\\UI.h"
 2087              		.file 9 "lib\\FT5x46.h"
 2088              		.file 10 "lib\\fonts.h"
 2089              		.file 11 "Generated_Source\\PSoC4/RTC.h"
 2090              		.file 12 "lib\\ST7789V.h"
 2091              		.file 13 "c:\\program files (x86)\\cypress\\psoc creator\\4.4\\psoc creator\\import\\gnu\\arm\\5.4
 2092              		.file 14 "c:\\program files (x86)\\cypress\\psoc creator\\4.4\\psoc creator\\import\\gnu\\arm\\5.4
 2093              		.file 15 "Generated_Source\\PSoC4/TC_INT.h"
 2094              		.file 16 "lib\\sysTick.h"
 2095              		.file 17 "Generated_Source\\PSoC4/BUZZER.h"