ARM GAS  C:\Users\luvsd\AppData\Local\Temp\cconUD7Y.s 			page 1


   1              		.syntax unified
   2              		.cpu cortex-m0
   3              		.fpu softvfp
   4              		.eabi_attribute 20, 1
   5              		.eabi_attribute 21, 1
   6              		.eabi_attribute 23, 3
   7              		.eabi_attribute 24, 1
   8              		.eabi_attribute 25, 1
   9              		.eabi_attribute 26, 1
  10              		.eabi_attribute 30, 1
  11              		.eabi_attribute 34, 0
  12              		.eabi_attribute 18, 4
  13              		.thumb
  14              		.syntax unified
  15              		.file	"USB.c"
  16              		.text
  17              	.Ltext0:
  18              		.cfi_sections	.debug_frame
  19              		.section	.text.initUSB,"ax",%progbits
  20              		.align	2
  21              		.global	initUSB
  22              		.code	16
  23              		.thumb_func
  24              		.type	initUSB, %function
  25              	initUSB:
  26              	.LFB62:
  27              		.file 1 "lib\\USB.c"
   1:lib/USB.c     **** /* ========================================
   2:lib/USB.c     ****  *
   3:lib/USB.c     ****  * Copyright Suntech, 2023.02.01
   4:lib/USB.c     ****  * All Rights Reserved
   5:lib/USB.c     ****  * UNPUBLISHED, LICENSED SOFTWARE.
   6:lib/USB.c     ****  *
   7:lib/USB.c     ****  * CONFIDENTIAL AND PROPRIETARY INFORMATION
   8:lib/USB.c     ****  * WHICH IS THE PROPERTY OF your company.
   9:lib/USB.c     ****  *
  10:lib/USB.c     ****  * ========================================
  11:lib/USB.c     **** */
  12:lib/USB.c     **** #include "USB.h"
  13:lib/USB.c     **** #include "main.h"
  14:lib/USB.c     **** #include "USBJsonConfig.h"
  15:lib/USB.c     **** 
  16:lib/USB.c     **** #define USBUART_BUFFER_SIZE 64
  17:lib/USB.c     **** uint8 g_usb_buffer[USBUART_BUFFER_SIZE+1];
  18:lib/USB.c     **** uint16 g_usb_count;
  19:lib/USB.c     **** 
  20:lib/USB.c     **** 
  21:lib/USB.c     **** void initUSB()
  22:lib/USB.c     **** {
  28              		.loc 1 22 0
  29              		.cfi_startproc
  30              		@ args = 0, pretend = 0, frame = 0
  31              		@ frame_needed = 0, uses_anonymous_args = 0
  32 0000 10B5     		push	{r4, lr}
  33              		.cfi_def_cfa_offset 8
  34              		.cfi_offset 4, -8
  35              		.cfi_offset 14, -4
ARM GAS  C:\Users\luvsd\AppData\Local\Temp\cconUD7Y.s 			page 2


  23:lib/USB.c     ****     USBUART_Start(0,USBUART_5V_OPERATION);    
  36              		.loc 1 23 0
  37 0002 0121     		movs	r1, #1
  38 0004 0020     		movs	r0, #0
  39 0006 FFF7FEFF 		bl	USBUART_Start
  40              	.LVL0:
  24:lib/USB.c     **** }
  41              		.loc 1 24 0
  42              		@ sp needed
  43 000a 10BD     		pop	{r4, pc}
  44              		.cfi_endproc
  45              	.LFE62:
  46              		.size	initUSB, .-initUSB
  47              		.section	.text.getUSB_ReceiveBuffer,"ax",%progbits
  48              		.align	2
  49              		.global	getUSB_ReceiveBuffer
  50              		.code	16
  51              		.thumb_func
  52              		.type	getUSB_ReceiveBuffer, %function
  53              	getUSB_ReceiveBuffer:
  54              	.LFB64:
  25:lib/USB.c     **** 
  26:lib/USB.c     **** static uint8 s_cdc_init_done = 0u;
  27:lib/USB.c     **** static uint8 s_startup_sent  = 0u;
  28:lib/USB.c     **** 
  29:lib/USB.c     **** void usbLoop()
  30:lib/USB.c     **** {
  31:lib/USB.c     ****     /* Host can send double SET_INTERFACE request. */
  32:lib/USB.c     ****     if (0u != USBUART_IsConfigurationChanged())
  33:lib/USB.c     ****     {
  34:lib/USB.c     ****         /* Initialize IN endpoints when device is configured. */
  35:lib/USB.c     ****         if (0u != USBUART_GetConfiguration())
  36:lib/USB.c     ****         {
  37:lib/USB.c     ****             /* Enumeration is done, enable OUT endpoint to receive data
  38:lib/USB.c     ****              * from host. */
  39:lib/USB.c     ****             USBUART_CDC_Init();
  40:lib/USB.c     ****             s_cdc_init_done = 1u;
  41:lib/USB.c     ****         }
  42:lib/USB.c     ****         else
  43:lib/USB.c     ****         {
  44:lib/USB.c     ****             /* USB 분리 — 재연결 시 스타트업 메시지 다시 표시 */
  45:lib/USB.c     ****             s_cdc_init_done = 0u;
  46:lib/USB.c     ****             s_startup_sent  = 0u;
  47:lib/USB.c     ****         }
  48:lib/USB.c     ****     }
  49:lib/USB.c     **** 
  50:lib/USB.c     ****     /* Fallback: 보드가 USB 연결 상태에서 부팅된 경우 IsConfigurationChanged()가
  51:lib/USB.c     ****      * 발생하지 않아 CDC_Init()이 누락될 수 있음 — GetConfiguration()이 이미
  52:lib/USB.c     ****      * non-zero 이면 여기서 한 번만 초기화. */
  53:lib/USB.c     ****     if (0u == s_cdc_init_done && 0u != USBUART_GetConfiguration())
  54:lib/USB.c     ****     {
  55:lib/USB.c     ****         USBUART_CDC_Init();
  56:lib/USB.c     ****         s_cdc_init_done = 1u;
  57:lib/USB.c     ****     }
  58:lib/USB.c     **** 
  59:lib/USB.c     ****     /* Service USB CDC when device is configured. */
  60:lib/USB.c     ****     if (0u != USBUART_GetConfiguration())
ARM GAS  C:\Users\luvsd\AppData\Local\Temp\cconUD7Y.s 			page 3


  61:lib/USB.c     ****     {
  62:lib/USB.c     ****         /* CDC가 준비된 직후 최초 1회 스타트업 메시지 전송 */
  63:lib/USB.c     ****         if (0u == s_startup_sent && 0u != USBUART_CDCIsReady())
  64:lib/USB.c     ****         {
  65:lib/USB.c     ****             USBUART_PutString("=== USB TESTER START ===\r\n");
  66:lib/USB.c     ****             s_startup_sent = 1u;
  67:lib/USB.c     ****         }
  68:lib/USB.c     **** 
  69:lib/USB.c     ****         /* Check for input data from host. */
  70:lib/USB.c     ****         if (0u != USBUART_DataIsReady())
  71:lib/USB.c     ****         {
  72:lib/USB.c     ****             /* Read received data and re-enable OUT endpoint. */
  73:lib/USB.c     ****             g_usb_count = USBUART_GetAll(g_usb_buffer);
  74:lib/USB.c     **** 
  75:lib/USB.c     ****             if (0u != g_usb_count)
  76:lib/USB.c     ****             {
  77:lib/USB.c     ****                 USB_ReceiveData(g_usb_buffer,g_usb_count);
  78:lib/USB.c     ****             }
  79:lib/USB.c     ****         }
  80:lib/USB.c     ****     }
  81:lib/USB.c     **** }
  82:lib/USB.c     **** 
  83:lib/USB.c     **** 
  84:lib/USB.c     **** uint8 g_USB_ReceiveBuffer[MAX_USB_RECEIVE_BUFFER+1];
  85:lib/USB.c     **** uint16 g_size_USB_ReceiveBuffer=0;
  86:lib/USB.c     **** 
  87:lib/USB.c     **** uint8 *getUSB_ReceiveBuffer() {return g_USB_ReceiveBuffer;};
  55              		.loc 1 87 0
  56              		.cfi_startproc
  57              		@ args = 0, pretend = 0, frame = 0
  58              		@ frame_needed = 0, uses_anonymous_args = 0
  59              		@ link register save eliminated.
  60              		.loc 1 87 0
  61 0000 0048     		ldr	r0, .L3
  62              		@ sp needed
  63 0002 7047     		bx	lr
  64              	.L4:
  65              		.align	2
  66              	.L3:
  67 0004 00000000 		.word	g_USB_ReceiveBuffer
  68              		.cfi_endproc
  69              	.LFE64:
  70              		.size	getUSB_ReceiveBuffer, .-getUSB_ReceiveBuffer
  71              		.section	.text.USB_ReceiveData,"ax",%progbits
  72              		.align	2
  73              		.global	USB_ReceiveData
  74              		.code	16
  75              		.thumb_func
  76              		.type	USB_ReceiveData, %function
  77              	USB_ReceiveData:
  78              	.LFB65:
  88:lib/USB.c     **** 
  89:lib/USB.c     **** void USB_ReceiveData(uint8 *buffer, int size)
  90:lib/USB.c     **** {
  79              		.loc 1 90 0
  80              		.cfi_startproc
  81              		@ args = 0, pretend = 0, frame = 0
ARM GAS  C:\Users\luvsd\AppData\Local\Temp\cconUD7Y.s 			page 4


  82              		@ frame_needed = 0, uses_anonymous_args = 0
  83              	.LVL1:
  84 0000 F8B5     		push	{r3, r4, r5, r6, r7, lr}
  85              		.cfi_def_cfa_offset 24
  86              		.cfi_offset 3, -24
  87              		.cfi_offset 4, -20
  88              		.cfi_offset 5, -16
  89              		.cfi_offset 6, -12
  90              		.cfi_offset 7, -8
  91              		.cfi_offset 14, -4
  92 0002 0700     		movs	r7, r0
  93 0004 0C00     		movs	r4, r1
  91:lib/USB.c     ****     if(MAX_USB_RECEIVE_BUFFER < g_size_USB_ReceiveBuffer+size)
  94              		.loc 1 91 0
  95 0006 0B4B     		ldr	r3, .L8
  96 0008 1D88     		ldrh	r5, [r3]
  97 000a 6B18     		adds	r3, r5, r1
  98 000c 802B     		cmp	r3, #128
  99 000e 03DD     		ble	.L6
  92:lib/USB.c     ****     {
  93:lib/USB.c     ****         printf("Error : Overflow in USB_ReceiveData()\r\n");
 100              		.loc 1 93 0
 101 0010 0948     		ldr	r0, .L8+4
 102              	.LVL2:
 103 0012 FFF7FEFF 		bl	puts
 104              	.LVL3:
  94:lib/USB.c     ****         return;
 105              		.loc 1 94 0
 106 0016 0BE0     		b	.L5
 107              	.LVL4:
 108              	.L6:
  95:lib/USB.c     ****     }
  96:lib/USB.c     ****     
  97:lib/USB.c     ****     memcpy(&g_USB_ReceiveBuffer[g_size_USB_ReceiveBuffer], buffer, size);
 109              		.loc 1 97 0
 110 0018 084E     		ldr	r6, .L8+8
 111 001a 7019     		adds	r0, r6, r5
 112              	.LVL5:
 113 001c 0A00     		movs	r2, r1
 114 001e 3900     		movs	r1, r7
 115              	.LVL6:
 116 0020 FFF7FEFF 		bl	memcpy
 117              	.LVL7:
  98:lib/USB.c     ****     g_size_USB_ReceiveBuffer += size;
 118              		.loc 1 98 0
 119 0024 2C19     		adds	r4, r5, r4
 120              	.LVL8:
 121 0026 A4B2     		uxth	r4, r4
 122 0028 024B     		ldr	r3, .L8
 123 002a 1C80     		strh	r4, [r3]
  99:lib/USB.c     ****     g_USB_ReceiveBuffer[g_size_USB_ReceiveBuffer] = 0;
 124              		.loc 1 99 0
 125 002c 0023     		movs	r3, #0
 126 002e 3355     		strb	r3, [r6, r4]
 127              	.L5:
 100:lib/USB.c     **** }
 128              		.loc 1 100 0
ARM GAS  C:\Users\luvsd\AppData\Local\Temp\cconUD7Y.s 			page 5


 129              		@ sp needed
 130              	.LVL9:
 131 0030 F8BD     		pop	{r3, r4, r5, r6, r7, pc}
 132              	.L9:
 133 0032 C046     		.align	2
 134              	.L8:
 135 0034 00000000 		.word	.LANCHOR0
 136 0038 00000000 		.word	.LC2
 137 003c 00000000 		.word	g_USB_ReceiveBuffer
 138              		.cfi_endproc
 139              	.LFE65:
 140              		.size	USB_ReceiveData, .-USB_ReceiveData
 141              		.section	.text.usbLoop,"ax",%progbits
 142              		.align	2
 143              		.global	usbLoop
 144              		.code	16
 145              		.thumb_func
 146              		.type	usbLoop, %function
 147              	usbLoop:
 148              	.LFB63:
  30:lib/USB.c     ****     /* Host can send double SET_INTERFACE request. */
 149              		.loc 1 30 0
 150              		.cfi_startproc
 151              		@ args = 0, pretend = 0, frame = 0
 152              		@ frame_needed = 0, uses_anonymous_args = 0
 153 0000 10B5     		push	{r4, lr}
 154              		.cfi_def_cfa_offset 8
 155              		.cfi_offset 4, -8
 156              		.cfi_offset 14, -4
  32:lib/USB.c     ****     {
 157              		.loc 1 32 0
 158 0002 FFF7FEFF 		bl	USBUART_IsConfigurationChanged
 159              	.LVL10:
 160 0006 0028     		cmp	r0, #0
 161 0008 0DD0     		beq	.L11
  35:lib/USB.c     ****         {
 162              		.loc 1 35 0
 163 000a FFF7FEFF 		bl	USBUART_GetConfiguration
 164              	.LVL11:
 165 000e 0028     		cmp	r0, #0
 166 0010 05D0     		beq	.L12
  39:lib/USB.c     ****             s_cdc_init_done = 1u;
 167              		.loc 1 39 0
 168 0012 FFF7FEFF 		bl	USBUART_CDC_Init
 169              	.LVL12:
  40:lib/USB.c     ****         }
 170              		.loc 1 40 0
 171 0016 0122     		movs	r2, #1
 172 0018 1A4B     		ldr	r3, .L16
 173 001a 9A70     		strb	r2, [r3, #2]
 174 001c 03E0     		b	.L11
 175              	.L12:
  45:lib/USB.c     ****             s_startup_sent  = 0u;
 176              		.loc 1 45 0
 177 001e 194B     		ldr	r3, .L16
 178 0020 0022     		movs	r2, #0
 179 0022 9A70     		strb	r2, [r3, #2]
ARM GAS  C:\Users\luvsd\AppData\Local\Temp\cconUD7Y.s 			page 6


  46:lib/USB.c     ****         }
 180              		.loc 1 46 0
 181 0024 DA70     		strb	r2, [r3, #3]
 182              	.L11:
  53:lib/USB.c     ****     {
 183              		.loc 1 53 0
 184 0026 174B     		ldr	r3, .L16
 185 0028 9B78     		ldrb	r3, [r3, #2]
 186 002a 002B     		cmp	r3, #0
 187 002c 08D1     		bne	.L13
  53:lib/USB.c     ****     {
 188              		.loc 1 53 0 is_stmt 0 discriminator 1
 189 002e FFF7FEFF 		bl	USBUART_GetConfiguration
 190              	.LVL13:
 191 0032 0028     		cmp	r0, #0
 192 0034 04D0     		beq	.L13
  55:lib/USB.c     ****         s_cdc_init_done = 1u;
 193              		.loc 1 55 0 is_stmt 1
 194 0036 FFF7FEFF 		bl	USBUART_CDC_Init
 195              	.LVL14:
  56:lib/USB.c     ****     }
 196              		.loc 1 56 0
 197 003a 0122     		movs	r2, #1
 198 003c 114B     		ldr	r3, .L16
 199 003e 9A70     		strb	r2, [r3, #2]
 200              	.L13:
  60:lib/USB.c     ****     {
 201              		.loc 1 60 0
 202 0040 FFF7FEFF 		bl	USBUART_GetConfiguration
 203              	.LVL15:
 204 0044 0028     		cmp	r0, #0
 205 0046 1CD0     		beq	.L10
  63:lib/USB.c     ****         {
 206              		.loc 1 63 0
 207 0048 0E4B     		ldr	r3, .L16
 208 004a DB78     		ldrb	r3, [r3, #3]
 209 004c 002B     		cmp	r3, #0
 210 004e 09D1     		bne	.L15
  63:lib/USB.c     ****         {
 211              		.loc 1 63 0 is_stmt 0 discriminator 1
 212 0050 FFF7FEFF 		bl	USBUART_CDCIsReady
 213              	.LVL16:
 214 0054 0028     		cmp	r0, #0
 215 0056 05D0     		beq	.L15
  65:lib/USB.c     ****             s_startup_sent = 1u;
 216              		.loc 1 65 0 is_stmt 1
 217 0058 0B48     		ldr	r0, .L16+4
 218 005a FFF7FEFF 		bl	USBUART_PutString
 219              	.LVL17:
  66:lib/USB.c     ****         }
 220              		.loc 1 66 0
 221 005e 0122     		movs	r2, #1
 222 0060 084B     		ldr	r3, .L16
 223 0062 DA70     		strb	r2, [r3, #3]
 224              	.L15:
  70:lib/USB.c     ****         {
 225              		.loc 1 70 0
ARM GAS  C:\Users\luvsd\AppData\Local\Temp\cconUD7Y.s 			page 7


 226 0064 FFF7FEFF 		bl	USBUART_DataIsReady
 227              	.LVL18:
 228 0068 0028     		cmp	r0, #0
 229 006a 0AD0     		beq	.L10
  73:lib/USB.c     **** 
 230              		.loc 1 73 0
 231 006c 0748     		ldr	r0, .L16+8
 232 006e FFF7FEFF 		bl	USBUART_GetAll
 233              	.LVL19:
 234 0072 074B     		ldr	r3, .L16+12
 235 0074 1880     		strh	r0, [r3]
  75:lib/USB.c     ****             {
 236              		.loc 1 75 0
 237 0076 0028     		cmp	r0, #0
 238 0078 03D0     		beq	.L10
  77:lib/USB.c     ****             }
 239              		.loc 1 77 0
 240 007a 0100     		movs	r1, r0
 241 007c 0348     		ldr	r0, .L16+8
 242 007e FFF7FEFF 		bl	USB_ReceiveData
 243              	.LVL20:
 244              	.L10:
  81:lib/USB.c     **** 
 245              		.loc 1 81 0
 246              		@ sp needed
 247 0082 10BD     		pop	{r4, pc}
 248              	.L17:
 249              		.align	2
 250              	.L16:
 251 0084 00000000 		.word	.LANCHOR0
 252 0088 28000000 		.word	.LC6
 253 008c 00000000 		.word	g_usb_buffer
 254 0090 00000000 		.word	g_usb_count
 255              		.cfi_endproc
 256              	.LFE63:
 257              		.size	usbLoop, .-usbLoop
 258              		.section	.text.USBUART_IsTxReady,"ax",%progbits
 259              		.align	2
 260              		.global	USBUART_IsTxReady
 261              		.code	16
 262              		.thumb_func
 263              		.type	USBUART_IsTxReady, %function
 264              	USBUART_IsTxReady:
 265              	.LFB66:
 101:lib/USB.c     **** 
 102:lib/USB.c     **** _Bool usb_active = USBUART_TRUE;
 103:lib/USB.c     **** 
 104:lib/USB.c     **** _Bool USBUART_IsTxReady(_Bool allow_blocking)
 105:lib/USB.c     **** {
 266              		.loc 1 105 0
 267              		.cfi_startproc
 268              		@ args = 0, pretend = 0, frame = 0
 269              		@ frame_needed = 0, uses_anonymous_args = 0
 270              	.LVL21:
 271 0000 70B5     		push	{r4, r5, r6, lr}
 272              		.cfi_def_cfa_offset 16
 273              		.cfi_offset 4, -16
ARM GAS  C:\Users\luvsd\AppData\Local\Temp\cconUD7Y.s 			page 8


 274              		.cfi_offset 5, -12
 275              		.cfi_offset 6, -8
 276              		.cfi_offset 14, -4
 277              	.LVL22:
 106:lib/USB.c     ****     _Bool ret = USBUART_TRUE;
 107:lib/USB.c     ****  
 108:lib/USB.c     ****     if(allow_blocking == USBUART_TRUE)
 278              		.loc 1 108 0
 279 0002 0028     		cmp	r0, #0
 280 0004 28D0     		beq	.L19
 281              	.LVL23:
 282              	.LBB2:
 109:lib/USB.c     ****     {    // blocking implementation
 110:lib/USB.c     **** 
 111:lib/USB.c     ****         int8 subsystick_wrap_cnt = 0;
 112:lib/USB.c     ****         int32_t subsystick_reload = (int32_t)CySysTickGetReload();    // SysTick Reload value
 283              		.loc 1 112 0
 284 0006 FFF7FEFF 		bl	CySysTickGetReload
 285              	.LVL24:
 286 000a 0600     		movs	r6, r0
 287              	.LVL25:
 113:lib/USB.c     ****         int32_t subsystick_cnt = (int32_t)CySysTickGetValue();    // SysTick Timestamp when we ente
 288              		.loc 1 113 0
 289 000c FFF7FEFF 		bl	CySysTickGetValue
 290              	.LVL26:
 291 0010 0400     		movs	r4, r0
 292              	.LVL27:
 114:lib/USB.c     **** 
 115:lib/USB.c     ****         CySysTickStart();        // Start the SysTick interval @ 1ms.  This allows USBUART_IsTxRead
 293              		.loc 1 115 0
 294 0012 FFF7FEFF 		bl	CySysTickStart
 295              	.LVL28:
 111:lib/USB.c     ****         int32_t subsystick_reload = (int32_t)CySysTickGetReload();    // SysTick Reload value
 296              		.loc 1 111 0
 297 0016 0025     		movs	r5, #0
 116:lib/USB.c     **** 
 117:lib/USB.c     ****         while(USBUART_CDCIsReady() == 0)
 298              		.loc 1 117 0
 299 0018 12E0     		b	.L20
 300              	.LVL29:
 301              	.L23:
 118:lib/USB.c     ****         { // Tx Port is not ready.
 119:lib/USB.c     **** 
 120:lib/USB.c     ****             if(usb_active == USBUART_FALSE) {ret = USBUART_FALSE; break;}    // break out of while(
 302              		.loc 1 120 0
 303 001a 134B     		ldr	r3, .L28
 304 001c 1B78     		ldrb	r3, [r3]
 305 001e 002B     		cmp	r3, #0
 306 0020 14D0     		beq	.L25
 307              	.LBB3:
 121:lib/USB.c     ****             else
 122:lib/USB.c     ****             {    // check the SysTick counter timestamp exceeds up to 2 times the SysTick Reload va
 123:lib/USB.c     **** 
 124:lib/USB.c     ****                 int32_t subsystick_cnt_diff = subsystick_cnt - (int32)CySysTickGetValue();    // ge
 308              		.loc 1 124 0
 309 0022 FFF7FEFF 		bl	CySysTickGetValue
 310              	.LVL30:
ARM GAS  C:\Users\luvsd\AppData\Local\Temp\cconUD7Y.s 			page 9


 311 0026 201A     		subs	r0, r4, r0
 312              	.LVL31:
 125:lib/USB.c     ****                 if(subsystick_cnt_diff < 0) { subsystick_wrap_cnt++; }    // if current subsystick 
 313              		.loc 1 125 0
 314 0028 01D5     		bpl	.L22
 315              		.loc 1 125 0 is_stmt 0 discriminator 1
 316 002a 0135     		adds	r5, r5, #1
 317              	.LVL32:
 318 002c 6DB2     		sxtb	r5, r5
 319              	.LVL33:
 320              	.L22:
 126:lib/USB.c     **** 
 127:lib/USB.c     ****                 if(( (subsystick_wrap_cnt*subsystick_reload) + (subsystick_cnt_diff)) > (subsystick
 321              		.loc 1 127 0 is_stmt 1
 322 002e 3300     		movs	r3, r6
 323 0030 6B43     		muls	r3, r5
 324 0032 C018     		adds	r0, r0, r3
 325              	.LVL34:
 326 0034 7300     		lsls	r3, r6, #1
 327 0036 9842     		cmp	r0, r3
 328 0038 0ADC     		bgt	.L26
 128:lib/USB.c     ****                 {
 129:lib/USB.c     ****                     ret = USBUART_FALSE;    // Exceeded SysTick 1ms
 130:lib/USB.c     ****                     break;                    // break out of while() because we detected the USB p
 131:lib/USB.c     ****                 }
 132:lib/USB.c     ****                 subsystick_cnt = (int32_t)CySysTickGetValue();                            // store 
 329              		.loc 1 132 0
 330 003a FFF7FEFF 		bl	CySysTickGetValue
 331              	.LVL35:
 332 003e 0400     		movs	r4, r0
 333              	.LVL36:
 334              	.L20:
 335              	.LBE3:
 117:lib/USB.c     ****         { // Tx Port is not ready.
 336              		.loc 1 117 0
 337 0040 FFF7FEFF 		bl	USBUART_CDCIsReady
 338              	.LVL37:
 339 0044 0028     		cmp	r0, #0
 340 0046 E8D0     		beq	.L23
 341              	.LBE2:
 106:lib/USB.c     ****  
 342              		.loc 1 106 0
 343 0048 0120     		movs	r0, #1
 344              	.LBB5:
 345 004a 02E0     		b	.L21
 346              	.L25:
 120:lib/USB.c     ****             else
 347              		.loc 1 120 0
 348 004c 0020     		movs	r0, #0
 349 004e 00E0     		b	.L21
 350              	.L26:
 351              	.LBB4:
 129:lib/USB.c     ****                     break;                    // break out of while() because we detected the USB p
 352              		.loc 1 129 0
 353 0050 0020     		movs	r0, #0
 354              	.L21:
 355              	.LVL38:
ARM GAS  C:\Users\luvsd\AppData\Local\Temp\cconUD7Y.s 			page 10


 356              	.LBE4:
 133:lib/USB.c     ****             }
 134:lib/USB.c     ****         }
 135:lib/USB.c     ****         usb_active = ret;
 357              		.loc 1 135 0
 358 0052 054B     		ldr	r3, .L28
 359 0054 1870     		strb	r0, [r3]
 360              	.LBE5:
 361 0056 06E0     		b	.L24
 362              	.LVL39:
 363              	.L19:
 136:lib/USB.c     ****     }
 137:lib/USB.c     ****     else ret = (USBUART_CDCIsReady() ? USBUART_TRUE : USBUART_FALSE);        // non-blocking
 364              		.loc 1 137 0
 365 0058 FFF7FEFF 		bl	USBUART_CDCIsReady
 366              	.LVL40:
 367 005c 0028     		cmp	r0, #0
 368 005e 01D0     		beq	.L27
 369 0060 0120     		movs	r0, #1
 370 0062 00E0     		b	.L24
 371              	.L27:
 372 0064 0020     		movs	r0, #0
 373              	.LVL41:
 374              	.L24:
 138:lib/USB.c     **** 
 139:lib/USB.c     ****     return ret;
 140:lib/USB.c     **** }
 375              		.loc 1 140 0
 376              		@ sp needed
 377 0066 70BD     		pop	{r4, r5, r6, pc}
 378              	.L29:
 379              		.align	2
 380              	.L28:
 381 0068 00000000 		.word	.LANCHOR1
 382              		.cfi_endproc
 383              	.LFE66:
 384              		.size	USBUART_IsTxReady, .-USBUART_IsTxReady
 385              		.section	.text.printf_USB,"ax",%progbits
 386              		.align	2
 387              		.global	printf_USB
 388              		.code	16
 389              		.thumb_func
 390              		.type	printf_USB, %function
 391              	printf_USB:
 392              	.LFB67:
 141:lib/USB.c     **** 
 142:lib/USB.c     **** void printf_USB(const char *fmt, ...)
 143:lib/USB.c     **** {
 393              		.loc 1 143 0
 394              		.cfi_startproc
 395              		@ args = 4, pretend = 16, frame = 72
 396              		@ frame_needed = 0, uses_anonymous_args = 1
 397              	.LVL42:
 398 0000 0FB4     		push	{r0, r1, r2, r3}
 399              		.cfi_def_cfa_offset 16
 400 0002 00B5     		push	{lr}
 401              		.cfi_def_cfa_offset 20
ARM GAS  C:\Users\luvsd\AppData\Local\Temp\cconUD7Y.s 			page 11


 402              		.cfi_offset 14, -20
 403 0004 93B0     		sub	sp, sp, #76
 404              		.cfi_def_cfa_offset 96
 405 0006 14AA     		add	r2, sp, #80
 406 0008 02CA     		ldmia	r2!, {r1}
 144:lib/USB.c     ****     va_list ap;
 145:lib/USB.c     ****     char buff[USBUART_BUFFER_SIZE+1];
 146:lib/USB.c     ****     
 147:lib/USB.c     ****     va_start(ap, fmt);
 407              		.loc 1 147 0
 408 000a 1192     		str	r2, [sp, #68]
 148:lib/USB.c     **** 
 149:lib/USB.c     ****     vsprintf(buff, fmt, ap);
 409              		.loc 1 149 0
 410 000c 6846     		mov	r0, sp
 411 000e FFF7FEFF 		bl	vsprintf
 412              	.LVL43:
 150:lib/USB.c     ****     va_end(ap);
 151:lib/USB.c     ****     
 152:lib/USB.c     ****     uint16 nLength = strlen(buff);
 413              		.loc 1 152 0
 414 0012 6846     		mov	r0, sp
 415 0014 FFF7FEFF 		bl	strlen
 416              	.LVL44:
 417 0018 80B2     		uxth	r0, r0
 418              	.LVL45:
 153:lib/USB.c     ****     if(nLength > USBUART_BUFFER_SIZE) printf("Out of Data in USBUARTprintf()\r\n");
 419              		.loc 1 153 0
 420 001a 4028     		cmp	r0, #64
 421 001c 02D9     		bls	.L32
 422              		.loc 1 153 0 is_stmt 0 discriminator 1
 423 001e 0748     		ldr	r0, .L33
 424              	.LVL46:
 425 0020 FFF7FEFF 		bl	puts
 426              	.LVL47:
 427              	.L32:
 154:lib/USB.c     ****     
 155:lib/USB.c     ****     while(USBUART_IsTxReady(TRUE)==0);  
 428              		.loc 1 155 0 is_stmt 1 discriminator 1
 429 0024 0120     		movs	r0, #1
 430 0026 FFF7FEFF 		bl	USBUART_IsTxReady
 431              	.LVL48:
 432 002a 0028     		cmp	r0, #0
 433 002c FAD0     		beq	.L32
 156:lib/USB.c     ****     USBUART_PutString(buff); 
 434              		.loc 1 156 0
 435 002e 6846     		mov	r0, sp
 436 0030 FFF7FEFF 		bl	USBUART_PutString
 437              	.LVL49:
 157:lib/USB.c     **** }
 438              		.loc 1 157 0
 439 0034 13B0     		add	sp, sp, #76
 440              		@ sp needed
 441 0036 08BC     		pop	{r3}
 442 0038 04B0     		add	sp, sp, #16
 443 003a 1847     		bx	r3
 444              	.L34:
ARM GAS  C:\Users\luvsd\AppData\Local\Temp\cconUD7Y.s 			page 12


 445              		.align	2
 446              	.L33:
 447 003c 44000000 		.word	.LC11
 448              		.cfi_endproc
 449              	.LFE67:
 450              		.size	printf_USB, .-printf_USB
 451              		.global	usb_active
 452              		.global	g_size_USB_ReceiveBuffer
 453              		.comm	g_USB_ReceiveBuffer,129,4
 454              		.comm	g_usb_count,2,2
 455              		.comm	g_usb_buffer,65,4
 456              		.comm	Param,6,4
 457              		.data
 458              		.set	.LANCHOR1,. + 0
 459              		.type	usb_active, %object
 460              		.size	usb_active, 1
 461              	usb_active:
 462 0000 01       		.byte	1
 463              		.section	.rodata.str1.4,"aMS",%progbits,1
 464              		.align	2
 465              	.LC2:
 466 0000 4572726F 		.ascii	"Error : Overflow in USB_ReceiveData()\015\000"
 466      72203A20 
 466      4F766572 
 466      666C6F77 
 466      20696E20 
 467 0027 00       		.space	1
 468              	.LC6:
 469 0028 3D3D3D20 		.ascii	"=== USB TESTER START ===\015\012\000"
 469      55534220 
 469      54455354 
 469      45522053 
 469      54415254 
 470 0043 00       		.space	1
 471              	.LC11:
 472 0044 4F757420 		.ascii	"Out of Data in USBUARTprintf()\015\000"
 472      6F662044 
 472      61746120 
 472      696E2055 
 472      53425541 
 473              		.bss
 474              		.align	1
 475              		.set	.LANCHOR0,. + 0
 476              		.type	g_size_USB_ReceiveBuffer, %object
 477              		.size	g_size_USB_ReceiveBuffer, 2
 478              	g_size_USB_ReceiveBuffer:
 479 0000 0000     		.space	2
 480              		.type	s_cdc_init_done, %object
 481              		.size	s_cdc_init_done, 1
 482              	s_cdc_init_done:
 483 0002 00       		.space	1
 484              		.type	s_startup_sent, %object
 485              		.size	s_startup_sent, 1
 486              	s_startup_sent:
 487 0003 00       		.space	1
 488              		.text
 489              	.Letext0:
ARM GAS  C:\Users\luvsd\AppData\Local\Temp\cconUD7Y.s 			page 13


 490              		.file 2 "c:\\program files (x86)\\cypress\\psoc creator\\4.4\\psoc creator\\import\\gnu\\arm\\5.4.
 491              		.file 3 "c:\\program files (x86)\\cypress\\psoc creator\\4.4\\psoc creator\\import\\gnu\\arm\\5.4.
 492              		.file 4 "Generated_Source\\PSoC4/cytypes.h"
 493              		.file 5 "c:\\program files (x86)\\cypress\\psoc creator\\4.4\\psoc creator\\import\\gnu\\arm\\5.4.
 494              		.file 6 "<built-in>"
 495              		.file 7 "./main.h"
 496              		.file 8 "Generated_Source\\PSoC4/RTC.h"
 497              		.file 9 "Generated_Source\\PSoC4/USBUART.h"
 498              		.file 10 "Generated_Source\\PSoC4/USBUART_cdc.h"
 499              		.file 11 "Generated_Source\\PSoC4/CyLib.h"
 500              		.file 12 "c:\\program files (x86)\\cypress\\psoc creator\\4.4\\psoc creator\\import\\gnu\\arm\\5.4
 501              		.file 13 "c:\\program files (x86)\\cypress\\psoc creator\\4.4\\psoc creator\\import\\gnu\\arm\\5.4