ARM GAS  C:\Users\luvsd\AppData\Local\Temp\ccVd550Q.s 			page 1


   1              		.syntax unified
   2              		.cpu cortex-m0
   3              		.fpu softvfp
   4              		.eabi_attribute 20, 1
   5              		.eabi_attribute 21, 1
   6              		.eabi_attribute 23, 3
   7              		.eabi_attribute 24, 1
   8              		.eabi_attribute 25, 1
   9              		.eabi_attribute 26, 1
  10              		.eabi_attribute 30, 1
  11              		.eabi_attribute 34, 0
  12              		.eabi_attribute 18, 4
  13              		.thumb
  14              		.syntax unified
  15              		.file	"userProjectPatternSewing.c"
  16              		.text
  17              	.Ltext0:
  18              		.cfi_sections	.debug_frame
  19              		.section	.text.initUserProject,"ax",%progbits
  20              		.align	2
  21              		.global	initUserProject
  22              		.code	16
  23              		.thumb_func
  24              		.type	initUserProject, %function
  25              	initUserProject:
  26              	.LFB62:
  27              		.file 1 "userProjectPatternSewing.c"
   1:userProjectPatternSewing.c **** 
   2:userProjectPatternSewing.c **** /* ========================================
   3:userProjectPatternSewing.c ****  *
   4:userProjectPatternSewing.c ****  * Copyright Suntech, 2023.03.30
   5:userProjectPatternSewing.c ****  * All Rights Reserved
   6:userProjectPatternSewing.c ****  * UNPUBLISHED, LICENSED SOFTWARE.
   7:userProjectPatternSewing.c ****  *
   8:userProjectPatternSewing.c ****  * CONFIDENTIAL AND PROPRIETARY INFORMATION
   9:userProjectPatternSewing.c ****  * WHICH IS THE PROPERTY OF Suntech.
  10:userProjectPatternSewing.c ****  *
  11:userProjectPatternSewing.c ****  * ========================================
  12:userProjectPatternSewing.c **** */
  13:userProjectPatternSewing.c **** #include "userProjectPatternSewing.h"
  14:userProjectPatternSewing.c **** #include "lib/externalFlash.h"
  15:userProjectPatternSewing.c **** 
  16:userProjectPatternSewing.c **** #ifdef USER_PROJECT_PATTERN_SEWING_MACHINE
  17:userProjectPatternSewing.c **** 
  18:userProjectPatternSewing.c **** MACHINE_PARAMETER *g_ptrMachineParameter = NULL;
  19:userProjectPatternSewing.c **** MACHINE_PARAMETER g_DefaultMachineParameter = {
  20:userProjectPatternSewing.c ****     .machineType = PATTERN_MACHINE,
  21:userProjectPatternSewing.c ****     
  22:userProjectPatternSewing.c ****     // pattern machine
  23:userProjectPatternSewing.c ****     ///.patternTarget    = 28800,
  24:userProjectPatternSewing.c ****     .patternTarget    = 1000,
  25:userProjectPatternSewing.c ****     .patternPairCount =    2,
  26:userProjectPatternSewing.c ****     .patternPair      =   25,
  27:userProjectPatternSewing.c ****     // sewing machine
  28:userProjectPatternSewing.c ****     ///.sewingTarget     = 28800,
  29:userProjectPatternSewing.c ****     .sewingTarget     = 1000,
  30:userProjectPatternSewing.c ****     .sewingPairTrim   =    2,
ARM GAS  C:\Users\luvsd\AppData\Local\Temp\ccVd550Q.s 			page 2


  31:userProjectPatternSewing.c ****     .sewingPair       =    5,
  32:userProjectPatternSewing.c ****     
  33:userProjectPatternSewing.c ****     .andon_enable     =    TRUE,
  34:userProjectPatternSewing.c ****     .current_enable   =    FALSE,
  35:userProjectPatternSewing.c ****     .current_sensor_threshold = 13,
  36:userProjectPatternSewing.c ****     .bAutoReset       =    ON,
  37:userProjectPatternSewing.c **** };
  38:userProjectPatternSewing.c ****     
  39:userProjectPatternSewing.c **** void initUserProject()
  40:userProjectPatternSewing.c **** {
  28              		.loc 1 40 0
  29              		.cfi_startproc
  30              		@ args = 0, pretend = 0, frame = 0
  31              		@ frame_needed = 0, uses_anonymous_args = 0
  32 0000 10B5     		push	{r4, lr}
  33              		.cfi_def_cfa_offset 8
  34              		.cfi_offset 4, -8
  35              		.cfi_offset 14, -4
  41:userProjectPatternSewing.c ****     g_ptrMachineParameter = (MACHINE_PARAMETER *) getExternalConfigUserData();
  36              		.loc 1 41 0
  37 0002 FFF7FEFF 		bl	getExternalConfigUserData
  38              	.LVL0:
  39 0006 014B     		ldr	r3, .L2
  40 0008 1860     		str	r0, [r3]
  42:userProjectPatternSewing.c **** }
  41              		.loc 1 42 0
  42              		@ sp needed
  43 000a 10BD     		pop	{r4, pc}
  44              	.L3:
  45              		.align	2
  46              	.L2:
  47 000c 00000000 		.word	.LANCHOR0
  48              		.cfi_endproc
  49              	.LFE62:
  50              		.size	initUserProject, .-initUserProject
  51              		.section	.text.SetUserProjectDefaultExternalFlashConfig,"ax",%progbits
  52              		.align	2
  53              		.global	SetUserProjectDefaultExternalFlashConfig
  54              		.code	16
  55              		.thumb_func
  56              		.type	SetUserProjectDefaultExternalFlashConfig, %function
  57              	SetUserProjectDefaultExternalFlashConfig:
  58              	.LFB63:
  43:userProjectPatternSewing.c **** 
  44:userProjectPatternSewing.c **** void SetUserProjectDefaultExternalFlashConfig() // refer to externalFlash.h
  45:userProjectPatternSewing.c **** {
  59              		.loc 1 45 0
  60              		.cfi_startproc
  61              		@ args = 0, pretend = 0, frame = 0
  62              		@ frame_needed = 0, uses_anonymous_args = 0
  63 0000 10B5     		push	{r4, lr}
  64              		.cfi_def_cfa_offset 8
  65              		.cfi_offset 4, -8
  66              		.cfi_offset 14, -4
  46:userProjectPatternSewing.c ****     memcpy(getExternalConfigUserData(), &g_DefaultMachineParameter, sizeof(g_DefaultMachineParamete
  67              		.loc 1 46 0
  68 0002 FFF7FEFF 		bl	getExternalConfigUserData
ARM GAS  C:\Users\luvsd\AppData\Local\Temp\ccVd550Q.s 			page 3


  69              	.LVL1:
  70 0006 1C22     		movs	r2, #28
  71 0008 0149     		ldr	r1, .L5
  72 000a FFF7FEFF 		bl	memcpy
  73              	.LVL2:
  47:userProjectPatternSewing.c **** }
  74              		.loc 1 47 0
  75              		@ sp needed
  76 000e 10BD     		pop	{r4, pc}
  77              	.L6:
  78              		.align	2
  79              	.L5:
  80 0010 00000000 		.word	.LANCHOR1
  81              		.cfi_endproc
  82              	.LFE63:
  83              		.size	SetUserProjectDefaultExternalFlashConfig, .-SetUserProjectDefaultExternalFlashConfig
  84              		.section	.text.userProjectDataValidation,"ax",%progbits
  85              		.align	2
  86              		.global	userProjectDataValidation
  87              		.code	16
  88              		.thumb_func
  89              		.type	userProjectDataValidation, %function
  90              	userProjectDataValidation:
  91              	.LFB64:
  48:userProjectPatternSewing.c **** 
  49:userProjectPatternSewing.c **** uint8 userProjectDataValidation()
  50:userProjectPatternSewing.c **** {
  92              		.loc 1 50 0
  93              		.cfi_startproc
  94              		@ args = 0, pretend = 0, frame = 0
  95              		@ frame_needed = 0, uses_anonymous_args = 0
  96 0000 10B5     		push	{r4, lr}
  97              		.cfi_def_cfa_offset 8
  98              		.cfi_offset 4, -8
  99              		.cfi_offset 14, -4
  51:userProjectPatternSewing.c ****  //   printf("target = %u\r\n", g_ptrMachineParameter->patternTarget);
  52:userProjectPatternSewing.c ****     switch(g_ptrMachineParameter->machineType)
 100              		.loc 1 52 0
 101 0002 254B     		ldr	r3, .L17
 102 0004 1868     		ldr	r0, [r3]
 103 0006 0378     		ldrb	r3, [r0]
 104 0008 002B     		cmp	r3, #0
 105 000a 02D0     		beq	.L9
 106 000c 012B     		cmp	r3, #1
 107 000e 1DD0     		beq	.L10
 108 0010 37E0     		b	.L16
 109              	.L9:
  53:userProjectPatternSewing.c ****     {
  54:userProjectPatternSewing.c ****         case PATTERN_MACHINE:
  55:userProjectPatternSewing.c ****             if(g_ptrMachineParameter->patternTarget  >= UINT16_MAX || g_ptrMachineParameter->patter
 110              		.loc 1 55 0
 111 0012 4388     		ldrh	r3, [r0, #2]
 112 0014 013B     		subs	r3, r3, #1
 113 0016 9BB2     		uxth	r3, r3
 114 0018 204A     		ldr	r2, .L17+4
 115 001a 9342     		cmp	r3, r2
 116 001c 02D9     		bls	.L11
ARM GAS  C:\Users\luvsd\AppData\Local\Temp\ccVd550Q.s 			page 4


  56:userProjectPatternSewing.c ****                 g_ptrMachineParameter->patternTarget = g_DefaultMachineParameter.patternTarget;
 117              		.loc 1 56 0
 118 001e 204B     		ldr	r3, .L17+8
 119 0020 5B88     		ldrh	r3, [r3, #2]
 120 0022 4380     		strh	r3, [r0, #2]
 121              	.L11:
  57:userProjectPatternSewing.c ****             if(g_ptrMachineParameter->patternPairCount > 99|| g_ptrMachineParameter->patternPairCou
 122              		.loc 1 57 0
 123 0024 1C4B     		ldr	r3, .L17
 124 0026 1A68     		ldr	r2, [r3]
 125 0028 9388     		ldrh	r3, [r2, #4]
 126 002a 013B     		subs	r3, r3, #1
 127 002c 9BB2     		uxth	r3, r3
 128 002e 622B     		cmp	r3, #98
 129 0030 02D9     		bls	.L12
  58:userProjectPatternSewing.c ****                 g_ptrMachineParameter->patternPairCount = g_DefaultMachineParameter.patternPairCoun
 130              		.loc 1 58 0
 131 0032 1B4B     		ldr	r3, .L17+8
 132 0034 9B88     		ldrh	r3, [r3, #4]
 133 0036 9380     		strh	r3, [r2, #4]
 134              	.L12:
  59:userProjectPatternSewing.c ****             if(g_ptrMachineParameter->patternPair > 999    || g_ptrMachineParameter->patternPair ==
 135              		.loc 1 59 0
 136 0038 D388     		ldrh	r3, [r2, #6]
 137 003a 013B     		subs	r3, r3, #1
 138 003c 9BB2     		uxth	r3, r3
 139 003e 1949     		ldr	r1, .L17+12
 140 0040 8B42     		cmp	r3, r1
 141 0042 26D9     		bls	.L13
  60:userProjectPatternSewing.c ****                 g_ptrMachineParameter->patternPair = g_DefaultMachineParameter.patternPair;    
 142              		.loc 1 60 0
 143 0044 164B     		ldr	r3, .L17+8
 144 0046 DB88     		ldrh	r3, [r3, #6]
 145 0048 D380     		strh	r3, [r2, #6]
 146 004a 22E0     		b	.L13
 147              	.L10:
  61:userProjectPatternSewing.c ****             break;
  62:userProjectPatternSewing.c ****         case SEWING_MACHINE:
  63:userProjectPatternSewing.c ****             if(g_ptrMachineParameter->sewingTarget  >= UINT16_MAX || g_ptrMachineParameter->sewingT
 148              		.loc 1 63 0
 149 004c 0389     		ldrh	r3, [r0, #8]
 150 004e 013B     		subs	r3, r3, #1
 151 0050 9BB2     		uxth	r3, r3
 152 0052 124A     		ldr	r2, .L17+4
 153 0054 9342     		cmp	r3, r2
 154 0056 02D9     		bls	.L14
  64:userProjectPatternSewing.c ****                 g_ptrMachineParameter->sewingTarget = g_DefaultMachineParameter.sewingTarget;
 155              		.loc 1 64 0
 156 0058 114B     		ldr	r3, .L17+8
 157 005a 1B89     		ldrh	r3, [r3, #8]
 158 005c 0381     		strh	r3, [r0, #8]
 159              	.L14:
  65:userProjectPatternSewing.c ****             if(g_ptrMachineParameter->sewingPairTrim > 99|| g_ptrMachineParameter->sewingPairTrim =
 160              		.loc 1 65 0
 161 005e 4389     		ldrh	r3, [r0, #10]
 162 0060 013B     		subs	r3, r3, #1
 163 0062 9BB2     		uxth	r3, r3
ARM GAS  C:\Users\luvsd\AppData\Local\Temp\ccVd550Q.s 			page 5


 164 0064 622B     		cmp	r3, #98
 165 0066 02D9     		bls	.L15
  66:userProjectPatternSewing.c ****                 g_ptrMachineParameter->sewingPairTrim = g_DefaultMachineParameter.sewingPairTrim;
 166              		.loc 1 66 0
 167 0068 0D4B     		ldr	r3, .L17+8
 168 006a 5B89     		ldrh	r3, [r3, #10]
 169 006c 4381     		strh	r3, [r0, #10]
 170              	.L15:
  67:userProjectPatternSewing.c ****             if(g_ptrMachineParameter->sewingPair > 999    || g_ptrMachineParameter->sewingPair == 0
 171              		.loc 1 67 0
 172 006e 8389     		ldrh	r3, [r0, #12]
 173 0070 013B     		subs	r3, r3, #1
 174 0072 9BB2     		uxth	r3, r3
 175 0074 0B4A     		ldr	r2, .L17+12
 176 0076 9342     		cmp	r3, r2
 177 0078 0BD9     		bls	.L13
  68:userProjectPatternSewing.c ****                 g_ptrMachineParameter->sewingPair = g_DefaultMachineParameter.sewingPair;          
 178              		.loc 1 68 0
 179 007a 094B     		ldr	r3, .L17+8
 180 007c 9B89     		ldrh	r3, [r3, #12]
 181 007e 8381     		strh	r3, [r0, #12]
 182 0080 07E0     		b	.L13
 183              	.L16:
  69:userProjectPatternSewing.c ****             break;
  70:userProjectPatternSewing.c ****         default:
  71:userProjectPatternSewing.c ****             memcpy(&g_ptrMachineParameter->machineType, &g_DefaultMachineParameter, sizeof(MACHINE_
 184              		.loc 1 71 0
 185 0082 1C22     		movs	r2, #28
 186 0084 0649     		ldr	r1, .L17+8
 187 0086 FFF7FEFF 		bl	memcpy
 188              	.LVL3:
  72:userProjectPatternSewing.c ****             g_ptrMachineParameter->machineType = PATTERN_MACHINE;            
 189              		.loc 1 72 0
 190 008a 034B     		ldr	r3, .L17
 191 008c 1B68     		ldr	r3, [r3]
 192 008e 0022     		movs	r2, #0
 193 0090 1A70     		strb	r2, [r3]
 194              	.L13:
  73:userProjectPatternSewing.c ****             break;
  74:userProjectPatternSewing.c ****     }
  75:userProjectPatternSewing.c ****     
  76:userProjectPatternSewing.c ****    
  77:userProjectPatternSewing.c ****     
  78:userProjectPatternSewing.c ****     
  79:userProjectPatternSewing.c ****     //g_ptrMachineParameter->machineType = SEWING_MACHINE;
  80:userProjectPatternSewing.c ****    // if(ret==FALSE) SaveExternalFlashConfig();
  81:userProjectPatternSewing.c ****     return TRUE;
  82:userProjectPatternSewing.c **** }
 195              		.loc 1 82 0
 196 0092 0120     		movs	r0, #1
 197              		@ sp needed
 198 0094 10BD     		pop	{r4, pc}
 199              	.L18:
 200 0096 C046     		.align	2
 201              	.L17:
 202 0098 00000000 		.word	.LANCHOR0
 203 009c FDFF0000 		.word	65533
ARM GAS  C:\Users\luvsd\AppData\Local\Temp\ccVd550Q.s 			page 6


 204 00a0 00000000 		.word	.LANCHOR1
 205 00a4 E6030000 		.word	998
 206              		.cfi_endproc
 207              	.LFE64:
 208              		.size	userProjectDataValidation, .-userProjectDataValidation
 209              		.global	g_DefaultMachineParameter
 210              		.global	g_ptrMachineParameter
 211              		.comm	Param,6,4
 212              		.data
 213              		.align	2
 214              		.set	.LANCHOR1,. + 0
 215              		.type	g_DefaultMachineParameter, %object
 216              		.size	g_DefaultMachineParameter, 28
 217              	g_DefaultMachineParameter:
 218 0000 00       		.byte	0
 219 0001 00       		.space	1
 220 0002 E803     		.short	1000
 221 0004 0200     		.short	2
 222 0006 1900     		.short	25
 223 0008 E803     		.short	1000
 224 000a 0200     		.short	2
 225 000c 0500     		.short	5
 226 000e 00000000 		.space	6
 226      0000
 227 0014 0100     		.short	1
 228 0016 0000     		.short	0
 229 0018 0D00     		.short	13
 230 001a 01       		.byte	1
 231 001b 00       		.space	1
 232              		.bss
 233              		.align	2
 234              		.set	.LANCHOR0,. + 0
 235              		.type	g_ptrMachineParameter, %object
 236              		.size	g_ptrMachineParameter, 4
 237              	g_ptrMachineParameter:
 238 0000 00000000 		.space	4
 239              		.text
 240              	.Letext0:
 241              		.file 2 "Generated_Source\\PSoC4/cytypes.h"
 242              		.file 3 "main.h"
 243              		.file 4 "userProjectPatternSewing.h"
 244              		.file 5 "Generated_Source\\PSoC4/RTC.h"
 245              		.file 6 "lib/externalFlash.h"