ARM GAS  C:\Users\theGu\AppData\Local\Temp\ccIUymvQ.s 			page 1


   1              		.syntax unified
   2              		.cpu cortex-m0
   3              		.fpu softvfp
   4              		.eabi_attribute 20, 1
   5              		.eabi_attribute 21, 1
   6              		.eabi_attribute 23, 3
   7              		.eabi_attribute 24, 1
   8              		.eabi_attribute 25, 1
   9              		.eabi_attribute 26, 1
  10              		.eabi_attribute 30, 1
  11              		.eabi_attribute 34, 0
  12              		.eabi_attribute 18, 4
  13              		.thumb
  14              		.syntax unified
  15              		.file	"WIFIQueue.c"
  16              		.text
  17              	.Ltext0:
  18              		.cfi_sections	.debug_frame
  19              		.section	.text.IsBlocking,"ax",%progbits
  20              		.align	2
  21              		.global	IsBlocking
  22              		.code	16
  23              		.thumb_func
  24              		.type	IsBlocking, %function
  25              	IsBlocking:
  26              	.LFB61:
  27              		.file 1 "WIFIQueue.c"
   1:WIFIQueue.c   **** /* ========================================
   2:WIFIQueue.c   ****  *
   3:WIFIQueue.c   ****  * Copyright YOUR COMPANY, THE YEAR
   4:WIFIQueue.c   ****  * All Rights Reserved
   5:WIFIQueue.c   ****  * UNPUBLISHED, LICENSED SOFTWARE.
   6:WIFIQueue.c   ****  *
   7:WIFIQueue.c   ****  * CONFIDENTIAL AND PROPRIETARY INFORMATION
   8:WIFIQueue.c   ****  * WHICH IS THE PROPERTY OF your company.
   9:WIFIQueue.c   ****  *
  10:WIFIQueue.c   ****  * ========================================
  11:WIFIQueue.c   **** */
  12:WIFIQueue.c   **** #include "WIFIQueue.h"
  13:WIFIQueue.c   **** 
  14:WIFIQueue.c   **** #define MAX_WIFI_QUEUE 1024
  15:WIFIQueue.c   **** 
  16:WIFIQueue.c   **** short g_uSizeQueueWIFI=0;
  17:WIFIQueue.c   **** short g_uFrontQueueWIFI=0;
  18:WIFIQueue.c   **** short g_uRearQueueWIFI=0;
  19:WIFIQueue.c   **** char  g_cQueueWIFI[MAX_WIFI_QUEUE];
  20:WIFIQueue.c   **** 
  21:WIFIQueue.c   **** uint16 g_CountCRLF=0;
  22:WIFIQueue.c   **** uint16 g_cLastEnqueue=0;
  23:WIFIQueue.c   **** uint16 g_cLastDequeue=0;
  24:WIFIQueue.c   **** 
  25:WIFIQueue.c   **** uint8 g_bBlockingWIFIQueue=FALSE;
  26:WIFIQueue.c   **** uint8 IsBlocking() { return g_bBlockingWIFIQueue; }
  28              		.loc 1 26 0
  29              		.cfi_startproc
  30              		@ args = 0, pretend = 0, frame = 0
  31              		@ frame_needed = 0, uses_anonymous_args = 0
ARM GAS  C:\Users\theGu\AppData\Local\Temp\ccIUymvQ.s 			page 2


  32              		@ link register save eliminated.
  33              		.loc 1 26 0
  34 0000 014B     		ldr	r3, .L2
  35 0002 1878     		ldrb	r0, [r3]
  36              		@ sp needed
  37 0004 7047     		bx	lr
  38              	.L3:
  39 0006 C046     		.align	2
  40              	.L2:
  41 0008 00000000 		.word	.LANCHOR0
  42              		.cfi_endproc
  43              	.LFE61:
  44              		.size	IsBlocking, .-IsBlocking
  45              		.section	.text.BlockingWifiQueue,"ax",%progbits
  46              		.align	2
  47              		.global	BlockingWifiQueue
  48              		.code	16
  49              		.thumb_func
  50              		.type	BlockingWifiQueue, %function
  51              	BlockingWifiQueue:
  52              	.LFB62:
  27:WIFIQueue.c   **** void  BlockingWifiQueue() { g_bBlockingWIFIQueue = TRUE; }
  53              		.loc 1 27 0
  54              		.cfi_startproc
  55              		@ args = 0, pretend = 0, frame = 0
  56              		@ frame_needed = 0, uses_anonymous_args = 0
  57              		@ link register save eliminated.
  58              		.loc 1 27 0
  59 0000 0122     		movs	r2, #1
  60 0002 014B     		ldr	r3, .L5
  61 0004 1A70     		strb	r2, [r3]
  62              		@ sp needed
  63 0006 7047     		bx	lr
  64              	.L6:
  65              		.align	2
  66              	.L5:
  67 0008 00000000 		.word	.LANCHOR0
  68              		.cfi_endproc
  69              	.LFE62:
  70              		.size	BlockingWifiQueue, .-BlockingWifiQueue
  71              		.section	.text.UnblockingWifiQueue,"ax",%progbits
  72              		.align	2
  73              		.global	UnblockingWifiQueue
  74              		.code	16
  75              		.thumb_func
  76              		.type	UnblockingWifiQueue, %function
  77              	UnblockingWifiQueue:
  78              	.LFB63:
  28:WIFIQueue.c   **** void  UnblockingWifiQueue() { g_bBlockingWIFIQueue = FALSE; }
  79              		.loc 1 28 0
  80              		.cfi_startproc
  81              		@ args = 0, pretend = 0, frame = 0
  82              		@ frame_needed = 0, uses_anonymous_args = 0
  83              		@ link register save eliminated.
  84              		.loc 1 28 0
  85 0000 0022     		movs	r2, #0
  86 0002 014B     		ldr	r3, .L8
ARM GAS  C:\Users\theGu\AppData\Local\Temp\ccIUymvQ.s 			page 3


  87 0004 1A70     		strb	r2, [r3]
  88              		@ sp needed
  89 0006 7047     		bx	lr
  90              	.L9:
  91              		.align	2
  92              	.L8:
  93 0008 00000000 		.word	.LANCHOR0
  94              		.cfi_endproc
  95              	.LFE63:
  96              		.size	UnblockingWifiQueue, .-UnblockingWifiQueue
  97              		.section	.text.deleteAllQueueWIFI,"ax",%progbits
  98              		.align	2
  99              		.global	deleteAllQueueWIFI
 100              		.code	16
 101              		.thumb_func
 102              		.type	deleteAllQueueWIFI, %function
 103              	deleteAllQueueWIFI:
 104              	.LFB64:
  29:WIFIQueue.c   **** 
  30:WIFIQueue.c   **** void deleteAllQueueWIFI()
  31:WIFIQueue.c   **** {
 105              		.loc 1 31 0
 106              		.cfi_startproc
 107              		@ args = 0, pretend = 0, frame = 0
 108              		@ frame_needed = 0, uses_anonymous_args = 0
 109              		@ link register save eliminated.
  32:WIFIQueue.c   ****     g_cLastEnqueue = g_cLastDequeue = 0;
 110              		.loc 1 32 0
 111 0000 024B     		ldr	r3, .L11
 112 0002 0022     		movs	r2, #0
 113 0004 5A80     		strh	r2, [r3, #2]
 114 0006 9A80     		strh	r2, [r3, #4]
  33:WIFIQueue.c   ****     g_CountCRLF = 0;
 115              		.loc 1 33 0
 116 0008 DA80     		strh	r2, [r3, #6]
  34:WIFIQueue.c   **** }
 117              		.loc 1 34 0
 118              		@ sp needed
 119 000a 7047     		bx	lr
 120              	.L12:
 121              		.align	2
 122              	.L11:
 123 000c 00000000 		.word	.LANCHOR0
 124              		.cfi_endproc
 125              	.LFE64:
 126              		.size	deleteAllQueueWIFI, .-deleteAllQueueWIFI
 127              		.section	.text.isFullQueueWIFI,"ax",%progbits
 128              		.align	2
 129              		.global	isFullQueueWIFI
 130              		.code	16
 131              		.thumb_func
 132              		.type	isFullQueueWIFI, %function
 133              	isFullQueueWIFI:
 134              	.LFB65:
  35:WIFIQueue.c   **** uint8 isFullQueueWIFI(void)
  36:WIFIQueue.c   **** {
 135              		.loc 1 36 0
ARM GAS  C:\Users\theGu\AppData\Local\Temp\ccIUymvQ.s 			page 4


 136              		.cfi_startproc
 137              		@ args = 0, pretend = 0, frame = 0
 138              		@ frame_needed = 0, uses_anonymous_args = 0
 139              		@ link register save eliminated.
  37:WIFIQueue.c   ****     if( (g_uRearQueueWIFI + 1) % MAX_WIFI_QUEUE == g_uFrontQueueWIFI)
 140              		.loc 1 37 0
 141 0000 0849     		ldr	r1, .L16
 142 0002 0822     		movs	r2, #8
 143 0004 8B5E     		ldrsh	r3, [r1, r2]
 144 0006 0133     		adds	r3, r3, #1
 145 0008 DA17     		asrs	r2, r3, #31
 146 000a 920D     		lsrs	r2, r2, #22
 147 000c 9B18     		adds	r3, r3, r2
 148 000e 9B05     		lsls	r3, r3, #22
 149 0010 9B0D     		lsrs	r3, r3, #22
 150 0012 9B1A     		subs	r3, r3, r2
 151 0014 0A22     		movs	r2, #10
 152 0016 8A5E     		ldrsh	r2, [r1, r2]
 153 0018 9342     		cmp	r3, r2
 154 001a 01D1     		bne	.L15
  38:WIFIQueue.c   ****         return TRUE;
 155              		.loc 1 38 0
 156 001c 0120     		movs	r0, #1
 157 001e 00E0     		b	.L14
 158              	.L15:
  39:WIFIQueue.c   ****     else
  40:WIFIQueue.c   ****         return FALSE;
 159              		.loc 1 40 0
 160 0020 0020     		movs	r0, #0
 161              	.L14:
  41:WIFIQueue.c   **** }
 162              		.loc 1 41 0
 163              		@ sp needed
 164 0022 7047     		bx	lr
 165              	.L17:
 166              		.align	2
 167              	.L16:
 168 0024 00000000 		.word	.LANCHOR0
 169              		.cfi_endproc
 170              	.LFE65:
 171              		.size	isFullQueueWIFI, .-isFullQueueWIFI
 172              		.section	.text.isEmptyQueueWIFI,"ax",%progbits
 173              		.align	2
 174              		.global	isEmptyQueueWIFI
 175              		.code	16
 176              		.thumb_func
 177              		.type	isEmptyQueueWIFI, %function
 178              	isEmptyQueueWIFI:
 179              	.LFB66:
  42:WIFIQueue.c   **** 
  43:WIFIQueue.c   **** uint8 isEmptyQueueWIFI(void)
  44:WIFIQueue.c   **** {
 180              		.loc 1 44 0
 181              		.cfi_startproc
 182              		@ args = 0, pretend = 0, frame = 0
 183              		@ frame_needed = 0, uses_anonymous_args = 0
 184              		@ link register save eliminated.
ARM GAS  C:\Users\theGu\AppData\Local\Temp\ccIUymvQ.s 			page 5


  45:WIFIQueue.c   ****     if(g_uFrontQueueWIFI==g_uRearQueueWIFI)
 185              		.loc 1 45 0
 186 0000 054B     		ldr	r3, .L21
 187 0002 0A21     		movs	r1, #10
 188 0004 5A5E     		ldrsh	r2, [r3, r1]
 189 0006 0821     		movs	r1, #8
 190 0008 5B5E     		ldrsh	r3, [r3, r1]
 191 000a 9A42     		cmp	r2, r3
 192 000c 01D1     		bne	.L20
  46:WIFIQueue.c   ****             return 1;
 193              		.loc 1 46 0
 194 000e 0120     		movs	r0, #1
 195 0010 00E0     		b	.L19
 196              	.L20:
  47:WIFIQueue.c   ****     else
  48:WIFIQueue.c   ****             return 0;
 197              		.loc 1 48 0
 198 0012 0020     		movs	r0, #0
 199              	.L19:
  49:WIFIQueue.c   **** }
 200              		.loc 1 49 0
 201              		@ sp needed
 202 0014 7047     		bx	lr
 203              	.L22:
 204 0016 C046     		.align	2
 205              	.L21:
 206 0018 00000000 		.word	.LANCHOR0
 207              		.cfi_endproc
 208              	.LFE66:
 209              		.size	isEmptyQueueWIFI, .-isEmptyQueueWIFI
 210              		.section	.text.enQueueWIFI,"ax",%progbits
 211              		.align	2
 212              		.global	enQueueWIFI
 213              		.code	16
 214              		.thumb_func
 215              		.type	enQueueWIFI, %function
 216              	enQueueWIFI:
 217              	.LFB67:
  50:WIFIQueue.c   **** 
  51:WIFIQueue.c   **** uint8 enQueueWIFI(char c)
  52:WIFIQueue.c   **** {
 218              		.loc 1 52 0
 219              		.cfi_startproc
 220              		@ args = 0, pretend = 0, frame = 0
 221              		@ frame_needed = 0, uses_anonymous_args = 0
 222              	.LVL0:
 223 0000 10B5     		push	{r4, lr}
 224              		.cfi_def_cfa_offset 8
 225              		.cfi_offset 4, -8
 226              		.cfi_offset 14, -4
 227 0002 0400     		movs	r4, r0
  53:WIFIQueue.c   ****     if(isFullQueueWIFI()) return FALSE;
 228              		.loc 1 53 0
 229 0004 FFF7FEFF 		bl	isFullQueueWIFI
 230              	.LVL1:
 231 0008 0028     		cmp	r0, #0
 232 000a 1BD1     		bne	.L26
ARM GAS  C:\Users\theGu\AppData\Local\Temp\ccIUymvQ.s 			page 6


  54:WIFIQueue.c   **** 
  55:WIFIQueue.c   ****     g_uSizeQueueWIFI++;
 233              		.loc 1 55 0
 234 000c 0E49     		ldr	r1, .L27
 235 000e 8B89     		ldrh	r3, [r1, #12]
 236 0010 0133     		adds	r3, r3, #1
 237 0012 8B81     		strh	r3, [r1, #12]
  56:WIFIQueue.c   ****     g_uRearQueueWIFI = (g_uRearQueueWIFI + 1) % MAX_WIFI_QUEUE;
 238              		.loc 1 56 0
 239 0014 0823     		movs	r3, #8
 240 0016 CA5E     		ldrsh	r2, [r1, r3]
 241 0018 0132     		adds	r2, r2, #1
 242 001a D317     		asrs	r3, r2, #31
 243 001c 9B0D     		lsrs	r3, r3, #22
 244 001e D218     		adds	r2, r2, r3
 245 0020 9205     		lsls	r2, r2, #22
 246 0022 920D     		lsrs	r2, r2, #22
 247 0024 D31A     		subs	r3, r2, r3
 248 0026 0B81     		strh	r3, [r1, #8]
  57:WIFIQueue.c   ****     g_cQueueWIFI[g_uRearQueueWIFI] = c;
 249              		.loc 1 57 0
 250 0028 084A     		ldr	r2, .L27+4
 251 002a D454     		strb	r4, [r2, r3]
  58:WIFIQueue.c   ****     
  59:WIFIQueue.c   ****     if(g_cLastEnqueue == CR && c == LF) g_CountCRLF++;    
 252              		.loc 1 59 0
 253 002c 8B88     		ldrh	r3, [r1, #4]
 254 002e 0D2B     		cmp	r3, #13
 255 0030 04D1     		bne	.L25
 256              		.loc 1 59 0 is_stmt 0 discriminator 1
 257 0032 0A2C     		cmp	r4, #10
 258 0034 02D1     		bne	.L25
 259              		.loc 1 59 0 discriminator 2
 260 0036 CB88     		ldrh	r3, [r1, #6]
 261 0038 0133     		adds	r3, r3, #1
 262 003a CB80     		strh	r3, [r1, #6]
 263              	.L25:
  60:WIFIQueue.c   **** 
  61:WIFIQueue.c   ****     g_cLastEnqueue = c;
 264              		.loc 1 61 0 is_stmt 1
 265 003c 024B     		ldr	r3, .L27
 266 003e 9C80     		strh	r4, [r3, #4]
  62:WIFIQueue.c   ****     return TRUE;
 267              		.loc 1 62 0
 268 0040 0120     		movs	r0, #1
 269 0042 00E0     		b	.L24
 270              	.L26:
  53:WIFIQueue.c   **** 
 271              		.loc 1 53 0
 272 0044 0020     		movs	r0, #0
 273              	.L24:
  63:WIFIQueue.c   **** }
 274              		.loc 1 63 0
 275              		@ sp needed
 276 0046 10BD     		pop	{r4, pc}
 277              	.L28:
 278              		.align	2
ARM GAS  C:\Users\theGu\AppData\Local\Temp\ccIUymvQ.s 			page 7


 279              	.L27:
 280 0048 00000000 		.word	.LANCHOR0
 281 004c 00000000 		.word	g_cQueueWIFI
 282              		.cfi_endproc
 283              	.LFE67:
 284              		.size	enQueueWIFI, .-enQueueWIFI
 285              		.section	.text.deQueueWIFI,"ax",%progbits
 286              		.align	2
 287              		.global	deQueueWIFI
 288              		.code	16
 289              		.thumb_func
 290              		.type	deQueueWIFI, %function
 291              	deQueueWIFI:
 292              	.LFB68:
  64:WIFIQueue.c   **** 
  65:WIFIQueue.c   **** char deQueueWIFI(void)
  66:WIFIQueue.c   **** {
 293              		.loc 1 66 0
 294              		.cfi_startproc
 295              		@ args = 0, pretend = 0, frame = 0
 296              		@ frame_needed = 0, uses_anonymous_args = 0
 297              		@ link register save eliminated.
  67:WIFIQueue.c   ****     uint8 c;
  68:WIFIQueue.c   ****     g_uSizeQueueWIFI--;
 298              		.loc 1 68 0
 299 0000 0D49     		ldr	r1, .L31
 300 0002 8B89     		ldrh	r3, [r1, #12]
 301 0004 013B     		subs	r3, r3, #1
 302 0006 8B81     		strh	r3, [r1, #12]
  69:WIFIQueue.c   ****     g_uFrontQueueWIFI = (g_uFrontQueueWIFI + 1) % MAX_WIFI_QUEUE;
 303              		.loc 1 69 0
 304 0008 0A23     		movs	r3, #10
 305 000a CA5E     		ldrsh	r2, [r1, r3]
 306 000c 0132     		adds	r2, r2, #1
 307 000e D317     		asrs	r3, r2, #31
 308 0010 9B0D     		lsrs	r3, r3, #22
 309 0012 D218     		adds	r2, r2, r3
 310 0014 9205     		lsls	r2, r2, #22
 311 0016 920D     		lsrs	r2, r2, #22
 312 0018 D31A     		subs	r3, r2, r3
 313 001a 4B81     		strh	r3, [r1, #10]
  70:WIFIQueue.c   ****     
  71:WIFIQueue.c   ****     c = g_cQueueWIFI[g_uFrontQueueWIFI];
 314              		.loc 1 71 0
 315 001c 074A     		ldr	r2, .L31+4
 316 001e D05C     		ldrb	r0, [r2, r3]
 317              	.LVL2:
  72:WIFIQueue.c   ****     
  73:WIFIQueue.c   ****     if(g_cLastDequeue == CR && c == LF) g_CountCRLF--;
 318              		.loc 1 73 0
 319 0020 4B88     		ldrh	r3, [r1, #2]
 320 0022 0D2B     		cmp	r3, #13
 321 0024 04D1     		bne	.L30
 322              		.loc 1 73 0 is_stmt 0 discriminator 1
 323 0026 0A28     		cmp	r0, #10
 324 0028 02D1     		bne	.L30
 325              		.loc 1 73 0 discriminator 2
ARM GAS  C:\Users\theGu\AppData\Local\Temp\ccIUymvQ.s 			page 8


 326 002a CB88     		ldrh	r3, [r1, #6]
 327 002c 013B     		subs	r3, r3, #1
 328 002e CB80     		strh	r3, [r1, #6]
 329              	.L30:
  74:WIFIQueue.c   ****     
  75:WIFIQueue.c   ****     g_cLastDequeue = c;
 330              		.loc 1 75 0 is_stmt 1
 331 0030 014B     		ldr	r3, .L31
 332 0032 5880     		strh	r0, [r3, #2]
  76:WIFIQueue.c   ****     return c;
  77:WIFIQueue.c   **** }
 333              		.loc 1 77 0
 334              		@ sp needed
 335 0034 7047     		bx	lr
 336              	.L32:
 337 0036 C046     		.align	2
 338              	.L31:
 339 0038 00000000 		.word	.LANCHOR0
 340 003c 00000000 		.word	g_cQueueWIFI
 341              		.cfi_endproc
 342              	.LFE68:
 343              		.size	deQueueWIFI, .-deQueueWIFI
 344              		.section	.text.getFrontQueueWIFI,"ax",%progbits
 345              		.align	2
 346              		.global	getFrontQueueWIFI
 347              		.code	16
 348              		.thumb_func
 349              		.type	getFrontQueueWIFI, %function
 350              	getFrontQueueWIFI:
 351              	.LFB69:
  78:WIFIQueue.c   **** 
  79:WIFIQueue.c   **** char getFrontQueueWIFI(void)
  80:WIFIQueue.c   **** {
 352              		.loc 1 80 0
 353              		.cfi_startproc
 354              		@ args = 0, pretend = 0, frame = 0
 355              		@ frame_needed = 0, uses_anonymous_args = 0
 356              		@ link register save eliminated.
  81:WIFIQueue.c   ****    return g_cQueueWIFI[(g_uFrontQueueWIFI + 1 ) % MAX_WIFI_QUEUE ];
 357              		.loc 1 81 0
 358 0000 064B     		ldr	r3, .L34
 359 0002 0A22     		movs	r2, #10
 360 0004 9B5E     		ldrsh	r3, [r3, r2]
 361 0006 0133     		adds	r3, r3, #1
 362 0008 DA17     		asrs	r2, r3, #31
 363 000a 920D     		lsrs	r2, r2, #22
 364 000c 9B18     		adds	r3, r3, r2
 365 000e 9B05     		lsls	r3, r3, #22
 366 0010 9B0D     		lsrs	r3, r3, #22
 367 0012 9B1A     		subs	r3, r3, r2
 368 0014 024A     		ldr	r2, .L34+4
 369 0016 D05C     		ldrb	r0, [r2, r3]
  82:WIFIQueue.c   **** }
 370              		.loc 1 82 0
 371              		@ sp needed
 372 0018 7047     		bx	lr
 373              	.L35:
ARM GAS  C:\Users\theGu\AppData\Local\Temp\ccIUymvQ.s 			page 9


 374 001a C046     		.align	2
 375              	.L34:
 376 001c 00000000 		.word	.LANCHOR0
 377 0020 00000000 		.word	g_cQueueWIFI
 378              		.cfi_endproc
 379              	.LFE69:
 380              		.size	getFrontQueueWIFI, .-getFrontQueueWIFI
 381              		.section	.text.getFrontNextQueueWIFI,"ax",%progbits
 382              		.align	2
 383              		.global	getFrontNextQueueWIFI
 384              		.code	16
 385              		.thumb_func
 386              		.type	getFrontNextQueueWIFI, %function
 387              	getFrontNextQueueWIFI:
 388              	.LFB70:
  83:WIFIQueue.c   **** 
  84:WIFIQueue.c   **** char getFrontNextQueueWIFI(int i)
  85:WIFIQueue.c   **** {
 389              		.loc 1 85 0
 390              		.cfi_startproc
 391              		@ args = 0, pretend = 0, frame = 0
 392              		@ frame_needed = 0, uses_anonymous_args = 0
 393              		@ link register save eliminated.
 394              	.LVL3:
  86:WIFIQueue.c   ****    return g_cQueueWIFI[(g_uFrontQueueWIFI + 1 + i) % MAX_WIFI_QUEUE];
 395              		.loc 1 86 0
 396 0000 064B     		ldr	r3, .L37
 397 0002 0A22     		movs	r2, #10
 398 0004 9B5E     		ldrsh	r3, [r3, r2]
 399 0006 0133     		adds	r3, r3, #1
 400 0008 1818     		adds	r0, r3, r0
 401              	.LVL4:
 402 000a C317     		asrs	r3, r0, #31
 403 000c 9B0D     		lsrs	r3, r3, #22
 404 000e C018     		adds	r0, r0, r3
 405 0010 8005     		lsls	r0, r0, #22
 406 0012 800D     		lsrs	r0, r0, #22
 407 0014 C01A     		subs	r0, r0, r3
 408 0016 024B     		ldr	r3, .L37+4
 409 0018 185C     		ldrb	r0, [r3, r0]
  87:WIFIQueue.c   **** }
 410              		.loc 1 87 0
 411              		@ sp needed
 412 001a 7047     		bx	lr
 413              	.L38:
 414              		.align	2
 415              	.L37:
 416 001c 00000000 		.word	.LANCHOR0
 417 0020 00000000 		.word	g_cQueueWIFI
 418              		.cfi_endproc
 419              	.LFE70:
 420              		.size	getFrontNextQueueWIFI, .-getFrontNextQueueWIFI
 421              		.section	.text.getRearQueueWIFI,"ax",%progbits
 422              		.align	2
 423              		.global	getRearQueueWIFI
 424              		.code	16
 425              		.thumb_func
ARM GAS  C:\Users\theGu\AppData\Local\Temp\ccIUymvQ.s 			page 10


 426              		.type	getRearQueueWIFI, %function
 427              	getRearQueueWIFI:
 428              	.LFB71:
  88:WIFIQueue.c   **** 
  89:WIFIQueue.c   **** char getRearQueueWIFI(void)
  90:WIFIQueue.c   **** {
 429              		.loc 1 90 0
 430              		.cfi_startproc
 431              		@ args = 0, pretend = 0, frame = 0
 432              		@ frame_needed = 0, uses_anonymous_args = 0
 433              		@ link register save eliminated.
  91:WIFIQueue.c   ****    return g_cQueueWIFI[ g_uSizeQueueWIFI % MAX_WIFI_QUEUE];
 434              		.loc 1 91 0
 435 0000 054B     		ldr	r3, .L40
 436 0002 0C22     		movs	r2, #12
 437 0004 9B5E     		ldrsh	r3, [r3, r2]
 438 0006 DA17     		asrs	r2, r3, #31
 439 0008 920D     		lsrs	r2, r2, #22
 440 000a 9B18     		adds	r3, r3, r2
 441 000c 9B05     		lsls	r3, r3, #22
 442 000e 9B0D     		lsrs	r3, r3, #22
 443 0010 9B1A     		subs	r3, r3, r2
 444 0012 024A     		ldr	r2, .L40+4
 445 0014 D05C     		ldrb	r0, [r2, r3]
  92:WIFIQueue.c   **** }
 446              		.loc 1 92 0
 447              		@ sp needed
 448 0016 7047     		bx	lr
 449              	.L41:
 450              		.align	2
 451              	.L40:
 452 0018 00000000 		.word	.LANCHOR0
 453 001c 00000000 		.word	g_cQueueWIFI
 454              		.cfi_endproc
 455              	.LFE71:
 456              		.size	getRearQueueWIFI, .-getRearQueueWIFI
 457              		.section	.text.getSizeQueueWIFI,"ax",%progbits
 458              		.align	2
 459              		.global	getSizeQueueWIFI
 460              		.code	16
 461              		.thumb_func
 462              		.type	getSizeQueueWIFI, %function
 463              	getSizeQueueWIFI:
 464              	.LFB72:
  93:WIFIQueue.c   **** 
  94:WIFIQueue.c   **** uint16 getSizeQueueWIFI(void)
  95:WIFIQueue.c   **** {
 465              		.loc 1 95 0
 466              		.cfi_startproc
 467              		@ args = 0, pretend = 0, frame = 0
 468              		@ frame_needed = 0, uses_anonymous_args = 0
 469              		@ link register save eliminated.
  96:WIFIQueue.c   ****    return g_uSizeQueueWIFI;
 470              		.loc 1 96 0
 471 0000 014B     		ldr	r3, .L43
 472 0002 9889     		ldrh	r0, [r3, #12]
  97:WIFIQueue.c   **** }
ARM GAS  C:\Users\theGu\AppData\Local\Temp\ccIUymvQ.s 			page 11


 473              		.loc 1 97 0
 474              		@ sp needed
 475 0004 7047     		bx	lr
 476              	.L44:
 477 0006 C046     		.align	2
 478              	.L43:
 479 0008 00000000 		.word	.LANCHOR0
 480              		.cfi_endproc
 481              	.LFE72:
 482              		.size	getSizeQueueWIFI, .-getSizeQueueWIFI
 483              		.section	.text.getCountCRLF,"ax",%progbits
 484              		.align	2
 485              		.global	getCountCRLF
 486              		.code	16
 487              		.thumb_func
 488              		.type	getCountCRLF, %function
 489              	getCountCRLF:
 490              	.LFB73:
  98:WIFIQueue.c   **** 
  99:WIFIQueue.c   **** uint16 getCountCRLF() { return g_CountCRLF; }
 491              		.loc 1 99 0
 492              		.cfi_startproc
 493              		@ args = 0, pretend = 0, frame = 0
 494              		@ frame_needed = 0, uses_anonymous_args = 0
 495              		@ link register save eliminated.
 496              		.loc 1 99 0
 497 0000 014B     		ldr	r3, .L46
 498 0002 D888     		ldrh	r0, [r3, #6]
 499              		@ sp needed
 500 0004 7047     		bx	lr
 501              	.L47:
 502 0006 C046     		.align	2
 503              	.L46:
 504 0008 00000000 		.word	.LANCHOR0
 505              		.cfi_endproc
 506              	.LFE73:
 507              		.size	getCountCRLF, .-getCountCRLF
 508              		.section	.text.PrintQueueWIFI,"ax",%progbits
 509              		.align	2
 510              		.global	PrintQueueWIFI
 511              		.code	16
 512              		.thumb_func
 513              		.type	PrintQueueWIFI, %function
 514              	PrintQueueWIFI:
 515              	.LFB74:
 100:WIFIQueue.c   **** 
 101:WIFIQueue.c   **** void PrintQueueWIFI()
 102:WIFIQueue.c   **** {
 516              		.loc 1 102 0
 517              		.cfi_startproc
 518              		@ args = 0, pretend = 0, frame = 0
 519              		@ frame_needed = 0, uses_anonymous_args = 0
 520 0000 10B5     		push	{r4, lr}
 521              		.cfi_def_cfa_offset 8
 522              		.cfi_offset 4, -8
 523              		.cfi_offset 14, -4
 524              	.LVL5:
ARM GAS  C:\Users\theGu\AppData\Local\Temp\ccIUymvQ.s 			page 12


 525              	.LBB2:
 103:WIFIQueue.c   ****     for(int i=0; i < getSizeQueueWIFI(); i++)
 526              		.loc 1 103 0
 527 0002 0024     		movs	r4, #0
 528 0004 07E0     		b	.L49
 529              	.LVL6:
 530              	.L50:
 104:WIFIQueue.c   ****         DEBUG_printf("%c",getFrontNextQueueWIFI(i));
 531              		.loc 1 104 0 discriminator 3
 532 0006 2000     		movs	r0, r4
 533 0008 FFF7FEFF 		bl	getFrontNextQueueWIFI
 534              	.LVL7:
 535 000c 0100     		movs	r1, r0
 536 000e 0448     		ldr	r0, .L51
 537 0010 FFF7FEFF 		bl	DEBUG_printf
 538              	.LVL8:
 103:WIFIQueue.c   ****     for(int i=0; i < getSizeQueueWIFI(); i++)
 539              		.loc 1 103 0 discriminator 3
 540 0014 0134     		adds	r4, r4, #1
 541              	.LVL9:
 542              	.L49:
 103:WIFIQueue.c   ****     for(int i=0; i < getSizeQueueWIFI(); i++)
 543              		.loc 1 103 0 is_stmt 0 discriminator 1
 544 0016 FFF7FEFF 		bl	getSizeQueueWIFI
 545              	.LVL10:
 546 001a 8442     		cmp	r4, r0
 547 001c F3DB     		blt	.L50
 548              	.LBE2:
 105:WIFIQueue.c   **** }
 549              		.loc 1 105 0 is_stmt 1
 550              		@ sp needed
 551              	.LVL11:
 552 001e 10BD     		pop	{r4, pc}
 553              	.L52:
 554              		.align	2
 555              	.L51:
 556 0020 00000000 		.word	.LC18
 557              		.cfi_endproc
 558              	.LFE74:
 559              		.size	PrintQueueWIFI, .-PrintQueueWIFI
 560              		.global	g_bBlockingWIFIQueue
 561              		.global	g_cLastDequeue
 562              		.global	g_cLastEnqueue
 563              		.global	g_CountCRLF
 564              		.comm	g_cQueueWIFI,1024,4
 565              		.global	g_uRearQueueWIFI
 566              		.global	g_uFrontQueueWIFI
 567              		.global	g_uSizeQueueWIFI
 568              		.comm	Param,6,4
 569              		.section	.rodata.str1.4,"aMS",%progbits,1
 570              		.align	2
 571              	.LC18:
 572 0000 256300   		.ascii	"%c\000"
 573              		.bss
 574              		.align	1
 575              		.set	.LANCHOR0,. + 0
 576              		.type	g_bBlockingWIFIQueue, %object
ARM GAS  C:\Users\theGu\AppData\Local\Temp\ccIUymvQ.s 			page 13


 577              		.size	g_bBlockingWIFIQueue, 1
 578              	g_bBlockingWIFIQueue:
 579 0000 00       		.space	1
 580 0001 00       		.space	1
 581              		.type	g_cLastDequeue, %object
 582              		.size	g_cLastDequeue, 2
 583              	g_cLastDequeue:
 584 0002 0000     		.space	2
 585              		.type	g_cLastEnqueue, %object
 586              		.size	g_cLastEnqueue, 2
 587              	g_cLastEnqueue:
 588 0004 0000     		.space	2
 589              		.type	g_CountCRLF, %object
 590              		.size	g_CountCRLF, 2
 591              	g_CountCRLF:
 592 0006 0000     		.space	2
 593              		.type	g_uRearQueueWIFI, %object
 594              		.size	g_uRearQueueWIFI, 2
 595              	g_uRearQueueWIFI:
 596 0008 0000     		.space	2
 597              		.type	g_uFrontQueueWIFI, %object
 598              		.size	g_uFrontQueueWIFI, 2
 599              	g_uFrontQueueWIFI:
 600 000a 0000     		.space	2
 601              		.type	g_uSizeQueueWIFI, %object
 602              		.size	g_uSizeQueueWIFI, 2
 603              	g_uSizeQueueWIFI:
 604 000c 0000     		.space	2
 605              		.text
 606              	.Letext0:
 607              		.file 2 "Generated_Source\\PSoC4/cytypes.h"
 608              		.file 3 "main.h"
 609              		.file 4 "debug.h"