ARM GAS  C:\Users\luvsd\AppData\Local\Temp\ccnLJM5n.s 			page 1


   1              		.syntax unified
   2              		.cpu cortex-m0
   3              		.fpu softvfp
   4              		.eabi_attribute 20, 1
   5              		.eabi_attribute 21, 1
   6              		.eabi_attribute 23, 3
   7              		.eabi_attribute 24, 1
   8              		.eabi_attribute 25, 1
   9              		.eabi_attribute 26, 1
  10              		.eabi_attribute 30, 1
  11              		.eabi_attribute 34, 0
  12              		.eabi_attribute 18, 4
  13              		.thumb
  14              		.syntax unified
  15              		.file	"count.c"
  16              		.text
  17              	.Ltext0:
  18              		.cfi_sections	.debug_frame
  19              		.section	.text.Trim_Interrupt_Routine,"ax",%progbits
  20              		.align	2
  21              		.global	Trim_Interrupt_Routine
  22              		.code	16
  23              		.thumb_func
  24              		.type	Trim_Interrupt_Routine, %function
  25              	Trim_Interrupt_Routine:
  26              	.LFB62:
  27              		.file 1 "count.c"
   1:count.c       **** /* ========================================
   2:count.c       ****  *
   3:count.c       ****  * Copyright Suntech, 2023.04.13
   4:count.c       ****  * All Rights Reserved
   5:count.c       ****  * UNPUBLISHED, LICENSED SOFTWARE.
   6:count.c       ****  *
   7:count.c       ****  * CONFIDENTIAL AND PROPRIETARY INFORMATION
   8:count.c       ****  * WHICH IS THE PROPERTY OF Suntech.
   9:count.c       ****  *
  10:count.c       ****  * ========================================
  11:count.c       **** */
  12:count.c       **** #include "main.h"
  13:count.c       **** #include "count.h"
  14:count.c       **** #include "lib/internalFlash.h"
  15:count.c       **** #include "userProjectPatternSewing.h"
  16:count.c       **** #include "andonApi.h"
  17:count.c       **** #include "uartJson.h"
  18:count.c       **** 
  19:count.c       **** static uint8 g_updateTrimCount=FALSE;  /* ISR + SewingCountLoop 내부 전용 */
  20:count.c       **** uint8 g_updateCountMenu=FALSE;
  21:count.c       **** //uint16 g_trimCount=0;
  22:count.c       **** 
  23:count.c       **** COUNT *g_ptrCount = NULL;
  24:count.c       **** 
  25:count.c       **** static uint32 g_uWorkingTimeCount=0;   /* 접근자 함수(Get/Reset)로만 외부 접근 */
  26:count.c       **** 
  27:count.c       **** void PatternCountLoop();
  28:count.c       **** void SewingCountLoop();
  29:count.c       **** 
  30:count.c       **** void (*CountFunc)() = &SewingCountLoop;
ARM GAS  C:\Users\luvsd\AppData\Local\Temp\ccnLJM5n.s 			page 2


  31:count.c       **** 
  32:count.c       **** static uint16 g_Count = 0;             /* ISR + SewingCountLoop 내부 전용 */
  33:count.c       **** 
  34:count.c       **** volatile uint8_t  g_bStartTrimPin    = FALSE;  /* ISR 공유 → volatile 필수 */
  35:count.c       **** volatile uint16_t g_bTrimElapsedTime = 0;      /* ISR 공유 → volatile 필수 */
  36:count.c       **** 
  37:count.c       **** CY_ISR(Trim_Interrupt_Routine)
  38:count.c       **** {
  28              		.loc 1 38 0
  29              		.cfi_startproc
  30              		@ args = 0, pretend = 0, frame = 0
  31              		@ frame_needed = 0, uses_anonymous_args = 0
  32 0000 10B5     		push	{r4, lr}
  33              		.cfi_def_cfa_offset 8
  34              		.cfi_offset 4, -8
  35              		.cfi_offset 14, -4
  39:count.c       ****     g_updateTrimCount = TRUE;
  36              		.loc 1 39 0
  37 0002 0A4B     		ldr	r3, .L3
  38 0004 0122     		movs	r2, #1
  39 0006 1A70     		strb	r2, [r3]
  40:count.c       ****     //g_trimCount++;
  41:count.c       ****     g_ptrCount->sewingTrimCount++;
  40              		.loc 1 41 0
  41 0008 5968     		ldr	r1, [r3, #4]
  42 000a CA8A     		ldrh	r2, [r1, #22]
  43 000c 0132     		adds	r2, r2, #1
  44 000e CA82     		strh	r2, [r1, #22]
  42:count.c       ****     g_Count++;
  45              		.loc 1 42 0
  46 0010 1A89     		ldrh	r2, [r3, #8]
  47 0012 0132     		adds	r2, r2, #1
  48 0014 1A81     		strh	r2, [r3, #8]
  43:count.c       ****     
  44:count.c       ****     if(TrimPin_Read() == 0)
  49              		.loc 1 44 0
  50 0016 FFF7FEFF 		bl	TrimPin_Read
  51              	.LVL0:
  52 001a 0028     		cmp	r0, #0
  53 001c 04D1     		bne	.L1
  45:count.c       ****     {
  46:count.c       ****         g_bStartTrimPin = TRUE;
  54              		.loc 1 46 0
  55 001e 034B     		ldr	r3, .L3
  56 0020 0122     		movs	r2, #1
  57 0022 9A72     		strb	r2, [r3, #10]
  47:count.c       ****         g_bTrimElapsedTime = 0;
  58              		.loc 1 47 0
  59 0024 0022     		movs	r2, #0
  60 0026 9A81     		strh	r2, [r3, #12]
  61              	.L1:
  48:count.c       ****     }
  49:count.c       **** }
  62              		.loc 1 49 0
  63              		@ sp needed
  64 0028 10BD     		pop	{r4, pc}
  65              	.L4:
ARM GAS  C:\Users\luvsd\AppData\Local\Temp\ccnLJM5n.s 			page 3


  66 002a C046     		.align	2
  67              	.L3:
  68 002c 00000000 		.word	.LANCHOR0
  69              		.cfi_endproc
  70              	.LFE62:
  71              		.size	Trim_Interrupt_Routine, .-Trim_Interrupt_Routine
  72              		.section	.text.SewingCountLoop,"ax",%progbits
  73              		.align	2
  74              		.global	SewingCountLoop
  75              		.code	16
  76              		.thumb_func
  77              		.type	SewingCountLoop, %function
  78              	SewingCountLoop:
  79              	.LFB65:
  50:count.c       **** 
  51:count.c       **** void initCount()
  52:count.c       **** {
  53:count.c       ****     if(sizeof(COUNT) > sizeof(g_internalFlash.data))
  54:count.c       ****     {
  55:count.c       ****         printf("Wrong... COUNT size is large than g_internalFlash.data\r\n");        
  56:count.c       ****     }    
  57:count.c       ****     g_ptrCount = (COUNT *) &g_internalFlash.data;  
  58:count.c       ****     
  59:count.c       ****     SetCountLoop();
  60:count.c       **** }
  61:count.c       **** 
  62:count.c       **** void SetCountLoop()
  63:count.c       **** {
  64:count.c       ****     switch(g_ptrMachineParameter->machineType)
  65:count.c       ****     {
  66:count.c       ****         case PATTERN_MACHINE:
  67:count.c       ****             CountFunc = &PatternCountLoop;
  68:count.c       ****             trim_Int_Stop();
  69:count.c       ****         break;
  70:count.c       ****         case SEWING_MACHINE :
  71:count.c       ****             CountFunc = &SewingCountLoop;
  72:count.c       ****             trim_Int_StartEx(&Trim_Interrupt_Routine); 
  73:count.c       ****         break;
  74:count.c       ****     }
  75:count.c       **** }
  76:count.c       **** 
  77:count.c       **** void SewingCountLoop()
  78:count.c       **** {
  80              		.loc 1 78 0
  81              		.cfi_startproc
  82              		@ args = 0, pretend = 0, frame = 0
  83              		@ frame_needed = 0, uses_anonymous_args = 0
  84 0000 10B5     		push	{r4, lr}
  85              		.cfi_def_cfa_offset 8
  86              		.cfi_offset 4, -8
  87              		.cfi_offset 14, -4
  79:count.c       ****     if(g_updateTrimCount == FALSE) return;
  88              		.loc 1 79 0
  89 0002 1B4B     		ldr	r3, .L10
  90 0004 1B78     		ldrb	r3, [r3]
  91 0006 002B     		cmp	r3, #0
  92 0008 30D0     		beq	.L5
ARM GAS  C:\Users\luvsd\AppData\Local\Temp\ccnLJM5n.s 			page 4


  93              	.LVL1:
  94              	.LBB2:
  80:count.c       **** 
  81:count.c       ****     uint8 bSend = FALSE;
  82:count.c       ****     //uint32 actual =  CONVERT_TO_4BYTE(g_ptrCount->sewingActualH, g_ptrCount->sewingActualL) /10;
  83:count.c       ****     
  84:count.c       ****     ADD_CONVERT_TO_4BYTE(g_ptrCount->sewingTrimCountSumH,g_ptrCount->sewingTrimCountSumL,g_Count); 
  95              		.loc 1 84 0
  96 000a 1948     		ldr	r0, .L10
  97 000c 4268     		ldr	r2, [r0, #4]
  98 000e 138B     		ldrh	r3, [r2, #24]
  99 0010 1B04     		lsls	r3, r3, #16
 100 0012 518B     		ldrh	r1, [r2, #26]
 101 0014 0B43     		orrs	r3, r1
 102 0016 0189     		ldrh	r1, [r0, #8]
 103 0018 5B18     		adds	r3, r3, r1
 104              	.LVL2:
 105 001a 190C     		lsrs	r1, r3, #16
 106 001c 1183     		strh	r1, [r2, #24]
 107 001e 5383     		strh	r3, [r2, #26]
 108              	.LBE2:
 109 0020 0023     		movs	r3, #0
 110              	.LVL3:
 111 0022 0381     		strh	r3, [r0, #8]
  81:count.c       ****     //uint32 actual =  CONVERT_TO_4BYTE(g_ptrCount->sewingActualH, g_ptrCount->sewingActualL) /10;
 112              		.loc 1 81 0
 113 0024 0024     		movs	r4, #0
  85:count.c       ****     
  86:count.c       ****     //printf("\r\n%u %u %lu\r\n",g_ptrCount->sewingTrimCount,g_ptrMachineParameter->sewingPairTrim,
  87:count.c       ****     while(g_ptrCount->sewingTrimCount >= g_ptrMachineParameter->sewingPairTrim)
 114              		.loc 1 87 0
 115 0026 0DE0     		b	.L7
 116              	.LVL4:
 117              	.L8:
  88:count.c       ****     {
  89:count.c       ****         g_ptrCount->sewingTrimCount -= g_ptrMachineParameter->sewingPairTrim;
 118              		.loc 1 89 0
 119 0028 521A     		subs	r2, r2, r1
 120 002a DA82     		strh	r2, [r3, #22]
 121              	.LBB3:
  90:count.c       ****         
  91:count.c       ****         ADD_CONVERT_TO_4BYTE(g_ptrCount->sewingActualH,g_ptrCount->sewingActualL,g_ptrMachineParame
 122              		.loc 1 91 0
 123 002c 1A88     		ldrh	r2, [r3]
 124 002e 1204     		lsls	r2, r2, #16
 125 0030 5988     		ldrh	r1, [r3, #2]
 126 0032 0A43     		orrs	r2, r1
 127 0034 8189     		ldrh	r1, [r0, #12]
 128 0036 5218     		adds	r2, r2, r1
 129              	.LVL5:
 130 0038 110C     		lsrs	r1, r2, #16
 131 003a 1980     		strh	r1, [r3]
 132 003c 0C4B     		ldr	r3, .L10
 133 003e 5B68     		ldr	r3, [r3, #4]
 134 0040 5A80     		strh	r2, [r3, #2]
 135              	.LVL6:
 136              	.LBE3:
ARM GAS  C:\Users\luvsd\AppData\Local\Temp\ccnLJM5n.s 			page 5


  92:count.c       ****         bSend = TRUE;
 137              		.loc 1 92 0
 138 0042 0124     		movs	r4, #1
 139              	.LVL7:
 140              	.L7:
  87:count.c       ****     {
 141              		.loc 1 87 0
 142 0044 0A4B     		ldr	r3, .L10
 143 0046 5B68     		ldr	r3, [r3, #4]
 144 0048 DA8A     		ldrh	r2, [r3, #22]
 145 004a 0A49     		ldr	r1, .L10+4
 146 004c 0868     		ldr	r0, [r1]
 147 004e 4189     		ldrh	r1, [r0, #10]
 148 0050 8A42     		cmp	r2, r1
 149 0052 E9D2     		bcs	.L8
  93:count.c       ****     }
  94:count.c       **** 
  95:count.c       ****     if(bSend == TRUE)
 150              		.loc 1 95 0
 151 0054 012C     		cmp	r4, #1
 152 0056 06D1     		bne	.L9
  96:count.c       ****     {
  97:count.c       ****         g_updateCountMenu = TRUE;
 153              		.loc 1 97 0
 154 0058 0122     		movs	r2, #1
 155 005a 054B     		ldr	r3, .L10
 156 005c 9A73     		strb	r2, [r3, #14]
  98:count.c       ****         makeAndonSewingCount();
 157              		.loc 1 98 0
 158 005e FFF7FEFF 		bl	makeAndonSewingCount
 159              	.LVL8:
  99:count.c       ****         SaveInternalFlash();              
 160              		.loc 1 99 0
 161 0062 FFF7FEFF 		bl	SaveInternalFlash
 162              	.LVL9:
 163              	.L9:
 100:count.c       ****     }
 101:count.c       ****     
 102:count.c       ****     //if(CONVERT_TO_4BYTE(g_ptrCount->sewingActualH, g_ptrCount->sewingActualL)/10 > actual)
 103:count.c       ****     //{
 104:count.c       ****     //  g_updateCountMenu = TRUE;
 105:count.c       ****     //  makeAndonSewingCount();
 106:count.c       ****     //  SaveInternalFlash();              
 107:count.c       ****     //}
 108:count.c       ****     
 109:count.c       ****     g_updateTrimCount = FALSE;        
 164              		.loc 1 109 0
 165 0066 0022     		movs	r2, #0
 166 0068 014B     		ldr	r3, .L10
 167 006a 1A70     		strb	r2, [r3]
 168              	.LVL10:
 169              	.L5:
 110:count.c       **** }
 170              		.loc 1 110 0
 171              		@ sp needed
 172 006c 10BD     		pop	{r4, pc}
 173              	.L11:
ARM GAS  C:\Users\luvsd\AppData\Local\Temp\ccnLJM5n.s 			page 6


 174 006e C046     		.align	2
 175              	.L10:
 176 0070 00000000 		.word	.LANCHOR0
 177 0074 00000000 		.word	g_ptrMachineParameter
 178              		.cfi_endproc
 179              	.LFE65:
 180              		.size	SewingCountLoop, .-SewingCountLoop
 181              		.section	.text.PatternCountLoop,"ax",%progbits
 182              		.align	2
 183              		.global	PatternCountLoop
 184              		.code	16
 185              		.thumb_func
 186              		.type	PatternCountLoop, %function
 187              	PatternCountLoop:
 188              	.LFB66:
 111:count.c       **** 
 112:count.c       **** void PatternCountLoop()
 113:count.c       **** {
 189              		.loc 1 113 0
 190              		.cfi_startproc
 191              		@ args = 0, pretend = 0, frame = 0
 192              		@ frame_needed = 0, uses_anonymous_args = 0
 193 0000 10B5     		push	{r4, lr}
 194              		.cfi_def_cfa_offset 8
 195              		.cfi_offset 4, -8
 196              		.cfi_offset 14, -4
 114:count.c       ****     if(uartJsonLoop()==TRUE)
 197              		.loc 1 114 0
 198 0002 FFF7FEFF 		bl	uartJsonLoop
 199              	.LVL11:
 200 0006 0128     		cmp	r0, #1
 201 0008 02D1     		bne	.L12
 115:count.c       ****     {
 116:count.c       ****         g_updateCountMenu = TRUE;
 202              		.loc 1 116 0
 203 000a 0122     		movs	r2, #1
 204 000c 014B     		ldr	r3, .L14
 205 000e 9A73     		strb	r2, [r3, #14]
 206              	.L12:
 117:count.c       ****     }
 118:count.c       **** }
 207              		.loc 1 118 0
 208              		@ sp needed
 209 0010 10BD     		pop	{r4, pc}
 210              	.L15:
 211 0012 C046     		.align	2
 212              	.L14:
 213 0014 00000000 		.word	.LANCHOR0
 214              		.cfi_endproc
 215              	.LFE66:
 216              		.size	PatternCountLoop, .-PatternCountLoop
 217              		.section	.text.SetCountLoop,"ax",%progbits
 218              		.align	2
 219              		.global	SetCountLoop
 220              		.code	16
 221              		.thumb_func
 222              		.type	SetCountLoop, %function
ARM GAS  C:\Users\luvsd\AppData\Local\Temp\ccnLJM5n.s 			page 7


 223              	SetCountLoop:
 224              	.LFB64:
  63:count.c       ****     switch(g_ptrMachineParameter->machineType)
 225              		.loc 1 63 0
 226              		.cfi_startproc
 227              		@ args = 0, pretend = 0, frame = 0
 228              		@ frame_needed = 0, uses_anonymous_args = 0
 229 0000 10B5     		push	{r4, lr}
 230              		.cfi_def_cfa_offset 8
 231              		.cfi_offset 4, -8
 232              		.cfi_offset 14, -4
  64:count.c       ****     {
 233              		.loc 1 64 0
 234 0002 0A4B     		ldr	r3, .L20
 235 0004 1B68     		ldr	r3, [r3]
 236 0006 1B78     		ldrb	r3, [r3]
 237 0008 002B     		cmp	r3, #0
 238 000a 02D0     		beq	.L18
 239 000c 012B     		cmp	r3, #1
 240 000e 06D0     		beq	.L19
 241 0010 0BE0     		b	.L16
 242              	.L18:
  67:count.c       ****             trim_Int_Stop();
 243              		.loc 1 67 0
 244 0012 074A     		ldr	r2, .L20+4
 245 0014 074B     		ldr	r3, .L20+8
 246 0016 1A60     		str	r2, [r3]
  68:count.c       ****         break;
 247              		.loc 1 68 0
 248 0018 FFF7FEFF 		bl	trim_Int_Stop
 249              	.LVL12:
  69:count.c       ****         case SEWING_MACHINE :
 250              		.loc 1 69 0
 251 001c 05E0     		b	.L16
 252              	.L19:
  71:count.c       ****             trim_Int_StartEx(&Trim_Interrupt_Routine); 
 253              		.loc 1 71 0
 254 001e 064A     		ldr	r2, .L20+12
 255 0020 044B     		ldr	r3, .L20+8
 256 0022 1A60     		str	r2, [r3]
  72:count.c       ****         break;
 257              		.loc 1 72 0
 258 0024 0548     		ldr	r0, .L20+16
 259 0026 FFF7FEFF 		bl	trim_Int_StartEx
 260              	.LVL13:
 261              	.L16:
  75:count.c       **** 
 262              		.loc 1 75 0
 263              		@ sp needed
 264 002a 10BD     		pop	{r4, pc}
 265              	.L21:
 266              		.align	2
 267              	.L20:
 268 002c 00000000 		.word	g_ptrMachineParameter
 269 0030 00000000 		.word	PatternCountLoop
 270 0034 00000000 		.word	.LANCHOR1
 271 0038 00000000 		.word	SewingCountLoop
ARM GAS  C:\Users\luvsd\AppData\Local\Temp\ccnLJM5n.s 			page 8


 272 003c 00000000 		.word	Trim_Interrupt_Routine
 273              		.cfi_endproc
 274              	.LFE64:
 275              		.size	SetCountLoop, .-SetCountLoop
 276              		.section	.text.initCount,"ax",%progbits
 277              		.align	2
 278              		.global	initCount
 279              		.code	16
 280              		.thumb_func
 281              		.type	initCount, %function
 282              	initCount:
 283              	.LFB63:
  52:count.c       ****     if(sizeof(COUNT) > sizeof(g_internalFlash.data))
 284              		.loc 1 52 0
 285              		.cfi_startproc
 286              		@ args = 0, pretend = 0, frame = 0
 287              		@ frame_needed = 0, uses_anonymous_args = 0
 288 0000 10B5     		push	{r4, lr}
 289              		.cfi_def_cfa_offset 8
 290              		.cfi_offset 4, -8
 291              		.cfi_offset 14, -4
  57:count.c       ****     
 292              		.loc 1 57 0
 293 0002 034A     		ldr	r2, .L23
 294 0004 034B     		ldr	r3, .L23+4
 295 0006 5A60     		str	r2, [r3, #4]
  59:count.c       **** }
 296              		.loc 1 59 0
 297 0008 FFF7FEFF 		bl	SetCountLoop
 298              	.LVL14:
  60:count.c       **** 
 299              		.loc 1 60 0
 300              		@ sp needed
 301 000c 10BD     		pop	{r4, pc}
 302              	.L24:
 303 000e C046     		.align	2
 304              	.L23:
 305 0010 02000000 		.word	g_internalFlash+2
 306 0014 00000000 		.word	.LANCHOR0
 307              		.cfi_endproc
 308              	.LFE63:
 309              		.size	initCount, .-initCount
 310              		.section	.text.getCount,"ax",%progbits
 311              		.align	2
 312              		.global	getCount
 313              		.code	16
 314              		.thumb_func
 315              		.type	getCount, %function
 316              	getCount:
 317              	.LFB67:
 119:count.c       **** 
 120:count.c       **** COUNT *getCount() 
 121:count.c       **** {
 318              		.loc 1 121 0
 319              		.cfi_startproc
 320              		@ args = 0, pretend = 0, frame = 0
 321              		@ frame_needed = 0, uses_anonymous_args = 0
ARM GAS  C:\Users\luvsd\AppData\Local\Temp\ccnLJM5n.s 			page 9


 322              		@ link register save eliminated.
 122:count.c       ****     return g_ptrCount;
 323              		.loc 1 122 0
 324 0000 014B     		ldr	r3, .L26
 325 0002 5868     		ldr	r0, [r3, #4]
 123:count.c       **** }
 326              		.loc 1 123 0
 327              		@ sp needed
 328 0004 7047     		bx	lr
 329              	.L27:
 330 0006 C046     		.align	2
 331              	.L26:
 332 0008 00000000 		.word	.LANCHOR0
 333              		.cfi_endproc
 334              	.LFE67:
 335              		.size	getCount, .-getCount
 336              		.section	.text.ResetCount,"ax",%progbits
 337              		.align	2
 338              		.global	ResetCount
 339              		.code	16
 340              		.thumb_func
 341              		.type	ResetCount, %function
 342              	ResetCount:
 343              	.LFB68:
 124:count.c       **** 
 125:count.c       **** void ResetCount()
 126:count.c       **** {
 344              		.loc 1 126 0
 345              		.cfi_startproc
 346              		@ args = 0, pretend = 0, frame = 0
 347              		@ frame_needed = 0, uses_anonymous_args = 0
 348 0000 10B5     		push	{r4, lr}
 349              		.cfi_def_cfa_offset 8
 350              		.cfi_offset 4, -8
 351              		.cfi_offset 14, -4
 127:count.c       ****     g_ptrCount->patternActualH = 0;
 352              		.loc 1 127 0
 353 0002 0D49     		ldr	r1, .L29
 354 0004 4A68     		ldr	r2, [r1, #4]
 355 0006 0023     		movs	r3, #0
 356 0008 9383     		strh	r3, [r2, #28]
 128:count.c       ****     g_ptrCount->patternActualL = 0; 
 357              		.loc 1 128 0
 358 000a D383     		strh	r3, [r2, #30]
 129:count.c       ****     
 130:count.c       ****     // 김도형 추가.
 131:count.c       ****     g_ptrCount->patternCycleTimeSumH = 0;
 359              		.loc 1 131 0
 360 000c 9385     		strh	r3, [r2, #44]
 132:count.c       ****     g_ptrCount->patternCycleTimeSumL = 0;
 361              		.loc 1 132 0
 362 000e D385     		strh	r3, [r2, #46]
 133:count.c       ****     g_ptrCount->patternMotorRunTimeSumH = 0;
 363              		.loc 1 133 0
 364 0010 5386     		strh	r3, [r2, #50]
 134:count.c       ****     g_ptrCount->patternMotorRunTimeSumL = 0;
 365              		.loc 1 134 0
ARM GAS  C:\Users\luvsd\AppData\Local\Temp\ccnLJM5n.s 			page 10


 366 0012 9386     		strh	r3, [r2, #52]
 135:count.c       ****     g_ptrCount->patternNoStitchSumH = 0;
 367              		.loc 1 135 0
 368 0014 1387     		strh	r3, [r2, #56]
 136:count.c       ****     g_ptrCount->patternNoStitchSumL = 0;
 369              		.loc 1 136 0
 370 0016 5387     		strh	r3, [r2, #58]
 137:count.c       ****     g_ptrCount->patternStitchLengthSumH = 0;
 371              		.loc 1 137 0
 372 0018 D387     		strh	r3, [r2, #62]
 138:count.c       ****     g_ptrCount->patternStitchLengthSumL = 0;
 373              		.loc 1 138 0
 374 001a 4020     		movs	r0, #64
 375 001c 1352     		strh	r3, [r2, r0]
 139:count.c       ****     g_ptrCount->patternTrimCountSumH = 0;
 376              		.loc 1 139 0
 377 001e 0430     		adds	r0, r0, #4
 378 0020 1352     		strh	r3, [r2, r0]
 140:count.c       ****     g_ptrCount->patternTrimCountSumL = 0;
 379              		.loc 1 140 0
 380 0022 0230     		adds	r0, r0, #2
 381 0024 1352     		strh	r3, [r2, r0]
 141:count.c       ****     g_ptrCount->patternEmergencyTimeSumH = 0;
 382              		.loc 1 141 0
 383 0026 D384     		strh	r3, [r2, #38]
 142:count.c       ****     g_ptrCount->patternEmergencyTimeSumL = 0;
 384              		.loc 1 142 0
 385 0028 1385     		strh	r3, [r2, #40]
 143:count.c       ****     //                
 144:count.c       ****     
 145:count.c       ****     g_ptrCount->sewingActualH = 0;
 386              		.loc 1 145 0
 387 002a 1380     		strh	r3, [r2]
 146:count.c       ****     g_ptrCount->sewingActualL = 0;  
 388              		.loc 1 146 0
 389 002c 4A68     		ldr	r2, [r1, #4]
 390 002e 5380     		strh	r3, [r2, #2]
 147:count.c       ****     
 148:count.c       ****     SaveInternalFlash(); 
 391              		.loc 1 148 0
 392 0030 FFF7FEFF 		bl	SaveInternalFlash
 393              	.LVL15:
 149:count.c       **** }
 394              		.loc 1 149 0
 395              		@ sp needed
 396 0034 10BD     		pop	{r4, pc}
 397              	.L30:
 398 0036 C046     		.align	2
 399              	.L29:
 400 0038 00000000 		.word	.LANCHOR0
 401              		.cfi_endproc
 402              	.LFE68:
 403              		.size	ResetCount, .-ResetCount
 404              		.section	.text.WorkingTimeCount,"ax",%progbits
 405              		.align	2
 406              		.global	WorkingTimeCount
 407              		.code	16
ARM GAS  C:\Users\luvsd\AppData\Local\Temp\ccnLJM5n.s 			page 11


 408              		.thumb_func
 409              		.type	WorkingTimeCount, %function
 410              	WorkingTimeCount:
 411              	.LFB69:
 150:count.c       **** 
 151:count.c       **** void WorkingTimeCount()
 152:count.c       **** {
 412              		.loc 1 152 0
 413              		.cfi_startproc
 414              		@ args = 0, pretend = 0, frame = 0
 415              		@ frame_needed = 0, uses_anonymous_args = 0
 416              		@ link register save eliminated.
 153:count.c       ****     g_uWorkingTimeCount++;
 417              		.loc 1 153 0
 418 0000 024A     		ldr	r2, .L32
 419 0002 1369     		ldr	r3, [r2, #16]
 420 0004 0133     		adds	r3, r3, #1
 421 0006 1361     		str	r3, [r2, #16]
 154:count.c       **** }
 422              		.loc 1 154 0
 423              		@ sp needed
 424 0008 7047     		bx	lr
 425              	.L33:
 426 000a C046     		.align	2
 427              	.L32:
 428 000c 00000000 		.word	.LANCHOR0
 429              		.cfi_endproc
 430              	.LFE69:
 431              		.size	WorkingTimeCount, .-WorkingTimeCount
 432              		.section	.text.GetWorkingTimeCount,"ax",%progbits
 433              		.align	2
 434              		.global	GetWorkingTimeCount
 435              		.code	16
 436              		.thumb_func
 437              		.type	GetWorkingTimeCount, %function
 438              	GetWorkingTimeCount:
 439              	.LFB70:
 155:count.c       **** 
 156:count.c       **** uint32 GetWorkingTimeCount()
 157:count.c       **** {
 440              		.loc 1 157 0
 441              		.cfi_startproc
 442              		@ args = 0, pretend = 0, frame = 0
 443              		@ frame_needed = 0, uses_anonymous_args = 0
 444              		@ link register save eliminated.
 158:count.c       ****     return g_uWorkingTimeCount;
 445              		.loc 1 158 0
 446 0000 014B     		ldr	r3, .L35
 447 0002 1869     		ldr	r0, [r3, #16]
 159:count.c       **** }
 448              		.loc 1 159 0
 449              		@ sp needed
 450 0004 7047     		bx	lr
 451              	.L36:
 452 0006 C046     		.align	2
 453              	.L35:
 454 0008 00000000 		.word	.LANCHOR0
ARM GAS  C:\Users\luvsd\AppData\Local\Temp\ccnLJM5n.s 			page 12


 455              		.cfi_endproc
 456              	.LFE70:
 457              		.size	GetWorkingTimeCount, .-GetWorkingTimeCount
 458              		.section	.text.ResetWorkingTimeCount,"ax",%progbits
 459              		.align	2
 460              		.global	ResetWorkingTimeCount
 461              		.code	16
 462              		.thumb_func
 463              		.type	ResetWorkingTimeCount, %function
 464              	ResetWorkingTimeCount:
 465              	.LFB71:
 160:count.c       **** 
 161:count.c       **** void ResetWorkingTimeCount()
 162:count.c       **** {
 466              		.loc 1 162 0
 467              		.cfi_startproc
 468              		@ args = 0, pretend = 0, frame = 0
 469              		@ frame_needed = 0, uses_anonymous_args = 0
 470              		@ link register save eliminated.
 163:count.c       ****     g_uWorkingTimeCount = 0;
 471              		.loc 1 163 0
 472 0000 0022     		movs	r2, #0
 473 0002 014B     		ldr	r3, .L38
 474 0004 1A61     		str	r2, [r3, #16]
 164:count.c       **** }
 475              		.loc 1 164 0
 476              		@ sp needed
 477 0006 7047     		bx	lr
 478              	.L39:
 479              		.align	2
 480              	.L38:
 481 0008 00000000 		.word	.LANCHOR0
 482              		.cfi_endproc
 483              	.LFE71:
 484              		.size	ResetWorkingTimeCount, .-ResetWorkingTimeCount
 485              		.global	g_bTrimElapsedTime
 486              		.global	g_bStartTrimPin
 487              		.global	CountFunc
 488              		.global	g_ptrCount
 489              		.global	g_updateCountMenu
 490              		.comm	Param,6,4
 491              		.data
 492              		.align	2
 493              		.set	.LANCHOR1,. + 0
 494              		.type	CountFunc, %object
 495              		.size	CountFunc, 4
 496              	CountFunc:
 497 0000 00000000 		.word	SewingCountLoop
 498              		.bss
 499              		.align	2
 500              		.set	.LANCHOR0,. + 0
 501              		.type	g_updateTrimCount, %object
 502              		.size	g_updateTrimCount, 1
 503              	g_updateTrimCount:
 504 0000 00       		.space	1
 505 0001 000000   		.space	3
 506              		.type	g_ptrCount, %object
ARM GAS  C:\Users\luvsd\AppData\Local\Temp\ccnLJM5n.s 			page 13


 507              		.size	g_ptrCount, 4
 508              	g_ptrCount:
 509 0004 00000000 		.space	4
 510              		.type	g_Count, %object
 511              		.size	g_Count, 2
 512              	g_Count:
 513 0008 0000     		.space	2
 514              		.type	g_bStartTrimPin, %object
 515              		.size	g_bStartTrimPin, 1
 516              	g_bStartTrimPin:
 517 000a 00       		.space	1
 518 000b 00       		.space	1
 519              		.type	g_bTrimElapsedTime, %object
 520              		.size	g_bTrimElapsedTime, 2
 521              	g_bTrimElapsedTime:
 522 000c 0000     		.space	2
 523              		.type	g_updateCountMenu, %object
 524              		.size	g_updateCountMenu, 1
 525              	g_updateCountMenu:
 526 000e 00       		.space	1
 527 000f 00       		.space	1
 528              		.type	g_uWorkingTimeCount, %object
 529              		.size	g_uWorkingTimeCount, 4
 530              	g_uWorkingTimeCount:
 531 0010 00000000 		.space	4
 532              		.text
 533              	.Letext0:
 534              		.file 2 "c:\\program files (x86)\\cypress\\psoc creator\\4.4\\psoc creator\\import\\gnu\\arm\\5.4.
 535              		.file 3 "c:\\program files (x86)\\cypress\\psoc creator\\4.4\\psoc creator\\import\\gnu\\arm\\5.4.
 536              		.file 4 "Generated_Source\\PSoC4/cytypes.h"
 537              		.file 5 "main.h"
 538              		.file 6 "count.h"
 539              		.file 7 "lib/internalFlash.h"
 540              		.file 8 "userProjectPatternSewing.h"
 541              		.file 9 "Generated_Source\\PSoC4/RTC.h"
 542              		.file 10 "Generated_Source\\PSoC4/TrimPin.h"
 543              		.file 11 "andonApi.h"
 544              		.file 12 "uartJson.h"
 545              		.file 13 "Generated_Source\\PSoC4/trim_Int.h"