ARM GAS  C:\Users\luvsd\AppData\Local\Temp\ccl3vs7c.s 			page 1


   1              		.syntax unified
   2              		.cpu cortex-m0
   3              		.fpu softvfp
   4              		.eabi_attribute 20, 1
   5              		.eabi_attribute 21, 1
   6              		.eabi_attribute 23, 3
   7              		.eabi_attribute 24, 1
   8              		.eabi_attribute 25, 1
   9              		.eabi_attribute 26, 1
  10              		.eabi_attribute 30, 1
  11              		.eabi_attribute 34, 0
  12              		.eabi_attribute 18, 4
  13              		.thumb
  14              		.syntax unified
  15              		.file	"cyfitter_cfg.c"
  16              		.text
  17              	.Ltext0:
  18              		.cfi_sections	.debug_frame
  19              		.section	.text.cfg_write_bytes32,"ax",%progbits
  20              		.align	2
  21              		.code	16
  22              		.thumb_func
  23              		.type	cfg_write_bytes32, %function
  24              	cfg_write_bytes32:
  25              	.LFB4:
  26              		.file 1 "Generated_Source\\PSoC4\\cyfitter_cfg.c"
   1:Generated_Source\PSoC4/cyfitter_cfg.c **** 
   2:Generated_Source\PSoC4/cyfitter_cfg.c **** /*******************************************************************************
   3:Generated_Source\PSoC4/cyfitter_cfg.c **** * File Name: cyfitter_cfg.c
   4:Generated_Source\PSoC4/cyfitter_cfg.c **** * 
   5:Generated_Source\PSoC4/cyfitter_cfg.c **** * PSoC Creator  4.4
   6:Generated_Source\PSoC4/cyfitter_cfg.c **** *
   7:Generated_Source\PSoC4/cyfitter_cfg.c **** * Description:
   8:Generated_Source\PSoC4/cyfitter_cfg.c **** * This file contains device initialization code.
   9:Generated_Source\PSoC4/cyfitter_cfg.c **** * Except for the user defined sections in CyClockStartupError(), this file should not be modified.
  10:Generated_Source\PSoC4/cyfitter_cfg.c **** * This file is automatically generated by PSoC Creator.
  11:Generated_Source\PSoC4/cyfitter_cfg.c **** *
  12:Generated_Source\PSoC4/cyfitter_cfg.c **** ********************************************************************************
  13:Generated_Source\PSoC4/cyfitter_cfg.c **** * Copyright (c) 2007-2020 Cypress Semiconductor.  All rights reserved.
  14:Generated_Source\PSoC4/cyfitter_cfg.c **** * You may use this file only in accordance with the license, terms, conditions, 
  15:Generated_Source\PSoC4/cyfitter_cfg.c **** * disclaimers, and limitations in the end user license agreement accompanying 
  16:Generated_Source\PSoC4/cyfitter_cfg.c **** * the software package with which this file was provided.
  17:Generated_Source\PSoC4/cyfitter_cfg.c **** ********************************************************************************/
  18:Generated_Source\PSoC4/cyfitter_cfg.c **** 
  19:Generated_Source\PSoC4/cyfitter_cfg.c **** #include <string.h>
  20:Generated_Source\PSoC4/cyfitter_cfg.c **** #include "cytypes.h"
  21:Generated_Source\PSoC4/cyfitter_cfg.c **** #include "cydevice_trm.h"
  22:Generated_Source\PSoC4/cyfitter_cfg.c **** #include "cyfitter.h"
  23:Generated_Source\PSoC4/cyfitter_cfg.c **** #include "CyLib.h"
  24:Generated_Source\PSoC4/cyfitter_cfg.c **** #include "CyLFClk.h"
  25:Generated_Source\PSoC4/cyfitter_cfg.c **** #include "cyfitter_cfg.h"
  26:Generated_Source\PSoC4/cyfitter_cfg.c **** #include "cyapicallbacks.h"
  27:Generated_Source\PSoC4/cyfitter_cfg.c **** 
  28:Generated_Source\PSoC4/cyfitter_cfg.c **** 
  29:Generated_Source\PSoC4/cyfitter_cfg.c **** #if defined(__GNUC__) || defined(__ARMCC_VERSION)
  30:Generated_Source\PSoC4/cyfitter_cfg.c ****     #define CYPACKED 
  31:Generated_Source\PSoC4/cyfitter_cfg.c ****     #define CYPACKED_ATTR __attribute__ ((packed))
ARM GAS  C:\Users\luvsd\AppData\Local\Temp\ccl3vs7c.s 			page 2


  32:Generated_Source\PSoC4/cyfitter_cfg.c ****     #define CYALIGNED __attribute__ ((aligned))
  33:Generated_Source\PSoC4/cyfitter_cfg.c ****     #define CY_CFG_UNUSED __attribute__ ((unused))
  34:Generated_Source\PSoC4/cyfitter_cfg.c ****     #ifndef CY_CFG_SECTION
  35:Generated_Source\PSoC4/cyfitter_cfg.c ****         #define CY_CFG_SECTION __attribute__ ((section(".psocinit")))
  36:Generated_Source\PSoC4/cyfitter_cfg.c ****     #endif
  37:Generated_Source\PSoC4/cyfitter_cfg.c ****     
  38:Generated_Source\PSoC4/cyfitter_cfg.c ****     #if defined(__ARMCC_VERSION)
  39:Generated_Source\PSoC4/cyfitter_cfg.c ****         #define CY_CFG_MEMORY_BARRIER() __memory_changed()
  40:Generated_Source\PSoC4/cyfitter_cfg.c ****     #else
  41:Generated_Source\PSoC4/cyfitter_cfg.c ****         #define CY_CFG_MEMORY_BARRIER() __sync_synchronize()
  42:Generated_Source\PSoC4/cyfitter_cfg.c ****     #endif
  43:Generated_Source\PSoC4/cyfitter_cfg.c ****     
  44:Generated_Source\PSoC4/cyfitter_cfg.c **** #elif defined(__ICCARM__)
  45:Generated_Source\PSoC4/cyfitter_cfg.c ****     #include <intrinsics.h>
  46:Generated_Source\PSoC4/cyfitter_cfg.c **** 
  47:Generated_Source\PSoC4/cyfitter_cfg.c ****     #define CYPACKED __packed
  48:Generated_Source\PSoC4/cyfitter_cfg.c ****     #define CYPACKED_ATTR 
  49:Generated_Source\PSoC4/cyfitter_cfg.c ****     #define CYALIGNED _Pragma("data_alignment=4")
  50:Generated_Source\PSoC4/cyfitter_cfg.c ****     #define CY_CFG_UNUSED _Pragma("diag_suppress=Pe177")
  51:Generated_Source\PSoC4/cyfitter_cfg.c ****     #define CY_CFG_SECTION _Pragma("location=\".psocinit\"")
  52:Generated_Source\PSoC4/cyfitter_cfg.c ****     
  53:Generated_Source\PSoC4/cyfitter_cfg.c ****     #define CY_CFG_MEMORY_BARRIER() __DMB()
  54:Generated_Source\PSoC4/cyfitter_cfg.c ****     
  55:Generated_Source\PSoC4/cyfitter_cfg.c **** #else
  56:Generated_Source\PSoC4/cyfitter_cfg.c ****     #error Unsupported toolchain
  57:Generated_Source\PSoC4/cyfitter_cfg.c **** #endif
  58:Generated_Source\PSoC4/cyfitter_cfg.c **** 
  59:Generated_Source\PSoC4/cyfitter_cfg.c **** #ifndef CYCODE
  60:Generated_Source\PSoC4/cyfitter_cfg.c ****     #define CYCODE
  61:Generated_Source\PSoC4/cyfitter_cfg.c **** #endif
  62:Generated_Source\PSoC4/cyfitter_cfg.c **** #ifndef CYDATA
  63:Generated_Source\PSoC4/cyfitter_cfg.c ****     #define CYDATA
  64:Generated_Source\PSoC4/cyfitter_cfg.c **** #endif
  65:Generated_Source\PSoC4/cyfitter_cfg.c **** #ifndef CYFAR
  66:Generated_Source\PSoC4/cyfitter_cfg.c ****     #define CYFAR
  67:Generated_Source\PSoC4/cyfitter_cfg.c **** #endif
  68:Generated_Source\PSoC4/cyfitter_cfg.c **** #ifndef CYXDATA
  69:Generated_Source\PSoC4/cyfitter_cfg.c ****     #define CYXDATA
  70:Generated_Source\PSoC4/cyfitter_cfg.c **** #endif
  71:Generated_Source\PSoC4/cyfitter_cfg.c **** 
  72:Generated_Source\PSoC4/cyfitter_cfg.c **** 
  73:Generated_Source\PSoC4/cyfitter_cfg.c **** CY_CFG_UNUSED
  74:Generated_Source\PSoC4/cyfitter_cfg.c **** static void CYMEMZERO(void *s, size_t n);
  75:Generated_Source\PSoC4/cyfitter_cfg.c **** CY_CFG_UNUSED
  76:Generated_Source\PSoC4/cyfitter_cfg.c **** static void CYMEMZERO(void *s, size_t n)
  77:Generated_Source\PSoC4/cyfitter_cfg.c **** {
  78:Generated_Source\PSoC4/cyfitter_cfg.c **** 	(void)memset(s, 0, n);
  79:Generated_Source\PSoC4/cyfitter_cfg.c **** }
  80:Generated_Source\PSoC4/cyfitter_cfg.c **** CY_CFG_UNUSED
  81:Generated_Source\PSoC4/cyfitter_cfg.c **** static void CYCONFIGCPY(void *dest, const void *src, size_t n);
  82:Generated_Source\PSoC4/cyfitter_cfg.c **** CY_CFG_UNUSED
  83:Generated_Source\PSoC4/cyfitter_cfg.c **** static void CYCONFIGCPY(void *dest, const void *src, size_t n)
  84:Generated_Source\PSoC4/cyfitter_cfg.c **** {
  85:Generated_Source\PSoC4/cyfitter_cfg.c **** 	(void)memcpy(dest, src, n);
  86:Generated_Source\PSoC4/cyfitter_cfg.c **** }
  87:Generated_Source\PSoC4/cyfitter_cfg.c **** CY_CFG_UNUSED
  88:Generated_Source\PSoC4/cyfitter_cfg.c **** static void CYCONFIGCPYCODE(void *dest, const void *src, size_t n);
ARM GAS  C:\Users\luvsd\AppData\Local\Temp\ccl3vs7c.s 			page 3


  89:Generated_Source\PSoC4/cyfitter_cfg.c **** CY_CFG_UNUSED
  90:Generated_Source\PSoC4/cyfitter_cfg.c **** static void CYCONFIGCPYCODE(void *dest, const void *src, size_t n)
  91:Generated_Source\PSoC4/cyfitter_cfg.c **** {
  92:Generated_Source\PSoC4/cyfitter_cfg.c **** 	(void)memcpy(dest, src, n);
  93:Generated_Source\PSoC4/cyfitter_cfg.c **** }
  94:Generated_Source\PSoC4/cyfitter_cfg.c **** 
  95:Generated_Source\PSoC4/cyfitter_cfg.c **** 
  96:Generated_Source\PSoC4/cyfitter_cfg.c **** 
  97:Generated_Source\PSoC4/cyfitter_cfg.c **** 
  98:Generated_Source\PSoC4/cyfitter_cfg.c **** /* Clock startup error codes                                                   */
  99:Generated_Source\PSoC4/cyfitter_cfg.c **** #define CYCLOCKSTART_NO_ERROR    0u
 100:Generated_Source\PSoC4/cyfitter_cfg.c **** #define CYCLOCKSTART_XTAL_ERROR  1u
 101:Generated_Source\PSoC4/cyfitter_cfg.c **** #define CYCLOCKSTART_32KHZ_ERROR 2u
 102:Generated_Source\PSoC4/cyfitter_cfg.c **** #define CYCLOCKSTART_PLL_ERROR   3u
 103:Generated_Source\PSoC4/cyfitter_cfg.c **** #define CYCLOCKSTART_FLL_ERROR   4u
 104:Generated_Source\PSoC4/cyfitter_cfg.c **** #define CYCLOCKSTART_WCO_ERROR   5u
 105:Generated_Source\PSoC4/cyfitter_cfg.c **** 
 106:Generated_Source\PSoC4/cyfitter_cfg.c **** 
 107:Generated_Source\PSoC4/cyfitter_cfg.c **** #ifdef CY_NEED_CYCLOCKSTARTUPERROR
 108:Generated_Source\PSoC4/cyfitter_cfg.c **** /*******************************************************************************
 109:Generated_Source\PSoC4/cyfitter_cfg.c **** * Function Name: CyClockStartupError
 110:Generated_Source\PSoC4/cyfitter_cfg.c **** ********************************************************************************
 111:Generated_Source\PSoC4/cyfitter_cfg.c **** * Summary:
 112:Generated_Source\PSoC4/cyfitter_cfg.c **** *  If an error is encountered during clock configuration (crystal startup error,
 113:Generated_Source\PSoC4/cyfitter_cfg.c **** *  PLL lock error, etc.), the system will end up here.  Unless reimplemented by
 114:Generated_Source\PSoC4/cyfitter_cfg.c **** *  the customer, this function will stop in an infinite loop.
 115:Generated_Source\PSoC4/cyfitter_cfg.c **** *
 116:Generated_Source\PSoC4/cyfitter_cfg.c **** * Parameters:
 117:Generated_Source\PSoC4/cyfitter_cfg.c **** *   void
 118:Generated_Source\PSoC4/cyfitter_cfg.c **** *
 119:Generated_Source\PSoC4/cyfitter_cfg.c **** * Return:
 120:Generated_Source\PSoC4/cyfitter_cfg.c **** *   void
 121:Generated_Source\PSoC4/cyfitter_cfg.c **** *
 122:Generated_Source\PSoC4/cyfitter_cfg.c **** *******************************************************************************/
 123:Generated_Source\PSoC4/cyfitter_cfg.c **** CY_CFG_UNUSED
 124:Generated_Source\PSoC4/cyfitter_cfg.c **** static void CyClockStartupError(uint8 errorCode);
 125:Generated_Source\PSoC4/cyfitter_cfg.c **** CY_CFG_UNUSED
 126:Generated_Source\PSoC4/cyfitter_cfg.c **** static void CyClockStartupError(uint8 errorCode)
 127:Generated_Source\PSoC4/cyfitter_cfg.c **** {
 128:Generated_Source\PSoC4/cyfitter_cfg.c ****     /* To remove the compiler warning if errorCode not used.                */
 129:Generated_Source\PSoC4/cyfitter_cfg.c ****     errorCode = errorCode;
 130:Generated_Source\PSoC4/cyfitter_cfg.c **** 
 131:Generated_Source\PSoC4/cyfitter_cfg.c ****     /* If we have a clock startup error (bad MHz crystal, PLL lock, etc.),  */
 132:Generated_Source\PSoC4/cyfitter_cfg.c ****     /* we will end up here to allow the customer to implement something to  */
 133:Generated_Source\PSoC4/cyfitter_cfg.c ****     /* deal with the clock condition.                                       */
 134:Generated_Source\PSoC4/cyfitter_cfg.c **** 
 135:Generated_Source\PSoC4/cyfitter_cfg.c **** #ifdef CY_CFG_CLOCK_STARTUP_ERROR_CALLBACK
 136:Generated_Source\PSoC4/cyfitter_cfg.c ****     CY_CFG_Clock_Startup_ErrorCallback();
 137:Generated_Source\PSoC4/cyfitter_cfg.c **** #else
 138:Generated_Source\PSoC4/cyfitter_cfg.c ****     /*  If not using CY_CFG_CLOCK_STARTUP_ERROR_CALLBACK, place your clock startup code here. */
 139:Generated_Source\PSoC4/cyfitter_cfg.c ****     /* `#START CyClockStartupError` */
 140:Generated_Source\PSoC4/cyfitter_cfg.c **** 
 141:Generated_Source\PSoC4/cyfitter_cfg.c **** 
 142:Generated_Source\PSoC4/cyfitter_cfg.c **** 
 143:Generated_Source\PSoC4/cyfitter_cfg.c ****     /* `#END` */
 144:Generated_Source\PSoC4/cyfitter_cfg.c **** 
 145:Generated_Source\PSoC4/cyfitter_cfg.c ****     while(1) {}
ARM GAS  C:\Users\luvsd\AppData\Local\Temp\ccl3vs7c.s 			page 4


 146:Generated_Source\PSoC4/cyfitter_cfg.c **** #endif /* CY_CFG_CLOCK_STARTUP_ERROR_CALLBACK */
 147:Generated_Source\PSoC4/cyfitter_cfg.c **** }
 148:Generated_Source\PSoC4/cyfitter_cfg.c **** #endif
 149:Generated_Source\PSoC4/cyfitter_cfg.c **** 
 150:Generated_Source\PSoC4/cyfitter_cfg.c **** #define CY_CFG_BASE_ADDR_COUNT 18u
 151:Generated_Source\PSoC4/cyfitter_cfg.c **** CYPACKED typedef struct
 152:Generated_Source\PSoC4/cyfitter_cfg.c **** {
 153:Generated_Source\PSoC4/cyfitter_cfg.c **** 	uint8 offset;
 154:Generated_Source\PSoC4/cyfitter_cfg.c **** 	uint8 value;
 155:Generated_Source\PSoC4/cyfitter_cfg.c **** } CYPACKED_ATTR cy_cfg_addrvalue_t;
 156:Generated_Source\PSoC4/cyfitter_cfg.c **** 
 157:Generated_Source\PSoC4/cyfitter_cfg.c **** 
 158:Generated_Source\PSoC4/cyfitter_cfg.c **** 
 159:Generated_Source\PSoC4/cyfitter_cfg.c **** /*******************************************************************************
 160:Generated_Source\PSoC4/cyfitter_cfg.c **** * Function Name: cfg_write_bytes32
 161:Generated_Source\PSoC4/cyfitter_cfg.c **** ********************************************************************************
 162:Generated_Source\PSoC4/cyfitter_cfg.c **** * Summary:
 163:Generated_Source\PSoC4/cyfitter_cfg.c **** *  This function is used for setting up the chip configuration areas that
 164:Generated_Source\PSoC4/cyfitter_cfg.c **** *  contain relatively sparse data.
 165:Generated_Source\PSoC4/cyfitter_cfg.c **** *
 166:Generated_Source\PSoC4/cyfitter_cfg.c **** * Parameters:
 167:Generated_Source\PSoC4/cyfitter_cfg.c **** *   void
 168:Generated_Source\PSoC4/cyfitter_cfg.c **** *
 169:Generated_Source\PSoC4/cyfitter_cfg.c **** * Return:
 170:Generated_Source\PSoC4/cyfitter_cfg.c **** *   void
 171:Generated_Source\PSoC4/cyfitter_cfg.c **** *
 172:Generated_Source\PSoC4/cyfitter_cfg.c **** *******************************************************************************/
 173:Generated_Source\PSoC4/cyfitter_cfg.c **** static void cfg_write_bytes32(const uint32 addr_table[], const cy_cfg_addrvalue_t data_table[]);
 174:Generated_Source\PSoC4/cyfitter_cfg.c **** static void cfg_write_bytes32(const uint32 addr_table[], const cy_cfg_addrvalue_t data_table[])
 175:Generated_Source\PSoC4/cyfitter_cfg.c **** {
  27              		.loc 1 175 0
  28              		.cfi_startproc
  29              		@ args = 0, pretend = 0, frame = 0
  30              		@ frame_needed = 0, uses_anonymous_args = 0
  31              	.LVL0:
  32 0000 F0B5     		push	{r4, r5, r6, r7, lr}
  33              		.cfi_def_cfa_offset 20
  34              		.cfi_offset 4, -20
  35              		.cfi_offset 5, -16
  36              		.cfi_offset 6, -12
  37              		.cfi_offset 7, -8
  38              		.cfi_offset 14, -4
  39              	.LVL1:
 176:Generated_Source\PSoC4/cyfitter_cfg.c **** 	/* For 32-bit little-endian architectures */
 177:Generated_Source\PSoC4/cyfitter_cfg.c **** 	uint32 i, j = 0u;
  40              		.loc 1 177 0
  41 0002 0025     		movs	r5, #0
 178:Generated_Source\PSoC4/cyfitter_cfg.c **** 	for (i = 0u; i < CY_CFG_BASE_ADDR_COUNT; i++)
  42              		.loc 1 178 0
  43 0004 0027     		movs	r7, #0
  44 0006 11E0     		b	.L2
  45              	.LVL2:
  46              	.L5:
  47              	.LBB2:
 179:Generated_Source\PSoC4/cyfitter_cfg.c **** 	{
 180:Generated_Source\PSoC4/cyfitter_cfg.c **** 		uint32 baseAddr = addr_table[i];
  48              		.loc 1 180 0
ARM GAS  C:\Users\luvsd\AppData\Local\Temp\ccl3vs7c.s 			page 5


  49 0008 BB00     		lsls	r3, r7, #2
  50 000a C658     		ldr	r6, [r0, r3]
  51              	.LVL3:
 181:Generated_Source\PSoC4/cyfitter_cfg.c **** 		uint8 count = (uint8)baseAddr;
  52              		.loc 1 181 0
  53 000c F3B2     		uxtb	r3, r6
  54              	.LVL4:
 182:Generated_Source\PSoC4/cyfitter_cfg.c **** 		baseAddr &= 0xFFFFFF00u;
  55              		.loc 1 182 0
  56 000e FF22     		movs	r2, #255
  57 0010 9643     		bics	r6, r2
  58              	.LVL5:
 183:Generated_Source\PSoC4/cyfitter_cfg.c **** 		while (count != 0u)
  59              		.loc 1 183 0
  60 0012 08E0     		b	.L3
  61              	.L4:
 184:Generated_Source\PSoC4/cyfitter_cfg.c **** 		{
 185:Generated_Source\PSoC4/cyfitter_cfg.c **** 			CY_SET_REG8((void *)(baseAddr + data_table[j].offset), data_table[j].value);
  62              		.loc 1 185 0
  63 0014 6A00     		lsls	r2, r5, #1
  64 0016 8A18     		adds	r2, r1, r2
  65 0018 1478     		ldrb	r4, [r2]
  66 001a A419     		adds	r4, r4, r6
  67 001c 5278     		ldrb	r2, [r2, #1]
  68 001e 2270     		strb	r2, [r4]
 186:Generated_Source\PSoC4/cyfitter_cfg.c **** 			j++;
  69              		.loc 1 186 0
  70 0020 0135     		adds	r5, r5, #1
  71              	.LVL6:
 187:Generated_Source\PSoC4/cyfitter_cfg.c **** 			count--;
  72              		.loc 1 187 0
  73 0022 013B     		subs	r3, r3, #1
  74              	.LVL7:
  75 0024 DBB2     		uxtb	r3, r3
  76              	.LVL8:
  77              	.L3:
 183:Generated_Source\PSoC4/cyfitter_cfg.c **** 		{
  78              		.loc 1 183 0
  79 0026 002B     		cmp	r3, #0
  80 0028 F4D1     		bne	.L4
  81              	.LBE2:
 178:Generated_Source\PSoC4/cyfitter_cfg.c **** 	{
  82              		.loc 1 178 0 discriminator 2
  83 002a 0137     		adds	r7, r7, #1
  84              	.LVL9:
  85              	.L2:
 178:Generated_Source\PSoC4/cyfitter_cfg.c **** 	{
  86              		.loc 1 178 0 is_stmt 0 discriminator 1
  87 002c 112F     		cmp	r7, #17
  88 002e EBD9     		bls	.L5
 188:Generated_Source\PSoC4/cyfitter_cfg.c **** 		}
 189:Generated_Source\PSoC4/cyfitter_cfg.c **** 	}
 190:Generated_Source\PSoC4/cyfitter_cfg.c **** }
  89              		.loc 1 190 0 is_stmt 1
  90              		@ sp needed
  91              	.LVL10:
  92              	.LVL11:
ARM GAS  C:\Users\luvsd\AppData\Local\Temp\ccl3vs7c.s 			page 6


  93 0030 F0BD     		pop	{r4, r5, r6, r7, pc}
  94              		.cfi_endproc
  95              	.LFE4:
  96              		.size	cfg_write_bytes32, .-cfg_write_bytes32
  97 0032 C046     		.section	.text.CYMEMZERO,"ax",%progbits
  98              		.align	2
  99              		.code	16
 100              		.thumb_func
 101              		.type	CYMEMZERO, %function
 102              	CYMEMZERO:
 103              	.LFB1:
  77:Generated_Source\PSoC4/cyfitter_cfg.c **** 	(void)memset(s, 0, n);
 104              		.loc 1 77 0
 105              		.cfi_startproc
 106              		@ args = 0, pretend = 0, frame = 0
 107              		@ frame_needed = 0, uses_anonymous_args = 0
 108              	.LVL12:
 109 0000 10B5     		push	{r4, lr}
 110              		.cfi_def_cfa_offset 8
 111              		.cfi_offset 4, -8
 112              		.cfi_offset 14, -4
 113 0002 0A00     		movs	r2, r1
  78:Generated_Source\PSoC4/cyfitter_cfg.c **** }
 114              		.loc 1 78 0
 115 0004 0021     		movs	r1, #0
 116              	.LVL13:
 117 0006 FFF7FEFF 		bl	memset
 118              	.LVL14:
  79:Generated_Source\PSoC4/cyfitter_cfg.c **** CY_CFG_UNUSED
 119              		.loc 1 79 0
 120              		@ sp needed
 121 000a 10BD     		pop	{r4, pc}
 122              		.cfi_endproc
 123              	.LFE1:
 124              		.size	CYMEMZERO, .-CYMEMZERO
 125              		.section	.text.CYCONFIGCPYCODE,"ax",%progbits
 126              		.align	2
 127              		.code	16
 128              		.thumb_func
 129              		.type	CYCONFIGCPYCODE, %function
 130              	CYCONFIGCPYCODE:
 131              	.LFB3:
  91:Generated_Source\PSoC4/cyfitter_cfg.c **** 	(void)memcpy(dest, src, n);
 132              		.loc 1 91 0
 133              		.cfi_startproc
 134              		@ args = 0, pretend = 0, frame = 0
 135              		@ frame_needed = 0, uses_anonymous_args = 0
 136              	.LVL15:
 137 0000 10B5     		push	{r4, lr}
 138              		.cfi_def_cfa_offset 8
 139              		.cfi_offset 4, -8
 140              		.cfi_offset 14, -4
  92:Generated_Source\PSoC4/cyfitter_cfg.c **** }
 141              		.loc 1 92 0
 142 0002 FFF7FEFF 		bl	memcpy
 143              	.LVL16:
  93:Generated_Source\PSoC4/cyfitter_cfg.c **** 
ARM GAS  C:\Users\luvsd\AppData\Local\Temp\ccl3vs7c.s 			page 7


 144              		.loc 1 93 0
 145              		@ sp needed
 146 0006 10BD     		pop	{r4, pc}
 147              		.cfi_endproc
 148              	.LFE3:
 149              		.size	CYCONFIGCPYCODE, .-CYCONFIGCPYCODE
 150              		.section	.psocinit,"ax",%progbits
 151              		.align	2
 152              		.code	16
 153              		.thumb_func
 154              		.type	ClockSetup, %function
 155              	ClockSetup:
 156              	.LFB5:
 191:Generated_Source\PSoC4/cyfitter_cfg.c **** 
 192:Generated_Source\PSoC4/cyfitter_cfg.c **** 
 193:Generated_Source\PSoC4/cyfitter_cfg.c **** /*******************************************************************************
 194:Generated_Source\PSoC4/cyfitter_cfg.c **** * Function Name: ClockSetup
 195:Generated_Source\PSoC4/cyfitter_cfg.c **** ********************************************************************************
 196:Generated_Source\PSoC4/cyfitter_cfg.c **** *
 197:Generated_Source\PSoC4/cyfitter_cfg.c **** * Summary:
 198:Generated_Source\PSoC4/cyfitter_cfg.c **** *   Performs the initialization of all of the clocks in the device based on the
 199:Generated_Source\PSoC4/cyfitter_cfg.c **** *   settings in the Clock tab of the DWR.  This includes enabling the requested
 200:Generated_Source\PSoC4/cyfitter_cfg.c **** *   clocks and setting the necessary dividers to produce the desired frequency. 
 201:Generated_Source\PSoC4/cyfitter_cfg.c **** *
 202:Generated_Source\PSoC4/cyfitter_cfg.c **** * Parameters:
 203:Generated_Source\PSoC4/cyfitter_cfg.c **** *   void
 204:Generated_Source\PSoC4/cyfitter_cfg.c **** *
 205:Generated_Source\PSoC4/cyfitter_cfg.c **** * Return:
 206:Generated_Source\PSoC4/cyfitter_cfg.c **** *   void
 207:Generated_Source\PSoC4/cyfitter_cfg.c **** *
 208:Generated_Source\PSoC4/cyfitter_cfg.c **** *******************************************************************************/
 209:Generated_Source\PSoC4/cyfitter_cfg.c **** static void ClockSetup(void);
 210:Generated_Source\PSoC4/cyfitter_cfg.c **** CY_CFG_SECTION
 211:Generated_Source\PSoC4/cyfitter_cfg.c **** static void ClockSetup(void)
 212:Generated_Source\PSoC4/cyfitter_cfg.c **** {
 157              		.loc 1 212 0
 158              		.cfi_startproc
 159              		@ args = 0, pretend = 0, frame = 0
 160              		@ frame_needed = 0, uses_anonymous_args = 0
 161 0000 70B5     		push	{r4, r5, r6, lr}
 162              		.cfi_def_cfa_offset 16
 163              		.cfi_offset 4, -16
 164              		.cfi_offset 5, -12
 165              		.cfi_offset 6, -8
 166              		.cfi_offset 14, -4
 213:Generated_Source\PSoC4/cyfitter_cfg.c **** 
 214:Generated_Source\PSoC4/cyfitter_cfg.c **** 	/* Set Flash Cycles based on max possible frequency in case a glitch occurs during ClockSetup(). *
 215:Generated_Source\PSoC4/cyfitter_cfg.c **** 	CY_SET_REG32((void CYXDATA *)(CYREG_CPUSS_FLASH_CTL), (0x0012u));
 167              		.loc 1 215 0
 168 0002 1222     		movs	r2, #18
 169 0004 354B     		ldr	r3, .L9
 170 0006 1A60     		str	r2, [r3]
 216:Generated_Source\PSoC4/cyfitter_cfg.c **** 
 217:Generated_Source\PSoC4/cyfitter_cfg.c **** 	/* Start the WCO */
 218:Generated_Source\PSoC4/cyfitter_cfg.c **** 	CySysClkWcoStart();
 171              		.loc 1 218 0
 172 0008 FFF7FEFF 		bl	CySysClkWcoStart
ARM GAS  C:\Users\luvsd\AppData\Local\Temp\ccl3vs7c.s 			page 8


 173              	.LVL17:
 219:Generated_Source\PSoC4/cyfitter_cfg.c **** 	CyDelayCycles(12000000u); /* WCO may take up to 500ms to start */
 174              		.loc 1 219 0
 175 000c 3448     		ldr	r0, .L9+4
 176 000e FFF7FEFF 		bl	CyDelayCycles
 177              	.LVL18:
 220:Generated_Source\PSoC4/cyfitter_cfg.c **** 
 221:Generated_Source\PSoC4/cyfitter_cfg.c **** 	/* Setup and trim IMO based on desired frequency. */
 222:Generated_Source\PSoC4/cyfitter_cfg.c **** 	CySysClkWriteImoFreq(48u);
 178              		.loc 1 222 0
 179 0012 3020     		movs	r0, #48
 180 0014 FFF7FEFF 		bl	CySysClkWriteImoFreq
 181              	.LVL19:
 223:Generated_Source\PSoC4/cyfitter_cfg.c **** 	CySysClkImoEnableWcoLock();
 182              		.loc 1 223 0
 183 0018 FFF7FEFF 		bl	CySysClkImoEnableWcoLock
 184              	.LVL20:
 224:Generated_Source\PSoC4/cyfitter_cfg.c **** 	/* CYDEV_CLK_ILO_CONFIG Starting address: CYDEV_CLK_ILO_CONFIG */
 225:Generated_Source\PSoC4/cyfitter_cfg.c **** 	CY_SET_REG32((void *)(CYREG_CLK_ILO_CONFIG), 0x80000006u);
 185              		.loc 1 225 0
 186 001c 314A     		ldr	r2, .L9+8
 187 001e 324B     		ldr	r3, .L9+12
 188 0020 1A60     		str	r2, [r3]
 226:Generated_Source\PSoC4/cyfitter_cfg.c **** 
 227:Generated_Source\PSoC4/cyfitter_cfg.c **** 	/* CYDEV_WDT_CONFIG Starting address: CYDEV_WDT_CONFIG */
 228:Generated_Source\PSoC4/cyfitter_cfg.c **** 	CY_SET_REG32((void *)(CYREG_WDT_CONFIG), 0x40000000u);
 189              		.loc 1 228 0
 190 0022 324C     		ldr	r4, .L9+16
 191 0024 8025     		movs	r5, #128
 192 0026 ED05     		lsls	r5, r5, #23
 193 0028 2560     		str	r5, [r4]
 229:Generated_Source\PSoC4/cyfitter_cfg.c **** 
 230:Generated_Source\PSoC4/cyfitter_cfg.c **** 
 231:Generated_Source\PSoC4/cyfitter_cfg.c **** 	/* Setup phase aligned clocks */
 232:Generated_Source\PSoC4/cyfitter_cfg.c **** 	CY_SET_REG32((void *)CYREG_PERI_DIV_16_CTL1, 0x00000500u);
 194              		.loc 1 232 0
 195 002a A022     		movs	r2, #160
 196 002c D200     		lsls	r2, r2, #3
 197 002e 304B     		ldr	r3, .L9+20
 198 0030 1A60     		str	r2, [r3]
 233:Generated_Source\PSoC4/cyfitter_cfg.c **** 	CY_SET_REG32((void *)CYREG_PERI_DIV_CMD, 0x8000FF41u);
 199              		.loc 1 233 0
 200 0032 304B     		ldr	r3, .L9+24
 201 0034 304A     		ldr	r2, .L9+28
 202 0036 1A60     		str	r2, [r3]
 234:Generated_Source\PSoC4/cyfitter_cfg.c **** 	CY_SET_REG32((void *)CYREG_PERI_DIV_24_5_CTL, 0x249EFF00u);
 203              		.loc 1 234 0
 204 0038 3049     		ldr	r1, .L9+32
 205 003a 314A     		ldr	r2, .L9+36
 206 003c 1160     		str	r1, [r2]
 235:Generated_Source\PSoC4/cyfitter_cfg.c **** 	CY_SET_REG32((void *)CYREG_PERI_DIV_CMD, 0x8000FFC0u);
 207              		.loc 1 235 0
 208 003e 314A     		ldr	r2, .L9+40
 209 0040 1A60     		str	r2, [r3]
 236:Generated_Source\PSoC4/cyfitter_cfg.c **** 	CY_SET_REG32((void *)CYREG_PERI_DIV_16_CTL0, 0x00000200u);
 210              		.loc 1 236 0
 211 0042 8021     		movs	r1, #128
ARM GAS  C:\Users\luvsd\AppData\Local\Temp\ccl3vs7c.s 			page 9


 212 0044 8900     		lsls	r1, r1, #2
 213 0046 304A     		ldr	r2, .L9+44
 214 0048 1160     		str	r1, [r2]
 237:Generated_Source\PSoC4/cyfitter_cfg.c **** 	CY_SET_REG32((void *)CYREG_PERI_DIV_CMD, 0x8000FF40u);
 215              		.loc 1 237 0
 216 004a 304A     		ldr	r2, .L9+48
 217 004c 1A60     		str	r2, [r3]
 238:Generated_Source\PSoC4/cyfitter_cfg.c **** 	CY_SET_REG32((void *)CYREG_PERI_DIV_16_CTL6, 0x0001DF00u);
 218              		.loc 1 238 0
 219 004e 3049     		ldr	r1, .L9+52
 220 0050 304A     		ldr	r2, .L9+56
 221 0052 1160     		str	r1, [r2]
 239:Generated_Source\PSoC4/cyfitter_cfg.c **** 	CY_SET_REG32((void *)CYREG_PERI_DIV_CMD, 0x8000FF46u);
 222              		.loc 1 239 0
 223 0054 304A     		ldr	r2, .L9+60
 224 0056 1A60     		str	r2, [r3]
 240:Generated_Source\PSoC4/cyfitter_cfg.c **** 	CY_SET_REG32((void *)CYREG_PERI_DIV_16_CTL5, 0x00002F00u);
 225              		.loc 1 240 0
 226 0058 BC21     		movs	r1, #188
 227 005a 8901     		lsls	r1, r1, #6
 228 005c 2F4A     		ldr	r2, .L9+64
 229 005e 1160     		str	r1, [r2]
 241:Generated_Source\PSoC4/cyfitter_cfg.c **** 	CY_SET_REG32((void *)CYREG_PERI_DIV_CMD, 0x8000FF45u);
 230              		.loc 1 241 0
 231 0060 2F4A     		ldr	r2, .L9+68
 232 0062 1A60     		str	r2, [r3]
 242:Generated_Source\PSoC4/cyfitter_cfg.c **** 	CY_SET_REG32((void *)CYREG_PERI_DIV_16_CTL3, 0x00001F00u);
 233              		.loc 1 242 0
 234 0064 F821     		movs	r1, #248
 235 0066 4901     		lsls	r1, r1, #5
 236 0068 2E4A     		ldr	r2, .L9+72
 237 006a 1160     		str	r1, [r2]
 243:Generated_Source\PSoC4/cyfitter_cfg.c **** 	CY_SET_REG32((void *)CYREG_PERI_DIV_CMD, 0x8000FF43u);
 238              		.loc 1 243 0
 239 006c 2E4A     		ldr	r2, .L9+76
 240 006e 1A60     		str	r2, [r3]
 244:Generated_Source\PSoC4/cyfitter_cfg.c **** 	CY_SET_REG32((void *)CYREG_PERI_DIV_16_CTL4, 0x00002200u);
 241              		.loc 1 244 0
 242 0070 8821     		movs	r1, #136
 243 0072 8901     		lsls	r1, r1, #6
 244 0074 2D4A     		ldr	r2, .L9+80
 245 0076 1160     		str	r1, [r2]
 245:Generated_Source\PSoC4/cyfitter_cfg.c **** 	CY_SET_REG32((void *)CYREG_PERI_DIV_CMD, 0x8000FF44u);
 246              		.loc 1 245 0
 247 0078 2D4A     		ldr	r2, .L9+84
 248 007a 1A60     		str	r2, [r3]
 246:Generated_Source\PSoC4/cyfitter_cfg.c **** 	CY_SET_REG32((void *)CYREG_PERI_DIV_16_CTL2, 0x00001D00u);
 249              		.loc 1 246 0
 250 007c E821     		movs	r1, #232
 251 007e 4901     		lsls	r1, r1, #5
 252 0080 2C4A     		ldr	r2, .L9+88
 253 0082 1160     		str	r1, [r2]
 247:Generated_Source\PSoC4/cyfitter_cfg.c **** 	CY_SET_REG32((void *)CYREG_PERI_DIV_CMD, 0x8000FF42u);
 254              		.loc 1 247 0
 255 0084 2C4A     		ldr	r2, .L9+92
 256 0086 1A60     		str	r2, [r3]
 248:Generated_Source\PSoC4/cyfitter_cfg.c **** 
ARM GAS  C:\Users\luvsd\AppData\Local\Temp\ccl3vs7c.s 			page 10


 249:Generated_Source\PSoC4/cyfitter_cfg.c **** 	/* CYDEV_CLK_IMO_CONFIG Starting address: CYDEV_CLK_IMO_CONFIG */
 250:Generated_Source\PSoC4/cyfitter_cfg.c **** 	CY_SET_REG32((void *)(CYREG_CLK_IMO_CONFIG), 0x82000000u);
 257              		.loc 1 250 0
 258 0088 8222     		movs	r2, #130
 259 008a 1206     		lsls	r2, r2, #24
 260 008c 2B4B     		ldr	r3, .L9+96
 261 008e 1A60     		str	r2, [r3]
 251:Generated_Source\PSoC4/cyfitter_cfg.c **** 
 252:Generated_Source\PSoC4/cyfitter_cfg.c **** 	/* CYDEV_CLK_SELECT Starting address: CYDEV_CLK_SELECT */
 253:Generated_Source\PSoC4/cyfitter_cfg.c **** 	CY_SET_REG32((void *)(CYREG_CLK_SELECT), 0x00040000u);
 262              		.loc 1 253 0
 263 0090 8022     		movs	r2, #128
 264 0092 D202     		lsls	r2, r2, #11
 265 0094 2A4B     		ldr	r3, .L9+100
 266 0096 1A60     		str	r2, [r3]
 254:Generated_Source\PSoC4/cyfitter_cfg.c **** 
 255:Generated_Source\PSoC4/cyfitter_cfg.c **** 	/* CYDEV_PERI_PCLK_CTL22 Starting address: CYDEV_PERI_PCLK_CTL22 */
 256:Generated_Source\PSoC4/cyfitter_cfg.c **** 	CY_SET_REG32((void *)(CYREG_PERI_PCLK_CTL22), 0x00000041u);
 267              		.loc 1 256 0
 268 0098 4122     		movs	r2, #65
 269 009a 2A4B     		ldr	r3, .L9+104
 270 009c 1A60     		str	r2, [r3]
 257:Generated_Source\PSoC4/cyfitter_cfg.c **** 
 258:Generated_Source\PSoC4/cyfitter_cfg.c **** 	/* CYDEV_PERI_PCLK_CTL21 Starting address: CYDEV_PERI_PCLK_CTL21 */
 259:Generated_Source\PSoC4/cyfitter_cfg.c **** 	CY_SET_REG32((void *)(CYREG_PERI_PCLK_CTL21), 0x000000C0u);
 271              		.loc 1 259 0
 272 009e 7F32     		adds	r2, r2, #127
 273 00a0 294B     		ldr	r3, .L9+108
 274 00a2 1A60     		str	r2, [r3]
 260:Generated_Source\PSoC4/cyfitter_cfg.c **** 
 261:Generated_Source\PSoC4/cyfitter_cfg.c **** 	/* CYDEV_PERI_PCLK_CTL20 Starting address: CYDEV_PERI_PCLK_CTL20 */
 262:Generated_Source\PSoC4/cyfitter_cfg.c **** 	CY_SET_REG32((void *)(CYREG_PERI_PCLK_CTL20), 0x00000040u);
 275              		.loc 1 262 0
 276 00a4 803A     		subs	r2, r2, #128
 277 00a6 294B     		ldr	r3, .L9+112
 278 00a8 1A60     		str	r2, [r3]
 263:Generated_Source\PSoC4/cyfitter_cfg.c **** 
 264:Generated_Source\PSoC4/cyfitter_cfg.c **** 	/* CYDEV_PERI_PCLK_CTL11 Starting address: CYDEV_PERI_PCLK_CTL11 */
 265:Generated_Source\PSoC4/cyfitter_cfg.c **** 	CY_SET_REG32((void *)(CYREG_PERI_PCLK_CTL11), 0x00000046u);
 279              		.loc 1 265 0
 280 00aa 0632     		adds	r2, r2, #6
 281 00ac 284B     		ldr	r3, .L9+116
 282 00ae 1A60     		str	r2, [r3]
 266:Generated_Source\PSoC4/cyfitter_cfg.c **** 
 267:Generated_Source\PSoC4/cyfitter_cfg.c **** 	/* CYDEV_PERI_PCLK_CTL10 Starting address: CYDEV_PERI_PCLK_CTL10 */
 268:Generated_Source\PSoC4/cyfitter_cfg.c **** 	CY_SET_REG32((void *)(CYREG_PERI_PCLK_CTL10), 0x00000045u);
 283              		.loc 1 268 0
 284 00b0 013A     		subs	r2, r2, #1
 285 00b2 284B     		ldr	r3, .L9+120
 286 00b4 1A60     		str	r2, [r3]
 269:Generated_Source\PSoC4/cyfitter_cfg.c **** 
 270:Generated_Source\PSoC4/cyfitter_cfg.c **** 	/* CYDEV_PERI_PCLK_CTL5 Starting address: CYDEV_PERI_PCLK_CTL5 */
 271:Generated_Source\PSoC4/cyfitter_cfg.c **** 	CY_SET_REG32((void *)(CYREG_PERI_PCLK_CTL5), 0x00000043u);
 287              		.loc 1 271 0
 288 00b6 023A     		subs	r2, r2, #2
 289 00b8 274B     		ldr	r3, .L9+124
 290 00ba 1A60     		str	r2, [r3]
ARM GAS  C:\Users\luvsd\AppData\Local\Temp\ccl3vs7c.s 			page 11


 272:Generated_Source\PSoC4/cyfitter_cfg.c **** 
 273:Generated_Source\PSoC4/cyfitter_cfg.c **** 	/* CYDEV_PERI_PCLK_CTL3 Starting address: CYDEV_PERI_PCLK_CTL3 */
 274:Generated_Source\PSoC4/cyfitter_cfg.c **** 	CY_SET_REG32((void *)(CYREG_PERI_PCLK_CTL3), 0x00000044u);
 291              		.loc 1 274 0
 292 00bc 0132     		adds	r2, r2, #1
 293 00be 274B     		ldr	r3, .L9+128
 294 00c0 1A60     		str	r2, [r3]
 275:Generated_Source\PSoC4/cyfitter_cfg.c **** 
 276:Generated_Source\PSoC4/cyfitter_cfg.c **** 	/* CYDEV_PERI_PCLK_CTL2 Starting address: CYDEV_PERI_PCLK_CTL2 */
 277:Generated_Source\PSoC4/cyfitter_cfg.c **** 	CY_SET_REG32((void *)(CYREG_PERI_PCLK_CTL2), 0x00000042u);
 295              		.loc 1 277 0
 296 00c2 023A     		subs	r2, r2, #2
 297 00c4 264B     		ldr	r3, .L9+132
 298 00c6 1A60     		str	r2, [r3]
 278:Generated_Source\PSoC4/cyfitter_cfg.c **** 
 279:Generated_Source\PSoC4/cyfitter_cfg.c **** 	(void)CyIntSetVector(8u, &CySysWdtIsr);
 299              		.loc 1 279 0
 300 00c8 2649     		ldr	r1, .L9+136
 301 00ca 0820     		movs	r0, #8
 302 00cc FFF7FEFF 		bl	CyIntSetVector
 303              	.LVL21:
 280:Generated_Source\PSoC4/cyfitter_cfg.c **** 	CyIntEnable(8u);
 304              		.loc 1 280 0
 305 00d0 0820     		movs	r0, #8
 306 00d2 FFF7FEFF 		bl	CyIntEnable
 307              	.LVL22:
 281:Generated_Source\PSoC4/cyfitter_cfg.c **** 	CY_SET_REG32((void *)(CYREG_WDT_CONFIG), 0x40000000u);
 308              		.loc 1 281 0
 309 00d6 2560     		str	r5, [r4]
 282:Generated_Source\PSoC4/cyfitter_cfg.c **** }
 310              		.loc 1 282 0
 311              		@ sp needed
 312 00d8 70BD     		pop	{r4, r5, r6, pc}
 313              	.L10:
 314 00da C046     		.align	2
 315              	.L9:
 316 00dc 30001040 		.word	1074790448
 317 00e0 001BB700 		.word	12000000
 318 00e4 06000080 		.word	-2147483642
 319 00e8 04010B40 		.word	1074462980
 320 00ec 0C020B40 		.word	1074463244
 321 00f0 04030140 		.word	1073808132
 322 00f4 00000140 		.word	1073807360
 323 00f8 41FF0080 		.word	-2147418303
 324 00fc 00FF9E24 		.word	614399744
 325 0100 00050140 		.word	1073808640
 326 0104 C0FF0080 		.word	-2147418176
 327 0108 00030140 		.word	1073808128
 328 010c 40FF0080 		.word	-2147418304
 329 0110 00DF0100 		.word	122624
 330 0114 18030140 		.word	1073808152
 331 0118 46FF0080 		.word	-2147418298
 332 011c 14030140 		.word	1073808148
 333 0120 45FF0080 		.word	-2147418299
 334 0124 0C030140 		.word	1073808140
 335 0128 43FF0080 		.word	-2147418301
 336 012c 10030140 		.word	1073808144
ARM GAS  C:\Users\luvsd\AppData\Local\Temp\ccl3vs7c.s 			page 12


 337 0130 44FF0080 		.word	-2147418300
 338 0134 08030140 		.word	1073808136
 339 0138 42FF0080 		.word	-2147418302
 340 013c 08010B40 		.word	1074462984
 341 0140 00010B40 		.word	1074462976
 342 0144 58010140 		.word	1073807704
 343 0148 54010140 		.word	1073807700
 344 014c 50010140 		.word	1073807696
 345 0150 2C010140 		.word	1073807660
 346 0154 28010140 		.word	1073807656
 347 0158 14010140 		.word	1073807636
 348 015c 0C010140 		.word	1073807628
 349 0160 08010140 		.word	1073807624
 350 0164 00000000 		.word	CySysWdtIsr
 351              		.cfi_endproc
 352              	.LFE5:
 353              		.size	ClockSetup, .-ClockSetup
 354              		.section	.text.SetAnalogRoutingPumps,"ax",%progbits
 355              		.align	2
 356              		.global	SetAnalogRoutingPumps
 357              		.code	16
 358              		.thumb_func
 359              		.type	SetAnalogRoutingPumps, %function
 360              	SetAnalogRoutingPumps:
 361              	.LFB7:
 283:Generated_Source\PSoC4/cyfitter_cfg.c **** 
 284:Generated_Source\PSoC4/cyfitter_cfg.c **** 
 285:Generated_Source\PSoC4/cyfitter_cfg.c **** /* Analog API Functions */
 286:Generated_Source\PSoC4/cyfitter_cfg.c **** 
 287:Generated_Source\PSoC4/cyfitter_cfg.c **** 
 288:Generated_Source\PSoC4/cyfitter_cfg.c **** /*******************************************************************************
 289:Generated_Source\PSoC4/cyfitter_cfg.c **** * Function Name: AnalogSetDefault
 290:Generated_Source\PSoC4/cyfitter_cfg.c **** ********************************************************************************
 291:Generated_Source\PSoC4/cyfitter_cfg.c **** *
 292:Generated_Source\PSoC4/cyfitter_cfg.c **** * Summary:
 293:Generated_Source\PSoC4/cyfitter_cfg.c **** *  Sets up the analog portions of the chip to default values based on chip
 294:Generated_Source\PSoC4/cyfitter_cfg.c **** *  configuration options from the project.
 295:Generated_Source\PSoC4/cyfitter_cfg.c **** *
 296:Generated_Source\PSoC4/cyfitter_cfg.c **** * Parameters:
 297:Generated_Source\PSoC4/cyfitter_cfg.c **** *  void
 298:Generated_Source\PSoC4/cyfitter_cfg.c **** *
 299:Generated_Source\PSoC4/cyfitter_cfg.c **** * Return:
 300:Generated_Source\PSoC4/cyfitter_cfg.c **** *  void
 301:Generated_Source\PSoC4/cyfitter_cfg.c **** *
 302:Generated_Source\PSoC4/cyfitter_cfg.c **** *******************************************************************************/
 303:Generated_Source\PSoC4/cyfitter_cfg.c **** static void AnalogSetDefault(void);
 304:Generated_Source\PSoC4/cyfitter_cfg.c **** static void AnalogSetDefault(void)
 305:Generated_Source\PSoC4/cyfitter_cfg.c **** {
 306:Generated_Source\PSoC4/cyfitter_cfg.c **** 	CY_SET_XTND_REG32((void CYFAR *)CYREG_HSIOM_AMUX_SPLIT_CTL0, 0x00000030u);
 307:Generated_Source\PSoC4/cyfitter_cfg.c **** 	CY_SET_XTND_REG32((void CYFAR *)CYREG_CTBM0_DFT_CTRL, 0x00000003u);
 308:Generated_Source\PSoC4/cyfitter_cfg.c **** 	CY_SET_XTND_REG32((void CYFAR *)CYREG_CTBM1_DFT_CTRL, 0x00000003u);
 309:Generated_Source\PSoC4/cyfitter_cfg.c **** 	CY_SET_XTND_REG32((void CYFAR *)CYREG_SAR_CTRL, 0x80000000u);
 310:Generated_Source\PSoC4/cyfitter_cfg.c **** 	CY_SET_XTND_REG32((void CYFAR *)CYREG_SAR_MUX_SWITCH0, 0x00080000u);
 311:Generated_Source\PSoC4/cyfitter_cfg.c **** 	CY_SET_XTND_REG32((void CYFAR *)CYREG_PASS_DSAB_DSAB_CTRL, 0x00000000u);
 312:Generated_Source\PSoC4/cyfitter_cfg.c **** 	SetAnalogRoutingPumps(1);
 313:Generated_Source\PSoC4/cyfitter_cfg.c **** }
 314:Generated_Source\PSoC4/cyfitter_cfg.c **** 
ARM GAS  C:\Users\luvsd\AppData\Local\Temp\ccl3vs7c.s 			page 13


 315:Generated_Source\PSoC4/cyfitter_cfg.c **** 
 316:Generated_Source\PSoC4/cyfitter_cfg.c **** /*******************************************************************************
 317:Generated_Source\PSoC4/cyfitter_cfg.c **** * Function Name: SetAnalogRoutingPumps
 318:Generated_Source\PSoC4/cyfitter_cfg.c **** ********************************************************************************
 319:Generated_Source\PSoC4/cyfitter_cfg.c **** *
 320:Generated_Source\PSoC4/cyfitter_cfg.c **** * Summary:
 321:Generated_Source\PSoC4/cyfitter_cfg.c **** * Enables or disables the analog pumps feeding analog routing switches.
 322:Generated_Source\PSoC4/cyfitter_cfg.c **** * Intended to be called at startup, based on the Vdda system configuration;
 323:Generated_Source\PSoC4/cyfitter_cfg.c **** * may be called during operation when the user informs us that the Vdda voltage crossed the pump th
 324:Generated_Source\PSoC4/cyfitter_cfg.c **** *
 325:Generated_Source\PSoC4/cyfitter_cfg.c **** * Parameters:
 326:Generated_Source\PSoC4/cyfitter_cfg.c **** *  enabled - 1 to enable the pumps, 0 to disable the pumps
 327:Generated_Source\PSoC4/cyfitter_cfg.c **** *
 328:Generated_Source\PSoC4/cyfitter_cfg.c **** * Return:
 329:Generated_Source\PSoC4/cyfitter_cfg.c **** *  void
 330:Generated_Source\PSoC4/cyfitter_cfg.c **** *
 331:Generated_Source\PSoC4/cyfitter_cfg.c **** *******************************************************************************/
 332:Generated_Source\PSoC4/cyfitter_cfg.c **** void SetAnalogRoutingPumps(uint8 enabled)
 333:Generated_Source\PSoC4/cyfitter_cfg.c **** {
 362              		.loc 1 333 0
 363              		.cfi_startproc
 364              		@ args = 0, pretend = 0, frame = 0
 365              		@ frame_needed = 0, uses_anonymous_args = 0
 366              		@ link register save eliminated.
 367              	.LVL23:
 334:Generated_Source\PSoC4/cyfitter_cfg.c **** 	uint32 regValue = CY_GET_XTND_REG32((void *)(CYREG_SAR_PUMP_CTRL));
 368              		.loc 1 334 0
 369 0000 064B     		ldr	r3, .L14
 370 0002 1B68     		ldr	r3, [r3]
 371              	.LVL24:
 335:Generated_Source\PSoC4/cyfitter_cfg.c **** 	if (enabled != 0u)
 372              		.loc 1 335 0
 373 0004 0028     		cmp	r0, #0
 374 0006 03D0     		beq	.L12
 336:Generated_Source\PSoC4/cyfitter_cfg.c **** 	{
 337:Generated_Source\PSoC4/cyfitter_cfg.c **** 		regValue |= 0x80000000u;
 375              		.loc 1 337 0
 376 0008 8022     		movs	r2, #128
 377 000a 1206     		lsls	r2, r2, #24
 378 000c 1343     		orrs	r3, r2
 379              	.LVL25:
 380 000e 01E0     		b	.L13
 381              	.L12:
 338:Generated_Source\PSoC4/cyfitter_cfg.c **** 	}
 339:Generated_Source\PSoC4/cyfitter_cfg.c **** 	else
 340:Generated_Source\PSoC4/cyfitter_cfg.c **** 	{
 341:Generated_Source\PSoC4/cyfitter_cfg.c **** 		regValue &= ~0x80000000u;
 382              		.loc 1 341 0
 383 0010 5B00     		lsls	r3, r3, #1
 384              	.LVL26:
 385 0012 5B08     		lsrs	r3, r3, #1
 386              	.LVL27:
 387              	.L13:
 342:Generated_Source\PSoC4/cyfitter_cfg.c **** 	}
 343:Generated_Source\PSoC4/cyfitter_cfg.c **** 	CY_SET_XTND_REG32((void *)(CYREG_SAR_PUMP_CTRL), regValue);
 388              		.loc 1 343 0
 389 0014 014A     		ldr	r2, .L14
ARM GAS  C:\Users\luvsd\AppData\Local\Temp\ccl3vs7c.s 			page 14


 390 0016 1360     		str	r3, [r2]
 344:Generated_Source\PSoC4/cyfitter_cfg.c **** }
 391              		.loc 1 344 0
 392              		@ sp needed
 393 0018 7047     		bx	lr
 394              	.L15:
 395 001a C046     		.align	2
 396              	.L14:
 397 001c 80033A40 		.word	1077543808
 398              		.cfi_endproc
 399              	.LFE7:
 400              		.size	SetAnalogRoutingPumps, .-SetAnalogRoutingPumps
 401              		.section	.text.AnalogSetDefault,"ax",%progbits
 402              		.align	2
 403              		.code	16
 404              		.thumb_func
 405              		.type	AnalogSetDefault, %function
 406              	AnalogSetDefault:
 407              	.LFB6:
 305:Generated_Source\PSoC4/cyfitter_cfg.c **** 	CY_SET_XTND_REG32((void CYFAR *)CYREG_HSIOM_AMUX_SPLIT_CTL0, 0x00000030u);
 408              		.loc 1 305 0
 409              		.cfi_startproc
 410              		@ args = 0, pretend = 0, frame = 0
 411              		@ frame_needed = 0, uses_anonymous_args = 0
 412 0000 10B5     		push	{r4, lr}
 413              		.cfi_def_cfa_offset 8
 414              		.cfi_offset 4, -8
 415              		.cfi_offset 14, -4
 306:Generated_Source\PSoC4/cyfitter_cfg.c **** 	CY_SET_XTND_REG32((void CYFAR *)CYREG_CTBM0_DFT_CTRL, 0x00000003u);
 416              		.loc 1 306 0
 417 0002 3022     		movs	r2, #48
 418 0004 0A4B     		ldr	r3, .L17
 419 0006 1A60     		str	r2, [r3]
 307:Generated_Source\PSoC4/cyfitter_cfg.c **** 	CY_SET_XTND_REG32((void CYFAR *)CYREG_CTBM1_DFT_CTRL, 0x00000003u);
 420              		.loc 1 307 0
 421 0008 0323     		movs	r3, #3
 422 000a 0A4A     		ldr	r2, .L17+4
 423 000c 1360     		str	r3, [r2]
 308:Generated_Source\PSoC4/cyfitter_cfg.c **** 	CY_SET_XTND_REG32((void CYFAR *)CYREG_SAR_CTRL, 0x80000000u);
 424              		.loc 1 308 0
 425 000e 0A4A     		ldr	r2, .L17+8
 426 0010 1360     		str	r3, [r2]
 309:Generated_Source\PSoC4/cyfitter_cfg.c **** 	CY_SET_XTND_REG32((void CYFAR *)CYREG_SAR_MUX_SWITCH0, 0x00080000u);
 427              		.loc 1 309 0
 428 0012 8022     		movs	r2, #128
 429 0014 1206     		lsls	r2, r2, #24
 430 0016 094B     		ldr	r3, .L17+12
 431 0018 1A60     		str	r2, [r3]
 310:Generated_Source\PSoC4/cyfitter_cfg.c **** 	CY_SET_XTND_REG32((void CYFAR *)CYREG_PASS_DSAB_DSAB_CTRL, 0x00000000u);
 432              		.loc 1 310 0
 433 001a 8022     		movs	r2, #128
 434 001c 1203     		lsls	r2, r2, #12
 435 001e 084B     		ldr	r3, .L17+16
 436 0020 1A60     		str	r2, [r3]
 311:Generated_Source\PSoC4/cyfitter_cfg.c **** 	SetAnalogRoutingPumps(1);
 437              		.loc 1 311 0
 438 0022 0022     		movs	r2, #0
ARM GAS  C:\Users\luvsd\AppData\Local\Temp\ccl3vs7c.s 			page 15


 439 0024 074B     		ldr	r3, .L17+20
 440 0026 1A60     		str	r2, [r3]
 312:Generated_Source\PSoC4/cyfitter_cfg.c **** }
 441              		.loc 1 312 0
 442 0028 0120     		movs	r0, #1
 443 002a FFF7FEFF 		bl	SetAnalogRoutingPumps
 444              	.LVL28:
 313:Generated_Source\PSoC4/cyfitter_cfg.c **** 
 445              		.loc 1 313 0
 446              		@ sp needed
 447 002e 10BD     		pop	{r4, pc}
 448              	.L18:
 449              		.align	2
 450              	.L17:
 451 0030 00210240 		.word	1073881344
 452 0034 30003040 		.word	1076887600
 453 0038 30003140 		.word	1076953136
 454 003c 00003A40 		.word	1077542912
 455 0040 00033A40 		.word	1077543680
 456 0044 000E3F40 		.word	1077874176
 457              		.cfi_endproc
 458              	.LFE6:
 459              		.size	AnalogSetDefault, .-AnalogSetDefault
 460              		.section	.psocinit
 461              		.align	2
 462              		.global	cyfitter_cfg
 463              		.code	16
 464              		.thumb_func
 465              		.type	cyfitter_cfg, %function
 466              	cyfitter_cfg:
 467              	.LFB8:
 345:Generated_Source\PSoC4/cyfitter_cfg.c **** 
 346:Generated_Source\PSoC4/cyfitter_cfg.c **** 
 347:Generated_Source\PSoC4/cyfitter_cfg.c **** 
 348:Generated_Source\PSoC4/cyfitter_cfg.c **** 
 349:Generated_Source\PSoC4/cyfitter_cfg.c **** /*******************************************************************************
 350:Generated_Source\PSoC4/cyfitter_cfg.c **** * Function Name: cyfitter_cfg
 351:Generated_Source\PSoC4/cyfitter_cfg.c **** ********************************************************************************
 352:Generated_Source\PSoC4/cyfitter_cfg.c **** * Summary:
 353:Generated_Source\PSoC4/cyfitter_cfg.c **** *  This function is called by the start-up code for the selected device. It
 354:Generated_Source\PSoC4/cyfitter_cfg.c **** *  performs all of the necessary device configuration based on the design
 355:Generated_Source\PSoC4/cyfitter_cfg.c **** *  settings.  This includes settings from the Design Wide Resources (DWR) such
 356:Generated_Source\PSoC4/cyfitter_cfg.c **** *  as Clocks and Pins as well as any component configuration that is necessary.
 357:Generated_Source\PSoC4/cyfitter_cfg.c **** *
 358:Generated_Source\PSoC4/cyfitter_cfg.c **** * Parameters:
 359:Generated_Source\PSoC4/cyfitter_cfg.c **** *   void
 360:Generated_Source\PSoC4/cyfitter_cfg.c **** *
 361:Generated_Source\PSoC4/cyfitter_cfg.c **** * Return:
 362:Generated_Source\PSoC4/cyfitter_cfg.c **** *   void
 363:Generated_Source\PSoC4/cyfitter_cfg.c **** *
 364:Generated_Source\PSoC4/cyfitter_cfg.c **** *******************************************************************************/
 365:Generated_Source\PSoC4/cyfitter_cfg.c **** CY_CFG_SECTION
 366:Generated_Source\PSoC4/cyfitter_cfg.c **** void cyfitter_cfg(void)
 367:Generated_Source\PSoC4/cyfitter_cfg.c **** {
 468              		.loc 1 367 0
 469              		.cfi_startproc
 470              		@ args = 0, pretend = 0, frame = 0
ARM GAS  C:\Users\luvsd\AppData\Local\Temp\ccl3vs7c.s 			page 16


 471              		@ frame_needed = 0, uses_anonymous_args = 0
 472 0168 70B5     		push	{r4, r5, r6, lr}
 473              		.cfi_def_cfa_offset 16
 474              		.cfi_offset 4, -16
 475              		.cfi_offset 5, -12
 476              		.cfi_offset 6, -8
 477              		.cfi_offset 14, -4
 368:Generated_Source\PSoC4/cyfitter_cfg.c **** 	/* Disable interrupts by default. Let user enable if/when they want. */
 369:Generated_Source\PSoC4/cyfitter_cfg.c **** 	CyGlobalIntDisable;
 478              		.loc 1 369 0
 479              		.syntax divided
 480              	@ 369 "Generated_Source\PSoC4\cyfitter_cfg.c" 1
 481 016a 72B6     		CPSID   i
 482              	@ 0 "" 2
 370:Generated_Source\PSoC4/cyfitter_cfg.c **** 
 371:Generated_Source\PSoC4/cyfitter_cfg.c **** 	/* Enable the clock in the interrupt controller for the routed interrupts */
 372:Generated_Source\PSoC4/cyfitter_cfg.c **** 	CY_SET_REG8((void *)CYREG_UDB_UDB_INT_CLK_CTL, 0x01u);
 483              		.loc 1 372 0
 484              		.thumb
 485              		.syntax unified
 486 016c 0122     		movs	r2, #1
 487 016e 654B     		ldr	r3, .L24
 488 0170 1A70     		strb	r2, [r3]
 489              	.LVL29:
 490              	.LBB3:
 373:Generated_Source\PSoC4/cyfitter_cfg.c **** 	{
 374:Generated_Source\PSoC4/cyfitter_cfg.c **** 		static const uint32 CYCODE cy_cfg_addr_table[] = {
 375:Generated_Source\PSoC4/cyfitter_cfg.c **** 			0x400F0004u, /* Base address: 0x400F0000 Count: 4 */
 376:Generated_Source\PSoC4/cyfitter_cfg.c **** 			0x400F300Eu, /* Base address: 0x400F3000 Count: 14 */
 377:Generated_Source\PSoC4/cyfitter_cfg.c **** 			0x400F3134u, /* Base address: 0x400F3100 Count: 52 */
 378:Generated_Source\PSoC4/cyfitter_cfg.c **** 			0x400F3268u, /* Base address: 0x400F3200 Count: 104 */
 379:Generated_Source\PSoC4/cyfitter_cfg.c **** 			0x400F3356u, /* Base address: 0x400F3300 Count: 86 */
 380:Generated_Source\PSoC4/cyfitter_cfg.c **** 			0x400F3416u, /* Base address: 0x400F3400 Count: 22 */
 381:Generated_Source\PSoC4/cyfitter_cfg.c **** 			0x400F3550u, /* Base address: 0x400F3500 Count: 80 */
 382:Generated_Source\PSoC4/cyfitter_cfg.c **** 			0x400F365Au, /* Base address: 0x400F3600 Count: 90 */
 383:Generated_Source\PSoC4/cyfitter_cfg.c **** 			0x400F374Cu, /* Base address: 0x400F3700 Count: 76 */
 384:Generated_Source\PSoC4/cyfitter_cfg.c **** 			0x400F4008u, /* Base address: 0x400F4000 Count: 8 */
 385:Generated_Source\PSoC4/cyfitter_cfg.c **** 			0x400F4112u, /* Base address: 0x400F4100 Count: 18 */
 386:Generated_Source\PSoC4/cyfitter_cfg.c **** 			0x400F4210u, /* Base address: 0x400F4200 Count: 16 */
 387:Generated_Source\PSoC4/cyfitter_cfg.c **** 			0x400F430Cu, /* Base address: 0x400F4300 Count: 12 */
 388:Generated_Source\PSoC4/cyfitter_cfg.c **** 			0x400F440Bu, /* Base address: 0x400F4400 Count: 11 */
 389:Generated_Source\PSoC4/cyfitter_cfg.c **** 			0x400F4509u, /* Base address: 0x400F4500 Count: 9 */
 390:Generated_Source\PSoC4/cyfitter_cfg.c **** 			0x400F4607u, /* Base address: 0x400F4600 Count: 7 */
 391:Generated_Source\PSoC4/cyfitter_cfg.c **** 			0x400F4704u, /* Base address: 0x400F4700 Count: 4 */
 392:Generated_Source\PSoC4/cyfitter_cfg.c **** 			0x400F6004u, /* Base address: 0x400F6000 Count: 4 */
 393:Generated_Source\PSoC4/cyfitter_cfg.c **** 		};
 394:Generated_Source\PSoC4/cyfitter_cfg.c **** 
 395:Generated_Source\PSoC4/cyfitter_cfg.c **** 		static const cy_cfg_addrvalue_t CYCODE cy_cfg_data_table[] = {
 396:Generated_Source\PSoC4/cyfitter_cfg.c **** 			{0x76u, 0x01u},
 397:Generated_Source\PSoC4/cyfitter_cfg.c **** 			{0x81u, 0x0Fu},
 398:Generated_Source\PSoC4/cyfitter_cfg.c **** 			{0x83u, 0x0Du},
 399:Generated_Source\PSoC4/cyfitter_cfg.c **** 			{0x87u, 0x0Fu},
 400:Generated_Source\PSoC4/cyfitter_cfg.c **** 			{0x07u, 0x04u},
 401:Generated_Source\PSoC4/cyfitter_cfg.c **** 			{0x0Bu, 0x01u},
 402:Generated_Source\PSoC4/cyfitter_cfg.c **** 			{0x13u, 0x02u},
 403:Generated_Source\PSoC4/cyfitter_cfg.c **** 			{0x23u, 0x07u},
 404:Generated_Source\PSoC4/cyfitter_cfg.c **** 			{0x31u, 0x04u},
ARM GAS  C:\Users\luvsd\AppData\Local\Temp\ccl3vs7c.s 			page 17


 405:Generated_Source\PSoC4/cyfitter_cfg.c **** 			{0x33u, 0x01u},
 406:Generated_Source\PSoC4/cyfitter_cfg.c **** 			{0x35u, 0x02u},
 407:Generated_Source\PSoC4/cyfitter_cfg.c **** 			{0x39u, 0x2Au},
 408:Generated_Source\PSoC4/cyfitter_cfg.c **** 			{0x3Fu, 0x15u},
 409:Generated_Source\PSoC4/cyfitter_cfg.c **** 			{0x56u, 0x08u},
 410:Generated_Source\PSoC4/cyfitter_cfg.c **** 			{0x59u, 0x04u},
 411:Generated_Source\PSoC4/cyfitter_cfg.c **** 			{0x5Bu, 0x04u},
 412:Generated_Source\PSoC4/cyfitter_cfg.c **** 			{0x5Du, 0x90u},
 413:Generated_Source\PSoC4/cyfitter_cfg.c **** 			{0x5Fu, 0x01u},
 414:Generated_Source\PSoC4/cyfitter_cfg.c **** 			{0x04u, 0x40u},
 415:Generated_Source\PSoC4/cyfitter_cfg.c **** 			{0x06u, 0x90u},
 416:Generated_Source\PSoC4/cyfitter_cfg.c **** 			{0x07u, 0x44u},
 417:Generated_Source\PSoC4/cyfitter_cfg.c **** 			{0x0Eu, 0x88u},
 418:Generated_Source\PSoC4/cyfitter_cfg.c **** 			{0x0Fu, 0x12u},
 419:Generated_Source\PSoC4/cyfitter_cfg.c **** 			{0x14u, 0x04u},
 420:Generated_Source\PSoC4/cyfitter_cfg.c **** 			{0x16u, 0x02u},
 421:Generated_Source\PSoC4/cyfitter_cfg.c **** 			{0x17u, 0x01u},
 422:Generated_Source\PSoC4/cyfitter_cfg.c **** 			{0x1Du, 0x08u},
 423:Generated_Source\PSoC4/cyfitter_cfg.c **** 			{0x1Eu, 0x80u},
 424:Generated_Source\PSoC4/cyfitter_cfg.c **** 			{0x21u, 0x01u},
 425:Generated_Source\PSoC4/cyfitter_cfg.c **** 			{0x22u, 0x28u},
 426:Generated_Source\PSoC4/cyfitter_cfg.c **** 			{0x25u, 0x24u},
 427:Generated_Source\PSoC4/cyfitter_cfg.c **** 			{0x28u, 0x80u},
 428:Generated_Source\PSoC4/cyfitter_cfg.c **** 			{0x2Cu, 0x04u},
 429:Generated_Source\PSoC4/cyfitter_cfg.c **** 			{0x2Eu, 0x80u},
 430:Generated_Source\PSoC4/cyfitter_cfg.c **** 			{0x2Fu, 0x10u},
 431:Generated_Source\PSoC4/cyfitter_cfg.c **** 			{0x30u, 0x02u},
 432:Generated_Source\PSoC4/cyfitter_cfg.c **** 			{0x31u, 0x30u},
 433:Generated_Source\PSoC4/cyfitter_cfg.c **** 			{0x35u, 0x10u},
 434:Generated_Source\PSoC4/cyfitter_cfg.c **** 			{0x36u, 0x04u},
 435:Generated_Source\PSoC4/cyfitter_cfg.c **** 			{0x37u, 0x01u},
 436:Generated_Source\PSoC4/cyfitter_cfg.c **** 			{0x39u, 0x18u},
 437:Generated_Source\PSoC4/cyfitter_cfg.c **** 			{0x3Du, 0x88u},
 438:Generated_Source\PSoC4/cyfitter_cfg.c **** 			{0x3Eu, 0x12u},
 439:Generated_Source\PSoC4/cyfitter_cfg.c **** 			{0x44u, 0x04u},
 440:Generated_Source\PSoC4/cyfitter_cfg.c **** 			{0x45u, 0x48u},
 441:Generated_Source\PSoC4/cyfitter_cfg.c **** 			{0x4Du, 0x40u},
 442:Generated_Source\PSoC4/cyfitter_cfg.c **** 			{0x4Fu, 0x12u},
 443:Generated_Source\PSoC4/cyfitter_cfg.c **** 			{0x54u, 0x40u},
 444:Generated_Source\PSoC4/cyfitter_cfg.c **** 			{0x56u, 0x29u},
 445:Generated_Source\PSoC4/cyfitter_cfg.c **** 			{0x58u, 0x40u},
 446:Generated_Source\PSoC4/cyfitter_cfg.c **** 			{0x60u, 0x02u},
 447:Generated_Source\PSoC4/cyfitter_cfg.c **** 			{0x62u, 0x80u},
 448:Generated_Source\PSoC4/cyfitter_cfg.c **** 			{0x65u, 0x10u},
 449:Generated_Source\PSoC4/cyfitter_cfg.c **** 			{0x68u, 0x02u},
 450:Generated_Source\PSoC4/cyfitter_cfg.c **** 			{0x69u, 0x18u},
 451:Generated_Source\PSoC4/cyfitter_cfg.c **** 			{0x6Eu, 0x19u},
 452:Generated_Source\PSoC4/cyfitter_cfg.c **** 			{0x6Fu, 0x45u},
 453:Generated_Source\PSoC4/cyfitter_cfg.c **** 			{0x76u, 0x02u},
 454:Generated_Source\PSoC4/cyfitter_cfg.c **** 			{0x8Au, 0x40u},
 455:Generated_Source\PSoC4/cyfitter_cfg.c **** 			{0xC0u, 0xF0u},
 456:Generated_Source\PSoC4/cyfitter_cfg.c **** 			{0xC2u, 0xF0u},
 457:Generated_Source\PSoC4/cyfitter_cfg.c **** 			{0xC4u, 0xD0u},
 458:Generated_Source\PSoC4/cyfitter_cfg.c **** 			{0xCAu, 0x71u},
 459:Generated_Source\PSoC4/cyfitter_cfg.c **** 			{0xCCu, 0xE1u},
 460:Generated_Source\PSoC4/cyfitter_cfg.c **** 			{0xCEu, 0xF6u},
 461:Generated_Source\PSoC4/cyfitter_cfg.c **** 			{0xD0u, 0x70u},
ARM GAS  C:\Users\luvsd\AppData\Local\Temp\ccl3vs7c.s 			page 18


 462:Generated_Source\PSoC4/cyfitter_cfg.c **** 			{0xD2u, 0x30u},
 463:Generated_Source\PSoC4/cyfitter_cfg.c **** 			{0xD6u, 0x08u},
 464:Generated_Source\PSoC4/cyfitter_cfg.c **** 			{0xD8u, 0x28u},
 465:Generated_Source\PSoC4/cyfitter_cfg.c **** 			{0xE2u, 0x20u},
 466:Generated_Source\PSoC4/cyfitter_cfg.c **** 			{0x00u, 0xFCu},
 467:Generated_Source\PSoC4/cyfitter_cfg.c **** 			{0x02u, 0x03u},
 468:Generated_Source\PSoC4/cyfitter_cfg.c **** 			{0x04u, 0x13u},
 469:Generated_Source\PSoC4/cyfitter_cfg.c **** 			{0x05u, 0x04u},
 470:Generated_Source\PSoC4/cyfitter_cfg.c **** 			{0x06u, 0x64u},
 471:Generated_Source\PSoC4/cyfitter_cfg.c **** 			{0x08u, 0x02u},
 472:Generated_Source\PSoC4/cyfitter_cfg.c **** 			{0x0Au, 0x98u},
 473:Generated_Source\PSoC4/cyfitter_cfg.c **** 			{0x0Cu, 0x38u},
 474:Generated_Source\PSoC4/cyfitter_cfg.c **** 			{0x0Du, 0x0Cu},
 475:Generated_Source\PSoC4/cyfitter_cfg.c **** 			{0x0Eu, 0xC0u},
 476:Generated_Source\PSoC4/cyfitter_cfg.c **** 			{0x0Fu, 0x10u},
 477:Generated_Source\PSoC4/cyfitter_cfg.c **** 			{0x14u, 0x21u},
 478:Generated_Source\PSoC4/cyfitter_cfg.c **** 			{0x16u, 0xD8u},
 479:Generated_Source\PSoC4/cyfitter_cfg.c **** 			{0x18u, 0x98u},
 480:Generated_Source\PSoC4/cyfitter_cfg.c **** 			{0x1Au, 0x02u},
 481:Generated_Source\PSoC4/cyfitter_cfg.c **** 			{0x1Cu, 0x9Au},
 482:Generated_Source\PSoC4/cyfitter_cfg.c **** 			{0x20u, 0x98u},
 483:Generated_Source\PSoC4/cyfitter_cfg.c **** 			{0x22u, 0x02u},
 484:Generated_Source\PSoC4/cyfitter_cfg.c **** 			{0x25u, 0x1Eu},
 485:Generated_Source\PSoC4/cyfitter_cfg.c **** 			{0x27u, 0x01u},
 486:Generated_Source\PSoC4/cyfitter_cfg.c **** 			{0x28u, 0x02u},
 487:Generated_Source\PSoC4/cyfitter_cfg.c **** 			{0x29u, 0x09u},
 488:Generated_Source\PSoC4/cyfitter_cfg.c **** 			{0x2Bu, 0x12u},
 489:Generated_Source\PSoC4/cyfitter_cfg.c **** 			{0x2Cu, 0x9Au},
 490:Generated_Source\PSoC4/cyfitter_cfg.c **** 			{0x30u, 0xE0u},
 491:Generated_Source\PSoC4/cyfitter_cfg.c **** 			{0x32u, 0x13u},
 492:Generated_Source\PSoC4/cyfitter_cfg.c **** 			{0x33u, 0x08u},
 493:Generated_Source\PSoC4/cyfitter_cfg.c **** 			{0x34u, 0x0Fu},
 494:Generated_Source\PSoC4/cyfitter_cfg.c **** 			{0x35u, 0x10u},
 495:Generated_Source\PSoC4/cyfitter_cfg.c **** 			{0x37u, 0x07u},
 496:Generated_Source\PSoC4/cyfitter_cfg.c **** 			{0x3Au, 0x22u},
 497:Generated_Source\PSoC4/cyfitter_cfg.c **** 			{0x3Bu, 0x80u},
 498:Generated_Source\PSoC4/cyfitter_cfg.c **** 			{0x3Fu, 0x14u},
 499:Generated_Source\PSoC4/cyfitter_cfg.c **** 			{0x40u, 0x60u},
 500:Generated_Source\PSoC4/cyfitter_cfg.c **** 			{0x41u, 0x05u},
 501:Generated_Source\PSoC4/cyfitter_cfg.c **** 			{0x49u, 0xFFu},
 502:Generated_Source\PSoC4/cyfitter_cfg.c **** 			{0x4Au, 0xFFu},
 503:Generated_Source\PSoC4/cyfitter_cfg.c **** 			{0x4Bu, 0xFFu},
 504:Generated_Source\PSoC4/cyfitter_cfg.c **** 			{0x4Du, 0xA0u},
 505:Generated_Source\PSoC4/cyfitter_cfg.c **** 			{0x4Fu, 0x04u},
 506:Generated_Source\PSoC4/cyfitter_cfg.c **** 			{0x50u, 0x18u},
 507:Generated_Source\PSoC4/cyfitter_cfg.c **** 			{0x54u, 0x09u},
 508:Generated_Source\PSoC4/cyfitter_cfg.c **** 			{0x58u, 0x04u},
 509:Generated_Source\PSoC4/cyfitter_cfg.c **** 			{0x59u, 0x04u},
 510:Generated_Source\PSoC4/cyfitter_cfg.c **** 			{0x5Au, 0x0Bu},
 511:Generated_Source\PSoC4/cyfitter_cfg.c **** 			{0x5Bu, 0x04u},
 512:Generated_Source\PSoC4/cyfitter_cfg.c **** 			{0x5Cu, 0x33u},
 513:Generated_Source\PSoC4/cyfitter_cfg.c **** 			{0x5Du, 0x39u},
 514:Generated_Source\PSoC4/cyfitter_cfg.c **** 			{0x5Fu, 0x01u},
 515:Generated_Source\PSoC4/cyfitter_cfg.c **** 			{0x60u, 0x40u},
 516:Generated_Source\PSoC4/cyfitter_cfg.c **** 			{0x62u, 0xC0u},
 517:Generated_Source\PSoC4/cyfitter_cfg.c **** 			{0x64u, 0x40u},
 518:Generated_Source\PSoC4/cyfitter_cfg.c **** 			{0x65u, 0x40u},
ARM GAS  C:\Users\luvsd\AppData\Local\Temp\ccl3vs7c.s 			page 19


 519:Generated_Source\PSoC4/cyfitter_cfg.c **** 			{0x66u, 0xC0u},
 520:Generated_Source\PSoC4/cyfitter_cfg.c **** 			{0x68u, 0xC0u},
 521:Generated_Source\PSoC4/cyfitter_cfg.c **** 			{0x6Au, 0xC0u},
 522:Generated_Source\PSoC4/cyfitter_cfg.c **** 			{0x6Cu, 0xC0u},
 523:Generated_Source\PSoC4/cyfitter_cfg.c **** 			{0x6Eu, 0xC0u},
 524:Generated_Source\PSoC4/cyfitter_cfg.c **** 			{0x8Eu, 0x02u},
 525:Generated_Source\PSoC4/cyfitter_cfg.c **** 			{0x92u, 0x01u},
 526:Generated_Source\PSoC4/cyfitter_cfg.c **** 			{0x97u, 0x01u},
 527:Generated_Source\PSoC4/cyfitter_cfg.c **** 			{0x9Au, 0x02u},
 528:Generated_Source\PSoC4/cyfitter_cfg.c **** 			{0x9Bu, 0x02u},
 529:Generated_Source\PSoC4/cyfitter_cfg.c **** 			{0xA3u, 0x03u},
 530:Generated_Source\PSoC4/cyfitter_cfg.c **** 			{0xB0u, 0x02u},
 531:Generated_Source\PSoC4/cyfitter_cfg.c **** 			{0xB2u, 0x02u},
 532:Generated_Source\PSoC4/cyfitter_cfg.c **** 			{0xB4u, 0x01u},
 533:Generated_Source\PSoC4/cyfitter_cfg.c **** 			{0xB5u, 0x01u},
 534:Generated_Source\PSoC4/cyfitter_cfg.c **** 			{0xB6u, 0x04u},
 535:Generated_Source\PSoC4/cyfitter_cfg.c **** 			{0xB7u, 0x02u},
 536:Generated_Source\PSoC4/cyfitter_cfg.c **** 			{0xB9u, 0xA0u},
 537:Generated_Source\PSoC4/cyfitter_cfg.c **** 			{0xBEu, 0x44u},
 538:Generated_Source\PSoC4/cyfitter_cfg.c **** 			{0xBFu, 0x50u},
 539:Generated_Source\PSoC4/cyfitter_cfg.c **** 			{0xC0u, 0x20u},
 540:Generated_Source\PSoC4/cyfitter_cfg.c **** 			{0xC1u, 0x05u},
 541:Generated_Source\PSoC4/cyfitter_cfg.c **** 			{0xC5u, 0xD0u},
 542:Generated_Source\PSoC4/cyfitter_cfg.c **** 			{0xC6u, 0x10u},
 543:Generated_Source\PSoC4/cyfitter_cfg.c **** 			{0xC7u, 0x20u},
 544:Generated_Source\PSoC4/cyfitter_cfg.c **** 			{0xC8u, 0x2Au},
 545:Generated_Source\PSoC4/cyfitter_cfg.c **** 			{0xC9u, 0xFFu},
 546:Generated_Source\PSoC4/cyfitter_cfg.c **** 			{0xCAu, 0xFFu},
 547:Generated_Source\PSoC4/cyfitter_cfg.c **** 			{0xCBu, 0xFFu},
 548:Generated_Source\PSoC4/cyfitter_cfg.c **** 			{0xCDu, 0xAFu},
 549:Generated_Source\PSoC4/cyfitter_cfg.c **** 			{0xCEu, 0x0Fu},
 550:Generated_Source\PSoC4/cyfitter_cfg.c **** 			{0xCFu, 0x04u},
 551:Generated_Source\PSoC4/cyfitter_cfg.c **** 			{0xD0u, 0x18u},
 552:Generated_Source\PSoC4/cyfitter_cfg.c **** 			{0xD2u, 0x80u},
 553:Generated_Source\PSoC4/cyfitter_cfg.c **** 			{0xD4u, 0x05u},
 554:Generated_Source\PSoC4/cyfitter_cfg.c **** 			{0xD8u, 0x0Bu},
 555:Generated_Source\PSoC4/cyfitter_cfg.c **** 			{0xD9u, 0x04u},
 556:Generated_Source\PSoC4/cyfitter_cfg.c **** 			{0xDAu, 0x0Bu},
 557:Generated_Source\PSoC4/cyfitter_cfg.c **** 			{0xDBu, 0x0Bu},
 558:Generated_Source\PSoC4/cyfitter_cfg.c **** 			{0xDCu, 0x09u},
 559:Generated_Source\PSoC4/cyfitter_cfg.c **** 			{0xDDu, 0x99u},
 560:Generated_Source\PSoC4/cyfitter_cfg.c **** 			{0xDFu, 0x01u},
 561:Generated_Source\PSoC4/cyfitter_cfg.c **** 			{0xE0u, 0x40u},
 562:Generated_Source\PSoC4/cyfitter_cfg.c **** 			{0xE2u, 0xC0u},
 563:Generated_Source\PSoC4/cyfitter_cfg.c **** 			{0xE4u, 0x40u},
 564:Generated_Source\PSoC4/cyfitter_cfg.c **** 			{0xE5u, 0x40u},
 565:Generated_Source\PSoC4/cyfitter_cfg.c **** 			{0xE6u, 0xC0u},
 566:Generated_Source\PSoC4/cyfitter_cfg.c **** 			{0xE8u, 0xC0u},
 567:Generated_Source\PSoC4/cyfitter_cfg.c **** 			{0xEAu, 0xC0u},
 568:Generated_Source\PSoC4/cyfitter_cfg.c **** 			{0xECu, 0xC0u},
 569:Generated_Source\PSoC4/cyfitter_cfg.c **** 			{0xEEu, 0xC0u},
 570:Generated_Source\PSoC4/cyfitter_cfg.c **** 			{0x02u, 0x02u},
 571:Generated_Source\PSoC4/cyfitter_cfg.c **** 			{0x04u, 0x42u},
 572:Generated_Source\PSoC4/cyfitter_cfg.c **** 			{0x05u, 0x04u},
 573:Generated_Source\PSoC4/cyfitter_cfg.c **** 			{0x07u, 0x04u},
 574:Generated_Source\PSoC4/cyfitter_cfg.c **** 			{0x09u, 0x02u},
 575:Generated_Source\PSoC4/cyfitter_cfg.c **** 			{0x0Au, 0x08u},
ARM GAS  C:\Users\luvsd\AppData\Local\Temp\ccl3vs7c.s 			page 20


 576:Generated_Source\PSoC4/cyfitter_cfg.c **** 			{0x0Eu, 0x09u},
 577:Generated_Source\PSoC4/cyfitter_cfg.c **** 			{0x0Fu, 0x10u},
 578:Generated_Source\PSoC4/cyfitter_cfg.c **** 			{0x15u, 0x10u},
 579:Generated_Source\PSoC4/cyfitter_cfg.c **** 			{0x16u, 0x0Au},
 580:Generated_Source\PSoC4/cyfitter_cfg.c **** 			{0x17u, 0x01u},
 581:Generated_Source\PSoC4/cyfitter_cfg.c **** 			{0x18u, 0x04u},
 582:Generated_Source\PSoC4/cyfitter_cfg.c **** 			{0x19u, 0x08u},
 583:Generated_Source\PSoC4/cyfitter_cfg.c **** 			{0x1Au, 0x08u},
 584:Generated_Source\PSoC4/cyfitter_cfg.c **** 			{0x1Bu, 0x41u},
 585:Generated_Source\PSoC4/cyfitter_cfg.c **** 			{0x1Cu, 0x40u},
 586:Generated_Source\PSoC4/cyfitter_cfg.c **** 			{0x1Du, 0x04u},
 587:Generated_Source\PSoC4/cyfitter_cfg.c **** 			{0x1Fu, 0x14u},
 588:Generated_Source\PSoC4/cyfitter_cfg.c **** 			{0x20u, 0x0Au},
 589:Generated_Source\PSoC4/cyfitter_cfg.c **** 			{0x24u, 0x02u},
 590:Generated_Source\PSoC4/cyfitter_cfg.c **** 			{0x25u, 0x40u},
 591:Generated_Source\PSoC4/cyfitter_cfg.c **** 			{0x26u, 0x08u},
 592:Generated_Source\PSoC4/cyfitter_cfg.c **** 			{0x27u, 0x08u},
 593:Generated_Source\PSoC4/cyfitter_cfg.c **** 			{0x28u, 0x80u},
 594:Generated_Source\PSoC4/cyfitter_cfg.c **** 			{0x2Cu, 0x04u},
 595:Generated_Source\PSoC4/cyfitter_cfg.c **** 			{0x2Du, 0x04u},
 596:Generated_Source\PSoC4/cyfitter_cfg.c **** 			{0x2Fu, 0x14u},
 597:Generated_Source\PSoC4/cyfitter_cfg.c **** 			{0x30u, 0x20u},
 598:Generated_Source\PSoC4/cyfitter_cfg.c **** 			{0x33u, 0x08u},
 599:Generated_Source\PSoC4/cyfitter_cfg.c **** 			{0x3Du, 0x80u},
 600:Generated_Source\PSoC4/cyfitter_cfg.c **** 			{0x3Eu, 0x08u},
 601:Generated_Source\PSoC4/cyfitter_cfg.c **** 			{0x40u, 0x04u},
 602:Generated_Source\PSoC4/cyfitter_cfg.c **** 			{0x49u, 0x01u},
 603:Generated_Source\PSoC4/cyfitter_cfg.c **** 			{0x4Au, 0x02u},
 604:Generated_Source\PSoC4/cyfitter_cfg.c **** 			{0x4Eu, 0x06u},
 605:Generated_Source\PSoC4/cyfitter_cfg.c **** 			{0x50u, 0x10u},
 606:Generated_Source\PSoC4/cyfitter_cfg.c **** 			{0x52u, 0x02u},
 607:Generated_Source\PSoC4/cyfitter_cfg.c **** 			{0x59u, 0x09u},
 608:Generated_Source\PSoC4/cyfitter_cfg.c **** 			{0x5Au, 0x80u},
 609:Generated_Source\PSoC4/cyfitter_cfg.c **** 			{0x5Cu, 0x01u},
 610:Generated_Source\PSoC4/cyfitter_cfg.c **** 			{0x5Du, 0x90u},
 611:Generated_Source\PSoC4/cyfitter_cfg.c **** 			{0x5Eu, 0x04u},
 612:Generated_Source\PSoC4/cyfitter_cfg.c **** 			{0x66u, 0x40u},
 613:Generated_Source\PSoC4/cyfitter_cfg.c **** 			{0x67u, 0x30u},
 614:Generated_Source\PSoC4/cyfitter_cfg.c **** 			{0x6Cu, 0x20u},
 615:Generated_Source\PSoC4/cyfitter_cfg.c **** 			{0x6Fu, 0x08u},
 616:Generated_Source\PSoC4/cyfitter_cfg.c **** 			{0x71u, 0x02u},
 617:Generated_Source\PSoC4/cyfitter_cfg.c **** 			{0x78u, 0x02u},
 618:Generated_Source\PSoC4/cyfitter_cfg.c **** 			{0x7Eu, 0x80u},
 619:Generated_Source\PSoC4/cyfitter_cfg.c **** 			{0x81u, 0xC0u},
 620:Generated_Source\PSoC4/cyfitter_cfg.c **** 			{0x83u, 0x0Au},
 621:Generated_Source\PSoC4/cyfitter_cfg.c **** 			{0x8Bu, 0x01u},
 622:Generated_Source\PSoC4/cyfitter_cfg.c **** 			{0x8Cu, 0x01u},
 623:Generated_Source\PSoC4/cyfitter_cfg.c **** 			{0x8Du, 0x08u},
 624:Generated_Source\PSoC4/cyfitter_cfg.c **** 			{0x92u, 0x05u},
 625:Generated_Source\PSoC4/cyfitter_cfg.c **** 			{0x94u, 0x40u},
 626:Generated_Source\PSoC4/cyfitter_cfg.c **** 			{0x95u, 0x40u},
 627:Generated_Source\PSoC4/cyfitter_cfg.c **** 			{0x97u, 0x30u},
 628:Generated_Source\PSoC4/cyfitter_cfg.c **** 			{0x98u, 0x02u},
 629:Generated_Source\PSoC4/cyfitter_cfg.c **** 			{0x9Au, 0x2Bu},
 630:Generated_Source\PSoC4/cyfitter_cfg.c **** 			{0x9Bu, 0x05u},
 631:Generated_Source\PSoC4/cyfitter_cfg.c **** 			{0x9Cu, 0x84u},
 632:Generated_Source\PSoC4/cyfitter_cfg.c **** 			{0xA1u, 0x08u},
ARM GAS  C:\Users\luvsd\AppData\Local\Temp\ccl3vs7c.s 			page 21


 633:Generated_Source\PSoC4/cyfitter_cfg.c **** 			{0xA2u, 0x84u},
 634:Generated_Source\PSoC4/cyfitter_cfg.c **** 			{0xA5u, 0x40u},
 635:Generated_Source\PSoC4/cyfitter_cfg.c **** 			{0xA7u, 0x40u},
 636:Generated_Source\PSoC4/cyfitter_cfg.c **** 			{0xABu, 0x40u},
 637:Generated_Source\PSoC4/cyfitter_cfg.c **** 			{0xACu, 0x40u},
 638:Generated_Source\PSoC4/cyfitter_cfg.c **** 			{0xADu, 0x01u},
 639:Generated_Source\PSoC4/cyfitter_cfg.c **** 			{0xAEu, 0x04u},
 640:Generated_Source\PSoC4/cyfitter_cfg.c **** 			{0xB0u, 0x40u},
 641:Generated_Source\PSoC4/cyfitter_cfg.c **** 			{0xB1u, 0x40u},
 642:Generated_Source\PSoC4/cyfitter_cfg.c **** 			{0xB2u, 0x38u},
 643:Generated_Source\PSoC4/cyfitter_cfg.c **** 			{0xC0u, 0xF1u},
 644:Generated_Source\PSoC4/cyfitter_cfg.c **** 			{0xC2u, 0xEAu},
 645:Generated_Source\PSoC4/cyfitter_cfg.c **** 			{0xC4u, 0xD0u},
 646:Generated_Source\PSoC4/cyfitter_cfg.c **** 			{0xCAu, 0x61u},
 647:Generated_Source\PSoC4/cyfitter_cfg.c **** 			{0xCCu, 0x06u},
 648:Generated_Source\PSoC4/cyfitter_cfg.c **** 			{0xCEu, 0x50u},
 649:Generated_Source\PSoC4/cyfitter_cfg.c **** 			{0xD0u, 0x04u},
 650:Generated_Source\PSoC4/cyfitter_cfg.c **** 			{0xD2u, 0x38u},
 651:Generated_Source\PSoC4/cyfitter_cfg.c **** 			{0xD6u, 0xFBu},
 652:Generated_Source\PSoC4/cyfitter_cfg.c **** 			{0xD8u, 0x10u},
 653:Generated_Source\PSoC4/cyfitter_cfg.c **** 			{0xDEu, 0x81u},
 654:Generated_Source\PSoC4/cyfitter_cfg.c **** 			{0xE2u, 0x80u},
 655:Generated_Source\PSoC4/cyfitter_cfg.c **** 			{0xECu, 0x02u},
 656:Generated_Source\PSoC4/cyfitter_cfg.c **** 			{0x0Bu, 0x03u},
 657:Generated_Source\PSoC4/cyfitter_cfg.c **** 			{0x0Cu, 0x08u},
 658:Generated_Source\PSoC4/cyfitter_cfg.c **** 			{0x11u, 0x01u},
 659:Generated_Source\PSoC4/cyfitter_cfg.c **** 			{0x1Au, 0x03u},
 660:Generated_Source\PSoC4/cyfitter_cfg.c **** 			{0x1Cu, 0x01u},
 661:Generated_Source\PSoC4/cyfitter_cfg.c **** 			{0x2Au, 0x04u},
 662:Generated_Source\PSoC4/cyfitter_cfg.c **** 			{0x2Cu, 0x04u},
 663:Generated_Source\PSoC4/cyfitter_cfg.c **** 			{0x30u, 0x01u},
 664:Generated_Source\PSoC4/cyfitter_cfg.c **** 			{0x31u, 0x02u},
 665:Generated_Source\PSoC4/cyfitter_cfg.c **** 			{0x32u, 0x08u},
 666:Generated_Source\PSoC4/cyfitter_cfg.c **** 			{0x34u, 0x04u},
 667:Generated_Source\PSoC4/cyfitter_cfg.c **** 			{0x36u, 0x02u},
 668:Generated_Source\PSoC4/cyfitter_cfg.c **** 			{0x37u, 0x01u},
 669:Generated_Source\PSoC4/cyfitter_cfg.c **** 			{0x38u, 0x20u},
 670:Generated_Source\PSoC4/cyfitter_cfg.c **** 			{0x3Eu, 0x04u},
 671:Generated_Source\PSoC4/cyfitter_cfg.c **** 			{0x54u, 0x09u},
 672:Generated_Source\PSoC4/cyfitter_cfg.c **** 			{0x58u, 0x04u},
 673:Generated_Source\PSoC4/cyfitter_cfg.c **** 			{0x59u, 0x0Bu},
 674:Generated_Source\PSoC4/cyfitter_cfg.c **** 			{0x5Bu, 0x04u},
 675:Generated_Source\PSoC4/cyfitter_cfg.c **** 			{0x5Cu, 0x92u},
 676:Generated_Source\PSoC4/cyfitter_cfg.c **** 			{0x5Du, 0x10u},
 677:Generated_Source\PSoC4/cyfitter_cfg.c **** 			{0x5Fu, 0x01u},
 678:Generated_Source\PSoC4/cyfitter_cfg.c **** 			{0x00u, 0x40u},
 679:Generated_Source\PSoC4/cyfitter_cfg.c **** 			{0x05u, 0x84u},
 680:Generated_Source\PSoC4/cyfitter_cfg.c **** 			{0x06u, 0x01u},
 681:Generated_Source\PSoC4/cyfitter_cfg.c **** 			{0x07u, 0x04u},
 682:Generated_Source\PSoC4/cyfitter_cfg.c **** 			{0x0Au, 0x06u},
 683:Generated_Source\PSoC4/cyfitter_cfg.c **** 			{0x0Eu, 0x89u},
 684:Generated_Source\PSoC4/cyfitter_cfg.c **** 			{0x0Fu, 0x20u},
 685:Generated_Source\PSoC4/cyfitter_cfg.c **** 			{0x10u, 0x1Au},
 686:Generated_Source\PSoC4/cyfitter_cfg.c **** 			{0x12u, 0x10u},
 687:Generated_Source\PSoC4/cyfitter_cfg.c **** 			{0x16u, 0x06u},
 688:Generated_Source\PSoC4/cyfitter_cfg.c **** 			{0x17u, 0x09u},
 689:Generated_Source\PSoC4/cyfitter_cfg.c **** 			{0x18u, 0x40u},
ARM GAS  C:\Users\luvsd\AppData\Local\Temp\ccl3vs7c.s 			page 22


 690:Generated_Source\PSoC4/cyfitter_cfg.c **** 			{0x1Au, 0x26u},
 691:Generated_Source\PSoC4/cyfitter_cfg.c **** 			{0x1Du, 0x04u},
 692:Generated_Source\PSoC4/cyfitter_cfg.c **** 			{0x1Eu, 0x80u},
 693:Generated_Source\PSoC4/cyfitter_cfg.c **** 			{0x1Fu, 0x10u},
 694:Generated_Source\PSoC4/cyfitter_cfg.c **** 			{0x21u, 0x02u},
 695:Generated_Source\PSoC4/cyfitter_cfg.c **** 			{0x22u, 0x40u},
 696:Generated_Source\PSoC4/cyfitter_cfg.c **** 			{0x26u, 0x20u},
 697:Generated_Source\PSoC4/cyfitter_cfg.c **** 			{0x27u, 0x02u},
 698:Generated_Source\PSoC4/cyfitter_cfg.c **** 			{0x2Fu, 0x04u},
 699:Generated_Source\PSoC4/cyfitter_cfg.c **** 			{0x31u, 0x02u},
 700:Generated_Source\PSoC4/cyfitter_cfg.c **** 			{0x36u, 0x20u},
 701:Generated_Source\PSoC4/cyfitter_cfg.c **** 			{0x37u, 0x02u},
 702:Generated_Source\PSoC4/cyfitter_cfg.c **** 			{0x38u, 0x20u},
 703:Generated_Source\PSoC4/cyfitter_cfg.c **** 			{0x3Du, 0x84u},
 704:Generated_Source\PSoC4/cyfitter_cfg.c **** 			{0x44u, 0x40u},
 705:Generated_Source\PSoC4/cyfitter_cfg.c **** 			{0x45u, 0x28u},
 706:Generated_Source\PSoC4/cyfitter_cfg.c **** 			{0x46u, 0x04u},
 707:Generated_Source\PSoC4/cyfitter_cfg.c **** 			{0x47u, 0x08u},
 708:Generated_Source\PSoC4/cyfitter_cfg.c **** 			{0x4Cu, 0x04u},
 709:Generated_Source\PSoC4/cyfitter_cfg.c **** 			{0x4Du, 0x08u},
 710:Generated_Source\PSoC4/cyfitter_cfg.c **** 			{0x4Fu, 0xA0u},
 711:Generated_Source\PSoC4/cyfitter_cfg.c **** 			{0x54u, 0x01u},
 712:Generated_Source\PSoC4/cyfitter_cfg.c **** 			{0x56u, 0x98u},
 713:Generated_Source\PSoC4/cyfitter_cfg.c **** 			{0x57u, 0x20u},
 714:Generated_Source\PSoC4/cyfitter_cfg.c **** 			{0x58u, 0x10u},
 715:Generated_Source\PSoC4/cyfitter_cfg.c **** 			{0x59u, 0x0Au},
 716:Generated_Source\PSoC4/cyfitter_cfg.c **** 			{0x5Au, 0x40u},
 717:Generated_Source\PSoC4/cyfitter_cfg.c **** 			{0x61u, 0x40u},
 718:Generated_Source\PSoC4/cyfitter_cfg.c **** 			{0x65u, 0x80u},
 719:Generated_Source\PSoC4/cyfitter_cfg.c **** 			{0x66u, 0x20u},
 720:Generated_Source\PSoC4/cyfitter_cfg.c **** 			{0x67u, 0x20u},
 721:Generated_Source\PSoC4/cyfitter_cfg.c **** 			{0x68u, 0x02u},
 722:Generated_Source\PSoC4/cyfitter_cfg.c **** 			{0x6Fu, 0x02u},
 723:Generated_Source\PSoC4/cyfitter_cfg.c **** 			{0x78u, 0x02u},
 724:Generated_Source\PSoC4/cyfitter_cfg.c **** 			{0x84u, 0x40u},
 725:Generated_Source\PSoC4/cyfitter_cfg.c **** 			{0x85u, 0x02u},
 726:Generated_Source\PSoC4/cyfitter_cfg.c **** 			{0x86u, 0x04u},
 727:Generated_Source\PSoC4/cyfitter_cfg.c **** 			{0x87u, 0x02u},
 728:Generated_Source\PSoC4/cyfitter_cfg.c **** 			{0x8Cu, 0x80u},
 729:Generated_Source\PSoC4/cyfitter_cfg.c **** 			{0x8Eu, 0x10u},
 730:Generated_Source\PSoC4/cyfitter_cfg.c **** 			{0x90u, 0x20u},
 731:Generated_Source\PSoC4/cyfitter_cfg.c **** 			{0x91u, 0x04u},
 732:Generated_Source\PSoC4/cyfitter_cfg.c **** 			{0x92u, 0x01u},
 733:Generated_Source\PSoC4/cyfitter_cfg.c **** 			{0x93u, 0x08u},
 734:Generated_Source\PSoC4/cyfitter_cfg.c **** 			{0x96u, 0x80u},
 735:Generated_Source\PSoC4/cyfitter_cfg.c **** 			{0x98u, 0x02u},
 736:Generated_Source\PSoC4/cyfitter_cfg.c **** 			{0x9Au, 0x23u},
 737:Generated_Source\PSoC4/cyfitter_cfg.c **** 			{0x9Bu, 0x05u},
 738:Generated_Source\PSoC4/cyfitter_cfg.c **** 			{0x9Cu, 0x80u},
 739:Generated_Source\PSoC4/cyfitter_cfg.c **** 			{0x9Fu, 0x02u},
 740:Generated_Source\PSoC4/cyfitter_cfg.c **** 			{0xA0u, 0x08u},
 741:Generated_Source\PSoC4/cyfitter_cfg.c **** 			{0xA1u, 0x40u},
 742:Generated_Source\PSoC4/cyfitter_cfg.c **** 			{0xA2u, 0x04u},
 743:Generated_Source\PSoC4/cyfitter_cfg.c **** 			{0xAEu, 0x48u},
 744:Generated_Source\PSoC4/cyfitter_cfg.c **** 			{0xB0u, 0x05u},
 745:Generated_Source\PSoC4/cyfitter_cfg.c **** 			{0xB4u, 0x08u},
 746:Generated_Source\PSoC4/cyfitter_cfg.c **** 			{0xC0u, 0xE1u},
ARM GAS  C:\Users\luvsd\AppData\Local\Temp\ccl3vs7c.s 			page 23


 747:Generated_Source\PSoC4/cyfitter_cfg.c **** 			{0xC2u, 0xF3u},
 748:Generated_Source\PSoC4/cyfitter_cfg.c **** 			{0xC4u, 0xF3u},
 749:Generated_Source\PSoC4/cyfitter_cfg.c **** 			{0xCAu, 0x20u},
 750:Generated_Source\PSoC4/cyfitter_cfg.c **** 			{0xCCu, 0xA1u},
 751:Generated_Source\PSoC4/cyfitter_cfg.c **** 			{0xCEu, 0x54u},
 752:Generated_Source\PSoC4/cyfitter_cfg.c **** 			{0xD0u, 0xE0u},
 753:Generated_Source\PSoC4/cyfitter_cfg.c **** 			{0xD2u, 0x30u},
 754:Generated_Source\PSoC4/cyfitter_cfg.c **** 			{0xD6u, 0x0Fu},
 755:Generated_Source\PSoC4/cyfitter_cfg.c **** 			{0xD8u, 0x78u},
 756:Generated_Source\PSoC4/cyfitter_cfg.c **** 			{0xDEu, 0x01u},
 757:Generated_Source\PSoC4/cyfitter_cfg.c **** 			{0xE0u, 0x10u},
 758:Generated_Source\PSoC4/cyfitter_cfg.c **** 			{0x02u, 0x80u},
 759:Generated_Source\PSoC4/cyfitter_cfg.c **** 			{0x04u, 0x07u},
 760:Generated_Source\PSoC4/cyfitter_cfg.c **** 			{0x05u, 0x98u},
 761:Generated_Source\PSoC4/cyfitter_cfg.c **** 			{0x06u, 0x38u},
 762:Generated_Source\PSoC4/cyfitter_cfg.c **** 			{0x07u, 0x02u},
 763:Generated_Source\PSoC4/cyfitter_cfg.c **** 			{0x08u, 0x60u},
 764:Generated_Source\PSoC4/cyfitter_cfg.c **** 			{0x09u, 0x21u},
 765:Generated_Source\PSoC4/cyfitter_cfg.c **** 			{0x0Bu, 0xD8u},
 766:Generated_Source\PSoC4/cyfitter_cfg.c **** 			{0x0Cu, 0x04u},
 767:Generated_Source\PSoC4/cyfitter_cfg.c **** 			{0x0Du, 0x38u},
 768:Generated_Source\PSoC4/cyfitter_cfg.c **** 			{0x0Fu, 0xC0u},
 769:Generated_Source\PSoC4/cyfitter_cfg.c **** 			{0x10u, 0x04u},
 770:Generated_Source\PSoC4/cyfitter_cfg.c **** 			{0x11u, 0x98u},
 771:Generated_Source\PSoC4/cyfitter_cfg.c **** 			{0x12u, 0x80u},
 772:Generated_Source\PSoC4/cyfitter_cfg.c **** 			{0x13u, 0x02u},
 773:Generated_Source\PSoC4/cyfitter_cfg.c **** 			{0x14u, 0x80u},
 774:Generated_Source\PSoC4/cyfitter_cfg.c **** 			{0x15u, 0x13u},
 775:Generated_Source\PSoC4/cyfitter_cfg.c **** 			{0x16u, 0x04u},
 776:Generated_Source\PSoC4/cyfitter_cfg.c **** 			{0x17u, 0x64u},
 777:Generated_Source\PSoC4/cyfitter_cfg.c **** 			{0x18u, 0x56u},
 778:Generated_Source\PSoC4/cyfitter_cfg.c **** 			{0x19u, 0xFCu},
 779:Generated_Source\PSoC4/cyfitter_cfg.c **** 			{0x1Au, 0x09u},
 780:Generated_Source\PSoC4/cyfitter_cfg.c **** 			{0x1Bu, 0x03u},
 781:Generated_Source\PSoC4/cyfitter_cfg.c **** 			{0x1Cu, 0x01u},
 782:Generated_Source\PSoC4/cyfitter_cfg.c **** 			{0x20u, 0x84u},
 783:Generated_Source\PSoC4/cyfitter_cfg.c **** 			{0x21u, 0x9Au},
 784:Generated_Source\PSoC4/cyfitter_cfg.c **** 			{0x24u, 0x0Au},
 785:Generated_Source\PSoC4/cyfitter_cfg.c **** 			{0x25u, 0x02u},
 786:Generated_Source\PSoC4/cyfitter_cfg.c **** 			{0x26u, 0x10u},
 787:Generated_Source\PSoC4/cyfitter_cfg.c **** 			{0x28u, 0x84u},
 788:Generated_Source\PSoC4/cyfitter_cfg.c **** 			{0x29u, 0x02u},
 789:Generated_Source\PSoC4/cyfitter_cfg.c **** 			{0x2Bu, 0x98u},
 790:Generated_Source\PSoC4/cyfitter_cfg.c **** 			{0x2Cu, 0x84u},
 791:Generated_Source\PSoC4/cyfitter_cfg.c **** 			{0x2Du, 0x9Au},
 792:Generated_Source\PSoC4/cyfitter_cfg.c **** 			{0x33u, 0x13u},
 793:Generated_Source\PSoC4/cyfitter_cfg.c **** 			{0x34u, 0x80u},
 794:Generated_Source\PSoC4/cyfitter_cfg.c **** 			{0x35u, 0x0Fu},
 795:Generated_Source\PSoC4/cyfitter_cfg.c **** 			{0x36u, 0x7Fu},
 796:Generated_Source\PSoC4/cyfitter_cfg.c **** 			{0x37u, 0xE0u},
 797:Generated_Source\PSoC4/cyfitter_cfg.c **** 			{0x38u, 0x80u},
 798:Generated_Source\PSoC4/cyfitter_cfg.c **** 			{0x3Bu, 0xA0u},
 799:Generated_Source\PSoC4/cyfitter_cfg.c **** 			{0x3Eu, 0x10u},
 800:Generated_Source\PSoC4/cyfitter_cfg.c **** 			{0x54u, 0x40u},
 801:Generated_Source\PSoC4/cyfitter_cfg.c **** 			{0x58u, 0x04u},
 802:Generated_Source\PSoC4/cyfitter_cfg.c **** 			{0x59u, 0x04u},
 803:Generated_Source\PSoC4/cyfitter_cfg.c **** 			{0x5Bu, 0x04u},
ARM GAS  C:\Users\luvsd\AppData\Local\Temp\ccl3vs7c.s 			page 24


 804:Generated_Source\PSoC4/cyfitter_cfg.c **** 			{0x5Cu, 0x11u},
 805:Generated_Source\PSoC4/cyfitter_cfg.c **** 			{0x5Du, 0x10u},
 806:Generated_Source\PSoC4/cyfitter_cfg.c **** 			{0x5Fu, 0x01u},
 807:Generated_Source\PSoC4/cyfitter_cfg.c **** 			{0x84u, 0x02u},
 808:Generated_Source\PSoC4/cyfitter_cfg.c **** 			{0x85u, 0x1Du},
 809:Generated_Source\PSoC4/cyfitter_cfg.c **** 			{0x86u, 0x0Du},
 810:Generated_Source\PSoC4/cyfitter_cfg.c **** 			{0x89u, 0x80u},
 811:Generated_Source\PSoC4/cyfitter_cfg.c **** 			{0x8Du, 0x1Du},
 812:Generated_Source\PSoC4/cyfitter_cfg.c **** 			{0x91u, 0x0Du},
 813:Generated_Source\PSoC4/cyfitter_cfg.c **** 			{0x93u, 0x10u},
 814:Generated_Source\PSoC4/cyfitter_cfg.c **** 			{0x94u, 0x13u},
 815:Generated_Source\PSoC4/cyfitter_cfg.c **** 			{0x95u, 0x1Du},
 816:Generated_Source\PSoC4/cyfitter_cfg.c **** 			{0x96u, 0x2Cu},
 817:Generated_Source\PSoC4/cyfitter_cfg.c **** 			{0x98u, 0x19u},
 818:Generated_Source\PSoC4/cyfitter_cfg.c **** 			{0x99u, 0x21u},
 819:Generated_Source\PSoC4/cyfitter_cfg.c **** 			{0x9Au, 0x26u},
 820:Generated_Source\PSoC4/cyfitter_cfg.c **** 			{0x9Bu, 0x42u},
 821:Generated_Source\PSoC4/cyfitter_cfg.c **** 			{0x9Du, 0x02u},
 822:Generated_Source\PSoC4/cyfitter_cfg.c **** 			{0x9Fu, 0x0Du},
 823:Generated_Source\PSoC4/cyfitter_cfg.c **** 			{0xA1u, 0x1Du},
 824:Generated_Source\PSoC4/cyfitter_cfg.c **** 			{0xA5u, 0x82u},
 825:Generated_Source\PSoC4/cyfitter_cfg.c **** 			{0xA7u, 0x08u},
 826:Generated_Source\PSoC4/cyfitter_cfg.c **** 			{0xA8u, 0x35u},
 827:Generated_Source\PSoC4/cyfitter_cfg.c **** 			{0xA9u, 0xC2u},
 828:Generated_Source\PSoC4/cyfitter_cfg.c **** 			{0xAAu, 0x0Au},
 829:Generated_Source\PSoC4/cyfitter_cfg.c **** 			{0xABu, 0x24u},
 830:Generated_Source\PSoC4/cyfitter_cfg.c **** 			{0xB0u, 0x20u},
 831:Generated_Source\PSoC4/cyfitter_cfg.c **** 			{0xB3u, 0x10u},
 832:Generated_Source\PSoC4/cyfitter_cfg.c **** 			{0xB4u, 0x0Fu},
 833:Generated_Source\PSoC4/cyfitter_cfg.c **** 			{0xB5u, 0xE0u},
 834:Generated_Source\PSoC4/cyfitter_cfg.c **** 			{0xB6u, 0x10u},
 835:Generated_Source\PSoC4/cyfitter_cfg.c **** 			{0xB7u, 0x0Fu},
 836:Generated_Source\PSoC4/cyfitter_cfg.c **** 			{0xBAu, 0x20u},
 837:Generated_Source\PSoC4/cyfitter_cfg.c **** 			{0xBBu, 0xA0u},
 838:Generated_Source\PSoC4/cyfitter_cfg.c **** 			{0xBEu, 0x41u},
 839:Generated_Source\PSoC4/cyfitter_cfg.c **** 			{0xBFu, 0x04u},
 840:Generated_Source\PSoC4/cyfitter_cfg.c **** 			{0xD6u, 0x02u},
 841:Generated_Source\PSoC4/cyfitter_cfg.c **** 			{0xD7u, 0x24u},
 842:Generated_Source\PSoC4/cyfitter_cfg.c **** 			{0xD8u, 0x04u},
 843:Generated_Source\PSoC4/cyfitter_cfg.c **** 			{0xD9u, 0x04u},
 844:Generated_Source\PSoC4/cyfitter_cfg.c **** 			{0xDBu, 0x04u},
 845:Generated_Source\PSoC4/cyfitter_cfg.c **** 			{0xDCu, 0x11u},
 846:Generated_Source\PSoC4/cyfitter_cfg.c **** 			{0xDDu, 0x10u},
 847:Generated_Source\PSoC4/cyfitter_cfg.c **** 			{0xDFu, 0x01u},
 848:Generated_Source\PSoC4/cyfitter_cfg.c **** 			{0x00u, 0x04u},
 849:Generated_Source\PSoC4/cyfitter_cfg.c **** 			{0x06u, 0x88u},
 850:Generated_Source\PSoC4/cyfitter_cfg.c **** 			{0x07u, 0x11u},
 851:Generated_Source\PSoC4/cyfitter_cfg.c **** 			{0x08u, 0x10u},
 852:Generated_Source\PSoC4/cyfitter_cfg.c **** 			{0x09u, 0x28u},
 853:Generated_Source\PSoC4/cyfitter_cfg.c **** 			{0x0Cu, 0x0Au},
 854:Generated_Source\PSoC4/cyfitter_cfg.c **** 			{0x0Du, 0x20u},
 855:Generated_Source\PSoC4/cyfitter_cfg.c **** 			{0x0Eu, 0x02u},
 856:Generated_Source\PSoC4/cyfitter_cfg.c **** 			{0x10u, 0x04u},
 857:Generated_Source\PSoC4/cyfitter_cfg.c **** 			{0x11u, 0x20u},
 858:Generated_Source\PSoC4/cyfitter_cfg.c **** 			{0x15u, 0x02u},
 859:Generated_Source\PSoC4/cyfitter_cfg.c **** 			{0x16u, 0x02u},
 860:Generated_Source\PSoC4/cyfitter_cfg.c **** 			{0x17u, 0x28u},
ARM GAS  C:\Users\luvsd\AppData\Local\Temp\ccl3vs7c.s 			page 25


 861:Generated_Source\PSoC4/cyfitter_cfg.c **** 			{0x18u, 0x04u},
 862:Generated_Source\PSoC4/cyfitter_cfg.c **** 			{0x19u, 0x40u},
 863:Generated_Source\PSoC4/cyfitter_cfg.c **** 			{0x1Au, 0x40u},
 864:Generated_Source\PSoC4/cyfitter_cfg.c **** 			{0x1Eu, 0x02u},
 865:Generated_Source\PSoC4/cyfitter_cfg.c **** 			{0x1Fu, 0x10u},
 866:Generated_Source\PSoC4/cyfitter_cfg.c **** 			{0x21u, 0x20u},
 867:Generated_Source\PSoC4/cyfitter_cfg.c **** 			{0x22u, 0x84u},
 868:Generated_Source\PSoC4/cyfitter_cfg.c **** 			{0x24u, 0x08u},
 869:Generated_Source\PSoC4/cyfitter_cfg.c **** 			{0x25u, 0x58u},
 870:Generated_Source\PSoC4/cyfitter_cfg.c **** 			{0x26u, 0x08u},
 871:Generated_Source\PSoC4/cyfitter_cfg.c **** 			{0x27u, 0x19u},
 872:Generated_Source\PSoC4/cyfitter_cfg.c **** 			{0x28u, 0x14u},
 873:Generated_Source\PSoC4/cyfitter_cfg.c **** 			{0x2Au, 0x02u},
 874:Generated_Source\PSoC4/cyfitter_cfg.c **** 			{0x2Cu, 0x08u},
 875:Generated_Source\PSoC4/cyfitter_cfg.c **** 			{0x2Du, 0x40u},
 876:Generated_Source\PSoC4/cyfitter_cfg.c **** 			{0x2Eu, 0x02u},
 877:Generated_Source\PSoC4/cyfitter_cfg.c **** 			{0x2Fu, 0x20u},
 878:Generated_Source\PSoC4/cyfitter_cfg.c **** 			{0x30u, 0x0Au},
 879:Generated_Source\PSoC4/cyfitter_cfg.c **** 			{0x32u, 0x80u},
 880:Generated_Source\PSoC4/cyfitter_cfg.c **** 			{0x33u, 0x10u},
 881:Generated_Source\PSoC4/cyfitter_cfg.c **** 			{0x34u, 0x10u},
 882:Generated_Source\PSoC4/cyfitter_cfg.c **** 			{0x36u, 0x08u},
 883:Generated_Source\PSoC4/cyfitter_cfg.c **** 			{0x37u, 0x02u},
 884:Generated_Source\PSoC4/cyfitter_cfg.c **** 			{0x39u, 0x44u},
 885:Generated_Source\PSoC4/cyfitter_cfg.c **** 			{0x3Au, 0x10u},
 886:Generated_Source\PSoC4/cyfitter_cfg.c **** 			{0x3Du, 0xA0u},
 887:Generated_Source\PSoC4/cyfitter_cfg.c **** 			{0x3Eu, 0x04u},
 888:Generated_Source\PSoC4/cyfitter_cfg.c **** 			{0x4Du, 0x40u},
 889:Generated_Source\PSoC4/cyfitter_cfg.c **** 			{0x4Eu, 0x01u},
 890:Generated_Source\PSoC4/cyfitter_cfg.c **** 			{0x60u, 0x04u},
 891:Generated_Source\PSoC4/cyfitter_cfg.c **** 			{0x66u, 0x80u},
 892:Generated_Source\PSoC4/cyfitter_cfg.c **** 			{0x67u, 0x28u},
 893:Generated_Source\PSoC4/cyfitter_cfg.c **** 			{0x68u, 0x0Au},
 894:Generated_Source\PSoC4/cyfitter_cfg.c **** 			{0x69u, 0x06u},
 895:Generated_Source\PSoC4/cyfitter_cfg.c **** 			{0x6Au, 0x06u},
 896:Generated_Source\PSoC4/cyfitter_cfg.c **** 			{0x6Bu, 0x22u},
 897:Generated_Source\PSoC4/cyfitter_cfg.c **** 			{0x6Fu, 0x02u},
 898:Generated_Source\PSoC4/cyfitter_cfg.c **** 			{0x72u, 0x02u},
 899:Generated_Source\PSoC4/cyfitter_cfg.c **** 			{0x84u, 0x01u},
 900:Generated_Source\PSoC4/cyfitter_cfg.c **** 			{0x87u, 0x04u},
 901:Generated_Source\PSoC4/cyfitter_cfg.c **** 			{0x8Eu, 0x01u},
 902:Generated_Source\PSoC4/cyfitter_cfg.c **** 			{0x8Fu, 0x02u},
 903:Generated_Source\PSoC4/cyfitter_cfg.c **** 			{0x94u, 0x08u},
 904:Generated_Source\PSoC4/cyfitter_cfg.c **** 			{0x96u, 0x48u},
 905:Generated_Source\PSoC4/cyfitter_cfg.c **** 			{0x9Au, 0x98u},
 906:Generated_Source\PSoC4/cyfitter_cfg.c **** 			{0x9Du, 0x40u},
 907:Generated_Source\PSoC4/cyfitter_cfg.c **** 			{0xA0u, 0x01u},
 908:Generated_Source\PSoC4/cyfitter_cfg.c **** 			{0xA3u, 0x20u},
 909:Generated_Source\PSoC4/cyfitter_cfg.c **** 			{0xA5u, 0x28u},
 910:Generated_Source\PSoC4/cyfitter_cfg.c **** 			{0xABu, 0x40u},
 911:Generated_Source\PSoC4/cyfitter_cfg.c **** 			{0xAEu, 0x40u},
 912:Generated_Source\PSoC4/cyfitter_cfg.c **** 			{0xB4u, 0x40u},
 913:Generated_Source\PSoC4/cyfitter_cfg.c **** 			{0xB5u, 0x04u},
 914:Generated_Source\PSoC4/cyfitter_cfg.c **** 			{0xC0u, 0xF4u},
 915:Generated_Source\PSoC4/cyfitter_cfg.c **** 			{0xC2u, 0xF6u},
 916:Generated_Source\PSoC4/cyfitter_cfg.c **** 			{0xC4u, 0xF2u},
 917:Generated_Source\PSoC4/cyfitter_cfg.c **** 			{0xCAu, 0xF7u},
ARM GAS  C:\Users\luvsd\AppData\Local\Temp\ccl3vs7c.s 			page 26


 918:Generated_Source\PSoC4/cyfitter_cfg.c **** 			{0xCCu, 0xEFu},
 919:Generated_Source\PSoC4/cyfitter_cfg.c **** 			{0xCEu, 0x7Eu},
 920:Generated_Source\PSoC4/cyfitter_cfg.c **** 			{0xD8u, 0x74u},
 921:Generated_Source\PSoC4/cyfitter_cfg.c **** 			{0xE2u, 0x90u},
 922:Generated_Source\PSoC4/cyfitter_cfg.c **** 			{0xE6u, 0x40u},
 923:Generated_Source\PSoC4/cyfitter_cfg.c **** 			{0xEAu, 0x50u},
 924:Generated_Source\PSoC4/cyfitter_cfg.c **** 			{0x61u, 0x01u},
 925:Generated_Source\PSoC4/cyfitter_cfg.c **** 			{0x68u, 0x01u},
 926:Generated_Source\PSoC4/cyfitter_cfg.c **** 			{0x6Eu, 0x20u},
 927:Generated_Source\PSoC4/cyfitter_cfg.c **** 			{0x72u, 0x02u},
 928:Generated_Source\PSoC4/cyfitter_cfg.c **** 			{0x8Bu, 0x40u},
 929:Generated_Source\PSoC4/cyfitter_cfg.c **** 			{0xD8u, 0x40u},
 930:Generated_Source\PSoC4/cyfitter_cfg.c **** 			{0xDAu, 0xC0u},
 931:Generated_Source\PSoC4/cyfitter_cfg.c **** 			{0xDCu, 0x20u},
 932:Generated_Source\PSoC4/cyfitter_cfg.c **** 			{0x08u, 0x08u},
 933:Generated_Source\PSoC4/cyfitter_cfg.c **** 			{0x52u, 0x20u},
 934:Generated_Source\PSoC4/cyfitter_cfg.c **** 			{0x56u, 0x20u},
 935:Generated_Source\PSoC4/cyfitter_cfg.c **** 			{0x5Fu, 0x40u},
 936:Generated_Source\PSoC4/cyfitter_cfg.c **** 			{0x80u, 0x08u},
 937:Generated_Source\PSoC4/cyfitter_cfg.c **** 			{0x82u, 0x20u},
 938:Generated_Source\PSoC4/cyfitter_cfg.c **** 			{0x8Au, 0x10u},
 939:Generated_Source\PSoC4/cyfitter_cfg.c **** 			{0x93u, 0x40u},
 940:Generated_Source\PSoC4/cyfitter_cfg.c **** 			{0x9Eu, 0x02u},
 941:Generated_Source\PSoC4/cyfitter_cfg.c **** 			{0xA4u, 0x01u},
 942:Generated_Source\PSoC4/cyfitter_cfg.c **** 			{0xA6u, 0x10u},
 943:Generated_Source\PSoC4/cyfitter_cfg.c **** 			{0xA9u, 0x01u},
 944:Generated_Source\PSoC4/cyfitter_cfg.c **** 			{0xC2u, 0x10u},
 945:Generated_Source\PSoC4/cyfitter_cfg.c **** 			{0xD4u, 0x60u},
 946:Generated_Source\PSoC4/cyfitter_cfg.c **** 			{0xD6u, 0x20u},
 947:Generated_Source\PSoC4/cyfitter_cfg.c **** 			{0xE4u, 0x20u},
 948:Generated_Source\PSoC4/cyfitter_cfg.c **** 			{0xE6u, 0x80u},
 949:Generated_Source\PSoC4/cyfitter_cfg.c **** 			{0xEAu, 0x20u},
 950:Generated_Source\PSoC4/cyfitter_cfg.c **** 			{0x07u, 0x10u},
 951:Generated_Source\PSoC4/cyfitter_cfg.c **** 			{0x12u, 0x20u},
 952:Generated_Source\PSoC4/cyfitter_cfg.c **** 			{0x50u, 0x04u},
 953:Generated_Source\PSoC4/cyfitter_cfg.c **** 			{0x58u, 0x10u},
 954:Generated_Source\PSoC4/cyfitter_cfg.c **** 			{0x5Bu, 0x02u},
 955:Generated_Source\PSoC4/cyfitter_cfg.c **** 			{0x67u, 0x80u},
 956:Generated_Source\PSoC4/cyfitter_cfg.c **** 			{0x87u, 0x40u},
 957:Generated_Source\PSoC4/cyfitter_cfg.c **** 			{0x8Eu, 0x20u},
 958:Generated_Source\PSoC4/cyfitter_cfg.c **** 			{0x9Eu, 0x22u},
 959:Generated_Source\PSoC4/cyfitter_cfg.c **** 			{0xA4u, 0x01u},
 960:Generated_Source\PSoC4/cyfitter_cfg.c **** 			{0xC0u, 0x20u},
 961:Generated_Source\PSoC4/cyfitter_cfg.c **** 			{0xC4u, 0x10u},
 962:Generated_Source\PSoC4/cyfitter_cfg.c **** 			{0xD4u, 0xA0u},
 963:Generated_Source\PSoC4/cyfitter_cfg.c **** 			{0xD6u, 0x40u},
 964:Generated_Source\PSoC4/cyfitter_cfg.c **** 			{0xD8u, 0x80u},
 965:Generated_Source\PSoC4/cyfitter_cfg.c **** 			{0xE2u, 0x10u},
 966:Generated_Source\PSoC4/cyfitter_cfg.c **** 			{0x88u, 0x01u},
 967:Generated_Source\PSoC4/cyfitter_cfg.c **** 			{0x8Cu, 0x04u},
 968:Generated_Source\PSoC4/cyfitter_cfg.c **** 			{0x8Eu, 0x20u},
 969:Generated_Source\PSoC4/cyfitter_cfg.c **** 			{0x94u, 0x08u},
 970:Generated_Source\PSoC4/cyfitter_cfg.c **** 			{0x9Eu, 0x20u},
 971:Generated_Source\PSoC4/cyfitter_cfg.c **** 			{0xA4u, 0x01u},
 972:Generated_Source\PSoC4/cyfitter_cfg.c **** 			{0xABu, 0x10u},
 973:Generated_Source\PSoC4/cyfitter_cfg.c **** 			{0xACu, 0x10u},
 974:Generated_Source\PSoC4/cyfitter_cfg.c **** 			{0xB6u, 0x02u},
ARM GAS  C:\Users\luvsd\AppData\Local\Temp\ccl3vs7c.s 			page 27


 975:Generated_Source\PSoC4/cyfitter_cfg.c **** 			{0xB7u, 0x02u},
 976:Generated_Source\PSoC4/cyfitter_cfg.c **** 			{0xE8u, 0x20u},
 977:Generated_Source\PSoC4/cyfitter_cfg.c **** 			{0xEEu, 0x40u},
 978:Generated_Source\PSoC4/cyfitter_cfg.c **** 			{0x26u, 0x10u},
 979:Generated_Source\PSoC4/cyfitter_cfg.c **** 			{0x53u, 0x10u},
 980:Generated_Source\PSoC4/cyfitter_cfg.c **** 			{0x56u, 0x20u},
 981:Generated_Source\PSoC4/cyfitter_cfg.c **** 			{0x58u, 0x40u},
 982:Generated_Source\PSoC4/cyfitter_cfg.c **** 			{0x5Cu, 0x02u},
 983:Generated_Source\PSoC4/cyfitter_cfg.c **** 			{0x5Fu, 0x40u},
 984:Generated_Source\PSoC4/cyfitter_cfg.c **** 			{0x60u, 0x08u},
 985:Generated_Source\PSoC4/cyfitter_cfg.c **** 			{0xC8u, 0x04u},
 986:Generated_Source\PSoC4/cyfitter_cfg.c **** 			{0xD4u, 0x07u},
 987:Generated_Source\PSoC4/cyfitter_cfg.c **** 			{0xD6u, 0x05u},
 988:Generated_Source\PSoC4/cyfitter_cfg.c **** 			{0xD8u, 0x02u},
 989:Generated_Source\PSoC4/cyfitter_cfg.c **** 			{0x07u, 0x04u},
 990:Generated_Source\PSoC4/cyfitter_cfg.c **** 			{0x9Cu, 0x4Au},
 991:Generated_Source\PSoC4/cyfitter_cfg.c **** 			{0xAFu, 0x40u},
 992:Generated_Source\PSoC4/cyfitter_cfg.c **** 			{0xB2u, 0x30u},
 993:Generated_Source\PSoC4/cyfitter_cfg.c **** 			{0xB3u, 0x10u},
 994:Generated_Source\PSoC4/cyfitter_cfg.c **** 			{0xC0u, 0x01u},
 995:Generated_Source\PSoC4/cyfitter_cfg.c **** 			{0xE8u, 0x04u},
 996:Generated_Source\PSoC4/cyfitter_cfg.c **** 			{0xEAu, 0x01u},
 997:Generated_Source\PSoC4/cyfitter_cfg.c **** 			{0xECu, 0x01u},
 998:Generated_Source\PSoC4/cyfitter_cfg.c **** 			{0x8Cu, 0x08u},
 999:Generated_Source\PSoC4/cyfitter_cfg.c **** 			{0x9Cu, 0x08u},
1000:Generated_Source\PSoC4/cyfitter_cfg.c **** 			{0xB0u, 0x42u},
1001:Generated_Source\PSoC4/cyfitter_cfg.c **** 			{0xB7u, 0x04u},
1002:Generated_Source\PSoC4/cyfitter_cfg.c **** 			{0xE0u, 0x02u},
1003:Generated_Source\PSoC4/cyfitter_cfg.c **** 			{0xE8u, 0x05u},
1004:Generated_Source\PSoC4/cyfitter_cfg.c **** 			{0xEEu, 0x08u},
1005:Generated_Source\PSoC4/cyfitter_cfg.c **** 			{0x2Du, 0x08u},
1006:Generated_Source\PSoC4/cyfitter_cfg.c **** 			{0x89u, 0x08u},
1007:Generated_Source\PSoC4/cyfitter_cfg.c **** 			{0xCAu, 0x01u},
1008:Generated_Source\PSoC4/cyfitter_cfg.c **** 			{0xE2u, 0x01u},
1009:Generated_Source\PSoC4/cyfitter_cfg.c **** 			{0x10u, 0x08u},
1010:Generated_Source\PSoC4/cyfitter_cfg.c **** 			{0x11u, 0x01u},
1011:Generated_Source\PSoC4/cyfitter_cfg.c **** 			{0x12u, 0x0Eu},
1012:Generated_Source\PSoC4/cyfitter_cfg.c **** 			{0x13u, 0x01u},
1013:Generated_Source\PSoC4/cyfitter_cfg.c **** 		};
1014:Generated_Source\PSoC4/cyfitter_cfg.c **** 
1015:Generated_Source\PSoC4/cyfitter_cfg.c **** 
1016:Generated_Source\PSoC4/cyfitter_cfg.c **** 
1017:Generated_Source\PSoC4/cyfitter_cfg.c **** 		CYPACKED typedef struct {
1018:Generated_Source\PSoC4/cyfitter_cfg.c **** 			void CYFAR *address;
1019:Generated_Source\PSoC4/cyfitter_cfg.c **** 			uint16 size;
1020:Generated_Source\PSoC4/cyfitter_cfg.c **** 		} CYPACKED_ATTR cfg_memset_t;
1021:Generated_Source\PSoC4/cyfitter_cfg.c **** 
1022:Generated_Source\PSoC4/cyfitter_cfg.c **** 
1023:Generated_Source\PSoC4/cyfitter_cfg.c **** 		CYPACKED typedef struct {
1024:Generated_Source\PSoC4/cyfitter_cfg.c **** 			void CYFAR *dest;
1025:Generated_Source\PSoC4/cyfitter_cfg.c **** 			const void CYCODE *src;
1026:Generated_Source\PSoC4/cyfitter_cfg.c **** 			uint16 size;
1027:Generated_Source\PSoC4/cyfitter_cfg.c **** 		} CYPACKED_ATTR cfg_memcpy_t;
1028:Generated_Source\PSoC4/cyfitter_cfg.c **** 
1029:Generated_Source\PSoC4/cyfitter_cfg.c **** 		static const cfg_memset_t CYCODE cfg_memset_list[] = {
1030:Generated_Source\PSoC4/cyfitter_cfg.c **** 			/* address, size */
1031:Generated_Source\PSoC4/cyfitter_cfg.c **** 			{(void CYFAR *)(CYDEV_UDB_P0_U0_BASE), 128u},
ARM GAS  C:\Users\luvsd\AppData\Local\Temp\ccl3vs7c.s 			page 28


1032:Generated_Source\PSoC4/cyfitter_cfg.c **** 			{(void CYFAR *)(CYDEV_UDB_P0_ROUTE_BASE), 896u},
1033:Generated_Source\PSoC4/cyfitter_cfg.c **** 			{(void CYFAR *)(CYDEV_UDB_P2_ROUTE_BASE), 768u},
1034:Generated_Source\PSoC4/cyfitter_cfg.c **** 			{(void CYFAR *)(CYDEV_UDB_DSI0_BASE), 2048u},
1035:Generated_Source\PSoC4/cyfitter_cfg.c **** 		};
1036:Generated_Source\PSoC4/cyfitter_cfg.c **** 
1037:Generated_Source\PSoC4/cyfitter_cfg.c **** 		/* UDB_0_3_1_CONFIG Address: CYDEV_UDB_P0_U1_BASE Size (bytes): 128 */
1038:Generated_Source\PSoC4/cyfitter_cfg.c **** 		static const uint8 CYCODE BS_UDB_0_3_1_CONFIG_VAL[] = {
1039:Generated_Source\PSoC4/cyfitter_cfg.c **** 			0x84u, 0x0Du, 0x00u, 0x00u, 0x56u, 0x02u, 0x09u, 0x0Du, 0x80u, 0x0Du, 0x04u, 0x00u, 0x04u, 0x92u
1040:Generated_Source\PSoC4/cyfitter_cfg.c **** 			0x01u, 0x0Du, 0x00u, 0x00u, 0x0Au, 0x0Du, 0x10u, 0x00u, 0x84u, 0x20u, 0x00u, 0xD0u, 0x60u, 0x00u
1041:Generated_Source\PSoC4/cyfitter_cfg.c **** 			0x04u, 0x00u, 0x80u, 0x00u, 0x00u, 0x52u, 0x00u, 0xA4u, 0x07u, 0x31u, 0x38u, 0xC2u, 0x84u, 0x0Du
1042:Generated_Source\PSoC4/cyfitter_cfg.c **** 			0x7Fu, 0x00u, 0x80u, 0x0Fu, 0x00u, 0xF0u, 0x00u, 0x00u, 0x02u, 0x00u, 0x00u, 0x28u, 0x00u, 0x00u
1043:Generated_Source\PSoC4/cyfitter_cfg.c **** 			0x61u, 0x02u, 0x30u, 0x00u, 0x05u, 0xB0u, 0xFEu, 0xDCu, 0x3Eu, 0xFFu, 0xFFu, 0xFFu, 0x22u, 0x00u
1044:Generated_Source\PSoC4/cyfitter_cfg.c **** 			0x04u, 0x00u, 0x00u, 0x00u, 0x00u, 0x00u, 0x02u, 0x24u, 0x04u, 0x04u, 0x04u, 0x04u, 0x33u, 0x33u
1045:Generated_Source\PSoC4/cyfitter_cfg.c **** 			0x00u, 0x00u, 0xC0u, 0x00u, 0x40u, 0x01u, 0x10u, 0x11u, 0xC0u, 0x01u, 0x00u, 0x11u, 0x40u, 0x01u
1046:Generated_Source\PSoC4/cyfitter_cfg.c **** 			0x00u, 0x00u, 0x00u, 0x00u, 0x00u, 0x00u, 0x00u, 0x00u, 0x00u, 0x00u, 0x00u, 0x00u, 0x00u, 0x00u
1047:Generated_Source\PSoC4/cyfitter_cfg.c **** 
1048:Generated_Source\PSoC4/cyfitter_cfg.c **** 		/* UDB_0_1_1_CONFIG Address: CYDEV_UDB_P2_U1_BASE Size (bytes): 128 */
1049:Generated_Source\PSoC4/cyfitter_cfg.c **** 		static const uint8 CYCODE BS_UDB_0_1_1_CONFIG_VAL[] = {
1050:Generated_Source\PSoC4/cyfitter_cfg.c **** 			0x00u, 0x00u, 0x00u, 0x00u, 0x38u, 0x05u, 0x00u, 0x3Au, 0x01u, 0x00u, 0x00u, 0x00u, 0x00u, 0x04u
1051:Generated_Source\PSoC4/cyfitter_cfg.c **** 			0x00u, 0x00u, 0x04u, 0x10u, 0x50u, 0x00u, 0x2Eu, 0x00u, 0x01u, 0x0Eu, 0x00u, 0x00u, 0x01u, 0x00u
1052:Generated_Source\PSoC4/cyfitter_cfg.c **** 			0x00u, 0x00u, 0x01u, 0x00u, 0x4Au, 0x00u, 0x10u, 0x00u, 0x10u, 0x23u, 0x66u, 0x04u, 0x01u, 0x00u
1053:Generated_Source\PSoC4/cyfitter_cfg.c **** 			0x06u, 0x00u, 0x78u, 0x00u, 0x01u, 0x0Fu, 0x00u, 0x30u, 0x08u, 0x20u, 0x00u, 0x00u, 0x00u, 0x00u
1054:Generated_Source\PSoC4/cyfitter_cfg.c **** 			0x62u, 0x03u, 0x40u, 0x00u, 0x05u, 0x0Eu, 0xCDu, 0xFBu, 0x3Du, 0xFFu, 0xFFu, 0xFFu, 0x22u, 0x00u
1055:Generated_Source\PSoC4/cyfitter_cfg.c **** 			0x04u, 0x00u, 0x00u, 0x00u, 0x40u, 0x00u, 0x00u, 0x00u, 0x04u, 0x04u, 0x04u, 0x04u, 0x31u, 0x31u
1056:Generated_Source\PSoC4/cyfitter_cfg.c **** 			0x00u, 0x00u, 0xC0u, 0x00u, 0x40u, 0x01u, 0x10u, 0x11u, 0xC0u, 0x01u, 0x00u, 0x11u, 0x40u, 0x01u
1057:Generated_Source\PSoC4/cyfitter_cfg.c **** 			0x00u, 0x00u, 0x00u, 0x00u, 0x00u, 0x00u, 0x00u, 0x00u, 0x00u, 0x00u, 0x00u, 0x00u, 0x00u, 0x00u
1058:Generated_Source\PSoC4/cyfitter_cfg.c **** 
1059:Generated_Source\PSoC4/cyfitter_cfg.c **** 		static const cfg_memcpy_t CYCODE cfg_memcpy_list [] = {
1060:Generated_Source\PSoC4/cyfitter_cfg.c **** 			/* dest, src, size */
1061:Generated_Source\PSoC4/cyfitter_cfg.c **** 			{(void CYFAR *)(CYDEV_UDB_P0_U1_BASE), BS_UDB_0_3_1_CONFIG_VAL, 128u},
1062:Generated_Source\PSoC4/cyfitter_cfg.c **** 			{(void CYFAR *)(CYDEV_UDB_P2_U1_BASE), BS_UDB_0_1_1_CONFIG_VAL, 128u},
1063:Generated_Source\PSoC4/cyfitter_cfg.c **** 		};
1064:Generated_Source\PSoC4/cyfitter_cfg.c **** 
1065:Generated_Source\PSoC4/cyfitter_cfg.c **** 		uint8 CYDATA i;
1066:Generated_Source\PSoC4/cyfitter_cfg.c **** 
1067:Generated_Source\PSoC4/cyfitter_cfg.c **** 		/* Zero out critical memory blocks before beginning configuration */
1068:Generated_Source\PSoC4/cyfitter_cfg.c **** 		for (i = 0u; i < (sizeof(cfg_memset_list)/sizeof(cfg_memset_list[0])); i++)
 491              		.loc 1 1068 0
 492 0172 0024     		movs	r4, #0
 493 0174 0FE0     		b	.L20
 494              	.LVL30:
 495              	.L21:
 496              	.LBB4:
1069:Generated_Source\PSoC4/cyfitter_cfg.c **** 		{
1070:Generated_Source\PSoC4/cyfitter_cfg.c **** 			const cfg_memset_t CYCODE * CYDATA ms = &cfg_memset_list[i];
1071:Generated_Source\PSoC4/cyfitter_cfg.c **** 			CYMEMZERO(ms->address, (size_t)(uint32)(ms->size));
 497              		.loc 1 1071 0 discriminator 3
 498 0176 6448     		ldr	r0, .L24+4
 499 0178 6200     		lsls	r2, r4, #1
 500 017a 1319     		adds	r3, r2, r4
 501 017c 5900     		lsls	r1, r3, #1
 502 017e 0B00     		movs	r3, r1
 503 0180 4118     		adds	r1, r0, r1
 504 0182 8988     		ldrh	r1, [r1, #4]
 505 0184 1A5A     		ldrh	r2, [r3, r0]
 506 0186 C318     		adds	r3, r0, r3
 507 0188 5888     		ldrh	r0, [r3, #2]
ARM GAS  C:\Users\luvsd\AppData\Local\Temp\ccl3vs7c.s 			page 29


 508 018a 0004     		lsls	r0, r0, #16
 509 018c 1043     		orrs	r0, r2
 510 018e FFF7FEFF 		bl	CYMEMZERO
 511              	.LVL31:
 512              	.LBE4:
1068:Generated_Source\PSoC4/cyfitter_cfg.c **** 		{
 513              		.loc 1 1068 0 discriminator 3
 514 0192 0134     		adds	r4, r4, #1
 515              	.LVL32:
 516 0194 E4B2     		uxtb	r4, r4
 517              	.LVL33:
 518              	.L20:
1068:Generated_Source\PSoC4/cyfitter_cfg.c **** 		{
 519              		.loc 1 1068 0 is_stmt 0 discriminator 1
 520 0196 032C     		cmp	r4, #3
 521 0198 EDD9     		bls	.L21
 522 019a 0024     		movs	r4, #0
 523              	.LVL34:
 524 019c 14E0     		b	.L22
 525              	.LVL35:
 526              	.L23:
 527              	.LBB5:
1072:Generated_Source\PSoC4/cyfitter_cfg.c **** 		}
1073:Generated_Source\PSoC4/cyfitter_cfg.c **** 
1074:Generated_Source\PSoC4/cyfitter_cfg.c **** 		/* Copy device configuration data into registers */
1075:Generated_Source\PSoC4/cyfitter_cfg.c **** 		for (i = 0u; i < (sizeof(cfg_memcpy_list)/sizeof(cfg_memcpy_list[0])); i++)
1076:Generated_Source\PSoC4/cyfitter_cfg.c **** 		{
1077:Generated_Source\PSoC4/cyfitter_cfg.c **** 			const cfg_memcpy_t CYCODE * CYDATA mc = &cfg_memcpy_list[i];
1078:Generated_Source\PSoC4/cyfitter_cfg.c **** 			void * CYDATA destPtr = mc->dest;
 528              		.loc 1 1078 0 is_stmt 1 discriminator 3
 529 019e 5A4E     		ldr	r6, .L24+4
 530 01a0 A200     		lsls	r2, r4, #2
 531 01a2 1119     		adds	r1, r2, r4
 532 01a4 4B00     		lsls	r3, r1, #1
 533 01a6 F318     		adds	r3, r6, r3
 534 01a8 198B     		ldrh	r1, [r3, #24]
 535 01aa 588B     		ldrh	r0, [r3, #26]
 536 01ac 0004     		lsls	r0, r0, #16
 537 01ae 0843     		orrs	r0, r1
 538              	.LVL36:
1079:Generated_Source\PSoC4/cyfitter_cfg.c **** 			const void CYCODE * CYDATA srcPtr = mc->src;
 539              		.loc 1 1079 0 discriminator 3
 540 01b0 9D8B     		ldrh	r5, [r3, #28]
 541 01b2 D98B     		ldrh	r1, [r3, #30]
 542 01b4 0904     		lsls	r1, r1, #16
 543 01b6 2943     		orrs	r1, r5
 544              	.LVL37:
1080:Generated_Source\PSoC4/cyfitter_cfg.c **** 			uint16 CYDATA numBytes = mc->size;
 545              		.loc 1 1080 0 discriminator 3
 546 01b8 1319     		adds	r3, r2, r4
 547 01ba 5A00     		lsls	r2, r3, #1
 548 01bc B218     		adds	r2, r6, r2
 549 01be 128C     		ldrh	r2, [r2, #32]
 550              	.LVL38:
1081:Generated_Source\PSoC4/cyfitter_cfg.c **** 			CYCONFIGCPYCODE(destPtr, srcPtr, numBytes);
 551              		.loc 1 1081 0 discriminator 3
 552 01c0 FFF7FEFF 		bl	CYCONFIGCPYCODE
ARM GAS  C:\Users\luvsd\AppData\Local\Temp\ccl3vs7c.s 			page 30


 553              	.LVL39:
 554              	.LBE5:
1075:Generated_Source\PSoC4/cyfitter_cfg.c **** 		{
 555              		.loc 1 1075 0 discriminator 3
 556 01c4 0134     		adds	r4, r4, #1
 557              	.LVL40:
 558 01c6 E4B2     		uxtb	r4, r4
 559              	.LVL41:
 560              	.L22:
1075:Generated_Source\PSoC4/cyfitter_cfg.c **** 		{
 561              		.loc 1 1075 0 is_stmt 0 discriminator 1
 562 01c8 012C     		cmp	r4, #1
 563 01ca E8D9     		bls	.L23
1082:Generated_Source\PSoC4/cyfitter_cfg.c **** 		}
1083:Generated_Source\PSoC4/cyfitter_cfg.c **** 
1084:Generated_Source\PSoC4/cyfitter_cfg.c **** 		cfg_write_bytes32(cy_cfg_addr_table, cy_cfg_data_table);
 564              		.loc 1 1084 0 is_stmt 1
 565 01cc 4E49     		ldr	r1, .L24+4
 566 01ce 2C31     		adds	r1, r1, #44
 567 01d0 4E48     		ldr	r0, .L24+8
 568 01d2 FFF7FEFF 		bl	cfg_write_bytes32
 569              	.LVL42:
1085:Generated_Source\PSoC4/cyfitter_cfg.c **** 
1086:Generated_Source\PSoC4/cyfitter_cfg.c **** 		/* Perform normal device configuration. Order is not critical for these items. */
1087:Generated_Source\PSoC4/cyfitter_cfg.c **** 		CY_SET_REG16((void *)(CYREG_UDB_BCTL0_DRV), 0x0E00u);
 570              		.loc 1 1087 0
 571 01d6 E022     		movs	r2, #224
 572 01d8 1201     		lsls	r2, r2, #4
 573 01da 4D4B     		ldr	r3, .L24+12
 574 01dc 1A80     		strh	r2, [r3]
1088:Generated_Source\PSoC4/cyfitter_cfg.c **** 		CY_SET_REG8((void *)(CYREG_UDB_BCTL0_DRV + 0x2u), 0x01u);
 575              		.loc 1 1088 0
 576 01de 0122     		movs	r2, #1
 577 01e0 4C4B     		ldr	r3, .L24+16
 578 01e2 1A70     		strb	r2, [r3]
1089:Generated_Source\PSoC4/cyfitter_cfg.c **** 
1090:Generated_Source\PSoC4/cyfitter_cfg.c **** 		/* HSIOM Starting address: CYDEV_HSIOM_BASE */
1091:Generated_Source\PSoC4/cyfitter_cfg.c **** 		CY_SET_REG32((void *)(CYDEV_HSIOM_BASE), 0x33003333u);
 579              		.loc 1 1091 0
 580 01e4 4C4A     		ldr	r2, .L24+20
 581 01e6 4D4B     		ldr	r3, .L24+24
 582 01e8 1A60     		str	r2, [r3]
1092:Generated_Source\PSoC4/cyfitter_cfg.c **** 		CY_SET_REG32((void *)(CYREG_HSIOM_PORT_SEL1), 0x00003303u);
 583              		.loc 1 1092 0
 584 01ea 4D4A     		ldr	r2, .L24+28
 585 01ec 4D4B     		ldr	r3, .L24+32
 586 01ee 1A60     		str	r2, [r3]
1093:Generated_Source\PSoC4/cyfitter_cfg.c **** 		CY_SET_REG32((void *)(CYREG_HSIOM_PORT_SEL2), 0x00330303u);
 587              		.loc 1 1093 0
 588 01f0 4D4A     		ldr	r2, .L24+36
 589 01f2 4E4B     		ldr	r3, .L24+40
 590 01f4 1A60     		str	r2, [r3]
1094:Generated_Source\PSoC4/cyfitter_cfg.c **** 		CY_SET_REG32((void *)(CYREG_HSIOM_PORT_SEL3), 0x0000EE99u);
 591              		.loc 1 1094 0
 592 01f6 4E4A     		ldr	r2, .L24+44
 593 01f8 4E4B     		ldr	r3, .L24+48
 594 01fa 1A60     		str	r2, [r3]
ARM GAS  C:\Users\luvsd\AppData\Local\Temp\ccl3vs7c.s 			page 31


1095:Generated_Source\PSoC4/cyfitter_cfg.c **** 		CY_SET_REG32((void *)(CYREG_HSIOM_PORT_SEL5), 0x00700000u);
 595              		.loc 1 1095 0
 596 01fc E022     		movs	r2, #224
 597 01fe D203     		lsls	r2, r2, #15
 598 0200 4D4B     		ldr	r3, .L24+52
 599 0202 1A60     		str	r2, [r3]
1096:Generated_Source\PSoC4/cyfitter_cfg.c **** 		CY_SET_REG32((void *)(CYREG_HSIOM_PORT_SEL6), 0x00EE0000u);
 600              		.loc 1 1096 0
 601 0204 EE22     		movs	r2, #238
 602 0206 1204     		lsls	r2, r2, #16
 603 0208 4C4B     		ldr	r3, .L24+56
 604 020a 1A60     		str	r2, [r3]
1097:Generated_Source\PSoC4/cyfitter_cfg.c **** 		CY_SET_REG32((void *)(CYREG_HSIOM_PORT_SEL7), 0x00000099u);
 605              		.loc 1 1097 0
 606 020c 9922     		movs	r2, #153
 607 020e 4C4B     		ldr	r3, .L24+60
 608 0210 1A60     		str	r2, [r3]
1098:Generated_Source\PSoC4/cyfitter_cfg.c **** 
1099:Generated_Source\PSoC4/cyfitter_cfg.c **** 		/* UDB_PA_0 Starting address: CYDEV_UDB_PA0_BASE */
1100:Generated_Source\PSoC4/cyfitter_cfg.c **** 		CY_SET_REG32((void *)(CYDEV_UDB_PA0_BASE), 0x00990000u);
 609              		.loc 1 1100 0
 610 0212 9923     		movs	r3, #153
 611 0214 1B04     		lsls	r3, r3, #16
 612 0216 4B4A     		ldr	r2, .L24+64
 613 0218 1360     		str	r3, [r2]
1101:Generated_Source\PSoC4/cyfitter_cfg.c **** 		CY_SET_REG32((void *)(CYREG_UDB_PA0_CFG8), 0x08000000u);
 614              		.loc 1 1101 0
 615 021a 8021     		movs	r1, #128
 616 021c 0905     		lsls	r1, r1, #20
 617 021e 4A4A     		ldr	r2, .L24+68
 618 0220 1160     		str	r1, [r2]
1102:Generated_Source\PSoC4/cyfitter_cfg.c **** 
1103:Generated_Source\PSoC4/cyfitter_cfg.c **** 		/* UDB_PA_1 Starting address: CYDEV_UDB_PA1_BASE */
1104:Generated_Source\PSoC4/cyfitter_cfg.c **** 		CY_SET_REG32((void *)(CYDEV_UDB_PA1_BASE), 0x00990004u);
 619              		.loc 1 1104 0
 620 0222 4A4A     		ldr	r2, .L24+72
 621 0224 4A49     		ldr	r1, .L24+76
 622 0226 0A60     		str	r2, [r1]
1105:Generated_Source\PSoC4/cyfitter_cfg.c **** 		CY_SET_REG32((void *)(CYREG_UDB_PA1_CFG4), 0x02000000u);
 623              		.loc 1 1105 0
 624 0228 8020     		movs	r0, #128
 625 022a 8004     		lsls	r0, r0, #18
 626 022c 4949     		ldr	r1, .L24+80
 627 022e 0860     		str	r0, [r1]
1106:Generated_Source\PSoC4/cyfitter_cfg.c **** 		CY_SET_REG32((void *)(CYREG_UDB_PA1_CFG8), 0x004B0000u);
 628              		.loc 1 1106 0
 629 0230 9620     		movs	r0, #150
 630 0232 C003     		lsls	r0, r0, #15
 631 0234 4849     		ldr	r1, .L24+84
 632 0236 0860     		str	r0, [r1]
1107:Generated_Source\PSoC4/cyfitter_cfg.c **** 
1108:Generated_Source\PSoC4/cyfitter_cfg.c **** 		/* UDB_PA_2 Starting address: CYDEV_UDB_PA2_BASE */
1109:Generated_Source\PSoC4/cyfitter_cfg.c **** 		CY_SET_REG32((void *)(CYDEV_UDB_PA2_BASE), 0x00990004u);
 633              		.loc 1 1109 0
 634 0238 4849     		ldr	r1, .L24+88
 635 023a 0A60     		str	r2, [r1]
1110:Generated_Source\PSoC4/cyfitter_cfg.c **** 		CY_SET_REG32((void *)(CYREG_UDB_PA2_CFG4), 0x00080000u);
ARM GAS  C:\Users\luvsd\AppData\Local\Temp\ccl3vs7c.s 			page 32


 636              		.loc 1 1110 0
 637 023c 8021     		movs	r1, #128
 638 023e 0903     		lsls	r1, r1, #12
 639 0240 474A     		ldr	r2, .L24+92
 640 0242 1160     		str	r1, [r2]
1111:Generated_Source\PSoC4/cyfitter_cfg.c **** 		CY_SET_REG32((void *)(CYREG_UDB_PA2_CFG8), 0x5C640000u);
 641              		.loc 1 1111 0
 642 0244 4749     		ldr	r1, .L24+96
 643 0246 484A     		ldr	r2, .L24+100
 644 0248 1160     		str	r1, [r2]
1112:Generated_Source\PSoC4/cyfitter_cfg.c **** 
1113:Generated_Source\PSoC4/cyfitter_cfg.c **** 		/* UDB_PA_4 Starting address: CYDEV_UDB_PA4_BASE */
1114:Generated_Source\PSoC4/cyfitter_cfg.c **** 		CY_SET_REG32((void *)(CYDEV_UDB_PA4_BASE), 0x00990000u);
 645              		.loc 1 1114 0
 646 024a 484A     		ldr	r2, .L24+104
 647 024c 1360     		str	r3, [r2]
1115:Generated_Source\PSoC4/cyfitter_cfg.c **** 		CY_SET_REG32((void *)(CYREG_UDB_PA4_CFG8), 0x90870000u);
 648              		.loc 1 1115 0
 649 024e 4849     		ldr	r1, .L24+108
 650 0250 484A     		ldr	r2, .L24+112
 651 0252 1160     		str	r1, [r2]
1116:Generated_Source\PSoC4/cyfitter_cfg.c **** 
1117:Generated_Source\PSoC4/cyfitter_cfg.c **** 		/* UDB_PA_5 Starting address: CYDEV_UDB_PA5_BASE */
1118:Generated_Source\PSoC4/cyfitter_cfg.c **** 		CY_SET_REG32((void *)(CYDEV_UDB_PA5_BASE), 0x00990000u);
 652              		.loc 1 1118 0
 653 0254 484A     		ldr	r2, .L24+116
 654 0256 1360     		str	r3, [r2]
1119:Generated_Source\PSoC4/cyfitter_cfg.c **** 
1120:Generated_Source\PSoC4/cyfitter_cfg.c **** 		/* UDB_PA_7 Starting address: CYDEV_UDB_PA7_BASE */
1121:Generated_Source\PSoC4/cyfitter_cfg.c **** 		CY_SET_REG32((void *)(CYDEV_UDB_PA7_BASE), 0x00990000u);
 655              		.loc 1 1121 0
 656 0258 484A     		ldr	r2, .L24+120
 657 025a 1360     		str	r3, [r2]
1122:Generated_Source\PSoC4/cyfitter_cfg.c **** 
1123:Generated_Source\PSoC4/cyfitter_cfg.c **** 		/* INT_SELECT Starting address: CYDEV_CPUSS_INT_SEL */
1124:Generated_Source\PSoC4/cyfitter_cfg.c **** 		CY_SET_REG32((void *)(CYREG_CPUSS_INT_SEL), 0x00000007u);
 658              		.loc 1 1124 0
 659 025c 0722     		movs	r2, #7
 660 025e 484B     		ldr	r3, .L24+124
 661 0260 1A60     		str	r2, [r3]
1125:Generated_Source\PSoC4/cyfitter_cfg.c **** 
1126:Generated_Source\PSoC4/cyfitter_cfg.c **** 		/* INT_CONFIG Starting address: CYDEV_UDB_INT_CFG */
1127:Generated_Source\PSoC4/cyfitter_cfg.c **** 		CY_SET_REG32((void *)(CYREG_UDB_INT_CFG), 0x00000006u);
 662              		.loc 1 1127 0
 663 0262 013A     		subs	r2, r2, #1
 664 0264 474B     		ldr	r3, .L24+128
 665 0266 1A60     		str	r2, [r3]
1128:Generated_Source\PSoC4/cyfitter_cfg.c **** 
1129:Generated_Source\PSoC4/cyfitter_cfg.c **** 		/* Enable UDB array and digital routing */
1130:Generated_Source\PSoC4/cyfitter_cfg.c **** 		CY_SET_XTND_REG8((void *)CYREG_UDB_UDB_WAIT_CFG, (uint8)((CY_GET_XTND_REG8((void *)CYREG_UDB_UDB_
 666              		.loc 1 1130 0
 667 0268 4749     		ldr	r1, .L24+132
 668 026a 0B78     		ldrb	r3, [r1]
 669 026c 3632     		adds	r2, r2, #54
 670 026e 9343     		bics	r3, r2
 671 0270 1422     		movs	r2, #20
 672 0272 1343     		orrs	r3, r2
ARM GAS  C:\Users\luvsd\AppData\Local\Temp\ccl3vs7c.s 			page 33


 673 0274 DBB2     		uxtb	r3, r3
 674 0276 0B70     		strb	r3, [r1]
1131:Generated_Source\PSoC4/cyfitter_cfg.c **** 		CY_SET_XTND_REG8((void *)CYREG_UDB_UDB_BANK_CTL, (uint8)(CY_GET_XTND_REG8((void *)CYREG_UDB_UDB_B
 675              		.loc 1 1131 0
 676 0278 444A     		ldr	r2, .L24+136
 677 027a 1178     		ldrb	r1, [r2]
 678 027c 1623     		movs	r3, #22
 679 027e 0B43     		orrs	r3, r1
 680 0280 DBB2     		uxtb	r3, r3
 681 0282 1370     		strb	r3, [r2]
 682              	.LBE3:
1132:Generated_Source\PSoC4/cyfitter_cfg.c **** 	}
1133:Generated_Source\PSoC4/cyfitter_cfg.c **** 
1134:Generated_Source\PSoC4/cyfitter_cfg.c **** 	/* Perform second pass device configuration. These items must be configured in specific order afte
1135:Generated_Source\PSoC4/cyfitter_cfg.c **** 	/* IOPINS0_0 Starting address: CYDEV_GPIO_PRT0_BASE */
1136:Generated_Source\PSoC4/cyfitter_cfg.c **** 	CY_SET_REG32((void *)(CYDEV_GPIO_PRT0_BASE), 0x000000CFu);
 683              		.loc 1 1136 0
 684 0284 CF22     		movs	r2, #207
 685 0286 424B     		ldr	r3, .L24+140
 686 0288 1A60     		str	r2, [r3]
1137:Generated_Source\PSoC4/cyfitter_cfg.c **** 	CY_SET_REG32((void *)(CYREG_GPIO_PRT0_PC), 0x00D80DB6u);
 687              		.loc 1 1137 0
 688 028a 424A     		ldr	r2, .L24+144
 689 028c 424B     		ldr	r3, .L24+148
 690 028e 1A60     		str	r2, [r3]
1138:Generated_Source\PSoC4/cyfitter_cfg.c **** 
1139:Generated_Source\PSoC4/cyfitter_cfg.c **** 	/* IOPINS0_13 Starting address: CYDEV_GPIO_PRT13_BASE */
1140:Generated_Source\PSoC4/cyfitter_cfg.c **** 	CY_SET_REG32((void *)(CYDEV_GPIO_PRT13_BASE), 0x00000003u);
 691              		.loc 1 1140 0
 692 0290 0322     		movs	r2, #3
 693 0292 424B     		ldr	r3, .L24+152
 694 0294 1A60     		str	r2, [r3]
1141:Generated_Source\PSoC4/cyfitter_cfg.c **** 	CY_SET_REG32((void *)(CYREG_GPIO_PRT13_INTR_CFG), 0x00000002u);
 695              		.loc 1 1141 0
 696 0296 0223     		movs	r3, #2
 697 0298 414A     		ldr	r2, .L24+156
 698 029a 1360     		str	r3, [r2]
1142:Generated_Source\PSoC4/cyfitter_cfg.c **** 
1143:Generated_Source\PSoC4/cyfitter_cfg.c **** 	/* IOPINS0_1 Starting address: CYDEV_GPIO_PRT1_BASE */
1144:Generated_Source\PSoC4/cyfitter_cfg.c **** 	CY_SET_REG32((void *)(CYDEV_GPIO_PRT1_BASE), 0x0000001Du);
 699              		.loc 1 1144 0
 700 029c 1D21     		movs	r1, #29
 701 029e 414A     		ldr	r2, .L24+160
 702 02a0 1160     		str	r1, [r2]
1145:Generated_Source\PSoC4/cyfitter_cfg.c **** 	CY_SET_REG32((void *)(CYREG_GPIO_PRT1_PC), 0x00181904u);
 703              		.loc 1 1145 0
 704 02a2 4149     		ldr	r1, .L24+164
 705 02a4 414A     		ldr	r2, .L24+168
 706 02a6 1160     		str	r1, [r2]
1146:Generated_Source\PSoC4/cyfitter_cfg.c **** 
1147:Generated_Source\PSoC4/cyfitter_cfg.c **** 	/* IOPINS0_2 Starting address: CYDEV_GPIO_PRT2_BASE */
1148:Generated_Source\PSoC4/cyfitter_cfg.c **** 	CY_SET_REG32((void *)(CYDEV_GPIO_PRT2_BASE), 0x00000077u);
 707              		.loc 1 1148 0
 708 02a8 7721     		movs	r1, #119
 709 02aa 414A     		ldr	r2, .L24+172
 710 02ac 1160     		str	r1, [r2]
1149:Generated_Source\PSoC4/cyfitter_cfg.c **** 	CY_SET_REG32((void *)(CYREG_GPIO_PRT2_PC), 0x001B618Eu);
ARM GAS  C:\Users\luvsd\AppData\Local\Temp\ccl3vs7c.s 			page 34


 711              		.loc 1 1149 0
 712 02ae 4149     		ldr	r1, .L24+176
 713 02b0 414A     		ldr	r2, .L24+180
 714 02b2 1160     		str	r1, [r2]
1150:Generated_Source\PSoC4/cyfitter_cfg.c **** 
1151:Generated_Source\PSoC4/cyfitter_cfg.c **** 	/* IOPINS0_3 Starting address: CYDEV_GPIO_PRT3_BASE */
1152:Generated_Source\PSoC4/cyfitter_cfg.c **** 	CY_SET_REG32((void *)(CYDEV_GPIO_PRT3_BASE), 0x00000002u);
 715              		.loc 1 1152 0
 716 02b4 414A     		ldr	r2, .L24+184
 717 02b6 1360     		str	r3, [r2]
1153:Generated_Source\PSoC4/cyfitter_cfg.c **** 	CY_SET_REG32((void *)(CYREG_GPIO_PRT3_PC), 0x00036DB1u);
 718              		.loc 1 1153 0
 719 02b8 4149     		ldr	r1, .L24+188
 720 02ba 424A     		ldr	r2, .L24+192
 721 02bc 1160     		str	r1, [r2]
1154:Generated_Source\PSoC4/cyfitter_cfg.c **** 	CY_SET_REG32((void *)(CYREG_GPIO_PRT3_PC2), 0x00000002u);
 722              		.loc 1 1154 0
 723 02be 424A     		ldr	r2, .L24+196
 724 02c0 1360     		str	r3, [r2]
1155:Generated_Source\PSoC4/cyfitter_cfg.c **** 
1156:Generated_Source\PSoC4/cyfitter_cfg.c **** 	/* IOPINS0_4 Starting address: CYDEV_GPIO_PRT4_BASE */
1157:Generated_Source\PSoC4/cyfitter_cfg.c **** 	CY_SET_REG32((void *)(CYDEV_GPIO_PRT4_BASE), 0x00000020u);
 725              		.loc 1 1157 0
 726 02c2 2022     		movs	r2, #32
 727 02c4 4149     		ldr	r1, .L24+200
 728 02c6 0A60     		str	r2, [r1]
1158:Generated_Source\PSoC4/cyfitter_cfg.c **** 	CY_SET_REG32((void *)(CYREG_GPIO_PRT4_PC), 0x000313B6u);
 729              		.loc 1 1158 0
 730 02c8 4148     		ldr	r0, .L24+204
 731 02ca 4249     		ldr	r1, .L24+208
 732 02cc 0860     		str	r0, [r1]
1159:Generated_Source\PSoC4/cyfitter_cfg.c **** 
1160:Generated_Source\PSoC4/cyfitter_cfg.c **** 	/* IOPINS0_5 Starting address: CYDEV_GPIO_PRT5_BASE */
1161:Generated_Source\PSoC4/cyfitter_cfg.c **** 	CY_SET_REG32((void *)(CYDEV_GPIO_PRT5_BASE), 0x00000020u);
 733              		.loc 1 1161 0
 734 02ce 4249     		ldr	r1, .L24+212
 735 02d0 0A60     		str	r2, [r1]
1162:Generated_Source\PSoC4/cyfitter_cfg.c **** 	CY_SET_REG32((void *)(CYREG_GPIO_PRT5_PC), 0x00030000u);
 736              		.loc 1 1162 0
 737 02d2 C020     		movs	r0, #192
 738 02d4 8002     		lsls	r0, r0, #10
 739 02d6 4149     		ldr	r1, .L24+216
 740 02d8 0860     		str	r0, [r1]
1163:Generated_Source\PSoC4/cyfitter_cfg.c **** 	CY_SET_REG32((void *)(CYREG_GPIO_PRT5_PC2), 0x00000020u);
 741              		.loc 1 1163 0
 742 02da 4149     		ldr	r1, .L24+220
 743 02dc 0A60     		str	r2, [r1]
1164:Generated_Source\PSoC4/cyfitter_cfg.c **** 
1165:Generated_Source\PSoC4/cyfitter_cfg.c **** 	/* IOPINS0_6 Starting address: CYDEV_GPIO_PRT6_BASE */
1166:Generated_Source\PSoC4/cyfitter_cfg.c **** 	CY_SET_REG32((void *)(CYDEV_GPIO_PRT6_BASE), 0x00000032u);
 744              		.loc 1 1166 0
 745 02de 3221     		movs	r1, #50
 746 02e0 404A     		ldr	r2, .L24+224
 747 02e2 1160     		str	r1, [r2]
1167:Generated_Source\PSoC4/cyfitter_cfg.c **** 	CY_SET_REG32((void *)(CYREG_GPIO_PRT6_PC), 0x00024188u);
 748              		.loc 1 1167 0
 749 02e4 4049     		ldr	r1, .L24+228
ARM GAS  C:\Users\luvsd\AppData\Local\Temp\ccl3vs7c.s 			page 35


 750 02e6 414A     		ldr	r2, .L24+232
 751 02e8 1160     		str	r1, [r2]
1168:Generated_Source\PSoC4/cyfitter_cfg.c **** 
1169:Generated_Source\PSoC4/cyfitter_cfg.c **** 	/* IOPINS0_7 Starting address: CYDEV_GPIO_PRT7_BASE */
1170:Generated_Source\PSoC4/cyfitter_cfg.c **** 	CY_SET_REG32((void *)(CYDEV_GPIO_PRT7_BASE), 0x00000002u);
 752              		.loc 1 1170 0
 753 02ea 414A     		ldr	r2, .L24+236
 754 02ec 1360     		str	r3, [r2]
1171:Generated_Source\PSoC4/cyfitter_cfg.c **** 	CY_SET_REG32((void *)(CYREG_GPIO_PRT7_PC), 0x00000031u);
 755              		.loc 1 1171 0
 756 02ee 3121     		movs	r1, #49
 757 02f0 404A     		ldr	r2, .L24+240
 758 02f2 1160     		str	r1, [r2]
1172:Generated_Source\PSoC4/cyfitter_cfg.c **** 	CY_SET_REG32((void *)(CYREG_GPIO_PRT7_PC2), 0x00000002u);
 759              		.loc 1 1172 0
 760 02f4 404A     		ldr	r2, .L24+244
 761 02f6 1360     		str	r3, [r2]
1173:Generated_Source\PSoC4/cyfitter_cfg.c **** 
1174:Generated_Source\PSoC4/cyfitter_cfg.c **** 
1175:Generated_Source\PSoC4/cyfitter_cfg.c **** 	/* Setup clocks based on selections from Clock DWR */
1176:Generated_Source\PSoC4/cyfitter_cfg.c **** 	ClockSetup();
 762              		.loc 1 1176 0
 763 02f8 FFF782FE 		bl	ClockSetup
 764              	.LVL43:
1177:Generated_Source\PSoC4/cyfitter_cfg.c **** 
1178:Generated_Source\PSoC4/cyfitter_cfg.c **** 	/* Perform basic analog initialization to defaults */
1179:Generated_Source\PSoC4/cyfitter_cfg.c **** 	AnalogSetDefault();
 765              		.loc 1 1179 0
 766 02fc FFF7FEFF 		bl	AnalogSetDefault
 767              	.LVL44:
1180:Generated_Source\PSoC4/cyfitter_cfg.c **** 
1181:Generated_Source\PSoC4/cyfitter_cfg.c **** }
 768              		.loc 1 1181 0
 769              		@ sp needed
 770              	.LVL45:
 771 0300 70BD     		pop	{r4, r5, r6, pc}
 772              	.L25:
 773 0302 C046     		.align	2
 774              	.L24:
 775 0304 1C700F40 		.word	1074753564
 776 0308 00000000 		.word	.LANCHOR0
 777 030c 00050000 		.word	.LANCHOR1
 778 0310 00600F40 		.word	1074749440
 779 0314 02600F40 		.word	1074749442
 780 0318 33330033 		.word	855651123
 781 031c 00000240 		.word	1073872896
 782 0320 03330000 		.word	13059
 783 0324 00010240 		.word	1073873152
 784 0328 03033300 		.word	3343107
 785 032c 00020240 		.word	1073873408
 786 0330 99EE0000 		.word	61081
 787 0334 00030240 		.word	1073873664
 788 0338 00050240 		.word	1073874176
 789 033c 00060240 		.word	1073874432
 790 0340 00070240 		.word	1073874688
 791 0344 00500F40 		.word	1074745344
 792 0348 08500F40 		.word	1074745352
ARM GAS  C:\Users\luvsd\AppData\Local\Temp\ccl3vs7c.s 			page 36


 793 034c 04009900 		.word	10027012
 794 0350 10500F40 		.word	1074745360
 795 0354 14500F40 		.word	1074745364
 796 0358 18500F40 		.word	1074745368
 797 035c 20500F40 		.word	1074745376
 798 0360 24500F40 		.word	1074745380
 799 0364 0000645C 		.word	1550057472
 800 0368 28500F40 		.word	1074745384
 801 036c 40500F40 		.word	1074745408
 802 0370 00008790 		.word	-1870200832
 803 0374 48500F40 		.word	1074745416
 804 0378 50500F40 		.word	1074745424
 805 037c 70500F40 		.word	1074745456
 806 0380 20001040 		.word	1074790432
 807 0384 00800F40 		.word	1074757632
 808 0388 01700F40 		.word	1074753537
 809 038c 00700F40 		.word	1074753536
 810 0390 00000440 		.word	1074003968
 811 0394 B60DD800 		.word	14159286
 812 0398 08000440 		.word	1074003976
 813 039c 000D0440 		.word	1074007296
 814 03a0 0C0D0440 		.word	1074007308
 815 03a4 00010440 		.word	1074004224
 816 03a8 04191800 		.word	1579268
 817 03ac 08010440 		.word	1074004232
 818 03b0 00020440 		.word	1074004480
 819 03b4 8E611B00 		.word	1794446
 820 03b8 08020440 		.word	1074004488
 821 03bc 00030440 		.word	1074004736
 822 03c0 B16D0300 		.word	224689
 823 03c4 08030440 		.word	1074004744
 824 03c8 18030440 		.word	1074004760
 825 03cc 00040440 		.word	1074004992
 826 03d0 B6130300 		.word	201654
 827 03d4 08040440 		.word	1074005000
 828 03d8 00050440 		.word	1074005248
 829 03dc 08050440 		.word	1074005256
 830 03e0 18050440 		.word	1074005272
 831 03e4 00060440 		.word	1074005504
 832 03e8 88410200 		.word	147848
 833 03ec 08060440 		.word	1074005512
 834 03f0 00070440 		.word	1074005760
 835 03f4 08070440 		.word	1074005768
 836 03f8 18070440 		.word	1074005784
 837              		.cfi_endproc
 838              	.LFE8:
 839              		.size	cyfitter_cfg, .-cyfitter_cfg
 840              		.section	.rodata
 841              		.align	2
 842              		.set	.LANCHOR0,. + 0
 843              		.set	.LANCHOR1,. + 1280
 844              		.type	cfg_memset_list.4982, %object
 845              		.size	cfg_memset_list.4982, 24
 846              	cfg_memset_list.4982:
 847 0000 00300F40 		.word	1074737152
 848 0004 8000     		.short	128
 849 0006 00310F40 		.4byte	1074737408
ARM GAS  C:\Users\luvsd\AppData\Local\Temp\ccl3vs7c.s 			page 37


 850 000a 8003     		.short	896
 851 000c 00350F40 		.word	1074738432
 852 0010 0003     		.short	768
 853 0012 00400F40 		.4byte	1074741248
 854 0016 0008     		.short	2048
 855              		.type	cfg_memcpy_list.4985, %object
 856              		.size	cfg_memcpy_list.4985, 20
 857              	cfg_memcpy_list.4985:
 858 0018 80300F40 		.word	1074737280
 859 001c 48050000 		.word	BS_UDB_0_3_1_CONFIG_VAL.4983
 860 0020 8000     		.short	128
 861 0022 80340F40 		.4byte	1074738304
 862 0026 C8050000 		.4byte	BS_UDB_0_1_1_CONFIG_VAL.4984
 863 002a 8000     		.short	128
 864              		.type	cy_cfg_data_table.4972, %object
 865              		.size	cy_cfg_data_table.4972, 1234
 866              	cy_cfg_data_table.4972:
 867 002c 76       		.byte	118
 868 002d 01       		.byte	1
 869 002e 81       		.byte	-127
 870 002f 0F       		.byte	15
 871 0030 83       		.byte	-125
 872 0031 0D       		.byte	13
 873 0032 87       		.byte	-121
 874 0033 0F       		.byte	15
 875 0034 07       		.byte	7
 876 0035 04       		.byte	4
 877 0036 0B       		.byte	11
 878 0037 01       		.byte	1
 879 0038 13       		.byte	19
 880 0039 02       		.byte	2
 881 003a 23       		.byte	35
 882 003b 07       		.byte	7
 883 003c 31       		.byte	49
 884 003d 04       		.byte	4
 885 003e 33       		.byte	51
 886 003f 01       		.byte	1
 887 0040 35       		.byte	53
 888 0041 02       		.byte	2
 889 0042 39       		.byte	57
 890 0043 2A       		.byte	42
 891 0044 3F       		.byte	63
 892 0045 15       		.byte	21
 893 0046 56       		.byte	86
 894 0047 08       		.byte	8
 895 0048 59       		.byte	89
 896 0049 04       		.byte	4
 897 004a 5B       		.byte	91
 898 004b 04       		.byte	4
 899 004c 5D       		.byte	93
 900 004d 90       		.byte	-112
 901 004e 5F       		.byte	95
 902 004f 01       		.byte	1
 903 0050 04       		.byte	4
 904 0051 40       		.byte	64
 905 0052 06       		.byte	6
 906 0053 90       		.byte	-112
ARM GAS  C:\Users\luvsd\AppData\Local\Temp\ccl3vs7c.s 			page 38


 907 0054 07       		.byte	7
 908 0055 44       		.byte	68
 909 0056 0E       		.byte	14
 910 0057 88       		.byte	-120
 911 0058 0F       		.byte	15
 912 0059 12       		.byte	18
 913 005a 14       		.byte	20
 914 005b 04       		.byte	4
 915 005c 16       		.byte	22
 916 005d 02       		.byte	2
 917 005e 17       		.byte	23
 918 005f 01       		.byte	1
 919 0060 1D       		.byte	29
 920 0061 08       		.byte	8
 921 0062 1E       		.byte	30
 922 0063 80       		.byte	-128
 923 0064 21       		.byte	33
 924 0065 01       		.byte	1
 925 0066 22       		.byte	34
 926 0067 28       		.byte	40
 927 0068 25       		.byte	37
 928 0069 24       		.byte	36
 929 006a 28       		.byte	40
 930 006b 80       		.byte	-128
 931 006c 2C       		.byte	44
 932 006d 04       		.byte	4
 933 006e 2E       		.byte	46
 934 006f 80       		.byte	-128
 935 0070 2F       		.byte	47
 936 0071 10       		.byte	16
 937 0072 30       		.byte	48
 938 0073 02       		.byte	2
 939 0074 31       		.byte	49
 940 0075 30       		.byte	48
 941 0076 35       		.byte	53
 942 0077 10       		.byte	16
 943 0078 36       		.byte	54
 944 0079 04       		.byte	4
 945 007a 37       		.byte	55
 946 007b 01       		.byte	1
 947 007c 39       		.byte	57
 948 007d 18       		.byte	24
 949 007e 3D       		.byte	61
 950 007f 88       		.byte	-120
 951 0080 3E       		.byte	62
 952 0081 12       		.byte	18
 953 0082 44       		.byte	68
 954 0083 04       		.byte	4
 955 0084 45       		.byte	69
 956 0085 48       		.byte	72
 957 0086 4D       		.byte	77
 958 0087 40       		.byte	64
 959 0088 4F       		.byte	79
 960 0089 12       		.byte	18
 961 008a 54       		.byte	84
 962 008b 40       		.byte	64
 963 008c 56       		.byte	86
ARM GAS  C:\Users\luvsd\AppData\Local\Temp\ccl3vs7c.s 			page 39


 964 008d 29       		.byte	41
 965 008e 58       		.byte	88
 966 008f 40       		.byte	64
 967 0090 60       		.byte	96
 968 0091 02       		.byte	2
 969 0092 62       		.byte	98
 970 0093 80       		.byte	-128
 971 0094 65       		.byte	101
 972 0095 10       		.byte	16
 973 0096 68       		.byte	104
 974 0097 02       		.byte	2
 975 0098 69       		.byte	105
 976 0099 18       		.byte	24
 977 009a 6E       		.byte	110
 978 009b 19       		.byte	25
 979 009c 6F       		.byte	111
 980 009d 45       		.byte	69
 981 009e 76       		.byte	118
 982 009f 02       		.byte	2
 983 00a0 8A       		.byte	-118
 984 00a1 40       		.byte	64
 985 00a2 C0       		.byte	-64
 986 00a3 F0       		.byte	-16
 987 00a4 C2       		.byte	-62
 988 00a5 F0       		.byte	-16
 989 00a6 C4       		.byte	-60
 990 00a7 D0       		.byte	-48
 991 00a8 CA       		.byte	-54
 992 00a9 71       		.byte	113
 993 00aa CC       		.byte	-52
 994 00ab E1       		.byte	-31
 995 00ac CE       		.byte	-50
 996 00ad F6       		.byte	-10
 997 00ae D0       		.byte	-48
 998 00af 70       		.byte	112
 999 00b0 D2       		.byte	-46
 1000 00b1 30       		.byte	48
 1001 00b2 D6       		.byte	-42
 1002 00b3 08       		.byte	8
 1003 00b4 D8       		.byte	-40
 1004 00b5 28       		.byte	40
 1005 00b6 E2       		.byte	-30
 1006 00b7 20       		.byte	32
 1007 00b8 00       		.byte	0
 1008 00b9 FC       		.byte	-4
 1009 00ba 02       		.byte	2
 1010 00bb 03       		.byte	3
 1011 00bc 04       		.byte	4
 1012 00bd 13       		.byte	19
 1013 00be 05       		.byte	5
 1014 00bf 04       		.byte	4
 1015 00c0 06       		.byte	6
 1016 00c1 64       		.byte	100
 1017 00c2 08       		.byte	8
 1018 00c3 02       		.byte	2
 1019 00c4 0A       		.byte	10
 1020 00c5 98       		.byte	-104
ARM GAS  C:\Users\luvsd\AppData\Local\Temp\ccl3vs7c.s 			page 40


 1021 00c6 0C       		.byte	12
 1022 00c7 38       		.byte	56
 1023 00c8 0D       		.byte	13
 1024 00c9 0C       		.byte	12
 1025 00ca 0E       		.byte	14
 1026 00cb C0       		.byte	-64
 1027 00cc 0F       		.byte	15
 1028 00cd 10       		.byte	16
 1029 00ce 14       		.byte	20
 1030 00cf 21       		.byte	33
 1031 00d0 16       		.byte	22
 1032 00d1 D8       		.byte	-40
 1033 00d2 18       		.byte	24
 1034 00d3 98       		.byte	-104
 1035 00d4 1A       		.byte	26
 1036 00d5 02       		.byte	2
 1037 00d6 1C       		.byte	28
 1038 00d7 9A       		.byte	-102
 1039 00d8 20       		.byte	32
 1040 00d9 98       		.byte	-104
 1041 00da 22       		.byte	34
 1042 00db 02       		.byte	2
 1043 00dc 25       		.byte	37
 1044 00dd 1E       		.byte	30
 1045 00de 27       		.byte	39
 1046 00df 01       		.byte	1
 1047 00e0 28       		.byte	40
 1048 00e1 02       		.byte	2
 1049 00e2 29       		.byte	41
 1050 00e3 09       		.byte	9
 1051 00e4 2B       		.byte	43
 1052 00e5 12       		.byte	18
 1053 00e6 2C       		.byte	44
 1054 00e7 9A       		.byte	-102
 1055 00e8 30       		.byte	48
 1056 00e9 E0       		.byte	-32
 1057 00ea 32       		.byte	50
 1058 00eb 13       		.byte	19
 1059 00ec 33       		.byte	51
 1060 00ed 08       		.byte	8
 1061 00ee 34       		.byte	52
 1062 00ef 0F       		.byte	15
 1063 00f0 35       		.byte	53
 1064 00f1 10       		.byte	16
 1065 00f2 37       		.byte	55
 1066 00f3 07       		.byte	7
 1067 00f4 3A       		.byte	58
 1068 00f5 22       		.byte	34
 1069 00f6 3B       		.byte	59
 1070 00f7 80       		.byte	-128
 1071 00f8 3F       		.byte	63
 1072 00f9 14       		.byte	20
 1073 00fa 40       		.byte	64
 1074 00fb 60       		.byte	96
 1075 00fc 41       		.byte	65
 1076 00fd 05       		.byte	5
 1077 00fe 49       		.byte	73
ARM GAS  C:\Users\luvsd\AppData\Local\Temp\ccl3vs7c.s 			page 41


 1078 00ff FF       		.byte	-1
 1079 0100 4A       		.byte	74
 1080 0101 FF       		.byte	-1
 1081 0102 4B       		.byte	75
 1082 0103 FF       		.byte	-1
 1083 0104 4D       		.byte	77
 1084 0105 A0       		.byte	-96
 1085 0106 4F       		.byte	79
 1086 0107 04       		.byte	4
 1087 0108 50       		.byte	80
 1088 0109 18       		.byte	24
 1089 010a 54       		.byte	84
 1090 010b 09       		.byte	9
 1091 010c 58       		.byte	88
 1092 010d 04       		.byte	4
 1093 010e 59       		.byte	89
 1094 010f 04       		.byte	4
 1095 0110 5A       		.byte	90
 1096 0111 0B       		.byte	11
 1097 0112 5B       		.byte	91
 1098 0113 04       		.byte	4
 1099 0114 5C       		.byte	92
 1100 0115 33       		.byte	51
 1101 0116 5D       		.byte	93
 1102 0117 39       		.byte	57
 1103 0118 5F       		.byte	95
 1104 0119 01       		.byte	1
 1105 011a 60       		.byte	96
 1106 011b 40       		.byte	64
 1107 011c 62       		.byte	98
 1108 011d C0       		.byte	-64
 1109 011e 64       		.byte	100
 1110 011f 40       		.byte	64
 1111 0120 65       		.byte	101
 1112 0121 40       		.byte	64
 1113 0122 66       		.byte	102
 1114 0123 C0       		.byte	-64
 1115 0124 68       		.byte	104
 1116 0125 C0       		.byte	-64
 1117 0126 6A       		.byte	106
 1118 0127 C0       		.byte	-64
 1119 0128 6C       		.byte	108
 1120 0129 C0       		.byte	-64
 1121 012a 6E       		.byte	110
 1122 012b C0       		.byte	-64
 1123 012c 8E       		.byte	-114
 1124 012d 02       		.byte	2
 1125 012e 92       		.byte	-110
 1126 012f 01       		.byte	1
 1127 0130 97       		.byte	-105
 1128 0131 01       		.byte	1
 1129 0132 9A       		.byte	-102
 1130 0133 02       		.byte	2
 1131 0134 9B       		.byte	-101
 1132 0135 02       		.byte	2
 1133 0136 A3       		.byte	-93
 1134 0137 03       		.byte	3
ARM GAS  C:\Users\luvsd\AppData\Local\Temp\ccl3vs7c.s 			page 42


 1135 0138 B0       		.byte	-80
 1136 0139 02       		.byte	2
 1137 013a B2       		.byte	-78
 1138 013b 02       		.byte	2
 1139 013c B4       		.byte	-76
 1140 013d 01       		.byte	1
 1141 013e B5       		.byte	-75
 1142 013f 01       		.byte	1
 1143 0140 B6       		.byte	-74
 1144 0141 04       		.byte	4
 1145 0142 B7       		.byte	-73
 1146 0143 02       		.byte	2
 1147 0144 B9       		.byte	-71
 1148 0145 A0       		.byte	-96
 1149 0146 BE       		.byte	-66
 1150 0147 44       		.byte	68
 1151 0148 BF       		.byte	-65
 1152 0149 50       		.byte	80
 1153 014a C0       		.byte	-64
 1154 014b 20       		.byte	32
 1155 014c C1       		.byte	-63
 1156 014d 05       		.byte	5
 1157 014e C5       		.byte	-59
 1158 014f D0       		.byte	-48
 1159 0150 C6       		.byte	-58
 1160 0151 10       		.byte	16
 1161 0152 C7       		.byte	-57
 1162 0153 20       		.byte	32
 1163 0154 C8       		.byte	-56
 1164 0155 2A       		.byte	42
 1165 0156 C9       		.byte	-55
 1166 0157 FF       		.byte	-1
 1167 0158 CA       		.byte	-54
 1168 0159 FF       		.byte	-1
 1169 015a CB       		.byte	-53
 1170 015b FF       		.byte	-1
 1171 015c CD       		.byte	-51
 1172 015d AF       		.byte	-81
 1173 015e CE       		.byte	-50
 1174 015f 0F       		.byte	15
 1175 0160 CF       		.byte	-49
 1176 0161 04       		.byte	4
 1177 0162 D0       		.byte	-48
 1178 0163 18       		.byte	24
 1179 0164 D2       		.byte	-46
 1180 0165 80       		.byte	-128
 1181 0166 D4       		.byte	-44
 1182 0167 05       		.byte	5
 1183 0168 D8       		.byte	-40
 1184 0169 0B       		.byte	11
 1185 016a D9       		.byte	-39
 1186 016b 04       		.byte	4
 1187 016c DA       		.byte	-38
 1188 016d 0B       		.byte	11
 1189 016e DB       		.byte	-37
 1190 016f 0B       		.byte	11
 1191 0170 DC       		.byte	-36
ARM GAS  C:\Users\luvsd\AppData\Local\Temp\ccl3vs7c.s 			page 43


 1192 0171 09       		.byte	9
 1193 0172 DD       		.byte	-35
 1194 0173 99       		.byte	-103
 1195 0174 DF       		.byte	-33
 1196 0175 01       		.byte	1
 1197 0176 E0       		.byte	-32
 1198 0177 40       		.byte	64
 1199 0178 E2       		.byte	-30
 1200 0179 C0       		.byte	-64
 1201 017a E4       		.byte	-28
 1202 017b 40       		.byte	64
 1203 017c E5       		.byte	-27
 1204 017d 40       		.byte	64
 1205 017e E6       		.byte	-26
 1206 017f C0       		.byte	-64
 1207 0180 E8       		.byte	-24
 1208 0181 C0       		.byte	-64
 1209 0182 EA       		.byte	-22
 1210 0183 C0       		.byte	-64
 1211 0184 EC       		.byte	-20
 1212 0185 C0       		.byte	-64
 1213 0186 EE       		.byte	-18
 1214 0187 C0       		.byte	-64
 1215 0188 02       		.byte	2
 1216 0189 02       		.byte	2
 1217 018a 04       		.byte	4
 1218 018b 42       		.byte	66
 1219 018c 05       		.byte	5
 1220 018d 04       		.byte	4
 1221 018e 07       		.byte	7
 1222 018f 04       		.byte	4
 1223 0190 09       		.byte	9
 1224 0191 02       		.byte	2
 1225 0192 0A       		.byte	10
 1226 0193 08       		.byte	8
 1227 0194 0E       		.byte	14
 1228 0195 09       		.byte	9
 1229 0196 0F       		.byte	15
 1230 0197 10       		.byte	16
 1231 0198 15       		.byte	21
 1232 0199 10       		.byte	16
 1233 019a 16       		.byte	22
 1234 019b 0A       		.byte	10
 1235 019c 17       		.byte	23
 1236 019d 01       		.byte	1
 1237 019e 18       		.byte	24
 1238 019f 04       		.byte	4
 1239 01a0 19       		.byte	25
 1240 01a1 08       		.byte	8
 1241 01a2 1A       		.byte	26
 1242 01a3 08       		.byte	8
 1243 01a4 1B       		.byte	27
 1244 01a5 41       		.byte	65
 1245 01a6 1C       		.byte	28
 1246 01a7 40       		.byte	64
 1247 01a8 1D       		.byte	29
 1248 01a9 04       		.byte	4
ARM GAS  C:\Users\luvsd\AppData\Local\Temp\ccl3vs7c.s 			page 44


 1249 01aa 1F       		.byte	31
 1250 01ab 14       		.byte	20
 1251 01ac 20       		.byte	32
 1252 01ad 0A       		.byte	10
 1253 01ae 24       		.byte	36
 1254 01af 02       		.byte	2
 1255 01b0 25       		.byte	37
 1256 01b1 40       		.byte	64
 1257 01b2 26       		.byte	38
 1258 01b3 08       		.byte	8
 1259 01b4 27       		.byte	39
 1260 01b5 08       		.byte	8
 1261 01b6 28       		.byte	40
 1262 01b7 80       		.byte	-128
 1263 01b8 2C       		.byte	44
 1264 01b9 04       		.byte	4
 1265 01ba 2D       		.byte	45
 1266 01bb 04       		.byte	4
 1267 01bc 2F       		.byte	47
 1268 01bd 14       		.byte	20
 1269 01be 30       		.byte	48
 1270 01bf 20       		.byte	32
 1271 01c0 33       		.byte	51
 1272 01c1 08       		.byte	8
 1273 01c2 3D       		.byte	61
 1274 01c3 80       		.byte	-128
 1275 01c4 3E       		.byte	62
 1276 01c5 08       		.byte	8
 1277 01c6 40       		.byte	64
 1278 01c7 04       		.byte	4
 1279 01c8 49       		.byte	73
 1280 01c9 01       		.byte	1
 1281 01ca 4A       		.byte	74
 1282 01cb 02       		.byte	2
 1283 01cc 4E       		.byte	78
 1284 01cd 06       		.byte	6
 1285 01ce 50       		.byte	80
 1286 01cf 10       		.byte	16
 1287 01d0 52       		.byte	82
 1288 01d1 02       		.byte	2
 1289 01d2 59       		.byte	89
 1290 01d3 09       		.byte	9
 1291 01d4 5A       		.byte	90
 1292 01d5 80       		.byte	-128
 1293 01d6 5C       		.byte	92
 1294 01d7 01       		.byte	1
 1295 01d8 5D       		.byte	93
 1296 01d9 90       		.byte	-112
 1297 01da 5E       		.byte	94
 1298 01db 04       		.byte	4
 1299 01dc 66       		.byte	102
 1300 01dd 40       		.byte	64
 1301 01de 67       		.byte	103
 1302 01df 30       		.byte	48
 1303 01e0 6C       		.byte	108
 1304 01e1 20       		.byte	32
 1305 01e2 6F       		.byte	111
ARM GAS  C:\Users\luvsd\AppData\Local\Temp\ccl3vs7c.s 			page 45


 1306 01e3 08       		.byte	8
 1307 01e4 71       		.byte	113
 1308 01e5 02       		.byte	2
 1309 01e6 78       		.byte	120
 1310 01e7 02       		.byte	2
 1311 01e8 7E       		.byte	126
 1312 01e9 80       		.byte	-128
 1313 01ea 81       		.byte	-127
 1314 01eb C0       		.byte	-64
 1315 01ec 83       		.byte	-125
 1316 01ed 0A       		.byte	10
 1317 01ee 8B       		.byte	-117
 1318 01ef 01       		.byte	1
 1319 01f0 8C       		.byte	-116
 1320 01f1 01       		.byte	1
 1321 01f2 8D       		.byte	-115
 1322 01f3 08       		.byte	8
 1323 01f4 92       		.byte	-110
 1324 01f5 05       		.byte	5
 1325 01f6 94       		.byte	-108
 1326 01f7 40       		.byte	64
 1327 01f8 95       		.byte	-107
 1328 01f9 40       		.byte	64
 1329 01fa 97       		.byte	-105
 1330 01fb 30       		.byte	48
 1331 01fc 98       		.byte	-104
 1332 01fd 02       		.byte	2
 1333 01fe 9A       		.byte	-102
 1334 01ff 2B       		.byte	43
 1335 0200 9B       		.byte	-101
 1336 0201 05       		.byte	5
 1337 0202 9C       		.byte	-100
 1338 0203 84       		.byte	-124
 1339 0204 A1       		.byte	-95
 1340 0205 08       		.byte	8
 1341 0206 A2       		.byte	-94
 1342 0207 84       		.byte	-124
 1343 0208 A5       		.byte	-91
 1344 0209 40       		.byte	64
 1345 020a A7       		.byte	-89
 1346 020b 40       		.byte	64
 1347 020c AB       		.byte	-85
 1348 020d 40       		.byte	64
 1349 020e AC       		.byte	-84
 1350 020f 40       		.byte	64
 1351 0210 AD       		.byte	-83
 1352 0211 01       		.byte	1
 1353 0212 AE       		.byte	-82
 1354 0213 04       		.byte	4
 1355 0214 B0       		.byte	-80
 1356 0215 40       		.byte	64
 1357 0216 B1       		.byte	-79
 1358 0217 40       		.byte	64
 1359 0218 B2       		.byte	-78
 1360 0219 38       		.byte	56
 1361 021a C0       		.byte	-64
 1362 021b F1       		.byte	-15
ARM GAS  C:\Users\luvsd\AppData\Local\Temp\ccl3vs7c.s 			page 46


 1363 021c C2       		.byte	-62
 1364 021d EA       		.byte	-22
 1365 021e C4       		.byte	-60
 1366 021f D0       		.byte	-48
 1367 0220 CA       		.byte	-54
 1368 0221 61       		.byte	97
 1369 0222 CC       		.byte	-52
 1370 0223 06       		.byte	6
 1371 0224 CE       		.byte	-50
 1372 0225 50       		.byte	80
 1373 0226 D0       		.byte	-48
 1374 0227 04       		.byte	4
 1375 0228 D2       		.byte	-46
 1376 0229 38       		.byte	56
 1377 022a D6       		.byte	-42
 1378 022b FB       		.byte	-5
 1379 022c D8       		.byte	-40
 1380 022d 10       		.byte	16
 1381 022e DE       		.byte	-34
 1382 022f 81       		.byte	-127
 1383 0230 E2       		.byte	-30
 1384 0231 80       		.byte	-128
 1385 0232 EC       		.byte	-20
 1386 0233 02       		.byte	2
 1387 0234 0B       		.byte	11
 1388 0235 03       		.byte	3
 1389 0236 0C       		.byte	12
 1390 0237 08       		.byte	8
 1391 0238 11       		.byte	17
 1392 0239 01       		.byte	1
 1393 023a 1A       		.byte	26
 1394 023b 03       		.byte	3
 1395 023c 1C       		.byte	28
 1396 023d 01       		.byte	1
 1397 023e 2A       		.byte	42
 1398 023f 04       		.byte	4
 1399 0240 2C       		.byte	44
 1400 0241 04       		.byte	4
 1401 0242 30       		.byte	48
 1402 0243 01       		.byte	1
 1403 0244 31       		.byte	49
 1404 0245 02       		.byte	2
 1405 0246 32       		.byte	50
 1406 0247 08       		.byte	8
 1407 0248 34       		.byte	52
 1408 0249 04       		.byte	4
 1409 024a 36       		.byte	54
 1410 024b 02       		.byte	2
 1411 024c 37       		.byte	55
 1412 024d 01       		.byte	1
 1413 024e 38       		.byte	56
 1414 024f 20       		.byte	32
 1415 0250 3E       		.byte	62
 1416 0251 04       		.byte	4
 1417 0252 54       		.byte	84
 1418 0253 09       		.byte	9
 1419 0254 58       		.byte	88
ARM GAS  C:\Users\luvsd\AppData\Local\Temp\ccl3vs7c.s 			page 47


 1420 0255 04       		.byte	4
 1421 0256 59       		.byte	89
 1422 0257 0B       		.byte	11
 1423 0258 5B       		.byte	91
 1424 0259 04       		.byte	4
 1425 025a 5C       		.byte	92
 1426 025b 92       		.byte	-110
 1427 025c 5D       		.byte	93
 1428 025d 10       		.byte	16
 1429 025e 5F       		.byte	95
 1430 025f 01       		.byte	1
 1431 0260 00       		.byte	0
 1432 0261 40       		.byte	64
 1433 0262 05       		.byte	5
 1434 0263 84       		.byte	-124
 1435 0264 06       		.byte	6
 1436 0265 01       		.byte	1
 1437 0266 07       		.byte	7
 1438 0267 04       		.byte	4
 1439 0268 0A       		.byte	10
 1440 0269 06       		.byte	6
 1441 026a 0E       		.byte	14
 1442 026b 89       		.byte	-119
 1443 026c 0F       		.byte	15
 1444 026d 20       		.byte	32
 1445 026e 10       		.byte	16
 1446 026f 1A       		.byte	26
 1447 0270 12       		.byte	18
 1448 0271 10       		.byte	16
 1449 0272 16       		.byte	22
 1450 0273 06       		.byte	6
 1451 0274 17       		.byte	23
 1452 0275 09       		.byte	9
 1453 0276 18       		.byte	24
 1454 0277 40       		.byte	64
 1455 0278 1A       		.byte	26
 1456 0279 26       		.byte	38
 1457 027a 1D       		.byte	29
 1458 027b 04       		.byte	4
 1459 027c 1E       		.byte	30
 1460 027d 80       		.byte	-128
 1461 027e 1F       		.byte	31
 1462 027f 10       		.byte	16
 1463 0280 21       		.byte	33
 1464 0281 02       		.byte	2
 1465 0282 22       		.byte	34
 1466 0283 40       		.byte	64
 1467 0284 26       		.byte	38
 1468 0285 20       		.byte	32
 1469 0286 27       		.byte	39
 1470 0287 02       		.byte	2
 1471 0288 2F       		.byte	47
 1472 0289 04       		.byte	4
 1473 028a 31       		.byte	49
 1474 028b 02       		.byte	2
 1475 028c 36       		.byte	54
 1476 028d 20       		.byte	32
ARM GAS  C:\Users\luvsd\AppData\Local\Temp\ccl3vs7c.s 			page 48


 1477 028e 37       		.byte	55
 1478 028f 02       		.byte	2
 1479 0290 38       		.byte	56
 1480 0291 20       		.byte	32
 1481 0292 3D       		.byte	61
 1482 0293 84       		.byte	-124
 1483 0294 44       		.byte	68
 1484 0295 40       		.byte	64
 1485 0296 45       		.byte	69
 1486 0297 28       		.byte	40
 1487 0298 46       		.byte	70
 1488 0299 04       		.byte	4
 1489 029a 47       		.byte	71
 1490 029b 08       		.byte	8
 1491 029c 4C       		.byte	76
 1492 029d 04       		.byte	4
 1493 029e 4D       		.byte	77
 1494 029f 08       		.byte	8
 1495 02a0 4F       		.byte	79
 1496 02a1 A0       		.byte	-96
 1497 02a2 54       		.byte	84
 1498 02a3 01       		.byte	1
 1499 02a4 56       		.byte	86
 1500 02a5 98       		.byte	-104
 1501 02a6 57       		.byte	87
 1502 02a7 20       		.byte	32
 1503 02a8 58       		.byte	88
 1504 02a9 10       		.byte	16
 1505 02aa 59       		.byte	89
 1506 02ab 0A       		.byte	10
 1507 02ac 5A       		.byte	90
 1508 02ad 40       		.byte	64
 1509 02ae 61       		.byte	97
 1510 02af 40       		.byte	64
 1511 02b0 65       		.byte	101
 1512 02b1 80       		.byte	-128
 1513 02b2 66       		.byte	102
 1514 02b3 20       		.byte	32
 1515 02b4 67       		.byte	103
 1516 02b5 20       		.byte	32
 1517 02b6 68       		.byte	104
 1518 02b7 02       		.byte	2
 1519 02b8 6F       		.byte	111
 1520 02b9 02       		.byte	2
 1521 02ba 78       		.byte	120
 1522 02bb 02       		.byte	2
 1523 02bc 84       		.byte	-124
 1524 02bd 40       		.byte	64
 1525 02be 85       		.byte	-123
 1526 02bf 02       		.byte	2
 1527 02c0 86       		.byte	-122
 1528 02c1 04       		.byte	4
 1529 02c2 87       		.byte	-121
 1530 02c3 02       		.byte	2
 1531 02c4 8C       		.byte	-116
 1532 02c5 80       		.byte	-128
 1533 02c6 8E       		.byte	-114
ARM GAS  C:\Users\luvsd\AppData\Local\Temp\ccl3vs7c.s 			page 49


 1534 02c7 10       		.byte	16
 1535 02c8 90       		.byte	-112
 1536 02c9 20       		.byte	32
 1537 02ca 91       		.byte	-111
 1538 02cb 04       		.byte	4
 1539 02cc 92       		.byte	-110
 1540 02cd 01       		.byte	1
 1541 02ce 93       		.byte	-109
 1542 02cf 08       		.byte	8
 1543 02d0 96       		.byte	-106
 1544 02d1 80       		.byte	-128
 1545 02d2 98       		.byte	-104
 1546 02d3 02       		.byte	2
 1547 02d4 9A       		.byte	-102
 1548 02d5 23       		.byte	35
 1549 02d6 9B       		.byte	-101
 1550 02d7 05       		.byte	5
 1551 02d8 9C       		.byte	-100
 1552 02d9 80       		.byte	-128
 1553 02da 9F       		.byte	-97
 1554 02db 02       		.byte	2
 1555 02dc A0       		.byte	-96
 1556 02dd 08       		.byte	8
 1557 02de A1       		.byte	-95
 1558 02df 40       		.byte	64
 1559 02e0 A2       		.byte	-94
 1560 02e1 04       		.byte	4
 1561 02e2 AE       		.byte	-82
 1562 02e3 48       		.byte	72
 1563 02e4 B0       		.byte	-80
 1564 02e5 05       		.byte	5
 1565 02e6 B4       		.byte	-76
 1566 02e7 08       		.byte	8
 1567 02e8 C0       		.byte	-64
 1568 02e9 E1       		.byte	-31
 1569 02ea C2       		.byte	-62
 1570 02eb F3       		.byte	-13
 1571 02ec C4       		.byte	-60
 1572 02ed F3       		.byte	-13
 1573 02ee CA       		.byte	-54
 1574 02ef 20       		.byte	32
 1575 02f0 CC       		.byte	-52
 1576 02f1 A1       		.byte	-95
 1577 02f2 CE       		.byte	-50
 1578 02f3 54       		.byte	84
 1579 02f4 D0       		.byte	-48
 1580 02f5 E0       		.byte	-32
 1581 02f6 D2       		.byte	-46
 1582 02f7 30       		.byte	48
 1583 02f8 D6       		.byte	-42
 1584 02f9 0F       		.byte	15
 1585 02fa D8       		.byte	-40
 1586 02fb 78       		.byte	120
 1587 02fc DE       		.byte	-34
 1588 02fd 01       		.byte	1
 1589 02fe E0       		.byte	-32
 1590 02ff 10       		.byte	16
ARM GAS  C:\Users\luvsd\AppData\Local\Temp\ccl3vs7c.s 			page 50


 1591 0300 02       		.byte	2
 1592 0301 80       		.byte	-128
 1593 0302 04       		.byte	4
 1594 0303 07       		.byte	7
 1595 0304 05       		.byte	5
 1596 0305 98       		.byte	-104
 1597 0306 06       		.byte	6
 1598 0307 38       		.byte	56
 1599 0308 07       		.byte	7
 1600 0309 02       		.byte	2
 1601 030a 08       		.byte	8
 1602 030b 60       		.byte	96
 1603 030c 09       		.byte	9
 1604 030d 21       		.byte	33
 1605 030e 0B       		.byte	11
 1606 030f D8       		.byte	-40
 1607 0310 0C       		.byte	12
 1608 0311 04       		.byte	4
 1609 0312 0D       		.byte	13
 1610 0313 38       		.byte	56
 1611 0314 0F       		.byte	15
 1612 0315 C0       		.byte	-64
 1613 0316 10       		.byte	16
 1614 0317 04       		.byte	4
 1615 0318 11       		.byte	17
 1616 0319 98       		.byte	-104
 1617 031a 12       		.byte	18
 1618 031b 80       		.byte	-128
 1619 031c 13       		.byte	19
 1620 031d 02       		.byte	2
 1621 031e 14       		.byte	20
 1622 031f 80       		.byte	-128
 1623 0320 15       		.byte	21
 1624 0321 13       		.byte	19
 1625 0322 16       		.byte	22
 1626 0323 04       		.byte	4
 1627 0324 17       		.byte	23
 1628 0325 64       		.byte	100
 1629 0326 18       		.byte	24
 1630 0327 56       		.byte	86
 1631 0328 19       		.byte	25
 1632 0329 FC       		.byte	-4
 1633 032a 1A       		.byte	26
 1634 032b 09       		.byte	9
 1635 032c 1B       		.byte	27
 1636 032d 03       		.byte	3
 1637 032e 1C       		.byte	28
 1638 032f 01       		.byte	1
 1639 0330 20       		.byte	32
 1640 0331 84       		.byte	-124
 1641 0332 21       		.byte	33
 1642 0333 9A       		.byte	-102
 1643 0334 24       		.byte	36
 1644 0335 0A       		.byte	10
 1645 0336 25       		.byte	37
 1646 0337 02       		.byte	2
 1647 0338 26       		.byte	38
ARM GAS  C:\Users\luvsd\AppData\Local\Temp\ccl3vs7c.s 			page 51


 1648 0339 10       		.byte	16
 1649 033a 28       		.byte	40
 1650 033b 84       		.byte	-124
 1651 033c 29       		.byte	41
 1652 033d 02       		.byte	2
 1653 033e 2B       		.byte	43
 1654 033f 98       		.byte	-104
 1655 0340 2C       		.byte	44
 1656 0341 84       		.byte	-124
 1657 0342 2D       		.byte	45
 1658 0343 9A       		.byte	-102
 1659 0344 33       		.byte	51
 1660 0345 13       		.byte	19
 1661 0346 34       		.byte	52
 1662 0347 80       		.byte	-128
 1663 0348 35       		.byte	53
 1664 0349 0F       		.byte	15
 1665 034a 36       		.byte	54
 1666 034b 7F       		.byte	127
 1667 034c 37       		.byte	55
 1668 034d E0       		.byte	-32
 1669 034e 38       		.byte	56
 1670 034f 80       		.byte	-128
 1671 0350 3B       		.byte	59
 1672 0351 A0       		.byte	-96
 1673 0352 3E       		.byte	62
 1674 0353 10       		.byte	16
 1675 0354 54       		.byte	84
 1676 0355 40       		.byte	64
 1677 0356 58       		.byte	88
 1678 0357 04       		.byte	4
 1679 0358 59       		.byte	89
 1680 0359 04       		.byte	4
 1681 035a 5B       		.byte	91
 1682 035b 04       		.byte	4
 1683 035c 5C       		.byte	92
 1684 035d 11       		.byte	17
 1685 035e 5D       		.byte	93
 1686 035f 10       		.byte	16
 1687 0360 5F       		.byte	95
 1688 0361 01       		.byte	1
 1689 0362 84       		.byte	-124
 1690 0363 02       		.byte	2
 1691 0364 85       		.byte	-123
 1692 0365 1D       		.byte	29
 1693 0366 86       		.byte	-122
 1694 0367 0D       		.byte	13
 1695 0368 89       		.byte	-119
 1696 0369 80       		.byte	-128
 1697 036a 8D       		.byte	-115
 1698 036b 1D       		.byte	29
 1699 036c 91       		.byte	-111
 1700 036d 0D       		.byte	13
 1701 036e 93       		.byte	-109
 1702 036f 10       		.byte	16
 1703 0370 94       		.byte	-108
 1704 0371 13       		.byte	19
ARM GAS  C:\Users\luvsd\AppData\Local\Temp\ccl3vs7c.s 			page 52


 1705 0372 95       		.byte	-107
 1706 0373 1D       		.byte	29
 1707 0374 96       		.byte	-106
 1708 0375 2C       		.byte	44
 1709 0376 98       		.byte	-104
 1710 0377 19       		.byte	25
 1711 0378 99       		.byte	-103
 1712 0379 21       		.byte	33
 1713 037a 9A       		.byte	-102
 1714 037b 26       		.byte	38
 1715 037c 9B       		.byte	-101
 1716 037d 42       		.byte	66
 1717 037e 9D       		.byte	-99
 1718 037f 02       		.byte	2
 1719 0380 9F       		.byte	-97
 1720 0381 0D       		.byte	13
 1721 0382 A1       		.byte	-95
 1722 0383 1D       		.byte	29
 1723 0384 A5       		.byte	-91
 1724 0385 82       		.byte	-126
 1725 0386 A7       		.byte	-89
 1726 0387 08       		.byte	8
 1727 0388 A8       		.byte	-88
 1728 0389 35       		.byte	53
 1729 038a A9       		.byte	-87
 1730 038b C2       		.byte	-62
 1731 038c AA       		.byte	-86
 1732 038d 0A       		.byte	10
 1733 038e AB       		.byte	-85
 1734 038f 24       		.byte	36
 1735 0390 B0       		.byte	-80
 1736 0391 20       		.byte	32
 1737 0392 B3       		.byte	-77
 1738 0393 10       		.byte	16
 1739 0394 B4       		.byte	-76
 1740 0395 0F       		.byte	15
 1741 0396 B5       		.byte	-75
 1742 0397 E0       		.byte	-32
 1743 0398 B6       		.byte	-74
 1744 0399 10       		.byte	16
 1745 039a B7       		.byte	-73
 1746 039b 0F       		.byte	15
 1747 039c BA       		.byte	-70
 1748 039d 20       		.byte	32
 1749 039e BB       		.byte	-69
 1750 039f A0       		.byte	-96
 1751 03a0 BE       		.byte	-66
 1752 03a1 41       		.byte	65
 1753 03a2 BF       		.byte	-65
 1754 03a3 04       		.byte	4
 1755 03a4 D6       		.byte	-42
 1756 03a5 02       		.byte	2
 1757 03a6 D7       		.byte	-41
 1758 03a7 24       		.byte	36
 1759 03a8 D8       		.byte	-40
 1760 03a9 04       		.byte	4
 1761 03aa D9       		.byte	-39
ARM GAS  C:\Users\luvsd\AppData\Local\Temp\ccl3vs7c.s 			page 53


 1762 03ab 04       		.byte	4
 1763 03ac DB       		.byte	-37
 1764 03ad 04       		.byte	4
 1765 03ae DC       		.byte	-36
 1766 03af 11       		.byte	17
 1767 03b0 DD       		.byte	-35
 1768 03b1 10       		.byte	16
 1769 03b2 DF       		.byte	-33
 1770 03b3 01       		.byte	1
 1771 03b4 00       		.byte	0
 1772 03b5 04       		.byte	4
 1773 03b6 06       		.byte	6
 1774 03b7 88       		.byte	-120
 1775 03b8 07       		.byte	7
 1776 03b9 11       		.byte	17
 1777 03ba 08       		.byte	8
 1778 03bb 10       		.byte	16
 1779 03bc 09       		.byte	9
 1780 03bd 28       		.byte	40
 1781 03be 0C       		.byte	12
 1782 03bf 0A       		.byte	10
 1783 03c0 0D       		.byte	13
 1784 03c1 20       		.byte	32
 1785 03c2 0E       		.byte	14
 1786 03c3 02       		.byte	2
 1787 03c4 10       		.byte	16
 1788 03c5 04       		.byte	4
 1789 03c6 11       		.byte	17
 1790 03c7 20       		.byte	32
 1791 03c8 15       		.byte	21
 1792 03c9 02       		.byte	2
 1793 03ca 16       		.byte	22
 1794 03cb 02       		.byte	2
 1795 03cc 17       		.byte	23
 1796 03cd 28       		.byte	40
 1797 03ce 18       		.byte	24
 1798 03cf 04       		.byte	4
 1799 03d0 19       		.byte	25
 1800 03d1 40       		.byte	64
 1801 03d2 1A       		.byte	26
 1802 03d3 40       		.byte	64
 1803 03d4 1E       		.byte	30
 1804 03d5 02       		.byte	2
 1805 03d6 1F       		.byte	31
 1806 03d7 10       		.byte	16
 1807 03d8 21       		.byte	33
 1808 03d9 20       		.byte	32
 1809 03da 22       		.byte	34
 1810 03db 84       		.byte	-124
 1811 03dc 24       		.byte	36
 1812 03dd 08       		.byte	8
 1813 03de 25       		.byte	37
 1814 03df 58       		.byte	88
 1815 03e0 26       		.byte	38
 1816 03e1 08       		.byte	8
 1817 03e2 27       		.byte	39
 1818 03e3 19       		.byte	25
ARM GAS  C:\Users\luvsd\AppData\Local\Temp\ccl3vs7c.s 			page 54


 1819 03e4 28       		.byte	40
 1820 03e5 14       		.byte	20
 1821 03e6 2A       		.byte	42
 1822 03e7 02       		.byte	2
 1823 03e8 2C       		.byte	44
 1824 03e9 08       		.byte	8
 1825 03ea 2D       		.byte	45
 1826 03eb 40       		.byte	64
 1827 03ec 2E       		.byte	46
 1828 03ed 02       		.byte	2
 1829 03ee 2F       		.byte	47
 1830 03ef 20       		.byte	32
 1831 03f0 30       		.byte	48
 1832 03f1 0A       		.byte	10
 1833 03f2 32       		.byte	50
 1834 03f3 80       		.byte	-128
 1835 03f4 33       		.byte	51
 1836 03f5 10       		.byte	16
 1837 03f6 34       		.byte	52
 1838 03f7 10       		.byte	16
 1839 03f8 36       		.byte	54
 1840 03f9 08       		.byte	8
 1841 03fa 37       		.byte	55
 1842 03fb 02       		.byte	2
 1843 03fc 39       		.byte	57
 1844 03fd 44       		.byte	68
 1845 03fe 3A       		.byte	58
 1846 03ff 10       		.byte	16
 1847 0400 3D       		.byte	61
 1848 0401 A0       		.byte	-96
 1849 0402 3E       		.byte	62
 1850 0403 04       		.byte	4
 1851 0404 4D       		.byte	77
 1852 0405 40       		.byte	64
 1853 0406 4E       		.byte	78
 1854 0407 01       		.byte	1
 1855 0408 60       		.byte	96
 1856 0409 04       		.byte	4
 1857 040a 66       		.byte	102
 1858 040b 80       		.byte	-128
 1859 040c 67       		.byte	103
 1860 040d 28       		.byte	40
 1861 040e 68       		.byte	104
 1862 040f 0A       		.byte	10
 1863 0410 69       		.byte	105
 1864 0411 06       		.byte	6
 1865 0412 6A       		.byte	106
 1866 0413 06       		.byte	6
 1867 0414 6B       		.byte	107
 1868 0415 22       		.byte	34
 1869 0416 6F       		.byte	111
 1870 0417 02       		.byte	2
 1871 0418 72       		.byte	114
 1872 0419 02       		.byte	2
 1873 041a 84       		.byte	-124
 1874 041b 01       		.byte	1
 1875 041c 87       		.byte	-121
ARM GAS  C:\Users\luvsd\AppData\Local\Temp\ccl3vs7c.s 			page 55


 1876 041d 04       		.byte	4
 1877 041e 8E       		.byte	-114
 1878 041f 01       		.byte	1
 1879 0420 8F       		.byte	-113
 1880 0421 02       		.byte	2
 1881 0422 94       		.byte	-108
 1882 0423 08       		.byte	8
 1883 0424 96       		.byte	-106
 1884 0425 48       		.byte	72
 1885 0426 9A       		.byte	-102
 1886 0427 98       		.byte	-104
 1887 0428 9D       		.byte	-99
 1888 0429 40       		.byte	64
 1889 042a A0       		.byte	-96
 1890 042b 01       		.byte	1
 1891 042c A3       		.byte	-93
 1892 042d 20       		.byte	32
 1893 042e A5       		.byte	-91
 1894 042f 28       		.byte	40
 1895 0430 AB       		.byte	-85
 1896 0431 40       		.byte	64
 1897 0432 AE       		.byte	-82
 1898 0433 40       		.byte	64
 1899 0434 B4       		.byte	-76
 1900 0435 40       		.byte	64
 1901 0436 B5       		.byte	-75
 1902 0437 04       		.byte	4
 1903 0438 C0       		.byte	-64
 1904 0439 F4       		.byte	-12
 1905 043a C2       		.byte	-62
 1906 043b F6       		.byte	-10
 1907 043c C4       		.byte	-60
 1908 043d F2       		.byte	-14
 1909 043e CA       		.byte	-54
 1910 043f F7       		.byte	-9
 1911 0440 CC       		.byte	-52
 1912 0441 EF       		.byte	-17
 1913 0442 CE       		.byte	-50
 1914 0443 7E       		.byte	126
 1915 0444 D8       		.byte	-40
 1916 0445 74       		.byte	116
 1917 0446 E2       		.byte	-30
 1918 0447 90       		.byte	-112
 1919 0448 E6       		.byte	-26
 1920 0449 40       		.byte	64
 1921 044a EA       		.byte	-22
 1922 044b 50       		.byte	80
 1923 044c 61       		.byte	97
 1924 044d 01       		.byte	1
 1925 044e 68       		.byte	104
 1926 044f 01       		.byte	1
 1927 0450 6E       		.byte	110
 1928 0451 20       		.byte	32
 1929 0452 72       		.byte	114
 1930 0453 02       		.byte	2
 1931 0454 8B       		.byte	-117
 1932 0455 40       		.byte	64
ARM GAS  C:\Users\luvsd\AppData\Local\Temp\ccl3vs7c.s 			page 56


 1933 0456 D8       		.byte	-40
 1934 0457 40       		.byte	64
 1935 0458 DA       		.byte	-38
 1936 0459 C0       		.byte	-64
 1937 045a DC       		.byte	-36
 1938 045b 20       		.byte	32
 1939 045c 08       		.byte	8
 1940 045d 08       		.byte	8
 1941 045e 52       		.byte	82
 1942 045f 20       		.byte	32
 1943 0460 56       		.byte	86
 1944 0461 20       		.byte	32
 1945 0462 5F       		.byte	95
 1946 0463 40       		.byte	64
 1947 0464 80       		.byte	-128
 1948 0465 08       		.byte	8
 1949 0466 82       		.byte	-126
 1950 0467 20       		.byte	32
 1951 0468 8A       		.byte	-118
 1952 0469 10       		.byte	16
 1953 046a 93       		.byte	-109
 1954 046b 40       		.byte	64
 1955 046c 9E       		.byte	-98
 1956 046d 02       		.byte	2
 1957 046e A4       		.byte	-92
 1958 046f 01       		.byte	1
 1959 0470 A6       		.byte	-90
 1960 0471 10       		.byte	16
 1961 0472 A9       		.byte	-87
 1962 0473 01       		.byte	1
 1963 0474 C2       		.byte	-62
 1964 0475 10       		.byte	16
 1965 0476 D4       		.byte	-44
 1966 0477 60       		.byte	96
 1967 0478 D6       		.byte	-42
 1968 0479 20       		.byte	32
 1969 047a E4       		.byte	-28
 1970 047b 20       		.byte	32
 1971 047c E6       		.byte	-26
 1972 047d 80       		.byte	-128
 1973 047e EA       		.byte	-22
 1974 047f 20       		.byte	32
 1975 0480 07       		.byte	7
 1976 0481 10       		.byte	16
 1977 0482 12       		.byte	18
 1978 0483 20       		.byte	32
 1979 0484 50       		.byte	80
 1980 0485 04       		.byte	4
 1981 0486 58       		.byte	88
 1982 0487 10       		.byte	16
 1983 0488 5B       		.byte	91
 1984 0489 02       		.byte	2
 1985 048a 67       		.byte	103
 1986 048b 80       		.byte	-128
 1987 048c 87       		.byte	-121
 1988 048d 40       		.byte	64
 1989 048e 8E       		.byte	-114
ARM GAS  C:\Users\luvsd\AppData\Local\Temp\ccl3vs7c.s 			page 57


 1990 048f 20       		.byte	32
 1991 0490 9E       		.byte	-98
 1992 0491 22       		.byte	34
 1993 0492 A4       		.byte	-92
 1994 0493 01       		.byte	1
 1995 0494 C0       		.byte	-64
 1996 0495 20       		.byte	32
 1997 0496 C4       		.byte	-60
 1998 0497 10       		.byte	16
 1999 0498 D4       		.byte	-44
 2000 0499 A0       		.byte	-96
 2001 049a D6       		.byte	-42
 2002 049b 40       		.byte	64
 2003 049c D8       		.byte	-40
 2004 049d 80       		.byte	-128
 2005 049e E2       		.byte	-30
 2006 049f 10       		.byte	16
 2007 04a0 88       		.byte	-120
 2008 04a1 01       		.byte	1
 2009 04a2 8C       		.byte	-116
 2010 04a3 04       		.byte	4
 2011 04a4 8E       		.byte	-114
 2012 04a5 20       		.byte	32
 2013 04a6 94       		.byte	-108
 2014 04a7 08       		.byte	8
 2015 04a8 9E       		.byte	-98
 2016 04a9 20       		.byte	32
 2017 04aa A4       		.byte	-92
 2018 04ab 01       		.byte	1
 2019 04ac AB       		.byte	-85
 2020 04ad 10       		.byte	16
 2021 04ae AC       		.byte	-84
 2022 04af 10       		.byte	16
 2023 04b0 B6       		.byte	-74
 2024 04b1 02       		.byte	2
 2025 04b2 B7       		.byte	-73
 2026 04b3 02       		.byte	2
 2027 04b4 E8       		.byte	-24
 2028 04b5 20       		.byte	32
 2029 04b6 EE       		.byte	-18
 2030 04b7 40       		.byte	64
 2031 04b8 26       		.byte	38
 2032 04b9 10       		.byte	16
 2033 04ba 53       		.byte	83
 2034 04bb 10       		.byte	16
 2035 04bc 56       		.byte	86
 2036 04bd 20       		.byte	32
 2037 04be 58       		.byte	88
 2038 04bf 40       		.byte	64
 2039 04c0 5C       		.byte	92
 2040 04c1 02       		.byte	2
 2041 04c2 5F       		.byte	95
 2042 04c3 40       		.byte	64
 2043 04c4 60       		.byte	96
 2044 04c5 08       		.byte	8
 2045 04c6 C8       		.byte	-56
 2046 04c7 04       		.byte	4
ARM GAS  C:\Users\luvsd\AppData\Local\Temp\ccl3vs7c.s 			page 58


 2047 04c8 D4       		.byte	-44
 2048 04c9 07       		.byte	7
 2049 04ca D6       		.byte	-42
 2050 04cb 05       		.byte	5
 2051 04cc D8       		.byte	-40
 2052 04cd 02       		.byte	2
 2053 04ce 07       		.byte	7
 2054 04cf 04       		.byte	4
 2055 04d0 9C       		.byte	-100
 2056 04d1 4A       		.byte	74
 2057 04d2 AF       		.byte	-81
 2058 04d3 40       		.byte	64
 2059 04d4 B2       		.byte	-78
 2060 04d5 30       		.byte	48
 2061 04d6 B3       		.byte	-77
 2062 04d7 10       		.byte	16
 2063 04d8 C0       		.byte	-64
 2064 04d9 01       		.byte	1
 2065 04da E8       		.byte	-24
 2066 04db 04       		.byte	4
 2067 04dc EA       		.byte	-22
 2068 04dd 01       		.byte	1
 2069 04de EC       		.byte	-20
 2070 04df 01       		.byte	1
 2071 04e0 8C       		.byte	-116
 2072 04e1 08       		.byte	8
 2073 04e2 9C       		.byte	-100
 2074 04e3 08       		.byte	8
 2075 04e4 B0       		.byte	-80
 2076 04e5 42       		.byte	66
 2077 04e6 B7       		.byte	-73
 2078 04e7 04       		.byte	4
 2079 04e8 E0       		.byte	-32
 2080 04e9 02       		.byte	2
 2081 04ea E8       		.byte	-24
 2082 04eb 05       		.byte	5
 2083 04ec EE       		.byte	-18
 2084 04ed 08       		.byte	8
 2085 04ee 2D       		.byte	45
 2086 04ef 08       		.byte	8
 2087 04f0 89       		.byte	-119
 2088 04f1 08       		.byte	8
 2089 04f2 CA       		.byte	-54
 2090 04f3 01       		.byte	1
 2091 04f4 E2       		.byte	-30
 2092 04f5 01       		.byte	1
 2093 04f6 10       		.byte	16
 2094 04f7 08       		.byte	8
 2095 04f8 11       		.byte	17
 2096 04f9 01       		.byte	1
 2097 04fa 12       		.byte	18
 2098 04fb 0E       		.byte	14
 2099 04fc 13       		.byte	19
 2100 04fd 01       		.byte	1
 2101 04fe 0000     		.space	2
 2102              		.type	cy_cfg_addr_table.4971, %object
 2103              		.size	cy_cfg_addr_table.4971, 72
ARM GAS  C:\Users\luvsd\AppData\Local\Temp\ccl3vs7c.s 			page 59


 2104              	cy_cfg_addr_table.4971:
 2105 0500 04000F40 		.word	1074724868
 2106 0504 0E300F40 		.word	1074737166
 2107 0508 34310F40 		.word	1074737460
 2108 050c 68320F40 		.word	1074737768
 2109 0510 56330F40 		.word	1074738006
 2110 0514 16340F40 		.word	1074738198
 2111 0518 50350F40 		.word	1074738512
 2112 051c 5A360F40 		.word	1074738778
 2113 0520 4C370F40 		.word	1074739020
 2114 0524 08400F40 		.word	1074741256
 2115 0528 12410F40 		.word	1074741522
 2116 052c 10420F40 		.word	1074741776
 2117 0530 0C430F40 		.word	1074742028
 2118 0534 0B440F40 		.word	1074742283
 2119 0538 09450F40 		.word	1074742537
 2120 053c 07460F40 		.word	1074742791
 2121 0540 04470F40 		.word	1074743044
 2122 0544 04600F40 		.word	1074749444
 2123              		.type	BS_UDB_0_3_1_CONFIG_VAL.4983, %object
 2124              		.size	BS_UDB_0_3_1_CONFIG_VAL.4983, 128
 2125              	BS_UDB_0_3_1_CONFIG_VAL.4983:
 2126 0548 84       		.byte	-124
 2127 0549 0D       		.byte	13
 2128 054a 00       		.byte	0
 2129 054b 00       		.byte	0
 2130 054c 56       		.byte	86
 2131 054d 02       		.byte	2
 2132 054e 09       		.byte	9
 2133 054f 0D       		.byte	13
 2134 0550 80       		.byte	-128
 2135 0551 0D       		.byte	13
 2136 0552 04       		.byte	4
 2137 0553 00       		.byte	0
 2138 0554 04       		.byte	4
 2139 0555 92       		.byte	-110
 2140 0556 00       		.byte	0
 2141 0557 68       		.byte	104
 2142 0558 01       		.byte	1
 2143 0559 0D       		.byte	13
 2144 055a 00       		.byte	0
 2145 055b 00       		.byte	0
 2146 055c 0A       		.byte	10
 2147 055d 0D       		.byte	13
 2148 055e 10       		.byte	16
 2149 055f 00       		.byte	0
 2150 0560 84       		.byte	-124
 2151 0561 20       		.byte	32
 2152 0562 00       		.byte	0
 2153 0563 D0       		.byte	-48
 2154 0564 60       		.byte	96
 2155 0565 00       		.byte	0
 2156 0566 00       		.byte	0
 2157 0567 00       		.byte	0
 2158 0568 04       		.byte	4
 2159 0569 00       		.byte	0
 2160 056a 80       		.byte	-128
ARM GAS  C:\Users\luvsd\AppData\Local\Temp\ccl3vs7c.s 			page 60


 2161 056b 00       		.byte	0
 2162 056c 00       		.byte	0
 2163 056d 52       		.byte	82
 2164 056e 00       		.byte	0
 2165 056f A4       		.byte	-92
 2166 0570 07       		.byte	7
 2167 0571 31       		.byte	49
 2168 0572 38       		.byte	56
 2169 0573 C2       		.byte	-62
 2170 0574 84       		.byte	-124
 2171 0575 0D       		.byte	13
 2172 0576 00       		.byte	0
 2173 0577 00       		.byte	0
 2174 0578 7F       		.byte	127
 2175 0579 00       		.byte	0
 2176 057a 80       		.byte	-128
 2177 057b 0F       		.byte	15
 2178 057c 00       		.byte	0
 2179 057d F0       		.byte	-16
 2180 057e 00       		.byte	0
 2181 057f 00       		.byte	0
 2182 0580 02       		.byte	2
 2183 0581 00       		.byte	0
 2184 0582 00       		.byte	0
 2185 0583 28       		.byte	40
 2186 0584 00       		.byte	0
 2187 0585 00       		.byte	0
 2188 0586 04       		.byte	4
 2189 0587 00       		.byte	0
 2190 0588 61       		.byte	97
 2191 0589 02       		.byte	2
 2192 058a 30       		.byte	48
 2193 058b 00       		.byte	0
 2194 058c 05       		.byte	5
 2195 058d B0       		.byte	-80
 2196 058e FE       		.byte	-2
 2197 058f DC       		.byte	-36
 2198 0590 3E       		.byte	62
 2199 0591 FF       		.byte	-1
 2200 0592 FF       		.byte	-1
 2201 0593 FF       		.byte	-1
 2202 0594 22       		.byte	34
 2203 0595 00       		.byte	0
 2204 0596 F0       		.byte	-16
 2205 0597 08       		.byte	8
 2206 0598 04       		.byte	4
 2207 0599 00       		.byte	0
 2208 059a 00       		.byte	0
 2209 059b 00       		.byte	0
 2210 059c 00       		.byte	0
 2211 059d 00       		.byte	0
 2212 059e 02       		.byte	2
 2213 059f 24       		.byte	36
 2214 05a0 04       		.byte	4
 2215 05a1 04       		.byte	4
 2216 05a2 04       		.byte	4
 2217 05a3 04       		.byte	4
ARM GAS  C:\Users\luvsd\AppData\Local\Temp\ccl3vs7c.s 			page 61


 2218 05a4 33       		.byte	51
 2219 05a5 33       		.byte	51
 2220 05a6 00       		.byte	0
 2221 05a7 01       		.byte	1
 2222 05a8 00       		.byte	0
 2223 05a9 00       		.byte	0
 2224 05aa C0       		.byte	-64
 2225 05ab 00       		.byte	0
 2226 05ac 40       		.byte	64
 2227 05ad 01       		.byte	1
 2228 05ae 10       		.byte	16
 2229 05af 11       		.byte	17
 2230 05b0 C0       		.byte	-64
 2231 05b1 01       		.byte	1
 2232 05b2 00       		.byte	0
 2233 05b3 11       		.byte	17
 2234 05b4 40       		.byte	64
 2235 05b5 01       		.byte	1
 2236 05b6 40       		.byte	64
 2237 05b7 01       		.byte	1
 2238 05b8 00       		.byte	0
 2239 05b9 00       		.byte	0
 2240 05ba 00       		.byte	0
 2241 05bb 00       		.byte	0
 2242 05bc 00       		.byte	0
 2243 05bd 00       		.byte	0
 2244 05be 00       		.byte	0
 2245 05bf 00       		.byte	0
 2246 05c0 00       		.byte	0
 2247 05c1 00       		.byte	0
 2248 05c2 00       		.byte	0
 2249 05c3 00       		.byte	0
 2250 05c4 00       		.byte	0
 2251 05c5 00       		.byte	0
 2252 05c6 00       		.byte	0
 2253 05c7 00       		.byte	0
 2254              		.type	BS_UDB_0_1_1_CONFIG_VAL.4984, %object
 2255              		.size	BS_UDB_0_1_1_CONFIG_VAL.4984, 128
 2256              	BS_UDB_0_1_1_CONFIG_VAL.4984:
 2257 05c8 00       		.byte	0
 2258 05c9 00       		.byte	0
 2259 05ca 00       		.byte	0
 2260 05cb 00       		.byte	0
 2261 05cc 38       		.byte	56
 2262 05cd 05       		.byte	5
 2263 05ce 00       		.byte	0
 2264 05cf 3A       		.byte	58
 2265 05d0 01       		.byte	1
 2266 05d1 00       		.byte	0
 2267 05d2 00       		.byte	0
 2268 05d3 00       		.byte	0
 2269 05d4 00       		.byte	0
 2270 05d5 04       		.byte	4
 2271 05d6 01       		.byte	1
 2272 05d7 39       		.byte	57
 2273 05d8 00       		.byte	0
 2274 05d9 00       		.byte	0
ARM GAS  C:\Users\luvsd\AppData\Local\Temp\ccl3vs7c.s 			page 62


 2275 05da 04       		.byte	4
 2276 05db 10       		.byte	16
 2277 05dc 50       		.byte	80
 2278 05dd 00       		.byte	0
 2279 05de 2E       		.byte	46
 2280 05df 00       		.byte	0
 2281 05e0 01       		.byte	1
 2282 05e1 0E       		.byte	14
 2283 05e2 00       		.byte	0
 2284 05e3 00       		.byte	0
 2285 05e4 01       		.byte	1
 2286 05e5 00       		.byte	0
 2287 05e6 00       		.byte	0
 2288 05e7 00       		.byte	0
 2289 05e8 00       		.byte	0
 2290 05e9 00       		.byte	0
 2291 05ea 01       		.byte	1
 2292 05eb 00       		.byte	0
 2293 05ec 4A       		.byte	74
 2294 05ed 00       		.byte	0
 2295 05ee 10       		.byte	16
 2296 05ef 00       		.byte	0
 2297 05f0 10       		.byte	16
 2298 05f1 23       		.byte	35
 2299 05f2 66       		.byte	102
 2300 05f3 04       		.byte	4
 2301 05f4 01       		.byte	1
 2302 05f5 00       		.byte	0
 2303 05f6 00       		.byte	0
 2304 05f7 00       		.byte	0
 2305 05f8 06       		.byte	6
 2306 05f9 00       		.byte	0
 2307 05fa 78       		.byte	120
 2308 05fb 00       		.byte	0
 2309 05fc 01       		.byte	1
 2310 05fd 0F       		.byte	15
 2311 05fe 00       		.byte	0
 2312 05ff 30       		.byte	48
 2313 0600 08       		.byte	8
 2314 0601 20       		.byte	32
 2315 0602 00       		.byte	0
 2316 0603 00       		.byte	0
 2317 0604 00       		.byte	0
 2318 0605 00       		.byte	0
 2319 0606 10       		.byte	16
 2320 0607 00       		.byte	0
 2321 0608 62       		.byte	98
 2322 0609 03       		.byte	3
 2323 060a 40       		.byte	64
 2324 060b 00       		.byte	0
 2325 060c 05       		.byte	5
 2326 060d 0E       		.byte	14
 2327 060e CD       		.byte	-51
 2328 060f FB       		.byte	-5
 2329 0610 3D       		.byte	61
 2330 0611 FF       		.byte	-1
 2331 0612 FF       		.byte	-1
ARM GAS  C:\Users\luvsd\AppData\Local\Temp\ccl3vs7c.s 			page 63


 2332 0613 FF       		.byte	-1
 2333 0614 22       		.byte	34
 2334 0615 00       		.byte	0
 2335 0616 F0       		.byte	-16
 2336 0617 08       		.byte	8
 2337 0618 04       		.byte	4
 2338 0619 00       		.byte	0
 2339 061a 00       		.byte	0
 2340 061b 00       		.byte	0
 2341 061c 40       		.byte	64
 2342 061d 00       		.byte	0
 2343 061e 00       		.byte	0
 2344 061f 00       		.byte	0
 2345 0620 04       		.byte	4
 2346 0621 04       		.byte	4
 2347 0622 04       		.byte	4
 2348 0623 04       		.byte	4
 2349 0624 31       		.byte	49
 2350 0625 31       		.byte	49
 2351 0626 00       		.byte	0
 2352 0627 01       		.byte	1
 2353 0628 00       		.byte	0
 2354 0629 00       		.byte	0
 2355 062a C0       		.byte	-64
 2356 062b 00       		.byte	0
 2357 062c 40       		.byte	64
 2358 062d 01       		.byte	1
 2359 062e 10       		.byte	16
 2360 062f 11       		.byte	17
 2361 0630 C0       		.byte	-64
 2362 0631 01       		.byte	1
 2363 0632 00       		.byte	0
 2364 0633 11       		.byte	17
 2365 0634 40       		.byte	64
 2366 0635 01       		.byte	1
 2367 0636 40       		.byte	64
 2368 0637 01       		.byte	1
 2369 0638 00       		.byte	0
 2370 0639 00       		.byte	0
 2371 063a 00       		.byte	0
 2372 063b 00       		.byte	0
 2373 063c 00       		.byte	0
 2374 063d 00       		.byte	0
 2375 063e 00       		.byte	0
 2376 063f 00       		.byte	0
 2377 0640 00       		.byte	0
 2378 0641 00       		.byte	0
 2379 0642 00       		.byte	0
 2380 0643 00       		.byte	0
 2381 0644 00       		.byte	0
 2382 0645 00       		.byte	0
 2383 0646 00       		.byte	0
 2384 0647 00       		.byte	0
 2385              		.text
 2386              	.Letext0:
 2387              		.file 2 "c:\\program files (x86)\\cypress\\psoc creator\\4.4\\psoc creator\\import\\gnu\\arm\\5.4.
 2388              		.file 3 "Generated_Source\\PSoC4\\cytypes.h"
ARM GAS  C:\Users\luvsd\AppData\Local\Temp\ccl3vs7c.s 			page 64


 2389              		.file 4 "Generated_Source\\PSoC4\\CyLFClk.h"
 2390              		.file 5 "Generated_Source\\PSoC4\\CyLib.h"