ARM GAS  C:\Users\theGu\AppData\Local\Temp\ccyUZ0As.s 			page 1


   1              		.syntax unified
   2              		.cpu cortex-m0
   3              		.fpu softvfp
   4              		.eabi_attribute 20, 1
   5              		.eabi_attribute 21, 1
   6              		.eabi_attribute 23, 3
   7              		.eabi_attribute 24, 1
   8              		.eabi_attribute 25, 1
   9              		.eabi_attribute 26, 1
  10              		.eabi_attribute 30, 1
  11              		.eabi_attribute 34, 0
  12              		.eabi_attribute 18, 4
  13              		.thumb
  14              		.syntax unified
  15              		.file	"eeprom.c"
  16              		.text
  17              	.Ltext0:
  18              		.cfi_sections	.debug_frame
  19              		.section	.text.checkSum,"ax",%progbits
  20              		.align	2
  21              		.global	checkSum
  22              		.code	16
  23              		.thumb_func
  24              		.type	checkSum, %function
  25              	checkSum:
  26              	.LFB61:
  27              		.file 1 "eeprom.c"
   1:eeprom.c      **** /* ========================================
   2:eeprom.c      ****  *
   3:eeprom.c      ****  * Copyright YOUR COMPANY, THE YEAR
   4:eeprom.c      ****  * All Rights Reserved
   5:eeprom.c      ****  * UNPUBLISHED, LICENSED SOFTWARE.
   6:eeprom.c      ****  *
   7:eeprom.c      ****  * CONFIDENTIAL AND PROPRIETARY INFORMATION
   8:eeprom.c      ****  * WHICH IS THE PROPERTY OF your company.
   9:eeprom.c      ****  *
  10:eeprom.c      ****  * ========================================
  11:eeprom.c      **** */
  12:eeprom.c      **** #include "eeprom.h"
  13:eeprom.c      **** #include "w25qxx.h"
  14:eeprom.c      **** 
  15:eeprom.c      **** //CONFIG_SAVE g_ConfigSave;
  16:eeprom.c      **** //CONFIG_META g_ConfigMeta;
  17:eeprom.c      **** 
  18:eeprom.c      **** WORKING_DATA g_WorkingData;
  19:eeprom.c      **** 
  20:eeprom.c      **** void initEEPROM();
  21:eeprom.c      **** 
  22:eeprom.c      **** #define WATER_MARK              123
  23:eeprom.c      **** 
  24:eeprom.c      **** uint16 checkSum(uint8 *data, uint16 size)
  25:eeprom.c      **** {
  28              		.loc 1 25 0
  29              		.cfi_startproc
  30              		@ args = 0, pretend = 0, frame = 0
  31              		@ frame_needed = 0, uses_anonymous_args = 0
  32              	.LVL0:
ARM GAS  C:\Users\theGu\AppData\Local\Temp\ccyUZ0As.s 			page 2


  33 0000 10B5     		push	{r4, lr}
  34              		.cfi_def_cfa_offset 8
  35              		.cfi_offset 4, -8
  36              		.cfi_offset 14, -4
  37              	.LVL1:
  38              	.LBB2:
  26:eeprom.c      ****     uint16 checkSum = 0;
  27:eeprom.c      ****     for(int i=1; i < size; i++)
  39              		.loc 1 27 0
  40 0002 0122     		movs	r2, #1
  41              	.LBE2:
  26:eeprom.c      ****     uint16 checkSum = 0;
  42              		.loc 1 26 0
  43 0004 0023     		movs	r3, #0
  44              	.LBB3:
  45              		.loc 1 27 0
  46 0006 03E0     		b	.L2
  47              	.LVL2:
  48              	.L3:
  28:eeprom.c      ****     {
  29:eeprom.c      ****         checkSum += data[i];
  49              		.loc 1 29 0 discriminator 3
  50 0008 845C     		ldrb	r4, [r0, r2]
  51 000a 1B19     		adds	r3, r3, r4
  52              	.LVL3:
  53 000c 9BB2     		uxth	r3, r3
  54              	.LVL4:
  27:eeprom.c      ****     {
  55              		.loc 1 27 0 discriminator 3
  56 000e 0132     		adds	r2, r2, #1
  57              	.LVL5:
  58              	.L2:
  27:eeprom.c      ****     {
  59              		.loc 1 27 0 is_stmt 0 discriminator 1
  60 0010 8A42     		cmp	r2, r1
  61 0012 F9DB     		blt	.L3
  62              	.LBE3:
  30:eeprom.c      ****     }
  31:eeprom.c      ****     return (~checkSum + 1);
  63              		.loc 1 31 0 is_stmt 1
  64 0014 5842     		rsbs	r0, r3, #0
  65              	.LVL6:
  66 0016 80B2     		uxth	r0, r0
  32:eeprom.c      **** }
  67              		.loc 1 32 0
  68              		@ sp needed
  69 0018 10BD     		pop	{r4, pc}
  70              		.cfi_endproc
  71              	.LFE61:
  72              		.size	checkSum, .-checkSum
  73 001a C046     		.section	.text.IsAvaliableConfig,"ax",%progbits
  74              		.align	2
  75              		.global	IsAvaliableConfig
  76              		.code	16
  77              		.thumb_func
  78              		.type	IsAvaliableConfig, %function
  79              	IsAvaliableConfig:
ARM GAS  C:\Users\theGu\AppData\Local\Temp\ccyUZ0As.s 			page 3


  80              	.LFB62:
  33:eeprom.c      **** 
  34:eeprom.c      **** uint8 IsAvaliableConfig()
  35:eeprom.c      **** {
  81              		.loc 1 35 0
  82              		.cfi_startproc
  83              		@ args = 0, pretend = 0, frame = 0
  84              		@ frame_needed = 0, uses_anonymous_args = 0
  85              		@ link register save eliminated.
  36:eeprom.c      **** //    if(g_ConfigSave.WaterMark != WATER_MARK)
  37:eeprom.c      **** //    {
  38:eeprom.c      **** //        DEBUG_printf("WaterMark Error of EEPROM\r\n");
  39:eeprom.c      **** //        return FALSE;
  40:eeprom.c      **** //    }
  41:eeprom.c      **** //
  42:eeprom.c      **** //    if(g_ConfigSave.checksum != checkSum((uint8*) &g_ConfigSave, sizeof(g_ConfigSave)-2))
  43:eeprom.c      **** //    {
  44:eeprom.c      **** //        DEBUG_printf("CRC Error of EEPROM\r\n");        
  45:eeprom.c      **** //        return FALSE;
  46:eeprom.c      **** //    }
  47:eeprom.c      **** 
  48:eeprom.c      ****     return TRUE;
  49:eeprom.c      **** }
  86              		.loc 1 49 0
  87 0000 0120     		movs	r0, #1
  88              		@ sp needed
  89 0002 7047     		bx	lr
  90              		.cfi_endproc
  91              	.LFE62:
  92              		.size	IsAvaliableConfig, .-IsAvaliableConfig
  93              		.section	.text.SaveConfig,"ax",%progbits
  94              		.align	2
  95              		.global	SaveConfig
  96              		.code	16
  97              		.thumb_func
  98              		.type	SaveConfig, %function
  99              	SaveConfig:
 100              	.LFB65:
  50:eeprom.c      **** 
  51:eeprom.c      **** #ifdef EXTERNAL_FLASH
  52:eeprom.c      **** 
  53:eeprom.c      **** uint32_t g_uAddressOfConfig=0;
  54:eeprom.c      **** uint32_t g_uSectorOfConfig=0;
  55:eeprom.c      **** 
  56:eeprom.c      **** void initFLASH()
  57:eeprom.c      **** {
  58:eeprom.c      ****     while(!W25qxx_Init());    
  59:eeprom.c      ****     
  60:eeprom.c      ****     initEEPROM();  
  61:eeprom.c      ****     
  62:eeprom.c      ****     g_uSectorOfConfig = (w25qxx.SectorCount-1);
  63:eeprom.c      ****     g_uAddressOfConfig = g_uSectorOfConfig * w25qxx.SectorSize;
  64:eeprom.c      ****     
  65:eeprom.c      ****     LoadConfig();
  66:eeprom.c      ****    
  67:eeprom.c      **** }    
  68:eeprom.c      **** 
ARM GAS  C:\Users\theGu\AppData\Local\Temp\ccyUZ0As.s 			page 4


  69:eeprom.c      **** uint8 LoadConfig()
  70:eeprom.c      **** {
  71:eeprom.c      ****     uint32_t g_uSectorOfWifiConfig = w25qxx.SectorCount-1;
  72:eeprom.c      ****     uint32_t g_uAddressOfWifiConfig = g_uSectorOfWifiConfig * w25qxx.SectorSize;
  73:eeprom.c      **** 
  74:eeprom.c      **** //    uint8_t *p = (uint8 *) & g_ConfigSave;
  75:eeprom.c      **** //    
  76:eeprom.c      **** //    W25qxx_ReadBytes(p, g_uAddressOfWifiConfig,sizeof(g_ConfigSave));
  77:eeprom.c      ****   
  78:eeprom.c      ****     if(!IsAvaliableConfig())
  79:eeprom.c      ****     {
  80:eeprom.c      **** //        memset(&g_ConfigSave,0,sizeof(g_ConfigSave));
  81:eeprom.c      **** //        
  82:eeprom.c      **** //        g_WorkingData.trimCount = 0;
  83:eeprom.c      **** //        g_ConfigSave.target        = DEFAULT_TARGET;
  84:eeprom.c      **** //        g_ConfigSave.minTarget     = DEFAULT_MIN_TARGET;
  85:eeprom.c      **** //        g_ConfigSave.maxTarget     = DEFULAT_MAX_TARGET;
  86:eeprom.c      **** //        g_ConfigSave.LedBrightness = 10;
  87:eeprom.c      ****         
  88:eeprom.c      ****         DEBUG_printf("Default Config.\r\n");
  89:eeprom.c      ****         
  90:eeprom.c      ****         SaveConfig(0);         
  91:eeprom.c      ****         return FALSE;
  92:eeprom.c      ****     }
  93:eeprom.c      ****     
  94:eeprom.c      **** //    g_ConfigSave.minTarget     = DEFAULT_MIN_TARGET;
  95:eeprom.c      **** //    g_ConfigSave.maxTarget     = DEFULAT_MAX_TARGET;
  96:eeprom.c      ****     
  97:eeprom.c      ****     PrintConfig();    
  98:eeprom.c      ****     return TRUE;
  99:eeprom.c      **** }
 100:eeprom.c      **** 
 101:eeprom.c      **** uint8 SaveConfig(uint8 mode)
 102:eeprom.c      **** {
 101              		.loc 1 102 0
 102              		.cfi_startproc
 103              		@ args = 0, pretend = 0, frame = 0
 104              		@ frame_needed = 0, uses_anonymous_args = 0
 105              		@ link register save eliminated.
 106              	.LVL7:
 107              	.LVL8:
 103:eeprom.c      **** //    uint32_t g_uSectorOfWifiConfig = w25qxx.SectorCount-1;
 104:eeprom.c      **** //    uint32_t g_uAddressOfWifiConfig = g_uSectorOfWifiConfig * w25qxx.SectorSize;
 105:eeprom.c      **** //    
 106:eeprom.c      **** //    uint8 WATERMARK;
 107:eeprom.c      **** //    uint16 CHECKSUM;
 108:eeprom.c      **** //    
 109:eeprom.c      **** //    PrintConfig();
 110:eeprom.c      **** //    
 111:eeprom.c      **** //    g_ConfigSave.Stat = mode;  
 112:eeprom.c      **** //    WATERMARK = g_ConfigSave.WaterMark = WATER_MARK;    
 113:eeprom.c      **** //    CHECKSUM  = g_ConfigSave.checksum = checkSum((uint8*) &g_ConfigSave, sizeof(g_ConfigSave)-2);
 114:eeprom.c      **** //    
 115:eeprom.c      **** //    PrintConfig();
 116:eeprom.c      **** //    
 117:eeprom.c      **** //    uint8_t *p = (uint8 *) & g_ConfigSave;
 118:eeprom.c      **** //    
ARM GAS  C:\Users\theGu\AppData\Local\Temp\ccyUZ0As.s 			page 5


 119:eeprom.c      **** //    W25qxx_EraseSector(g_uSectorOfWifiConfig);
 120:eeprom.c      **** //    
 121:eeprom.c      **** //    for(uint i=0; i < sizeof(g_ConfigSave); i++)
 122:eeprom.c      **** //    {
 123:eeprom.c      **** //        W25qxx_WriteByte(p[i], g_uAddressOfWifiConfig+i);
 124:eeprom.c      **** //    }
 125:eeprom.c      **** // 
 126:eeprom.c      **** //    PrintConfig();
 127:eeprom.c      **** //    CONFIG_SAVE g_ConfigSaveOld;
 128:eeprom.c      **** //    memcpy(&g_ConfigSaveOld, &g_ConfigSave, sizeof(g_ConfigSave));
 129:eeprom.c      **** //    memset(&g_ConfigSave,0,sizeof(g_ConfigSave));
 130:eeprom.c      **** //    
 131:eeprom.c      **** //    LoadConfig();
 132:eeprom.c      **** //
 133:eeprom.c      **** //    DEBUG_printf("CRC %d:%d, CheckSum %x:%x\r\n", WATERMARK, g_ConfigSave.WaterMark, CHECKSUM, g_
 134:eeprom.c      **** // //   DEBUG_printf("Save Config [%s, %s, %s, %s]\r\n",g_ConfigSave.SSID, g_ConfigSave.Password, g
 135:eeprom.c      **** // 
 136:eeprom.c      **** //    CyDelay(10);
 137:eeprom.c      **** //    
 138:eeprom.c      **** //    return memcmp(&g_ConfigSaveOld,&g_ConfigSave, sizeof(g_ConfigSave)) == 0 ? TRUE : FALSE;    
 139:eeprom.c      **** }
 108              		.loc 1 139 0
 109              		@ sp needed
 110 0000 7047     		bx	lr
 111              		.cfi_endproc
 112              	.LFE65:
 113              		.size	SaveConfig, .-SaveConfig
 114 0002 C046     		.section	.text.PrintConfig,"ax",%progbits
 115              		.align	2
 116              		.global	PrintConfig
 117              		.code	16
 118              		.thumb_func
 119              		.type	PrintConfig, %function
 120              	PrintConfig:
 121              	.LFB66:
 140:eeprom.c      **** 
 141:eeprom.c      **** void PrintConfig()
 142:eeprom.c      **** {
 122              		.loc 1 142 0
 123              		.cfi_startproc
 124              		@ args = 0, pretend = 0, frame = 0
 125              		@ frame_needed = 0, uses_anonymous_args = 0
 126 0000 10B5     		push	{r4, lr}
 127              		.cfi_def_cfa_offset 8
 128              		.cfi_offset 4, -8
 129              		.cfi_offset 14, -4
 143:eeprom.c      ****     
 144:eeprom.c      ****     DEBUG_printf("\r\nConfig :\r\n");
 130              		.loc 1 144 0
 131 0002 0C48     		ldr	r0, .L7
 132 0004 FFF7FEFF 		bl	DEBUG_printf
 133              	.LVL9:
 145:eeprom.c      ****     DEBUG_printf("\t Target        : %d\r\n",g_WorkingData.target);
 134              		.loc 1 145 0
 135 0008 0B4C     		ldr	r4, .L7+4
 136 000a A189     		ldrh	r1, [r4, #12]
 137 000c 0B48     		ldr	r0, .L7+8
ARM GAS  C:\Users\theGu\AppData\Local\Temp\ccyUZ0As.s 			page 6


 138 000e FFF7FEFF 		bl	DEBUG_printf
 139              	.LVL10:
 146:eeprom.c      ****     DEBUG_printf("\t min Target    : %d\r\n",g_WorkingData.minTarget);
 140              		.loc 1 146 0
 141 0012 E189     		ldrh	r1, [r4, #14]
 142 0014 0A48     		ldr	r0, .L7+12
 143 0016 FFF7FEFF 		bl	DEBUG_printf
 144              	.LVL11:
 147:eeprom.c      ****     DEBUG_printf("\t max Target    : %d\r\n",g_WorkingData.maxTarget);
 145              		.loc 1 147 0
 146 001a 218A     		ldrh	r1, [r4, #16]
 147 001c 0948     		ldr	r0, .L7+16
 148 001e FFF7FEFF 		bl	DEBUG_printf
 149              	.LVL12:
 148:eeprom.c      ****     DEBUG_printf("\t Trim          : %d\r\n",g_WorkingData.trimCount);
 150              		.loc 1 148 0
 151 0022 A188     		ldrh	r1, [r4, #4]
 152 0024 0848     		ldr	r0, .L7+20
 153 0026 FFF7FEFF 		bl	DEBUG_printf
 154              	.LVL13:
 149:eeprom.c      ****     DEBUG_printf("\t LED Brightness: %d\r\n",g_WorkingData.LedBrightness);
 155              		.loc 1 149 0
 156 002a 6189     		ldrh	r1, [r4, #10]
 157 002c 0748     		ldr	r0, .L7+24
 158 002e FFF7FEFF 		bl	DEBUG_printf
 159              	.LVL14:
 150:eeprom.c      **** 
 151:eeprom.c      **** //    DEBUG_printf("\r\n Stat : %d\r\n", g_WorkingData.Stat);
 152:eeprom.c      ****  
 153:eeprom.c      **** }
 160              		.loc 1 153 0
 161              		@ sp needed
 162 0032 10BD     		pop	{r4, pc}
 163              	.L8:
 164              		.align	2
 165              	.L7:
 166 0034 00000000 		.word	.LC0
 167 0038 00000000 		.word	g_WorkingData
 168 003c 10000000 		.word	.LC3
 169 0040 28000000 		.word	.LC5
 170 0044 40000000 		.word	.LC7
 171 0048 58000000 		.word	.LC9
 172 004c 70000000 		.word	.LC11
 173              		.cfi_endproc
 174              	.LFE66:
 175              		.size	PrintConfig, .-PrintConfig
 176              		.section	.text.LoadConfig,"ax",%progbits
 177              		.align	2
 178              		.global	LoadConfig
 179              		.code	16
 180              		.thumb_func
 181              		.type	LoadConfig, %function
 182              	LoadConfig:
 183              	.LFB64:
  70:eeprom.c      ****     uint32_t g_uSectorOfWifiConfig = w25qxx.SectorCount-1;
 184              		.loc 1 70 0
 185              		.cfi_startproc
ARM GAS  C:\Users\theGu\AppData\Local\Temp\ccyUZ0As.s 			page 7


 186              		@ args = 0, pretend = 0, frame = 0
 187              		@ frame_needed = 0, uses_anonymous_args = 0
 188 0000 10B5     		push	{r4, lr}
 189              		.cfi_def_cfa_offset 8
 190              		.cfi_offset 4, -8
 191              		.cfi_offset 14, -4
 192              	.LVL15:
  78:eeprom.c      ****     {
 193              		.loc 1 78 0
 194 0002 FFF7FEFF 		bl	IsAvaliableConfig
 195              	.LVL16:
 196 0006 041E     		subs	r4, r0, #0
 197 0008 03D1     		bne	.L10
  88:eeprom.c      ****         
 198              		.loc 1 88 0
 199 000a 0448     		ldr	r0, .L12
 200 000c FFF7FEFF 		bl	DEBUG_printf
 201              	.LVL17:
  91:eeprom.c      ****     }
 202              		.loc 1 91 0
 203 0010 02E0     		b	.L11
 204              	.L10:
  97:eeprom.c      ****     return TRUE;
 205              		.loc 1 97 0
 206 0012 FFF7FEFF 		bl	PrintConfig
 207              	.LVL18:
  98:eeprom.c      **** }
 208              		.loc 1 98 0
 209 0016 0124     		movs	r4, #1
 210              	.L11:
  99:eeprom.c      **** 
 211              		.loc 1 99 0
 212 0018 2000     		movs	r0, r4
 213              		@ sp needed
 214 001a 10BD     		pop	{r4, pc}
 215              	.L13:
 216              		.align	2
 217              	.L12:
 218 001c 88000000 		.word	.LC13
 219              		.cfi_endproc
 220              	.LFE64:
 221              		.size	LoadConfig, .-LoadConfig
 222              		.section	.text.PrintConfigUSBUART,"ax",%progbits
 223              		.align	2
 224              		.global	PrintConfigUSBUART
 225              		.code	16
 226              		.thumb_func
 227              		.type	PrintConfigUSBUART, %function
 228              	PrintConfigUSBUART:
 229              	.LFB67:
 154:eeprom.c      **** 
 155:eeprom.c      **** void PrintConfigUSBUART()
 156:eeprom.c      **** {  
 230              		.loc 1 156 0
 231              		.cfi_startproc
 232              		@ args = 0, pretend = 0, frame = 0
 233              		@ frame_needed = 0, uses_anonymous_args = 0
ARM GAS  C:\Users\theGu\AppData\Local\Temp\ccyUZ0As.s 			page 8


 234              		@ link register save eliminated.
 157:eeprom.c      **** }
 235              		.loc 1 157 0
 236              		@ sp needed
 237 0000 7047     		bx	lr
 238              		.cfi_endproc
 239              	.LFE67:
 240              		.size	PrintConfigUSBUART, .-PrintConfigUSBUART
 241 0002 C046     		.section	.text.LoadWorkData,"ax",%progbits
 242              		.align	2
 243              		.global	LoadWorkData
 244              		.code	16
 245              		.thumb_func
 246              		.type	LoadWorkData, %function
 247              	LoadWorkData:
 248              	.LFB68:
 158:eeprom.c      **** 
 159:eeprom.c      **** /*Logical Size of Em_EEPROM*/
 160:eeprom.c      **** #define LOGICAL_EEPROM_SIZE     128u
 161:eeprom.c      **** #define LOGICAL_EEPROM_START    0u
 162:eeprom.c      **** cy_en_em_eeprom_status_t eepromReturnValue;
 163:eeprom.c      **** 
 164:eeprom.c      **** /* EEPROM storage in work flash, this is defined in Em_EEPROM.c*/
 165:eeprom.c      **** #if defined (__ICCARM__)
 166:eeprom.c      **** #pragma data_alignment = CY_FLASH_SIZEOF_ROW
 167:eeprom.c      **** const uint8_t Em_EEPROM_em_EepromStorage[Em_EEPROM_PHYSICAL_SIZE] = {0u};
 168:eeprom.c      **** #else
 169:eeprom.c      **** const uint8_t Em_EEPROM_em_EepromStorage[Em_EEPROM_PHYSICAL_SIZE]
 170:eeprom.c      **** __ALIGNED(CY_FLASH_SIZEOF_ROW) = {0u};
 171:eeprom.c      **** #endif /* defined (__ICCARM__) */
 172:eeprom.c      **** 
 173:eeprom.c      **** 
 174:eeprom.c      **** void LoadWorkData()
 175:eeprom.c      **** {
 249              		.loc 1 175 0
 250              		.cfi_startproc
 251              		@ args = 0, pretend = 0, frame = 0
 252              		@ frame_needed = 0, uses_anonymous_args = 0
 253 0000 10B5     		push	{r4, lr}
 254              		.cfi_def_cfa_offset 8
 255              		.cfi_offset 4, -8
 256              		.cfi_offset 14, -4
 176:eeprom.c      ****     memset(&g_WorkingData, 0, sizeof(g_WorkingData));
 257              		.loc 1 176 0
 258 0002 174C     		ldr	r4, .L18
 259 0004 8022     		movs	r2, #128
 260 0006 0021     		movs	r1, #0
 261 0008 2000     		movs	r0, r4
 262 000a FFF7FEFF 		bl	memset
 263              	.LVL19:
 177:eeprom.c      ****     
 178:eeprom.c      ****     eepromReturnValue = Em_EEPROM_Read(LOGICAL_EEPROM_START, &g_WorkingData, LOGICAL_EEPROM_SIZE);
 264              		.loc 1 178 0
 265 000e 154B     		ldr	r3, .L18+4
 266 0010 8022     		movs	r2, #128
 267 0012 2100     		movs	r1, r4
 268 0014 0020     		movs	r0, #0
ARM GAS  C:\Users\theGu\AppData\Local\Temp\ccyUZ0As.s 			page 9


 269 0016 FFF7FEFF 		bl	Cy_Em_EEPROM_Read
 270              	.LVL20:
 271 001a 134B     		ldr	r3, .L18+8
 272 001c 1870     		strb	r0, [r3]
 179:eeprom.c      ****     //eepromReturnValue = Em_EEPROM_Read(LOGICAL_EEPROM_START, &g_WorkingData, LOGICAL_EEPROM_SIZE)
 180:eeprom.c      ****     if(eepromReturnValue != CY_EM_EEPROM_SUCCESS)
 273              		.loc 1 180 0
 274 001e 0028     		cmp	r0, #0
 275 0020 08D0     		beq	.L16
 181:eeprom.c      ****     {
 182:eeprom.c      ****         DEBUG_printf("Load ERRRRR\r\n");
 276              		.loc 1 182 0
 277 0022 1248     		ldr	r0, .L18+12
 278 0024 FFF7FEFF 		bl	DEBUG_printf
 279              	.LVL21:
 183:eeprom.c      ****         memset(&g_WorkingData, 0, sizeof(g_WorkingData));      
 280              		.loc 1 183 0
 281 0028 8022     		movs	r2, #128
 282 002a 0021     		movs	r1, #0
 283 002c 0C48     		ldr	r0, .L18
 284 002e FFF7FEFF 		bl	memset
 285              	.LVL22:
 184:eeprom.c      ****         return;
 286              		.loc 1 184 0
 287 0032 13E0     		b	.L15
 288              	.L16:
 185:eeprom.c      ****     }
 186:eeprom.c      ****     
 187:eeprom.c      ****     if(g_WorkingData.WaterMark != WORKING_DATA_WATERMARK)
 289              		.loc 1 187 0
 290 0034 0A4B     		ldr	r3, .L18
 291 0036 1A88     		ldrh	r2, [r3]
 292 0038 0D4B     		ldr	r3, .L18+16
 293 003a 9A42     		cmp	r2, r3
 294 003c 0ED0     		beq	.L15
 188:eeprom.c      ****     {
 189:eeprom.c      ****         memset(&g_WorkingData, 0, sizeof(g_WorkingData));
 295              		.loc 1 189 0
 296 003e 084C     		ldr	r4, .L18
 297 0040 8022     		movs	r2, #128
 298 0042 0021     		movs	r1, #0
 299 0044 2000     		movs	r0, r4
 300 0046 FFF7FEFF 		bl	memset
 301              	.LVL23:
 190:eeprom.c      ****         g_WorkingData.maxTarget = DEFULAT_MAX_TARGET;
 302              		.loc 1 190 0
 303 004a 0A4B     		ldr	r3, .L18+20
 304 004c 2382     		strh	r3, [r4, #16]
 191:eeprom.c      ****         g_WorkingData.minTarget = DEFAULT_MIN_TARGET;
 305              		.loc 1 191 0
 306 004e 0123     		movs	r3, #1
 307 0050 E381     		strh	r3, [r4, #14]
 192:eeprom.c      ****         g_WorkingData.target    = DEFAULT_TARGET;
 308              		.loc 1 192 0
 309 0052 FA22     		movs	r2, #250
 310 0054 9200     		lsls	r2, r2, #2
 311 0056 A281     		strh	r2, [r4, #12]
ARM GAS  C:\Users\theGu\AppData\Local\Temp\ccyUZ0As.s 			page 10


 193:eeprom.c      ****         g_WorkingData.noOfPairActual = DEFAULT_NO_OF_PAIR_ACTUAL;
 312              		.loc 1 193 0
 313 0058 E380     		strh	r3, [r4, #6]
 194:eeprom.c      ****         g_WorkingData.noOfPairTrim   = DEFAULT_NO_OF_PAIR_TRIM;
 314              		.loc 1 194 0
 315 005a 2381     		strh	r3, [r4, #8]
 316              	.L15:
 195:eeprom.c      ****     }        
 196:eeprom.c      **** }
 317              		.loc 1 196 0
 318              		@ sp needed
 319 005c 10BD     		pop	{r4, pc}
 320              	.L19:
 321 005e C046     		.align	2
 322              	.L18:
 323 0060 00000000 		.word	g_WorkingData
 324 0064 00000000 		.word	Em_EEPROM_context
 325 0068 00000000 		.word	eepromReturnValue
 326 006c 9C000000 		.word	.LC18
 327 0070 39300000 		.word	12345
 328 0074 60EAFFFF 		.word	-5536
 329              		.cfi_endproc
 330              	.LFE68:
 331              		.size	LoadWorkData, .-LoadWorkData
 332              		.section	.text.SaveWorkData,"ax",%progbits
 333              		.align	2
 334              		.global	SaveWorkData
 335              		.code	16
 336              		.thumb_func
 337              		.type	SaveWorkData, %function
 338              	SaveWorkData:
 339              	.LFB69:
 197:eeprom.c      **** 
 198:eeprom.c      **** void SaveWorkData()
 199:eeprom.c      **** {    
 340              		.loc 1 199 0
 341              		.cfi_startproc
 342              		@ args = 0, pretend = 0, frame = 0
 343              		@ frame_needed = 0, uses_anonymous_args = 0
 344 0000 10B5     		push	{r4, lr}
 345              		.cfi_def_cfa_offset 8
 346              		.cfi_offset 4, -8
 347              		.cfi_offset 14, -4
 200:eeprom.c      ****     g_WorkingData.WaterMark = WORKING_DATA_WATERMARK;
 348              		.loc 1 200 0
 349 0002 0749     		ldr	r1, .L22
 350 0004 074B     		ldr	r3, .L22+4
 351 0006 0B80     		strh	r3, [r1]
 201:eeprom.c      ****     cy_en_em_eeprom_status_t eepromReturnValue = Em_EEPROM_Write(LOGICAL_EEPROM_START, &g_WorkingDa
 352              		.loc 1 201 0
 353 0008 074B     		ldr	r3, .L22+8
 354 000a 8022     		movs	r2, #128
 355 000c 0020     		movs	r0, #0
 356 000e FFF7FEFF 		bl	Cy_Em_EEPROM_Write
 357              	.LVL24:
 202:eeprom.c      **** 
 203:eeprom.c      ****     if(eepromReturnValue != CY_EM_EEPROM_SUCCESS)
ARM GAS  C:\Users\theGu\AppData\Local\Temp\ccyUZ0As.s 			page 11


 358              		.loc 1 203 0
 359 0012 0028     		cmp	r0, #0
 360 0014 02D0     		beq	.L20
 204:eeprom.c      ****     {
 205:eeprom.c      ****         DEBUG_printf("Can't Save WORKING DATA\r\n");
 361              		.loc 1 205 0
 362 0016 0548     		ldr	r0, .L22+12
 363              	.LVL25:
 364 0018 FFF7FEFF 		bl	DEBUG_printf
 365              	.LVL26:
 366              	.L20:
 206:eeprom.c      ****         return;
 207:eeprom.c      ****     }       
 208:eeprom.c      **** }
 367              		.loc 1 208 0
 368              		@ sp needed
 369 001c 10BD     		pop	{r4, pc}
 370              	.L23:
 371 001e C046     		.align	2
 372              	.L22:
 373 0020 00000000 		.word	g_WorkingData
 374 0024 39300000 		.word	12345
 375 0028 00000000 		.word	Em_EEPROM_context
 376 002c AC000000 		.word	.LC22
 377              		.cfi_endproc
 378              	.LFE69:
 379              		.size	SaveWorkData, .-SaveWorkData
 380              		.section	.text.initEEPROM,"ax",%progbits
 381              		.align	2
 382              		.global	initEEPROM
 383              		.code	16
 384              		.thumb_func
 385              		.type	initEEPROM, %function
 386              	initEEPROM:
 387              	.LFB70:
 209:eeprom.c      **** 
 210:eeprom.c      **** void initEEPROM()
 211:eeprom.c      **** {
 388              		.loc 1 211 0
 389              		.cfi_startproc
 390              		@ args = 0, pretend = 0, frame = 0
 391              		@ frame_needed = 0, uses_anonymous_args = 0
 392 0000 10B5     		push	{r4, lr}
 393              		.cfi_def_cfa_offset 8
 394              		.cfi_offset 4, -8
 395              		.cfi_offset 14, -4
 212:eeprom.c      ****     if(LOGICAL_EEPROM_SIZE != sizeof(WORKING_DATA))
 213:eeprom.c      ****     {
 214:eeprom.c      ****         DEBUG_printf("WORKING_DATA size is not same as Em_EEPROM_PHYSICAL_SIZE, %d != %d\r\n",LOGIC
 215:eeprom.c      ****         return;
 216:eeprom.c      ****     }
 217:eeprom.c      ****     
 218:eeprom.c      ****     cy_en_em_eeprom_status_t eepromReturnValue = Em_EEPROM_Init((uint32_t)Em_EEPROM_em_EepromStorag
 396              		.loc 1 218 0
 397 0002 0648     		ldr	r0, .L27
 398 0004 FFF7FEFF 		bl	Em_EEPROM_Init
 399              	.LVL27:
ARM GAS  C:\Users\theGu\AppData\Local\Temp\ccyUZ0As.s 			page 12


 219:eeprom.c      ****     if(eepromReturnValue != CY_EM_EEPROM_SUCCESS)
 400              		.loc 1 219 0
 401 0008 0028     		cmp	r0, #0
 402 000a 03D0     		beq	.L25
 220:eeprom.c      ****     {
 221:eeprom.c      ****         DEBUG_printf("ERROR in initEEPROM()\r\n");
 403              		.loc 1 221 0
 404 000c 0448     		ldr	r0, .L27+4
 405              	.LVL28:
 406 000e FFF7FEFF 		bl	DEBUG_printf
 407              	.LVL29:
 222:eeprom.c      ****         return;
 408              		.loc 1 222 0
 409 0012 01E0     		b	.L24
 410              	.LVL30:
 411              	.L25:
 223:eeprom.c      ****     }    
 224:eeprom.c      ****     
 225:eeprom.c      ****     LoadWorkData();
 412              		.loc 1 225 0
 413 0014 FFF7FEFF 		bl	LoadWorkData
 414              	.LVL31:
 415              	.L24:
 226:eeprom.c      **** }
 416              		.loc 1 226 0
 417              		@ sp needed
 418 0018 10BD     		pop	{r4, pc}
 419              	.L28:
 420 001a C046     		.align	2
 421              	.L27:
 422 001c 00000000 		.word	.LANCHOR0
 423 0020 C8000000 		.word	.LC25
 424              		.cfi_endproc
 425              	.LFE70:
 426              		.size	initEEPROM, .-initEEPROM
 427              		.section	.text.initFLASH,"ax",%progbits
 428              		.align	2
 429              		.global	initFLASH
 430              		.code	16
 431              		.thumb_func
 432              		.type	initFLASH, %function
 433              	initFLASH:
 434              	.LFB63:
  57:eeprom.c      ****     while(!W25qxx_Init());    
 435              		.loc 1 57 0
 436              		.cfi_startproc
 437              		@ args = 0, pretend = 0, frame = 0
 438              		@ frame_needed = 0, uses_anonymous_args = 0
 439 0000 10B5     		push	{r4, lr}
 440              		.cfi_def_cfa_offset 8
 441              		.cfi_offset 4, -8
 442              		.cfi_offset 14, -4
 443              	.L30:
  58:eeprom.c      ****     
 444              		.loc 1 58 0 discriminator 1
 445 0002 FFF7FEFF 		bl	W25qxx_Init
 446              	.LVL32:
ARM GAS  C:\Users\theGu\AppData\Local\Temp\ccyUZ0As.s 			page 13


 447 0006 0028     		cmp	r0, #0
 448 0008 FBD0     		beq	.L30
  60:eeprom.c      ****     
 449              		.loc 1 60 0
 450 000a FFF7FEFF 		bl	initEEPROM
 451              	.LVL33:
  62:eeprom.c      ****     g_uAddressOfConfig = g_uSectorOfConfig * w25qxx.SectorSize;
 452              		.loc 1 62 0
 453 000e 054A     		ldr	r2, .L31
 454 0010 5369     		ldr	r3, [r2, #20]
 455 0012 013B     		subs	r3, r3, #1
 456 0014 0449     		ldr	r1, .L31+4
 457 0016 0B60     		str	r3, [r1]
  63:eeprom.c      ****     
 458              		.loc 1 63 0
 459 0018 1269     		ldr	r2, [r2, #16]
 460 001a 5343     		muls	r3, r2
 461 001c 4B60     		str	r3, [r1, #4]
  65:eeprom.c      ****    
 462              		.loc 1 65 0
 463 001e FFF7FEFF 		bl	LoadConfig
 464              	.LVL34:
  67:eeprom.c      **** 
 465              		.loc 1 67 0
 466              		@ sp needed
 467 0022 10BD     		pop	{r4, pc}
 468              	.L32:
 469              		.align	2
 470              	.L31:
 471 0024 00000000 		.word	w25qxx
 472 0028 00000000 		.word	.LANCHOR1
 473              		.cfi_endproc
 474              	.LFE63:
 475              		.size	initFLASH, .-initFLASH
 476              		.global	Em_EEPROM_em_EepromStorage
 477              		.comm	eepromReturnValue,1,1
 478              		.global	g_uSectorOfConfig
 479              		.global	g_uAddressOfConfig
 480              		.comm	g_WorkingData,128,4
 481              		.comm	Param,6,4
 482              		.section	.rodata
 483              		.align	8
 484              		.set	.LANCHOR0,. + 0
 485              		.type	Em_EEPROM_em_EepromStorage, %object
 486              		.size	Em_EEPROM_em_EepromStorage, 2560
 487              	Em_EEPROM_em_EepromStorage:
 488 0000 00000000 		.space	2560
 488      00000000 
 488      00000000 
 488      00000000 
 488      00000000 
 489              		.section	.rodata.str1.4,"aMS",%progbits,1
 490              		.align	2
 491              	.LC0:
 492 0000 0D0A436F 		.ascii	"\015\012Config :\015\012\000"
 492      6E666967 
 492      203A0D0A 
ARM GAS  C:\Users\theGu\AppData\Local\Temp\ccyUZ0As.s 			page 14


 492      00
 493 000d 000000   		.space	3
 494              	.LC3:
 495 0010 09205461 		.ascii	"\011 Target        : %d\015\012\000"
 495      72676574 
 495      20202020 
 495      20202020 
 495      3A202564 
 496 0027 00       		.space	1
 497              	.LC5:
 498 0028 09206D69 		.ascii	"\011 min Target    : %d\015\012\000"
 498      6E205461 
 498      72676574 
 498      20202020 
 498      3A202564 
 499 003f 00       		.space	1
 500              	.LC7:
 501 0040 09206D61 		.ascii	"\011 max Target    : %d\015\012\000"
 501      78205461 
 501      72676574 
 501      20202020 
 501      3A202564 
 502 0057 00       		.space	1
 503              	.LC9:
 504 0058 09205472 		.ascii	"\011 Trim          : %d\015\012\000"
 504      696D2020 
 504      20202020 
 504      20202020 
 504      3A202564 
 505 006f 00       		.space	1
 506              	.LC11:
 507 0070 09204C45 		.ascii	"\011 LED Brightness: %d\015\012\000"
 507      44204272 
 507      69676874 
 507      6E657373 
 507      3A202564 
 508 0087 00       		.space	1
 509              	.LC13:
 510 0088 44656661 		.ascii	"Default Config.\015\012\000"
 510      756C7420 
 510      436F6E66 
 510      69672E0D 
 510      0A00
 511 009a 0000     		.space	2
 512              	.LC18:
 513 009c 4C6F6164 		.ascii	"Load ERRRRR\015\012\000"
 513      20455252 
 513      5252520D 
 513      0A00
 514 00aa 0000     		.space	2
 515              	.LC22:
 516 00ac 43616E27 		.ascii	"Can't Save WORKING DATA\015\012\000"
 516      74205361 
 516      76652057 
 516      4F524B49 
 516      4E472044 
 517 00c6 0000     		.space	2
ARM GAS  C:\Users\theGu\AppData\Local\Temp\ccyUZ0As.s 			page 15


 518              	.LC25:
 519 00c8 4552524F 		.ascii	"ERROR in initEEPROM()\015\012\000"
 519      5220696E 
 519      20696E69 
 519      74454550 
 519      524F4D28 
 520              		.bss
 521              		.align	2
 522              		.set	.LANCHOR1,. + 0
 523              		.type	g_uSectorOfConfig, %object
 524              		.size	g_uSectorOfConfig, 4
 525              	g_uSectorOfConfig:
 526 0000 00000000 		.space	4
 527              		.type	g_uAddressOfConfig, %object
 528              		.size	g_uAddressOfConfig, 4
 529              	g_uAddressOfConfig:
 530 0004 00000000 		.space	4
 531              		.text
 532              	.Letext0:
 533              		.file 2 "c:\\program files (x86)\\cypress\\psoc creator\\4.4\\psoc creator\\import\\gnu\\arm\\5.4.
 534              		.file 3 "c:\\program files (x86)\\cypress\\psoc creator\\4.4\\psoc creator\\import\\gnu\\arm\\5.4.
 535              		.file 4 "Generated_Source\\PSoC4/cytypes.h"
 536              		.file 5 "Generated_Source\\PSoC4/cy_em_eeprom.h"
 537              		.file 6 "main.h"
 538              		.file 7 "eeprom.h"
 539              		.file 8 "w25qxx.h"
 540              		.file 9 "Generated_Source\\PSoC4/Em_EEPROM.h"
 541              		.file 10 "debug.h"