ARM GAS  C:\Users\luvsd\AppData\Local\Temp\ccsVxFSo.s 			page 1


   1              		.syntax unified
   2              		.cpu cortex-m0
   3              		.fpu softvfp
   4              		.eabi_attribute 20, 1
   5              		.eabi_attribute 21, 1
   6              		.eabi_attribute 23, 3
   7              		.eabi_attribute 24, 1
   8              		.eabi_attribute 25, 1
   9              		.eabi_attribute 26, 1
  10              		.eabi_attribute 30, 1
  11              		.eabi_attribute 34, 0
  12              		.eabi_attribute 18, 4
  13              		.thumb
  14              		.syntax unified
  15              		.file	"main.c"
  16              		.text
  17              	.Ltext0:
  18              		.cfi_sections	.debug_frame
  19              		.section	.text.main,"ax",%progbits
  20              		.align	2
  21              		.global	main
  22              		.code	16
  23              		.thumb_func
  24              		.type	main, %function
  25              	main:
  26              	.LFB62:
  27              		.file 1 "main.c"
   1:main.c        **** 
   2:main.c        **** #include "main.h"
   3:main.c        **** #include "setup.h"
   4:main.c        **** #include "userTimer.h"
   5:main.c        **** #include "USBJsonConfig.h"
   6:main.c        **** #include "lib/WIFI.h"
   7:main.c        **** #include "menuDesign.h"
   8:main.c        **** #include "lib/LEDControl.h"
   9:main.c        **** #include "count.h"
  10:main.c        **** #include "package.h"
  11:main.c        **** #include "userProjectPatternSewing.h"
  12:main.c        **** #include "lib/internalFlash.h"
  13:main.c        **** #include "andonApi.h"
  14:main.c        **** //#include "lib/image.h"
  15:main.c        **** //#include "lib/fonts.h"
  16:main.c        **** 
  17:main.c        **** extern uint8 OneSecondIndex;
  18:main.c        **** 
  19:main.c        **** // image.h를 사용하면, SRAM의 50%를 차지한다.
  20:main.c        **** void currentSensorRoutine();
  21:main.c        **** 
  22:main.c        **** int main(void)
  23:main.c        **** {
  28              		.loc 1 23 0
  29              		.cfi_startproc
  30              		@ Volatile: function does not return.
  31              		@ args = 0, pretend = 0, frame = 0
  32              		@ frame_needed = 0, uses_anonymous_args = 0
  33 0000 70B5     		push	{r4, r5, r6, lr}
  34              		.cfi_def_cfa_offset 16
ARM GAS  C:\Users\luvsd\AppData\Local\Temp\ccsVxFSo.s 			page 2


  35              		.cfi_offset 4, -16
  36              		.cfi_offset 5, -12
  37              		.cfi_offset 6, -8
  38              		.cfi_offset 14, -4
  24:main.c        ****     /* Enable WCO */
  25:main.c        ****     CySysClkWcoStart();
  39              		.loc 1 25 0
  40 0002 FFF7FEFF 		bl	CySysClkWcoStart
  41              	.LVL0:
  26:main.c        ****     
  27:main.c        ****     CyGlobalIntEnable; /* Enable global interrupts. */
  42              		.loc 1 27 0
  43              		.syntax divided
  44              	@ 27 "main.c" 1
  45 0006 62B6     		CPSIE   i
  46              	@ 0 "" 2
  28:main.c        ****  
  29:main.c        ****     SetUp();
  47              		.loc 1 29 0
  48              		.thumb
  49              		.syntax unified
  50 0008 FFF7FEFF 		bl	SetUp
  51              	.LVL1:
  30:main.c        ****  
  31:main.c        ****     LCD_Backlight_Write(1);  
  52              		.loc 1 31 0
  53 000c 0120     		movs	r0, #1
  54 000e FFF7FEFF 		bl	LCD_Backlight_Write
  55              	.LVL2:
  32:main.c        ****         
  33:main.c        ****     g_uLED1_Color = LED_RED;
  56              		.loc 1 33 0
  57 0012 0122     		movs	r2, #1
  58 0014 1B4B     		ldr	r3, .L4
  59 0016 1A80     		strh	r2, [r3]
  34:main.c        ****     g_bLED1_Flickering = TRUE;
  60              		.loc 1 34 0
  61 0018 1B4B     		ldr	r3, .L4+4
  62 001a 1A70     		strb	r2, [r3]
  35:main.c        **** 
  36:main.c        ****     printf("SunTech IoT Start...\r\n");    
  63              		.loc 1 36 0
  64 001c 1B48     		ldr	r0, .L4+8
  65 001e FFF7FEFF 		bl	puts
  66              	.LVL3:
  67              	.L3:
  37:main.c        ****     //printf("00-->%d %d : %d\r\n", g_ptrMachineParameter->current_enable, g_ptrMachineParameter->c
  38:main.c        ****    
  39:main.c        ****     for(;;)
  40:main.c        ****     {
  41:main.c        **** 
  42:main.c        ****         currentSensorRoutine();
  68              		.loc 1 42 0
  69 0022 FFF7FEFF 		bl	currentSensorRoutine
  70              	.LVL4:
  43:main.c        **** 
  44:main.c        ****         OneMilliSecond_MainLoop(); //1ms 마다 작동하는 함수 (시간은 정확하지 않음)
ARM GAS  C:\Users\luvsd\AppData\Local\Temp\ccsVxFSo.s 			page 3


  71              		.loc 1 44 0
  72 0026 FFF7FEFF 		bl	OneMilliSecond_MainLoop
  73              	.LVL5:
  45:main.c        ****         OneSecond_MainLoop();      // 1s 마다 작동하는 함수 (시간은 정확하지 않음)
  74              		.loc 1 45 0
  75 002a FFF7FEFF 		bl	OneSecond_MainLoop
  76              	.LVL6:
  46:main.c        ****         
  47:main.c        ****         usbJsonParsorLoop();
  77              		.loc 1 47 0
  78 002e FFF7FEFF 		bl	usbJsonParsorLoop
  79              	.LVL7:
  48:main.c        ****         
  49:main.c        ****         wifiLoop();   
  80              		.loc 1 49 0
  81 0032 FFF7FEFF 		bl	wifiLoop
  82              	.LVL8:
  50:main.c        ****         
  51:main.c        ****         if(isFinishCounter_1s(OneSecondIndex))
  83              		.loc 1 51 0
  84 0036 164B     		ldr	r3, .L4+12
  85 0038 1878     		ldrb	r0, [r3]
  86 003a FFF7FEFF 		bl	isFinishCounter_1s
  87              	.LVL9:
  88 003e 0028     		cmp	r0, #0
  89 0040 19D0     		beq	.L2
  52:main.c        ****         {
  53:main.c        ****             WorkingTimeCount();
  90              		.loc 1 53 0
  91 0042 FFF7FEFF 		bl	WorkingTimeCount
  92              	.LVL10:
  54:main.c        ****             LED_OneSecondControl();// LED2_B_Write(!LED2_B_ReadDataReg());
  93              		.loc 1 54 0
  94 0046 FFF7FEFF 		bl	LED_OneSecondControl
  95              	.LVL11:
  55:main.c        ****             
  56:main.c        ****             if(g_bStartTrimPin)
  96              		.loc 1 56 0
  97 004a 124B     		ldr	r3, .L4+16
  98 004c 1B78     		ldrb	r3, [r3]
  99 004e 002B     		cmp	r3, #0
 100 0050 11D0     		beq	.L2
  57:main.c        ****             {
  58:main.c        ****                 g_bTrimElapsedTime++;
 101              		.loc 1 58 0
 102 0052 114A     		ldr	r2, .L4+20
 103 0054 1388     		ldrh	r3, [r2]
 104 0056 0133     		adds	r3, r3, #1
 105 0058 9BB2     		uxth	r3, r3
 106 005a 1380     		strh	r3, [r2]
  59:main.c        ****                 if(TrimPin_Read() != 0)
 107              		.loc 1 59 0
 108 005c FFF7FEFF 		bl	TrimPin_Read
 109              	.LVL12:
 110 0060 0028     		cmp	r0, #0
 111 0062 08D0     		beq	.L2
  60:main.c        ****                 {
ARM GAS  C:\Users\luvsd\AppData\Local\Temp\ccsVxFSo.s 			page 4


  61:main.c        ****                     g_bStartTrimPin = FALSE;
 112              		.loc 1 61 0
 113 0064 0025     		movs	r5, #0
 114 0066 0B4B     		ldr	r3, .L4+16
 115 0068 1D70     		strb	r5, [r3]
  62:main.c        ****                     makeAndonSewingCount2(g_bTrimElapsedTime);
 116              		.loc 1 62 0
 117 006a 0B4C     		ldr	r4, .L4+20
 118 006c 2088     		ldrh	r0, [r4]
 119 006e 80B2     		uxth	r0, r0
 120 0070 FFF7FEFF 		bl	makeAndonSewingCount2
 121              	.LVL13:
  63:main.c        ****                     g_bTrimElapsedTime = 0;
 122              		.loc 1 63 0
 123 0074 2580     		strh	r5, [r4]
 124              	.L2:
  64:main.c        ****                 }
  65:main.c        ****             }
  66:main.c        ****         }
  67:main.c        **** 
  68:main.c        ****         MenuLoop();        
 125              		.loc 1 68 0
 126 0076 FFF7FEFF 		bl	MenuLoop
 127              	.LVL14:
  69:main.c        ****         CountFunc();        
 128              		.loc 1 69 0
 129 007a 084B     		ldr	r3, .L4+24
 130 007c 1B68     		ldr	r3, [r3]
 131 007e 9847     		blx	r3
 132              	.LVL15:
  70:main.c        **** 
  71:main.c        ****     }
 133              		.loc 1 71 0
 134 0080 CFE7     		b	.L3
 135              	.L5:
 136 0082 C046     		.align	2
 137              	.L4:
 138 0084 00000000 		.word	g_uLED1_Color
 139 0088 00000000 		.word	g_bLED1_Flickering
 140 008c 00000000 		.word	.LC2
 141 0090 00000000 		.word	OneSecondIndex
 142 0094 00000000 		.word	g_bStartTrimPin
 143 0098 00000000 		.word	g_bTrimElapsedTime
 144 009c 00000000 		.word	CountFunc
 145              		.cfi_endproc
 146              	.LFE62:
 147              		.size	main, .-main
 148              		.comm	Param,6,4
 149              		.section	.rodata.str1.4,"aMS",%progbits,1
 150              		.align	2
 151              	.LC2:
 152 0000 53756E54 		.ascii	"SunTech IoT Start...\015\000"
 152      65636820 
 152      496F5420 
 152      53746172 
 152      742E2E2E 
 153              		.text
ARM GAS  C:\Users\luvsd\AppData\Local\Temp\ccsVxFSo.s 			page 5


 154              	.Letext0:
 155              		.file 2 "c:\\program files (x86)\\cypress\\psoc creator\\4.4\\psoc creator\\import\\gnu\\arm\\5.4.
 156              		.file 3 "c:\\program files (x86)\\cypress\\psoc creator\\4.4\\psoc creator\\import\\gnu\\arm\\5.4.
 157              		.file 4 "Generated_Source\\PSoC4/cytypes.h"
 158              		.file 5 "main.h"
 159              		.file 6 "lib/fonts.h"
 160              		.file 7 "Generated_Source\\PSoC4/RTC.h"
 161              		.file 8 "lib/LEDControl.h"
 162              		.file 9 "count.h"
 163              		.file 10 "Generated_Source\\PSoC4/CyLFClk.h"
 164              		.file 11 "setup.h"
 165              		.file 12 "Generated_Source\\PSoC4/LCD_Backlight.h"
 166              		.file 13 "userTimer.h"
 167              		.file 14 "USBJsonConfig.h"
 168              		.file 15 "lib/WIFI.h"
 169              		.file 16 "lib/RealTimeClock.h"
 170              		.file 17 "Generated_Source\\PSoC4/TrimPin.h"
 171              		.file 18 "andonApi.h"
 172              		.file 19 "lib/menu.h"
 173              		.file 20 "<built-in>"