ARM GAS  C:\Users\luvsd\AppData\Local\Temp\ccoEPQt3.s 			page 1


   1              		.syntax unified
   2              		.cpu cortex-m0
   3              		.fpu softvfp
   4              		.eabi_attribute 20, 1
   5              		.eabi_attribute 21, 1
   6              		.eabi_attribute 23, 3
   7              		.eabi_attribute 24, 1
   8              		.eabi_attribute 25, 1
   9              		.eabi_attribute 26, 1
  10              		.eabi_attribute 30, 1
  11              		.eabi_attribute 34, 0
  12              		.eabi_attribute 18, 4
  13              		.thumb
  14              		.syntax unified
  15              		.file	"ST7789V.c"
  16              		.text
  17              	.Ltext0:
  18              		.cfi_sections	.debug_frame
  19              		.section	.text.Delay,"ax",%progbits
  20              		.align	2
  21              		.global	Delay
  22              		.code	16
  23              		.thumb_func
  24              		.type	Delay, %function
  25              	Delay:
  26              	.LFB62:
  27              		.file 1 "lib\\ST7789V.c"
   1:lib/ST7789V.c **** /******************************************************************************
   2:lib/ST7789V.c **** * Project Name      : SmartBeeHive
   3:lib/ST7789V.c **** * File Name         : ST7789V.c
   4:lib/ST7789V.c **** * Version           : Version 1.0
   5:lib/ST7789V.c **** * Device Used       : CYBLE-022001-00
   6:lib/ST7789V.c **** * Software Used     : PSoC Creator 3.3 SP1
   7:lib/ST7789V.c **** * Compiler          : ARM GCC 4.9.3
   8:lib/ST7789V.c **** * Related Hardware  : 
   9:lib/ST7789V.c **** *
  10:lib/ST7789V.c **** *******************************************************************************
  11:lib/ST7789V.c **** * Copyright (2015), Cypress Semiconductor Corporation. All Rights Reserved.
  12:lib/ST7789V.c **** *******************************************************************************
  13:lib/ST7789V.c **** * This software is owned by Cypress Semiconductor Corporation (Cypress)
  14:lib/ST7789V.c **** * and is protected by and subject to worldwide patent protection (United
  15:lib/ST7789V.c **** * States and foreign), United States copyright laws and international treaty
  16:lib/ST7789V.c **** * provisions. Cypress hereby grants to licensee a personal, non-exclusive,
  17:lib/ST7789V.c **** * non-transferable license to copy, use, modify, create derivative works of,
  18:lib/ST7789V.c **** * and compile the Cypress Source Code and derivative works for the sole
  19:lib/ST7789V.c **** * purpose of creating custom software in support of licensee product to be
  20:lib/ST7789V.c **** * used only in conjunction with a Cypress integrated circuit as specified in
  21:lib/ST7789V.c **** * the applicable agreement. Any reproduction, modification, translation,
  22:lib/ST7789V.c **** * compilation, or representation of this software except as specified above 
  23:lib/ST7789V.c **** * is prohibited without the express written permission of Cypress.
  24:lib/ST7789V.c **** *
  25:lib/ST7789V.c **** * Disclaimer: CYPRESS MAKES NO WARRANTY OF ANY KIND, EXPRESS OR IMPLIED, WITH 
  26:lib/ST7789V.c **** * REGARD TO THIS MATERIAL, INCLUDING, BUT NOT LIMITED TO, THE IMPLIED 
  27:lib/ST7789V.c **** * WARRANTIES OF MERCHANTABILITY AND FITNESS FOR A PARTICULAR PURPOSE.
  28:lib/ST7789V.c **** * Cypress reserves the right to make changes without further notice to the 
  29:lib/ST7789V.c **** * materials described herein. Cypress does not assume any liability arising out 
  30:lib/ST7789V.c **** * of the application or use of any product or circuit described herein. Cypress 
ARM GAS  C:\Users\luvsd\AppData\Local\Temp\ccoEPQt3.s 			page 2


  31:lib/ST7789V.c **** * does not authorize its products for use as critical components in life-support 
  32:lib/ST7789V.c **** * systems where a malfunction or failure may reasonably be expected to result in 
  33:lib/ST7789V.c **** * significant injury to the user. The inclusion of Cypress' product in a life-
  34:lib/ST7789V.c **** * support systems application implies that the manufacturer assumes all risk of 
  35:lib/ST7789V.c **** * such use and in doing so indemnifies Cypress against all charges. 
  36:lib/ST7789V.c **** *
  37:lib/ST7789V.c **** * Use of this Software may be limited by and subject to the applicable Cypress
  38:lib/ST7789V.c **** * software license agreement. 
  39:lib/ST7789V.c **** ******************************************************************************/
  40:lib/ST7789V.c **** 
  41:lib/ST7789V.c **** #include "main.h"
  42:lib/ST7789V.c **** #include "ST7789V.h"
  43:lib/ST7789V.c **** 
  44:lib/ST7789V.c **** #define EX_DATASHEET    0
  45:lib/ST7789V.c **** #define EX_SOURCE       0
  46:lib/ST7789V.c **** 
  47:lib/ST7789V.c **** #if(EX_DATASHEET)
  48:lib/ST7789V.c **** //Datasheet
  49:lib/ST7789V.c **** static uint8_t init_ENH_OB130SB128[30] = {  0x20, 0x10, 0xb0, 0xc8, 0x02, 0x10, 0x40, 0x81, 0xaf,
  50:lib/ST7789V.c ****                                             0xa1, 0xa6, 0xa8, 0x3f, 0xa4, 0xd3, 0x00, 0xd5, 0xf0, 0
  51:lib/ST7789V.c ****                                             0x22, 0xda, 0x12, 0xdb, 0x20, 0x8d, 0x14,
  52:lib/ST7789V.c ****                                             };
  53:lib/ST7789V.c **** #else
  54:lib/ST7789V.c **** static uint8_t init_ENH_OB130SB128[30] = {  0x40, 0x81, 0x80, 0xA0, 0xA4, 0xA6, 0xA8, 0x3F, 0xC0,
  55:lib/ST7789V.c ****                                             0xAD, 0x8B, 0x33, 0xD3, 0x00, 0xD5, 0x80, 0xD9, 0x1F, 0
  56:lib/ST7789V.c ****                                             0x12, 0xdB, 0x40,
  57:lib/ST7789V.c ****                                             };
  58:lib/ST7789V.c **** #endif
  59:lib/ST7789V.c **** 
  60:lib/ST7789V.c **** uint16 colorBack;
  61:lib/ST7789V.c **** uint16 colorText;
  62:lib/ST7789V.c **** 
  63:lib/ST7789V.c **** void Delay(uint32 time)
  64:lib/ST7789V.c **** {
  28              		.loc 1 64 0
  29              		.cfi_startproc
  30              		@ args = 0, pretend = 0, frame = 0
  31              		@ frame_needed = 0, uses_anonymous_args = 0
  32              		@ link register save eliminated.
  33              	.LVL0:
  65:lib/ST7789V.c ****     while(time--)
  34              		.loc 1 65 0
  35 0000 01E0     		b	.L2
  36              	.LVL1:
  37              	.L3:
  66:lib/ST7789V.c ****     {
  67:lib/ST7789V.c ****         CY_NOP;   
  38              		.loc 1 67 0
  39              		.syntax divided
  40              	@ 67 "lib\ST7789V.c" 1
  41 0002 C046     		NOP
  42              	
  43              	@ 0 "" 2
  65:lib/ST7789V.c ****     while(time--)
  44              		.loc 1 65 0
  45              		.thumb
  46              		.syntax unified
ARM GAS  C:\Users\luvsd\AppData\Local\Temp\ccoEPQt3.s 			page 3


  47 0004 1800     		movs	r0, r3
  48              	.LVL2:
  49              	.L2:
  50 0006 431E     		subs	r3, r0, #1
  51              	.LVL3:
  52 0008 0028     		cmp	r0, #0
  53 000a FAD1     		bne	.L3
  68:lib/ST7789V.c ****     }
  69:lib/ST7789V.c **** }
  54              		.loc 1 69 0
  55              		@ sp needed
  56 000c 7047     		bx	lr
  57              		.cfi_endproc
  58              	.LFE62:
  59              		.size	Delay, .-Delay
  60 000e C046     		.section	.text.writeCommand,"ax",%progbits
  61              		.align	2
  62              		.global	writeCommand
  63              		.code	16
  64              		.thumb_func
  65              		.type	writeCommand, %function
  66              	writeCommand:
  67              	.LFB63:
  70:lib/ST7789V.c **** 
  71:lib/ST7789V.c **** void writeCommand(uint8 cmd)
  72:lib/ST7789V.c **** {
  68              		.loc 1 72 0
  69              		.cfi_startproc
  70              		@ args = 0, pretend = 0, frame = 0
  71              		@ frame_needed = 0, uses_anonymous_args = 0
  72              	.LVL4:
  73 0000 10B5     		push	{r4, lr}
  74              		.cfi_def_cfa_offset 8
  75              		.cfi_offset 4, -8
  76              		.cfi_offset 14, -4
  77 0002 0400     		movs	r4, r0
  73:lib/ST7789V.c ****     Ctrl_LCD_RS_Write(ST7789V_COMMAND);
  78              		.loc 1 73 0
  79 0004 0020     		movs	r0, #0
  80              	.LVL5:
  81 0006 FFF7FEFF 		bl	Ctrl_LCD_RS_Write
  82              	.LVL6:
  74:lib/ST7789V.c ****     SPIM_LCD_WriteByte(cmd);
  83              		.loc 1 74 0
  84 000a 2000     		movs	r0, r4
  85 000c FFF7FEFF 		bl	SPIM_LCD_WriteTxData
  86              	.LVL7:
  75:lib/ST7789V.c ****     CyDelayUs(1);
  87              		.loc 1 75 0
  88 0010 0120     		movs	r0, #1
  89 0012 FFF7FEFF 		bl	CyDelayUs
  90              	.LVL8:
  76:lib/ST7789V.c **** }
  91              		.loc 1 76 0
  92              		@ sp needed
  93 0016 10BD     		pop	{r4, pc}
  94              		.cfi_endproc
ARM GAS  C:\Users\luvsd\AppData\Local\Temp\ccoEPQt3.s 			page 4


  95              	.LFE63:
  96              		.size	writeCommand, .-writeCommand
  97              		.section	.text.writeData,"ax",%progbits
  98              		.align	2
  99              		.global	writeData
 100              		.code	16
 101              		.thumb_func
 102              		.type	writeData, %function
 103              	writeData:
 104              	.LFB64:
  77:lib/ST7789V.c **** 
  78:lib/ST7789V.c **** 
  79:lib/ST7789V.c **** void writeData(uint8 data)
  80:lib/ST7789V.c **** {
 105              		.loc 1 80 0
 106              		.cfi_startproc
 107              		@ args = 0, pretend = 0, frame = 0
 108              		@ frame_needed = 0, uses_anonymous_args = 0
 109              	.LVL9:
 110 0000 10B5     		push	{r4, lr}
 111              		.cfi_def_cfa_offset 8
 112              		.cfi_offset 4, -8
 113              		.cfi_offset 14, -4
 114 0002 0400     		movs	r4, r0
  81:lib/ST7789V.c ****     Ctrl_LCD_RS_Write(ST7789V_DATA);
 115              		.loc 1 81 0
 116 0004 0120     		movs	r0, #1
 117              	.LVL10:
 118 0006 FFF7FEFF 		bl	Ctrl_LCD_RS_Write
 119              	.LVL11:
  82:lib/ST7789V.c ****     SPIM_LCD_WriteByte(data);
 120              		.loc 1 82 0
 121 000a 2000     		movs	r0, r4
 122 000c FFF7FEFF 		bl	SPIM_LCD_WriteTxData
 123              	.LVL12:
  83:lib/ST7789V.c ****     //CyDelayUs(1);
  84:lib/ST7789V.c ****     Delay(5);
 124              		.loc 1 84 0
 125 0010 0520     		movs	r0, #5
 126 0012 FFF7FEFF 		bl	Delay
 127              	.LVL13:
  85:lib/ST7789V.c **** }
 128              		.loc 1 85 0
 129              		@ sp needed
 130 0016 10BD     		pop	{r4, pc}
 131              		.cfi_endproc
 132              	.LFE64:
 133              		.size	writeData, .-writeData
 134              		.section	.text.ST7789V_setaddress,"ax",%progbits
 135              		.align	2
 136              		.global	ST7789V_setaddress
 137              		.code	16
 138              		.thumb_func
 139              		.type	ST7789V_setaddress, %function
 140              	ST7789V_setaddress:
 141              	.LFB65:
  86:lib/ST7789V.c **** 
ARM GAS  C:\Users\luvsd\AppData\Local\Temp\ccoEPQt3.s 			page 5


  87:lib/ST7789V.c **** //
  88:lib/ST7789V.c **** void ST7789V_setaddress(uint16_t x1,uint16_t y1,uint16_t x2,uint16_t y2)//set coordinate for print 
  89:lib/ST7789V.c **** { 
 142              		.loc 1 89 0
 143              		.cfi_startproc
 144              		@ args = 0, pretend = 0, frame = 0
 145              		@ frame_needed = 0, uses_anonymous_args = 0
 146              	.LVL14:
 147 0000 F8B5     		push	{r3, r4, r5, r6, r7, lr}
 148              		.cfi_def_cfa_offset 24
 149              		.cfi_offset 3, -24
 150              		.cfi_offset 4, -20
 151              		.cfi_offset 5, -16
 152              		.cfi_offset 6, -12
 153              		.cfi_offset 7, -8
 154              		.cfi_offset 14, -4
 155 0002 0700     		movs	r7, r0
 156 0004 0D00     		movs	r5, r1
 157 0006 1600     		movs	r6, r2
 158 0008 1C00     		movs	r4, r3
  90:lib/ST7789V.c **** 	writeCommand(0x2A); 
 159              		.loc 1 90 0
 160 000a 2A20     		movs	r0, #42
 161              	.LVL15:
 162 000c FFF7FEFF 		bl	writeCommand
 163              	.LVL16:
  91:lib/ST7789V.c **** 	writeData(x1>>8); 
 164              		.loc 1 91 0
 165 0010 380A     		lsrs	r0, r7, #8
 166 0012 FFF7FEFF 		bl	writeData
 167              	.LVL17:
  92:lib/ST7789V.c **** 	writeData(x1); 
 168              		.loc 1 92 0
 169 0016 F8B2     		uxtb	r0, r7
 170 0018 FFF7FEFF 		bl	writeData
 171              	.LVL18:
  93:lib/ST7789V.c **** 	writeData(x2>>8); 
 172              		.loc 1 93 0
 173 001c 300A     		lsrs	r0, r6, #8
 174 001e FFF7FEFF 		bl	writeData
 175              	.LVL19:
  94:lib/ST7789V.c **** 	writeData(x2); 
 176              		.loc 1 94 0
 177 0022 F0B2     		uxtb	r0, r6
 178 0024 FFF7FEFF 		bl	writeData
 179              	.LVL20:
  95:lib/ST7789V.c **** 
  96:lib/ST7789V.c **** 	writeCommand(0x2B); 
 180              		.loc 1 96 0
 181 0028 2B20     		movs	r0, #43
 182 002a FFF7FEFF 		bl	writeCommand
 183              	.LVL21:
  97:lib/ST7789V.c **** 	writeData(y1>>8); 
 184              		.loc 1 97 0
 185 002e 280A     		lsrs	r0, r5, #8
 186 0030 FFF7FEFF 		bl	writeData
 187              	.LVL22:
ARM GAS  C:\Users\luvsd\AppData\Local\Temp\ccoEPQt3.s 			page 6


  98:lib/ST7789V.c **** 	writeData(y1); 
 188              		.loc 1 98 0
 189 0034 E8B2     		uxtb	r0, r5
 190 0036 FFF7FEFF 		bl	writeData
 191              	.LVL23:
  99:lib/ST7789V.c **** 	writeData(y2>>2); 
 192              		.loc 1 99 0
 193 003a A008     		lsrs	r0, r4, #2
 194 003c C0B2     		uxtb	r0, r0
 195 003e FFF7FEFF 		bl	writeData
 196              	.LVL24:
 100:lib/ST7789V.c **** 	writeData(y2); 
 197              		.loc 1 100 0
 198 0042 E0B2     		uxtb	r0, r4
 199 0044 FFF7FEFF 		bl	writeData
 200              	.LVL25:
 101:lib/ST7789V.c **** 
 102:lib/ST7789V.c **** 	writeCommand(0x2C);//memory write 
 201              		.loc 1 102 0
 202 0048 2C20     		movs	r0, #44
 203 004a FFF7FEFF 		bl	writeCommand
 204              	.LVL26:
 103:lib/ST7789V.c **** } 
 205              		.loc 1 103 0
 206              		@ sp needed
 207 004e F8BD     		pop	{r3, r4, r5, r6, r7, pc}
 208              		.cfi_endproc
 209              	.LFE65:
 210              		.size	ST7789V_setaddress, .-ST7789V_setaddress
 211              		.section	.text.ST7789V_hard_reset,"ax",%progbits
 212              		.align	2
 213              		.global	ST7789V_hard_reset
 214              		.code	16
 215              		.thumb_func
 216              		.type	ST7789V_hard_reset, %function
 217              	ST7789V_hard_reset:
 218              	.LFB66:
 104:lib/ST7789V.c **** 
 105:lib/ST7789V.c **** 
 106:lib/ST7789V.c **** void ST7789V_hard_reset(void)//hard reset display 
 107:lib/ST7789V.c **** {   
 219              		.loc 1 107 0
 220              		.cfi_startproc
 221              		@ args = 0, pretend = 0, frame = 0
 222              		@ frame_needed = 0, uses_anonymous_args = 0
 223 0000 10B5     		push	{r4, lr}
 224              		.cfi_def_cfa_offset 8
 225              		.cfi_offset 4, -8
 226              		.cfi_offset 14, -4
 108:lib/ST7789V.c ****     
 109:lib/ST7789V.c ****     LCD_RES_Write(1);
 227              		.loc 1 109 0
 228 0002 0120     		movs	r0, #1
 229 0004 FFF7FEFF 		bl	LCD_RES_Write
 230              	.LVL27:
 110:lib/ST7789V.c ****     CyDelay(20);
 231              		.loc 1 110 0
ARM GAS  C:\Users\luvsd\AppData\Local\Temp\ccoEPQt3.s 			page 7


 232 0008 1420     		movs	r0, #20
 233 000a FFF7FEFF 		bl	CyDelay
 234              	.LVL28:
 111:lib/ST7789V.c ****     LCD_RES_Write(0);
 235              		.loc 1 111 0
 236 000e 0020     		movs	r0, #0
 237 0010 FFF7FEFF 		bl	LCD_RES_Write
 238              	.LVL29:
 112:lib/ST7789V.c ****     CyDelay(20);
 239              		.loc 1 112 0
 240 0014 1420     		movs	r0, #20
 241 0016 FFF7FEFF 		bl	CyDelay
 242              	.LVL30:
 113:lib/ST7789V.c ****     LCD_RES_Write(1);
 243              		.loc 1 113 0
 244 001a 0120     		movs	r0, #1
 245 001c FFF7FEFF 		bl	LCD_RES_Write
 246              	.LVL31:
 114:lib/ST7789V.c ****     CyDelay(20);
 247              		.loc 1 114 0
 248 0020 1420     		movs	r0, #20
 249 0022 FFF7FEFF 		bl	CyDelay
 250              	.LVL32:
 115:lib/ST7789V.c **** } 
 251              		.loc 1 115 0
 252              		@ sp needed
 253 0026 10BD     		pop	{r4, pc}
 254              		.cfi_endproc
 255              	.LFE66:
 256              		.size	ST7789V_hard_reset, .-ST7789V_hard_reset
 257              		.section	.text.ST7789V_pushcolour,"ax",%progbits
 258              		.align	2
 259              		.global	ST7789V_pushcolour
 260              		.code	16
 261              		.thumb_func
 262              		.type	ST7789V_pushcolour, %function
 263              	ST7789V_pushcolour:
 264              	.LFB68:
 116:lib/ST7789V.c **** 
 117:lib/ST7789V.c **** /******************************************************************************
 118:lib/ST7789V.c **** * Function Name: ST7789V_Init, 4 wire SPI
 119:lib/ST7789V.c **** *******************************************************************************
 120:lib/ST7789V.c **** *
 121:lib/ST7789V.c **** * Summary:
 122:lib/ST7789V.c **** *   Init Temperature and Humidity sensor Si7013
 123:lib/ST7789V.c **** *
 124:lib/ST7789V.c **** * Parameters:
 125:lib/ST7789V.c **** *   None
 126:lib/ST7789V.c **** *
 127:lib/ST7789V.c **** * Return:
 128:lib/ST7789V.c **** *   Error status
 129:lib/ST7789V.c **** ******************************************************************************/
 130:lib/ST7789V.c **** 
 131:lib/ST7789V.c **** void ST7789V_Init(void)//set up display using predefined command sequence 
 132:lib/ST7789V.c **** { 
 133:lib/ST7789V.c **** 	ST7789V_hard_reset(); 
 134:lib/ST7789V.c ****     
ARM GAS  C:\Users\luvsd\AppData\Local\Temp\ccoEPQt3.s 			page 8


 135:lib/ST7789V.c **** 	CyDelay(120); 
 136:lib/ST7789V.c **** 	writeCommand(0x11); // Sleep Out
 137:lib/ST7789V.c **** 	CyDelay(120); 
 138:lib/ST7789V.c ****     
 139:lib/ST7789V.c ****     //display and color forma setting
 140:lib/ST7789V.c **** 	writeCommand(0x36); 
 141:lib/ST7789V.c **** 	writeCommand(0x00); 
 142:lib/ST7789V.c **** 	writeCommand(0x3A); 
 143:lib/ST7789V.c **** 	writeData(0x55);  
 144:lib/ST7789V.c ****     
 145:lib/ST7789V.c ****     //Frame rate seting
 146:lib/ST7789V.c ****     
 147:lib/ST7789V.c **** 	writeCommand(0xB2); 
 148:lib/ST7789V.c **** 	writeData(0x0C); 
 149:lib/ST7789V.c **** 	writeData(0x0C); 
 150:lib/ST7789V.c **** 	writeData(0x00); 
 151:lib/ST7789V.c **** 	writeData(0x33); 
 152:lib/ST7789V.c **** 	writeData(0x33); 
 153:lib/ST7789V.c **** 	writeCommand(0xB7); 
 154:lib/ST7789V.c **** 	writeData(0x35); 
 155:lib/ST7789V.c **** 
 156:lib/ST7789V.c **** 	//power control 
 157:lib/ST7789V.c **** 	writeCommand(0xBB); 
 158:lib/ST7789V.c **** 	writeData(0x39);  
 159:lib/ST7789V.c **** 	writeCommand(0xC0); 
 160:lib/ST7789V.c **** 	writeData(0x2c); 
 161:lib/ST7789V.c **** 	writeCommand(0xC2); 
 162:lib/ST7789V.c **** 	writeData(0x01); 
 163:lib/ST7789V.c **** 	writeCommand(0xC3); 
 164:lib/ST7789V.c **** 	writeData(0x10); 
 165:lib/ST7789V.c **** 	writeCommand(0xC4); 
 166:lib/ST7789V.c **** 	writeData(0x20); 
 167:lib/ST7789V.c **** 	writeCommand(0xC6); 
 168:lib/ST7789V.c **** 	writeData(0x0F); 
 169:lib/ST7789V.c **** 	writeCommand(0xD0); 
 170:lib/ST7789V.c **** 	writeData(0xA4); 
 171:lib/ST7789V.c **** 	writeData(0xA1);
 172:lib/ST7789V.c ****     
 173:lib/ST7789V.c ****     writeCommand(0xD6); 
 174:lib/ST7789V.c **** 	writeData(0xA1); 
 175:lib/ST7789V.c **** 
 176:lib/ST7789V.c **** 	//set gamma correction 
 177:lib/ST7789V.c **** 	writeCommand(0xE0); 
 178:lib/ST7789V.c **** 	writeData(0x0D); 
 179:lib/ST7789V.c **** 	writeData(0x0F); 
 180:lib/ST7789V.c **** 	writeData(0x11); 
 181:lib/ST7789V.c **** 	writeData(0x07); 
 182:lib/ST7789V.c **** 	writeData(0x05); 
 183:lib/ST7789V.c **** 	writeData(0x02); 
 184:lib/ST7789V.c **** 	writeData(0x28); 
 185:lib/ST7789V.c **** 	writeData(0x33); 
 186:lib/ST7789V.c **** 	writeData(0x3F); 
 187:lib/ST7789V.c **** 	writeData(0x26); 
 188:lib/ST7789V.c **** 	writeData(0x14); 
 189:lib/ST7789V.c **** 	writeData(0x15); 
 190:lib/ST7789V.c **** 	writeData(0x24); 
 191:lib/ST7789V.c **** 	writeData(0x28); 
ARM GAS  C:\Users\luvsd\AppData\Local\Temp\ccoEPQt3.s 			page 9


 192:lib/ST7789V.c **** 
 193:lib/ST7789V.c **** 	//set gamma correction 
 194:lib/ST7789V.c **** 	writeCommand(0xE1); 
 195:lib/ST7789V.c **** 	writeData(0x0D); 
 196:lib/ST7789V.c **** 	writeData(0x0E); 
 197:lib/ST7789V.c **** 	writeData(0x11); 
 198:lib/ST7789V.c **** 	writeData(0x07); 
 199:lib/ST7789V.c **** 	writeData(0x05); 
 200:lib/ST7789V.c **** 	writeData(0x02); 
 201:lib/ST7789V.c **** 	writeData(0x28); 
 202:lib/ST7789V.c **** 	writeData(0x22); 
 203:lib/ST7789V.c **** 	writeData(0x3F); 
 204:lib/ST7789V.c **** 	writeData(0x2A); 
 205:lib/ST7789V.c **** 	writeData(0x18); 
 206:lib/ST7789V.c **** 	writeData(0x19); 
 207:lib/ST7789V.c **** 	writeData(0x26); 
 208:lib/ST7789V.c **** 	writeData(0x28);
 209:lib/ST7789V.c ****     
 210:lib/ST7789V.c **** 	//exit sleep 
 211:lib/ST7789V.c **** 	//writeCommand(0x11); 
 212:lib/ST7789V.c ****     ST7789V_fillrect(0, 0,ST7789V_LCDWIDTH, ST7789V_LCDHEIGHT, colorBack);
 213:lib/ST7789V.c **** 	CyDelay(10);
 214:lib/ST7789V.c **** 	//display on 
 215:lib/ST7789V.c **** 	writeCommand(0x29); 
 216:lib/ST7789V.c **** 	CyDelay(10); 
 217:lib/ST7789V.c ****         
 218:lib/ST7789V.c **** } 
 219:lib/ST7789V.c **** 
 220:lib/ST7789V.c **** //set colour for drawing 
 221:lib/ST7789V.c **** void ST7789V_pushcolour(uint16_t colour) 
 222:lib/ST7789V.c **** { 
 265              		.loc 1 222 0
 266              		.cfi_startproc
 267              		@ args = 0, pretend = 0, frame = 0
 268              		@ frame_needed = 0, uses_anonymous_args = 0
 269              	.LVL33:
 270 0000 10B5     		push	{r4, lr}
 271              		.cfi_def_cfa_offset 8
 272              		.cfi_offset 4, -8
 273              		.cfi_offset 14, -4
 274 0002 0400     		movs	r4, r0
 223:lib/ST7789V.c **** 	writeData(colour>>8); 
 275              		.loc 1 223 0
 276 0004 000A     		lsrs	r0, r0, #8
 277              	.LVL34:
 278 0006 FFF7FEFF 		bl	writeData
 279              	.LVL35:
 224:lib/ST7789V.c **** 	writeData(colour); 
 280              		.loc 1 224 0
 281 000a E0B2     		uxtb	r0, r4
 282 000c FFF7FEFF 		bl	writeData
 283              	.LVL36:
 225:lib/ST7789V.c **** } 
 284              		.loc 1 225 0
 285              		@ sp needed
 286 0010 10BD     		pop	{r4, pc}
 287              		.cfi_endproc
ARM GAS  C:\Users\luvsd\AppData\Local\Temp\ccoEPQt3.s 			page 10


 288              	.LFE68:
 289              		.size	ST7789V_pushcolour, .-ST7789V_pushcolour
 290 0012 C046     		.section	.text.ST7789V_fillrect,"ax",%progbits
 291              		.align	2
 292              		.global	ST7789V_fillrect
 293              		.code	16
 294              		.thumb_func
 295              		.type	ST7789V_fillrect, %function
 296              	ST7789V_fillrect:
 297              	.LFB69:
 226:lib/ST7789V.c **** 
 227:lib/ST7789V.c **** //draw colour filled rectangle 
 228:lib/ST7789V.c **** void ST7789V_fillrect(uint16_t x,uint16_t y,uint16_t w,uint16_t h,uint16_t colour) 
 229:lib/ST7789V.c **** { 
 298              		.loc 1 229 0
 299              		.cfi_startproc
 300              		@ args = 4, pretend = 0, frame = 0
 301              		@ frame_needed = 0, uses_anonymous_args = 0
 302              	.LVL37:
 303 0000 F8B5     		push	{r3, r4, r5, r6, r7, lr}
 304              		.cfi_def_cfa_offset 24
 305              		.cfi_offset 3, -24
 306              		.cfi_offset 4, -20
 307              		.cfi_offset 5, -16
 308              		.cfi_offset 6, -12
 309              		.cfi_offset 7, -8
 310              		.cfi_offset 14, -4
 311 0002 1600     		movs	r6, r2
 312 0004 1F00     		movs	r7, r3
 313 0006 06AB     		add	r3, sp, #24
 314              	.LVL38:
 315 0008 1D88     		ldrh	r5, [r3]
 230:lib/ST7789V.c **** 	if ((x >= ST7789V_LCDWIDTH) || (y >= ST7789V_LCDHEIGHT)) 
 316              		.loc 1 230 0
 317 000a 4023     		movs	r3, #64
 318              	.LVL39:
 319 000c FF33     		adds	r3, r3, #255
 320 000e 9842     		cmp	r0, r3
 321 0010 28D8     		bhi	.L9
 322              		.loc 1 230 0 is_stmt 0 discriminator 1
 323 0012 EF29     		cmp	r1, #239
 324 0014 26D8     		bhi	.L9
 231:lib/ST7789V.c **** 	{ 
 232:lib/ST7789V.c **** 		return; 
 233:lib/ST7789V.c **** 	} 
 234:lib/ST7789V.c **** 
 235:lib/ST7789V.c **** 	if ((x+w-1) >= ST7789V_LCDWIDTH) 
 325              		.loc 1 235 0 is_stmt 1
 326 0016 8318     		adds	r3, r0, r2
 327 0018 013B     		subs	r3, r3, #1
 328 001a 4022     		movs	r2, #64
 329              	.LVL40:
 330 001c FF32     		adds	r2, r2, #255
 331 001e 9342     		cmp	r3, r2
 332 0020 03DD     		ble	.L11
 236:lib/ST7789V.c **** 	{ 
 237:lib/ST7789V.c **** 		w = ST7789V_LCDWIDTH-x; 
ARM GAS  C:\Users\luvsd\AppData\Local\Temp\ccoEPQt3.s 			page 11


 333              		.loc 1 237 0
 334 0022 A026     		movs	r6, #160
 335 0024 7600     		lsls	r6, r6, #1
 336 0026 361A     		subs	r6, r6, r0
 337 0028 B6B2     		uxth	r6, r6
 338              	.LVL41:
 339              	.L11:
 238:lib/ST7789V.c **** 	} 
 239:lib/ST7789V.c **** 
 240:lib/ST7789V.c **** 	if ((y+h-1) >= ST7789V_LCDHEIGHT) 
 340              		.loc 1 240 0
 341 002a CB19     		adds	r3, r1, r7
 342 002c 013B     		subs	r3, r3, #1
 343 002e EF2B     		cmp	r3, #239
 344 0030 02DD     		ble	.L12
 241:lib/ST7789V.c **** 	{ 
 242:lib/ST7789V.c **** 		h = ST7789V_LCDHEIGHT-y; 
 345              		.loc 1 242 0
 346 0032 F027     		movs	r7, #240
 347 0034 7F1A     		subs	r7, r7, r1
 348 0036 BFB2     		uxth	r7, r7
 349              	.LVL42:
 350              	.L12:
 243:lib/ST7789V.c **** 	} 
 244:lib/ST7789V.c **** 
 245:lib/ST7789V.c **** 	ST7789V_setaddress(x, y, x+w-1, y+h-1); 
 351              		.loc 1 245 0
 352 0038 7B18     		adds	r3, r7, r1
 353 003a 013B     		subs	r3, r3, #1
 354 003c 9BB2     		uxth	r3, r3
 355 003e 3218     		adds	r2, r6, r0
 356 0040 013A     		subs	r2, r2, #1
 357 0042 92B2     		uxth	r2, r2
 358 0044 FFF7FEFF 		bl	ST7789V_setaddress
 359              	.LVL43:
 246:lib/ST7789V.c **** 
 247:lib/ST7789V.c **** 	for(y=h; y>0; y--)  
 360              		.loc 1 247 0
 361 0048 0AE0     		b	.L13
 362              	.LVL44:
 363              	.L14:
 248:lib/ST7789V.c **** 	{ 
 249:lib/ST7789V.c **** 		for(x=w; x>0; x--) 
 250:lib/ST7789V.c **** 		{ 
 251:lib/ST7789V.c **** 			ST7789V_pushcolour(colour); 
 364              		.loc 1 251 0 discriminator 3
 365 004a 2800     		movs	r0, r5
 366 004c FFF7FEFF 		bl	ST7789V_pushcolour
 367              	.LVL45:
 249:lib/ST7789V.c **** 		{ 
 368              		.loc 1 249 0 discriminator 3
 369 0050 013C     		subs	r4, r4, #1
 370              	.LVL46:
 371 0052 A4B2     		uxth	r4, r4
 372              	.LVL47:
 373 0054 00E0     		b	.L15
 374              	.LVL48:
ARM GAS  C:\Users\luvsd\AppData\Local\Temp\ccoEPQt3.s 			page 12


 375              	.L16:
 376 0056 3400     		movs	r4, r6
 377              	.L15:
 378              	.LVL49:
 249:lib/ST7789V.c **** 		{ 
 379              		.loc 1 249 0 is_stmt 0 discriminator 1
 380 0058 002C     		cmp	r4, #0
 381 005a F6D1     		bne	.L14
 247:lib/ST7789V.c **** 	{ 
 382              		.loc 1 247 0 is_stmt 1 discriminator 2
 383 005c 013F     		subs	r7, r7, #1
 384              	.LVL50:
 385 005e BFB2     		uxth	r7, r7
 386              	.LVL51:
 387              	.L13:
 247:lib/ST7789V.c **** 	{ 
 388              		.loc 1 247 0 is_stmt 0 discriminator 1
 389 0060 002F     		cmp	r7, #0
 390 0062 F8D1     		bne	.L16
 391              	.LVL52:
 392              	.L9:
 252:lib/ST7789V.c **** 		} 
 253:lib/ST7789V.c **** 	} 
 254:lib/ST7789V.c **** } 
 393              		.loc 1 254 0 is_stmt 1
 394              		@ sp needed
 395 0064 F8BD     		pop	{r3, r4, r5, r6, r7, pc}
 396              		.cfi_endproc
 397              	.LFE69:
 398              		.size	ST7789V_fillrect, .-ST7789V_fillrect
 399 0066 C046     		.section	.text.ST7789V_Init,"ax",%progbits
 400              		.align	2
 401              		.global	ST7789V_Init
 402              		.code	16
 403              		.thumb_func
 404              		.type	ST7789V_Init, %function
 405              	ST7789V_Init:
 406              	.LFB67:
 132:lib/ST7789V.c **** 	ST7789V_hard_reset(); 
 407              		.loc 1 132 0
 408              		.cfi_startproc
 409              		@ args = 0, pretend = 0, frame = 0
 410              		@ frame_needed = 0, uses_anonymous_args = 0
 411 0000 00B5     		push	{lr}
 412              		.cfi_def_cfa_offset 4
 413              		.cfi_offset 14, -4
 414 0002 83B0     		sub	sp, sp, #12
 415              		.cfi_def_cfa_offset 16
 133:lib/ST7789V.c ****     
 416              		.loc 1 133 0
 417 0004 FFF7FEFF 		bl	ST7789V_hard_reset
 418              	.LVL53:
 135:lib/ST7789V.c **** 	writeCommand(0x11); // Sleep Out
 419              		.loc 1 135 0
 420 0008 7820     		movs	r0, #120
 421 000a FFF7FEFF 		bl	CyDelay
 422              	.LVL54:
ARM GAS  C:\Users\luvsd\AppData\Local\Temp\ccoEPQt3.s 			page 13


 136:lib/ST7789V.c **** 	CyDelay(120); 
 423              		.loc 1 136 0
 424 000e 1120     		movs	r0, #17
 425 0010 FFF7FEFF 		bl	writeCommand
 426              	.LVL55:
 137:lib/ST7789V.c ****     
 427              		.loc 1 137 0
 428 0014 7820     		movs	r0, #120
 429 0016 FFF7FEFF 		bl	CyDelay
 430              	.LVL56:
 140:lib/ST7789V.c **** 	writeCommand(0x00); 
 431              		.loc 1 140 0
 432 001a 3620     		movs	r0, #54
 433 001c FFF7FEFF 		bl	writeCommand
 434              	.LVL57:
 141:lib/ST7789V.c **** 	writeCommand(0x3A); 
 435              		.loc 1 141 0
 436 0020 0020     		movs	r0, #0
 437 0022 FFF7FEFF 		bl	writeCommand
 438              	.LVL58:
 142:lib/ST7789V.c **** 	writeData(0x55);  
 439              		.loc 1 142 0
 440 0026 3A20     		movs	r0, #58
 441 0028 FFF7FEFF 		bl	writeCommand
 442              	.LVL59:
 143:lib/ST7789V.c ****     
 443              		.loc 1 143 0
 444 002c 5520     		movs	r0, #85
 445 002e FFF7FEFF 		bl	writeData
 446              	.LVL60:
 147:lib/ST7789V.c **** 	writeData(0x0C); 
 447              		.loc 1 147 0
 448 0032 B220     		movs	r0, #178
 449 0034 FFF7FEFF 		bl	writeCommand
 450              	.LVL61:
 148:lib/ST7789V.c **** 	writeData(0x0C); 
 451              		.loc 1 148 0
 452 0038 0C20     		movs	r0, #12
 453 003a FFF7FEFF 		bl	writeData
 454              	.LVL62:
 149:lib/ST7789V.c **** 	writeData(0x00); 
 455              		.loc 1 149 0
 456 003e 0C20     		movs	r0, #12
 457 0040 FFF7FEFF 		bl	writeData
 458              	.LVL63:
 150:lib/ST7789V.c **** 	writeData(0x33); 
 459              		.loc 1 150 0
 460 0044 0020     		movs	r0, #0
 461 0046 FFF7FEFF 		bl	writeData
 462              	.LVL64:
 151:lib/ST7789V.c **** 	writeData(0x33); 
 463              		.loc 1 151 0
 464 004a 3320     		movs	r0, #51
 465 004c FFF7FEFF 		bl	writeData
 466              	.LVL65:
 152:lib/ST7789V.c **** 	writeCommand(0xB7); 
 467              		.loc 1 152 0
ARM GAS  C:\Users\luvsd\AppData\Local\Temp\ccoEPQt3.s 			page 14


 468 0050 3320     		movs	r0, #51
 469 0052 FFF7FEFF 		bl	writeData
 470              	.LVL66:
 153:lib/ST7789V.c **** 	writeData(0x35); 
 471              		.loc 1 153 0
 472 0056 B720     		movs	r0, #183
 473 0058 FFF7FEFF 		bl	writeCommand
 474              	.LVL67:
 154:lib/ST7789V.c **** 
 475              		.loc 1 154 0
 476 005c 3520     		movs	r0, #53
 477 005e FFF7FEFF 		bl	writeData
 478              	.LVL68:
 157:lib/ST7789V.c **** 	writeData(0x39);  
 479              		.loc 1 157 0
 480 0062 BB20     		movs	r0, #187
 481 0064 FFF7FEFF 		bl	writeCommand
 482              	.LVL69:
 158:lib/ST7789V.c **** 	writeCommand(0xC0); 
 483              		.loc 1 158 0
 484 0068 3920     		movs	r0, #57
 485 006a FFF7FEFF 		bl	writeData
 486              	.LVL70:
 159:lib/ST7789V.c **** 	writeData(0x2c); 
 487              		.loc 1 159 0
 488 006e C020     		movs	r0, #192
 489 0070 FFF7FEFF 		bl	writeCommand
 490              	.LVL71:
 160:lib/ST7789V.c **** 	writeCommand(0xC2); 
 491              		.loc 1 160 0
 492 0074 2C20     		movs	r0, #44
 493 0076 FFF7FEFF 		bl	writeData
 494              	.LVL72:
 161:lib/ST7789V.c **** 	writeData(0x01); 
 495              		.loc 1 161 0
 496 007a C220     		movs	r0, #194
 497 007c FFF7FEFF 		bl	writeCommand
 498              	.LVL73:
 162:lib/ST7789V.c **** 	writeCommand(0xC3); 
 499              		.loc 1 162 0
 500 0080 0120     		movs	r0, #1
 501 0082 FFF7FEFF 		bl	writeData
 502              	.LVL74:
 163:lib/ST7789V.c **** 	writeData(0x10); 
 503              		.loc 1 163 0
 504 0086 C320     		movs	r0, #195
 505 0088 FFF7FEFF 		bl	writeCommand
 506              	.LVL75:
 164:lib/ST7789V.c **** 	writeCommand(0xC4); 
 507              		.loc 1 164 0
 508 008c 1020     		movs	r0, #16
 509 008e FFF7FEFF 		bl	writeData
 510              	.LVL76:
 165:lib/ST7789V.c **** 	writeData(0x20); 
 511              		.loc 1 165 0
 512 0092 C420     		movs	r0, #196
 513 0094 FFF7FEFF 		bl	writeCommand
ARM GAS  C:\Users\luvsd\AppData\Local\Temp\ccoEPQt3.s 			page 15


 514              	.LVL77:
 166:lib/ST7789V.c **** 	writeCommand(0xC6); 
 515              		.loc 1 166 0
 516 0098 2020     		movs	r0, #32
 517 009a FFF7FEFF 		bl	writeData
 518              	.LVL78:
 167:lib/ST7789V.c **** 	writeData(0x0F); 
 519              		.loc 1 167 0
 520 009e C620     		movs	r0, #198
 521 00a0 FFF7FEFF 		bl	writeCommand
 522              	.LVL79:
 168:lib/ST7789V.c **** 	writeCommand(0xD0); 
 523              		.loc 1 168 0
 524 00a4 0F20     		movs	r0, #15
 525 00a6 FFF7FEFF 		bl	writeData
 526              	.LVL80:
 169:lib/ST7789V.c **** 	writeData(0xA4); 
 527              		.loc 1 169 0
 528 00aa D020     		movs	r0, #208
 529 00ac FFF7FEFF 		bl	writeCommand
 530              	.LVL81:
 170:lib/ST7789V.c **** 	writeData(0xA1);
 531              		.loc 1 170 0
 532 00b0 A420     		movs	r0, #164
 533 00b2 FFF7FEFF 		bl	writeData
 534              	.LVL82:
 171:lib/ST7789V.c ****     
 535              		.loc 1 171 0
 536 00b6 A120     		movs	r0, #161
 537 00b8 FFF7FEFF 		bl	writeData
 538              	.LVL83:
 173:lib/ST7789V.c **** 	writeData(0xA1); 
 539              		.loc 1 173 0
 540 00bc D620     		movs	r0, #214
 541 00be FFF7FEFF 		bl	writeCommand
 542              	.LVL84:
 174:lib/ST7789V.c **** 
 543              		.loc 1 174 0
 544 00c2 A120     		movs	r0, #161
 545 00c4 FFF7FEFF 		bl	writeData
 546              	.LVL85:
 177:lib/ST7789V.c **** 	writeData(0x0D); 
 547              		.loc 1 177 0
 548 00c8 E020     		movs	r0, #224
 549 00ca FFF7FEFF 		bl	writeCommand
 550              	.LVL86:
 178:lib/ST7789V.c **** 	writeData(0x0F); 
 551              		.loc 1 178 0
 552 00ce 0D20     		movs	r0, #13
 553 00d0 FFF7FEFF 		bl	writeData
 554              	.LVL87:
 179:lib/ST7789V.c **** 	writeData(0x11); 
 555              		.loc 1 179 0
 556 00d4 0F20     		movs	r0, #15
 557 00d6 FFF7FEFF 		bl	writeData
 558              	.LVL88:
 180:lib/ST7789V.c **** 	writeData(0x07); 
ARM GAS  C:\Users\luvsd\AppData\Local\Temp\ccoEPQt3.s 			page 16


 559              		.loc 1 180 0
 560 00da 1120     		movs	r0, #17
 561 00dc FFF7FEFF 		bl	writeData
 562              	.LVL89:
 181:lib/ST7789V.c **** 	writeData(0x05); 
 563              		.loc 1 181 0
 564 00e0 0720     		movs	r0, #7
 565 00e2 FFF7FEFF 		bl	writeData
 566              	.LVL90:
 182:lib/ST7789V.c **** 	writeData(0x02); 
 567              		.loc 1 182 0
 568 00e6 0520     		movs	r0, #5
 569 00e8 FFF7FEFF 		bl	writeData
 570              	.LVL91:
 183:lib/ST7789V.c **** 	writeData(0x28); 
 571              		.loc 1 183 0
 572 00ec 0220     		movs	r0, #2
 573 00ee FFF7FEFF 		bl	writeData
 574              	.LVL92:
 184:lib/ST7789V.c **** 	writeData(0x33); 
 575              		.loc 1 184 0
 576 00f2 2820     		movs	r0, #40
 577 00f4 FFF7FEFF 		bl	writeData
 578              	.LVL93:
 185:lib/ST7789V.c **** 	writeData(0x3F); 
 579              		.loc 1 185 0
 580 00f8 3320     		movs	r0, #51
 581 00fa FFF7FEFF 		bl	writeData
 582              	.LVL94:
 186:lib/ST7789V.c **** 	writeData(0x26); 
 583              		.loc 1 186 0
 584 00fe 3F20     		movs	r0, #63
 585 0100 FFF7FEFF 		bl	writeData
 586              	.LVL95:
 187:lib/ST7789V.c **** 	writeData(0x14); 
 587              		.loc 1 187 0
 588 0104 2620     		movs	r0, #38
 589 0106 FFF7FEFF 		bl	writeData
 590              	.LVL96:
 188:lib/ST7789V.c **** 	writeData(0x15); 
 591              		.loc 1 188 0
 592 010a 1420     		movs	r0, #20
 593 010c FFF7FEFF 		bl	writeData
 594              	.LVL97:
 189:lib/ST7789V.c **** 	writeData(0x24); 
 595              		.loc 1 189 0
 596 0110 1520     		movs	r0, #21
 597 0112 FFF7FEFF 		bl	writeData
 598              	.LVL98:
 190:lib/ST7789V.c **** 	writeData(0x28); 
 599              		.loc 1 190 0
 600 0116 2420     		movs	r0, #36
 601 0118 FFF7FEFF 		bl	writeData
 602              	.LVL99:
 191:lib/ST7789V.c **** 
 603              		.loc 1 191 0
 604 011c 2820     		movs	r0, #40
ARM GAS  C:\Users\luvsd\AppData\Local\Temp\ccoEPQt3.s 			page 17


 605 011e FFF7FEFF 		bl	writeData
 606              	.LVL100:
 194:lib/ST7789V.c **** 	writeData(0x0D); 
 607              		.loc 1 194 0
 608 0122 E120     		movs	r0, #225
 609 0124 FFF7FEFF 		bl	writeCommand
 610              	.LVL101:
 195:lib/ST7789V.c **** 	writeData(0x0E); 
 611              		.loc 1 195 0
 612 0128 0D20     		movs	r0, #13
 613 012a FFF7FEFF 		bl	writeData
 614              	.LVL102:
 196:lib/ST7789V.c **** 	writeData(0x11); 
 615              		.loc 1 196 0
 616 012e 0E20     		movs	r0, #14
 617 0130 FFF7FEFF 		bl	writeData
 618              	.LVL103:
 197:lib/ST7789V.c **** 	writeData(0x07); 
 619              		.loc 1 197 0
 620 0134 1120     		movs	r0, #17
 621 0136 FFF7FEFF 		bl	writeData
 622              	.LVL104:
 198:lib/ST7789V.c **** 	writeData(0x05); 
 623              		.loc 1 198 0
 624 013a 0720     		movs	r0, #7
 625 013c FFF7FEFF 		bl	writeData
 626              	.LVL105:
 199:lib/ST7789V.c **** 	writeData(0x02); 
 627              		.loc 1 199 0
 628 0140 0520     		movs	r0, #5
 629 0142 FFF7FEFF 		bl	writeData
 630              	.LVL106:
 200:lib/ST7789V.c **** 	writeData(0x28); 
 631              		.loc 1 200 0
 632 0146 0220     		movs	r0, #2
 633 0148 FFF7FEFF 		bl	writeData
 634              	.LVL107:
 201:lib/ST7789V.c **** 	writeData(0x22); 
 635              		.loc 1 201 0
 636 014c 2820     		movs	r0, #40
 637 014e FFF7FEFF 		bl	writeData
 638              	.LVL108:
 202:lib/ST7789V.c **** 	writeData(0x3F); 
 639              		.loc 1 202 0
 640 0152 2220     		movs	r0, #34
 641 0154 FFF7FEFF 		bl	writeData
 642              	.LVL109:
 203:lib/ST7789V.c **** 	writeData(0x2A); 
 643              		.loc 1 203 0
 644 0158 3F20     		movs	r0, #63
 645 015a FFF7FEFF 		bl	writeData
 646              	.LVL110:
 204:lib/ST7789V.c **** 	writeData(0x18); 
 647              		.loc 1 204 0
 648 015e 2A20     		movs	r0, #42
 649 0160 FFF7FEFF 		bl	writeData
 650              	.LVL111:
ARM GAS  C:\Users\luvsd\AppData\Local\Temp\ccoEPQt3.s 			page 18


 205:lib/ST7789V.c **** 	writeData(0x19); 
 651              		.loc 1 205 0
 652 0164 1820     		movs	r0, #24
 653 0166 FFF7FEFF 		bl	writeData
 654              	.LVL112:
 206:lib/ST7789V.c **** 	writeData(0x26); 
 655              		.loc 1 206 0
 656 016a 1920     		movs	r0, #25
 657 016c FFF7FEFF 		bl	writeData
 658              	.LVL113:
 207:lib/ST7789V.c **** 	writeData(0x28);
 659              		.loc 1 207 0
 660 0170 2620     		movs	r0, #38
 661 0172 FFF7FEFF 		bl	writeData
 662              	.LVL114:
 208:lib/ST7789V.c ****     
 663              		.loc 1 208 0
 664 0176 2820     		movs	r0, #40
 665 0178 FFF7FEFF 		bl	writeData
 666              	.LVL115:
 212:lib/ST7789V.c **** 	CyDelay(10);
 667              		.loc 1 212 0
 668 017c 0A4B     		ldr	r3, .L18
 669 017e 1B88     		ldrh	r3, [r3]
 670 0180 0093     		str	r3, [sp]
 671 0182 F023     		movs	r3, #240
 672 0184 A022     		movs	r2, #160
 673 0186 5200     		lsls	r2, r2, #1
 674 0188 0021     		movs	r1, #0
 675 018a 0020     		movs	r0, #0
 676 018c FFF7FEFF 		bl	ST7789V_fillrect
 677              	.LVL116:
 213:lib/ST7789V.c **** 	//display on 
 678              		.loc 1 213 0
 679 0190 0A20     		movs	r0, #10
 680 0192 FFF7FEFF 		bl	CyDelay
 681              	.LVL117:
 215:lib/ST7789V.c **** 	CyDelay(10); 
 682              		.loc 1 215 0
 683 0196 2920     		movs	r0, #41
 684 0198 FFF7FEFF 		bl	writeCommand
 685              	.LVL118:
 216:lib/ST7789V.c ****         
 686              		.loc 1 216 0
 687 019c 0A20     		movs	r0, #10
 688 019e FFF7FEFF 		bl	CyDelay
 689              	.LVL119:
 218:lib/ST7789V.c **** 
 690              		.loc 1 218 0
 691 01a2 03B0     		add	sp, sp, #12
 692              		@ sp needed
 693 01a4 00BD     		pop	{pc}
 694              	.L19:
 695 01a6 C046     		.align	2
 696              	.L18:
 697 01a8 00000000 		.word	colorBack
 698              		.cfi_endproc
ARM GAS  C:\Users\luvsd\AppData\Local\Temp\ccoEPQt3.s 			page 19


 699              	.LFE67:
 700              		.size	ST7789V_Init, .-ST7789V_Init
 701              		.section	.text.LCD_DrawString,"ax",%progbits
 702              		.align	2
 703              		.global	LCD_DrawString
 704              		.code	16
 705              		.thumb_func
 706              		.type	LCD_DrawString, %function
 707              	LCD_DrawString:
 708              	.LFB70:
 255:lib/ST7789V.c **** 
 256:lib/ST7789V.c **** ////
 257:lib/ST7789V.c **** //void LCD_DrawChar_16(uint16_t Xpos, uint16_t Ypos, const char st)
 258:lib/ST7789V.c **** //{
 259:lib/ST7789V.c **** //    uint32_t index = 0, i = 0;
 260:lib/ST7789V.c **** //    uint16_t xAddress = 0;
 261:lib/ST7789V.c **** //    uint16_t data = 0;
 262:lib/ST7789V.c **** //    
 263:lib/ST7789V.c **** //    xAddress = Xpos;
 264:lib/ST7789V.c **** //
 265:lib/ST7789V.c **** //    //LCD_SetCursor(xAddress, START_Y - Ypos);
 266:lib/ST7789V.c **** //    ST7789V_setaddress(xAddress, Ypos, xAddress + 31, Ypos);
 267:lib/ST7789V.c **** //
 268:lib/ST7789V.c **** //    for( index = 1; index <= 31  ; index++)
 269:lib/ST7789V.c **** //    {
 270:lib/ST7789V.c **** //        data = FontsLib_16x32[ st - 0x20][index*2] << 8;
 271:lib/ST7789V.c **** //        data += FontsLib_16x32[ st - 0x20][index*2+1];
 272:lib/ST7789V.c **** //        for(i = 0; i < 31; i++)
 273:lib/ST7789V.c **** //        {
 274:lib/ST7789V.c **** //            if((data  & (0x8000 >> i)) == 0) 
 275:lib/ST7789V.c **** //            {
 276:lib/ST7789V.c **** //                ST7789V_pushcolour(colorBack); 
 277:lib/ST7789V.c **** //            }else{
 278:lib/ST7789V.c **** //                ST7789V_pushcolour(colorText);   
 279:lib/ST7789V.c **** //            }
 280:lib/ST7789V.c **** //        }
 281:lib/ST7789V.c **** //        ST7789V_setaddress(xAddress, Ypos+index, xAddress + 31, Ypos + index);
 282:lib/ST7789V.c **** //    }
 283:lib/ST7789V.c **** //}
 284:lib/ST7789V.c **** 
 285:lib/ST7789V.c **** //
 286:lib/ST7789V.c **** void LCD_DrawString(uint16_t Xpos, uint16_t Ypos, uint8 cnt, char *st)
 287:lib/ST7789V.c **** {
 709              		.loc 1 287 0
 710              		.cfi_startproc
 711              		@ args = 0, pretend = 0, frame = 8
 712              		@ frame_needed = 0, uses_anonymous_args = 0
 713              	.LVL120:
 714 0000 F0B5     		push	{r4, r5, r6, r7, lr}
 715              		.cfi_def_cfa_offset 20
 716              		.cfi_offset 4, -20
 717              		.cfi_offset 5, -16
 718              		.cfi_offset 6, -12
 719              		.cfi_offset 7, -8
 720              		.cfi_offset 14, -4
 721 0002 83B0     		sub	sp, sp, #12
 722              		.cfi_def_cfa_offset 32
ARM GAS  C:\Users\luvsd\AppData\Local\Temp\ccoEPQt3.s 			page 20


 723 0004 0500     		movs	r5, r0
 724 0006 0191     		str	r1, [sp, #4]
 725 0008 1700     		movs	r7, r2
 726              	.LVL121:
 288:lib/ST7789V.c ****     uint8 i;
 289:lib/ST7789V.c ****         
 290:lib/ST7789V.c ****     for( i = 0; i < cnt; i++)
 727              		.loc 1 290 0
 728 000a 0024     		movs	r4, #0
 729 000c 09E0     		b	.L21
 730              	.LVL122:
 731              	.L22:
 732              	.LBB2:
 291:lib/ST7789V.c ****     {
 292:lib/ST7789V.c ****         LCD_DrawChar_16(Xpos + 16 * i , Ypos, *st++);        
 733              		.loc 1 292 0 discriminator 3
 734 000e 2001     		lsls	r0, r4, #4
 735 0010 5E1C     		adds	r6, r3, #1
 736              	.LVL123:
 737 0012 1A78     		ldrb	r2, [r3]
 738 0014 2818     		adds	r0, r5, r0
 739 0016 0199     		ldr	r1, [sp, #4]
 740 0018 FFF7FEFF 		bl	LCD_DrawChar_16
 741              	.LVL124:
 742              	.LBE2:
 290:lib/ST7789V.c ****     {
 743              		.loc 1 290 0 discriminator 3
 744 001c 0134     		adds	r4, r4, #1
 745              	.LVL125:
 746 001e E4B2     		uxtb	r4, r4
 747              	.LVL126:
 748              	.LBB3:
 749              		.loc 1 292 0 discriminator 3
 750 0020 3300     		movs	r3, r6
 751              	.LVL127:
 752              	.L21:
 753              	.LBE3:
 290:lib/ST7789V.c ****     {
 754              		.loc 1 290 0 discriminator 1
 755 0022 BC42     		cmp	r4, r7
 756 0024 F3D3     		bcc	.L22
 293:lib/ST7789V.c ****     }
 294:lib/ST7789V.c ****     
 295:lib/ST7789V.c **** }
 757              		.loc 1 295 0
 758 0026 03B0     		add	sp, sp, #12
 759              		@ sp needed
 760              	.LVL128:
 761 0028 F0BD     		pop	{r4, r5, r6, r7, pc}
 762              		.cfi_endproc
 763              	.LFE70:
 764              		.size	LCD_DrawString, .-LCD_DrawString
 765              		.comm	colorText,2,2
 766              		.comm	colorBack,2,2
 767              		.comm	Param,6,4
 768 002a C046     		.text
 769              	.Letext0:
ARM GAS  C:\Users\luvsd\AppData\Local\Temp\ccoEPQt3.s 			page 21


 770              		.file 2 "c:\\program files (x86)\\cypress\\psoc creator\\4.4\\psoc creator\\import\\gnu\\arm\\5.4.
 771              		.file 3 "c:\\program files (x86)\\cypress\\psoc creator\\4.4\\psoc creator\\import\\gnu\\arm\\5.4.
 772              		.file 4 "Generated_Source\\PSoC4/cytypes.h"
 773              		.file 5 "./main.h"
 774              		.file 6 "lib\\fonts.h"
 775              		.file 7 "Generated_Source\\PSoC4/RTC.h"
 776              		.file 8 "Generated_Source\\PSoC4/Ctrl_LCD_RS.h"
 777              		.file 9 "Generated_Source\\PSoC4/SPIM_LCD.h"
 778              		.file 10 "Generated_Source\\PSoC4/CyLib.h"
 779              		.file 11 "Generated_Source\\PSoC4/LCD_RES.h"