ARM GAS  C:\Users\luvsd\AppData\Local\Temp\ccw0dQKn.s 			page 1


   1              		.syntax unified
   2              		.cpu cortex-m0
   3              		.fpu softvfp
   4              		.eabi_attribute 20, 1
   5              		.eabi_attribute 21, 1
   6              		.eabi_attribute 23, 3
   7              		.eabi_attribute 24, 1
   8              		.eabi_attribute 25, 1
   9              		.eabi_attribute 26, 1
  10              		.eabi_attribute 30, 1
  11              		.eabi_attribute 34, 0
  12              		.eabi_attribute 18, 4
  13              		.thumb
  14              		.syntax unified
  15              		.file	"userMenuPatternSewingMachine.c"
  16              		.text
  17              	.Ltext0:
  18              		.cfi_sections	.debug_frame
  19              		.section	.text.doTargetInfoMenu,"ax",%progbits
  20              		.align	2
  21              		.global	doTargetInfoMenu
  22              		.code	16
  23              		.thumb_func
  24              		.type	doTargetInfoMenu, %function
  25              	doTargetInfoMenu:
  26              	.LFB71:
  27              		.file 1 "userMenuPatternSewingMachine.c"
   1:userMenuPatternSewingMachine.c **** /* ========================================
   2:userMenuPatternSewingMachine.c ****  *
   3:userMenuPatternSewingMachine.c ****  * Copyright Suntech, 2023.02.01
   4:userMenuPatternSewingMachine.c ****  * All Rights Reserved
   5:userMenuPatternSewingMachine.c ****  * UNPUBLISHED, LICENSED SOFTWARE.
   6:userMenuPatternSewingMachine.c ****  *
   7:userMenuPatternSewingMachine.c ****  * CONFIDENTIAL AND PROPRIETARY INFORMATION
   8:userMenuPatternSewingMachine.c ****  * WHICH IS THE PROPERTY OF Suntech.
   9:userMenuPatternSewingMachine.c ****  *
  10:userMenuPatternSewingMachine.c ****  * ========================================
  11:userMenuPatternSewingMachine.c **** */
  12:userMenuPatternSewingMachine.c **** //#include "userMenu.h"
  13:userMenuPatternSewingMachine.c **** #include "lib/widget.h"
  14:userMenuPatternSewingMachine.c **** #include "lib/image.h"
  15:userMenuPatternSewingMachine.c **** #include "lib/externalFlash.h"
  16:userMenuPatternSewingMachine.c **** #include "lib/internalFlash.h"
  17:userMenuPatternSewingMachine.c **** #include "menuDesign.h"
  18:userMenuPatternSewingMachine.c **** #include "package.h"
  19:userMenuPatternSewingMachine.c **** ///#include "WIFI.h"
  20:userMenuPatternSewingMachine.c **** #include "count.h"
  21:userMenuPatternSewingMachine.c **** #include "currentSensor.h"
  22:userMenuPatternSewingMachine.c **** 
  23:userMenuPatternSewingMachine.c **** #ifdef USER_PROJECT_PATTERN_SEWING_MACHINE
  24:userMenuPatternSewingMachine.c **** 
  25:userMenuPatternSewingMachine.c **** #include "userProjectPatternSewing.h"
  26:userMenuPatternSewingMachine.c **** #include "lib/manageMenu.h"
  27:userMenuPatternSewingMachine.c **** #include "andonMenu.h"
  28:userMenuPatternSewingMachine.c ****     
  29:userMenuPatternSewingMachine.c **** ////char *g_patternString[] = {"Target", "Run", "Rate", "CT", "RT", "SQ", "SL", "SPI"}; // ņĀäļźśņä
  30:userMenuPatternSewingMachine.c **** char *g_patternString[] = {"Target", "Actual", "Rate", "CT", "RT", "SQ", "SL", "SPI"};
ARM GAS  C:\Users\luvsd\AppData\Local\Temp\ccw0dQKn.s 			page 2


  31:userMenuPatternSewingMachine.c **** uint8 g_noPatternString = 8;
  32:userMenuPatternSewingMachine.c **** 
  33:userMenuPatternSewingMachine.c **** char *g_sewingString[]  = {"Target", "Actual", "Rate", "Trim", "Stitch", "RT"};
  34:userMenuPatternSewingMachine.c **** uint8 g_nosewingString = 6;
  35:userMenuPatternSewingMachine.c **** 
  36:userMenuPatternSewingMachine.c **** //////////////////////
  37:userMenuPatternSewingMachine.c **** //// doTopMenu    ////
  38:userMenuPatternSewingMachine.c **** //////////////////////
  39:userMenuPatternSewingMachine.c **** void DisplayDoTopMenu(MONITORING_MENU *menu);
  40:userMenuPatternSewingMachine.c **** void TopMenuPageUpdate(MONITORING_MENU *menu, uint8 page);
  41:userMenuPatternSewingMachine.c **** void TopMenuPageUpdateValue(MONITORING_MENU *menu, uint8 page);
  42:userMenuPatternSewingMachine.c **** 
  43:userMenuPatternSewingMachine.c **** int doTopMenu(void *this, uint8 reflash)
  44:userMenuPatternSewingMachine.c **** {    
  45:userMenuPatternSewingMachine.c ****     MENUNODE *thisMenu = (MENUNODE *) this;    
  46:userMenuPatternSewingMachine.c ****     static MONITORING_MENU menu;
  47:userMenuPatternSewingMachine.c ****     static uint8 patternPage = 0;
  48:userMenuPatternSewingMachine.c ****     static uint8 sewingPage = 0;
  49:userMenuPatternSewingMachine.c ****     static uint8 page = 0, oldPage = 0xFF;
  50:userMenuPatternSewingMachine.c **** 
  51:userMenuPatternSewingMachine.c ****     switch(reflash)
  52:userMenuPatternSewingMachine.c ****     {
  53:userMenuPatternSewingMachine.c ****         case TRUE: // ĒÖöļ®┤ņØ┤ ļ░öļĆöļĢī ņŗżĒ¢ē
  54:userMenuPatternSewingMachine.c ****             {
  55:userMenuPatternSewingMachine.c ****                 switch(g_ptrMachineParameter->machineType)
  56:userMenuPatternSewingMachine.c ****                 {
  57:userMenuPatternSewingMachine.c ****                     case PATTERN_MACHINE:  page = patternPage; break;
  58:userMenuPatternSewingMachine.c ****                     case SEWING_MACHINE :  page = sewingPage;  break;
  59:userMenuPatternSewingMachine.c ****                 }
  60:userMenuPatternSewingMachine.c ****                 
  61:userMenuPatternSewingMachine.c ****                 oldPage = 0xFF;
  62:userMenuPatternSewingMachine.c ****                 g_updateCountMenu = TRUE;                
  63:userMenuPatternSewingMachine.c ****                 DisplayDoTopMenu(&menu);                
  64:userMenuPatternSewingMachine.c ****             }
  65:userMenuPatternSewingMachine.c ****             break;  
  66:userMenuPatternSewingMachine.c ****         
  67:userMenuPatternSewingMachine.c ****         case FALSE: // Cliking Check
  68:userMenuPatternSewingMachine.c ****             {
  69:userMenuPatternSewingMachine.c ****                 TOUCH tc = GetTouch();
  70:userMenuPatternSewingMachine.c ****                 if(tc.isClick == FALSE) break;
  71:userMenuPatternSewingMachine.c ****                 
  72:userMenuPatternSewingMachine.c ****                 switch(getIndexOfClickedButton(&tc, menu.btn,7))
  73:userMenuPatternSewingMachine.c ****                 {
  74:userMenuPatternSewingMachine.c ****                     case 0: return 2; break;
  75:userMenuPatternSewingMachine.c ****                     
  76:userMenuPatternSewingMachine.c ****                     case 1:
  77:userMenuPatternSewingMachine.c ****                     case 2:
  78:userMenuPatternSewingMachine.c ****                         switch(g_ptrMachineParameter->machineType)
  79:userMenuPatternSewingMachine.c ****                         {
  80:userMenuPatternSewingMachine.c ****                             case PATTERN_MACHINE:
  81:userMenuPatternSewingMachine.c ****                                 if     (page == 0) return 3;
  82:userMenuPatternSewingMachine.c ****                                 else if(page > 0 ) page--;
  83:userMenuPatternSewingMachine.c ****                                 break;
  84:userMenuPatternSewingMachine.c ****                             case SEWING_MACHINE :
  85:userMenuPatternSewingMachine.c ****                                 if     (page == 0) return 3;
  86:userMenuPatternSewingMachine.c ****                                 else if(page > 0 ) page--;
  87:userMenuPatternSewingMachine.c ****                                 break;                                
ARM GAS  C:\Users\luvsd\AppData\Local\Temp\ccw0dQKn.s 			page 3


  88:userMenuPatternSewingMachine.c ****                         }
  89:userMenuPatternSewingMachine.c ****                         break;
  90:userMenuPatternSewingMachine.c ****                         
  91:userMenuPatternSewingMachine.c ****                     case 3:                        
  92:userMenuPatternSewingMachine.c ****                     case 4:
  93:userMenuPatternSewingMachine.c ****                         switch(g_ptrMachineParameter->machineType)
  94:userMenuPatternSewingMachine.c ****                         {
  95:userMenuPatternSewingMachine.c ****                             case PATTERN_MACHINE:
  96:userMenuPatternSewingMachine.c ****                                 if (page == 0) return 4;
  97:userMenuPatternSewingMachine.c ****                                 //else if(page > 0 ) page--;
  98:userMenuPatternSewingMachine.c ****                                 break;
  99:userMenuPatternSewingMachine.c ****                             case SEWING_MACHINE :
 100:userMenuPatternSewingMachine.c ****                                 if (page == 0) return 4;
 101:userMenuPatternSewingMachine.c ****                                 //else if(page > 0 ) page--;
 102:userMenuPatternSewingMachine.c ****                                 break;                                
 103:userMenuPatternSewingMachine.c ****                         }                       
 104:userMenuPatternSewingMachine.c ****                         break;
 105:userMenuPatternSewingMachine.c ****                         
 106:userMenuPatternSewingMachine.c ****                     case 5:
 107:userMenuPatternSewingMachine.c ****                     case 6:
 108:userMenuPatternSewingMachine.c ****                         switch(g_ptrMachineParameter->machineType)
 109:userMenuPatternSewingMachine.c ****                         {
 110:userMenuPatternSewingMachine.c ****                             case PATTERN_MACHINE:
 111:userMenuPatternSewingMachine.c ****                                 if (page < 2)  page++;
 112:userMenuPatternSewingMachine.c ****                                 break;
 113:userMenuPatternSewingMachine.c ****                             /*case SEWING_MACHINE : // ņØ╝ļ░śņ×¼ļ┤ēĻĖ░ 1ĒÄśņØ┤ņ¦Ćļ¦ī ņé¼ņÜ®ņŗ£ ņŻ╝ņ
 114:userMenuPatternSewingMachine.c ****                                 if     (page < 1)  page++;
 115:userMenuPatternSewingMachine.c ****                                 break;*/                            
 116:userMenuPatternSewingMachine.c ****                         }
 117:userMenuPatternSewingMachine.c ****                         break;             
 118:userMenuPatternSewingMachine.c ****                     default:
 119:userMenuPatternSewingMachine.c ****                         switch(getIndexOfClickedButton(&tc,g_btnBottom,2))
 120:userMenuPatternSewingMachine.c ****                         {
 121:userMenuPatternSewingMachine.c ****                             case BOTTOM_LEFT:  return 0;
 122:userMenuPatternSewingMachine.c ****                             case BOTTOM_RIGHT: return 1;                            
 123:userMenuPatternSewingMachine.c ****                         }
 124:userMenuPatternSewingMachine.c ****                     break;
 125:userMenuPatternSewingMachine.c ****                 }
 126:userMenuPatternSewingMachine.c ****                 
 127:userMenuPatternSewingMachine.c ****             }
 128:userMenuPatternSewingMachine.c ****             break;
 129:userMenuPatternSewingMachine.c ****         default:
 130:userMenuPatternSewingMachine.c ****             g_updateCountMenu = TRUE;
 131:userMenuPatternSewingMachine.c ****             break;
 132:userMenuPatternSewingMachine.c ****     }
 133:userMenuPatternSewingMachine.c ****     
 134:userMenuPatternSewingMachine.c ****    if(oldPage != page || g_updateCountMenu == TRUE) TopMenuPageUpdate(&menu, page);
 135:userMenuPatternSewingMachine.c ****     
 136:userMenuPatternSewingMachine.c ****     oldPage = page;
 137:userMenuPatternSewingMachine.c ****     g_updateCountMenu = FALSE;
 138:userMenuPatternSewingMachine.c ****     return MENU_RETURN_THIS;    
 139:userMenuPatternSewingMachine.c **** }
 140:userMenuPatternSewingMachine.c **** 
 141:userMenuPatternSewingMachine.c **** void TopMenuPageUpdate(MONITORING_MENU *menu, uint8 page)
 142:userMenuPatternSewingMachine.c **** {
 143:userMenuPatternSewingMachine.c ****     switch(g_ptrMachineParameter->machineType)
 144:userMenuPatternSewingMachine.c ****     {
ARM GAS  C:\Users\luvsd\AppData\Local\Temp\ccw0dQKn.s 			page 4


 145:userMenuPatternSewingMachine.c ****         case PATTERN_MACHINE:
 146:userMenuPatternSewingMachine.c ****         {
 147:userMenuPatternSewingMachine.c ****             switch(page)
 148:userMenuPatternSewingMachine.c ****             {
 149:userMenuPatternSewingMachine.c ****                 case 0:
 150:userMenuPatternSewingMachine.c ****                     SetButtonText(&menu->btn[1],g_patternString[0]);
 151:userMenuPatternSewingMachine.c ****                     SetButtonText(&menu->btn[3],g_patternString[1]);
 152:userMenuPatternSewingMachine.c ****                     SetButtonText(&menu->btn[5],g_patternString[2]);
 153:userMenuPatternSewingMachine.c ****                     break;
 154:userMenuPatternSewingMachine.c ****                 case 1:
 155:userMenuPatternSewingMachine.c ****                     SetButtonText(&menu->btn[1],g_patternString[3]);
 156:userMenuPatternSewingMachine.c ****                     SetButtonText(&menu->btn[3],g_patternString[4]);
 157:userMenuPatternSewingMachine.c ****                     SetButtonText(&menu->btn[5],g_patternString[2]);                    
 158:userMenuPatternSewingMachine.c ****                     break;
 159:userMenuPatternSewingMachine.c ****                 case 2:
 160:userMenuPatternSewingMachine.c ****                     SetButtonText(&menu->btn[1],g_patternString[5]);
 161:userMenuPatternSewingMachine.c ****                     SetButtonText(&menu->btn[3],g_patternString[6]);
 162:userMenuPatternSewingMachine.c ****                     SetButtonText(&menu->btn[5],g_patternString[7]);                      
 163:userMenuPatternSewingMachine.c ****                     break;
 164:userMenuPatternSewingMachine.c ****             }
 165:userMenuPatternSewingMachine.c ****         }
 166:userMenuPatternSewingMachine.c ****         break;
 167:userMenuPatternSewingMachine.c ****         case SEWING_MACHINE:
 168:userMenuPatternSewingMachine.c ****         {
 169:userMenuPatternSewingMachine.c ****             switch(page)
 170:userMenuPatternSewingMachine.c ****             {
 171:userMenuPatternSewingMachine.c ****                 case 0:
 172:userMenuPatternSewingMachine.c ****                     SetButtonText(&menu->btn[1],g_patternString[0]);
 173:userMenuPatternSewingMachine.c ****                     SetButtonText(&menu->btn[3],g_patternString[1]);
 174:userMenuPatternSewingMachine.c ****                     SetButtonText(&menu->btn[5],g_patternString[2]);
 175:userMenuPatternSewingMachine.c ****                     break;
 176:userMenuPatternSewingMachine.c ****                 /*case 1:   // ņØ╝ļ░śņ×¼ļ┤ēĻĖ░ 1ĒÄśņØ┤ņ¦Ćļ¦ī ņé¼ņÜ®ņŗ£ ņŻ╝ņäØ ņ▓śļ”¼.
 177:userMenuPatternSewingMachine.c ****                     SetButtonText(&menu->btn[1],g_patternString[3]);
 178:userMenuPatternSewingMachine.c ****                     SetButtonText(&menu->btn[3],g_patternString[4]);
 179:userMenuPatternSewingMachine.c ****                     SetButtonText(&menu->btn[5],g_patternString[5]);                    
 180:userMenuPatternSewingMachine.c ****                     break;*/     
 181:userMenuPatternSewingMachine.c ****             }
 182:userMenuPatternSewingMachine.c ****         }
 183:userMenuPatternSewingMachine.c ****         break;        
 184:userMenuPatternSewingMachine.c ****     }
 185:userMenuPatternSewingMachine.c **** 
 186:userMenuPatternSewingMachine.c ****     //menu->btn[3].disable = TRUE; // for no click second line
 187:userMenuPatternSewingMachine.c ****     //menu->btn[4].disable = TRUE; // for no click second line 
 188:userMenuPatternSewingMachine.c ****         
 189:userMenuPatternSewingMachine.c ****     DrawButton(&menu->btn[1]);
 190:userMenuPatternSewingMachine.c ****     DrawButton(&menu->btn[3]);
 191:userMenuPatternSewingMachine.c ****     DrawButton(&menu->btn[5]); 
 192:userMenuPatternSewingMachine.c **** 
 193:userMenuPatternSewingMachine.c ****     TopMenuPageUpdateValue(menu,page);
 194:userMenuPatternSewingMachine.c ****     
 195:userMenuPatternSewingMachine.c **** }
 196:userMenuPatternSewingMachine.c **** 
 197:userMenuPatternSewingMachine.c **** void DisplayDoTopMenu(MONITORING_MENU *menu)
 198:userMenuPatternSewingMachine.c **** {
 199:userMenuPatternSewingMachine.c ****     switch(g_ptrMachineParameter->machineType)
 200:userMenuPatternSewingMachine.c ****     {
 201:userMenuPatternSewingMachine.c ****         case PATTERN_MACHINE: SetDrawMonitoringMenu(menu, "%d : %3.1f-Pair",
ARM GAS  C:\Users\luvsd\AppData\Local\Temp\ccw0dQKn.s 			page 5


 202:userMenuPatternSewingMachine.c ****         ////case PATTERN_MACHINE: SetDrawMonitoringMenu(menu, "Availability",   //// ņĀäļźśņä╝ņä£ ņ
 203:userMenuPatternSewingMachine.c ****             g_ptrMachineParameter->patternPairCount, g_ptrMachineParameter->patternPair/10.);
 204:userMenuPatternSewingMachine.c ****             break;
 205:userMenuPatternSewingMachine.c ****         case SEWING_MACHINE:  SetDrawMonitoringMenu(menu, "%d : %3.1f-Pair",
 206:userMenuPatternSewingMachine.c ****         ////case SEWING_MACHINE:  SetDrawMonitoringMenu(menu, "%d : %3.1f ACT",
 207:userMenuPatternSewingMachine.c ****         ////case SEWING_MACHINE: SetDrawMonitoringMenu(menu, "Availability",   //// ņĀäļźśņä╝ņä£ ņé
 208:userMenuPatternSewingMachine.c ****             g_ptrMachineParameter->sewingPairTrim, g_ptrMachineParameter->sewingPair/10.);
 209:userMenuPatternSewingMachine.c ****         break;
 210:userMenuPatternSewingMachine.c ****     }    
 211:userMenuPatternSewingMachine.c **** 
 212:userMenuPatternSewingMachine.c ****     SetDrawBottomButtons("MENU", (g_ptrMachineParameter->andon_enable==TRUE ) ? "ANDON" : "RESET", 
 213:userMenuPatternSewingMachine.c **** }
 214:userMenuPatternSewingMachine.c **** 
 215:userMenuPatternSewingMachine.c **** void TopMenuPageUpdateValue(MONITORING_MENU *menu, uint8 page)
 216:userMenuPatternSewingMachine.c **** {
 217:userMenuPatternSewingMachine.c ****     BUTTON *btn;
 218:userMenuPatternSewingMachine.c ****     uint8 persent = FALSE;
 219:userMenuPatternSewingMachine.c ****     uint8 rate100 = FALSE;
 220:userMenuPatternSewingMachine.c ****     float spi = 0.0;
 221:userMenuPatternSewingMachine.c ****     COUNT *ptrCount = getCount();
 222:userMenuPatternSewingMachine.c ****     if((uint32) CONVERT_TO_4BYTE(ptrCount->patternNoStitchSumH,ptrCount->patternNoStitchSumL) > 0 &
 223:userMenuPatternSewingMachine.c ****        (uint32) CONVERT_TO_4BYTE(ptrCount->patternStitchLengthSumH,ptrCount->patternStitchLengthSum
 224:userMenuPatternSewingMachine.c ****     {
 225:userMenuPatternSewingMachine.c ****         spi = 25.4 / (((float) ((uint32) CONVERT_TO_4BYTE(ptrCount->patternStitchLengthSumH,ptrCoun
 226:userMenuPatternSewingMachine.c ****                       ((float) ((uint32) CONVERT_TO_4BYTE(ptrCount->patternNoStitchSumH,ptrCount->p
 227:userMenuPatternSewingMachine.c ****         
 228:userMenuPatternSewingMachine.c ****     }
 229:userMenuPatternSewingMachine.c ****     //printf("%lu, %lu\r\n", (uint32) CONVERT_TO_4BYTE(g_ptrCount->patternStitchLengthSumH,g_ptrCou
 230:userMenuPatternSewingMachine.c ****     
 231:userMenuPatternSewingMachine.c ****     switch(g_ptrMachineParameter->machineType)
 232:userMenuPatternSewingMachine.c ****     {
 233:userMenuPatternSewingMachine.c ****         case PATTERN_MACHINE:
 234:userMenuPatternSewingMachine.c ****         {
 235:userMenuPatternSewingMachine.c ****             switch(page)
 236:userMenuPatternSewingMachine.c ****             {
 237:userMenuPatternSewingMachine.c ****                 case 0:
 238:userMenuPatternSewingMachine.c ****                     SetButtonText(&menu->btn[2],"%u",g_ptrMachineParameter->patternTarget);
 239:userMenuPatternSewingMachine.c ****                     SetButtonText(&menu->btn[4],"%lu",   ((uint32) CONVERT_TO_4BYTE(ptrCount->patte
 240:userMenuPatternSewingMachine.c ****                     SetButtonText(&menu->btn[6],"%4.1f",((uint32) CONVERT_TO_4BYTE(ptrCount->patter
 241:userMenuPatternSewingMachine.c ****                     if(strcmp("100.0",menu->btn[6].text)==0) rate100 = TRUE;
 242:userMenuPatternSewingMachine.c ****                     persent = TRUE;
 243:userMenuPatternSewingMachine.c ****                     break;
 244:userMenuPatternSewingMachine.c ****                 case 1:
 245:userMenuPatternSewingMachine.c ****                     SetButtonText(&menu->btn[2],"%0.1f",(uint32) CONVERT_TO_4BYTE(ptrCount->pattern
 246:userMenuPatternSewingMachine.c ****                     SetButtonText(&menu->btn[4],"%0.1f",(uint32) CONVERT_TO_4BYTE(ptrCount->pattern
 247:userMenuPatternSewingMachine.c ****                     SetButtonText(&menu->btn[6],"%4.1f",((uint32) CONVERT_TO_4BYTE(ptrCount->patter
 248:userMenuPatternSewingMachine.c ****                     persent = TRUE;
 249:userMenuPatternSewingMachine.c ****                     break;
 250:userMenuPatternSewingMachine.c ****                 case 2:
 251:userMenuPatternSewingMachine.c ****                     SetButtonText(&menu->btn[2],"%lu",(uint32) CONVERT_TO_4BYTE(ptrCount->patternNo
 252:userMenuPatternSewingMachine.c ****                     SetButtonText(&menu->btn[4],"%lu",(uint32) CONVERT_TO_4BYTE(ptrCount->patternSt
 253:userMenuPatternSewingMachine.c ****                     SetButtonText(&menu->btn[6],"%4.1f",spi);    
 254:userMenuPatternSewingMachine.c ****                     break;
 255:userMenuPatternSewingMachine.c ****             }
 256:userMenuPatternSewingMachine.c ****         }
 257:userMenuPatternSewingMachine.c ****         break; 
 258:userMenuPatternSewingMachine.c ****         case SEWING_MACHINE:
ARM GAS  C:\Users\luvsd\AppData\Local\Temp\ccw0dQKn.s 			page 6


 259:userMenuPatternSewingMachine.c ****         {
 260:userMenuPatternSewingMachine.c ****             switch(page)
 261:userMenuPatternSewingMachine.c ****             {
 262:userMenuPatternSewingMachine.c ****                 case 0:
 263:userMenuPatternSewingMachine.c ****                     SetButtonText(&menu->btn[2],"%u",g_ptrMachineParameter->sewingTarget);
 264:userMenuPatternSewingMachine.c ****                     SetButtonText(&menu->btn[4],"%lu",   ((uint32) CONVERT_TO_4BYTE(ptrCount->sewin
 265:userMenuPatternSewingMachine.c ****                     SetButtonText(&menu->btn[6],"%4.1f",((uint32) CONVERT_TO_4BYTE(ptrCount->sewing
 266:userMenuPatternSewingMachine.c ****                     if(strcmp("100.0",menu->btn[6].text)==0) rate100 = TRUE;
 267:userMenuPatternSewingMachine.c ****                     persent = TRUE;                    
 268:userMenuPatternSewingMachine.c ****                     break;
 269:userMenuPatternSewingMachine.c ****                 case 1:
 270:userMenuPatternSewingMachine.c ****                     SetButtonText(&menu->btn[2],"%lu",((uint32) CONVERT_TO_4BYTE(ptrCount->sewingTr
 271:userMenuPatternSewingMachine.c ****                     SetButtonText(&menu->btn[4],"%lu",((uint32) CONVERT_TO_4BYTE(ptrCount->sewingNo
 272:userMenuPatternSewingMachine.c ****                     SetButtonText(&menu->btn[6],"%lu",((uint32) CONVERT_TO_4BYTE(ptrCount->sewingMo
 273:userMenuPatternSewingMachine.c ****                     break;     
 274:userMenuPatternSewingMachine.c ****             }
 275:userMenuPatternSewingMachine.c ****         }
 276:userMenuPatternSewingMachine.c ****         break;        
 277:userMenuPatternSewingMachine.c ****     }    
 278:userMenuPatternSewingMachine.c ****     
 279:userMenuPatternSewingMachine.c ****     DrawButton(&menu->btn[2]);
 280:userMenuPatternSewingMachine.c ****     DrawButton(&menu->btn[4]);
 281:userMenuPatternSewingMachine.c ****     DrawButton(&menu->btn[6]);
 282:userMenuPatternSewingMachine.c ****     
 283:userMenuPatternSewingMachine.c ****     ///if(rate100) Buzzer(BUZZER_WARNING_CONTINUOUS,0);
 284:userMenuPatternSewingMachine.c ****     
 285:userMenuPatternSewingMachine.c ****     if( persent)
 286:userMenuPatternSewingMachine.c ****     {
 287:userMenuPatternSewingMachine.c ****         BUTTON *b = &menu->btn[6];
 288:userMenuPatternSewingMachine.c ****         LCD_DrawFont(b->rect.right-16,(b->rect.top+b->rect.bottom)*.5-10,b->foregroundColor,b->back
 289:userMenuPatternSewingMachine.c ****     }
 290:userMenuPatternSewingMachine.c **** }
 291:userMenuPatternSewingMachine.c **** 
 292:userMenuPatternSewingMachine.c **** /////////////////////////
 293:userMenuPatternSewingMachine.c **** //// doPairsInfoMenu ////
 294:userMenuPatternSewingMachine.c **** /////////////////////////
 295:userMenuPatternSewingMachine.c **** void DisplayDoPairsInfoMenu(UP_DOWN_TWO_MENU *menu);
 296:userMenuPatternSewingMachine.c **** void DisplayDoPairsInfoMenuSelectValue(UP_DOWN_TWO_MENU *menu, uint8 selectValue, uint16 leftValue,
 297:userMenuPatternSewingMachine.c **** void DisplayDoPairsInfoMenuLeftValueChange(UP_DOWN_TWO_MENU *menu, uint16 leftValue);
 298:userMenuPatternSewingMachine.c **** void DisplayDoPairsInfoMenuRightValueChange(UP_DOWN_TWO_MENU *menu, uint16 rightValue); // rightVal
 299:userMenuPatternSewingMachine.c **** 
 300:userMenuPatternSewingMachine.c **** int doPairsInfoMenu(void *this, uint8 reflash)
 301:userMenuPatternSewingMachine.c **** {    
 302:userMenuPatternSewingMachine.c ****     MENUNODE *thisMenu = (MENUNODE *) this;    
 303:userMenuPatternSewingMachine.c ****     static UP_DOWN_TWO_MENU menu;    
 304:userMenuPatternSewingMachine.c ****     static uint16 selectValue = 0;
 305:userMenuPatternSewingMachine.c ****     static uint16 leftValue = 2;
 306:userMenuPatternSewingMachine.c ****     static uint16  rightValue = 25;
 307:userMenuPatternSewingMachine.c **** 
 308:userMenuPatternSewingMachine.c ****     switch(reflash)
 309:userMenuPatternSewingMachine.c ****     {
 310:userMenuPatternSewingMachine.c ****         case TRUE: // ĒÖöļ®┤ņØ┤ ļ░öļĆöļĢī ņŗżĒ¢ē
 311:userMenuPatternSewingMachine.c ****             {
 312:userMenuPatternSewingMachine.c ****                 DisplayDoPairsInfoMenu(&menu);
 313:userMenuPatternSewingMachine.c ****                 
 314:userMenuPatternSewingMachine.c ****                 switch(g_ptrMachineParameter->machineType)
 315:userMenuPatternSewingMachine.c ****                 {
ARM GAS  C:\Users\luvsd\AppData\Local\Temp\ccw0dQKn.s 			page 7


 316:userMenuPatternSewingMachine.c ****                     case PATTERN_MACHINE: 
 317:userMenuPatternSewingMachine.c ****                         leftValue  = g_ptrMachineParameter->patternPairCount;
 318:userMenuPatternSewingMachine.c ****                         rightValue = g_ptrMachineParameter->patternPair;
 319:userMenuPatternSewingMachine.c ****                         break;
 320:userMenuPatternSewingMachine.c ****                     case SEWING_MACHINE:
 321:userMenuPatternSewingMachine.c ****                         leftValue  = g_ptrMachineParameter->sewingPairTrim;
 322:userMenuPatternSewingMachine.c ****                         rightValue = g_ptrMachineParameter->sewingPair;
 323:userMenuPatternSewingMachine.c ****                         break;
 324:userMenuPatternSewingMachine.c ****                     break;
 325:userMenuPatternSewingMachine.c ****                 }  
 326:userMenuPatternSewingMachine.c ****     
 327:userMenuPatternSewingMachine.c ****                 DisplayDoPairsInfoMenuSelectValue(&menu, selectValue, leftValue, rightValue);
 328:userMenuPatternSewingMachine.c ****             }
 329:userMenuPatternSewingMachine.c ****             break;  
 330:userMenuPatternSewingMachine.c **** 
 331:userMenuPatternSewingMachine.c ****         case FALSE: // Cliking Check
 332:userMenuPatternSewingMachine.c ****             {
 333:userMenuPatternSewingMachine.c ****                 TOUCH tc = GetTouch();
 334:userMenuPatternSewingMachine.c ****                 if(tc.isClick == FALSE) break;
 335:userMenuPatternSewingMachine.c ****                 uint16 indexClick = getIndexOfClickedButton(&tc, menu.btn,7);
 336:userMenuPatternSewingMachine.c ****                 switch(indexClick)
 337:userMenuPatternSewingMachine.c ****                 {
 338:userMenuPatternSewingMachine.c ****                     case UPDOWNTWO_FIRST_TEXT:  // left
 339:userMenuPatternSewingMachine.c ****                     case UPDOWNTWO_FIRST_VALUE:
 340:userMenuPatternSewingMachine.c ****                         selectValue = 0;
 341:userMenuPatternSewingMachine.c ****                         DisplayDoPairsInfoMenuSelectValue(&menu,selectValue, leftValue, rightValue)
 342:userMenuPatternSewingMachine.c ****                         break;
 343:userMenuPatternSewingMachine.c ****                     case UPDOWNTWO_SECOND_TEXT:  // right
 344:userMenuPatternSewingMachine.c ****                     case UPDOWNTWO_SECOND_VALUE:
 345:userMenuPatternSewingMachine.c ****                         selectValue = 1;
 346:userMenuPatternSewingMachine.c ****                         DisplayDoPairsInfoMenuSelectValue(&menu,selectValue, leftValue, rightValue)
 347:userMenuPatternSewingMachine.c ****                         break;                    
 348:userMenuPatternSewingMachine.c ****                     case UPDOWNTWO_UP_BUTTON: // for up
 349:userMenuPatternSewingMachine.c ****                         if      (selectValue==0 && leftValue < 10000)
 350:userMenuPatternSewingMachine.c ****                         {
 351:userMenuPatternSewingMachine.c ****                             leftValue++;
 352:userMenuPatternSewingMachine.c ****                             DisplayDoPairsInfoMenuLeftValueChange(&menu,leftValue);
 353:userMenuPatternSewingMachine.c ****                         }
 354:userMenuPatternSewingMachine.c ****                         else if (selectValue==1 && rightValue < 10000)
 355:userMenuPatternSewingMachine.c ****                         {
 356:userMenuPatternSewingMachine.c ****                             rightValue++;
 357:userMenuPatternSewingMachine.c ****                             DisplayDoPairsInfoMenuRightValueChange(&menu,rightValue);
 358:userMenuPatternSewingMachine.c ****                         }
 359:userMenuPatternSewingMachine.c ****                         break;                       
 360:userMenuPatternSewingMachine.c ****                     case UPDOWNTWO_DOWN_BUTTON: // for down
 361:userMenuPatternSewingMachine.c ****                         if      (selectValue==0 && leftValue > 1)
 362:userMenuPatternSewingMachine.c ****                         {
 363:userMenuPatternSewingMachine.c ****                             leftValue--;
 364:userMenuPatternSewingMachine.c ****                             DisplayDoPairsInfoMenuLeftValueChange(&menu,leftValue);
 365:userMenuPatternSewingMachine.c ****                         }                        
 366:userMenuPatternSewingMachine.c ****                         else if (selectValue==1 && rightValue > 1) 
 367:userMenuPatternSewingMachine.c ****                         {
 368:userMenuPatternSewingMachine.c ****                             rightValue--;
 369:userMenuPatternSewingMachine.c ****                             DisplayDoPairsInfoMenuRightValueChange(&menu,rightValue);
 370:userMenuPatternSewingMachine.c ****                         }                 
 371:userMenuPatternSewingMachine.c ****                         break;                    
 372:userMenuPatternSewingMachine.c ****                     default:
ARM GAS  C:\Users\luvsd\AppData\Local\Temp\ccw0dQKn.s 			page 8


 373:userMenuPatternSewingMachine.c ****                         switch(getIndexOfClickedButton(&tc,g_btnBottom,2))
 374:userMenuPatternSewingMachine.c ****                         {
 375:userMenuPatternSewingMachine.c ****                             case BOTTOM_LEFT:  return MENU_RETURN_PARENT;
 376:userMenuPatternSewingMachine.c ****                             case BOTTOM_RIGHT: 
 377:userMenuPatternSewingMachine.c ****                             {
 378:userMenuPatternSewingMachine.c ****                                 switch(g_ptrMachineParameter->machineType)
 379:userMenuPatternSewingMachine.c ****                                 {
 380:userMenuPatternSewingMachine.c ****                                     case PATTERN_MACHINE: 
 381:userMenuPatternSewingMachine.c ****                                         g_ptrMachineParameter->patternPairCount = leftValue; 
 382:userMenuPatternSewingMachine.c ****                                         g_ptrMachineParameter->patternPair      = rightValue;
 383:userMenuPatternSewingMachine.c ****                                         break;
 384:userMenuPatternSewingMachine.c ****                                     case SEWING_MACHINE:
 385:userMenuPatternSewingMachine.c ****                                         g_ptrMachineParameter->sewingPairTrim = leftValue ; 
 386:userMenuPatternSewingMachine.c ****                                         g_ptrMachineParameter->sewingPair     = rightValue; 
 387:userMenuPatternSewingMachine.c ****                                         break;
 388:userMenuPatternSewingMachine.c ****                                     break;
 389:userMenuPatternSewingMachine.c ****                                 }
 390:userMenuPatternSewingMachine.c ****                                 ShowWaitMessage();
 391:userMenuPatternSewingMachine.c ****                                 SaveExternalFlashConfig();
 392:userMenuPatternSewingMachine.c ****                                 return MENU_RETURN_PARENT;
 393:userMenuPatternSewingMachine.c ****                             }
 394:userMenuPatternSewingMachine.c ****                         }
 395:userMenuPatternSewingMachine.c ****                     break;
 396:userMenuPatternSewingMachine.c ****                 }                                  
 397:userMenuPatternSewingMachine.c ****             }
 398:userMenuPatternSewingMachine.c ****             break;
 399:userMenuPatternSewingMachine.c ****     }
 400:userMenuPatternSewingMachine.c ****     return MENU_RETURN_THIS;    
 401:userMenuPatternSewingMachine.c **** }
 402:userMenuPatternSewingMachine.c **** 
 403:userMenuPatternSewingMachine.c **** void DisplayDoPairsInfoMenu(UP_DOWN_TWO_MENU *menu)
 404:userMenuPatternSewingMachine.c **** {
 405:userMenuPatternSewingMachine.c ****     switch(g_ptrMachineParameter->machineType)
 406:userMenuPatternSewingMachine.c ****     {
 407:userMenuPatternSewingMachine.c ****         case PATTERN_MACHINE: SetDrawUpDownTwoMenu(menu, "Count", "Pair(s)", "Pairs info.");   brea
 408:userMenuPatternSewingMachine.c ****         ////case SEWING_MACHINE:  SetDrawUpDownTwoMenu(menu, "Trim",  "Pair(s)", "Pairs infos.");  
 409:userMenuPatternSewingMachine.c ****         case SEWING_MACHINE:  SetDrawUpDownTwoMenu(menu, "Trim",  "Actual", "Actual info.");   brea
 410:userMenuPatternSewingMachine.c ****         break;
 411:userMenuPatternSewingMachine.c ****     }    
 412:userMenuPatternSewingMachine.c ****     
 413:userMenuPatternSewingMachine.c ****     menu->btn[0].disable = TRUE; // for no click title
 414:userMenuPatternSewingMachine.c ****    
 415:userMenuPatternSewingMachine.c ****     SetDrawBottomButtons("QUIT", "SAVE", BUTTON_STYLE_R_GREEN, BUTTON_STYLE_R_BLUE);  
 416:userMenuPatternSewingMachine.c **** }
 417:userMenuPatternSewingMachine.c **** 
 418:userMenuPatternSewingMachine.c **** void DisplayDoPairsInfoMenuSelectValue(UP_DOWN_TWO_MENU *menu, uint8 selectValue, uint16 firstValue
 419:userMenuPatternSewingMachine.c **** {
 420:userMenuPatternSewingMachine.c ****     SetButtonStyleColor(&menu->btn[UPDOWNTWO_FIRST_TEXT],  (selectValue==0) ? BUTTON_STYLE_WHITE : 
 421:userMenuPatternSewingMachine.c ****     SetButtonStyleColor(&menu->btn[UPDOWNTWO_FIRST_VALUE], (selectValue==0) ? BUTTON_STYLE_YELLOW: 
 422:userMenuPatternSewingMachine.c ****     SetButtonStyleColor(&menu->btn[UPDOWNTWO_SECOND_TEXT], (selectValue==1) ? BUTTON_STYLE_WHITE : 
 423:userMenuPatternSewingMachine.c ****     SetButtonStyleColor(&menu->btn[UPDOWNTWO_SECOND_VALUE],(selectValue==1) ? BUTTON_STYLE_YELLOW: 
 424:userMenuPatternSewingMachine.c ****     
 425:userMenuPatternSewingMachine.c ****     DrawButton(&menu->btn[UPDOWNTWO_FIRST_TEXT]);
 426:userMenuPatternSewingMachine.c ****     DrawButton(&menu->btn[UPDOWNTWO_SECOND_TEXT]);
 427:userMenuPatternSewingMachine.c ****     
 428:userMenuPatternSewingMachine.c ****     DisplayDoPairsInfoMenuLeftValueChange(menu,firstValue);
 429:userMenuPatternSewingMachine.c ****     DisplayDoPairsInfoMenuRightValueChange(menu,secondValue);    
ARM GAS  C:\Users\luvsd\AppData\Local\Temp\ccw0dQKn.s 			page 9


 430:userMenuPatternSewingMachine.c **** }
 431:userMenuPatternSewingMachine.c **** void DisplayDoPairsInfoMenuLeftValueChange(UP_DOWN_TWO_MENU *menu, uint16 value)
 432:userMenuPatternSewingMachine.c **** {  
 433:userMenuPatternSewingMachine.c ****     SetButtonText(&menu->btn[UPDOWNTWO_FIRST_VALUE],"%d",value);    // left value   
 434:userMenuPatternSewingMachine.c ****     DrawButton(&menu->btn[UPDOWNTWO_FIRST_VALUE]);
 435:userMenuPatternSewingMachine.c **** }
 436:userMenuPatternSewingMachine.c **** void DisplayDoPairsInfoMenuRightValueChange(UP_DOWN_TWO_MENU *menu, uint16 value)
 437:userMenuPatternSewingMachine.c **** {
 438:userMenuPatternSewingMachine.c ****     SetButtonText(&menu->btn[UPDOWNTWO_SECOND_VALUE],"%3.1f",value/10.); // right value   
 439:userMenuPatternSewingMachine.c ****     DrawButton(&menu->btn[UPDOWNTWO_SECOND_VALUE]);     
 440:userMenuPatternSewingMachine.c **** }
 441:userMenuPatternSewingMachine.c **** int doTargetInfoMenu(void *this, uint8 reflash)
 442:userMenuPatternSewingMachine.c **** {
  28              		.loc 1 442 0
  29              		.cfi_startproc
  30              		@ args = 0, pretend = 0, frame = 0
  31              		@ frame_needed = 0, uses_anonymous_args = 0
  32              	.LVL0:
  33 0000 00B5     		push	{lr}
  34              		.cfi_def_cfa_offset 4
  35              		.cfi_offset 14, -4
  36 0002 85B0     		sub	sp, sp, #20
  37              		.cfi_def_cfa_offset 24
  38 0004 0800     		movs	r0, r1
  39              	.LVL1:
 443:userMenuPatternSewingMachine.c ****     MENUNODE *thisMenu = (MENUNODE *) this;
 444:userMenuPatternSewingMachine.c ****     static char *strTitle = "Target info.";
 445:userMenuPatternSewingMachine.c ****     static char *strValue = "Target";
 446:userMenuPatternSewingMachine.c ****     static int32 minValue = 0, maxValue = 99999;
 447:userMenuPatternSewingMachine.c ****     static int32 incr[] = {1, 100, 500};
 448:userMenuPatternSewingMachine.c ****     static uint16 selectIncre = 0;
 449:userMenuPatternSewingMachine.c ****     static int32 value = 0;
 450:userMenuPatternSewingMachine.c **** 
 451:userMenuPatternSewingMachine.c ****     switch(doIncreseNumberMenu(reflash, strTitle, strValue, incr, &value, minValue, maxValue, &sele
  40              		.loc 1 451 0
  41 0006 104B     		ldr	r3, .L7
  42 0008 0393     		str	r3, [sp, #12]
  43 000a 104A     		ldr	r2, .L7+4
  44 000c 0292     		str	r2, [sp, #8]
  45 000e 0022     		movs	r2, #0
  46 0010 0192     		str	r2, [sp, #4]
  47 0012 0433     		adds	r3, r3, #4
  48 0014 0093     		str	r3, [sp]
  49 0016 0E4B     		ldr	r3, .L7+8
  50 0018 0E4A     		ldr	r2, .L7+12
  51 001a 0F49     		ldr	r1, .L7+16
  52              	.LVL2:
  53 001c FFF7FEFF 		bl	doIncreseNumberMenu
  54              	.LVL3:
  55 0020 0E4B     		ldr	r3, .L7+20
  56 0022 9842     		cmp	r0, r3
  57 0024 03D0     		beq	.L3
  58 0026 0E4B     		ldr	r3, .L7+24
  59 0028 9842     		cmp	r0, r3
  60 002a 03D0     		beq	.L4
  61 002c 09E0     		b	.L6
  62              	.L3:
ARM GAS  C:\Users\luvsd\AppData\Local\Temp\ccw0dQKn.s 			page 10


 452:userMenuPatternSewingMachine.c ****     {
 453:userMenuPatternSewingMachine.c ****         case MENU_BOTTOM_LEFT:
 454:userMenuPatternSewingMachine.c ****             return MENU_RETURN_PARENT;
  63              		.loc 1 454 0
  64 002e 8020     		movs	r0, #128
  65 0030 0006     		lsls	r0, r0, #24
  66 0032 07E0     		b	.L2
  67              	.L4:
 455:userMenuPatternSewingMachine.c ****         case MENU_BOTTOM_RIGHT:
 456:userMenuPatternSewingMachine.c ****             ShowWaitMessage();
  68              		.loc 1 456 0
  69 0034 FFF7FEFF 		bl	ShowWaitMessage
  70              	.LVL4:
 457:userMenuPatternSewingMachine.c ****             SaveExternalFlashConfig();
  71              		.loc 1 457 0
  72 0038 FFF7FEFF 		bl	SaveExternalFlashConfig
  73              	.LVL5:
 458:userMenuPatternSewingMachine.c ****             return MENU_RETURN_PARENT;
  74              		.loc 1 458 0
  75 003c 8020     		movs	r0, #128
  76 003e 0006     		lsls	r0, r0, #24
  77 0040 00E0     		b	.L2
  78              	.L6:
 459:userMenuPatternSewingMachine.c ****     }
 460:userMenuPatternSewingMachine.c ****     return MENU_RETURN_THIS;
  79              		.loc 1 460 0
  80 0042 0848     		ldr	r0, .L7+28
  81              	.L2:
 461:userMenuPatternSewingMachine.c **** }
  82              		.loc 1 461 0
  83 0044 05B0     		add	sp, sp, #20
  84              		@ sp needed
  85 0046 00BD     		pop	{pc}
  86              	.L8:
  87              		.align	2
  88              	.L7:
  89 0048 00000000 		.word	.LANCHOR1
  90 004c 9F860100 		.word	99999
  91 0050 00000000 		.word	.LANCHOR0
  92 0054 00000000 		.word	.LC1
  93 0058 08000000 		.word	.LC3
  94 005c 03000080 		.word	-2147483645
  95 0060 04000080 		.word	-2147483644
  96 0064 01000080 		.word	-2147483647
  97              		.cfi_endproc
  98              	.LFE71:
  99              		.size	doTargetInfoMenu, .-doTargetInfoMenu
 100              		.global	__aeabi_uidiv
 101              		.section	.text.doActualInfoMenu,"ax",%progbits
 102              		.align	2
 103              		.global	doActualInfoMenu
 104              		.code	16
 105              		.thumb_func
 106              		.type	doActualInfoMenu, %function
 107              	doActualInfoMenu:
 108              	.LFB72:
 462:userMenuPatternSewingMachine.c **** 
ARM GAS  C:\Users\luvsd\AppData\Local\Temp\ccw0dQKn.s 			page 11


 463:userMenuPatternSewingMachine.c **** //////////////////////////
 464:userMenuPatternSewingMachine.c **** //// doActualInfoMenu ////
 465:userMenuPatternSewingMachine.c **** //////////////////////////
 466:userMenuPatternSewingMachine.c **** int doActualInfoMenu(void *this, uint8 reflash)
 467:userMenuPatternSewingMachine.c **** {
 109              		.loc 1 467 0
 110              		.cfi_startproc
 111              		@ args = 0, pretend = 0, frame = 0
 112              		@ frame_needed = 0, uses_anonymous_args = 0
 113              	.LVL6:
 114 0000 30B5     		push	{r4, r5, lr}
 115              		.cfi_def_cfa_offset 12
 116              		.cfi_offset 4, -12
 117              		.cfi_offset 5, -8
 118              		.cfi_offset 14, -4
 119 0002 85B0     		sub	sp, sp, #20
 120              		.cfi_def_cfa_offset 32
 121 0004 0C00     		movs	r4, r1
 122              	.LVL7:
 468:userMenuPatternSewingMachine.c ****     MENUNODE *thisMenu = (MENUNODE *) this;
 469:userMenuPatternSewingMachine.c ****     static char *strTitle = "Actual Q'ty";
 470:userMenuPatternSewingMachine.c ****     static char *strValue = "Value";
 471:userMenuPatternSewingMachine.c ****     static int32 minValue = 0, maxValue = 99999;
 472:userMenuPatternSewingMachine.c ****     static int32 incr[] ={1, 10, 100};
 473:userMenuPatternSewingMachine.c ****     
 474:userMenuPatternSewingMachine.c ****     static uint16 selectIncre = 0;
 475:userMenuPatternSewingMachine.c ****     static int32 value = 0;
 476:userMenuPatternSewingMachine.c ****     COUNT *ptrCount = getCount();
 123              		.loc 1 476 0
 124 0006 FFF7FEFF 		bl	getCount
 125              	.LVL8:
 126 000a 0500     		movs	r5, r0
 127              	.LVL9:
 477:userMenuPatternSewingMachine.c ****     
 478:userMenuPatternSewingMachine.c ****     switch(reflash)
 128              		.loc 1 478 0
 129 000c 012C     		cmp	r4, #1
 130 000e 1AD1     		bne	.L10
 479:userMenuPatternSewingMachine.c ****     {
 480:userMenuPatternSewingMachine.c ****         case TRUE: // ĒÖöļ®┤ņØ┤ ļ░öļĆöļĢī ņŗżĒ¢ē
 481:userMenuPatternSewingMachine.c ****             {
 482:userMenuPatternSewingMachine.c ****                 switch(g_ptrMachineParameter->machineType)
 131              		.loc 1 482 0
 132 0010 2D4B     		ldr	r3, .L22
 133 0012 1B68     		ldr	r3, [r3]
 134 0014 1B78     		ldrb	r3, [r3]
 135 0016 002B     		cmp	r3, #0
 136 0018 02D0     		beq	.L12
 137 001a 012B     		cmp	r3, #1
 138 001c 0AD0     		beq	.L13
 139 001e 12E0     		b	.L10
 140              	.L12:
 483:userMenuPatternSewingMachine.c ****                 {
 484:userMenuPatternSewingMachine.c ****                     case PATTERN_MACHINE: 
 485:userMenuPatternSewingMachine.c ****                         value  = (uint32) CONVERT_TO_4BYTE(ptrCount->patternActualH, ptrCount->patt
 141              		.loc 1 485 0
 142 0020 808B     		ldrh	r0, [r0, #28]
ARM GAS  C:\Users\luvsd\AppData\Local\Temp\ccw0dQKn.s 			page 12


 143              	.LVL10:
 144 0022 0004     		lsls	r0, r0, #16
 145 0024 EB8B     		ldrh	r3, [r5, #30]
 146 0026 1843     		orrs	r0, r3
 147 0028 0A21     		movs	r1, #10
 148 002a FFF7FEFF 		bl	__aeabi_uidiv
 149              	.LVL11:
 150 002e 274B     		ldr	r3, .L22+4
 151 0030 9860     		str	r0, [r3, #8]
 486:userMenuPatternSewingMachine.c ****                         break;
 152              		.loc 1 486 0
 153 0032 08E0     		b	.L10
 154              	.LVL12:
 155              	.L13:
 487:userMenuPatternSewingMachine.c ****                     case SEWING_MACHINE:
 488:userMenuPatternSewingMachine.c ****                         value  = (uint32) CONVERT_TO_4BYTE(ptrCount->sewingActualH, ptrCount->sewin
 156              		.loc 1 488 0
 157 0034 0088     		ldrh	r0, [r0]
 158              	.LVL13:
 159 0036 0004     		lsls	r0, r0, #16
 160 0038 6B88     		ldrh	r3, [r5, #2]
 161 003a 1843     		orrs	r0, r3
 162 003c 0A21     		movs	r1, #10
 163 003e FFF7FEFF 		bl	__aeabi_uidiv
 164              	.LVL14:
 165 0042 224B     		ldr	r3, .L22+4
 166 0044 9860     		str	r0, [r3, #8]
 167              	.L10:
 489:userMenuPatternSewingMachine.c ****                         break;
 490:userMenuPatternSewingMachine.c ****                     break;
 491:userMenuPatternSewingMachine.c ****                 }                  
 492:userMenuPatternSewingMachine.c ****             }
 493:userMenuPatternSewingMachine.c ****             break;  
 494:userMenuPatternSewingMachine.c ****     }
 495:userMenuPatternSewingMachine.c ****   
 496:userMenuPatternSewingMachine.c ****     switch(doIncreseNumberMenu(reflash, strTitle, strValue, incr, &value, minValue, maxValue, &sele
 168              		.loc 1 496 0
 169 0046 214B     		ldr	r3, .L22+4
 170 0048 1A00     		movs	r2, r3
 171 004a 0C32     		adds	r2, r2, #12
 172 004c 0392     		str	r2, [sp, #12]
 173 004e 204A     		ldr	r2, .L22+8
 174 0050 0292     		str	r2, [sp, #8]
 175 0052 0022     		movs	r2, #0
 176 0054 0192     		str	r2, [sp, #4]
 177 0056 0833     		adds	r3, r3, #8
 178 0058 0093     		str	r3, [sp]
 179 005a 1E4B     		ldr	r3, .L22+12
 180 005c 0C33     		adds	r3, r3, #12
 181 005e 1E4A     		ldr	r2, .L22+16
 182 0060 1E49     		ldr	r1, .L22+20
 183 0062 2000     		movs	r0, r4
 184 0064 FFF7FEFF 		bl	doIncreseNumberMenu
 185              	.LVL15:
 186 0068 1D4B     		ldr	r3, .L22+24
 187 006a 9842     		cmp	r0, r3
 188 006c 03D0     		beq	.L15
ARM GAS  C:\Users\luvsd\AppData\Local\Temp\ccw0dQKn.s 			page 13


 189 006e 1D4B     		ldr	r3, .L22+28
 190 0070 9842     		cmp	r0, r3
 191 0072 03D0     		beq	.L16
 192 0074 25E0     		b	.L21
 193              	.L15:
 497:userMenuPatternSewingMachine.c ****     {
 498:userMenuPatternSewingMachine.c ****     case MENU_BOTTOM_LEFT:
 499:userMenuPatternSewingMachine.c ****         return MENU_RETURN_PARENT;
 194              		.loc 1 499 0
 195 0076 8020     		movs	r0, #128
 196 0078 0006     		lsls	r0, r0, #24
 197 007a 23E0     		b	.L14
 198              	.L16:
 500:userMenuPatternSewingMachine.c ****         break;
 501:userMenuPatternSewingMachine.c ****     case MENU_BOTTOM_RIGHT:
 502:userMenuPatternSewingMachine.c ****         {
 503:userMenuPatternSewingMachine.c ****             switch(g_ptrMachineParameter->machineType)
 199              		.loc 1 503 0
 200 007c 124B     		ldr	r3, .L22
 201 007e 1B68     		ldr	r3, [r3]
 202 0080 1B78     		ldrb	r3, [r3]
 203 0082 002B     		cmp	r3, #0
 204 0084 02D0     		beq	.L18
 205 0086 012B     		cmp	r3, #1
 206 0088 0AD0     		beq	.L19
 207 008a 15E0     		b	.L17
 208              	.L18:
 504:userMenuPatternSewingMachine.c ****             {
 505:userMenuPatternSewingMachine.c ****                 case PATTERN_MACHINE: 
 506:userMenuPatternSewingMachine.c ****                     ptrCount->patternActualH = CONVERT_TO_HIGH(value*10);
 209              		.loc 1 506 0
 210 008c 0F4B     		ldr	r3, .L22+4
 211 008e 9A68     		ldr	r2, [r3, #8]
 212 0090 9100     		lsls	r1, r2, #2
 213 0092 8918     		adds	r1, r1, r2
 214 0094 4B00     		lsls	r3, r1, #1
 215 0096 1900     		movs	r1, r3
 216 0098 1B0C     		lsrs	r3, r3, #16
 217 009a AB83     		strh	r3, [r5, #28]
 507:userMenuPatternSewingMachine.c ****                     ptrCount->patternActualL = CONVERT_TO_LOW(value*10);
 218              		.loc 1 507 0
 219 009c E983     		strh	r1, [r5, #30]
 508:userMenuPatternSewingMachine.c ****                     break;
 220              		.loc 1 508 0
 221 009e 0BE0     		b	.L17
 222              	.L19:
 509:userMenuPatternSewingMachine.c ****                 case SEWING_MACHINE:
 510:userMenuPatternSewingMachine.c ****                     ptrCount->sewingActualH = CONVERT_TO_HIGH(value*10);
 223              		.loc 1 510 0
 224 00a0 0A49     		ldr	r1, .L22+4
 225 00a2 8B68     		ldr	r3, [r1, #8]
 226 00a4 9A00     		lsls	r2, r3, #2
 227 00a6 D318     		adds	r3, r2, r3
 228 00a8 5A00     		lsls	r2, r3, #1
 229 00aa 120C     		lsrs	r2, r2, #16
 230 00ac 2A80     		strh	r2, [r5]
 511:userMenuPatternSewingMachine.c ****                     ptrCount->sewingActualL = CONVERT_TO_LOW(value*10);
ARM GAS  C:\Users\luvsd\AppData\Local\Temp\ccw0dQKn.s 			page 14


 231              		.loc 1 511 0
 232 00ae 8A68     		ldr	r2, [r1, #8]
 233 00b0 9300     		lsls	r3, r2, #2
 234 00b2 D318     		adds	r3, r2, r3
 235 00b4 5A00     		lsls	r2, r3, #1
 236 00b6 6A80     		strh	r2, [r5, #2]
 237              	.L17:
 512:userMenuPatternSewingMachine.c ****                     break;
 513:userMenuPatternSewingMachine.c ****                 break;
 514:userMenuPatternSewingMachine.c ****             }
 515:userMenuPatternSewingMachine.c ****             SaveInternalFlash();        
 238              		.loc 1 515 0
 239 00b8 FFF7FEFF 		bl	SaveInternalFlash
 240              	.LVL16:
 516:userMenuPatternSewingMachine.c ****             return MENU_RETURN_PARENT;
 241              		.loc 1 516 0
 242 00bc 8020     		movs	r0, #128
 243 00be 0006     		lsls	r0, r0, #24
 244 00c0 00E0     		b	.L14
 245              	.L21:
 517:userMenuPatternSewingMachine.c ****         }
 518:userMenuPatternSewingMachine.c ****         break;
 519:userMenuPatternSewingMachine.c ****     }
 520:userMenuPatternSewingMachine.c ****     return MENU_RETURN_THIS;    
 246              		.loc 1 520 0
 247 00c2 0948     		ldr	r0, .L22+32
 248              	.L14:
 521:userMenuPatternSewingMachine.c **** }
 249              		.loc 1 521 0
 250 00c4 05B0     		add	sp, sp, #20
 251              		@ sp needed
 252              	.LVL17:
 253 00c6 30BD     		pop	{r4, r5, pc}
 254              	.L23:
 255              		.align	2
 256              	.L22:
 257 00c8 00000000 		.word	g_ptrMachineParameter
 258 00cc 00000000 		.word	.LANCHOR1
 259 00d0 9F860100 		.word	99999
 260 00d4 00000000 		.word	.LANCHOR0
 261 00d8 18000000 		.word	.LC10
 262 00dc 20000000 		.word	.LC12
 263 00e0 03000080 		.word	-2147483645
 264 00e4 04000080 		.word	-2147483644
 265 00e8 01000080 		.word	-2147483647
 266              		.cfi_endproc
 267              	.LFE72:
 268              		.size	doActualInfoMenu, .-doActualInfoMenu
 269              		.section	.text.doMachine,"ax",%progbits
 270              		.align	2
 271              		.global	doMachine
 272              		.code	16
 273              		.thumb_func
 274              		.type	doMachine, %function
 275              	doMachine:
 276              	.LFB73:
 522:userMenuPatternSewingMachine.c **** 
ARM GAS  C:\Users\luvsd\AppData\Local\Temp\ccw0dQKn.s 			page 15


 523:userMenuPatternSewingMachine.c **** ///////////////////
 524:userMenuPatternSewingMachine.c **** //// doMachine ////
 525:userMenuPatternSewingMachine.c **** ///////////////////
 526:userMenuPatternSewingMachine.c **** int doMachine(void *this, uint8 reflash)
 527:userMenuPatternSewingMachine.c **** {    
 277              		.loc 1 527 0
 278              		.cfi_startproc
 279              		@ args = 0, pretend = 0, frame = 0
 280              		@ frame_needed = 0, uses_anonymous_args = 0
 281              	.LVL18:
 282 0000 30B5     		push	{r4, r5, lr}
 283              		.cfi_def_cfa_offset 12
 284              		.cfi_offset 4, -12
 285              		.cfi_offset 5, -8
 286              		.cfi_offset 14, -4
 287 0002 83B0     		sub	sp, sp, #12
 288              		.cfi_def_cfa_offset 24
 289 0004 0400     		movs	r4, r0
 290 0006 0D1E     		subs	r5, r1, #0
 291              	.LVL19:
 528:userMenuPatternSewingMachine.c ****     MENUNODE *thisMenu = (MENUNODE *) this;    
 529:userMenuPatternSewingMachine.c ****     //static LIST_MENU menu;
 530:userMenuPatternSewingMachine.c ****     static char *listText[] = {"PATTERN", "SEWING"};
 531:userMenuPatternSewingMachine.c ****     static uint16 indexSelect = 0;
 532:userMenuPatternSewingMachine.c ****     static uint16 displayDir;
 533:userMenuPatternSewingMachine.c ****     static uint16 page = 0;
 534:userMenuPatternSewingMachine.c ****     
 535:userMenuPatternSewingMachine.c ****     if(reflash)
 292              		.loc 1 535 0
 293 0008 06D0     		beq	.L25
 536:userMenuPatternSewingMachine.c ****     {
 537:userMenuPatternSewingMachine.c ****         indexSelect = g_ptrMachineParameter->machineType;
 294              		.loc 1 537 0
 295 000a 3D4B     		ldr	r3, .L40
 296 000c 1B68     		ldr	r3, [r3]
 297 000e 1A78     		ldrb	r2, [r3]
 298 0010 3C4B     		ldr	r3, .L40+4
 299 0012 DA81     		strh	r2, [r3, #14]
 538:userMenuPatternSewingMachine.c ****         displayDir  = getMiscConfig()->bDisplayDir;  
 300              		.loc 1 538 0
 301 0014 FFF7FEFF 		bl	getMiscConfig
 302              	.LVL20:
 303              	.L25:
 539:userMenuPatternSewingMachine.c ****     }
 540:userMenuPatternSewingMachine.c ****     
 541:userMenuPatternSewingMachine.c ****     switch(doSelectList(this, reflash, listText, 2, &indexSelect, &page))
 304              		.loc 1 541 0
 305 0018 3A4B     		ldr	r3, .L40+4
 306 001a 1A00     		movs	r2, r3
 307 001c 1032     		adds	r2, r2, #16
 308 001e 0192     		str	r2, [sp, #4]
 309 0020 0E33     		adds	r3, r3, #14
 310 0022 0093     		str	r3, [sp]
 311 0024 0223     		movs	r3, #2
 312 0026 384A     		ldr	r2, .L40+8
 313 0028 1832     		adds	r2, r2, #24
 314 002a 2900     		movs	r1, r5
ARM GAS  C:\Users\luvsd\AppData\Local\Temp\ccw0dQKn.s 			page 16


 315 002c 2000     		movs	r0, r4
 316 002e FFF7FEFF 		bl	doSelectList
 317              	.LVL21:
 318 0032 364B     		ldr	r3, .L40+12
 319 0034 9842     		cmp	r0, r3
 320 0036 41D0     		beq	.L27
 321 0038 03DC     		bgt	.L28
 322 003a 354B     		ldr	r3, .L40+16
 323 003c 9842     		cmp	r0, r3
 324 003e 29D0     		beq	.L29
 325 0040 58E0     		b	.L37
 326              	.L28:
 327 0042 0028     		cmp	r0, #0
 328 0044 02D0     		beq	.L30
 329 0046 0128     		cmp	r0, #1
 330 0048 12D0     		beq	.L31
 331 004a 53E0     		b	.L37
 332              	.L30:
 542:userMenuPatternSewingMachine.c ****     {
 543:userMenuPatternSewingMachine.c ****         case 0:
 544:userMenuPatternSewingMachine.c ****             setDisplayDirection(DISPLAY_DIRECTION_PORTRAIT);         
 333              		.loc 1 544 0
 334 004c 0020     		movs	r0, #0
 335 004e FFF7FEFF 		bl	setDisplayDirection
 336              	.LVL22:
 545:userMenuPatternSewingMachine.c ****             doSelectList(this, TRUE, listText, 2, &indexSelect, &page);
 337              		.loc 1 545 0
 338 0052 2C4B     		ldr	r3, .L40+4
 339 0054 1A00     		movs	r2, r3
 340 0056 1032     		adds	r2, r2, #16
 341 0058 0192     		str	r2, [sp, #4]
 342 005a 0E33     		adds	r3, r3, #14
 343 005c 0093     		str	r3, [sp]
 344 005e 0223     		movs	r3, #2
 345 0060 294A     		ldr	r2, .L40+8
 346 0062 1832     		adds	r2, r2, #24
 347 0064 0121     		movs	r1, #1
 348 0066 2000     		movs	r0, r4
 349 0068 FFF7FEFF 		bl	doSelectList
 350              	.LVL23:
 546:userMenuPatternSewingMachine.c ****             break;
 547:userMenuPatternSewingMachine.c ****         case 1:
 548:userMenuPatternSewingMachine.c ****             setDisplayDirection(DISPLAY_DIRECTION_LANDSCAPE);
 549:userMenuPatternSewingMachine.c ****             doSelectList(this, TRUE, listText, 2, &indexSelect, &page);
 550:userMenuPatternSewingMachine.c ****             break; 
 551:userMenuPatternSewingMachine.c ****         case MENU_BOTTOM_LEFT:
 552:userMenuPatternSewingMachine.c ****         {
 553:userMenuPatternSewingMachine.c ****             switch(g_ptrMachineParameter->machineType)
 554:userMenuPatternSewingMachine.c ****             {
 555:userMenuPatternSewingMachine.c ****                 case 0: setDisplayDirection(DISPLAY_DIRECTION_PORTRAIT);  break;
 556:userMenuPatternSewingMachine.c ****                 case 1: setDisplayDirection(DISPLAY_DIRECTION_LANDSCAPE); break;
 557:userMenuPatternSewingMachine.c ****             }      
 558:userMenuPatternSewingMachine.c ****             return MENU_RETURN_PARENT;
 559:userMenuPatternSewingMachine.c ****         }
 560:userMenuPatternSewingMachine.c ****         case MENU_BOTTOM_RIGHT:
 561:userMenuPatternSewingMachine.c ****         {
 562:userMenuPatternSewingMachine.c ****             g_ptrMachineParameter->machineType = indexSelect;
ARM GAS  C:\Users\luvsd\AppData\Local\Temp\ccw0dQKn.s 			page 17


 563:userMenuPatternSewingMachine.c ****             switch(g_ptrMachineParameter->machineType)
 564:userMenuPatternSewingMachine.c ****             {
 565:userMenuPatternSewingMachine.c ****                 case 0: setDisplayDirection(DISPLAY_DIRECTION_PORTRAIT);  break;
 566:userMenuPatternSewingMachine.c ****                 case 1: setDisplayDirection(DISPLAY_DIRECTION_LANDSCAPE); break;
 567:userMenuPatternSewingMachine.c ****             }  
 568:userMenuPatternSewingMachine.c ****             
 569:userMenuPatternSewingMachine.c ****             SetCountLoop();
 570:userMenuPatternSewingMachine.c ****             ShowWaitMessage();                                    
 571:userMenuPatternSewingMachine.c ****             SaveExternalFlashConfig();
 572:userMenuPatternSewingMachine.c **** 
 573:userMenuPatternSewingMachine.c ****             return MENU_RETURN_PARENT;
 574:userMenuPatternSewingMachine.c ****         }            
 575:userMenuPatternSewingMachine.c ****     }
 576:userMenuPatternSewingMachine.c ****     return MENU_RETURN_THIS;    
 351              		.loc 1 576 0
 352 006c 2948     		ldr	r0, .L40+20
 546:userMenuPatternSewingMachine.c ****             break;
 353              		.loc 1 546 0
 354 006e 45E0     		b	.L26
 355              	.L31:
 548:userMenuPatternSewingMachine.c ****             doSelectList(this, TRUE, listText, 2, &indexSelect, &page);
 356              		.loc 1 548 0
 357 0070 0120     		movs	r0, #1
 358 0072 FFF7FEFF 		bl	setDisplayDirection
 359              	.LVL24:
 549:userMenuPatternSewingMachine.c ****             break; 
 360              		.loc 1 549 0
 361 0076 234B     		ldr	r3, .L40+4
 362 0078 1A00     		movs	r2, r3
 363 007a 1032     		adds	r2, r2, #16
 364 007c 0192     		str	r2, [sp, #4]
 365 007e 0E33     		adds	r3, r3, #14
 366 0080 0093     		str	r3, [sp]
 367 0082 0223     		movs	r3, #2
 368 0084 204A     		ldr	r2, .L40+8
 369 0086 1832     		adds	r2, r2, #24
 370 0088 0121     		movs	r1, #1
 371 008a 2000     		movs	r0, r4
 372 008c FFF7FEFF 		bl	doSelectList
 373              	.LVL25:
 374              		.loc 1 576 0
 375 0090 2048     		ldr	r0, .L40+20
 550:userMenuPatternSewingMachine.c ****         case MENU_BOTTOM_LEFT:
 376              		.loc 1 550 0
 377 0092 33E0     		b	.L26
 378              	.L29:
 553:userMenuPatternSewingMachine.c ****             {
 379              		.loc 1 553 0
 380 0094 1A4B     		ldr	r3, .L40
 381 0096 1B68     		ldr	r3, [r3]
 382 0098 1B78     		ldrb	r3, [r3]
 383 009a 002B     		cmp	r3, #0
 384 009c 02D0     		beq	.L32
 385 009e 012B     		cmp	r3, #1
 386 00a0 06D0     		beq	.L33
 387 00a2 29E0     		b	.L39
 388              	.L32:
ARM GAS  C:\Users\luvsd\AppData\Local\Temp\ccw0dQKn.s 			page 18


 555:userMenuPatternSewingMachine.c ****                 case 1: setDisplayDirection(DISPLAY_DIRECTION_LANDSCAPE); break;
 389              		.loc 1 555 0
 390 00a4 0020     		movs	r0, #0
 391 00a6 FFF7FEFF 		bl	setDisplayDirection
 392              	.LVL26:
 558:userMenuPatternSewingMachine.c ****         }
 393              		.loc 1 558 0
 394 00aa 8020     		movs	r0, #128
 395 00ac 0006     		lsls	r0, r0, #24
 555:userMenuPatternSewingMachine.c ****                 case 1: setDisplayDirection(DISPLAY_DIRECTION_LANDSCAPE); break;
 396              		.loc 1 555 0
 397 00ae 25E0     		b	.L26
 398              	.L33:
 556:userMenuPatternSewingMachine.c ****             }      
 399              		.loc 1 556 0
 400 00b0 0120     		movs	r0, #1
 401 00b2 FFF7FEFF 		bl	setDisplayDirection
 402              	.LVL27:
 558:userMenuPatternSewingMachine.c ****         }
 403              		.loc 1 558 0
 404 00b6 8020     		movs	r0, #128
 405 00b8 0006     		lsls	r0, r0, #24
 556:userMenuPatternSewingMachine.c ****             }      
 406              		.loc 1 556 0
 407 00ba 1FE0     		b	.L26
 408              	.L27:
 562:userMenuPatternSewingMachine.c ****             switch(g_ptrMachineParameter->machineType)
 409              		.loc 1 562 0
 410 00bc 104B     		ldr	r3, .L40
 411 00be 114A     		ldr	r2, .L40+4
 412 00c0 D289     		ldrh	r2, [r2, #14]
 413 00c2 1968     		ldr	r1, [r3]
 414 00c4 0A70     		strb	r2, [r1]
 563:userMenuPatternSewingMachine.c ****             {
 415              		.loc 1 563 0
 416 00c6 1B68     		ldr	r3, [r3]
 417 00c8 1B78     		ldrb	r3, [r3]
 418 00ca 002B     		cmp	r3, #0
 419 00cc 02D0     		beq	.L35
 420 00ce 012B     		cmp	r3, #1
 421 00d0 04D0     		beq	.L36
 422 00d2 06E0     		b	.L34
 423              	.L35:
 565:userMenuPatternSewingMachine.c ****                 case 1: setDisplayDirection(DISPLAY_DIRECTION_LANDSCAPE); break;
 424              		.loc 1 565 0
 425 00d4 0020     		movs	r0, #0
 426 00d6 FFF7FEFF 		bl	setDisplayDirection
 427              	.LVL28:
 428 00da 02E0     		b	.L34
 429              	.L36:
 566:userMenuPatternSewingMachine.c ****             }  
 430              		.loc 1 566 0
 431 00dc 0120     		movs	r0, #1
 432 00de FFF7FEFF 		bl	setDisplayDirection
 433              	.LVL29:
 434              	.L34:
 569:userMenuPatternSewingMachine.c ****             ShowWaitMessage();                                    
ARM GAS  C:\Users\luvsd\AppData\Local\Temp\ccw0dQKn.s 			page 19


 435              		.loc 1 569 0
 436 00e2 FFF7FEFF 		bl	SetCountLoop
 437              	.LVL30:
 570:userMenuPatternSewingMachine.c ****             SaveExternalFlashConfig();
 438              		.loc 1 570 0
 439 00e6 FFF7FEFF 		bl	ShowWaitMessage
 440              	.LVL31:
 571:userMenuPatternSewingMachine.c **** 
 441              		.loc 1 571 0
 442 00ea FFF7FEFF 		bl	SaveExternalFlashConfig
 443              	.LVL32:
 573:userMenuPatternSewingMachine.c ****         }            
 444              		.loc 1 573 0
 445 00ee 8020     		movs	r0, #128
 446 00f0 0006     		lsls	r0, r0, #24
 447 00f2 03E0     		b	.L26
 448              	.L37:
 449              		.loc 1 576 0
 450 00f4 0748     		ldr	r0, .L40+20
 451 00f6 01E0     		b	.L26
 452              	.L39:
 558:userMenuPatternSewingMachine.c ****         }
 453              		.loc 1 558 0
 454 00f8 8020     		movs	r0, #128
 455 00fa 0006     		lsls	r0, r0, #24
 456              	.L26:
 577:userMenuPatternSewingMachine.c **** }
 457              		.loc 1 577 0
 458 00fc 03B0     		add	sp, sp, #12
 459              		@ sp needed
 460              	.LVL33:
 461 00fe 30BD     		pop	{r4, r5, pc}
 462              	.L41:
 463              		.align	2
 464              	.L40:
 465 0100 00000000 		.word	g_ptrMachineParameter
 466 0104 00000000 		.word	.LANCHOR1
 467 0108 00000000 		.word	.LANCHOR0
 468 010c 04000080 		.word	-2147483644
 469 0110 03000080 		.word	-2147483645
 470 0114 01000080 		.word	-2147483647
 471              		.cfi_endproc
 472              	.LFE73:
 473              		.size	doMachine, .-doMachine
 474              		.section	.text.doResetData,"ax",%progbits
 475              		.align	2
 476              		.global	doResetData
 477              		.code	16
 478              		.thumb_func
 479              		.type	doResetData, %function
 480              	doResetData:
 481              	.LFB74:
 578:userMenuPatternSewingMachine.c **** 
 579:userMenuPatternSewingMachine.c **** /////////////////////
 580:userMenuPatternSewingMachine.c **** //// doResetData ////
 581:userMenuPatternSewingMachine.c **** /////////////////////
 582:userMenuPatternSewingMachine.c **** int doResetData(void *this, uint8 reflash)
ARM GAS  C:\Users\luvsd\AppData\Local\Temp\ccw0dQKn.s 			page 20


 583:userMenuPatternSewingMachine.c **** {
 482              		.loc 1 583 0
 483              		.cfi_startproc
 484              		@ args = 0, pretend = 0, frame = 8
 485              		@ frame_needed = 0, uses_anonymous_args = 0
 486              	.LVL34:
 487 0000 10B5     		push	{r4, lr}
 488              		.cfi_def_cfa_offset 8
 489              		.cfi_offset 4, -8
 490              		.cfi_offset 14, -4
 491 0002 82B0     		sub	sp, sp, #8
 492              		.cfi_def_cfa_offset 16
 493              	.LVL35:
 584:userMenuPatternSewingMachine.c ****     MENUNODE *thisMenu = (MENUNODE *) this;
 585:userMenuPatternSewingMachine.c ****  
 586:userMenuPatternSewingMachine.c ****     switch(reflash)
 494              		.loc 1 586 0
 495 0004 0029     		cmp	r1, #0
 496 0006 13D0     		beq	.L44
 497 0008 0129     		cmp	r1, #1
 498 000a 2FD1     		bne	.L51
 587:userMenuPatternSewingMachine.c ****     {
 588:userMenuPatternSewingMachine.c ****         case TRUE: // ĒÖöļ®┤ņØ┤ ļ░öļĆöļĢī ņŗżĒ¢ē
 589:userMenuPatternSewingMachine.c ****             {                
 590:userMenuPatternSewingMachine.c ****                 strcpy(g_YesNoMenu.title,thisMenu->nodeName);
 499              		.loc 1 590 0
 500 000c 0100     		movs	r1, r0
 501              	.LVL36:
 502 000e 1031     		adds	r1, r1, #16
 503 0010 184C     		ldr	r4, .L53
 504 0012 2000     		movs	r0, r4
 505              	.LVL37:
 506 0014 FFF7FEFF 		bl	strcpy
 507              	.LVL38:
 591:userMenuPatternSewingMachine.c ****                 SetDrawYesNoButtons(&g_YesNoMenu, "Do you want ?");
 508              		.loc 1 591 0
 509 0018 1749     		ldr	r1, .L53+4
 510 001a 2000     		movs	r0, r4
 511 001c FFF7FEFF 		bl	SetDrawYesNoButtons
 512              	.LVL39:
 592:userMenuPatternSewingMachine.c ****                 
 593:userMenuPatternSewingMachine.c ****                 SetDrawBottomButtons("QUIT", "YES", BUTTON_STYLE_R_GREEN, BUTTON_STYLE_R_BLUE);  
 513              		.loc 1 593 0
 514 0020 1223     		movs	r3, #18
 515 0022 1122     		movs	r2, #17
 516 0024 1549     		ldr	r1, .L53+8
 517 0026 1648     		ldr	r0, .L53+12
 518 0028 FFF7FEFF 		bl	SetDrawBottomButtons
 519              	.LVL40:
 594:userMenuPatternSewingMachine.c ****             }
 595:userMenuPatternSewingMachine.c ****             break;  
 596:userMenuPatternSewingMachine.c ****         
 597:userMenuPatternSewingMachine.c ****         case FALSE: // Cliking Check
 598:userMenuPatternSewingMachine.c ****             {
 599:userMenuPatternSewingMachine.c ****                 TOUCH tc = GetTouch();
 600:userMenuPatternSewingMachine.c ****                 if(tc.isClick == FALSE) break;
 601:userMenuPatternSewingMachine.c **** 
ARM GAS  C:\Users\luvsd\AppData\Local\Temp\ccw0dQKn.s 			page 21


 602:userMenuPatternSewingMachine.c ****                 switch(getIndexOfClickedButton(&tc,g_btnBottom,2))
 603:userMenuPatternSewingMachine.c ****                 {
 604:userMenuPatternSewingMachine.c ****                     case BOTTOM_LEFT:
 605:userMenuPatternSewingMachine.c ****                     {
 606:userMenuPatternSewingMachine.c ****                         return MENU_RETURN_PARENT;
 607:userMenuPatternSewingMachine.c ****                     }
 608:userMenuPatternSewingMachine.c ****                     case BOTTOM_RIGHT: 
 609:userMenuPatternSewingMachine.c ****                     {
 610:userMenuPatternSewingMachine.c ****                         Buzzer(BUZZER_STOP,0);
 611:userMenuPatternSewingMachine.c ****                         ResetInternalFlash();                        
 612:userMenuPatternSewingMachine.c ****                         return MENU_RETURN_PARENT;                                
 613:userMenuPatternSewingMachine.c ****                     }                            
 614:userMenuPatternSewingMachine.c ****                 }                               
 615:userMenuPatternSewingMachine.c ****             }
 616:userMenuPatternSewingMachine.c ****             break;
 617:userMenuPatternSewingMachine.c ****     }
 618:userMenuPatternSewingMachine.c ****     return MENU_RETURN_THIS;    
 520              		.loc 1 618 0
 521 002c 1548     		ldr	r0, .L53+16
 595:userMenuPatternSewingMachine.c ****         
 522              		.loc 1 595 0
 523 002e 1EE0     		b	.L43
 524              	.LVL41:
 525              	.L44:
 526              	.LBB2:
 599:userMenuPatternSewingMachine.c ****                 if(tc.isClick == FALSE) break;
 527              		.loc 1 599 0
 528 0030 6846     		mov	r0, sp
 529              	.LVL42:
 530 0032 FFF7FEFF 		bl	GetTouch
 531              	.LVL43:
 600:userMenuPatternSewingMachine.c **** 
 532              		.loc 1 600 0
 533 0036 6B46     		mov	r3, sp
 534 0038 1B88     		ldrh	r3, [r3]
 535 003a 002B     		cmp	r3, #0
 536 003c 11D0     		beq	.L46
 602:userMenuPatternSewingMachine.c ****                 {
 537              		.loc 1 602 0
 538 003e 0222     		movs	r2, #2
 539 0040 1149     		ldr	r1, .L53+20
 540 0042 6846     		mov	r0, sp
 541 0044 FFF7FEFF 		bl	getIndexOfClickedButton
 542              	.LVL44:
 543 0048 0028     		cmp	r0, #0
 544 004a 0CD0     		beq	.L48
 545 004c 0128     		cmp	r0, #1
 546 004e 06D1     		bne	.L52
 610:userMenuPatternSewingMachine.c ****                         ResetInternalFlash();                        
 547              		.loc 1 610 0
 548 0050 0021     		movs	r1, #0
 549 0052 0020     		movs	r0, #0
 550 0054 FFF7FEFF 		bl	Buzzer
 551              	.LVL45:
 611:userMenuPatternSewingMachine.c ****                         return MENU_RETURN_PARENT;                                
 552              		.loc 1 611 0
 553 0058 FFF7FEFF 		bl	ResetInternalFlash
ARM GAS  C:\Users\luvsd\AppData\Local\Temp\ccw0dQKn.s 			page 22


 554              	.LVL46:
 612:userMenuPatternSewingMachine.c ****                     }                            
 555              		.loc 1 612 0
 556 005c 03E0     		b	.L48
 557              	.L52:
 558              	.LBE2:
 559              		.loc 1 618 0
 560 005e 0948     		ldr	r0, .L53+16
 616:userMenuPatternSewingMachine.c ****     }
 561              		.loc 1 616 0
 562 0060 05E0     		b	.L43
 563              	.L46:
 564              		.loc 1 618 0
 565 0062 0848     		ldr	r0, .L53+16
 566 0064 03E0     		b	.L43
 567              	.L48:
 568              	.LBB3:
 606:userMenuPatternSewingMachine.c ****                     }
 569              		.loc 1 606 0 discriminator 1
 570 0066 8020     		movs	r0, #128
 571 0068 0006     		lsls	r0, r0, #24
 572 006a 00E0     		b	.L43
 573              	.LVL47:
 574              	.L51:
 575              	.LBE3:
 576              		.loc 1 618 0
 577 006c 0548     		ldr	r0, .L53+16
 578              	.LVL48:
 579              	.L43:
 619:userMenuPatternSewingMachine.c **** }
 580              		.loc 1 619 0
 581 006e 02B0     		add	sp, sp, #8
 582              		@ sp needed
 583 0070 10BD     		pop	{r4, pc}
 584              	.L54:
 585 0072 C046     		.align	2
 586              	.L53:
 587 0074 00000000 		.word	g_YesNoMenu
 588 0078 2C000000 		.word	.LC22
 589 007c 3C000000 		.word	.LC24
 590 0080 40000000 		.word	.LC26
 591 0084 01000080 		.word	-2147483647
 592 0088 00000000 		.word	g_btnBottom
 593              		.cfi_endproc
 594              	.LFE74:
 595              		.size	doResetData, .-doResetData
 596              		.section	.text.doAutoReset,"ax",%progbits
 597              		.align	2
 598              		.global	doAutoReset
 599              		.code	16
 600              		.thumb_func
 601              		.type	doAutoReset, %function
 602              	doAutoReset:
 603              	.LFB79:
 620:userMenuPatternSewingMachine.c **** 
 621:userMenuPatternSewingMachine.c **** uint32 getTarget()
 622:userMenuPatternSewingMachine.c **** {
ARM GAS  C:\Users\luvsd\AppData\Local\Temp\ccw0dQKn.s 			page 23


 623:userMenuPatternSewingMachine.c ****     switch(g_ptrMachineParameter->machineType)
 624:userMenuPatternSewingMachine.c ****     {
 625:userMenuPatternSewingMachine.c ****         case PATTERN_MACHINE: return g_ptrMachineParameter->patternTarget; break;
 626:userMenuPatternSewingMachine.c ****         case SEWING_MACHINE:  return g_ptrMachineParameter->sewingTarget;  break;                
 627:userMenuPatternSewingMachine.c ****     }
 628:userMenuPatternSewingMachine.c ****     return 0;
 629:userMenuPatternSewingMachine.c **** }
 630:userMenuPatternSewingMachine.c **** 
 631:userMenuPatternSewingMachine.c **** void setTarget(uint32 value)
 632:userMenuPatternSewingMachine.c **** {
 633:userMenuPatternSewingMachine.c ****     switch(g_ptrMachineParameter->machineType)
 634:userMenuPatternSewingMachine.c ****     {
 635:userMenuPatternSewingMachine.c ****         case PATTERN_MACHINE: g_ptrMachineParameter->patternTarget = value; break;
 636:userMenuPatternSewingMachine.c ****         case SEWING_MACHINE:  g_ptrMachineParameter->sewingTarget  = value;  break;                
 637:userMenuPatternSewingMachine.c ****     }   
 638:userMenuPatternSewingMachine.c **** }
 639:userMenuPatternSewingMachine.c **** 
 640:userMenuPatternSewingMachine.c **** uint32 getActual()
 641:userMenuPatternSewingMachine.c **** {
 642:userMenuPatternSewingMachine.c ****     COUNT *ptrCount = getCount();   
 643:userMenuPatternSewingMachine.c ****     switch(g_ptrMachineParameter->machineType)
 644:userMenuPatternSewingMachine.c ****     {
 645:userMenuPatternSewingMachine.c ****         case PATTERN_MACHINE: 
 646:userMenuPatternSewingMachine.c ****             return  (uint32) CONVERT_TO_4BYTE(ptrCount->patternActualH, ptrCount->patternActualL)/1
 647:userMenuPatternSewingMachine.c ****             break;
 648:userMenuPatternSewingMachine.c ****         case SEWING_MACHINE:
 649:userMenuPatternSewingMachine.c ****             return  (uint32) CONVERT_TO_4BYTE(ptrCount->sewingActualH, ptrCount->sewingActualL)/10;
 650:userMenuPatternSewingMachine.c ****             break;
 651:userMenuPatternSewingMachine.c ****         break;
 652:userMenuPatternSewingMachine.c ****     }
 653:userMenuPatternSewingMachine.c ****     return 0;
 654:userMenuPatternSewingMachine.c **** }
 655:userMenuPatternSewingMachine.c **** 
 656:userMenuPatternSewingMachine.c **** void setActual(uint32 value)
 657:userMenuPatternSewingMachine.c **** {                
 658:userMenuPatternSewingMachine.c ****    COUNT *ptrCount = getCount();       
 659:userMenuPatternSewingMachine.c ****    switch(g_ptrMachineParameter->machineType)
 660:userMenuPatternSewingMachine.c ****     {
 661:userMenuPatternSewingMachine.c ****         case PATTERN_MACHINE: 
 662:userMenuPatternSewingMachine.c ****             ptrCount->patternActualH = CONVERT_TO_HIGH(value*10);
 663:userMenuPatternSewingMachine.c ****             ptrCount->patternActualL = CONVERT_TO_LOW(value*10);                        
 664:userMenuPatternSewingMachine.c ****             break;
 665:userMenuPatternSewingMachine.c ****         case SEWING_MACHINE:
 666:userMenuPatternSewingMachine.c ****             ptrCount->sewingActualH = CONVERT_TO_HIGH(value*10);
 667:userMenuPatternSewingMachine.c ****             ptrCount->sewingActualL = CONVERT_TO_LOW(value*10);    
 668:userMenuPatternSewingMachine.c ****             break;
 669:userMenuPatternSewingMachine.c ****         break;
 670:userMenuPatternSewingMachine.c ****     }     
 671:userMenuPatternSewingMachine.c **** }
 672:userMenuPatternSewingMachine.c **** 
 673:userMenuPatternSewingMachine.c **** int doAutoReset(void *this, uint8 reflash) ////////////////////////////////////////////////////////
 674:userMenuPatternSewingMachine.c **** /////////////////////////////////////////////////////////////////////////////////////////////////
 675:userMenuPatternSewingMachine.c **** {    
 604              		.loc 1 675 0
 605              		.cfi_startproc
 606              		@ args = 0, pretend = 0, frame = 0
 607              		@ frame_needed = 0, uses_anonymous_args = 0
ARM GAS  C:\Users\luvsd\AppData\Local\Temp\ccw0dQKn.s 			page 24


 608              	.LVL49:
 609 0000 10B5     		push	{r4, lr}
 610              		.cfi_def_cfa_offset 8
 611              		.cfi_offset 4, -8
 612              		.cfi_offset 14, -4
 613 0002 82B0     		sub	sp, sp, #8
 614              		.cfi_def_cfa_offset 16
 615 0004 0400     		movs	r4, r0
 616              	.LVL50:
 676:userMenuPatternSewingMachine.c ****     MENUNODE *thisMenu = (MENUNODE *) this;    
 677:userMenuPatternSewingMachine.c **** 
 678:userMenuPatternSewingMachine.c ****     static char *listText[] = {"ON", "OFF"};
 679:userMenuPatternSewingMachine.c ****     static uint16 indexSelect = 0;
 680:userMenuPatternSewingMachine.c ****     static uint16 page = 0;
 681:userMenuPatternSewingMachine.c ****     
 682:userMenuPatternSewingMachine.c ****     if(reflash)
 617              		.loc 1 682 0
 618 0006 0029     		cmp	r1, #0
 619 0008 0BD0     		beq	.L56
 683:userMenuPatternSewingMachine.c ****     {
 684:userMenuPatternSewingMachine.c ****         if(g_ptrMachineParameter->bAutoReset)
 620              		.loc 1 684 0
 621 000a 264B     		ldr	r3, .L67
 622 000c 1B68     		ldr	r3, [r3]
 623 000e 9B7E     		ldrb	r3, [r3, #26]
 624 0010 002B     		cmp	r3, #0
 625 0012 03D0     		beq	.L57
 685:userMenuPatternSewingMachine.c ****             indexSelect = 0;
 626              		.loc 1 685 0
 627 0014 0022     		movs	r2, #0
 628 0016 244B     		ldr	r3, .L67+4
 629 0018 5A82     		strh	r2, [r3, #18]
 630 001a 02E0     		b	.L56
 631              	.L57:
 686:userMenuPatternSewingMachine.c ****         else                       
 687:userMenuPatternSewingMachine.c ****             indexSelect = 1;
 632              		.loc 1 687 0
 633 001c 0122     		movs	r2, #1
 634 001e 224B     		ldr	r3, .L67+4
 635 0020 5A82     		strh	r2, [r3, #18]
 636              	.L56:
 688:userMenuPatternSewingMachine.c ****     }
 689:userMenuPatternSewingMachine.c ****     
 690:userMenuPatternSewingMachine.c ****     switch(doSelectList(this, reflash, listText, 2, &indexSelect, &page))
 637              		.loc 1 690 0
 638 0022 214B     		ldr	r3, .L67+4
 639 0024 1A00     		movs	r2, r3
 640 0026 1432     		adds	r2, r2, #20
 641 0028 0192     		str	r2, [sp, #4]
 642 002a 1233     		adds	r3, r3, #18
 643 002c 0093     		str	r3, [sp]
 644 002e 0223     		movs	r3, #2
 645 0030 1E4A     		ldr	r2, .L67+8
 646 0032 2032     		adds	r2, r2, #32
 647 0034 2000     		movs	r0, r4
 648              	.LVL51:
 649 0036 FFF7FEFF 		bl	doSelectList
ARM GAS  C:\Users\luvsd\AppData\Local\Temp\ccw0dQKn.s 			page 25


 650              	.LVL52:
 651 003a 1D4B     		ldr	r3, .L67+12
 652 003c 9842     		cmp	r0, r3
 653 003e 19D0     		beq	.L59
 654 0040 03DC     		bgt	.L60
 655 0042 1C4B     		ldr	r3, .L67+16
 656 0044 9842     		cmp	r0, r3
 657 0046 03D0     		beq	.L61
 658 0048 29E0     		b	.L65
 659              	.L60:
 660 004a 0128     		cmp	r0, #1
 661 004c 03D9     		bls	.L66
 662 004e 26E0     		b	.L65
 663              	.L61:
 691:userMenuPatternSewingMachine.c ****     {
 692:userMenuPatternSewingMachine.c ****         case 0:
 693:userMenuPatternSewingMachine.c ****         case 1:
 694:userMenuPatternSewingMachine.c ****             doSelectList(this, TRUE, listText, 2, &indexSelect, &page);
 695:userMenuPatternSewingMachine.c ****             break; 
 696:userMenuPatternSewingMachine.c ****         case MENU_BOTTOM_LEFT: // QUIT
 697:userMenuPatternSewingMachine.c ****         {
 698:userMenuPatternSewingMachine.c ****             return MENU_RETURN_PARENT;
 664              		.loc 1 698 0
 665 0050 8020     		movs	r0, #128
 666 0052 0006     		lsls	r0, r0, #24
 667 0054 24E0     		b	.L58
 668              	.L66:
 694:userMenuPatternSewingMachine.c ****             break; 
 669              		.loc 1 694 0
 670 0056 144B     		ldr	r3, .L67+4
 671 0058 1A00     		movs	r2, r3
 672 005a 1432     		adds	r2, r2, #20
 673 005c 0192     		str	r2, [sp, #4]
 674 005e 1233     		adds	r3, r3, #18
 675 0060 0093     		str	r3, [sp]
 676 0062 0223     		movs	r3, #2
 677 0064 114A     		ldr	r2, .L67+8
 678 0066 2032     		adds	r2, r2, #32
 679 0068 0121     		movs	r1, #1
 680 006a 2000     		movs	r0, r4
 681 006c FFF7FEFF 		bl	doSelectList
 682              	.LVL53:
 699:userMenuPatternSewingMachine.c ****         }
 700:userMenuPatternSewingMachine.c ****         case MENU_BOTTOM_RIGHT: // SAVE
 701:userMenuPatternSewingMachine.c ****         {
 702:userMenuPatternSewingMachine.c ****             if(indexSelect == 0)
 703:userMenuPatternSewingMachine.c ****                 g_ptrMachineParameter->bAutoReset = TRUE;
 704:userMenuPatternSewingMachine.c ****             else
 705:userMenuPatternSewingMachine.c ****                  g_ptrMachineParameter->bAutoReset = FALSE;
 706:userMenuPatternSewingMachine.c ****             ShowWaitMessage();                                    
 707:userMenuPatternSewingMachine.c ****             SaveExternalFlashConfig();
 708:userMenuPatternSewingMachine.c ****             CySoftwareReset();
 709:userMenuPatternSewingMachine.c ****         }            
 710:userMenuPatternSewingMachine.c ****     }
 711:userMenuPatternSewingMachine.c ****     return MENU_RETURN_THIS;    
 683              		.loc 1 711 0
 684 0070 1148     		ldr	r0, .L67+20
ARM GAS  C:\Users\luvsd\AppData\Local\Temp\ccw0dQKn.s 			page 26


 695:userMenuPatternSewingMachine.c ****         case MENU_BOTTOM_LEFT: // QUIT
 685              		.loc 1 695 0
 686 0072 15E0     		b	.L58
 687              	.L59:
 702:userMenuPatternSewingMachine.c ****                 g_ptrMachineParameter->bAutoReset = TRUE;
 688              		.loc 1 702 0
 689 0074 0C4B     		ldr	r3, .L67+4
 690 0076 5B8A     		ldrh	r3, [r3, #18]
 691 0078 002B     		cmp	r3, #0
 692 007a 04D1     		bne	.L63
 703:userMenuPatternSewingMachine.c ****             else
 693              		.loc 1 703 0
 694 007c 094B     		ldr	r3, .L67
 695 007e 1B68     		ldr	r3, [r3]
 696 0080 0122     		movs	r2, #1
 697 0082 9A76     		strb	r2, [r3, #26]
 698 0084 03E0     		b	.L64
 699              	.L63:
 705:userMenuPatternSewingMachine.c ****             ShowWaitMessage();                                    
 700              		.loc 1 705 0
 701 0086 074B     		ldr	r3, .L67
 702 0088 1B68     		ldr	r3, [r3]
 703 008a 0022     		movs	r2, #0
 704 008c 9A76     		strb	r2, [r3, #26]
 705              	.L64:
 706:userMenuPatternSewingMachine.c ****             SaveExternalFlashConfig();
 706              		.loc 1 706 0
 707 008e FFF7FEFF 		bl	ShowWaitMessage
 708              	.LVL54:
 707:userMenuPatternSewingMachine.c ****             CySoftwareReset();
 709              		.loc 1 707 0
 710 0092 FFF7FEFF 		bl	SaveExternalFlashConfig
 711              	.LVL55:
 708:userMenuPatternSewingMachine.c ****         }            
 712              		.loc 1 708 0
 713 0096 FFF7FEFF 		bl	CySoftwareReset
 714              	.LVL56:
 715              		.loc 1 711 0
 716 009a 0748     		ldr	r0, .L67+20
 717 009c 00E0     		b	.L58
 718              	.L65:
 719 009e 0648     		ldr	r0, .L67+20
 720              	.L58:
 712:userMenuPatternSewingMachine.c **** }
 721              		.loc 1 712 0
 722 00a0 02B0     		add	sp, sp, #8
 723              		@ sp needed
 724              	.LVL57:
 725 00a2 10BD     		pop	{r4, pc}
 726              	.L68:
 727              		.align	2
 728              	.L67:
 729 00a4 00000000 		.word	g_ptrMachineParameter
 730 00a8 00000000 		.word	.LANCHOR1
 731 00ac 00000000 		.word	.LANCHOR0
 732 00b0 04000080 		.word	-2147483644
 733 00b4 03000080 		.word	-2147483645
ARM GAS  C:\Users\luvsd\AppData\Local\Temp\ccw0dQKn.s 			page 27


 734 00b8 01000080 		.word	-2147483647
 735              		.cfi_endproc
 736              	.LFE79:
 737              		.size	doAutoReset, .-doAutoReset
 738              		.global	__aeabi_i2d
 739              		.global	__aeabi_ddiv
 740              		.section	.text.DisplayDoTopMenu,"ax",%progbits
 741              		.align	2
 742              		.global	DisplayDoTopMenu
 743              		.code	16
 744              		.thumb_func
 745              		.type	DisplayDoTopMenu, %function
 746              	DisplayDoTopMenu:
 747              	.LFB64:
 198:userMenuPatternSewingMachine.c ****     switch(g_ptrMachineParameter->machineType)
 748              		.loc 1 198 0
 749              		.cfi_startproc
 750              		@ args = 0, pretend = 0, frame = 0
 751              		@ frame_needed = 0, uses_anonymous_args = 0
 752              	.LVL58:
 753 0000 30B5     		push	{r4, r5, lr}
 754              		.cfi_def_cfa_offset 12
 755              		.cfi_offset 4, -12
 756              		.cfi_offset 5, -8
 757              		.cfi_offset 14, -4
 758 0002 83B0     		sub	sp, sp, #12
 759              		.cfi_def_cfa_offset 24
 760 0004 0400     		movs	r4, r0
 199:userMenuPatternSewingMachine.c ****     {
 761              		.loc 1 199 0
 762 0006 1B4B     		ldr	r3, .L75
 763 0008 1B68     		ldr	r3, [r3]
 764 000a 1A78     		ldrb	r2, [r3]
 765 000c 002A     		cmp	r2, #0
 766 000e 02D0     		beq	.L71
 767 0010 012A     		cmp	r2, #1
 768 0012 10D0     		beq	.L72
 769 0014 1EE0     		b	.L70
 770              	.L71:
 203:userMenuPatternSewingMachine.c ****             break;
 771              		.loc 1 203 0
 772 0016 9D88     		ldrh	r5, [r3, #4]
 773 0018 D888     		ldrh	r0, [r3, #6]
 774              	.LVL59:
 201:userMenuPatternSewingMachine.c ****         ////case PATTERN_MACHINE: SetDrawMonitoringMenu(menu, "Availability",   //// ņĀäļźśņä╝ņä£ ņ
 775              		.loc 1 201 0
 776 001a FFF7FEFF 		bl	__aeabi_i2d
 777              	.LVL60:
 778 001e 0022     		movs	r2, #0
 779 0020 154B     		ldr	r3, .L75+4
 780 0022 FFF7FEFF 		bl	__aeabi_ddiv
 781              	.LVL61:
 782 0026 0090     		str	r0, [sp]
 783 0028 0191     		str	r1, [sp, #4]
 784 002a 2A00     		movs	r2, r5
 785 002c 1349     		ldr	r1, .L75+8
 786 002e 2000     		movs	r0, r4
ARM GAS  C:\Users\luvsd\AppData\Local\Temp\ccw0dQKn.s 			page 28


 787 0030 FFF7FEFF 		bl	SetDrawMonitoringMenu
 788              	.LVL62:
 204:userMenuPatternSewingMachine.c ****         case SEWING_MACHINE:  SetDrawMonitoringMenu(menu, "%d : %3.1f-Pair",
 789              		.loc 1 204 0
 790 0034 0EE0     		b	.L70
 791              	.LVL63:
 792              	.L72:
 208:userMenuPatternSewingMachine.c ****         break;
 793              		.loc 1 208 0
 794 0036 5D89     		ldrh	r5, [r3, #10]
 795 0038 9889     		ldrh	r0, [r3, #12]
 796              	.LVL64:
 205:userMenuPatternSewingMachine.c ****         ////case SEWING_MACHINE:  SetDrawMonitoringMenu(menu, "%d : %3.1f ACT",
 797              		.loc 1 205 0
 798 003a FFF7FEFF 		bl	__aeabi_i2d
 799              	.LVL65:
 800 003e 0022     		movs	r2, #0
 801 0040 0D4B     		ldr	r3, .L75+4
 802 0042 FFF7FEFF 		bl	__aeabi_ddiv
 803              	.LVL66:
 804 0046 0090     		str	r0, [sp]
 805 0048 0191     		str	r1, [sp, #4]
 806 004a 2A00     		movs	r2, r5
 807 004c 0B49     		ldr	r1, .L75+8
 808 004e 2000     		movs	r0, r4
 809 0050 FFF7FEFF 		bl	SetDrawMonitoringMenu
 810              	.LVL67:
 811              	.L70:
 212:userMenuPatternSewingMachine.c **** }
 812              		.loc 1 212 0
 813 0054 074B     		ldr	r3, .L75
 814 0056 1B68     		ldr	r3, [r3]
 815 0058 9B8A     		ldrh	r3, [r3, #20]
 816 005a 012B     		cmp	r3, #1
 817 005c 01D1     		bne	.L74
 818 005e 0849     		ldr	r1, .L75+12
 819 0060 00E0     		b	.L73
 820              	.L74:
 821 0062 0849     		ldr	r1, .L75+16
 822              	.L73:
 212:userMenuPatternSewingMachine.c **** }
 823              		.loc 1 212 0 is_stmt 0 discriminator 4
 824 0064 0E23     		movs	r3, #14
 825 0066 1222     		movs	r2, #18
 826 0068 0748     		ldr	r0, .L75+20
 827 006a FFF7FEFF 		bl	SetDrawBottomButtons
 828              	.LVL68:
 213:userMenuPatternSewingMachine.c **** 
 829              		.loc 1 213 0 is_stmt 1 discriminator 4
 830 006e 03B0     		add	sp, sp, #12
 831              		@ sp needed
 832              	.LVL69:
 833 0070 30BD     		pop	{r4, r5, pc}
 834              	.L76:
 835 0072 C046     		.align	2
 836              	.L75:
 837 0074 00000000 		.word	g_ptrMachineParameter
ARM GAS  C:\Users\luvsd\AppData\Local\Temp\ccw0dQKn.s 			page 29


 838 0078 00002440 		.word	1076101120
 839 007c 58000000 		.word	.LC39
 840 0080 48000000 		.word	.LC34
 841 0084 50000000 		.word	.LC36
 842 0088 68000000 		.word	.LC41
 843              		.cfi_endproc
 844              	.LFE64:
 845              		.size	DisplayDoTopMenu, .-DisplayDoTopMenu
 846              		.global	__aeabi_ui2f
 847              		.global	__aeabi_fdiv
 848              		.global	__aeabi_f2d
 849              		.global	__aeabi_d2f
 850              		.global	__aeabi_ui2d
 851              		.global	__aeabi_dmul
 852              		.global	__aeabi_dsub
 853              		.global	__aeabi_d2uiz
 854              		.section	.text.TopMenuPageUpdateValue,"ax",%progbits
 855              		.align	2
 856              		.global	TopMenuPageUpdateValue
 857              		.code	16
 858              		.thumb_func
 859              		.type	TopMenuPageUpdateValue, %function
 860              	TopMenuPageUpdateValue:
 861              	.LFB65:
 216:userMenuPatternSewingMachine.c ****     BUTTON *btn;
 862              		.loc 1 216 0
 863              		.cfi_startproc
 864              		@ args = 0, pretend = 0, frame = 8
 865              		@ frame_needed = 0, uses_anonymous_args = 0
 866              	.LVL70:
 867 0000 F0B5     		push	{r4, r5, r6, r7, lr}
 868              		.cfi_def_cfa_offset 20
 869              		.cfi_offset 4, -20
 870              		.cfi_offset 5, -16
 871              		.cfi_offset 6, -12
 872              		.cfi_offset 7, -8
 873              		.cfi_offset 14, -4
 874 0002 85B0     		sub	sp, sp, #20
 875              		.cfi_def_cfa_offset 40
 876 0004 0400     		movs	r4, r0
 877 0006 0F00     		movs	r7, r1
 878              	.LVL71:
 221:userMenuPatternSewingMachine.c ****     if((uint32) CONVERT_TO_4BYTE(ptrCount->patternNoStitchSumH,ptrCount->patternNoStitchSumL) > 0 &
 879              		.loc 1 221 0
 880 0008 FFF7FEFF 		bl	getCount
 881              	.LVL72:
 882 000c 0600     		movs	r6, r0
 883              	.LVL73:
 222:userMenuPatternSewingMachine.c ****        (uint32) CONVERT_TO_4BYTE(ptrCount->patternStitchLengthSumH,ptrCount->patternStitchLengthSum
 884              		.loc 1 222 0
 885 000e 058F     		ldrh	r5, [r0, #56]
 886 0010 2D04     		lsls	r5, r5, #16
 887 0012 438F     		ldrh	r3, [r0, #58]
 888 0014 1D43     		orrs	r5, r3
 889 0016 1BD0     		beq	.L88
 223:userMenuPatternSewingMachine.c ****     {
 890              		.loc 1 223 0 discriminator 1
ARM GAS  C:\Users\luvsd\AppData\Local\Temp\ccw0dQKn.s 			page 30


 891 0018 C08F     		ldrh	r0, [r0, #62]
 892              	.LVL74:
 893 001a 0004     		lsls	r0, r0, #16
 894 001c 4023     		movs	r3, #64
 895 001e F35A     		ldrh	r3, [r6, r3]
 896 0020 1843     		orrs	r0, r3
 222:userMenuPatternSewingMachine.c ****        (uint32) CONVERT_TO_4BYTE(ptrCount->patternStitchLengthSumH,ptrCount->patternStitchLengthSum
 897              		.loc 1 222 0 discriminator 1
 898 0022 18D0     		beq	.L89
 225:userMenuPatternSewingMachine.c ****                       ((float) ((uint32) CONVERT_TO_4BYTE(ptrCount->patternNoStitchSumH,ptrCount->p
 899              		.loc 1 225 0
 900 0024 FFF7FEFF 		bl	__aeabi_ui2f
 901              	.LVL75:
 902 0028 0290     		str	r0, [sp, #8]
 226:userMenuPatternSewingMachine.c ****         
 903              		.loc 1 226 0
 904 002a 2800     		movs	r0, r5
 905 002c FFF7FEFF 		bl	__aeabi_ui2f
 906              	.LVL76:
 907 0030 011C     		adds	r1, r0, #0
 225:userMenuPatternSewingMachine.c ****                       ((float) ((uint32) CONVERT_TO_4BYTE(ptrCount->patternNoStitchSumH,ptrCount->p
 908              		.loc 1 225 0
 909 0032 0298     		ldr	r0, [sp, #8]
 910 0034 FFF7FEFF 		bl	__aeabi_fdiv
 911              	.LVL77:
 912 0038 FFF7FEFF 		bl	__aeabi_f2d
 913              	.LVL78:
 914 003c 0200     		movs	r2, r0
 915 003e 0B00     		movs	r3, r1
 916 0040 A348     		ldr	r0, .L96
 917 0042 A449     		ldr	r1, .L96+4
 918 0044 FFF7FEFF 		bl	__aeabi_ddiv
 919              	.LVL79:
 920 0048 FFF7FEFF 		bl	__aeabi_d2f
 921              	.LVL80:
 922 004c 0290     		str	r0, [sp, #8]
 923              	.LVL81:
 924 004e 04E0     		b	.L78
 925              	.LVL82:
 926              	.L88:
 220:userMenuPatternSewingMachine.c ****     COUNT *ptrCount = getCount();
 927              		.loc 1 220 0
 928 0050 0023     		movs	r3, #0
 929 0052 0293     		str	r3, [sp, #8]
 930 0054 01E0     		b	.L78
 931              	.LVL83:
 932              	.L89:
 933 0056 0023     		movs	r3, #0
 934 0058 0293     		str	r3, [sp, #8]
 935              	.LVL84:
 936              	.L78:
 231:userMenuPatternSewingMachine.c ****     {
 937              		.loc 1 231 0
 938 005a 9F4B     		ldr	r3, .L96+8
 939 005c 1A68     		ldr	r2, [r3]
 940 005e 1378     		ldrb	r3, [r2]
 941 0060 002B     		cmp	r3, #0
ARM GAS  C:\Users\luvsd\AppData\Local\Temp\ccw0dQKn.s 			page 31


 942 0062 03D0     		beq	.L80
 943 0064 012B     		cmp	r3, #1
 944 0066 00D1     		bne	.LCB924
 945 0068 A3E0     		b	.L81	@long jump
 946              	.LCB924:
 947 006a FCE0     		b	.L93
 948              	.L80:
 235:userMenuPatternSewingMachine.c ****             {
 949              		.loc 1 235 0
 950 006c 012F     		cmp	r7, #1
 951 006e 3BD0     		beq	.L82
 952 0070 002F     		cmp	r7, #0
 953 0072 03D0     		beq	.L83
 954 0074 022F     		cmp	r7, #2
 955 0076 00D1     		bne	.LCB934
 956 0078 7CE0     		b	.L84	@long jump
 957              	.LCB934:
 958 007a F6E0     		b	.L94
 959              	.L83:
 238:userMenuPatternSewingMachine.c ****                     SetButtonText(&menu->btn[4],"%lu",   ((uint32) CONVERT_TO_4BYTE(ptrCount->patte
 960              		.loc 1 238 0
 961 007c 5288     		ldrh	r2, [r2, #2]
 962 007e 2000     		movs	r0, r4
 963 0080 8030     		adds	r0, r0, #128
 964 0082 9649     		ldr	r1, .L96+12
 965 0084 FFF7FEFF 		bl	SetButtonText
 966              	.LVL85:
 239:userMenuPatternSewingMachine.c ****                     SetButtonText(&menu->btn[6],"%4.1f",((uint32) CONVERT_TO_4BYTE(ptrCount->patter
 967              		.loc 1 239 0
 968 0088 B08B     		ldrh	r0, [r6, #28]
 969 008a 0004     		lsls	r0, r0, #16
 970 008c F38B     		ldrh	r3, [r6, #30]
 971 008e 1843     		orrs	r0, r3
 972 0090 0A21     		movs	r1, #10
 973 0092 FFF7FEFF 		bl	__aeabi_uidiv
 974              	.LVL86:
 975 0096 0200     		movs	r2, r0
 976 0098 631C     		adds	r3, r4, #1
 977 009a FF33     		adds	r3, r3, #255
 978 009c 9049     		ldr	r1, .L96+16
 979 009e 1800     		movs	r0, r3
 980 00a0 FFF7FEFF 		bl	SetButtonText
 981              	.LVL87:
 240:userMenuPatternSewingMachine.c ****                     if(strcmp("100.0",menu->btn[6].text)==0) rate100 = TRUE;
 982              		.loc 1 240 0
 983 00a4 B08B     		ldrh	r0, [r6, #28]
 984 00a6 0004     		lsls	r0, r0, #16
 985 00a8 F38B     		ldrh	r3, [r6, #30]
 986 00aa 1843     		orrs	r0, r3
 987 00ac FFF7FEFF 		bl	__aeabi_ui2d
 988              	.LVL88:
 989 00b0 0022     		movs	r2, #0
 990 00b2 8C4B     		ldr	r3, .L96+20
 991 00b4 FFF7FEFF 		bl	__aeabi_dmul
 992              	.LVL89:
 993 00b8 0600     		movs	r6, r0
 994              	.LVL90:
ARM GAS  C:\Users\luvsd\AppData\Local\Temp\ccw0dQKn.s 			page 32


 995 00ba 0F00     		movs	r7, r1
 996 00bc 864B     		ldr	r3, .L96+8
 997 00be 1B68     		ldr	r3, [r3]
 998 00c0 5888     		ldrh	r0, [r3, #2]
 999 00c2 FFF7FEFF 		bl	__aeabi_i2d
 1000              	.LVL91:
 1001 00c6 0200     		movs	r2, r0
 1002 00c8 0B00     		movs	r3, r1
 1003 00ca 3000     		movs	r0, r6
 1004 00cc 3900     		movs	r1, r7
 1005 00ce FFF7FEFF 		bl	__aeabi_ddiv
 1006              	.LVL92:
 1007 00d2 0200     		movs	r2, r0
 1008 00d4 0B00     		movs	r3, r1
 1009 00d6 2500     		movs	r5, r4
 1010 00d8 8135     		adds	r5, r5, #129
 1011 00da FF35     		adds	r5, r5, #255
 1012 00dc 8249     		ldr	r1, .L96+24
 1013 00de 2800     		movs	r0, r5
 1014 00e0 FFF7FEFF 		bl	SetButtonText
 1015              	.LVL93:
 242:userMenuPatternSewingMachine.c ****                     break;
 1016              		.loc 1 242 0
 1017 00e4 0125     		movs	r5, #1
 1018 00e6 C3E0     		b	.L79
 1019              	.LVL94:
 1020              	.L82:
 245:userMenuPatternSewingMachine.c ****                     SetButtonText(&menu->btn[4],"%0.1f",(uint32) CONVERT_TO_4BYTE(ptrCount->pattern
 1021              		.loc 1 245 0
 1022 00e8 B08D     		ldrh	r0, [r6, #44]
 1023 00ea 0004     		lsls	r0, r0, #16
 1024 00ec F38D     		ldrh	r3, [r6, #46]
 1025 00ee 1843     		orrs	r0, r3
 1026 00f0 FFF7FEFF 		bl	__aeabi_ui2d
 1027              	.LVL95:
 1028 00f4 0022     		movs	r2, #0
 1029 00f6 7D4B     		ldr	r3, .L96+28
 1030 00f8 FFF7FEFF 		bl	__aeabi_ddiv
 1031              	.LVL96:
 1032 00fc 0200     		movs	r2, r0
 1033 00fe 0B00     		movs	r3, r1
 1034 0100 7B4D     		ldr	r5, .L96+32
 1035 0102 2000     		movs	r0, r4
 1036 0104 8030     		adds	r0, r0, #128
 1037 0106 2900     		movs	r1, r5
 1038 0108 FFF7FEFF 		bl	SetButtonText
 1039              	.LVL97:
 246:userMenuPatternSewingMachine.c ****                     SetButtonText(&menu->btn[6],"%4.1f",((uint32) CONVERT_TO_4BYTE(ptrCount->patter
 1040              		.loc 1 246 0
 1041 010c 708E     		ldrh	r0, [r6, #50]
 1042 010e 0004     		lsls	r0, r0, #16
 1043 0110 B38E     		ldrh	r3, [r6, #52]
 1044 0112 1843     		orrs	r0, r3
 1045 0114 FFF7FEFF 		bl	__aeabi_ui2d
 1046              	.LVL98:
 1047 0118 0022     		movs	r2, #0
 1048 011a 744B     		ldr	r3, .L96+28
ARM GAS  C:\Users\luvsd\AppData\Local\Temp\ccw0dQKn.s 			page 33


 1049 011c FFF7FEFF 		bl	__aeabi_ddiv
 1050              	.LVL99:
 1051 0120 0200     		movs	r2, r0
 1052 0122 0B00     		movs	r3, r1
 1053 0124 601C     		adds	r0, r4, #1
 1054 0126 FF30     		adds	r0, r0, #255
 1055 0128 2900     		movs	r1, r5
 1056 012a FFF7FEFF 		bl	SetButtonText
 1057              	.LVL100:
 247:userMenuPatternSewingMachine.c ****                     persent = TRUE;
 1058              		.loc 1 247 0
 1059 012e 708E     		ldrh	r0, [r6, #50]
 1060 0130 0004     		lsls	r0, r0, #16
 1061 0132 B38E     		ldrh	r3, [r6, #52]
 1062 0134 1843     		orrs	r0, r3
 1063 0136 FFF7FEFF 		bl	__aeabi_ui2d
 1064              	.LVL101:
 1065 013a 0022     		movs	r2, #0
 1066 013c 6D4B     		ldr	r3, .L96+36
 1067 013e FFF7FEFF 		bl	__aeabi_dmul
 1068              	.LVL102:
 1069 0142 0290     		str	r0, [sp, #8]
 1070 0144 0391     		str	r1, [sp, #12]
 1071              	.LVL103:
 1072 0146 B08D     		ldrh	r0, [r6, #44]
 1073 0148 0004     		lsls	r0, r0, #16
 1074 014a F38D     		ldrh	r3, [r6, #46]
 1075 014c 1843     		orrs	r0, r3
 1076 014e FFF7FEFF 		bl	__aeabi_ui2d
 1077              	.LVL104:
 1078 0152 0200     		movs	r2, r0
 1079 0154 0B00     		movs	r3, r1
 1080 0156 0298     		ldr	r0, [sp, #8]
 1081 0158 0399     		ldr	r1, [sp, #12]
 1082 015a FFF7FEFF 		bl	__aeabi_ddiv
 1083              	.LVL105:
 1084 015e 0200     		movs	r2, r0
 1085 0160 0B00     		movs	r3, r1
 1086 0162 2500     		movs	r5, r4
 1087 0164 8135     		adds	r5, r5, #129
 1088 0166 FF35     		adds	r5, r5, #255
 1089 0168 5F49     		ldr	r1, .L96+24
 1090 016a 2800     		movs	r0, r5
 1091 016c FFF7FEFF 		bl	SetButtonText
 1092              	.LVL106:
 248:userMenuPatternSewingMachine.c ****                     break;
 1093              		.loc 1 248 0
 1094 0170 0125     		movs	r5, #1
 249:userMenuPatternSewingMachine.c ****                 case 2:
 1095              		.loc 1 249 0
 1096 0172 7DE0     		b	.L79
 1097              	.LVL107:
 1098              	.L84:
 251:userMenuPatternSewingMachine.c ****                     SetButtonText(&menu->btn[4],"%lu",(uint32) CONVERT_TO_4BYTE(ptrCount->patternSt
 1099              		.loc 1 251 0
 1100 0174 5A4F     		ldr	r7, .L96+16
 1101 0176 2000     		movs	r0, r4
ARM GAS  C:\Users\luvsd\AppData\Local\Temp\ccw0dQKn.s 			page 34


 1102 0178 8030     		adds	r0, r0, #128
 1103 017a 2A00     		movs	r2, r5
 1104 017c 3900     		movs	r1, r7
 1105 017e FFF7FEFF 		bl	SetButtonText
 1106              	.LVL108:
 252:userMenuPatternSewingMachine.c ****                     SetButtonText(&menu->btn[6],"%4.1f",spi);    
 1107              		.loc 1 252 0
 1108 0182 F28F     		ldrh	r2, [r6, #62]
 1109 0184 1204     		lsls	r2, r2, #16
 1110 0186 4023     		movs	r3, #64
 1111 0188 F35A     		ldrh	r3, [r6, r3]
 1112 018a 1A43     		orrs	r2, r3
 1113 018c 601C     		adds	r0, r4, #1
 1114 018e FF30     		adds	r0, r0, #255
 1115 0190 3900     		movs	r1, r7
 1116 0192 FFF7FEFF 		bl	SetButtonText
 1117              	.LVL109:
 253:userMenuPatternSewingMachine.c ****                     break;
 1118              		.loc 1 253 0
 1119 0196 0298     		ldr	r0, [sp, #8]
 1120 0198 FFF7FEFF 		bl	__aeabi_f2d
 1121              	.LVL110:
 1122 019c 0200     		movs	r2, r0
 1123 019e 0B00     		movs	r3, r1
 1124 01a0 2500     		movs	r5, r4
 1125 01a2 8135     		adds	r5, r5, #129
 1126 01a4 FF35     		adds	r5, r5, #255
 1127 01a6 5049     		ldr	r1, .L96+24
 1128 01a8 2800     		movs	r0, r5
 1129 01aa FFF7FEFF 		bl	SetButtonText
 1130              	.LVL111:
 218:userMenuPatternSewingMachine.c ****     uint8 rate100 = FALSE;
 1131              		.loc 1 218 0
 1132 01ae 0025     		movs	r5, #0
 254:userMenuPatternSewingMachine.c ****             }
 1133              		.loc 1 254 0
 1134 01b0 5EE0     		b	.L79
 1135              	.L81:
 260:userMenuPatternSewingMachine.c ****             {
 1136              		.loc 1 260 0
 1137 01b2 002F     		cmp	r7, #0
 1138 01b4 02D0     		beq	.L85
 1139 01b6 012F     		cmp	r7, #1
 1140 01b8 36D0     		beq	.L86
 1141 01ba 58E0     		b	.L95
 1142              	.L85:
 263:userMenuPatternSewingMachine.c ****                     SetButtonText(&menu->btn[4],"%lu",   ((uint32) CONVERT_TO_4BYTE(ptrCount->sewin
 1143              		.loc 1 263 0
 1144 01bc 1289     		ldrh	r2, [r2, #8]
 1145 01be 2000     		movs	r0, r4
 1146 01c0 8030     		adds	r0, r0, #128
 1147 01c2 4649     		ldr	r1, .L96+12
 1148 01c4 FFF7FEFF 		bl	SetButtonText
 1149              	.LVL112:
 264:userMenuPatternSewingMachine.c ****                     SetButtonText(&menu->btn[6],"%4.1f",((uint32) CONVERT_TO_4BYTE(ptrCount->sewing
 1150              		.loc 1 264 0
 1151 01c8 3088     		ldrh	r0, [r6]
ARM GAS  C:\Users\luvsd\AppData\Local\Temp\ccw0dQKn.s 			page 35


 1152 01ca 0004     		lsls	r0, r0, #16
 1153 01cc 7388     		ldrh	r3, [r6, #2]
 1154 01ce 1843     		orrs	r0, r3
 1155 01d0 0A21     		movs	r1, #10
 1156 01d2 FFF7FEFF 		bl	__aeabi_uidiv
 1157              	.LVL113:
 1158 01d6 0200     		movs	r2, r0
 1159 01d8 631C     		adds	r3, r4, #1
 1160 01da FF33     		adds	r3, r3, #255
 1161 01dc 4049     		ldr	r1, .L96+16
 1162 01de 1800     		movs	r0, r3
 1163 01e0 FFF7FEFF 		bl	SetButtonText
 1164              	.LVL114:
 265:userMenuPatternSewingMachine.c ****                     if(strcmp("100.0",menu->btn[6].text)==0) rate100 = TRUE;
 1165              		.loc 1 265 0
 1166 01e4 3088     		ldrh	r0, [r6]
 1167 01e6 0004     		lsls	r0, r0, #16
 1168 01e8 7388     		ldrh	r3, [r6, #2]
 1169 01ea 1843     		orrs	r0, r3
 1170 01ec FFF7FEFF 		bl	__aeabi_ui2d
 1171              	.LVL115:
 1172 01f0 0022     		movs	r2, #0
 1173 01f2 3C4B     		ldr	r3, .L96+20
 1174 01f4 FFF7FEFF 		bl	__aeabi_dmul
 1175              	.LVL116:
 1176 01f8 0600     		movs	r6, r0
 1177              	.LVL117:
 1178 01fa 0F00     		movs	r7, r1
 1179 01fc 364B     		ldr	r3, .L96+8
 1180 01fe 1B68     		ldr	r3, [r3]
 1181 0200 1889     		ldrh	r0, [r3, #8]
 1182 0202 FFF7FEFF 		bl	__aeabi_i2d
 1183              	.LVL118:
 1184 0206 0200     		movs	r2, r0
 1185 0208 0B00     		movs	r3, r1
 1186 020a 3000     		movs	r0, r6
 1187 020c 3900     		movs	r1, r7
 1188 020e FFF7FEFF 		bl	__aeabi_ddiv
 1189              	.LVL119:
 1190 0212 0200     		movs	r2, r0
 1191 0214 0B00     		movs	r3, r1
 1192 0216 2500     		movs	r5, r4
 1193 0218 8135     		adds	r5, r5, #129
 1194 021a FF35     		adds	r5, r5, #255
 1195 021c 3249     		ldr	r1, .L96+24
 1196 021e 2800     		movs	r0, r5
 1197 0220 FFF7FEFF 		bl	SetButtonText
 1198              	.LVL120:
 267:userMenuPatternSewingMachine.c ****                     break;
 1199              		.loc 1 267 0
 1200 0224 0125     		movs	r5, #1
 1201 0226 23E0     		b	.L79
 1202              	.LVL121:
 1203              	.L86:
 270:userMenuPatternSewingMachine.c ****                     SetButtonText(&menu->btn[4],"%lu",((uint32) CONVERT_TO_4BYTE(ptrCount->sewingNo
 1204              		.loc 1 270 0
 1205 0228 328B     		ldrh	r2, [r6, #24]
ARM GAS  C:\Users\luvsd\AppData\Local\Temp\ccw0dQKn.s 			page 36


 1206 022a 1204     		lsls	r2, r2, #16
 1207 022c 738B     		ldrh	r3, [r6, #26]
 1208 022e 1A43     		orrs	r2, r3
 1209 0230 2B4D     		ldr	r5, .L96+16
 1210 0232 2000     		movs	r0, r4
 1211 0234 8030     		adds	r0, r0, #128
 1212 0236 2900     		movs	r1, r5
 1213 0238 FFF7FEFF 		bl	SetButtonText
 1214              	.LVL122:
 271:userMenuPatternSewingMachine.c ****                     SetButtonText(&menu->btn[6],"%lu",((uint32) CONVERT_TO_4BYTE(ptrCount->sewingMo
 1215              		.loc 1 271 0
 1216 023c 728A     		ldrh	r2, [r6, #18]
 1217 023e 1204     		lsls	r2, r2, #16
 1218 0240 B38A     		ldrh	r3, [r6, #20]
 1219 0242 1A43     		orrs	r2, r3
 1220 0244 601C     		adds	r0, r4, #1
 1221 0246 FF30     		adds	r0, r0, #255
 1222 0248 2900     		movs	r1, r5
 1223 024a FFF7FEFF 		bl	SetButtonText
 1224              	.LVL123:
 272:userMenuPatternSewingMachine.c ****                     break;     
 1225              		.loc 1 272 0
 1226 024e B289     		ldrh	r2, [r6, #12]
 1227 0250 1204     		lsls	r2, r2, #16
 1228 0252 F389     		ldrh	r3, [r6, #14]
 1229 0254 1A43     		orrs	r2, r3
 1230 0256 2000     		movs	r0, r4
 1231 0258 8130     		adds	r0, r0, #129
 1232 025a FF30     		adds	r0, r0, #255
 1233 025c 2900     		movs	r1, r5
 1234 025e FFF7FEFF 		bl	SetButtonText
 1235              	.LVL124:
 218:userMenuPatternSewingMachine.c ****     uint8 rate100 = FALSE;
 1236              		.loc 1 218 0
 1237 0262 0025     		movs	r5, #0
 273:userMenuPatternSewingMachine.c ****             }
 1238              		.loc 1 273 0
 1239 0264 04E0     		b	.L79
 1240              	.L93:
 218:userMenuPatternSewingMachine.c ****     uint8 rate100 = FALSE;
 1241              		.loc 1 218 0
 1242 0266 0025     		movs	r5, #0
 1243 0268 02E0     		b	.L79
 1244              	.L94:
 1245 026a 0025     		movs	r5, #0
 1246 026c 00E0     		b	.L79
 1247              	.L95:
 1248 026e 0025     		movs	r5, #0
 1249              	.LVL125:
 1250              	.L79:
 279:userMenuPatternSewingMachine.c ****     DrawButton(&menu->btn[4]);
 1251              		.loc 1 279 0
 1252 0270 2000     		movs	r0, r4
 1253 0272 8030     		adds	r0, r0, #128
 1254 0274 FFF7FEFF 		bl	DrawButton
 1255              	.LVL126:
 280:userMenuPatternSewingMachine.c ****     DrawButton(&menu->btn[6]);
ARM GAS  C:\Users\luvsd\AppData\Local\Temp\ccw0dQKn.s 			page 37


 1256              		.loc 1 280 0
 1257 0278 601C     		adds	r0, r4, #1
 1258 027a FF30     		adds	r0, r0, #255
 1259 027c FFF7FEFF 		bl	DrawButton
 1260              	.LVL127:
 281:userMenuPatternSewingMachine.c ****     
 1261              		.loc 1 281 0
 1262 0280 2000     		movs	r0, r4
 1263 0282 8130     		adds	r0, r0, #129
 1264 0284 FF30     		adds	r0, r0, #255
 1265 0286 FFF7FEFF 		bl	DrawButton
 1266              	.LVL128:
 285:userMenuPatternSewingMachine.c ****     {
 1267              		.loc 1 285 0
 1268 028a 002D     		cmp	r5, #0
 1269 028c 1ED0     		beq	.L77
 1270              	.LVL129:
 1271              	.LBB4:
 288:userMenuPatternSewingMachine.c ****     }
 1272              		.loc 1 288 0
 1273 028e 8134     		adds	r4, r4, #129
 1274              	.LVL130:
 1275 0290 FF34     		adds	r4, r4, #255
 1276              	.LVL131:
 1277 0292 E588     		ldrh	r5, [r4, #6]
 1278              	.LVL132:
 1279 0294 2089     		ldrh	r0, [r4, #8]
 1280 0296 6389     		ldrh	r3, [r4, #10]
 1281 0298 C018     		adds	r0, r0, r3
 1282 029a FFF7FEFF 		bl	__aeabi_i2d
 1283              	.LVL133:
 1284 029e 0022     		movs	r2, #0
 1285 02a0 154B     		ldr	r3, .L96+40
 1286 02a2 FFF7FEFF 		bl	__aeabi_dmul
 1287              	.LVL134:
 1288 02a6 0022     		movs	r2, #0
 1289 02a8 0E4B     		ldr	r3, .L96+20
 1290 02aa FFF7FEFF 		bl	__aeabi_dsub
 1291              	.LVL135:
 1292 02ae 678E     		ldrh	r7, [r4, #50]
 1293 02b0 268E     		ldrh	r6, [r4, #48]
 1294 02b2 FFF7FEFF 		bl	__aeabi_d2uiz
 1295              	.LVL136:
 1296 02b6 81B2     		uxth	r1, r0
 1297 02b8 103D     		subs	r5, r5, #16
 1298 02ba A8B2     		uxth	r0, r5
 1299 02bc 2523     		movs	r3, #37
 1300 02be 0193     		str	r3, [sp, #4]
 1301 02c0 E36A     		ldr	r3, [r4, #44]
 1302 02c2 0093     		str	r3, [sp]
 1303 02c4 3B00     		movs	r3, r7
 1304 02c6 3200     		movs	r2, r6
 1305 02c8 FFF7FEFF 		bl	LCD_DrawFont
 1306              	.LVL137:
 1307              	.L77:
 1308              	.LBE4:
 290:userMenuPatternSewingMachine.c **** 
ARM GAS  C:\Users\luvsd\AppData\Local\Temp\ccw0dQKn.s 			page 38


 1309              		.loc 1 290 0
 1310 02cc 05B0     		add	sp, sp, #20
 1311              		@ sp needed
 1312 02ce F0BD     		pop	{r4, r5, r6, r7, pc}
 1313              	.L97:
 1314              		.align	2
 1315              	.L96:
 1316 02d0 66666666 		.word	1717986918
 1317 02d4 66663940 		.word	1077503590
 1318 02d8 00000000 		.word	g_ptrMachineParameter
 1319 02dc 70000000 		.word	.LC44
 1320 02e0 74000000 		.word	.LC46
 1321 02e4 00002440 		.word	1076101120
 1322 02e8 78000000 		.word	.LC48
 1323 02ec 00408F40 		.word	1083129856
 1324 02f0 80000000 		.word	.LC50
 1325 02f4 00005940 		.word	1079574528
 1326 02f8 0000E03F 		.word	1071644672
 1327              		.cfi_endproc
 1328              	.LFE65:
 1329              		.size	TopMenuPageUpdateValue, .-TopMenuPageUpdateValue
 1330              		.section	.text.TopMenuPageUpdate,"ax",%progbits
 1331              		.align	2
 1332              		.global	TopMenuPageUpdate
 1333              		.code	16
 1334              		.thumb_func
 1335              		.type	TopMenuPageUpdate, %function
 1336              	TopMenuPageUpdate:
 1337              	.LFB63:
 142:userMenuPatternSewingMachine.c ****     switch(g_ptrMachineParameter->machineType)
 1338              		.loc 1 142 0
 1339              		.cfi_startproc
 1340              		@ args = 0, pretend = 0, frame = 0
 1341              		@ frame_needed = 0, uses_anonymous_args = 0
 1342              	.LVL138:
 1343 0000 70B5     		push	{r4, r5, r6, lr}
 1344              		.cfi_def_cfa_offset 16
 1345              		.cfi_offset 4, -16
 1346              		.cfi_offset 5, -12
 1347              		.cfi_offset 6, -8
 1348              		.cfi_offset 14, -4
 1349 0002 0400     		movs	r4, r0
 1350 0004 0D00     		movs	r5, r1
 143:userMenuPatternSewingMachine.c ****     {
 1351              		.loc 1 143 0
 1352 0006 334B     		ldr	r3, .L106
 1353 0008 1B68     		ldr	r3, [r3]
 1354 000a 1B78     		ldrb	r3, [r3]
 1355 000c 002B     		cmp	r3, #0
 1356 000e 02D0     		beq	.L100
 1357 0010 012B     		cmp	r3, #1
 1358 0012 3AD0     		beq	.L101
 1359 0014 4BE0     		b	.L99
 1360              	.L100:
 147:userMenuPatternSewingMachine.c ****             {
 1361              		.loc 1 147 0
 1362 0016 0129     		cmp	r1, #1
ARM GAS  C:\Users\luvsd\AppData\Local\Temp\ccw0dQKn.s 			page 39


 1363 0018 15D0     		beq	.L102
 1364 001a 0029     		cmp	r1, #0
 1365 001c 02D0     		beq	.L103
 1366 001e 0229     		cmp	r1, #2
 1367 0020 22D0     		beq	.L104
 1368 0022 44E0     		b	.L99
 1369              	.L103:
 150:userMenuPatternSewingMachine.c ****                     SetButtonText(&menu->btn[3],g_patternString[1]);
 1370              		.loc 1 150 0
 1371 0024 2C4E     		ldr	r6, .L106+4
 1372 0026 4030     		adds	r0, r0, #64
 1373              	.LVL139:
 1374 0028 B16A     		ldr	r1, [r6, #40]
 1375              	.LVL140:
 1376 002a FFF7FEFF 		bl	SetButtonText
 1377              	.LVL141:
 151:userMenuPatternSewingMachine.c ****                     SetButtonText(&menu->btn[5],g_patternString[2]);
 1378              		.loc 1 151 0
 1379 002e 2000     		movs	r0, r4
 1380 0030 C030     		adds	r0, r0, #192
 1381 0032 F16A     		ldr	r1, [r6, #44]
 1382 0034 FFF7FEFF 		bl	SetButtonText
 1383              	.LVL142:
 152:userMenuPatternSewingMachine.c ****                     break;
 1384              		.loc 1 152 0
 1385 0038 316B     		ldr	r1, [r6, #48]
 1386 003a 2000     		movs	r0, r4
 1387 003c 4130     		adds	r0, r0, #65
 1388 003e FF30     		adds	r0, r0, #255
 1389 0040 FFF7FEFF 		bl	SetButtonText
 1390              	.LVL143:
 153:userMenuPatternSewingMachine.c ****                 case 1:
 1391              		.loc 1 153 0
 1392 0044 33E0     		b	.L99
 1393              	.LVL144:
 1394              	.L102:
 155:userMenuPatternSewingMachine.c ****                     SetButtonText(&menu->btn[3],g_patternString[4]);
 1395              		.loc 1 155 0
 1396 0046 244E     		ldr	r6, .L106+4
 1397 0048 4030     		adds	r0, r0, #64
 1398              	.LVL145:
 1399 004a 716B     		ldr	r1, [r6, #52]
 1400              	.LVL146:
 1401 004c FFF7FEFF 		bl	SetButtonText
 1402              	.LVL147:
 156:userMenuPatternSewingMachine.c ****                     SetButtonText(&menu->btn[5],g_patternString[2]);                    
 1403              		.loc 1 156 0
 1404 0050 2000     		movs	r0, r4
 1405 0052 C030     		adds	r0, r0, #192
 1406 0054 B16B     		ldr	r1, [r6, #56]
 1407 0056 FFF7FEFF 		bl	SetButtonText
 1408              	.LVL148:
 157:userMenuPatternSewingMachine.c ****                     break;
 1409              		.loc 1 157 0
 1410 005a 316B     		ldr	r1, [r6, #48]
 1411 005c 2000     		movs	r0, r4
 1412 005e 4130     		adds	r0, r0, #65
ARM GAS  C:\Users\luvsd\AppData\Local\Temp\ccw0dQKn.s 			page 40


 1413 0060 FF30     		adds	r0, r0, #255
 1414 0062 FFF7FEFF 		bl	SetButtonText
 1415              	.LVL149:
 158:userMenuPatternSewingMachine.c ****                 case 2:
 1416              		.loc 1 158 0
 1417 0066 22E0     		b	.L99
 1418              	.LVL150:
 1419              	.L104:
 160:userMenuPatternSewingMachine.c ****                     SetButtonText(&menu->btn[3],g_patternString[6]);
 1420              		.loc 1 160 0
 1421 0068 1B4E     		ldr	r6, .L106+4
 1422 006a 4030     		adds	r0, r0, #64
 1423              	.LVL151:
 1424 006c F16B     		ldr	r1, [r6, #60]
 1425              	.LVL152:
 1426 006e FFF7FEFF 		bl	SetButtonText
 1427              	.LVL153:
 161:userMenuPatternSewingMachine.c ****                     SetButtonText(&menu->btn[5],g_patternString[7]);                      
 1428              		.loc 1 161 0
 1429 0072 2000     		movs	r0, r4
 1430 0074 C030     		adds	r0, r0, #192
 1431 0076 316C     		ldr	r1, [r6, #64]
 1432 0078 FFF7FEFF 		bl	SetButtonText
 1433              	.LVL154:
 162:userMenuPatternSewingMachine.c ****                     break;
 1434              		.loc 1 162 0
 1435 007c 716C     		ldr	r1, [r6, #68]
 1436 007e 2000     		movs	r0, r4
 1437 0080 4130     		adds	r0, r0, #65
 1438 0082 FF30     		adds	r0, r0, #255
 1439 0084 FFF7FEFF 		bl	SetButtonText
 1440              	.LVL155:
 163:userMenuPatternSewingMachine.c ****             }
 1441              		.loc 1 163 0
 1442 0088 11E0     		b	.L99
 1443              	.LVL156:
 1444              	.L101:
 169:userMenuPatternSewingMachine.c ****             {
 1445              		.loc 1 169 0
 1446 008a 0029     		cmp	r1, #0
 1447 008c 0FD1     		bne	.L99
 172:userMenuPatternSewingMachine.c ****                     SetButtonText(&menu->btn[3],g_patternString[1]);
 1448              		.loc 1 172 0
 1449 008e 124E     		ldr	r6, .L106+4
 1450 0090 4030     		adds	r0, r0, #64
 1451              	.LVL157:
 1452 0092 B16A     		ldr	r1, [r6, #40]
 1453              	.LVL158:
 1454 0094 FFF7FEFF 		bl	SetButtonText
 1455              	.LVL159:
 173:userMenuPatternSewingMachine.c ****                     SetButtonText(&menu->btn[5],g_patternString[2]);
 1456              		.loc 1 173 0
 1457 0098 2000     		movs	r0, r4
 1458 009a C030     		adds	r0, r0, #192
 1459 009c F16A     		ldr	r1, [r6, #44]
 1460 009e FFF7FEFF 		bl	SetButtonText
 1461              	.LVL160:
ARM GAS  C:\Users\luvsd\AppData\Local\Temp\ccw0dQKn.s 			page 41


 174:userMenuPatternSewingMachine.c ****                     break;
 1462              		.loc 1 174 0
 1463 00a2 316B     		ldr	r1, [r6, #48]
 1464 00a4 2000     		movs	r0, r4
 1465 00a6 4130     		adds	r0, r0, #65
 1466 00a8 FF30     		adds	r0, r0, #255
 1467 00aa FFF7FEFF 		bl	SetButtonText
 1468              	.LVL161:
 1469              	.L99:
 189:userMenuPatternSewingMachine.c ****     DrawButton(&menu->btn[3]);
 1470              		.loc 1 189 0
 1471 00ae 2000     		movs	r0, r4
 1472 00b0 4030     		adds	r0, r0, #64
 1473 00b2 FFF7FEFF 		bl	DrawButton
 1474              	.LVL162:
 190:userMenuPatternSewingMachine.c ****     DrawButton(&menu->btn[5]); 
 1475              		.loc 1 190 0
 1476 00b6 2000     		movs	r0, r4
 1477 00b8 C030     		adds	r0, r0, #192
 1478 00ba FFF7FEFF 		bl	DrawButton
 1479              	.LVL163:
 191:userMenuPatternSewingMachine.c **** 
 1480              		.loc 1 191 0
 1481 00be 2000     		movs	r0, r4
 1482 00c0 4130     		adds	r0, r0, #65
 1483 00c2 FF30     		adds	r0, r0, #255
 1484 00c4 FFF7FEFF 		bl	DrawButton
 1485              	.LVL164:
 193:userMenuPatternSewingMachine.c ****     
 1486              		.loc 1 193 0
 1487 00c8 2900     		movs	r1, r5
 1488 00ca 2000     		movs	r0, r4
 1489 00cc FFF7FEFF 		bl	TopMenuPageUpdateValue
 1490              	.LVL165:
 195:userMenuPatternSewingMachine.c **** 
 1491              		.loc 1 195 0
 1492              		@ sp needed
 1493              	.LVL166:
 1494 00d0 70BD     		pop	{r4, r5, r6, pc}
 1495              	.L107:
 1496 00d2 C046     		.align	2
 1497              	.L106:
 1498 00d4 00000000 		.word	g_ptrMachineParameter
 1499 00d8 00000000 		.word	.LANCHOR0
 1500              		.cfi_endproc
 1501              	.LFE63:
 1502              		.size	TopMenuPageUpdate, .-TopMenuPageUpdate
 1503              		.section	.text.doTopMenu,"ax",%progbits
 1504              		.align	2
 1505              		.global	doTopMenu
 1506              		.code	16
 1507              		.thumb_func
 1508              		.type	doTopMenu, %function
 1509              	doTopMenu:
 1510              	.LFB62:
  44:userMenuPatternSewingMachine.c ****     MENUNODE *thisMenu = (MENUNODE *) this;    
 1511              		.loc 1 44 0
ARM GAS  C:\Users\luvsd\AppData\Local\Temp\ccw0dQKn.s 			page 42


 1512              		.cfi_startproc
 1513              		@ args = 0, pretend = 0, frame = 8
 1514              		@ frame_needed = 0, uses_anonymous_args = 0
 1515              	.LVL167:
 1516 0000 00B5     		push	{lr}
 1517              		.cfi_def_cfa_offset 4
 1518              		.cfi_offset 14, -4
 1519 0002 83B0     		sub	sp, sp, #12
 1520              		.cfi_def_cfa_offset 16
 1521              	.LVL168:
  51:userMenuPatternSewingMachine.c ****     {
 1522              		.loc 1 51 0
 1523 0004 0029     		cmp	r1, #0
 1524 0006 1DD0     		beq	.L110
 1525 0008 0129     		cmp	r1, #1
 1526 000a 00D0     		beq	.LCB1506
 1527 000c 7EE0     		b	.L139	@long jump
 1528              	.LCB1506:
  55:userMenuPatternSewingMachine.c ****                 {
 1529              		.loc 1 55 0
 1530 000e 4E4B     		ldr	r3, .L140
 1531 0010 1B68     		ldr	r3, [r3]
 1532 0012 1B78     		ldrb	r3, [r3]
 1533 0014 002B     		cmp	r3, #0
 1534 0016 02D0     		beq	.L113
 1535 0018 012B     		cmp	r3, #1
 1536 001a 04D0     		beq	.L114
 1537 001c 06E0     		b	.L112
 1538              	.L113:
  57:userMenuPatternSewingMachine.c ****                     case SEWING_MACHINE :  page = sewingPage;  break;
 1539              		.loc 1 57 0
 1540 001e 0022     		movs	r2, #0
 1541 0020 4A4B     		ldr	r3, .L140+4
 1542 0022 9A75     		strb	r2, [r3, #22]
 1543 0024 02E0     		b	.L112
 1544              	.L114:
  58:userMenuPatternSewingMachine.c ****                 }
 1545              		.loc 1 58 0
 1546 0026 0022     		movs	r2, #0
 1547 0028 484B     		ldr	r3, .L140+4
 1548 002a 9A75     		strb	r2, [r3, #22]
 1549              	.L112:
  61:userMenuPatternSewingMachine.c ****                 g_updateCountMenu = TRUE;                
 1550              		.loc 1 61 0
 1551 002c FF21     		movs	r1, #255
 1552              	.LVL169:
 1553 002e 4823     		movs	r3, #72
 1554 0030 474A     		ldr	r2, .L140+8
 1555 0032 D154     		strb	r1, [r2, r3]
  62:userMenuPatternSewingMachine.c ****                 DisplayDoTopMenu(&menu);                
 1556              		.loc 1 62 0
 1557 0034 0122     		movs	r2, #1
 1558 0036 474B     		ldr	r3, .L140+12
 1559 0038 1A70     		strb	r2, [r3]
  63:userMenuPatternSewingMachine.c ****             }
 1560              		.loc 1 63 0
 1561 003a 4448     		ldr	r0, .L140+4
ARM GAS  C:\Users\luvsd\AppData\Local\Temp\ccw0dQKn.s 			page 43


 1562              	.LVL170:
 1563 003c 1830     		adds	r0, r0, #24
 1564 003e FFF7FEFF 		bl	DisplayDoTopMenu
 1565              	.LVL171:
  65:userMenuPatternSewingMachine.c ****         
 1566              		.loc 1 65 0
 1567 0042 66E0     		b	.L115
 1568              	.LVL172:
 1569              	.L110:
 1570              	.LBB5:
  69:userMenuPatternSewingMachine.c ****                 if(tc.isClick == FALSE) break;
 1571              		.loc 1 69 0
 1572 0044 6846     		mov	r0, sp
 1573              	.LVL173:
 1574 0046 FFF7FEFF 		bl	GetTouch
 1575              	.LVL174:
  70:userMenuPatternSewingMachine.c ****                 
 1576              		.loc 1 70 0
 1577 004a 6B46     		mov	r3, sp
 1578 004c 1B88     		ldrh	r3, [r3]
 1579 004e 002B     		cmp	r3, #0
 1580 0050 5FD0     		beq	.L115
  72:userMenuPatternSewingMachine.c ****                 {
 1581              		.loc 1 72 0
 1582 0052 0722     		movs	r2, #7
 1583 0054 3D49     		ldr	r1, .L140+4
 1584 0056 1831     		adds	r1, r1, #24
 1585 0058 6846     		mov	r0, sp
 1586 005a FFF7FEFF 		bl	getIndexOfClickedButton
 1587              	.LVL175:
 1588 005e 0628     		cmp	r0, #6
 1589 0060 3CD8     		bhi	.L117
 1590 0062 8000     		lsls	r0, r0, #2
 1591 0064 3C4B     		ldr	r3, .L140+16
 1592 0066 1B58     		ldr	r3, [r3, r0]
 1593 0068 9F46     		mov	pc, r3
 1594              		.section	.rodata
 1595              		.align	2
 1596              	.L119:
 1597 0000 F4000000 		.word	.L133
 1598 0004 6A000000 		.word	.L120
 1599 0008 6A000000 		.word	.L120
 1600 000c 9E000000 		.word	.L121
 1601 0010 9E000000 		.word	.L121
 1602 0014 C2000000 		.word	.L122
 1603 0018 C2000000 		.word	.L122
 1604              		.section	.text.doTopMenu
 1605              	.L120:
  78:userMenuPatternSewingMachine.c ****                         {
 1606              		.loc 1 78 0
 1607 006a 374B     		ldr	r3, .L140
 1608 006c 1B68     		ldr	r3, [r3]
 1609 006e 1B78     		ldrb	r3, [r3]
 1610 0070 002B     		cmp	r3, #0
 1611 0072 02D0     		beq	.L124
 1612 0074 012B     		cmp	r3, #1
 1613 0076 09D0     		beq	.L125
ARM GAS  C:\Users\luvsd\AppData\Local\Temp\ccw0dQKn.s 			page 44


 1614 0078 4BE0     		b	.L115
 1615              	.L124:
  81:userMenuPatternSewingMachine.c ****                                 else if(page > 0 ) page--;
 1616              		.loc 1 81 0
 1617 007a 344B     		ldr	r3, .L140+4
 1618 007c 9B7D     		ldrb	r3, [r3, #22]
 1619 007e 002B     		cmp	r3, #0
 1620 0080 3AD0     		beq	.L134
  82:userMenuPatternSewingMachine.c ****                                 break;
 1621              		.loc 1 82 0
 1622 0082 46D0     		beq	.L115
  82:userMenuPatternSewingMachine.c ****                                 break;
 1623              		.loc 1 82 0 is_stmt 0 discriminator 1
 1624 0084 013B     		subs	r3, r3, #1
 1625 0086 314A     		ldr	r2, .L140+4
 1626 0088 9375     		strb	r3, [r2, #22]
 1627 008a 42E0     		b	.L115
 1628              	.L125:
  85:userMenuPatternSewingMachine.c ****                                 else if(page > 0 ) page--;
 1629              		.loc 1 85 0 is_stmt 1
 1630 008c 2F4B     		ldr	r3, .L140+4
 1631 008e 9B7D     		ldrb	r3, [r3, #22]
 1632 0090 002B     		cmp	r3, #0
 1633 0092 33D0     		beq	.L135
  86:userMenuPatternSewingMachine.c ****                                 break;                                
 1634              		.loc 1 86 0
 1635 0094 3DD0     		beq	.L115
  86:userMenuPatternSewingMachine.c ****                                 break;                                
 1636              		.loc 1 86 0 is_stmt 0 discriminator 1
 1637 0096 013B     		subs	r3, r3, #1
 1638 0098 2C4A     		ldr	r2, .L140+4
 1639 009a 9375     		strb	r3, [r2, #22]
 1640 009c 39E0     		b	.L115
 1641              	.L121:
  93:userMenuPatternSewingMachine.c ****                         {
 1642              		.loc 1 93 0 is_stmt 1
 1643 009e 2A4B     		ldr	r3, .L140
 1644 00a0 1B68     		ldr	r3, [r3]
 1645 00a2 1B78     		ldrb	r3, [r3]
 1646 00a4 002B     		cmp	r3, #0
 1647 00a6 02D0     		beq	.L126
 1648 00a8 012B     		cmp	r3, #1
 1649 00aa 05D0     		beq	.L127
 1650 00ac 31E0     		b	.L115
 1651              	.L126:
  96:userMenuPatternSewingMachine.c ****                                 //else if(page > 0 ) page--;
 1652              		.loc 1 96 0
 1653 00ae 274B     		ldr	r3, .L140+4
 1654 00b0 9B7D     		ldrb	r3, [r3, #22]
 1655 00b2 002B     		cmp	r3, #0
 1656 00b4 24D0     		beq	.L136
 1657 00b6 2CE0     		b	.L115
 1658              	.L127:
 100:userMenuPatternSewingMachine.c ****                                 //else if(page > 0 ) page--;
 1659              		.loc 1 100 0
 1660 00b8 244B     		ldr	r3, .L140+4
 1661 00ba 9B7D     		ldrb	r3, [r3, #22]
ARM GAS  C:\Users\luvsd\AppData\Local\Temp\ccw0dQKn.s 			page 45


 1662 00bc 002B     		cmp	r3, #0
 1663 00be 21D0     		beq	.L137
 1664 00c0 27E0     		b	.L115
 1665              	.L122:
 108:userMenuPatternSewingMachine.c ****                         {
 1666              		.loc 1 108 0
 1667 00c2 214B     		ldr	r3, .L140
 1668 00c4 1B68     		ldr	r3, [r3]
 1669 00c6 1B78     		ldrb	r3, [r3]
 1670 00c8 002B     		cmp	r3, #0
 1671 00ca 22D1     		bne	.L115
 111:userMenuPatternSewingMachine.c ****                                 break;
 1672              		.loc 1 111 0
 1673 00cc 1F4B     		ldr	r3, .L140+4
 1674 00ce 9B7D     		ldrb	r3, [r3, #22]
 1675 00d0 012B     		cmp	r3, #1
 1676 00d2 1ED8     		bhi	.L115
 111:userMenuPatternSewingMachine.c ****                                 break;
 1677              		.loc 1 111 0 is_stmt 0 discriminator 1
 1678 00d4 0133     		adds	r3, r3, #1
 1679 00d6 1D4A     		ldr	r2, .L140+4
 1680 00d8 9375     		strb	r3, [r2, #22]
 1681 00da 1AE0     		b	.L115
 1682              	.L117:
 119:userMenuPatternSewingMachine.c ****                         {
 1683              		.loc 1 119 0 is_stmt 1
 1684 00dc 0222     		movs	r2, #2
 1685 00de 1F49     		ldr	r1, .L140+20
 1686 00e0 6846     		mov	r0, sp
 1687 00e2 FFF7FEFF 		bl	getIndexOfClickedButton
 1688              	.LVL176:
 1689 00e6 0028     		cmp	r0, #0
 1690 00e8 02D0     		beq	.L129
 1691 00ea 0128     		cmp	r0, #1
 1692 00ec 0CD0     		beq	.L138
 1693 00ee 10E0     		b	.L115
 1694              	.L129:
 121:userMenuPatternSewingMachine.c ****                             case BOTTOM_RIGHT: return 1;                            
 1695              		.loc 1 121 0
 1696 00f0 0020     		movs	r0, #0
 1697 00f2 26E0     		b	.L130
 1698              	.L133:
  74:userMenuPatternSewingMachine.c ****                     
 1699              		.loc 1 74 0
 1700 00f4 0220     		movs	r0, #2
 1701 00f6 24E0     		b	.L130
 1702              	.L134:
  81:userMenuPatternSewingMachine.c ****                                 else if(page > 0 ) page--;
 1703              		.loc 1 81 0
 1704 00f8 0320     		movs	r0, #3
 1705 00fa 22E0     		b	.L130
 1706              	.L135:
  85:userMenuPatternSewingMachine.c ****                                 else if(page > 0 ) page--;
 1707              		.loc 1 85 0
 1708 00fc 0320     		movs	r0, #3
 1709 00fe 20E0     		b	.L130
 1710              	.L136:
ARM GAS  C:\Users\luvsd\AppData\Local\Temp\ccw0dQKn.s 			page 46


  96:userMenuPatternSewingMachine.c ****                                 //else if(page > 0 ) page--;
 1711              		.loc 1 96 0
 1712 0100 0420     		movs	r0, #4
 1713 0102 1EE0     		b	.L130
 1714              	.L137:
 100:userMenuPatternSewingMachine.c ****                                 //else if(page > 0 ) page--;
 1715              		.loc 1 100 0
 1716 0104 0420     		movs	r0, #4
 1717 0106 1CE0     		b	.L130
 1718              	.L138:
 122:userMenuPatternSewingMachine.c ****                         }
 1719              		.loc 1 122 0
 1720 0108 0120     		movs	r0, #1
 1721 010a 1AE0     		b	.L130
 1722              	.LVL177:
 1723              	.L139:
 1724              	.LBE5:
 130:userMenuPatternSewingMachine.c ****             break;
 1725              		.loc 1 130 0
 1726 010c 0122     		movs	r2, #1
 1727 010e 114B     		ldr	r3, .L140+12
 1728 0110 1A70     		strb	r2, [r3]
 1729              	.LVL178:
 1730              	.L115:
 134:userMenuPatternSewingMachine.c ****     
 1731              		.loc 1 134 0
 1732 0112 4823     		movs	r3, #72
 1733 0114 0E4A     		ldr	r2, .L140+8
 1734 0116 D35C     		ldrb	r3, [r2, r3]
 1735 0118 0C4A     		ldr	r2, .L140+4
 1736 011a 917D     		ldrb	r1, [r2, #22]
 1737 011c 8B42     		cmp	r3, r1
 1738 011e 03D1     		bne	.L131
 134:userMenuPatternSewingMachine.c ****     
 1739              		.loc 1 134 0 is_stmt 0 discriminator 2
 1740 0120 0C4B     		ldr	r3, .L140+12
 1741 0122 1B78     		ldrb	r3, [r3]
 1742 0124 012B     		cmp	r3, #1
 1743 0126 03D1     		bne	.L132
 1744              	.L131:
 134:userMenuPatternSewingMachine.c ****     
 1745              		.loc 1 134 0 discriminator 3
 1746 0128 0848     		ldr	r0, .L140+4
 1747 012a 1830     		adds	r0, r0, #24
 1748 012c FFF7FEFF 		bl	TopMenuPageUpdate
 1749              	.LVL179:
 1750              	.L132:
 136:userMenuPatternSewingMachine.c ****     g_updateCountMenu = FALSE;
 1751              		.loc 1 136 0 is_stmt 1
 1752 0130 064B     		ldr	r3, .L140+4
 1753 0132 997D     		ldrb	r1, [r3, #22]
 1754 0134 4823     		movs	r3, #72
 1755 0136 064A     		ldr	r2, .L140+8
 1756 0138 D154     		strb	r1, [r2, r3]
 137:userMenuPatternSewingMachine.c ****     return MENU_RETURN_THIS;    
 1757              		.loc 1 137 0
 1758 013a 0022     		movs	r2, #0
ARM GAS  C:\Users\luvsd\AppData\Local\Temp\ccw0dQKn.s 			page 47


 1759 013c 054B     		ldr	r3, .L140+12
 1760 013e 1A70     		strb	r2, [r3]
 138:userMenuPatternSewingMachine.c **** }
 1761              		.loc 1 138 0
 1762 0140 0748     		ldr	r0, .L140+24
 1763              	.L130:
 139:userMenuPatternSewingMachine.c **** 
 1764              		.loc 1 139 0
 1765 0142 03B0     		add	sp, sp, #12
 1766              		@ sp needed
 1767 0144 00BD     		pop	{pc}
 1768              	.L141:
 1769 0146 C046     		.align	2
 1770              	.L140:
 1771 0148 00000000 		.word	g_ptrMachineParameter
 1772 014c 00000000 		.word	.LANCHOR1
 1773 0150 00000000 		.word	.LANCHOR0
 1774 0154 00000000 		.word	g_updateCountMenu
 1775 0158 00000000 		.word	.L119
 1776 015c 00000000 		.word	g_btnBottom
 1777 0160 01000080 		.word	-2147483647
 1778              		.cfi_endproc
 1779              	.LFE62:
 1780              		.size	doTopMenu, .-doTopMenu
 1781              		.section	.text.DisplayDoPairsInfoMenu,"ax",%progbits
 1782              		.align	2
 1783              		.global	DisplayDoPairsInfoMenu
 1784              		.code	16
 1785              		.thumb_func
 1786              		.type	DisplayDoPairsInfoMenu, %function
 1787              	DisplayDoPairsInfoMenu:
 1788              	.LFB67:
 404:userMenuPatternSewingMachine.c ****     switch(g_ptrMachineParameter->machineType)
 1789              		.loc 1 404 0
 1790              		.cfi_startproc
 1791              		@ args = 0, pretend = 0, frame = 0
 1792              		@ frame_needed = 0, uses_anonymous_args = 0
 1793              	.LVL180:
 1794 0000 10B5     		push	{r4, lr}
 1795              		.cfi_def_cfa_offset 8
 1796              		.cfi_offset 4, -8
 1797              		.cfi_offset 14, -4
 1798 0002 0400     		movs	r4, r0
 405:userMenuPatternSewingMachine.c ****     {
 1799              		.loc 1 405 0
 1800 0004 0E4B     		ldr	r3, .L146
 1801 0006 1B68     		ldr	r3, [r3]
 1802 0008 1B78     		ldrb	r3, [r3]
 1803 000a 002B     		cmp	r3, #0
 1804 000c 02D0     		beq	.L144
 1805 000e 012B     		cmp	r3, #1
 1806 0010 06D0     		beq	.L145
 1807 0012 0AE0     		b	.L143
 1808              	.L144:
 407:userMenuPatternSewingMachine.c ****         ////case SEWING_MACHINE:  SetDrawUpDownTwoMenu(menu, "Trim",  "Pair(s)", "Pairs infos.");  
 1809              		.loc 1 407 0
 1810 0014 0B4B     		ldr	r3, .L146+4
ARM GAS  C:\Users\luvsd\AppData\Local\Temp\ccw0dQKn.s 			page 48


 1811 0016 0C4A     		ldr	r2, .L146+8
 1812 0018 0C49     		ldr	r1, .L146+12
 1813 001a FFF7FEFF 		bl	SetDrawUpDownTwoMenu
 1814              	.LVL181:
 1815 001e 04E0     		b	.L143
 1816              	.LVL182:
 1817              	.L145:
 409:userMenuPatternSewingMachine.c ****         break;
 1818              		.loc 1 409 0
 1819 0020 0B4B     		ldr	r3, .L146+16
 1820 0022 0C4A     		ldr	r2, .L146+20
 1821 0024 0C49     		ldr	r1, .L146+24
 1822 0026 FFF7FEFF 		bl	SetDrawUpDownTwoMenu
 1823              	.LVL183:
 1824              	.L143:
 413:userMenuPatternSewingMachine.c ****    
 1825              		.loc 1 413 0
 1826 002a 0122     		movs	r2, #1
 1827 002c 3B23     		movs	r3, #59
 1828 002e E254     		strb	r2, [r4, r3]
 415:userMenuPatternSewingMachine.c **** }
 1829              		.loc 1 415 0
 1830 0030 293B     		subs	r3, r3, #41
 1831 0032 1032     		adds	r2, r2, #16
 1832 0034 0949     		ldr	r1, .L146+28
 1833 0036 0A48     		ldr	r0, .L146+32
 1834 0038 FFF7FEFF 		bl	SetDrawBottomButtons
 1835              	.LVL184:
 416:userMenuPatternSewingMachine.c **** 
 1836              		.loc 1 416 0
 1837              		@ sp needed
 1838              	.LVL185:
 1839 003c 10BD     		pop	{r4, pc}
 1840              	.L147:
 1841 003e C046     		.align	2
 1842              	.L146:
 1843 0040 00000000 		.word	g_ptrMachineParameter
 1844 0044 88000000 		.word	.LC61
 1845 0048 94000000 		.word	.LC63
 1846 004c 9C000000 		.word	.LC65
 1847 0050 A4000000 		.word	.LC67
 1848 0054 B4000000 		.word	.LC69
 1849 0058 BC000000 		.word	.LC71
 1850 005c C4000000 		.word	.LC73
 1851 0060 40000000 		.word	.LC26
 1852              		.cfi_endproc
 1853              	.LFE67:
 1854              		.size	DisplayDoPairsInfoMenu, .-DisplayDoPairsInfoMenu
 1855              		.section	.text.DisplayDoPairsInfoMenuLeftValueChange,"ax",%progbits
 1856              		.align	2
 1857              		.global	DisplayDoPairsInfoMenuLeftValueChange
 1858              		.code	16
 1859              		.thumb_func
 1860              		.type	DisplayDoPairsInfoMenuLeftValueChange, %function
 1861              	DisplayDoPairsInfoMenuLeftValueChange:
 1862              	.LFB69:
 432:userMenuPatternSewingMachine.c ****     SetButtonText(&menu->btn[UPDOWNTWO_FIRST_VALUE],"%d",value);    // left value   
ARM GAS  C:\Users\luvsd\AppData\Local\Temp\ccw0dQKn.s 			page 49


 1863              		.loc 1 432 0
 1864              		.cfi_startproc
 1865              		@ args = 0, pretend = 0, frame = 0
 1866              		@ frame_needed = 0, uses_anonymous_args = 0
 1867              	.LVL186:
 1868 0000 10B5     		push	{r4, lr}
 1869              		.cfi_def_cfa_offset 8
 1870              		.cfi_offset 4, -8
 1871              		.cfi_offset 14, -4
 1872 0002 0A00     		movs	r2, r1
 433:userMenuPatternSewingMachine.c ****     DrawButton(&menu->btn[UPDOWNTWO_FIRST_VALUE]);
 1873              		.loc 1 433 0
 1874 0004 C030     		adds	r0, r0, #192
 1875              	.LVL187:
 1876 0006 0400     		movs	r4, r0
 1877 0008 0349     		ldr	r1, .L149
 1878              	.LVL188:
 1879 000a FFF7FEFF 		bl	SetButtonText
 1880              	.LVL189:
 434:userMenuPatternSewingMachine.c **** }
 1881              		.loc 1 434 0
 1882 000e 2000     		movs	r0, r4
 1883 0010 FFF7FEFF 		bl	DrawButton
 1884              	.LVL190:
 435:userMenuPatternSewingMachine.c **** void DisplayDoPairsInfoMenuRightValueChange(UP_DOWN_TWO_MENU *menu, uint16 value)
 1885              		.loc 1 435 0
 1886              		@ sp needed
 1887              	.LVL191:
 1888 0014 10BD     		pop	{r4, pc}
 1889              	.L150:
 1890 0016 C046     		.align	2
 1891              	.L149:
 1892 0018 CC000000 		.word	.LC76
 1893              		.cfi_endproc
 1894              	.LFE69:
 1895              		.size	DisplayDoPairsInfoMenuLeftValueChange, .-DisplayDoPairsInfoMenuLeftValueChange
 1896              		.section	.text.DisplayDoPairsInfoMenuRightValueChange,"ax",%progbits
 1897              		.align	2
 1898              		.global	DisplayDoPairsInfoMenuRightValueChange
 1899              		.code	16
 1900              		.thumb_func
 1901              		.type	DisplayDoPairsInfoMenuRightValueChange, %function
 1902              	DisplayDoPairsInfoMenuRightValueChange:
 1903              	.LFB70:
 437:userMenuPatternSewingMachine.c ****     SetButtonText(&menu->btn[UPDOWNTWO_SECOND_VALUE],"%3.1f",value/10.); // right value   
 1904              		.loc 1 437 0
 1905              		.cfi_startproc
 1906              		@ args = 0, pretend = 0, frame = 0
 1907              		@ frame_needed = 0, uses_anonymous_args = 0
 1908              	.LVL192:
 1909 0000 10B5     		push	{r4, lr}
 1910              		.cfi_def_cfa_offset 8
 1911              		.cfi_offset 4, -8
 1912              		.cfi_offset 14, -4
 438:userMenuPatternSewingMachine.c ****     DrawButton(&menu->btn[UPDOWNTWO_SECOND_VALUE]);     
 1913              		.loc 1 438 0
 1914 0002 441C     		adds	r4, r0, #1
ARM GAS  C:\Users\luvsd\AppData\Local\Temp\ccw0dQKn.s 			page 50


 1915 0004 FF34     		adds	r4, r4, #255
 1916 0006 0800     		movs	r0, r1
 1917              	.LVL193:
 1918 0008 FFF7FEFF 		bl	__aeabi_i2d
 1919              	.LVL194:
 1920 000c 0022     		movs	r2, #0
 1921 000e 064B     		ldr	r3, .L152
 1922 0010 FFF7FEFF 		bl	__aeabi_ddiv
 1923              	.LVL195:
 1924 0014 0200     		movs	r2, r0
 1925 0016 0B00     		movs	r3, r1
 1926 0018 0449     		ldr	r1, .L152+4
 1927 001a 2000     		movs	r0, r4
 1928 001c FFF7FEFF 		bl	SetButtonText
 1929              	.LVL196:
 439:userMenuPatternSewingMachine.c **** }
 1930              		.loc 1 439 0
 1931 0020 2000     		movs	r0, r4
 1932 0022 FFF7FEFF 		bl	DrawButton
 1933              	.LVL197:
 440:userMenuPatternSewingMachine.c **** int doTargetInfoMenu(void *this, uint8 reflash)
 1934              		.loc 1 440 0
 1935              		@ sp needed
 1936              	.LVL198:
 1937 0026 10BD     		pop	{r4, pc}
 1938              	.L153:
 1939              		.align	2
 1940              	.L152:
 1941 0028 00002440 		.word	1076101120
 1942 002c D0000000 		.word	.LC78
 1943              		.cfi_endproc
 1944              	.LFE70:
 1945              		.size	DisplayDoPairsInfoMenuRightValueChange, .-DisplayDoPairsInfoMenuRightValueChange
 1946              		.global	__aeabi_f2uiz
 1947              		.section	.text.DisplayDoPairsInfoMenuSelectValue,"ax",%progbits
 1948              		.align	2
 1949              		.global	DisplayDoPairsInfoMenuSelectValue
 1950              		.code	16
 1951              		.thumb_func
 1952              		.type	DisplayDoPairsInfoMenuSelectValue, %function
 1953              	DisplayDoPairsInfoMenuSelectValue:
 1954              	.LFB68:
 419:userMenuPatternSewingMachine.c ****     SetButtonStyleColor(&menu->btn[UPDOWNTWO_FIRST_TEXT],  (selectValue==0) ? BUTTON_STYLE_WHITE : 
 1955              		.loc 1 419 0
 1956              		.cfi_startproc
 1957              		@ args = 0, pretend = 0, frame = 8
 1958              		@ frame_needed = 0, uses_anonymous_args = 0
 1959              	.LVL199:
 1960 0000 F0B5     		push	{r4, r5, r6, r7, lr}
 1961              		.cfi_def_cfa_offset 20
 1962              		.cfi_offset 4, -20
 1963              		.cfi_offset 5, -16
 1964              		.cfi_offset 6, -12
 1965              		.cfi_offset 7, -8
 1966              		.cfi_offset 14, -4
 1967 0002 83B0     		sub	sp, sp, #12
 1968              		.cfi_def_cfa_offset 32
ARM GAS  C:\Users\luvsd\AppData\Local\Temp\ccw0dQKn.s 			page 51


 1969 0004 0600     		movs	r6, r0
 1970 0006 0F00     		movs	r7, r1
 1971 0008 0092     		str	r2, [sp]
 1972 000a 0193     		str	r3, [sp, #4]
 420:userMenuPatternSewingMachine.c ****     SetButtonStyleColor(&menu->btn[UPDOWNTWO_FIRST_VALUE], (selectValue==0) ? BUTTON_STYLE_YELLOW: 
 1973              		.loc 1 420 0
 1974 000c 0500     		movs	r5, r0
 1975 000e 4035     		adds	r5, r5, #64
 1976 0010 0029     		cmp	r1, #0
 1977 0012 01D1     		bne	.L159
 1978 0014 0521     		movs	r1, #5
 1979              	.LVL200:
 1980 0016 00E0     		b	.L155
 1981              	.LVL201:
 1982              	.L159:
 1983 0018 0C21     		movs	r1, #12
 1984              	.LVL202:
 1985              	.L155:
 420:userMenuPatternSewingMachine.c ****     SetButtonStyleColor(&menu->btn[UPDOWNTWO_FIRST_VALUE], (selectValue==0) ? BUTTON_STYLE_YELLOW: 
 1986              		.loc 1 420 0 is_stmt 0 discriminator 4
 1987 001a 2800     		movs	r0, r5
 1988              	.LVL203:
 1989 001c FFF7FEFF 		bl	SetButtonStyleColor
 1990              	.LVL204:
 421:userMenuPatternSewingMachine.c ****     SetButtonStyleColor(&menu->btn[UPDOWNTWO_SECOND_TEXT], (selectValue==1) ? BUTTON_STYLE_WHITE : 
 1991              		.loc 1 421 0 is_stmt 1 discriminator 4
 1992 0020 3000     		movs	r0, r6
 1993 0022 C030     		adds	r0, r0, #192
 1994 0024 002F     		cmp	r7, #0
 1995 0026 01D1     		bne	.L160
 421:userMenuPatternSewingMachine.c ****     SetButtonStyleColor(&menu->btn[UPDOWNTWO_SECOND_TEXT], (selectValue==1) ? BUTTON_STYLE_WHITE : 
 1996              		.loc 1 421 0 is_stmt 0
 1997 0028 0821     		movs	r1, #8
 1998 002a 00E0     		b	.L156
 1999              	.L160:
 2000 002c 0C21     		movs	r1, #12
 2001              	.L156:
 421:userMenuPatternSewingMachine.c ****     SetButtonStyleColor(&menu->btn[UPDOWNTWO_SECOND_TEXT], (selectValue==1) ? BUTTON_STYLE_WHITE : 
 2002              		.loc 1 421 0 discriminator 4
 2003 002e FFF7FEFF 		bl	SetButtonStyleColor
 2004              	.LVL205:
 422:userMenuPatternSewingMachine.c ****     SetButtonStyleColor(&menu->btn[UPDOWNTWO_SECOND_VALUE],(selectValue==1) ? BUTTON_STYLE_YELLOW: 
 2005              		.loc 1 422 0 is_stmt 1 discriminator 4
 2006 0032 3400     		movs	r4, r6
 2007 0034 8034     		adds	r4, r4, #128
 2008 0036 012F     		cmp	r7, #1
 2009 0038 01D1     		bne	.L161
 422:userMenuPatternSewingMachine.c ****     SetButtonStyleColor(&menu->btn[UPDOWNTWO_SECOND_VALUE],(selectValue==1) ? BUTTON_STYLE_YELLOW: 
 2010              		.loc 1 422 0 is_stmt 0
 2011 003a 0521     		movs	r1, #5
 2012 003c 00E0     		b	.L157
 2013              	.L161:
 2014 003e 0C21     		movs	r1, #12
 2015              	.L157:
 422:userMenuPatternSewingMachine.c ****     SetButtonStyleColor(&menu->btn[UPDOWNTWO_SECOND_VALUE],(selectValue==1) ? BUTTON_STYLE_YELLOW: 
 2016              		.loc 1 422 0 discriminator 4
 2017 0040 2000     		movs	r0, r4
ARM GAS  C:\Users\luvsd\AppData\Local\Temp\ccw0dQKn.s 			page 52


 2018 0042 FFF7FEFF 		bl	SetButtonStyleColor
 2019              	.LVL206:
 423:userMenuPatternSewingMachine.c ****     
 2020              		.loc 1 423 0 is_stmt 1 discriminator 4
 2021 0046 701C     		adds	r0, r6, #1
 2022 0048 FF30     		adds	r0, r0, #255
 2023 004a 012F     		cmp	r7, #1
 2024 004c 01D1     		bne	.L162
 423:userMenuPatternSewingMachine.c ****     
 2025              		.loc 1 423 0 is_stmt 0
 2026 004e 0821     		movs	r1, #8
 2027 0050 00E0     		b	.L158
 2028              	.L162:
 2029 0052 0C21     		movs	r1, #12
 2030              	.L158:
 423:userMenuPatternSewingMachine.c ****     
 2031              		.loc 1 423 0 discriminator 4
 2032 0054 FFF7FEFF 		bl	SetButtonStyleColor
 2033              	.LVL207:
 425:userMenuPatternSewingMachine.c ****     DrawButton(&menu->btn[UPDOWNTWO_SECOND_TEXT]);
 2034              		.loc 1 425 0 is_stmt 1 discriminator 4
 2035 0058 2800     		movs	r0, r5
 2036 005a FFF7FEFF 		bl	DrawButton
 2037              	.LVL208:
 426:userMenuPatternSewingMachine.c ****     
 2038              		.loc 1 426 0 discriminator 4
 2039 005e 2000     		movs	r0, r4
 2040 0060 FFF7FEFF 		bl	DrawButton
 2041              	.LVL209:
 428:userMenuPatternSewingMachine.c ****     DisplayDoPairsInfoMenuRightValueChange(menu,secondValue);    
 2042              		.loc 1 428 0 discriminator 4
 2043 0064 0099     		ldr	r1, [sp]
 2044 0066 3000     		movs	r0, r6
 2045 0068 FFF7FEFF 		bl	DisplayDoPairsInfoMenuLeftValueChange
 2046              	.LVL210:
 429:userMenuPatternSewingMachine.c **** }
 2047              		.loc 1 429 0 discriminator 4
 2048 006c 0198     		ldr	r0, [sp, #4]
 2049 006e FFF7FEFF 		bl	__aeabi_f2uiz
 2050              	.LVL211:
 2051 0072 81B2     		uxth	r1, r0
 2052 0074 3000     		movs	r0, r6
 2053 0076 FFF7FEFF 		bl	DisplayDoPairsInfoMenuRightValueChange
 2054              	.LVL212:
 430:userMenuPatternSewingMachine.c **** void DisplayDoPairsInfoMenuLeftValueChange(UP_DOWN_TWO_MENU *menu, uint16 value)
 2055              		.loc 1 430 0 discriminator 4
 2056 007a 03B0     		add	sp, sp, #12
 2057              		@ sp needed
 2058              	.LVL213:
 2059 007c F0BD     		pop	{r4, r5, r6, r7, pc}
 2060              		.cfi_endproc
 2061              	.LFE68:
 2062              		.size	DisplayDoPairsInfoMenuSelectValue, .-DisplayDoPairsInfoMenuSelectValue
 2063 007e C046     		.section	.text.doPairsInfoMenu,"ax",%progbits
 2064              		.align	2
 2065              		.global	doPairsInfoMenu
 2066              		.code	16
ARM GAS  C:\Users\luvsd\AppData\Local\Temp\ccw0dQKn.s 			page 53


 2067              		.thumb_func
 2068              		.type	doPairsInfoMenu, %function
 2069              	doPairsInfoMenu:
 2070              	.LFB66:
 301:userMenuPatternSewingMachine.c ****     MENUNODE *thisMenu = (MENUNODE *) this;    
 2071              		.loc 1 301 0
 2072              		.cfi_startproc
 2073              		@ args = 0, pretend = 0, frame = 8
 2074              		@ frame_needed = 0, uses_anonymous_args = 0
 2075              	.LVL214:
 2076 0000 10B5     		push	{r4, lr}
 2077              		.cfi_def_cfa_offset 8
 2078              		.cfi_offset 4, -8
 2079              		.cfi_offset 14, -4
 2080 0002 82B0     		sub	sp, sp, #8
 2081              		.cfi_def_cfa_offset 16
 2082              	.LVL215:
 308:userMenuPatternSewingMachine.c ****     {
 2083              		.loc 1 308 0
 2084 0004 0029     		cmp	r1, #0
 2085 0006 2DD0     		beq	.L165
 2086 0008 0129     		cmp	r1, #1
 2087 000a 00D0     		beq	.LCB2051
 2088 000c D4E0     		b	.L186	@long jump
 2089              	.LCB2051:
 312:userMenuPatternSewingMachine.c ****                 
 2090              		.loc 1 312 0
 2091 000e 6C48     		ldr	r0, .L187
 2092              	.LVL216:
 2093 0010 5830     		adds	r0, r0, #88
 2094 0012 FFF7FEFF 		bl	DisplayDoPairsInfoMenu
 2095              	.LVL217:
 314:userMenuPatternSewingMachine.c ****                 {
 2096              		.loc 1 314 0
 2097 0016 6B4B     		ldr	r3, .L187+4
 2098 0018 1B68     		ldr	r3, [r3]
 2099 001a 1A78     		ldrb	r2, [r3]
 2100 001c 002A     		cmp	r2, #0
 2101 001e 02D0     		beq	.L168
 2102 0020 012A     		cmp	r2, #1
 2103 0022 08D0     		beq	.L169
 2104 0024 0EE0     		b	.L167
 2105              	.L168:
 317:userMenuPatternSewingMachine.c ****                         rightValue = g_ptrMachineParameter->patternPair;
 2106              		.loc 1 317 0
 2107 0026 9888     		ldrh	r0, [r3, #4]
 2108 0028 674A     		ldr	r2, .L187+8
 2109 002a 4A21     		movs	r1, #74
 2110 002c 5052     		strh	r0, [r2, r1]
 318:userMenuPatternSewingMachine.c ****                         break;
 2111              		.loc 1 318 0
 2112 002e D988     		ldrh	r1, [r3, #6]
 2113 0030 4C23     		movs	r3, #76
 2114 0032 D152     		strh	r1, [r2, r3]
 319:userMenuPatternSewingMachine.c ****                     case SEWING_MACHINE:
 2115              		.loc 1 319 0
 2116 0034 06E0     		b	.L167
ARM GAS  C:\Users\luvsd\AppData\Local\Temp\ccw0dQKn.s 			page 54


 2117              	.L169:
 321:userMenuPatternSewingMachine.c ****                         rightValue = g_ptrMachineParameter->sewingPair;
 2118              		.loc 1 321 0
 2119 0036 5889     		ldrh	r0, [r3, #10]
 2120 0038 634A     		ldr	r2, .L187+8
 2121 003a 4A21     		movs	r1, #74
 2122 003c 5052     		strh	r0, [r2, r1]
 322:userMenuPatternSewingMachine.c ****                         break;
 2123              		.loc 1 322 0
 2124 003e 9989     		ldrh	r1, [r3, #12]
 2125 0040 4C23     		movs	r3, #76
 2126 0042 D152     		strh	r1, [r2, r3]
 2127              	.L167:
 327:userMenuPatternSewingMachine.c ****             }
 2128              		.loc 1 327 0
 2129 0044 604C     		ldr	r4, .L187+8
 2130 0046 4C23     		movs	r3, #76
 2131 0048 E05A     		ldrh	r0, [r4, r3]
 2132 004a FFF7FEFF 		bl	__aeabi_ui2f
 2133              	.LVL218:
 2134 004e 031C     		adds	r3, r0, #0
 2135 0050 4A22     		movs	r2, #74
 2136 0052 A25A     		ldrh	r2, [r4, r2]
 2137 0054 5D49     		ldr	r1, .L187+12
 2138 0056 097E     		ldrb	r1, [r1, #24]
 2139 0058 5948     		ldr	r0, .L187
 2140 005a 5830     		adds	r0, r0, #88
 2141 005c FFF7FEFF 		bl	DisplayDoPairsInfoMenuSelectValue
 2142              	.LVL219:
 400:userMenuPatternSewingMachine.c **** }
 2143              		.loc 1 400 0
 2144 0060 5B48     		ldr	r0, .L187+16
 329:userMenuPatternSewingMachine.c **** 
 2145              		.loc 1 329 0
 2146 0062 AAE0     		b	.L164
 2147              	.LVL220:
 2148              	.L165:
 2149              	.LBB6:
 333:userMenuPatternSewingMachine.c ****                 if(tc.isClick == FALSE) break;
 2150              		.loc 1 333 0
 2151 0064 6846     		mov	r0, sp
 2152              	.LVL221:
 2153 0066 FFF7FEFF 		bl	GetTouch
 2154              	.LVL222:
 334:userMenuPatternSewingMachine.c ****                 uint16 indexClick = getIndexOfClickedButton(&tc, menu.btn,7);
 2155              		.loc 1 334 0
 2156 006a 6B46     		mov	r3, sp
 2157 006c 1B88     		ldrh	r3, [r3]
 2158 006e 002B     		cmp	r3, #0
 2159 0070 00D1     		bne	.LCB2124
 2160 0072 9CE0     		b	.L170	@long jump
 2161              	.LCB2124:
 335:userMenuPatternSewingMachine.c ****                 switch(indexClick)
 2162              		.loc 1 335 0
 2163 0074 0722     		movs	r2, #7
 2164 0076 5249     		ldr	r1, .L187
 2165 0078 5831     		adds	r1, r1, #88
ARM GAS  C:\Users\luvsd\AppData\Local\Temp\ccw0dQKn.s 			page 55


 2166 007a 6846     		mov	r0, sp
 2167 007c FFF7FEFF 		bl	getIndexOfClickedButton
 2168              	.LVL223:
 336:userMenuPatternSewingMachine.c ****                 {
 2169              		.loc 1 336 0
 2170 0080 0628     		cmp	r0, #6
 2171 0082 6DD8     		bhi	.L171
 2172 0084 8000     		lsls	r0, r0, #2
 2173              	.LVL224:
 2174 0086 534B     		ldr	r3, .L187+20
 2175 0088 1B58     		ldr	r3, [r3, r0]
 2176 008a 9F46     		mov	pc, r3
 2177              		.section	.rodata
 2178              		.align	2
 2179              	.L173:
 2180 001c 60010000 		.word	.L171
 2181 0020 8C000000 		.word	.L172
 2182 0024 AE000000 		.word	.L174
 2183 0028 8C000000 		.word	.L172
 2184 002c AE000000 		.word	.L174
 2185 0030 D0000000 		.word	.L175
 2186 0034 1C010000 		.word	.L176
 2187              		.section	.text.doPairsInfoMenu
 2188              	.L172:
 340:userMenuPatternSewingMachine.c ****                         DisplayDoPairsInfoMenuSelectValue(&menu,selectValue, leftValue, rightValue)
 2189              		.loc 1 340 0
 2190 008c 0022     		movs	r2, #0
 2191 008e 4F4B     		ldr	r3, .L187+12
 2192 0090 1A83     		strh	r2, [r3, #24]
 341:userMenuPatternSewingMachine.c ****                         break;
 2193              		.loc 1 341 0
 2194 0092 4D4C     		ldr	r4, .L187+8
 2195 0094 4C23     		movs	r3, #76
 2196 0096 E05A     		ldrh	r0, [r4, r3]
 2197 0098 FFF7FEFF 		bl	__aeabi_ui2f
 2198              	.LVL225:
 2199 009c 031C     		adds	r3, r0, #0
 2200 009e 4A22     		movs	r2, #74
 2201 00a0 A25A     		ldrh	r2, [r4, r2]
 2202 00a2 0021     		movs	r1, #0
 2203 00a4 4648     		ldr	r0, .L187
 2204 00a6 5830     		adds	r0, r0, #88
 2205 00a8 FFF7FEFF 		bl	DisplayDoPairsInfoMenuSelectValue
 2206              	.LVL226:
 342:userMenuPatternSewingMachine.c ****                     case UPDOWNTWO_SECOND_TEXT:  // right
 2207              		.loc 1 342 0
 2208 00ac 7DE0     		b	.L177
 2209              	.L174:
 345:userMenuPatternSewingMachine.c ****                         DisplayDoPairsInfoMenuSelectValue(&menu,selectValue, leftValue, rightValue)
 2210              		.loc 1 345 0
 2211 00ae 0122     		movs	r2, #1
 2212 00b0 464B     		ldr	r3, .L187+12
 2213 00b2 1A83     		strh	r2, [r3, #24]
 346:userMenuPatternSewingMachine.c ****                         break;                    
 2214              		.loc 1 346 0
 2215 00b4 444C     		ldr	r4, .L187+8
 2216 00b6 4C23     		movs	r3, #76
ARM GAS  C:\Users\luvsd\AppData\Local\Temp\ccw0dQKn.s 			page 56


 2217 00b8 E05A     		ldrh	r0, [r4, r3]
 2218 00ba FFF7FEFF 		bl	__aeabi_ui2f
 2219              	.LVL227:
 2220 00be 031C     		adds	r3, r0, #0
 2221 00c0 4A22     		movs	r2, #74
 2222 00c2 A25A     		ldrh	r2, [r4, r2]
 2223 00c4 0121     		movs	r1, #1
 2224 00c6 3E48     		ldr	r0, .L187
 2225 00c8 5830     		adds	r0, r0, #88
 2226 00ca FFF7FEFF 		bl	DisplayDoPairsInfoMenuSelectValue
 2227              	.LVL228:
 347:userMenuPatternSewingMachine.c ****                     case UPDOWNTWO_UP_BUTTON: // for up
 2228              		.loc 1 347 0
 2229 00ce 6CE0     		b	.L177
 2230              	.L175:
 349:userMenuPatternSewingMachine.c ****                         {
 2231              		.loc 1 349 0
 2232 00d0 3E4B     		ldr	r3, .L187+12
 2233 00d2 1B8B     		ldrh	r3, [r3, #24]
 2234 00d4 002B     		cmp	r3, #0
 2235 00d6 0FD1     		bne	.L178
 349:userMenuPatternSewingMachine.c ****                         {
 2236              		.loc 1 349 0 is_stmt 0 discriminator 1
 2237 00d8 4A22     		movs	r2, #74
 2238 00da 3B49     		ldr	r1, .L187+8
 2239 00dc 8A5A     		ldrh	r2, [r1, r2]
 2240 00de 3E49     		ldr	r1, .L187+24
 2241 00e0 8A42     		cmp	r2, r1
 2242 00e2 09D8     		bhi	.L178
 351:userMenuPatternSewingMachine.c ****                             DisplayDoPairsInfoMenuLeftValueChange(&menu,leftValue);
 2243              		.loc 1 351 0 is_stmt 1
 2244 00e4 0132     		adds	r2, r2, #1
 2245 00e6 91B2     		uxth	r1, r2
 2246 00e8 4A33     		adds	r3, r3, #74
 2247 00ea 374A     		ldr	r2, .L187+8
 2248 00ec D152     		strh	r1, [r2, r3]
 352:userMenuPatternSewingMachine.c ****                         }
 2249              		.loc 1 352 0
 2250 00ee 3448     		ldr	r0, .L187
 2251 00f0 5830     		adds	r0, r0, #88
 2252 00f2 FFF7FEFF 		bl	DisplayDoPairsInfoMenuLeftValueChange
 2253              	.LVL229:
 2254 00f6 58E0     		b	.L177
 2255              	.L178:
 354:userMenuPatternSewingMachine.c ****                         {
 2256              		.loc 1 354 0
 2257 00f8 012B     		cmp	r3, #1
 2258 00fa 56D1     		bne	.L177
 354:userMenuPatternSewingMachine.c ****                         {
 2259              		.loc 1 354 0 is_stmt 0 discriminator 1
 2260 00fc 4B33     		adds	r3, r3, #75
 2261 00fe 324A     		ldr	r2, .L187+8
 2262 0100 D35A     		ldrh	r3, [r2, r3]
 2263 0102 354A     		ldr	r2, .L187+24
 2264 0104 9342     		cmp	r3, r2
 2265 0106 50D8     		bhi	.L177
 356:userMenuPatternSewingMachine.c ****                             DisplayDoPairsInfoMenuRightValueChange(&menu,rightValue);
ARM GAS  C:\Users\luvsd\AppData\Local\Temp\ccw0dQKn.s 			page 57


 2266              		.loc 1 356 0 is_stmt 1
 2267 0108 0133     		adds	r3, r3, #1
 2268 010a 99B2     		uxth	r1, r3
 2269 010c 4C23     		movs	r3, #76
 2270 010e 2E4A     		ldr	r2, .L187+8
 2271 0110 D152     		strh	r1, [r2, r3]
 357:userMenuPatternSewingMachine.c ****                         }
 2272              		.loc 1 357 0
 2273 0112 2B48     		ldr	r0, .L187
 2274 0114 5830     		adds	r0, r0, #88
 2275 0116 FFF7FEFF 		bl	DisplayDoPairsInfoMenuRightValueChange
 2276              	.LVL230:
 2277 011a 46E0     		b	.L177
 2278              	.L176:
 361:userMenuPatternSewingMachine.c ****                         {
 2279              		.loc 1 361 0
 2280 011c 2B4B     		ldr	r3, .L187+12
 2281 011e 1B8B     		ldrh	r3, [r3, #24]
 2282 0120 002B     		cmp	r3, #0
 2283 0122 0ED1     		bne	.L179
 361:userMenuPatternSewingMachine.c ****                         {
 2284              		.loc 1 361 0 is_stmt 0 discriminator 1
 2285 0124 4A22     		movs	r2, #74
 2286 0126 2849     		ldr	r1, .L187+8
 2287 0128 895A     		ldrh	r1, [r1, r2]
 2288 012a 0129     		cmp	r1, #1
 2289 012c 09D9     		bls	.L179
 363:userMenuPatternSewingMachine.c ****                             DisplayDoPairsInfoMenuLeftValueChange(&menu,leftValue);
 2290              		.loc 1 363 0 is_stmt 1
 2291 012e 0139     		subs	r1, r1, #1
 2292 0130 89B2     		uxth	r1, r1
 2293 0132 4A33     		adds	r3, r3, #74
 2294 0134 244A     		ldr	r2, .L187+8
 2295 0136 D152     		strh	r1, [r2, r3]
 364:userMenuPatternSewingMachine.c ****                         }                        
 2296              		.loc 1 364 0
 2297 0138 2148     		ldr	r0, .L187
 2298 013a 5830     		adds	r0, r0, #88
 2299 013c FFF7FEFF 		bl	DisplayDoPairsInfoMenuLeftValueChange
 2300              	.LVL231:
 2301 0140 33E0     		b	.L177
 2302              	.L179:
 366:userMenuPatternSewingMachine.c ****                         {
 2303              		.loc 1 366 0
 2304 0142 012B     		cmp	r3, #1
 2305 0144 31D1     		bne	.L177
 366:userMenuPatternSewingMachine.c ****                         {
 2306              		.loc 1 366 0 is_stmt 0 discriminator 1
 2307 0146 4B33     		adds	r3, r3, #75
 2308 0148 1F4A     		ldr	r2, .L187+8
 2309 014a D15A     		ldrh	r1, [r2, r3]
 2310 014c 0129     		cmp	r1, #1
 2311 014e 2CD9     		bls	.L177
 368:userMenuPatternSewingMachine.c ****                             DisplayDoPairsInfoMenuRightValueChange(&menu,rightValue);
 2312              		.loc 1 368 0 is_stmt 1
 2313 0150 0139     		subs	r1, r1, #1
 2314 0152 89B2     		uxth	r1, r1
ARM GAS  C:\Users\luvsd\AppData\Local\Temp\ccw0dQKn.s 			page 58


 2315 0154 D152     		strh	r1, [r2, r3]
 369:userMenuPatternSewingMachine.c ****                         }                 
 2316              		.loc 1 369 0
 2317 0156 1A48     		ldr	r0, .L187
 2318 0158 5830     		adds	r0, r0, #88
 2319 015a FFF7FEFF 		bl	DisplayDoPairsInfoMenuRightValueChange
 2320              	.LVL232:
 2321 015e 24E0     		b	.L177
 2322              	.L171:
 373:userMenuPatternSewingMachine.c ****                         {
 2323              		.loc 1 373 0
 2324 0160 0222     		movs	r2, #2
 2325 0162 1E49     		ldr	r1, .L187+28
 2326 0164 6846     		mov	r0, sp
 2327 0166 FFF7FEFF 		bl	getIndexOfClickedButton
 2328              	.LVL233:
 2329 016a 0028     		cmp	r0, #0
 2330 016c 21D0     		beq	.L180
 2331 016e 0128     		cmp	r0, #1
 2332 0170 1BD1     		bne	.L177
 378:userMenuPatternSewingMachine.c ****                                 {
 2333              		.loc 1 378 0
 2334 0172 144B     		ldr	r3, .L187+4
 2335 0174 1B68     		ldr	r3, [r3]
 2336 0176 1A78     		ldrb	r2, [r3]
 2337 0178 002A     		cmp	r2, #0
 2338 017a 02D0     		beq	.L183
 2339 017c 012A     		cmp	r2, #1
 2340 017e 08D0     		beq	.L184
 2341 0180 0EE0     		b	.L182
 2342              	.L183:
 381:userMenuPatternSewingMachine.c ****                                         g_ptrMachineParameter->patternPair      = rightValue;
 2343              		.loc 1 381 0
 2344 0182 114A     		ldr	r2, .L187+8
 2345 0184 4A21     		movs	r1, #74
 2346 0186 515A     		ldrh	r1, [r2, r1]
 2347 0188 9980     		strh	r1, [r3, #4]
 382:userMenuPatternSewingMachine.c ****                                         break;
 2348              		.loc 1 382 0
 2349 018a 4C21     		movs	r1, #76
 2350 018c 525A     		ldrh	r2, [r2, r1]
 2351 018e DA80     		strh	r2, [r3, #6]
 383:userMenuPatternSewingMachine.c ****                                     case SEWING_MACHINE:
 2352              		.loc 1 383 0
 2353 0190 06E0     		b	.L182
 2354              	.L184:
 385:userMenuPatternSewingMachine.c ****                                         g_ptrMachineParameter->sewingPair     = rightValue; 
 2355              		.loc 1 385 0
 2356 0192 0D4A     		ldr	r2, .L187+8
 2357 0194 4A21     		movs	r1, #74
 2358 0196 515A     		ldrh	r1, [r2, r1]
 2359 0198 5981     		strh	r1, [r3, #10]
 386:userMenuPatternSewingMachine.c ****                                         break;
 2360              		.loc 1 386 0
 2361 019a 4C21     		movs	r1, #76
 2362 019c 525A     		ldrh	r2, [r2, r1]
 2363 019e 9A81     		strh	r2, [r3, #12]
ARM GAS  C:\Users\luvsd\AppData\Local\Temp\ccw0dQKn.s 			page 59


 2364              	.L182:
 390:userMenuPatternSewingMachine.c ****                                 SaveExternalFlashConfig();
 2365              		.loc 1 390 0
 2366 01a0 FFF7FEFF 		bl	ShowWaitMessage
 2367              	.LVL234:
 391:userMenuPatternSewingMachine.c ****                                 return MENU_RETURN_PARENT;
 2368              		.loc 1 391 0
 2369 01a4 FFF7FEFF 		bl	SaveExternalFlashConfig
 2370              	.LVL235:
 392:userMenuPatternSewingMachine.c ****                             }
 2371              		.loc 1 392 0
 2372 01a8 03E0     		b	.L180
 2373              	.L177:
 2374              	.LBE6:
 400:userMenuPatternSewingMachine.c **** }
 2375              		.loc 1 400 0 discriminator 1
 2376 01aa 0948     		ldr	r0, .L187+16
 398:userMenuPatternSewingMachine.c ****     }
 2377              		.loc 1 398 0 discriminator 1
 2378 01ac 05E0     		b	.L164
 2379              	.L170:
 400:userMenuPatternSewingMachine.c **** }
 2380              		.loc 1 400 0
 2381 01ae 0848     		ldr	r0, .L187+16
 2382 01b0 03E0     		b	.L164
 2383              	.L180:
 2384              	.LBB7:
 375:userMenuPatternSewingMachine.c ****                             case BOTTOM_RIGHT: 
 2385              		.loc 1 375 0 discriminator 1
 2386 01b2 8020     		movs	r0, #128
 2387 01b4 0006     		lsls	r0, r0, #24
 2388 01b6 00E0     		b	.L164
 2389              	.LVL236:
 2390              	.L186:
 2391              	.LBE7:
 400:userMenuPatternSewingMachine.c **** }
 2392              		.loc 1 400 0
 2393 01b8 0548     		ldr	r0, .L187+16
 2394              	.LVL237:
 2395              	.L164:
 401:userMenuPatternSewingMachine.c **** 
 2396              		.loc 1 401 0
 2397 01ba 02B0     		add	sp, sp, #8
 2398              		@ sp needed
 2399 01bc 10BD     		pop	{r4, pc}
 2400              	.L188:
 2401 01be C046     		.align	2
 2402              	.L187:
 2403 01c0 80010000 		.word	.LANCHOR2
 2404 01c4 00000000 		.word	g_ptrMachineParameter
 2405 01c8 00000000 		.word	.LANCHOR0
 2406 01cc 80030000 		.word	.LANCHOR3
 2407 01d0 01000080 		.word	-2147483647
 2408 01d4 1C000000 		.word	.L173
 2409 01d8 0F270000 		.word	9999
 2410 01dc 00000000 		.word	g_btnBottom
 2411              		.cfi_endproc
ARM GAS  C:\Users\luvsd\AppData\Local\Temp\ccw0dQKn.s 			page 60


 2412              	.LFE66:
 2413              		.size	doPairsInfoMenu, .-doPairsInfoMenu
 2414              		.section	.text.getTarget,"ax",%progbits
 2415              		.align	2
 2416              		.global	getTarget
 2417              		.code	16
 2418              		.thumb_func
 2419              		.type	getTarget, %function
 2420              	getTarget:
 2421              	.LFB75:
 622:userMenuPatternSewingMachine.c ****     switch(g_ptrMachineParameter->machineType)
 2422              		.loc 1 622 0
 2423              		.cfi_startproc
 2424              		@ args = 0, pretend = 0, frame = 0
 2425              		@ frame_needed = 0, uses_anonymous_args = 0
 2426              		@ link register save eliminated.
 623:userMenuPatternSewingMachine.c ****     {
 2427              		.loc 1 623 0
 2428 0000 064B     		ldr	r3, .L195
 2429 0002 1B68     		ldr	r3, [r3]
 2430 0004 1A78     		ldrb	r2, [r3]
 2431 0006 002A     		cmp	r2, #0
 2432 0008 02D0     		beq	.L191
 2433 000a 012A     		cmp	r2, #1
 2434 000c 02D0     		beq	.L192
 2435 000e 03E0     		b	.L194
 2436              	.L191:
 625:userMenuPatternSewingMachine.c ****         case SEWING_MACHINE:  return g_ptrMachineParameter->sewingTarget;  break;                
 2437              		.loc 1 625 0
 2438 0010 5888     		ldrh	r0, [r3, #2]
 2439 0012 02E0     		b	.L190
 2440              	.L192:
 626:userMenuPatternSewingMachine.c ****     }
 2441              		.loc 1 626 0
 2442 0014 1889     		ldrh	r0, [r3, #8]
 2443 0016 00E0     		b	.L190
 2444              	.L194:
 628:userMenuPatternSewingMachine.c **** }
 2445              		.loc 1 628 0
 2446 0018 0020     		movs	r0, #0
 2447              	.L190:
 629:userMenuPatternSewingMachine.c **** 
 2448              		.loc 1 629 0
 2449              		@ sp needed
 2450 001a 7047     		bx	lr
 2451              	.L196:
 2452              		.align	2
 2453              	.L195:
 2454 001c 00000000 		.word	g_ptrMachineParameter
 2455              		.cfi_endproc
 2456              	.LFE75:
 2457              		.size	getTarget, .-getTarget
 2458              		.section	.text.setTarget,"ax",%progbits
 2459              		.align	2
 2460              		.global	setTarget
 2461              		.code	16
 2462              		.thumb_func
ARM GAS  C:\Users\luvsd\AppData\Local\Temp\ccw0dQKn.s 			page 61


 2463              		.type	setTarget, %function
 2464              	setTarget:
 2465              	.LFB76:
 632:userMenuPatternSewingMachine.c ****     switch(g_ptrMachineParameter->machineType)
 2466              		.loc 1 632 0
 2467              		.cfi_startproc
 2468              		@ args = 0, pretend = 0, frame = 0
 2469              		@ frame_needed = 0, uses_anonymous_args = 0
 2470              		@ link register save eliminated.
 2471              	.LVL238:
 633:userMenuPatternSewingMachine.c ****     {
 2472              		.loc 1 633 0
 2473 0000 054B     		ldr	r3, .L201
 2474 0002 1B68     		ldr	r3, [r3]
 2475 0004 1A78     		ldrb	r2, [r3]
 2476 0006 002A     		cmp	r2, #0
 2477 0008 02D0     		beq	.L199
 2478 000a 012A     		cmp	r2, #1
 2479 000c 02D0     		beq	.L200
 2480 000e 02E0     		b	.L197
 2481              	.L199:
 635:userMenuPatternSewingMachine.c ****         case SEWING_MACHINE:  g_ptrMachineParameter->sewingTarget  = value;  break;                
 2482              		.loc 1 635 0
 2483 0010 5880     		strh	r0, [r3, #2]
 2484 0012 00E0     		b	.L197
 2485              	.L200:
 636:userMenuPatternSewingMachine.c ****     }   
 2486              		.loc 1 636 0
 2487 0014 1881     		strh	r0, [r3, #8]
 2488              	.L197:
 638:userMenuPatternSewingMachine.c **** 
 2489              		.loc 1 638 0
 2490              		@ sp needed
 2491 0016 7047     		bx	lr
 2492              	.L202:
 2493              		.align	2
 2494              	.L201:
 2495 0018 00000000 		.word	g_ptrMachineParameter
 2496              		.cfi_endproc
 2497              	.LFE76:
 2498              		.size	setTarget, .-setTarget
 2499              		.section	.text.getActual,"ax",%progbits
 2500              		.align	2
 2501              		.global	getActual
 2502              		.code	16
 2503              		.thumb_func
 2504              		.type	getActual, %function
 2505              	getActual:
 2506              	.LFB77:
 641:userMenuPatternSewingMachine.c ****     COUNT *ptrCount = getCount();   
 2507              		.loc 1 641 0
 2508              		.cfi_startproc
 2509              		@ args = 0, pretend = 0, frame = 0
 2510              		@ frame_needed = 0, uses_anonymous_args = 0
 2511 0000 10B5     		push	{r4, lr}
 2512              		.cfi_def_cfa_offset 8
 2513              		.cfi_offset 4, -8
ARM GAS  C:\Users\luvsd\AppData\Local\Temp\ccw0dQKn.s 			page 62


 2514              		.cfi_offset 14, -4
 642:userMenuPatternSewingMachine.c ****     switch(g_ptrMachineParameter->machineType)
 2515              		.loc 1 642 0
 2516 0002 FFF7FEFF 		bl	getCount
 2517              	.LVL239:
 643:userMenuPatternSewingMachine.c ****     {
 2518              		.loc 1 643 0
 2519 0006 0D4B     		ldr	r3, .L209
 2520 0008 1B68     		ldr	r3, [r3]
 2521 000a 1B78     		ldrb	r3, [r3]
 2522 000c 002B     		cmp	r3, #0
 2523 000e 02D0     		beq	.L205
 2524 0010 012B     		cmp	r3, #1
 2525 0012 08D0     		beq	.L206
 2526 0014 0FE0     		b	.L208
 2527              	.L205:
 646:userMenuPatternSewingMachine.c ****             break;
 2528              		.loc 1 646 0
 2529 0016 838B     		ldrh	r3, [r0, #28]
 2530 0018 1B04     		lsls	r3, r3, #16
 2531 001a C08B     		ldrh	r0, [r0, #30]
 2532              	.LVL240:
 2533 001c 1843     		orrs	r0, r3
 2534 001e 0A21     		movs	r1, #10
 2535 0020 FFF7FEFF 		bl	__aeabi_uidiv
 2536              	.LVL241:
 2537 0024 08E0     		b	.L204
 2538              	.LVL242:
 2539              	.L206:
 649:userMenuPatternSewingMachine.c ****             break;
 2540              		.loc 1 649 0
 2541 0026 0388     		ldrh	r3, [r0]
 2542 0028 1B04     		lsls	r3, r3, #16
 2543 002a 4088     		ldrh	r0, [r0, #2]
 2544              	.LVL243:
 2545 002c 1843     		orrs	r0, r3
 2546 002e 0A21     		movs	r1, #10
 2547 0030 FFF7FEFF 		bl	__aeabi_uidiv
 2548              	.LVL244:
 2549 0034 00E0     		b	.L204
 2550              	.LVL245:
 2551              	.L208:
 653:userMenuPatternSewingMachine.c **** }
 2552              		.loc 1 653 0
 2553 0036 0020     		movs	r0, #0
 2554              	.LVL246:
 2555              	.L204:
 654:userMenuPatternSewingMachine.c **** 
 2556              		.loc 1 654 0
 2557              		@ sp needed
 2558 0038 10BD     		pop	{r4, pc}
 2559              	.L210:
 2560 003a C046     		.align	2
 2561              	.L209:
 2562 003c 00000000 		.word	g_ptrMachineParameter
 2563              		.cfi_endproc
 2564              	.LFE77:
ARM GAS  C:\Users\luvsd\AppData\Local\Temp\ccw0dQKn.s 			page 63


 2565              		.size	getActual, .-getActual
 2566              		.section	.text.setActual,"ax",%progbits
 2567              		.align	2
 2568              		.global	setActual
 2569              		.code	16
 2570              		.thumb_func
 2571              		.type	setActual, %function
 2572              	setActual:
 2573              	.LFB78:
 657:userMenuPatternSewingMachine.c ****    COUNT *ptrCount = getCount();       
 2574              		.loc 1 657 0
 2575              		.cfi_startproc
 2576              		@ args = 0, pretend = 0, frame = 0
 2577              		@ frame_needed = 0, uses_anonymous_args = 0
 2578              	.LVL247:
 2579 0000 10B5     		push	{r4, lr}
 2580              		.cfi_def_cfa_offset 8
 2581              		.cfi_offset 4, -8
 2582              		.cfi_offset 14, -4
 2583 0002 0400     		movs	r4, r0
 658:userMenuPatternSewingMachine.c ****    switch(g_ptrMachineParameter->machineType)
 2584              		.loc 1 658 0
 2585 0004 FFF7FEFF 		bl	getCount
 2586              	.LVL248:
 659:userMenuPatternSewingMachine.c ****     {
 2587              		.loc 1 659 0
 2588 0008 0B4B     		ldr	r3, .L215
 2589 000a 1B68     		ldr	r3, [r3]
 2590 000c 1B78     		ldrb	r3, [r3]
 2591 000e 002B     		cmp	r3, #0
 2592 0010 02D0     		beq	.L213
 2593 0012 012B     		cmp	r3, #1
 2594 0014 08D0     		beq	.L214
 2595 0016 0EE0     		b	.L211
 2596              	.L213:
 662:userMenuPatternSewingMachine.c ****             ptrCount->patternActualL = CONVERT_TO_LOW(value*10);                        
 2597              		.loc 1 662 0
 2598 0018 A200     		lsls	r2, r4, #2
 2599 001a 1219     		adds	r2, r2, r4
 2600 001c 5300     		lsls	r3, r2, #1
 2601 001e 1B0C     		lsrs	r3, r3, #16
 2602 0020 8383     		strh	r3, [r0, #28]
 663:userMenuPatternSewingMachine.c ****             break;
 2603              		.loc 1 663 0
 2604 0022 5300     		lsls	r3, r2, #1
 2605 0024 C383     		strh	r3, [r0, #30]
 664:userMenuPatternSewingMachine.c ****         case SEWING_MACHINE:
 2606              		.loc 1 664 0
 2607 0026 06E0     		b	.L211
 2608              	.L214:
 666:userMenuPatternSewingMachine.c ****             ptrCount->sewingActualL = CONVERT_TO_LOW(value*10);    
 2609              		.loc 1 666 0
 2610 0028 A200     		lsls	r2, r4, #2
 2611 002a 1219     		adds	r2, r2, r4
 2612 002c 5300     		lsls	r3, r2, #1
 2613 002e 1B0C     		lsrs	r3, r3, #16
 2614 0030 0380     		strh	r3, [r0]
ARM GAS  C:\Users\luvsd\AppData\Local\Temp\ccw0dQKn.s 			page 64


 667:userMenuPatternSewingMachine.c ****             break;
 2615              		.loc 1 667 0
 2616 0032 5300     		lsls	r3, r2, #1
 2617 0034 4380     		strh	r3, [r0, #2]
 2618              	.L211:
 671:userMenuPatternSewingMachine.c **** 
 2619              		.loc 1 671 0
 2620              		@ sp needed
 2621              	.LVL249:
 2622 0036 10BD     		pop	{r4, pc}
 2623              	.L216:
 2624              		.align	2
 2625              	.L215:
 2626 0038 00000000 		.word	g_ptrMachineParameter
 2627              		.cfi_endproc
 2628              	.LFE78:
 2629              		.size	setActual, .-setActual
 2630              		.section	.text.menuCreate,"ax",%progbits
 2631              		.align	2
 2632              		.global	menuCreate
 2633              		.code	16
 2634              		.thumb_func
 2635              		.type	menuCreate, %function
 2636              	menuCreate:
 2637              	.LFB80:
 713:userMenuPatternSewingMachine.c **** 
 714:userMenuPatternSewingMachine.c **** MENUNODE * menuCreate()
 715:userMenuPatternSewingMachine.c **** {
 2638              		.loc 1 715 0
 2639              		.cfi_startproc
 2640              		@ args = 0, pretend = 0, frame = 0
 2641              		@ frame_needed = 0, uses_anonymous_args = 0
 2642 0000 F8B5     		push	{r3, r4, r5, r6, r7, lr}
 2643              		.cfi_def_cfa_offset 24
 2644              		.cfi_offset 3, -24
 2645              		.cfi_offset 4, -20
 2646              		.cfi_offset 5, -16
 2647              		.cfi_offset 6, -12
 2648              		.cfi_offset 7, -8
 2649              		.cfi_offset 14, -4
 2650              	.LVL250:
 716:userMenuPatternSewingMachine.c ****     MENUNODE *g_ptrAndonMenuNode = NULL;
 717:userMenuPatternSewingMachine.c ****     
 718:userMenuPatternSewingMachine.c ****     setDisplayDirection(getMiscConfig()->bDisplayDir);
 2651              		.loc 1 718 0
 2652 0002 FFF7FEFF 		bl	getMiscConfig
 2653              	.LVL251:
 2654 0006 0078     		ldrb	r0, [r0]
 2655 0008 FFF7FEFF 		bl	setDisplayDirection
 2656              	.LVL252:
 719:userMenuPatternSewingMachine.c **** 
 720:userMenuPatternSewingMachine.c ****     // Main Menu  ............................................
 721:userMenuPatternSewingMachine.c ****     MENUNODE *root                        = createMENUNODE(NULL,      "TOP MENU",     &doTopMenu);
 2657              		.loc 1 721 0
 2658 000c 264A     		ldr	r2, .L224
 2659 000e 2749     		ldr	r1, .L224+4
 2660 0010 0020     		movs	r0, #0
ARM GAS  C:\Users\luvsd\AppData\Local\Temp\ccw0dQKn.s 			page 65


 2661 0012 FFF7FEFF 		bl	createMENUNODE
 2662              	.LVL253:
 2663 0016 0700     		movs	r7, r0
 2664              	.LVL254:
 722:userMenuPatternSewingMachine.c ****     MENUNODE    *manage                   = manageMenuCreate(root);
 2665              		.loc 1 722 0
 2666 0018 FFF7FEFF 		bl	manageMenuCreate
 2667              	.LVL255:
 2668 001c 0600     		movs	r6, r0
 2669              	.LVL256:
 2670              	.LBB8:
 723:userMenuPatternSewingMachine.c ****     for(int i=0; i < getNoOfChild(manage); i++) 
 2671              		.loc 1 723 0
 2672 001e 0024     		movs	r4, #0
 2673 0020 1EE0     		b	.L218
 2674              	.LVL257:
 2675              	.L221:
 2676              	.LBB9:
 724:userMenuPatternSewingMachine.c ****     {
 725:userMenuPatternSewingMachine.c ****         MENUNODE *node = getNthChild(manage,i);
 2677              		.loc 1 725 0
 2678 0022 2100     		movs	r1, r4
 2679 0024 3000     		movs	r0, r6
 2680 0026 FFF7FEFF 		bl	getNthChild
 2681              	.LVL258:
 2682 002a 0500     		movs	r5, r0
 2683              	.LVL259:
 726:userMenuPatternSewingMachine.c ****         if(strcmp(node->nodeName,"SETTINGS") == 0)
 2684              		.loc 1 726 0
 2685 002c 1030     		adds	r0, r0, #16
 2686              	.LVL260:
 2687 002e 2049     		ldr	r1, .L224+8
 2688 0030 FFF7FEFF 		bl	strcmp
 2689              	.LVL261:
 2690 0034 0028     		cmp	r0, #0
 2691 0036 12D1     		bne	.L219
 2692              	.LBB10:
 727:userMenuPatternSewingMachine.c ****         {
 728:userMenuPatternSewingMachine.c ****             MENUNODE        *machine              = createMENUNODE  (node,  "MACHINE",      &doMach
 2693              		.loc 1 728 0
 2694 0038 1E4A     		ldr	r2, .L224+12
 2695 003a 1F49     		ldr	r1, .L224+16
 2696 003c 2800     		movs	r0, r5
 2697 003e FFF7FEFF 		bl	createMENUNODE
 2698              	.LVL262:
 729:userMenuPatternSewingMachine.c ****             MENUNODE        *andonSetting         = createMENUNODE  (node,  "ANDON",        &doAndo
 2699              		.loc 1 729 0
 2700 0042 1E4A     		ldr	r2, .L224+20
 2701 0044 1E49     		ldr	r1, .L224+24
 2702 0046 2800     		movs	r0, r5
 2703 0048 FFF7FEFF 		bl	createMENUNODE
 2704              	.LVL263:
 730:userMenuPatternSewingMachine.c ****             MENUNODE        *curSet               = currentSensorMenuCreate(node);  
 2705              		.loc 1 730 0
 2706 004c 2800     		movs	r0, r5
 2707 004e FFF7FEFF 		bl	currentSensorMenuCreate
 2708              	.LVL264:
ARM GAS  C:\Users\luvsd\AppData\Local\Temp\ccw0dQKn.s 			page 66


 731:userMenuPatternSewingMachine.c ****             MENUNODE        *autoReset            = createMENUNODE  (node,  "AUTO RESET",   &doAuto
 2709              		.loc 1 731 0
 2710 0052 1C4A     		ldr	r2, .L224+28
 2711 0054 1C49     		ldr	r1, .L224+32
 2712 0056 2800     		movs	r0, r5
 2713 0058 FFF7FEFF 		bl	createMENUNODE
 2714              	.LVL265:
 732:userMenuPatternSewingMachine.c ****             break;
 2715              		.loc 1 732 0
 2716 005c 05E0     		b	.L220
 2717              	.L219:
 2718              	.LBE10:
 2719              	.LBE9:
 723:userMenuPatternSewingMachine.c ****     {
 2720              		.loc 1 723 0 discriminator 2
 2721 005e 0134     		adds	r4, r4, #1
 2722              	.LVL266:
 2723              	.L218:
 723:userMenuPatternSewingMachine.c ****     {
 2724              		.loc 1 723 0 is_stmt 0 discriminator 1
 2725 0060 3000     		movs	r0, r6
 2726 0062 FFF7FEFF 		bl	getNoOfChild
 2727              	.LVL267:
 2728 0066 8442     		cmp	r4, r0
 2729 0068 DBDB     		blt	.L221
 2730              	.L220:
 2731              	.LBE8:
 733:userMenuPatternSewingMachine.c ****         }
 734:userMenuPatternSewingMachine.c ****     }
 735:userMenuPatternSewingMachine.c ****                        
 736:userMenuPatternSewingMachine.c ****     if(g_ptrMachineParameter->andon_enable==TRUE)
 2732              		.loc 1 736 0 is_stmt 1
 2733 006a 184B     		ldr	r3, .L224+36
 2734 006c 1B68     		ldr	r3, [r3]
 2735 006e 9B8A     		ldrh	r3, [r3, #20]
 2736 0070 012B     		cmp	r3, #1
 2737 0072 03D1     		bne	.L222
 737:userMenuPatternSewingMachine.c ****     {
 738:userMenuPatternSewingMachine.c ****         g_ptrAndonMenuNode = andonMenuCreate (root); 
 2738              		.loc 1 738 0
 2739 0074 3800     		movs	r0, r7
 2740 0076 FFF7FEFF 		bl	andonMenuCreate
 2741              	.LVL268:
 2742 007a 04E0     		b	.L223
 2743              	.LVL269:
 2744              	.L222:
 739:userMenuPatternSewingMachine.c ****     }
 740:userMenuPatternSewingMachine.c ****     else 
 741:userMenuPatternSewingMachine.c ****     {
 742:userMenuPatternSewingMachine.c ****         createMENUNODE  (root,    "RESET",        &doResetData);
 2745              		.loc 1 742 0
 2746 007c 144A     		ldr	r2, .L224+40
 2747 007e 1549     		ldr	r1, .L224+44
 2748 0080 3800     		movs	r0, r7
 2749 0082 FFF7FEFF 		bl	createMENUNODE
 2750              	.LVL270:
 2751              	.L223:
ARM GAS  C:\Users\luvsd\AppData\Local\Temp\ccw0dQKn.s 			page 67


 743:userMenuPatternSewingMachine.c ****     }
 744:userMenuPatternSewingMachine.c ****         
 745:userMenuPatternSewingMachine.c ****     MENUNODE    *pairsInfoMenuNode        = createMENUNODE  (root,    "PAIR(S) INFO", &doPairsInfoM
 2752              		.loc 1 745 0
 2753 0086 144A     		ldr	r2, .L224+48
 2754 0088 1449     		ldr	r1, .L224+52
 2755 008a 3800     		movs	r0, r7
 2756 008c FFF7FEFF 		bl	createMENUNODE
 2757              	.LVL271:
 746:userMenuPatternSewingMachine.c ****     MENUNODE    *targetInfoMenuNode       = createMENUNODE  (root,    "TARGET",       &doTargetInfo
 2758              		.loc 1 746 0
 2759 0090 134A     		ldr	r2, .L224+56
 2760 0092 1449     		ldr	r1, .L224+60
 2761 0094 3800     		movs	r0, r7
 2762 0096 FFF7FEFF 		bl	createMENUNODE
 2763              	.LVL272:
 747:userMenuPatternSewingMachine.c ****     MENUNODE    *actualtInfoMenuNode      = createMENUNODE  (root,    "ACTUAL",       &doActualInfo
 2764              		.loc 1 747 0
 2765 009a 134A     		ldr	r2, .L224+64
 2766 009c 1349     		ldr	r1, .L224+68
 2767 009e 3800     		movs	r0, r7
 2768 00a0 FFF7FEFF 		bl	createMENUNODE
 2769              	.LVL273:
 748:userMenuPatternSewingMachine.c ****     
 749:userMenuPatternSewingMachine.c ****     /*
 750:userMenuPatternSewingMachine.c ****     printf("---%d\r\n",getCount()->andonEntry==TRUE);
 751:userMenuPatternSewingMachine.c ****     
 752:userMenuPatternSewingMachine.c ****     if(getCount()->andonEntry==TRUE && g_ptrAndonMenuNode != NULL)
 753:userMenuPatternSewingMachine.c ****     {
 754:userMenuPatternSewingMachine.c ****         //printf("ANNNNNN\r\n");
 755:userMenuPatternSewingMachine.c ****         return g_ptrAndonMenuNode;
 756:userMenuPatternSewingMachine.c ****     }
 757:userMenuPatternSewingMachine.c ****     */
 758:userMenuPatternSewingMachine.c ****     
 759:userMenuPatternSewingMachine.c ****    return root;
 760:userMenuPatternSewingMachine.c **** }
 2770              		.loc 1 760 0
 2771 00a4 3800     		movs	r0, r7
 2772              		@ sp needed
 2773              	.LVL274:
 2774              	.LVL275:
 2775              	.LVL276:
 2776 00a6 F8BD     		pop	{r3, r4, r5, r6, r7, pc}
 2777              	.L225:
 2778              		.align	2
 2779              	.L224:
 2780 00a8 00000000 		.word	doTopMenu
 2781 00ac D8000000 		.word	.LC91
 2782 00b0 E4000000 		.word	.LC93
 2783 00b4 00000000 		.word	doMachine
 2784 00b8 F0000000 		.word	.LC96
 2785 00bc 00000000 		.word	doAndonSet
 2786 00c0 48000000 		.word	.LC34
 2787 00c4 00000000 		.word	doAutoReset
 2788 00c8 F8000000 		.word	.LC101
 2789 00cc 00000000 		.word	g_ptrMachineParameter
 2790 00d0 00000000 		.word	doResetData
ARM GAS  C:\Users\luvsd\AppData\Local\Temp\ccw0dQKn.s 			page 68


 2791 00d4 50000000 		.word	.LC36
 2792 00d8 00000000 		.word	doPairsInfoMenu
 2793 00dc 04010000 		.word	.LC107
 2794 00e0 00000000 		.word	doTargetInfoMenu
 2795 00e4 14010000 		.word	.LC110
 2796 00e8 00000000 		.word	doActualInfoMenu
 2797 00ec 1C010000 		.word	.LC113
 2798              		.cfi_endproc
 2799              	.LFE80:
 2800              		.size	menuCreate, .-menuCreate
 2801              		.global	g_nosewingString
 2802              		.global	g_sewingString
 2803              		.global	g_noPatternString
 2804              		.global	g_patternString
 2805              		.comm	Param,6,4
 2806              		.data
 2807              		.align	2
 2808              		.set	.LANCHOR0,. + 0
 2809              		.type	incr.9671, %object
 2810              		.size	incr.9671, 12
 2811              	incr.9671:
 2812 0000 01000000 		.word	1
 2813 0004 64000000 		.word	100
 2814 0008 F4010000 		.word	500
 2815              		.type	incr.9685, %object
 2816              		.size	incr.9685, 12
 2817              	incr.9685:
 2818 000c 01000000 		.word	1
 2819 0010 0A000000 		.word	10
 2820 0014 64000000 		.word	100
 2821              		.type	listText.9704, %object
 2822              		.size	listText.9704, 8
 2823              	listText.9704:
 2824 0018 2C010000 		.word	.LC117
 2825 001c 34010000 		.word	.LC118
 2826              		.type	listText.9757, %object
 2827              		.size	listText.9757, 8
 2828              	listText.9757:
 2829 0020 24010000 		.word	.LC115
 2830 0024 28010000 		.word	.LC116
 2831              		.type	g_patternString, %object
 2832              		.size	g_patternString, 32
 2833              	g_patternString:
 2834 0028 00000000 		.word	.LC1
 2835 002c B4000000 		.word	.LC69
 2836 0030 3C010000 		.word	.LC119
 2837 0034 50010000 		.word	.LC122
 2838 0038 4C010000 		.word	.LC121
 2839 003c 54010000 		.word	.LC123
 2840 0040 58010000 		.word	.LC124
 2841 0044 5C010000 		.word	.LC125
 2842              		.type	oldPage.9532, %object
 2843              		.size	oldPage.9532, 1
 2844              	oldPage.9532:
 2845 0048 FF       		.byte	-1
 2846 0049 00       		.space	1
 2847              		.type	leftValue.9619, %object
ARM GAS  C:\Users\luvsd\AppData\Local\Temp\ccw0dQKn.s 			page 69


 2848              		.size	leftValue.9619, 2
 2849              	leftValue.9619:
 2850 004a 0200     		.short	2
 2851              		.type	rightValue.9620, %object
 2852              		.size	rightValue.9620, 2
 2853              	rightValue.9620:
 2854 004c 1900     		.short	25
 2855              		.type	g_nosewingString, %object
 2856              		.size	g_nosewingString, 1
 2857              	g_nosewingString:
 2858 004e 06       		.byte	6
 2859 004f 00       		.space	1
 2860              		.type	g_sewingString, %object
 2861              		.size	g_sewingString, 24
 2862              	g_sewingString:
 2863 0050 00000000 		.word	.LC1
 2864 0054 B4000000 		.word	.LC69
 2865 0058 3C010000 		.word	.LC119
 2866 005c BC000000 		.word	.LC71
 2867 0060 44010000 		.word	.LC120
 2868 0064 4C010000 		.word	.LC121
 2869              		.type	g_noPatternString, %object
 2870              		.size	g_noPatternString, 1
 2871              	g_noPatternString:
 2872 0068 08       		.byte	8
 2873              		.section	.rodata.str1.4,"aMS",%progbits,1
 2874              		.align	2
 2875              	.LC1:
 2876 0000 54617267 		.ascii	"Target\000"
 2876      657400
 2877 0007 00       		.space	1
 2878              	.LC3:
 2879 0008 54617267 		.ascii	"Target info.\000"
 2879      65742069 
 2879      6E666F2E 
 2879      00
 2880 0015 000000   		.space	3
 2881              	.LC10:
 2882 0018 56616C75 		.ascii	"Value\000"
 2882      6500
 2883 001e 0000     		.space	2
 2884              	.LC12:
 2885 0020 41637475 		.ascii	"Actual Q'ty\000"
 2885      616C2051 
 2885      27747900 
 2886              	.LC22:
 2887 002c 446F2079 		.ascii	"Do you want ?\000"
 2887      6F752077 
 2887      616E7420 
 2887      3F00
 2888 003a 0000     		.space	2
 2889              	.LC24:
 2890 003c 59455300 		.ascii	"YES\000"
 2891              	.LC26:
 2892 0040 51554954 		.ascii	"QUIT\000"
 2892      00
 2893 0045 000000   		.space	3
ARM GAS  C:\Users\luvsd\AppData\Local\Temp\ccw0dQKn.s 			page 70


 2894              	.LC34:
 2895 0048 414E444F 		.ascii	"ANDON\000"
 2895      4E00
 2896 004e 0000     		.space	2
 2897              	.LC36:
 2898 0050 52455345 		.ascii	"RESET\000"
 2898      5400
 2899 0056 0000     		.space	2
 2900              	.LC39:
 2901 0058 2564203A 		.ascii	"%d : %3.1f-Pair\000"
 2901      2025332E 
 2901      31662D50 
 2901      61697200 
 2902              	.LC41:
 2903 0068 4D454E55 		.ascii	"MENU\000"
 2903      00
 2904 006d 000000   		.space	3
 2905              	.LC44:
 2906 0070 257500   		.ascii	"%u\000"
 2907 0073 00       		.space	1
 2908              	.LC46:
 2909 0074 256C7500 		.ascii	"%lu\000"
 2910              	.LC48:
 2911 0078 25342E31 		.ascii	"%4.1f\000"
 2911      6600
 2912 007e 0000     		.space	2
 2913              	.LC50:
 2914 0080 25302E31 		.ascii	"%0.1f\000"
 2914      6600
 2915 0086 0000     		.space	2
 2916              	.LC61:
 2917 0088 50616972 		.ascii	"Pairs info.\000"
 2917      7320696E 
 2917      666F2E00 
 2918              	.LC63:
 2919 0094 50616972 		.ascii	"Pair(s)\000"
 2919      28732900 
 2920              	.LC65:
 2921 009c 436F756E 		.ascii	"Count\000"
 2921      7400
 2922 00a2 0000     		.space	2
 2923              	.LC67:
 2924 00a4 41637475 		.ascii	"Actual info.\000"
 2924      616C2069 
 2924      6E666F2E 
 2924      00
 2925 00b1 000000   		.space	3
 2926              	.LC69:
 2927 00b4 41637475 		.ascii	"Actual\000"
 2927      616C00
 2928 00bb 00       		.space	1
 2929              	.LC71:
 2930 00bc 5472696D 		.ascii	"Trim\000"
 2930      00
 2931 00c1 000000   		.space	3
 2932              	.LC73:
 2933 00c4 53415645 		.ascii	"SAVE\000"
ARM GAS  C:\Users\luvsd\AppData\Local\Temp\ccw0dQKn.s 			page 71


 2933      00
 2934 00c9 000000   		.space	3
 2935              	.LC76:
 2936 00cc 256400   		.ascii	"%d\000"
 2937 00cf 00       		.space	1
 2938              	.LC78:
 2939 00d0 25332E31 		.ascii	"%3.1f\000"
 2939      6600
 2940 00d6 0000     		.space	2
 2941              	.LC91:
 2942 00d8 544F5020 		.ascii	"TOP MENU\000"
 2942      4D454E55 
 2942      00
 2943 00e1 000000   		.space	3
 2944              	.LC93:
 2945 00e4 53455454 		.ascii	"SETTINGS\000"
 2945      494E4753 
 2945      00
 2946 00ed 000000   		.space	3
 2947              	.LC96:
 2948 00f0 4D414348 		.ascii	"MACHINE\000"
 2948      494E4500 
 2949              	.LC101:
 2950 00f8 4155544F 		.ascii	"AUTO RESET\000"
 2950      20524553 
 2950      455400
 2951 0103 00       		.space	1
 2952              	.LC107:
 2953 0104 50414952 		.ascii	"PAIR(S) INFO\000"
 2953      28532920 
 2953      494E464F 
 2953      00
 2954 0111 000000   		.space	3
 2955              	.LC110:
 2956 0114 54415247 		.ascii	"TARGET\000"
 2956      455400
 2957 011b 00       		.space	1
 2958              	.LC113:
 2959 011c 41435455 		.ascii	"ACTUAL\000"
 2959      414C00
 2960 0123 00       		.space	1
 2961              	.LC115:
 2962 0124 4F4E00   		.ascii	"ON\000"
 2963 0127 00       		.space	1
 2964              	.LC116:
 2965 0128 4F464600 		.ascii	"OFF\000"
 2966              	.LC117:
 2967 012c 50415454 		.ascii	"PATTERN\000"
 2967      45524E00 
 2968              	.LC118:
 2969 0134 53455749 		.ascii	"SEWING\000"
 2969      4E4700
 2970 013b 00       		.space	1
 2971              	.LC119:
 2972 013c 52617465 		.ascii	"Rate\000"
 2972      00
 2973 0141 000000   		.space	3
ARM GAS  C:\Users\luvsd\AppData\Local\Temp\ccw0dQKn.s 			page 72


 2974              	.LC120:
 2975 0144 53746974 		.ascii	"Stitch\000"
 2975      636800
 2976 014b 00       		.space	1
 2977              	.LC121:
 2978 014c 525400   		.ascii	"RT\000"
 2979 014f 00       		.space	1
 2980              	.LC122:
 2981 0150 435400   		.ascii	"CT\000"
 2982 0153 00       		.space	1
 2983              	.LC123:
 2984 0154 535100   		.ascii	"SQ\000"
 2985 0157 00       		.space	1
 2986              	.LC124:
 2987 0158 534C00   		.ascii	"SL\000"
 2988 015b 00       		.space	1
 2989              	.LC125:
 2990 015c 53504900 		.ascii	"SPI\000"
 2991              		.bss
 2992              		.align	2
 2993              		.set	.LANCHOR1,. + 0
 2994              		.set	.LANCHOR2,. + 384
 2995              		.set	.LANCHOR3,. + 896
 2996              		.type	selectIncre.9672, %object
 2997              		.size	selectIncre.9672, 2
 2998              	selectIncre.9672:
 2999 0000 0000     		.space	2
 3000 0002 0000     		.space	2
 3001              		.type	value.9673, %object
 3002              		.size	value.9673, 4
 3003              	value.9673:
 3004 0004 00000000 		.space	4
 3005              		.type	value.9687, %object
 3006              		.size	value.9687, 4
 3007              	value.9687:
 3008 0008 00000000 		.space	4
 3009              		.type	selectIncre.9686, %object
 3010              		.size	selectIncre.9686, 2
 3011              	selectIncre.9686:
 3012 000c 0000     		.space	2
 3013              		.type	indexSelect.9705, %object
 3014              		.size	indexSelect.9705, 2
 3015              	indexSelect.9705:
 3016 000e 0000     		.space	2
 3017              		.type	page.9707, %object
 3018              		.size	page.9707, 2
 3019              	page.9707:
 3020 0010 0000     		.space	2
 3021              		.type	indexSelect.9758, %object
 3022              		.size	indexSelect.9758, 2
 3023              	indexSelect.9758:
 3024 0012 0000     		.space	2
 3025              		.type	page.9759, %object
 3026              		.size	page.9759, 2
 3027              	page.9759:
 3028 0014 0000     		.space	2
 3029              		.type	page.9531, %object
ARM GAS  C:\Users\luvsd\AppData\Local\Temp\ccw0dQKn.s 			page 73


 3030              		.size	page.9531, 1
 3031              	page.9531:
 3032 0016 00       		.space	1
 3033 0017 00       		.space	1
 3034              		.type	menu.9528, %object
 3035              		.size	menu.9528, 448
 3036              	menu.9528:
 3037 0018 00000000 		.space	448
 3037      00000000 
 3037      00000000 
 3037      00000000 
 3037      00000000 
 3038              		.type	menu.9617, %object
 3039              		.size	menu.9617, 448
 3040              	menu.9617:
 3041 01d8 00000000 		.space	448
 3041      00000000 
 3041      00000000 
 3041      00000000 
 3041      00000000 
 3042              		.type	selectValue.9618, %object
 3043              		.size	selectValue.9618, 2
 3044              	selectValue.9618:
 3045 0398 0000     		.space	2
 3046              		.text
 3047              	.Letext0:
 3048              		.file 2 "c:\\program files (x86)\\cypress\\psoc creator\\4.4\\psoc creator\\import\\gnu\\arm\\5.4.
 3049              		.file 3 "c:\\program files (x86)\\cypress\\psoc creator\\4.4\\psoc creator\\import\\gnu\\arm\\5.4.
 3050              		.file 4 "Generated_Source\\PSoC4/cytypes.h"
 3051              		.file 5 "./main.h"
 3052              		.file 6 "lib/menu.h"
 3053              		.file 7 "lib/UI.h"
 3054              		.file 8 "lib/button.h"
 3055              		.file 9 "lib/widget.h"
 3056              		.file 10 "count.h"
 3057              		.file 11 "userProjectPatternSewing.h"
 3058              		.file 12 "lib/fonts.h"
 3059              		.file 13 "lib/image.h"
 3060              		.file 14 "Generated_Source\\PSoC4/RTC.h"
 3061              		.file 15 "lib/externalFlash.h"
 3062              		.file 16 "lib/internalFlash.h"
 3063              		.file 17 "c:\\program files (x86)\\cypress\\psoc creator\\4.4\\psoc creator\\import\\gnu\\arm\\5.4
 3064              		.file 18 "Generated_Source\\PSoC4/CyLib.h"
 3065              		.file 19 "currentSensor.h"
 3066              		.file 20 "lib/manageMenu.h"
 3067              		.file 21 "andonMenu.h"