ARM GAS  C:\Users\luvsd\AppData\Local\Temp\cc5RCRYX.s 			page 1


   1              		.syntax unified
   2              		.cpu cortex-m0
   3              		.fpu softvfp
   4              		.eabi_attribute 20, 1
   5              		.eabi_attribute 21, 1
   6              		.eabi_attribute 23, 3
   7              		.eabi_attribute 24, 1
   8              		.eabi_attribute 25, 1
   9              		.eabi_attribute 26, 1
  10              		.eabi_attribute 30, 1
  11              		.eabi_attribute 34, 0
  12              		.eabi_attribute 18, 4
  13              		.thumb
  14              		.syntax unified
  15              		.file	"WarningLight.c"
  16              		.text
  17              	.Ltext0:
  18              		.cfi_sections	.debug_frame
  19              		.section	.text.initWarning,"ax",%progbits
  20              		.align	2
  21              		.global	initWarning
  22              		.code	16
  23              		.thumb_func
  24              		.type	initWarning, %function
  25              	initWarning:
  26              	.LFB62:
  27              		.file 1 "WarningLight.c"
   1:WarningLight.c **** 
   2:WarningLight.c **** #include "WarningLight.h"
   3:WarningLight.c **** #include "lib/sysTick.h"
   4:WarningLight.c **** 
   5:WarningLight.c **** static WARNING_LIGHT  g_warning = {  /* WarningLight.c 내부 전용 */
   6:WarningLight.c ****     .bRED = FALSE, 
   7:WarningLight.c ****     .uBlinkTimeRED = 0,
   8:WarningLight.c ****     
   9:WarningLight.c ****     .bGREEN = FALSE,
  10:WarningLight.c ****     .uBlinkTimeGREEN = 0,
  11:WarningLight.c ****     
  12:WarningLight.c ****     .bBUZZER = FALSE,
  13:WarningLight.c ****     .uBlinkTimeBUZZER = 0,
  14:WarningLight.c **** };
  15:WarningLight.c **** 
  16:WarningLight.c **** void initWarning()
  17:WarningLight.c **** {
  28              		.loc 1 17 0
  29              		.cfi_startproc
  30              		@ args = 0, pretend = 0, frame = 0
  31              		@ frame_needed = 0, uses_anonymous_args = 0
  32 0000 70B5     		push	{r4, r5, r6, lr}
  33              		.cfi_def_cfa_offset 16
  34              		.cfi_offset 4, -16
  35              		.cfi_offset 5, -12
  36              		.cfi_offset 6, -8
  37              		.cfi_offset 14, -4
  18:WarningLight.c ****    g_warning.index_RED    = registerCounter_1ms(500);
  38              		.loc 1 18 0
  39 0002 FA25     		movs	r5, #250
ARM GAS  C:\Users\luvsd\AppData\Local\Temp\cc5RCRYX.s 			page 2


  40 0004 6D00     		lsls	r5, r5, #1
  41 0006 2800     		movs	r0, r5
  42 0008 FFF7FEFF 		bl	registerCounter_1ms
  43              	.LVL0:
  44 000c 054C     		ldr	r4, .L2
  45 000e A081     		strh	r0, [r4, #12]
  19:WarningLight.c ****    g_warning.index_GREEN  = registerCounter_1ms(500);  
  46              		.loc 1 19 0
  47 0010 2800     		movs	r0, r5
  48 0012 FFF7FEFF 		bl	registerCounter_1ms
  49              	.LVL1:
  50 0016 E081     		strh	r0, [r4, #14]
  20:WarningLight.c **** #ifdef USE_BUZZER     
  21:WarningLight.c ****    g_warning.index_BUZZER = registerCounter_1ms(BUZZER_ON_OFF_TIME_INTERVAL); 
  51              		.loc 1 21 0
  52 0018 2800     		movs	r0, r5
  53 001a FFF7FEFF 		bl	registerCounter_1ms
  54              	.LVL2:
  55 001e 2082     		strh	r0, [r4, #16]
  22:WarningLight.c ****    g_warning.uBlinkTimeBUZZER = BUZZER_ON_OFF_TIME_INTERVAL;
  56              		.loc 1 22 0
  57 0020 6581     		strh	r5, [r4, #10]
  23:WarningLight.c **** #endif
  24:WarningLight.c **** }
  58              		.loc 1 24 0
  59              		@ sp needed
  60 0022 70BD     		pop	{r4, r5, r6, pc}
  61              	.L3:
  62              		.align	2
  63              	.L2:
  64 0024 00000000 		.word	.LANCHOR0
  65              		.cfi_endproc
  66              	.LFE62:
  67              		.size	initWarning, .-initWarning
  68              		.section	.text.WarningLightSet,"ax",%progbits
  69              		.align	2
  70              		.global	WarningLightSet
  71              		.code	16
  72              		.thumb_func
  73              		.type	WarningLightSet, %function
  74              	WarningLightSet:
  75              	.LFB63:
  25:WarningLight.c **** 
  26:WarningLight.c **** void WarningLightSet(int16 index, uint8 OnOff, uint16 blinkTimeInterval)
  27:WarningLight.c **** {
  76              		.loc 1 27 0
  77              		.cfi_startproc
  78              		@ args = 0, pretend = 0, frame = 0
  79              		@ frame_needed = 0, uses_anonymous_args = 0
  80              	.LVL3:
  81 0000 10B5     		push	{r4, lr}
  82              		.cfi_def_cfa_offset 8
  83              		.cfi_offset 4, -8
  84              		.cfi_offset 14, -4
  28:WarningLight.c ****     switch(index)
  85              		.loc 1 28 0
  86 0002 0128     		cmp	r0, #1
ARM GAS  C:\Users\luvsd\AppData\Local\Temp\cc5RCRYX.s 			page 3


  87 0004 02D0     		beq	.L6
  88 0006 0228     		cmp	r0, #2
  89 0008 08D0     		beq	.L7
  90 000a 0EE0     		b	.L5
  91              	.L6:
  29:WarningLight.c ****     {
  30:WarningLight.c ****         case 1: 
  31:WarningLight.c ****            g_warning.bRED = OnOff;
  92              		.loc 1 31 0
  93 000c 0A4B     		ldr	r3, .L8
  94 000e 1970     		strb	r1, [r3]
  32:WarningLight.c ****            g_warning.uBlinkTimeRED = blinkTimeInterval;
  95              		.loc 1 32 0
  96 0010 5A80     		strh	r2, [r3, #2]
  33:WarningLight.c ****            setCountMax_1ms(g_warning.index_RED, blinkTimeInterval);
  97              		.loc 1 33 0
  98 0012 9889     		ldrh	r0, [r3, #12]
  99              	.LVL4:
 100 0014 1100     		movs	r1, r2
 101              	.LVL5:
 102 0016 FFF7FEFF 		bl	setCountMax_1ms
 103              	.LVL6:
  34:WarningLight.c ****            break;
 104              		.loc 1 34 0
 105 001a 06E0     		b	.L5
 106              	.LVL7:
 107              	.L7:
  35:WarningLight.c ****         case 2:
  36:WarningLight.c ****            g_warning.bGREEN = OnOff;
 108              		.loc 1 36 0
 109 001c 064B     		ldr	r3, .L8
 110 001e 1971     		strb	r1, [r3, #4]
  37:WarningLight.c ****            g_warning.uBlinkTimeGREEN = blinkTimeInterval;        
 111              		.loc 1 37 0
 112 0020 DA80     		strh	r2, [r3, #6]
  38:WarningLight.c ****            setCountMax_1ms(g_warning.index_GREEN, blinkTimeInterval);        
 113              		.loc 1 38 0
 114 0022 D889     		ldrh	r0, [r3, #14]
 115              	.LVL8:
 116 0024 1100     		movs	r1, r2
 117              	.LVL9:
 118 0026 FFF7FEFF 		bl	setCountMax_1ms
 119              	.LVL10:
 120              	.L5:
  39:WarningLight.c ****            break;        
  40:WarningLight.c ****     }
  41:WarningLight.c ****     
  42:WarningLight.c **** #ifdef USE_BUZZER      
  43:WarningLight.c ****     g_warning.bBUZZER = g_warning.bRED | g_warning.bGREEN;
 121              		.loc 1 43 0
 122 002a 034B     		ldr	r3, .L8
 123 002c 1978     		ldrb	r1, [r3]
 124 002e 1A79     		ldrb	r2, [r3, #4]
 125 0030 0A43     		orrs	r2, r1
 126 0032 1A72     		strb	r2, [r3, #8]
  44:WarningLight.c ****    // g_warning.uBlinkTimeBUZZER = BUZZER_ON_OFF_TIME_INTERVAL;
  45:WarningLight.c ****    // setCountMax_1ms(g_warning.index_BUZZER, g_warning.uBlinkTimeBUZZER);
ARM GAS  C:\Users\luvsd\AppData\Local\Temp\cc5RCRYX.s 			page 4


  46:WarningLight.c **** #endif    
  47:WarningLight.c **** }
 127              		.loc 1 47 0
 128              		@ sp needed
 129 0034 10BD     		pop	{r4, pc}
 130              	.L9:
 131 0036 C046     		.align	2
 132              	.L8:
 133 0038 00000000 		.word	.LANCHOR0
 134              		.cfi_endproc
 135              	.LFE63:
 136              		.size	WarningLightSet, .-WarningLightSet
 137              		.section	.text.WarningLight,"ax",%progbits
 138              		.align	2
 139              		.global	WarningLight
 140              		.code	16
 141              		.thumb_func
 142              		.type	WarningLight, %function
 143              	WarningLight:
 144              	.LFB64:
  48:WarningLight.c **** 
  49:WarningLight.c **** void WarningLight()
  50:WarningLight.c **** {
 145              		.loc 1 50 0
 146              		.cfi_startproc
 147              		@ args = 0, pretend = 0, frame = 0
 148              		@ frame_needed = 0, uses_anonymous_args = 0
 149 0000 10B5     		push	{r4, lr}
 150              		.cfi_def_cfa_offset 8
 151              		.cfi_offset 4, -8
 152              		.cfi_offset 14, -4
  51:WarningLight.c ****     // For RED LIGHT
  52:WarningLight.c ****     if(g_warning.bRED)
 153              		.loc 1 52 0
 154 0002 304B     		ldr	r3, .L20
 155 0004 1B78     		ldrb	r3, [r3]
 156 0006 002B     		cmp	r3, #0
 157 0008 18D0     		beq	.L11
  53:WarningLight.c ****     {
  54:WarningLight.c ****        if(isFinishCounter_1ms(g_warning.index_RED))
 158              		.loc 1 54 0
 159 000a 2E4B     		ldr	r3, .L20
 160 000c 9889     		ldrh	r0, [r3, #12]
 161 000e FFF7FEFF 		bl	isFinishCounter_1ms
 162              	.LVL11:
 163 0012 0028     		cmp	r0, #0
 164 0014 15D0     		beq	.L12
  55:WarningLight.c ****        {
  56:WarningLight.c ****            resetCounter_1ms(g_warning.index_RED);
 165              		.loc 1 56 0
 166 0016 2B4C     		ldr	r4, .L20
 167 0018 A089     		ldrh	r0, [r4, #12]
 168 001a FFF7FEFF 		bl	resetCounter_1ms
 169              	.LVL12:
  57:WarningLight.c **** 
  58:WarningLight.c ****            if(g_warning.uBlinkTimeRED == 0) RESERVED_OUT_2_Write(TRUE);
 170              		.loc 1 58 0
ARM GAS  C:\Users\luvsd\AppData\Local\Temp\cc5RCRYX.s 			page 5


 171 001e 6388     		ldrh	r3, [r4, #2]
 172 0020 002B     		cmp	r3, #0
 173 0022 03D1     		bne	.L13
 174              		.loc 1 58 0 is_stmt 0 discriminator 1
 175 0024 0120     		movs	r0, #1
 176 0026 FFF7FEFF 		bl	RESERVED_OUT_2_Write
 177              	.LVL13:
 178 002a 0AE0     		b	.L12
 179              	.L13:
  59:WarningLight.c ****            else                             RESERVED_OUT_2_Write(!RESERVED_OUT_2_ReadDataReg());
 180              		.loc 1 59 0 is_stmt 1
 181 002c FFF7FEFF 		bl	RESERVED_OUT_2_ReadDataReg
 182              	.LVL14:
 183 0030 4342     		rsbs	r3, r0, #0
 184 0032 5841     		adcs	r0, r0, r3
 185 0034 C0B2     		uxtb	r0, r0
 186 0036 FFF7FEFF 		bl	RESERVED_OUT_2_Write
 187              	.LVL15:
 188 003a 02E0     		b	.L12
 189              	.L11:
  60:WarningLight.c ****        }
  61:WarningLight.c ****     } else {
  62:WarningLight.c ****         RESERVED_OUT_2_Write(FALSE);
 190              		.loc 1 62 0
 191 003c 0020     		movs	r0, #0
 192 003e FFF7FEFF 		bl	RESERVED_OUT_2_Write
 193              	.LVL16:
 194              	.L12:
  63:WarningLight.c ****     }
  64:WarningLight.c ****     
  65:WarningLight.c ****     // For GREEN LIGHT
  66:WarningLight.c ****     if(g_warning.bGREEN)
 195              		.loc 1 66 0
 196 0042 204B     		ldr	r3, .L20
 197 0044 1B79     		ldrb	r3, [r3, #4]
 198 0046 002B     		cmp	r3, #0
 199 0048 18D0     		beq	.L14
  67:WarningLight.c ****     {
  68:WarningLight.c ****        if(isFinishCounter_1ms(g_warning.index_GREEN))
 200              		.loc 1 68 0
 201 004a 1E4B     		ldr	r3, .L20
 202 004c D889     		ldrh	r0, [r3, #14]
 203 004e FFF7FEFF 		bl	isFinishCounter_1ms
 204              	.LVL17:
 205 0052 0028     		cmp	r0, #0
 206 0054 15D0     		beq	.L15
  69:WarningLight.c ****        {
  70:WarningLight.c ****            resetCounter_1ms(g_warning.index_GREEN);
 207              		.loc 1 70 0
 208 0056 1B4C     		ldr	r4, .L20
 209 0058 E089     		ldrh	r0, [r4, #14]
 210 005a FFF7FEFF 		bl	resetCounter_1ms
 211              	.LVL18:
  71:WarningLight.c ****            if(g_warning.uBlinkTimeGREEN == 0) RESERVED_OUT_1_Write(TRUE);
 212              		.loc 1 71 0
 213 005e E388     		ldrh	r3, [r4, #6]
 214 0060 002B     		cmp	r3, #0
ARM GAS  C:\Users\luvsd\AppData\Local\Temp\cc5RCRYX.s 			page 6


 215 0062 03D1     		bne	.L16
 216              		.loc 1 71 0 is_stmt 0 discriminator 1
 217 0064 0120     		movs	r0, #1
 218 0066 FFF7FEFF 		bl	RESERVED_OUT_1_Write
 219              	.LVL19:
 220 006a 0AE0     		b	.L15
 221              	.L16:
  72:WarningLight.c ****            else                               RESERVED_OUT_1_Write(!RESERVED_OUT_1_ReadDataReg()); 
 222              		.loc 1 72 0 is_stmt 1
 223 006c FFF7FEFF 		bl	RESERVED_OUT_1_ReadDataReg
 224              	.LVL20:
 225 0070 4342     		rsbs	r3, r0, #0
 226 0072 5841     		adcs	r0, r0, r3
 227 0074 C0B2     		uxtb	r0, r0
 228 0076 FFF7FEFF 		bl	RESERVED_OUT_1_Write
 229              	.LVL21:
 230 007a 02E0     		b	.L15
 231              	.L14:
  73:WarningLight.c ****        }
  74:WarningLight.c ****     } else {
  75:WarningLight.c ****         RESERVED_OUT_1_Write(FALSE);
 232              		.loc 1 75 0
 233 007c 0020     		movs	r0, #0
 234 007e FFF7FEFF 		bl	RESERVED_OUT_1_Write
 235              	.LVL22:
 236              	.L15:
  76:WarningLight.c ****     }
  77:WarningLight.c ****     
  78:WarningLight.c **** #ifdef USE_BUZZER    
  79:WarningLight.c ****     // For BUZZER   
  80:WarningLight.c ****     if(g_warning.bBUZZER)
 237              		.loc 1 80 0
 238 0082 104B     		ldr	r3, .L20
 239 0084 1B7A     		ldrb	r3, [r3, #8]
 240 0086 002B     		cmp	r3, #0
 241 0088 18D0     		beq	.L17
  81:WarningLight.c ****     {
  82:WarningLight.c ****        if(isFinishCounter_1ms(g_warning.index_BUZZER))
 242              		.loc 1 82 0
 243 008a 0E4B     		ldr	r3, .L20
 244 008c 188A     		ldrh	r0, [r3, #16]
 245 008e FFF7FEFF 		bl	isFinishCounter_1ms
 246              	.LVL23:
 247 0092 0028     		cmp	r0, #0
 248 0094 15D0     		beq	.L10
  83:WarningLight.c ****        {
  84:WarningLight.c ****            resetCounter_1ms(g_warning.index_BUZZER);
 249              		.loc 1 84 0
 250 0096 0B4C     		ldr	r4, .L20
 251 0098 208A     		ldrh	r0, [r4, #16]
 252 009a FFF7FEFF 		bl	resetCounter_1ms
 253              	.LVL24:
  85:WarningLight.c ****            if(g_warning.uBlinkTimeBUZZER == 0) RESERVED_OUT_3_Write(TRUE);
 254              		.loc 1 85 0
 255 009e 6389     		ldrh	r3, [r4, #10]
 256 00a0 002B     		cmp	r3, #0
 257 00a2 03D1     		bne	.L19
ARM GAS  C:\Users\luvsd\AppData\Local\Temp\cc5RCRYX.s 			page 7


 258              		.loc 1 85 0 is_stmt 0 discriminator 1
 259 00a4 0120     		movs	r0, #1
 260 00a6 FFF7FEFF 		bl	RESERVED_OUT_3_Write
 261              	.LVL25:
 262 00aa 0AE0     		b	.L10
 263              	.L19:
  86:WarningLight.c ****            else                                RESERVED_OUT_3_Write(!RESERVED_OUT_3_ReadDataReg());
 264              		.loc 1 86 0 is_stmt 1
 265 00ac FFF7FEFF 		bl	RESERVED_OUT_3_ReadDataReg
 266              	.LVL26:
 267 00b0 4342     		rsbs	r3, r0, #0
 268 00b2 5841     		adcs	r0, r0, r3
 269 00b4 C0B2     		uxtb	r0, r0
 270 00b6 FFF7FEFF 		bl	RESERVED_OUT_3_Write
 271              	.LVL27:
 272 00ba 02E0     		b	.L10
 273              	.L17:
  87:WarningLight.c ****        }
  88:WarningLight.c ****     } else {
  89:WarningLight.c ****         RESERVED_OUT_3_Write(FALSE);
 274              		.loc 1 89 0
 275 00bc 0020     		movs	r0, #0
 276 00be FFF7FEFF 		bl	RESERVED_OUT_3_Write
 277              	.LVL28:
 278              	.L10:
  90:WarningLight.c ****     }
  91:WarningLight.c **** #endif    
  92:WarningLight.c **** }
 279              		.loc 1 92 0
 280              		@ sp needed
 281 00c2 10BD     		pop	{r4, pc}
 282              	.L21:
 283              		.align	2
 284              	.L20:
 285 00c4 00000000 		.word	.LANCHOR0
 286              		.cfi_endproc
 287              	.LFE64:
 288              		.size	WarningLight, .-WarningLight
 289              		.comm	Param,6,4
 290              		.bss
 291              		.align	2
 292              		.set	.LANCHOR0,. + 0
 293              		.type	g_warning, %object
 294              		.size	g_warning, 18
 295              	g_warning:
 296 0000 00000000 		.space	18
 296      00000000 
 296      00000000 
 296      00000000 
 296      0000
 297              		.text
 298              	.Letext0:
 299              		.file 2 "c:\\program files (x86)\\cypress\\psoc creator\\4.4\\psoc creator\\import\\gnu\\arm\\5.4.
 300              		.file 3 "c:\\program files (x86)\\cypress\\psoc creator\\4.4\\psoc creator\\import\\gnu\\arm\\5.4.
 301              		.file 4 "Generated_Source\\PSoC4/cytypes.h"
 302              		.file 5 "main.h"
 303              		.file 6 "WarningLight.h"
ARM GAS  C:\Users\luvsd\AppData\Local\Temp\cc5RCRYX.s 			page 8


 304              		.file 7 "Generated_Source\\PSoC4/RTC.h"
 305              		.file 8 "lib/sysTick.h"
 306              		.file 9 "Generated_Source\\PSoC4/RESERVED_OUT_2.h"
 307              		.file 10 "Generated_Source\\PSoC4/RESERVED_OUT_1.h"
 308              		.file 11 "Generated_Source\\PSoC4/RESERVED_OUT_3.h"