ARM GAS  C:\Users\luvsd\AppData\Local\Temp\cc9ItDM1.s 			page 1


   1              		.syntax unified
   2              		.cpu cortex-m0
   3              		.fpu softvfp
   4              		.eabi_attribute 20, 1
   5              		.eabi_attribute 21, 1
   6              		.eabi_attribute 23, 3
   7              		.eabi_attribute 24, 1
   8              		.eabi_attribute 25, 1
   9              		.eabi_attribute 26, 1
  10              		.eabi_attribute 30, 1
  11              		.eabi_attribute 34, 0
  12              		.eabi_attribute 18, 4
  13              		.thumb
  14              		.syntax unified
  15              		.file	"cyfitter_cfg.c"
  16              		.text
  17              	.Ltext0:
  18              		.cfi_sections	.debug_frame
  19              		.section	.text.cfg_write_bytes32,"ax",%progbits
  20              		.align	2
  21              		.code	16
  22              		.thumb_func
  23              		.type	cfg_write_bytes32, %function
  24              	cfg_write_bytes32:
  25              	.LFB4:
  26              		.file 1 "Generated_Source\\PSoC4\\cyfitter_cfg.c"
   1:Generated_Source\PSoC4/cyfitter_cfg.c **** 
   2:Generated_Source\PSoC4/cyfitter_cfg.c **** /*******************************************************************************
   3:Generated_Source\PSoC4/cyfitter_cfg.c **** * File Name: cyfitter_cfg.c
   4:Generated_Source\PSoC4/cyfitter_cfg.c **** * 
   5:Generated_Source\PSoC4/cyfitter_cfg.c **** * PSoC Creator  4.4
   6:Generated_Source\PSoC4/cyfitter_cfg.c **** *
   7:Generated_Source\PSoC4/cyfitter_cfg.c **** * Description:
   8:Generated_Source\PSoC4/cyfitter_cfg.c **** * This file contains device initialization code.
   9:Generated_Source\PSoC4/cyfitter_cfg.c **** * Except for the user defined sections in CyClockStartupError(), this file should not be modified.
  10:Generated_Source\PSoC4/cyfitter_cfg.c **** * This file is automatically generated by PSoC Creator.
  11:Generated_Source\PSoC4/cyfitter_cfg.c **** *
  12:Generated_Source\PSoC4/cyfitter_cfg.c **** ********************************************************************************
  13:Generated_Source\PSoC4/cyfitter_cfg.c **** * Copyright (c) 2007-2020 Cypress Semiconductor.  All rights reserved.
  14:Generated_Source\PSoC4/cyfitter_cfg.c **** * You may use this file only in accordance with the license, terms, conditions, 
  15:Generated_Source\PSoC4/cyfitter_cfg.c **** * disclaimers, and limitations in the end user license agreement accompanying 
  16:Generated_Source\PSoC4/cyfitter_cfg.c **** * the software package with which this file was provided.
  17:Generated_Source\PSoC4/cyfitter_cfg.c **** ********************************************************************************/
  18:Generated_Source\PSoC4/cyfitter_cfg.c **** 
  19:Generated_Source\PSoC4/cyfitter_cfg.c **** #include <string.h>
  20:Generated_Source\PSoC4/cyfitter_cfg.c **** #include "cytypes.h"
  21:Generated_Source\PSoC4/cyfitter_cfg.c **** #include "cydevice_trm.h"
  22:Generated_Source\PSoC4/cyfitter_cfg.c **** #include "cyfitter.h"
  23:Generated_Source\PSoC4/cyfitter_cfg.c **** #include "CyLib.h"
  24:Generated_Source\PSoC4/cyfitter_cfg.c **** #include "CyLFClk.h"
  25:Generated_Source\PSoC4/cyfitter_cfg.c **** #include "cyfitter_cfg.h"
  26:Generated_Source\PSoC4/cyfitter_cfg.c **** #include "cyapicallbacks.h"
  27:Generated_Source\PSoC4/cyfitter_cfg.c **** 
  28:Generated_Source\PSoC4/cyfitter_cfg.c **** 
  29:Generated_Source\PSoC4/cyfitter_cfg.c **** #if defined(__GNUC__) || defined(__ARMCC_VERSION)
  30:Generated_Source\PSoC4/cyfitter_cfg.c ****     #define CYPACKED 
  31:Generated_Source\PSoC4/cyfitter_cfg.c ****     #define CYPACKED_ATTR __attribute__ ((packed))
ARM GAS  C:\Users\luvsd\AppData\Local\Temp\cc9ItDM1.s 			page 2


  32:Generated_Source\PSoC4/cyfitter_cfg.c ****     #define CYALIGNED __attribute__ ((aligned))
  33:Generated_Source\PSoC4/cyfitter_cfg.c ****     #define CY_CFG_UNUSED __attribute__ ((unused))
  34:Generated_Source\PSoC4/cyfitter_cfg.c ****     #ifndef CY_CFG_SECTION
  35:Generated_Source\PSoC4/cyfitter_cfg.c ****         #define CY_CFG_SECTION __attribute__ ((section(".psocinit")))
  36:Generated_Source\PSoC4/cyfitter_cfg.c ****     #endif
  37:Generated_Source\PSoC4/cyfitter_cfg.c ****     
  38:Generated_Source\PSoC4/cyfitter_cfg.c ****     #if defined(__ARMCC_VERSION)
  39:Generated_Source\PSoC4/cyfitter_cfg.c ****         #define CY_CFG_MEMORY_BARRIER() __memory_changed()
  40:Generated_Source\PSoC4/cyfitter_cfg.c ****     #else
  41:Generated_Source\PSoC4/cyfitter_cfg.c ****         #define CY_CFG_MEMORY_BARRIER() __sync_synchronize()
  42:Generated_Source\PSoC4/cyfitter_cfg.c ****     #endif
  43:Generated_Source\PSoC4/cyfitter_cfg.c ****     
  44:Generated_Source\PSoC4/cyfitter_cfg.c **** #elif defined(__ICCARM__)
  45:Generated_Source\PSoC4/cyfitter_cfg.c ****     #include <intrinsics.h>
  46:Generated_Source\PSoC4/cyfitter_cfg.c **** 
  47:Generated_Source\PSoC4/cyfitter_cfg.c ****     #define CYPACKED __packed
  48:Generated_Source\PSoC4/cyfitter_cfg.c ****     #define CYPACKED_ATTR 
  49:Generated_Source\PSoC4/cyfitter_cfg.c ****     #define CYALIGNED _Pragma("data_alignment=4")
  50:Generated_Source\PSoC4/cyfitter_cfg.c ****     #define CY_CFG_UNUSED _Pragma("diag_suppress=Pe177")
  51:Generated_Source\PSoC4/cyfitter_cfg.c ****     #define CY_CFG_SECTION _Pragma("location=\".psocinit\"")
  52:Generated_Source\PSoC4/cyfitter_cfg.c ****     
  53:Generated_Source\PSoC4/cyfitter_cfg.c ****     #define CY_CFG_MEMORY_BARRIER() __DMB()
  54:Generated_Source\PSoC4/cyfitter_cfg.c ****     
  55:Generated_Source\PSoC4/cyfitter_cfg.c **** #else
  56:Generated_Source\PSoC4/cyfitter_cfg.c ****     #error Unsupported toolchain
  57:Generated_Source\PSoC4/cyfitter_cfg.c **** #endif
  58:Generated_Source\PSoC4/cyfitter_cfg.c **** 
  59:Generated_Source\PSoC4/cyfitter_cfg.c **** #ifndef CYCODE
  60:Generated_Source\PSoC4/cyfitter_cfg.c ****     #define CYCODE
  61:Generated_Source\PSoC4/cyfitter_cfg.c **** #endif
  62:Generated_Source\PSoC4/cyfitter_cfg.c **** #ifndef CYDATA
  63:Generated_Source\PSoC4/cyfitter_cfg.c ****     #define CYDATA
  64:Generated_Source\PSoC4/cyfitter_cfg.c **** #endif
  65:Generated_Source\PSoC4/cyfitter_cfg.c **** #ifndef CYFAR
  66:Generated_Source\PSoC4/cyfitter_cfg.c ****     #define CYFAR
  67:Generated_Source\PSoC4/cyfitter_cfg.c **** #endif
  68:Generated_Source\PSoC4/cyfitter_cfg.c **** #ifndef CYXDATA
  69:Generated_Source\PSoC4/cyfitter_cfg.c ****     #define CYXDATA
  70:Generated_Source\PSoC4/cyfitter_cfg.c **** #endif
  71:Generated_Source\PSoC4/cyfitter_cfg.c **** 
  72:Generated_Source\PSoC4/cyfitter_cfg.c **** 
  73:Generated_Source\PSoC4/cyfitter_cfg.c **** CY_CFG_UNUSED
  74:Generated_Source\PSoC4/cyfitter_cfg.c **** static void CYMEMZERO(void *s, size_t n);
  75:Generated_Source\PSoC4/cyfitter_cfg.c **** CY_CFG_UNUSED
  76:Generated_Source\PSoC4/cyfitter_cfg.c **** static void CYMEMZERO(void *s, size_t n)
  77:Generated_Source\PSoC4/cyfitter_cfg.c **** {
  78:Generated_Source\PSoC4/cyfitter_cfg.c **** 	(void)memset(s, 0, n);
  79:Generated_Source\PSoC4/cyfitter_cfg.c **** }
  80:Generated_Source\PSoC4/cyfitter_cfg.c **** CY_CFG_UNUSED
  81:Generated_Source\PSoC4/cyfitter_cfg.c **** static void CYCONFIGCPY(void *dest, const void *src, size_t n);
  82:Generated_Source\PSoC4/cyfitter_cfg.c **** CY_CFG_UNUSED
  83:Generated_Source\PSoC4/cyfitter_cfg.c **** static void CYCONFIGCPY(void *dest, const void *src, size_t n)
  84:Generated_Source\PSoC4/cyfitter_cfg.c **** {
  85:Generated_Source\PSoC4/cyfitter_cfg.c **** 	(void)memcpy(dest, src, n);
  86:Generated_Source\PSoC4/cyfitter_cfg.c **** }
  87:Generated_Source\PSoC4/cyfitter_cfg.c **** CY_CFG_UNUSED
  88:Generated_Source\PSoC4/cyfitter_cfg.c **** static void CYCONFIGCPYCODE(void *dest, const void *src, size_t n);
ARM GAS  C:\Users\luvsd\AppData\Local\Temp\cc9ItDM1.s 			page 3


  89:Generated_Source\PSoC4/cyfitter_cfg.c **** CY_CFG_UNUSED
  90:Generated_Source\PSoC4/cyfitter_cfg.c **** static void CYCONFIGCPYCODE(void *dest, const void *src, size_t n)
  91:Generated_Source\PSoC4/cyfitter_cfg.c **** {
  92:Generated_Source\PSoC4/cyfitter_cfg.c **** 	(void)memcpy(dest, src, n);
  93:Generated_Source\PSoC4/cyfitter_cfg.c **** }
  94:Generated_Source\PSoC4/cyfitter_cfg.c **** 
  95:Generated_Source\PSoC4/cyfitter_cfg.c **** 
  96:Generated_Source\PSoC4/cyfitter_cfg.c **** 
  97:Generated_Source\PSoC4/cyfitter_cfg.c **** 
  98:Generated_Source\PSoC4/cyfitter_cfg.c **** /* Clock startup error codes                                                   */
  99:Generated_Source\PSoC4/cyfitter_cfg.c **** #define CYCLOCKSTART_NO_ERROR    0u
 100:Generated_Source\PSoC4/cyfitter_cfg.c **** #define CYCLOCKSTART_XTAL_ERROR  1u
 101:Generated_Source\PSoC4/cyfitter_cfg.c **** #define CYCLOCKSTART_32KHZ_ERROR 2u
 102:Generated_Source\PSoC4/cyfitter_cfg.c **** #define CYCLOCKSTART_PLL_ERROR   3u
 103:Generated_Source\PSoC4/cyfitter_cfg.c **** #define CYCLOCKSTART_FLL_ERROR   4u
 104:Generated_Source\PSoC4/cyfitter_cfg.c **** #define CYCLOCKSTART_WCO_ERROR   5u
 105:Generated_Source\PSoC4/cyfitter_cfg.c **** 
 106:Generated_Source\PSoC4/cyfitter_cfg.c **** 
 107:Generated_Source\PSoC4/cyfitter_cfg.c **** #ifdef CY_NEED_CYCLOCKSTARTUPERROR
 108:Generated_Source\PSoC4/cyfitter_cfg.c **** /*******************************************************************************
 109:Generated_Source\PSoC4/cyfitter_cfg.c **** * Function Name: CyClockStartupError
 110:Generated_Source\PSoC4/cyfitter_cfg.c **** ********************************************************************************
 111:Generated_Source\PSoC4/cyfitter_cfg.c **** * Summary:
 112:Generated_Source\PSoC4/cyfitter_cfg.c **** *  If an error is encountered during clock configuration (crystal startup error,
 113:Generated_Source\PSoC4/cyfitter_cfg.c **** *  PLL lock error, etc.), the system will end up here.  Unless reimplemented by
 114:Generated_Source\PSoC4/cyfitter_cfg.c **** *  the customer, this function will stop in an infinite loop.
 115:Generated_Source\PSoC4/cyfitter_cfg.c **** *
 116:Generated_Source\PSoC4/cyfitter_cfg.c **** * Parameters:
 117:Generated_Source\PSoC4/cyfitter_cfg.c **** *   void
 118:Generated_Source\PSoC4/cyfitter_cfg.c **** *
 119:Generated_Source\PSoC4/cyfitter_cfg.c **** * Return:
 120:Generated_Source\PSoC4/cyfitter_cfg.c **** *   void
 121:Generated_Source\PSoC4/cyfitter_cfg.c **** *
 122:Generated_Source\PSoC4/cyfitter_cfg.c **** *******************************************************************************/
 123:Generated_Source\PSoC4/cyfitter_cfg.c **** CY_CFG_UNUSED
 124:Generated_Source\PSoC4/cyfitter_cfg.c **** static void CyClockStartupError(uint8 errorCode);
 125:Generated_Source\PSoC4/cyfitter_cfg.c **** CY_CFG_UNUSED
 126:Generated_Source\PSoC4/cyfitter_cfg.c **** static void CyClockStartupError(uint8 errorCode)
 127:Generated_Source\PSoC4/cyfitter_cfg.c **** {
 128:Generated_Source\PSoC4/cyfitter_cfg.c ****     /* To remove the compiler warning if errorCode not used.                */
 129:Generated_Source\PSoC4/cyfitter_cfg.c ****     errorCode = errorCode;
 130:Generated_Source\PSoC4/cyfitter_cfg.c **** 
 131:Generated_Source\PSoC4/cyfitter_cfg.c ****     /* If we have a clock startup error (bad MHz crystal, PLL lock, etc.),  */
 132:Generated_Source\PSoC4/cyfitter_cfg.c ****     /* we will end up here to allow the customer to implement something to  */
 133:Generated_Source\PSoC4/cyfitter_cfg.c ****     /* deal with the clock condition.                                       */
 134:Generated_Source\PSoC4/cyfitter_cfg.c **** 
 135:Generated_Source\PSoC4/cyfitter_cfg.c **** #ifdef CY_CFG_CLOCK_STARTUP_ERROR_CALLBACK
 136:Generated_Source\PSoC4/cyfitter_cfg.c ****     CY_CFG_Clock_Startup_ErrorCallback();
 137:Generated_Source\PSoC4/cyfitter_cfg.c **** #else
 138:Generated_Source\PSoC4/cyfitter_cfg.c ****     /*  If not using CY_CFG_CLOCK_STARTUP_ERROR_CALLBACK, place your clock startup code here. */
 139:Generated_Source\PSoC4/cyfitter_cfg.c ****     /* `#START CyClockStartupError` */
 140:Generated_Source\PSoC4/cyfitter_cfg.c **** 
 141:Generated_Source\PSoC4/cyfitter_cfg.c **** 
 142:Generated_Source\PSoC4/cyfitter_cfg.c **** 
 143:Generated_Source\PSoC4/cyfitter_cfg.c ****     /* `#END` */
 144:Generated_Source\PSoC4/cyfitter_cfg.c **** 
 145:Generated_Source\PSoC4/cyfitter_cfg.c ****     while(1) {}
ARM GAS  C:\Users\luvsd\AppData\Local\Temp\cc9ItDM1.s 			page 4


 146:Generated_Source\PSoC4/cyfitter_cfg.c **** #endif /* CY_CFG_CLOCK_STARTUP_ERROR_CALLBACK */
 147:Generated_Source\PSoC4/cyfitter_cfg.c **** }
 148:Generated_Source\PSoC4/cyfitter_cfg.c **** #endif
 149:Generated_Source\PSoC4/cyfitter_cfg.c **** 
 150:Generated_Source\PSoC4/cyfitter_cfg.c **** #define CY_CFG_BASE_ADDR_COUNT 18u
 151:Generated_Source\PSoC4/cyfitter_cfg.c **** CYPACKED typedef struct
 152:Generated_Source\PSoC4/cyfitter_cfg.c **** {
 153:Generated_Source\PSoC4/cyfitter_cfg.c **** 	uint8 offset;
 154:Generated_Source\PSoC4/cyfitter_cfg.c **** 	uint8 value;
 155:Generated_Source\PSoC4/cyfitter_cfg.c **** } CYPACKED_ATTR cy_cfg_addrvalue_t;
 156:Generated_Source\PSoC4/cyfitter_cfg.c **** 
 157:Generated_Source\PSoC4/cyfitter_cfg.c **** 
 158:Generated_Source\PSoC4/cyfitter_cfg.c **** 
 159:Generated_Source\PSoC4/cyfitter_cfg.c **** /*******************************************************************************
 160:Generated_Source\PSoC4/cyfitter_cfg.c **** * Function Name: cfg_write_bytes32
 161:Generated_Source\PSoC4/cyfitter_cfg.c **** ********************************************************************************
 162:Generated_Source\PSoC4/cyfitter_cfg.c **** * Summary:
 163:Generated_Source\PSoC4/cyfitter_cfg.c **** *  This function is used for setting up the chip configuration areas that
 164:Generated_Source\PSoC4/cyfitter_cfg.c **** *  contain relatively sparse data.
 165:Generated_Source\PSoC4/cyfitter_cfg.c **** *
 166:Generated_Source\PSoC4/cyfitter_cfg.c **** * Parameters:
 167:Generated_Source\PSoC4/cyfitter_cfg.c **** *   void
 168:Generated_Source\PSoC4/cyfitter_cfg.c **** *
 169:Generated_Source\PSoC4/cyfitter_cfg.c **** * Return:
 170:Generated_Source\PSoC4/cyfitter_cfg.c **** *   void
 171:Generated_Source\PSoC4/cyfitter_cfg.c **** *
 172:Generated_Source\PSoC4/cyfitter_cfg.c **** *******************************************************************************/
 173:Generated_Source\PSoC4/cyfitter_cfg.c **** static void cfg_write_bytes32(const uint32 addr_table[], const cy_cfg_addrvalue_t data_table[]);
 174:Generated_Source\PSoC4/cyfitter_cfg.c **** static void cfg_write_bytes32(const uint32 addr_table[], const cy_cfg_addrvalue_t data_table[])
 175:Generated_Source\PSoC4/cyfitter_cfg.c **** {
  27              		.loc 1 175 0
  28              		.cfi_startproc
  29              		@ args = 0, pretend = 0, frame = 0
  30              		@ frame_needed = 0, uses_anonymous_args = 0
  31              	.LVL0:
  32 0000 F0B5     		push	{r4, r5, r6, r7, lr}
  33              		.cfi_def_cfa_offset 20
  34              		.cfi_offset 4, -20
  35              		.cfi_offset 5, -16
  36              		.cfi_offset 6, -12
  37              		.cfi_offset 7, -8
  38              		.cfi_offset 14, -4
  39              	.LVL1:
 176:Generated_Source\PSoC4/cyfitter_cfg.c **** 	/* For 32-bit little-endian architectures */
 177:Generated_Source\PSoC4/cyfitter_cfg.c **** 	uint32 i, j = 0u;
  40              		.loc 1 177 0
  41 0002 0025     		movs	r5, #0
 178:Generated_Source\PSoC4/cyfitter_cfg.c **** 	for (i = 0u; i < CY_CFG_BASE_ADDR_COUNT; i++)
  42              		.loc 1 178 0
  43 0004 0027     		movs	r7, #0
  44 0006 11E0     		b	.L2
  45              	.LVL2:
  46              	.L5:
  47              	.LBB2:
 179:Generated_Source\PSoC4/cyfitter_cfg.c **** 	{
 180:Generated_Source\PSoC4/cyfitter_cfg.c **** 		uint32 baseAddr = addr_table[i];
  48              		.loc 1 180 0
ARM GAS  C:\Users\luvsd\AppData\Local\Temp\cc9ItDM1.s 			page 5


  49 0008 BB00     		lsls	r3, r7, #2
  50 000a C658     		ldr	r6, [r0, r3]
  51              	.LVL3:
 181:Generated_Source\PSoC4/cyfitter_cfg.c **** 		uint8 count = (uint8)baseAddr;
  52              		.loc 1 181 0
  53 000c F3B2     		uxtb	r3, r6
  54              	.LVL4:
 182:Generated_Source\PSoC4/cyfitter_cfg.c **** 		baseAddr &= 0xFFFFFF00u;
  55              		.loc 1 182 0
  56 000e FF22     		movs	r2, #255
  57 0010 9643     		bics	r6, r2
  58              	.LVL5:
 183:Generated_Source\PSoC4/cyfitter_cfg.c **** 		while (count != 0u)
  59              		.loc 1 183 0
  60 0012 08E0     		b	.L3
  61              	.L4:
 184:Generated_Source\PSoC4/cyfitter_cfg.c **** 		{
 185:Generated_Source\PSoC4/cyfitter_cfg.c **** 			CY_SET_REG8((void *)(baseAddr + data_table[j].offset), data_table[j].value);
  62              		.loc 1 185 0
  63 0014 6A00     		lsls	r2, r5, #1
  64 0016 8A18     		adds	r2, r1, r2
  65 0018 1478     		ldrb	r4, [r2]
  66 001a A419     		adds	r4, r4, r6
  67 001c 5278     		ldrb	r2, [r2, #1]
  68 001e 2270     		strb	r2, [r4]
 186:Generated_Source\PSoC4/cyfitter_cfg.c **** 			j++;
  69              		.loc 1 186 0
  70 0020 0135     		adds	r5, r5, #1
  71              	.LVL6:
 187:Generated_Source\PSoC4/cyfitter_cfg.c **** 			count--;
  72              		.loc 1 187 0
  73 0022 013B     		subs	r3, r3, #1
  74              	.LVL7:
  75 0024 DBB2     		uxtb	r3, r3
  76              	.LVL8:
  77              	.L3:
 183:Generated_Source\PSoC4/cyfitter_cfg.c **** 		{
  78              		.loc 1 183 0
  79 0026 002B     		cmp	r3, #0
  80 0028 F4D1     		bne	.L4
  81              	.LBE2:
 178:Generated_Source\PSoC4/cyfitter_cfg.c **** 	{
  82              		.loc 1 178 0 discriminator 2
  83 002a 0137     		adds	r7, r7, #1
  84              	.LVL9:
  85              	.L2:
 178:Generated_Source\PSoC4/cyfitter_cfg.c **** 	{
  86              		.loc 1 178 0 is_stmt 0 discriminator 1
  87 002c 112F     		cmp	r7, #17
  88 002e EBD9     		bls	.L5
 188:Generated_Source\PSoC4/cyfitter_cfg.c **** 		}
 189:Generated_Source\PSoC4/cyfitter_cfg.c **** 	}
 190:Generated_Source\PSoC4/cyfitter_cfg.c **** }
  89              		.loc 1 190 0 is_stmt 1
  90              		@ sp needed
  91              	.LVL10:
  92              	.LVL11:
ARM GAS  C:\Users\luvsd\AppData\Local\Temp\cc9ItDM1.s 			page 6


  93 0030 F0BD     		pop	{r4, r5, r6, r7, pc}
  94              		.cfi_endproc
  95              	.LFE4:
  96              		.size	cfg_write_bytes32, .-cfg_write_bytes32
  97 0032 C046     		.section	.text.AnalogSetDefault,"ax",%progbits
  98              		.align	2
  99              		.code	16
 100              		.thumb_func
 101              		.type	AnalogSetDefault, %function
 102              	AnalogSetDefault:
 103              	.LFB6:
 191:Generated_Source\PSoC4/cyfitter_cfg.c **** 
 192:Generated_Source\PSoC4/cyfitter_cfg.c **** 
 193:Generated_Source\PSoC4/cyfitter_cfg.c **** /*******************************************************************************
 194:Generated_Source\PSoC4/cyfitter_cfg.c **** * Function Name: ClockSetup
 195:Generated_Source\PSoC4/cyfitter_cfg.c **** ********************************************************************************
 196:Generated_Source\PSoC4/cyfitter_cfg.c **** *
 197:Generated_Source\PSoC4/cyfitter_cfg.c **** * Summary:
 198:Generated_Source\PSoC4/cyfitter_cfg.c **** *   Performs the initialization of all of the clocks in the device based on the
 199:Generated_Source\PSoC4/cyfitter_cfg.c **** *   settings in the Clock tab of the DWR.  This includes enabling the requested
 200:Generated_Source\PSoC4/cyfitter_cfg.c **** *   clocks and setting the necessary dividers to produce the desired frequency. 
 201:Generated_Source\PSoC4/cyfitter_cfg.c **** *
 202:Generated_Source\PSoC4/cyfitter_cfg.c **** * Parameters:
 203:Generated_Source\PSoC4/cyfitter_cfg.c **** *   void
 204:Generated_Source\PSoC4/cyfitter_cfg.c **** *
 205:Generated_Source\PSoC4/cyfitter_cfg.c **** * Return:
 206:Generated_Source\PSoC4/cyfitter_cfg.c **** *   void
 207:Generated_Source\PSoC4/cyfitter_cfg.c **** *
 208:Generated_Source\PSoC4/cyfitter_cfg.c **** *******************************************************************************/
 209:Generated_Source\PSoC4/cyfitter_cfg.c **** static void ClockSetup(void);
 210:Generated_Source\PSoC4/cyfitter_cfg.c **** CY_CFG_SECTION
 211:Generated_Source\PSoC4/cyfitter_cfg.c **** static void ClockSetup(void)
 212:Generated_Source\PSoC4/cyfitter_cfg.c **** {
 213:Generated_Source\PSoC4/cyfitter_cfg.c **** 
 214:Generated_Source\PSoC4/cyfitter_cfg.c **** 	/* Set Flash Cycles based on max possible frequency in case a glitch occurs during ClockSetup(). *
 215:Generated_Source\PSoC4/cyfitter_cfg.c **** 	CY_SET_REG32((void CYXDATA *)(CYREG_CPUSS_FLASH_CTL), (0x0012u));
 216:Generated_Source\PSoC4/cyfitter_cfg.c **** 
 217:Generated_Source\PSoC4/cyfitter_cfg.c **** 	/* Start the WCO */
 218:Generated_Source\PSoC4/cyfitter_cfg.c **** 	CySysClkWcoStart();
 219:Generated_Source\PSoC4/cyfitter_cfg.c **** 	CyDelayCycles(12000000u); /* WCO may take up to 500ms to start */
 220:Generated_Source\PSoC4/cyfitter_cfg.c **** 
 221:Generated_Source\PSoC4/cyfitter_cfg.c **** 	/* Setup and trim IMO based on desired frequency. */
 222:Generated_Source\PSoC4/cyfitter_cfg.c **** 	CySysClkWriteImoFreq(48u);
 223:Generated_Source\PSoC4/cyfitter_cfg.c **** 	CySysClkImoEnableWcoLock();
 224:Generated_Source\PSoC4/cyfitter_cfg.c **** 	/* CYDEV_CLK_ILO_CONFIG Starting address: CYDEV_CLK_ILO_CONFIG */
 225:Generated_Source\PSoC4/cyfitter_cfg.c **** 	CY_SET_REG32((void *)(CYREG_CLK_ILO_CONFIG), 0x80000006u);
 226:Generated_Source\PSoC4/cyfitter_cfg.c **** 
 227:Generated_Source\PSoC4/cyfitter_cfg.c **** 	/* CYDEV_WDT_CONFIG Starting address: CYDEV_WDT_CONFIG */
 228:Generated_Source\PSoC4/cyfitter_cfg.c **** 	CY_SET_REG32((void *)(CYREG_WDT_CONFIG), 0x40000000u);
 229:Generated_Source\PSoC4/cyfitter_cfg.c **** 
 230:Generated_Source\PSoC4/cyfitter_cfg.c **** 
 231:Generated_Source\PSoC4/cyfitter_cfg.c **** 	/* Setup phase aligned clocks */
 232:Generated_Source\PSoC4/cyfitter_cfg.c **** 	CY_SET_REG32((void *)CYREG_PERI_DIV_16_CTL1, 0x00000500u);
 233:Generated_Source\PSoC4/cyfitter_cfg.c **** 	CY_SET_REG32((void *)CYREG_PERI_DIV_CMD, 0x8000FF41u);
 234:Generated_Source\PSoC4/cyfitter_cfg.c **** 	CY_SET_REG32((void *)CYREG_PERI_DIV_24_5_CTL, 0x249EFF00u);
 235:Generated_Source\PSoC4/cyfitter_cfg.c **** 	CY_SET_REG32((void *)CYREG_PERI_DIV_CMD, 0x8000FFC0u);
 236:Generated_Source\PSoC4/cyfitter_cfg.c **** 	CY_SET_REG32((void *)CYREG_PERI_DIV_16_CTL0, 0x00000200u);
ARM GAS  C:\Users\luvsd\AppData\Local\Temp\cc9ItDM1.s 			page 7


 237:Generated_Source\PSoC4/cyfitter_cfg.c **** 	CY_SET_REG32((void *)CYREG_PERI_DIV_CMD, 0x8000FF40u);
 238:Generated_Source\PSoC4/cyfitter_cfg.c **** 	CY_SET_REG32((void *)CYREG_PERI_DIV_16_CTL5, 0x0001DF00u);
 239:Generated_Source\PSoC4/cyfitter_cfg.c **** 	CY_SET_REG32((void *)CYREG_PERI_DIV_CMD, 0x8000FF45u);
 240:Generated_Source\PSoC4/cyfitter_cfg.c **** 	CY_SET_REG32((void *)CYREG_PERI_DIV_16_CTL3, 0x00001F00u);
 241:Generated_Source\PSoC4/cyfitter_cfg.c **** 	CY_SET_REG32((void *)CYREG_PERI_DIV_CMD, 0x8000FF43u);
 242:Generated_Source\PSoC4/cyfitter_cfg.c **** 	CY_SET_REG32((void *)CYREG_PERI_DIV_16_CTL4, 0x00002200u);
 243:Generated_Source\PSoC4/cyfitter_cfg.c **** 	CY_SET_REG32((void *)CYREG_PERI_DIV_CMD, 0x8000FF44u);
 244:Generated_Source\PSoC4/cyfitter_cfg.c **** 	CY_SET_REG32((void *)CYREG_PERI_DIV_16_CTL2, 0x00001D00u);
 245:Generated_Source\PSoC4/cyfitter_cfg.c **** 	CY_SET_REG32((void *)CYREG_PERI_DIV_CMD, 0x8000FF42u);
 246:Generated_Source\PSoC4/cyfitter_cfg.c **** 
 247:Generated_Source\PSoC4/cyfitter_cfg.c **** 	/* CYDEV_CLK_IMO_CONFIG Starting address: CYDEV_CLK_IMO_CONFIG */
 248:Generated_Source\PSoC4/cyfitter_cfg.c **** 	CY_SET_REG32((void *)(CYREG_CLK_IMO_CONFIG), 0x80000000u);
 249:Generated_Source\PSoC4/cyfitter_cfg.c **** 
 250:Generated_Source\PSoC4/cyfitter_cfg.c **** 	/* CYDEV_CLK_SELECT Starting address: CYDEV_CLK_SELECT */
 251:Generated_Source\PSoC4/cyfitter_cfg.c **** 	CY_SET_REG32((void *)(CYREG_CLK_SELECT), 0x00040000u);
 252:Generated_Source\PSoC4/cyfitter_cfg.c **** 
 253:Generated_Source\PSoC4/cyfitter_cfg.c **** 	/* CYDEV_PERI_PCLK_CTL22 Starting address: CYDEV_PERI_PCLK_CTL22 */
 254:Generated_Source\PSoC4/cyfitter_cfg.c **** 	CY_SET_REG32((void *)(CYREG_PERI_PCLK_CTL22), 0x00000041u);
 255:Generated_Source\PSoC4/cyfitter_cfg.c **** 
 256:Generated_Source\PSoC4/cyfitter_cfg.c **** 	/* CYDEV_PERI_PCLK_CTL21 Starting address: CYDEV_PERI_PCLK_CTL21 */
 257:Generated_Source\PSoC4/cyfitter_cfg.c **** 	CY_SET_REG32((void *)(CYREG_PERI_PCLK_CTL21), 0x000000C0u);
 258:Generated_Source\PSoC4/cyfitter_cfg.c **** 
 259:Generated_Source\PSoC4/cyfitter_cfg.c **** 	/* CYDEV_PERI_PCLK_CTL20 Starting address: CYDEV_PERI_PCLK_CTL20 */
 260:Generated_Source\PSoC4/cyfitter_cfg.c **** 	CY_SET_REG32((void *)(CYREG_PERI_PCLK_CTL20), 0x00000040u);
 261:Generated_Source\PSoC4/cyfitter_cfg.c **** 
 262:Generated_Source\PSoC4/cyfitter_cfg.c **** 	/* CYDEV_PERI_PCLK_CTL11 Starting address: CYDEV_PERI_PCLK_CTL11 */
 263:Generated_Source\PSoC4/cyfitter_cfg.c **** 	CY_SET_REG32((void *)(CYREG_PERI_PCLK_CTL11), 0x00000045u);
 264:Generated_Source\PSoC4/cyfitter_cfg.c **** 
 265:Generated_Source\PSoC4/cyfitter_cfg.c **** 	/* CYDEV_PERI_PCLK_CTL5 Starting address: CYDEV_PERI_PCLK_CTL5 */
 266:Generated_Source\PSoC4/cyfitter_cfg.c **** 	CY_SET_REG32((void *)(CYREG_PERI_PCLK_CTL5), 0x00000043u);
 267:Generated_Source\PSoC4/cyfitter_cfg.c **** 
 268:Generated_Source\PSoC4/cyfitter_cfg.c **** 	/* CYDEV_PERI_PCLK_CTL3 Starting address: CYDEV_PERI_PCLK_CTL3 */
 269:Generated_Source\PSoC4/cyfitter_cfg.c **** 	CY_SET_REG32((void *)(CYREG_PERI_PCLK_CTL3), 0x00000044u);
 270:Generated_Source\PSoC4/cyfitter_cfg.c **** 
 271:Generated_Source\PSoC4/cyfitter_cfg.c **** 	/* CYDEV_PERI_PCLK_CTL2 Starting address: CYDEV_PERI_PCLK_CTL2 */
 272:Generated_Source\PSoC4/cyfitter_cfg.c **** 	CY_SET_REG32((void *)(CYREG_PERI_PCLK_CTL2), 0x00000042u);
 273:Generated_Source\PSoC4/cyfitter_cfg.c **** 
 274:Generated_Source\PSoC4/cyfitter_cfg.c **** 	(void)CyIntSetVector(8u, &CySysWdtIsr);
 275:Generated_Source\PSoC4/cyfitter_cfg.c **** 	CyIntEnable(8u);
 276:Generated_Source\PSoC4/cyfitter_cfg.c **** 	CY_SET_REG32((void *)(CYREG_WDT_CONFIG), 0x40000000u);
 277:Generated_Source\PSoC4/cyfitter_cfg.c **** }
 278:Generated_Source\PSoC4/cyfitter_cfg.c **** 
 279:Generated_Source\PSoC4/cyfitter_cfg.c **** 
 280:Generated_Source\PSoC4/cyfitter_cfg.c **** /* Analog API Functions */
 281:Generated_Source\PSoC4/cyfitter_cfg.c **** 
 282:Generated_Source\PSoC4/cyfitter_cfg.c **** 
 283:Generated_Source\PSoC4/cyfitter_cfg.c **** /*******************************************************************************
 284:Generated_Source\PSoC4/cyfitter_cfg.c **** * Function Name: AnalogSetDefault
 285:Generated_Source\PSoC4/cyfitter_cfg.c **** ********************************************************************************
 286:Generated_Source\PSoC4/cyfitter_cfg.c **** *
 287:Generated_Source\PSoC4/cyfitter_cfg.c **** * Summary:
 288:Generated_Source\PSoC4/cyfitter_cfg.c **** *  Sets up the analog portions of the chip to default values based on chip
 289:Generated_Source\PSoC4/cyfitter_cfg.c **** *  configuration options from the project.
 290:Generated_Source\PSoC4/cyfitter_cfg.c **** *
 291:Generated_Source\PSoC4/cyfitter_cfg.c **** * Parameters:
 292:Generated_Source\PSoC4/cyfitter_cfg.c **** *  void
 293:Generated_Source\PSoC4/cyfitter_cfg.c **** *
ARM GAS  C:\Users\luvsd\AppData\Local\Temp\cc9ItDM1.s 			page 8


 294:Generated_Source\PSoC4/cyfitter_cfg.c **** * Return:
 295:Generated_Source\PSoC4/cyfitter_cfg.c **** *  void
 296:Generated_Source\PSoC4/cyfitter_cfg.c **** *
 297:Generated_Source\PSoC4/cyfitter_cfg.c **** *******************************************************************************/
 298:Generated_Source\PSoC4/cyfitter_cfg.c **** static void AnalogSetDefault(void);
 299:Generated_Source\PSoC4/cyfitter_cfg.c **** static void AnalogSetDefault(void)
 300:Generated_Source\PSoC4/cyfitter_cfg.c **** {
 104              		.loc 1 300 0
 105              		.cfi_startproc
 106              		@ args = 0, pretend = 0, frame = 0
 107              		@ frame_needed = 0, uses_anonymous_args = 0
 108              		@ link register save eliminated.
 301:Generated_Source\PSoC4/cyfitter_cfg.c **** 	CY_SET_XTND_REG32((void CYFAR *)CYREG_CTBM0_DFT_CTRL, 0x00000003u);
 109              		.loc 1 301 0
 110 0000 0323     		movs	r3, #3
 111 0002 044A     		ldr	r2, .L7
 112 0004 1360     		str	r3, [r2]
 302:Generated_Source\PSoC4/cyfitter_cfg.c **** 	CY_SET_XTND_REG32((void CYFAR *)CYREG_CTBM1_DFT_CTRL, 0x00000003u);
 113              		.loc 1 302 0
 114 0006 044A     		ldr	r2, .L7+4
 115 0008 1360     		str	r3, [r2]
 303:Generated_Source\PSoC4/cyfitter_cfg.c **** 	CY_SET_XTND_REG32((void CYFAR *)CYREG_PASS_DSAB_DSAB_CTRL, 0x00000000u);
 116              		.loc 1 303 0
 117 000a 0022     		movs	r2, #0
 118 000c 034B     		ldr	r3, .L7+8
 119 000e 1A60     		str	r2, [r3]
 304:Generated_Source\PSoC4/cyfitter_cfg.c **** }
 120              		.loc 1 304 0
 121              		@ sp needed
 122 0010 7047     		bx	lr
 123              	.L8:
 124 0012 C046     		.align	2
 125              	.L7:
 126 0014 30003040 		.word	1076887600
 127 0018 30003140 		.word	1076953136
 128 001c 000E3F40 		.word	1077874176
 129              		.cfi_endproc
 130              	.LFE6:
 131              		.size	AnalogSetDefault, .-AnalogSetDefault
 132              		.section	.text.CYMEMZERO,"ax",%progbits
 133              		.align	2
 134              		.code	16
 135              		.thumb_func
 136              		.type	CYMEMZERO, %function
 137              	CYMEMZERO:
 138              	.LFB1:
  77:Generated_Source\PSoC4/cyfitter_cfg.c **** 	(void)memset(s, 0, n);
 139              		.loc 1 77 0
 140              		.cfi_startproc
 141              		@ args = 0, pretend = 0, frame = 0
 142              		@ frame_needed = 0, uses_anonymous_args = 0
 143              	.LVL12:
 144 0000 10B5     		push	{r4, lr}
 145              		.cfi_def_cfa_offset 8
 146              		.cfi_offset 4, -8
 147              		.cfi_offset 14, -4
 148 0002 0A00     		movs	r2, r1
ARM GAS  C:\Users\luvsd\AppData\Local\Temp\cc9ItDM1.s 			page 9


  78:Generated_Source\PSoC4/cyfitter_cfg.c **** }
 149              		.loc 1 78 0
 150 0004 0021     		movs	r1, #0
 151              	.LVL13:
 152 0006 FFF7FEFF 		bl	memset
 153              	.LVL14:
  79:Generated_Source\PSoC4/cyfitter_cfg.c **** CY_CFG_UNUSED
 154              		.loc 1 79 0
 155              		@ sp needed
 156 000a 10BD     		pop	{r4, pc}
 157              		.cfi_endproc
 158              	.LFE1:
 159              		.size	CYMEMZERO, .-CYMEMZERO
 160              		.section	.text.CYCONFIGCPYCODE,"ax",%progbits
 161              		.align	2
 162              		.code	16
 163              		.thumb_func
 164              		.type	CYCONFIGCPYCODE, %function
 165              	CYCONFIGCPYCODE:
 166              	.LFB3:
  91:Generated_Source\PSoC4/cyfitter_cfg.c **** 	(void)memcpy(dest, src, n);
 167              		.loc 1 91 0
 168              		.cfi_startproc
 169              		@ args = 0, pretend = 0, frame = 0
 170              		@ frame_needed = 0, uses_anonymous_args = 0
 171              	.LVL15:
 172 0000 10B5     		push	{r4, lr}
 173              		.cfi_def_cfa_offset 8
 174              		.cfi_offset 4, -8
 175              		.cfi_offset 14, -4
  92:Generated_Source\PSoC4/cyfitter_cfg.c **** }
 176              		.loc 1 92 0
 177 0002 FFF7FEFF 		bl	memcpy
 178              	.LVL16:
  93:Generated_Source\PSoC4/cyfitter_cfg.c **** 
 179              		.loc 1 93 0
 180              		@ sp needed
 181 0006 10BD     		pop	{r4, pc}
 182              		.cfi_endproc
 183              	.LFE3:
 184              		.size	CYCONFIGCPYCODE, .-CYCONFIGCPYCODE
 185              		.section	.psocinit,"ax",%progbits
 186              		.align	2
 187              		.code	16
 188              		.thumb_func
 189              		.type	ClockSetup, %function
 190              	ClockSetup:
 191              	.LFB5:
 212:Generated_Source\PSoC4/cyfitter_cfg.c **** 
 192              		.loc 1 212 0
 193              		.cfi_startproc
 194              		@ args = 0, pretend = 0, frame = 0
 195              		@ frame_needed = 0, uses_anonymous_args = 0
 196 0000 70B5     		push	{r4, r5, r6, lr}
 197              		.cfi_def_cfa_offset 16
 198              		.cfi_offset 4, -16
 199              		.cfi_offset 5, -12
ARM GAS  C:\Users\luvsd\AppData\Local\Temp\cc9ItDM1.s 			page 10


 200              		.cfi_offset 6, -8
 201              		.cfi_offset 14, -4
 215:Generated_Source\PSoC4/cyfitter_cfg.c **** 
 202              		.loc 1 215 0
 203 0002 1222     		movs	r2, #18
 204 0004 304B     		ldr	r3, .L12
 205 0006 1A60     		str	r2, [r3]
 218:Generated_Source\PSoC4/cyfitter_cfg.c **** 	CyDelayCycles(12000000u); /* WCO may take up to 500ms to start */
 206              		.loc 1 218 0
 207 0008 FFF7FEFF 		bl	CySysClkWcoStart
 208              	.LVL17:
 219:Generated_Source\PSoC4/cyfitter_cfg.c **** 
 209              		.loc 1 219 0
 210 000c 2F48     		ldr	r0, .L12+4
 211 000e FFF7FEFF 		bl	CyDelayCycles
 212              	.LVL18:
 222:Generated_Source\PSoC4/cyfitter_cfg.c **** 	CySysClkImoEnableWcoLock();
 213              		.loc 1 222 0
 214 0012 3020     		movs	r0, #48
 215 0014 FFF7FEFF 		bl	CySysClkWriteImoFreq
 216              	.LVL19:
 223:Generated_Source\PSoC4/cyfitter_cfg.c **** 	/* CYDEV_CLK_ILO_CONFIG Starting address: CYDEV_CLK_ILO_CONFIG */
 217              		.loc 1 223 0
 218 0018 FFF7FEFF 		bl	CySysClkImoEnableWcoLock
 219              	.LVL20:
 225:Generated_Source\PSoC4/cyfitter_cfg.c **** 
 220              		.loc 1 225 0
 221 001c 2C4A     		ldr	r2, .L12+8
 222 001e 2D4B     		ldr	r3, .L12+12
 223 0020 1A60     		str	r2, [r3]
 228:Generated_Source\PSoC4/cyfitter_cfg.c **** 
 224              		.loc 1 228 0
 225 0022 2D4C     		ldr	r4, .L12+16
 226 0024 8025     		movs	r5, #128
 227 0026 ED05     		lsls	r5, r5, #23
 228 0028 2560     		str	r5, [r4]
 232:Generated_Source\PSoC4/cyfitter_cfg.c **** 	CY_SET_REG32((void *)CYREG_PERI_DIV_CMD, 0x8000FF41u);
 229              		.loc 1 232 0
 230 002a A022     		movs	r2, #160
 231 002c D200     		lsls	r2, r2, #3
 232 002e 2B4B     		ldr	r3, .L12+20
 233 0030 1A60     		str	r2, [r3]
 233:Generated_Source\PSoC4/cyfitter_cfg.c **** 	CY_SET_REG32((void *)CYREG_PERI_DIV_24_5_CTL, 0x249EFF00u);
 234              		.loc 1 233 0
 235 0032 2B4B     		ldr	r3, .L12+24
 236 0034 2B4A     		ldr	r2, .L12+28
 237 0036 1A60     		str	r2, [r3]
 234:Generated_Source\PSoC4/cyfitter_cfg.c **** 	CY_SET_REG32((void *)CYREG_PERI_DIV_CMD, 0x8000FFC0u);
 238              		.loc 1 234 0
 239 0038 2B49     		ldr	r1, .L12+32
 240 003a 2C4A     		ldr	r2, .L12+36
 241 003c 1160     		str	r1, [r2]
 235:Generated_Source\PSoC4/cyfitter_cfg.c **** 	CY_SET_REG32((void *)CYREG_PERI_DIV_16_CTL0, 0x00000200u);
 242              		.loc 1 235 0
 243 003e 2C4A     		ldr	r2, .L12+40
 244 0040 1A60     		str	r2, [r3]
 236:Generated_Source\PSoC4/cyfitter_cfg.c **** 	CY_SET_REG32((void *)CYREG_PERI_DIV_CMD, 0x8000FF40u);
ARM GAS  C:\Users\luvsd\AppData\Local\Temp\cc9ItDM1.s 			page 11


 245              		.loc 1 236 0
 246 0042 8021     		movs	r1, #128
 247 0044 8900     		lsls	r1, r1, #2
 248 0046 2B4A     		ldr	r2, .L12+44
 249 0048 1160     		str	r1, [r2]
 237:Generated_Source\PSoC4/cyfitter_cfg.c **** 	CY_SET_REG32((void *)CYREG_PERI_DIV_16_CTL5, 0x0001DF00u);
 250              		.loc 1 237 0
 251 004a 2B4A     		ldr	r2, .L12+48
 252 004c 1A60     		str	r2, [r3]
 238:Generated_Source\PSoC4/cyfitter_cfg.c **** 	CY_SET_REG32((void *)CYREG_PERI_DIV_CMD, 0x8000FF45u);
 253              		.loc 1 238 0
 254 004e 2B49     		ldr	r1, .L12+52
 255 0050 2B4A     		ldr	r2, .L12+56
 256 0052 1160     		str	r1, [r2]
 239:Generated_Source\PSoC4/cyfitter_cfg.c **** 	CY_SET_REG32((void *)CYREG_PERI_DIV_16_CTL3, 0x00001F00u);
 257              		.loc 1 239 0
 258 0054 2B4A     		ldr	r2, .L12+60
 259 0056 1A60     		str	r2, [r3]
 240:Generated_Source\PSoC4/cyfitter_cfg.c **** 	CY_SET_REG32((void *)CYREG_PERI_DIV_CMD, 0x8000FF43u);
 260              		.loc 1 240 0
 261 0058 F821     		movs	r1, #248
 262 005a 4901     		lsls	r1, r1, #5
 263 005c 2A4A     		ldr	r2, .L12+64
 264 005e 1160     		str	r1, [r2]
 241:Generated_Source\PSoC4/cyfitter_cfg.c **** 	CY_SET_REG32((void *)CYREG_PERI_DIV_16_CTL4, 0x00002200u);
 265              		.loc 1 241 0
 266 0060 2A4A     		ldr	r2, .L12+68
 267 0062 1A60     		str	r2, [r3]
 242:Generated_Source\PSoC4/cyfitter_cfg.c **** 	CY_SET_REG32((void *)CYREG_PERI_DIV_CMD, 0x8000FF44u);
 268              		.loc 1 242 0
 269 0064 8821     		movs	r1, #136
 270 0066 8901     		lsls	r1, r1, #6
 271 0068 294A     		ldr	r2, .L12+72
 272 006a 1160     		str	r1, [r2]
 243:Generated_Source\PSoC4/cyfitter_cfg.c **** 	CY_SET_REG32((void *)CYREG_PERI_DIV_16_CTL2, 0x00001D00u);
 273              		.loc 1 243 0
 274 006c 294A     		ldr	r2, .L12+76
 275 006e 1A60     		str	r2, [r3]
 244:Generated_Source\PSoC4/cyfitter_cfg.c **** 	CY_SET_REG32((void *)CYREG_PERI_DIV_CMD, 0x8000FF42u);
 276              		.loc 1 244 0
 277 0070 E821     		movs	r1, #232
 278 0072 4901     		lsls	r1, r1, #5
 279 0074 284A     		ldr	r2, .L12+80
 280 0076 1160     		str	r1, [r2]
 245:Generated_Source\PSoC4/cyfitter_cfg.c **** 
 281              		.loc 1 245 0
 282 0078 284A     		ldr	r2, .L12+84
 283 007a 1A60     		str	r2, [r3]
 248:Generated_Source\PSoC4/cyfitter_cfg.c **** 
 284              		.loc 1 248 0
 285 007c 8022     		movs	r2, #128
 286 007e 1206     		lsls	r2, r2, #24
 287 0080 274B     		ldr	r3, .L12+88
 288 0082 1A60     		str	r2, [r3]
 251:Generated_Source\PSoC4/cyfitter_cfg.c **** 
 289              		.loc 1 251 0
 290 0084 8022     		movs	r2, #128
ARM GAS  C:\Users\luvsd\AppData\Local\Temp\cc9ItDM1.s 			page 12


 291 0086 D202     		lsls	r2, r2, #11
 292 0088 264B     		ldr	r3, .L12+92
 293 008a 1A60     		str	r2, [r3]
 254:Generated_Source\PSoC4/cyfitter_cfg.c **** 
 294              		.loc 1 254 0
 295 008c 4122     		movs	r2, #65
 296 008e 264B     		ldr	r3, .L12+96
 297 0090 1A60     		str	r2, [r3]
 257:Generated_Source\PSoC4/cyfitter_cfg.c **** 
 298              		.loc 1 257 0
 299 0092 7F32     		adds	r2, r2, #127
 300 0094 254B     		ldr	r3, .L12+100
 301 0096 1A60     		str	r2, [r3]
 260:Generated_Source\PSoC4/cyfitter_cfg.c **** 
 302              		.loc 1 260 0
 303 0098 803A     		subs	r2, r2, #128
 304 009a 254B     		ldr	r3, .L12+104
 305 009c 1A60     		str	r2, [r3]
 263:Generated_Source\PSoC4/cyfitter_cfg.c **** 
 306              		.loc 1 263 0
 307 009e 0532     		adds	r2, r2, #5
 308 00a0 244B     		ldr	r3, .L12+108
 309 00a2 1A60     		str	r2, [r3]
 266:Generated_Source\PSoC4/cyfitter_cfg.c **** 
 310              		.loc 1 266 0
 311 00a4 023A     		subs	r2, r2, #2
 312 00a6 244B     		ldr	r3, .L12+112
 313 00a8 1A60     		str	r2, [r3]
 269:Generated_Source\PSoC4/cyfitter_cfg.c **** 
 314              		.loc 1 269 0
 315 00aa 0132     		adds	r2, r2, #1
 316 00ac 234B     		ldr	r3, .L12+116
 317 00ae 1A60     		str	r2, [r3]
 272:Generated_Source\PSoC4/cyfitter_cfg.c **** 
 318              		.loc 1 272 0
 319 00b0 023A     		subs	r2, r2, #2
 320 00b2 234B     		ldr	r3, .L12+120
 321 00b4 1A60     		str	r2, [r3]
 274:Generated_Source\PSoC4/cyfitter_cfg.c **** 	CyIntEnable(8u);
 322              		.loc 1 274 0
 323 00b6 2349     		ldr	r1, .L12+124
 324 00b8 0820     		movs	r0, #8
 325 00ba FFF7FEFF 		bl	CyIntSetVector
 326              	.LVL21:
 275:Generated_Source\PSoC4/cyfitter_cfg.c **** 	CY_SET_REG32((void *)(CYREG_WDT_CONFIG), 0x40000000u);
 327              		.loc 1 275 0
 328 00be 0820     		movs	r0, #8
 329 00c0 FFF7FEFF 		bl	CyIntEnable
 330              	.LVL22:
 276:Generated_Source\PSoC4/cyfitter_cfg.c **** }
 331              		.loc 1 276 0
 332 00c4 2560     		str	r5, [r4]
 277:Generated_Source\PSoC4/cyfitter_cfg.c **** 
 333              		.loc 1 277 0
 334              		@ sp needed
 335 00c6 70BD     		pop	{r4, r5, r6, pc}
 336              	.L13:
ARM GAS  C:\Users\luvsd\AppData\Local\Temp\cc9ItDM1.s 			page 13


 337              		.align	2
 338              	.L12:
 339 00c8 30001040 		.word	1074790448
 340 00cc 001BB700 		.word	12000000
 341 00d0 06000080 		.word	-2147483642
 342 00d4 04010B40 		.word	1074462980
 343 00d8 0C020B40 		.word	1074463244
 344 00dc 04030140 		.word	1073808132
 345 00e0 00000140 		.word	1073807360
 346 00e4 41FF0080 		.word	-2147418303
 347 00e8 00FF9E24 		.word	614399744
 348 00ec 00050140 		.word	1073808640
 349 00f0 C0FF0080 		.word	-2147418176
 350 00f4 00030140 		.word	1073808128
 351 00f8 40FF0080 		.word	-2147418304
 352 00fc 00DF0100 		.word	122624
 353 0100 14030140 		.word	1073808148
 354 0104 45FF0080 		.word	-2147418299
 355 0108 0C030140 		.word	1073808140
 356 010c 43FF0080 		.word	-2147418301
 357 0110 10030140 		.word	1073808144
 358 0114 44FF0080 		.word	-2147418300
 359 0118 08030140 		.word	1073808136
 360 011c 42FF0080 		.word	-2147418302
 361 0120 08010B40 		.word	1074462984
 362 0124 00010B40 		.word	1074462976
 363 0128 58010140 		.word	1073807704
 364 012c 54010140 		.word	1073807700
 365 0130 50010140 		.word	1073807696
 366 0134 2C010140 		.word	1073807660
 367 0138 14010140 		.word	1073807636
 368 013c 0C010140 		.word	1073807628
 369 0140 08010140 		.word	1073807624
 370 0144 00000000 		.word	CySysWdtIsr
 371              		.cfi_endproc
 372              	.LFE5:
 373              		.size	ClockSetup, .-ClockSetup
 374              		.align	2
 375              		.global	cyfitter_cfg
 376              		.code	16
 377              		.thumb_func
 378              		.type	cyfitter_cfg, %function
 379              	cyfitter_cfg:
 380              	.LFB7:
 305:Generated_Source\PSoC4/cyfitter_cfg.c **** 
 306:Generated_Source\PSoC4/cyfitter_cfg.c **** 
 307:Generated_Source\PSoC4/cyfitter_cfg.c **** 
 308:Generated_Source\PSoC4/cyfitter_cfg.c **** 
 309:Generated_Source\PSoC4/cyfitter_cfg.c **** /*******************************************************************************
 310:Generated_Source\PSoC4/cyfitter_cfg.c **** * Function Name: cyfitter_cfg
 311:Generated_Source\PSoC4/cyfitter_cfg.c **** ********************************************************************************
 312:Generated_Source\PSoC4/cyfitter_cfg.c **** * Summary:
 313:Generated_Source\PSoC4/cyfitter_cfg.c **** *  This function is called by the start-up code for the selected device. It
 314:Generated_Source\PSoC4/cyfitter_cfg.c **** *  performs all of the necessary device configuration based on the design
 315:Generated_Source\PSoC4/cyfitter_cfg.c **** *  settings.  This includes settings from the Design Wide Resources (DWR) such
 316:Generated_Source\PSoC4/cyfitter_cfg.c **** *  as Clocks and Pins as well as any component configuration that is necessary.
 317:Generated_Source\PSoC4/cyfitter_cfg.c **** *
ARM GAS  C:\Users\luvsd\AppData\Local\Temp\cc9ItDM1.s 			page 14


 318:Generated_Source\PSoC4/cyfitter_cfg.c **** * Parameters:
 319:Generated_Source\PSoC4/cyfitter_cfg.c **** *   void
 320:Generated_Source\PSoC4/cyfitter_cfg.c **** *
 321:Generated_Source\PSoC4/cyfitter_cfg.c **** * Return:
 322:Generated_Source\PSoC4/cyfitter_cfg.c **** *   void
 323:Generated_Source\PSoC4/cyfitter_cfg.c **** *
 324:Generated_Source\PSoC4/cyfitter_cfg.c **** *******************************************************************************/
 325:Generated_Source\PSoC4/cyfitter_cfg.c **** CY_CFG_SECTION
 326:Generated_Source\PSoC4/cyfitter_cfg.c **** void cyfitter_cfg(void)
 327:Generated_Source\PSoC4/cyfitter_cfg.c **** {
 381              		.loc 1 327 0
 382              		.cfi_startproc
 383              		@ args = 0, pretend = 0, frame = 0
 384              		@ frame_needed = 0, uses_anonymous_args = 0
 385 0148 70B5     		push	{r4, r5, r6, lr}
 386              		.cfi_def_cfa_offset 16
 387              		.cfi_offset 4, -16
 388              		.cfi_offset 5, -12
 389              		.cfi_offset 6, -8
 390              		.cfi_offset 14, -4
 328:Generated_Source\PSoC4/cyfitter_cfg.c **** 	/* Disable interrupts by default. Let user enable if/when they want. */
 329:Generated_Source\PSoC4/cyfitter_cfg.c **** 	CyGlobalIntDisable;
 391              		.loc 1 329 0
 392              		.syntax divided
 393              	@ 329 "Generated_Source\PSoC4\cyfitter_cfg.c" 1
 394 014a 72B6     		CPSID   i
 395              	@ 0 "" 2
 330:Generated_Source\PSoC4/cyfitter_cfg.c **** 
 331:Generated_Source\PSoC4/cyfitter_cfg.c **** 	/* Enable the clock in the interrupt controller for the routed interrupts */
 332:Generated_Source\PSoC4/cyfitter_cfg.c **** 	CY_SET_REG8((void *)CYREG_UDB_UDB_INT_CLK_CTL, 0x01u);
 396              		.loc 1 332 0
 397              		.thumb
 398              		.syntax unified
 399 014c 0122     		movs	r2, #1
 400 014e 5F4B     		ldr	r3, .L19
 401 0150 1A70     		strb	r2, [r3]
 402              	.LVL23:
 403              	.LBB3:
 333:Generated_Source\PSoC4/cyfitter_cfg.c **** 	{
 334:Generated_Source\PSoC4/cyfitter_cfg.c **** 		static const uint32 CYCODE cy_cfg_addr_table[] = {
 335:Generated_Source\PSoC4/cyfitter_cfg.c **** 			0x400F0004u, /* Base address: 0x400F0000 Count: 4 */
 336:Generated_Source\PSoC4/cyfitter_cfg.c **** 			0x400F3012u, /* Base address: 0x400F3000 Count: 18 */
 337:Generated_Source\PSoC4/cyfitter_cfg.c **** 			0x400F313Du, /* Base address: 0x400F3100 Count: 61 */
 338:Generated_Source\PSoC4/cyfitter_cfg.c **** 			0x400F3265u, /* Base address: 0x400F3200 Count: 101 */
 339:Generated_Source\PSoC4/cyfitter_cfg.c **** 			0x400F3352u, /* Base address: 0x400F3300 Count: 82 */
 340:Generated_Source\PSoC4/cyfitter_cfg.c **** 			0x400F3452u, /* Base address: 0x400F3400 Count: 82 */
 341:Generated_Source\PSoC4/cyfitter_cfg.c **** 			0x400F3549u, /* Base address: 0x400F3500 Count: 73 */
 342:Generated_Source\PSoC4/cyfitter_cfg.c **** 			0x400F3613u, /* Base address: 0x400F3600 Count: 19 */
 343:Generated_Source\PSoC4/cyfitter_cfg.c **** 			0x400F374Cu, /* Base address: 0x400F3700 Count: 76 */
 344:Generated_Source\PSoC4/cyfitter_cfg.c **** 			0x400F4005u, /* Base address: 0x400F4000 Count: 5 */
 345:Generated_Source\PSoC4/cyfitter_cfg.c **** 			0x400F4110u, /* Base address: 0x400F4100 Count: 16 */
 346:Generated_Source\PSoC4/cyfitter_cfg.c **** 			0x400F4214u, /* Base address: 0x400F4200 Count: 20 */
 347:Generated_Source\PSoC4/cyfitter_cfg.c **** 			0x400F4308u, /* Base address: 0x400F4300 Count: 8 */
 348:Generated_Source\PSoC4/cyfitter_cfg.c **** 			0x400F440Cu, /* Base address: 0x400F4400 Count: 12 */
 349:Generated_Source\PSoC4/cyfitter_cfg.c **** 			0x400F450Au, /* Base address: 0x400F4500 Count: 10 */
 350:Generated_Source\PSoC4/cyfitter_cfg.c **** 			0x400F4603u, /* Base address: 0x400F4600 Count: 3 */
 351:Generated_Source\PSoC4/cyfitter_cfg.c **** 			0x400F4705u, /* Base address: 0x400F4700 Count: 5 */
ARM GAS  C:\Users\luvsd\AppData\Local\Temp\cc9ItDM1.s 			page 15


 352:Generated_Source\PSoC4/cyfitter_cfg.c **** 			0x400F6004u, /* Base address: 0x400F6000 Count: 4 */
 353:Generated_Source\PSoC4/cyfitter_cfg.c **** 		};
 354:Generated_Source\PSoC4/cyfitter_cfg.c **** 
 355:Generated_Source\PSoC4/cyfitter_cfg.c **** 		static const cy_cfg_addrvalue_t CYCODE cy_cfg_data_table[] = {
 356:Generated_Source\PSoC4/cyfitter_cfg.c **** 			{0x72u, 0x01u},
 357:Generated_Source\PSoC4/cyfitter_cfg.c **** 			{0x81u, 0x0Fu},
 358:Generated_Source\PSoC4/cyfitter_cfg.c **** 			{0x83u, 0x0Du},
 359:Generated_Source\PSoC4/cyfitter_cfg.c **** 			{0x86u, 0x0Fu},
 360:Generated_Source\PSoC4/cyfitter_cfg.c **** 			{0x0Bu, 0x01u},
 361:Generated_Source\PSoC4/cyfitter_cfg.c **** 			{0x0Fu, 0x04u},
 362:Generated_Source\PSoC4/cyfitter_cfg.c **** 			{0x14u, 0x01u},
 363:Generated_Source\PSoC4/cyfitter_cfg.c **** 			{0x1Bu, 0x02u},
 364:Generated_Source\PSoC4/cyfitter_cfg.c **** 			{0x23u, 0x07u},
 365:Generated_Source\PSoC4/cyfitter_cfg.c **** 			{0x31u, 0x02u},
 366:Generated_Source\PSoC4/cyfitter_cfg.c **** 			{0x33u, 0x04u},
 367:Generated_Source\PSoC4/cyfitter_cfg.c **** 			{0x35u, 0x01u},
 368:Generated_Source\PSoC4/cyfitter_cfg.c **** 			{0x36u, 0x01u},
 369:Generated_Source\PSoC4/cyfitter_cfg.c **** 			{0x39u, 0x2Au},
 370:Generated_Source\PSoC4/cyfitter_cfg.c **** 			{0x3Eu, 0x40u},
 371:Generated_Source\PSoC4/cyfitter_cfg.c **** 			{0x3Fu, 0x15u},
 372:Generated_Source\PSoC4/cyfitter_cfg.c **** 			{0x54u, 0x09u},
 373:Generated_Source\PSoC4/cyfitter_cfg.c **** 			{0x58u, 0x04u},
 374:Generated_Source\PSoC4/cyfitter_cfg.c **** 			{0x59u, 0x04u},
 375:Generated_Source\PSoC4/cyfitter_cfg.c **** 			{0x5Bu, 0x04u},
 376:Generated_Source\PSoC4/cyfitter_cfg.c **** 			{0x5Du, 0x30u},
 377:Generated_Source\PSoC4/cyfitter_cfg.c **** 			{0x5Fu, 0x01u},
 378:Generated_Source\PSoC4/cyfitter_cfg.c **** 			{0x04u, 0x22u},
 379:Generated_Source\PSoC4/cyfitter_cfg.c **** 			{0x06u, 0x02u},
 380:Generated_Source\PSoC4/cyfitter_cfg.c **** 			{0x0Au, 0x20u},
 381:Generated_Source\PSoC4/cyfitter_cfg.c **** 			{0x0Cu, 0x80u},
 382:Generated_Source\PSoC4/cyfitter_cfg.c **** 			{0x0Eu, 0x68u},
 383:Generated_Source\PSoC4/cyfitter_cfg.c **** 			{0x16u, 0x09u},
 384:Generated_Source\PSoC4/cyfitter_cfg.c **** 			{0x17u, 0x09u},
 385:Generated_Source\PSoC4/cyfitter_cfg.c **** 			{0x1Au, 0x02u},
 386:Generated_Source\PSoC4/cyfitter_cfg.c **** 			{0x1Du, 0x48u},
 387:Generated_Source\PSoC4/cyfitter_cfg.c **** 			{0x1Eu, 0x40u},
 388:Generated_Source\PSoC4/cyfitter_cfg.c **** 			{0x20u, 0x04u},
 389:Generated_Source\PSoC4/cyfitter_cfg.c **** 			{0x21u, 0x01u},
 390:Generated_Source\PSoC4/cyfitter_cfg.c **** 			{0x23u, 0x10u},
 391:Generated_Source\PSoC4/cyfitter_cfg.c **** 			{0x24u, 0x03u},
 392:Generated_Source\PSoC4/cyfitter_cfg.c **** 			{0x25u, 0x04u},
 393:Generated_Source\PSoC4/cyfitter_cfg.c **** 			{0x26u, 0x20u},
 394:Generated_Source\PSoC4/cyfitter_cfg.c **** 			{0x2Bu, 0x80u},
 395:Generated_Source\PSoC4/cyfitter_cfg.c **** 			{0x30u, 0x20u},
 396:Generated_Source\PSoC4/cyfitter_cfg.c **** 			{0x36u, 0x28u},
 397:Generated_Source\PSoC4/cyfitter_cfg.c **** 			{0x37u, 0x0Au},
 398:Generated_Source\PSoC4/cyfitter_cfg.c **** 			{0x39u, 0x50u},
 399:Generated_Source\PSoC4/cyfitter_cfg.c **** 			{0x3Cu, 0x01u},
 400:Generated_Source\PSoC4/cyfitter_cfg.c **** 			{0x3Du, 0x80u},
 401:Generated_Source\PSoC4/cyfitter_cfg.c **** 			{0x45u, 0x08u},
 402:Generated_Source\PSoC4/cyfitter_cfg.c **** 			{0x47u, 0x12u},
 403:Generated_Source\PSoC4/cyfitter_cfg.c **** 			{0x4Cu, 0x01u},
 404:Generated_Source\PSoC4/cyfitter_cfg.c **** 			{0x4Du, 0x08u},
 405:Generated_Source\PSoC4/cyfitter_cfg.c **** 			{0x4Eu, 0x08u},
 406:Generated_Source\PSoC4/cyfitter_cfg.c **** 			{0x55u, 0xC0u},
 407:Generated_Source\PSoC4/cyfitter_cfg.c **** 			{0x56u, 0x21u},
 408:Generated_Source\PSoC4/cyfitter_cfg.c **** 			{0x57u, 0x08u},
ARM GAS  C:\Users\luvsd\AppData\Local\Temp\cc9ItDM1.s 			page 16


 409:Generated_Source\PSoC4/cyfitter_cfg.c **** 			{0x58u, 0x11u},
 410:Generated_Source\PSoC4/cyfitter_cfg.c **** 			{0x59u, 0x88u},
 411:Generated_Source\PSoC4/cyfitter_cfg.c **** 			{0x61u, 0x40u},
 412:Generated_Source\PSoC4/cyfitter_cfg.c **** 			{0x62u, 0x30u},
 413:Generated_Source\PSoC4/cyfitter_cfg.c **** 			{0x66u, 0x10u},
 414:Generated_Source\PSoC4/cyfitter_cfg.c **** 			{0x68u, 0x20u},
 415:Generated_Source\PSoC4/cyfitter_cfg.c **** 			{0x69u, 0x50u},
 416:Generated_Source\PSoC4/cyfitter_cfg.c **** 			{0x6Cu, 0x90u},
 417:Generated_Source\PSoC4/cyfitter_cfg.c **** 			{0x6Du, 0x20u},
 418:Generated_Source\PSoC4/cyfitter_cfg.c **** 			{0x6Eu, 0x24u},
 419:Generated_Source\PSoC4/cyfitter_cfg.c **** 			{0x6Fu, 0x01u},
 420:Generated_Source\PSoC4/cyfitter_cfg.c **** 			{0x76u, 0x02u},
 421:Generated_Source\PSoC4/cyfitter_cfg.c **** 			{0x80u, 0x05u},
 422:Generated_Source\PSoC4/cyfitter_cfg.c **** 			{0x82u, 0x10u},
 423:Generated_Source\PSoC4/cyfitter_cfg.c **** 			{0x84u, 0x01u},
 424:Generated_Source\PSoC4/cyfitter_cfg.c **** 			{0x85u, 0x08u},
 425:Generated_Source\PSoC4/cyfitter_cfg.c **** 			{0x86u, 0x01u},
 426:Generated_Source\PSoC4/cyfitter_cfg.c **** 			{0x8Du, 0x84u},
 427:Generated_Source\PSoC4/cyfitter_cfg.c **** 			{0xC0u, 0xD0u},
 428:Generated_Source\PSoC4/cyfitter_cfg.c **** 			{0xC2u, 0xF4u},
 429:Generated_Source\PSoC4/cyfitter_cfg.c **** 			{0xC4u, 0xF0u},
 430:Generated_Source\PSoC4/cyfitter_cfg.c **** 			{0xCAu, 0x01u},
 431:Generated_Source\PSoC4/cyfitter_cfg.c **** 			{0xCCu, 0xE4u},
 432:Generated_Source\PSoC4/cyfitter_cfg.c **** 			{0xCEu, 0x9Cu},
 433:Generated_Source\PSoC4/cyfitter_cfg.c **** 			{0xD0u, 0xE0u},
 434:Generated_Source\PSoC4/cyfitter_cfg.c **** 			{0xD2u, 0x30u},
 435:Generated_Source\PSoC4/cyfitter_cfg.c **** 			{0xD6u, 0x0Fu},
 436:Generated_Source\PSoC4/cyfitter_cfg.c **** 			{0xD8u, 0x28u},
 437:Generated_Source\PSoC4/cyfitter_cfg.c **** 			{0xE0u, 0x04u},
 438:Generated_Source\PSoC4/cyfitter_cfg.c **** 			{0xE4u, 0x02u},
 439:Generated_Source\PSoC4/cyfitter_cfg.c **** 			{0x01u, 0x9Au},
 440:Generated_Source\PSoC4/cyfitter_cfg.c **** 			{0x05u, 0x98u},
 441:Generated_Source\PSoC4/cyfitter_cfg.c **** 			{0x07u, 0x02u},
 442:Generated_Source\PSoC4/cyfitter_cfg.c **** 			{0x09u, 0x02u},
 443:Generated_Source\PSoC4/cyfitter_cfg.c **** 			{0x0Bu, 0x98u},
 444:Generated_Source\PSoC4/cyfitter_cfg.c **** 			{0x0Du, 0x02u},
 445:Generated_Source\PSoC4/cyfitter_cfg.c **** 			{0x11u, 0x98u},
 446:Generated_Source\PSoC4/cyfitter_cfg.c **** 			{0x12u, 0x01u},
 447:Generated_Source\PSoC4/cyfitter_cfg.c **** 			{0x13u, 0x02u},
 448:Generated_Source\PSoC4/cyfitter_cfg.c **** 			{0x15u, 0x38u},
 449:Generated_Source\PSoC4/cyfitter_cfg.c **** 			{0x16u, 0x03u},
 450:Generated_Source\PSoC4/cyfitter_cfg.c **** 			{0x17u, 0xC0u},
 451:Generated_Source\PSoC4/cyfitter_cfg.c **** 			{0x19u, 0x13u},
 452:Generated_Source\PSoC4/cyfitter_cfg.c **** 			{0x1Bu, 0x64u},
 453:Generated_Source\PSoC4/cyfitter_cfg.c **** 			{0x21u, 0x9Au},
 454:Generated_Source\PSoC4/cyfitter_cfg.c **** 			{0x22u, 0x03u},
 455:Generated_Source\PSoC4/cyfitter_cfg.c **** 			{0x24u, 0x02u},
 456:Generated_Source\PSoC4/cyfitter_cfg.c **** 			{0x29u, 0xFCu},
 457:Generated_Source\PSoC4/cyfitter_cfg.c **** 			{0x2Bu, 0x03u},
 458:Generated_Source\PSoC4/cyfitter_cfg.c **** 			{0x2Du, 0x21u},
 459:Generated_Source\PSoC4/cyfitter_cfg.c **** 			{0x2Fu, 0xD8u},
 460:Generated_Source\PSoC4/cyfitter_cfg.c **** 			{0x30u, 0x03u},
 461:Generated_Source\PSoC4/cyfitter_cfg.c **** 			{0x33u, 0xE0u},
 462:Generated_Source\PSoC4/cyfitter_cfg.c **** 			{0x34u, 0x03u},
 463:Generated_Source\PSoC4/cyfitter_cfg.c **** 			{0x35u, 0x13u},
 464:Generated_Source\PSoC4/cyfitter_cfg.c **** 			{0x37u, 0x0Fu},
 465:Generated_Source\PSoC4/cyfitter_cfg.c **** 			{0x3Bu, 0x88u},
ARM GAS  C:\Users\luvsd\AppData\Local\Temp\cc9ItDM1.s 			page 17


 466:Generated_Source\PSoC4/cyfitter_cfg.c **** 			{0x40u, 0x60u},
 467:Generated_Source\PSoC4/cyfitter_cfg.c **** 			{0x41u, 0x05u},
 468:Generated_Source\PSoC4/cyfitter_cfg.c **** 			{0x49u, 0xFFu},
 469:Generated_Source\PSoC4/cyfitter_cfg.c **** 			{0x4Au, 0xFFu},
 470:Generated_Source\PSoC4/cyfitter_cfg.c **** 			{0x4Bu, 0xFFu},
 471:Generated_Source\PSoC4/cyfitter_cfg.c **** 			{0x4Du, 0xA0u},
 472:Generated_Source\PSoC4/cyfitter_cfg.c **** 			{0x4Fu, 0x04u},
 473:Generated_Source\PSoC4/cyfitter_cfg.c **** 			{0x50u, 0x18u},
 474:Generated_Source\PSoC4/cyfitter_cfg.c **** 			{0x54u, 0x40u},
 475:Generated_Source\PSoC4/cyfitter_cfg.c **** 			{0x58u, 0x04u},
 476:Generated_Source\PSoC4/cyfitter_cfg.c **** 			{0x59u, 0x04u},
 477:Generated_Source\PSoC4/cyfitter_cfg.c **** 			{0x5Au, 0x0Bu},
 478:Generated_Source\PSoC4/cyfitter_cfg.c **** 			{0x5Bu, 0x04u},
 479:Generated_Source\PSoC4/cyfitter_cfg.c **** 			{0x5Cu, 0x33u},
 480:Generated_Source\PSoC4/cyfitter_cfg.c **** 			{0x5Du, 0x39u},
 481:Generated_Source\PSoC4/cyfitter_cfg.c **** 			{0x5Fu, 0x01u},
 482:Generated_Source\PSoC4/cyfitter_cfg.c **** 			{0x60u, 0x40u},
 483:Generated_Source\PSoC4/cyfitter_cfg.c **** 			{0x62u, 0xC0u},
 484:Generated_Source\PSoC4/cyfitter_cfg.c **** 			{0x64u, 0x40u},
 485:Generated_Source\PSoC4/cyfitter_cfg.c **** 			{0x65u, 0x40u},
 486:Generated_Source\PSoC4/cyfitter_cfg.c **** 			{0x66u, 0xC0u},
 487:Generated_Source\PSoC4/cyfitter_cfg.c **** 			{0x68u, 0xC0u},
 488:Generated_Source\PSoC4/cyfitter_cfg.c **** 			{0x6Au, 0xC0u},
 489:Generated_Source\PSoC4/cyfitter_cfg.c **** 			{0x6Cu, 0xC0u},
 490:Generated_Source\PSoC4/cyfitter_cfg.c **** 			{0x6Eu, 0xC0u},
 491:Generated_Source\PSoC4/cyfitter_cfg.c **** 			{0x87u, 0x01u},
 492:Generated_Source\PSoC4/cyfitter_cfg.c **** 			{0x8Au, 0x04u},
 493:Generated_Source\PSoC4/cyfitter_cfg.c **** 			{0x8Eu, 0x02u},
 494:Generated_Source\PSoC4/cyfitter_cfg.c **** 			{0x92u, 0x01u},
 495:Generated_Source\PSoC4/cyfitter_cfg.c **** 			{0x97u, 0x04u},
 496:Generated_Source\PSoC4/cyfitter_cfg.c **** 			{0x9Au, 0x02u},
 497:Generated_Source\PSoC4/cyfitter_cfg.c **** 			{0x9Bu, 0x02u},
 498:Generated_Source\PSoC4/cyfitter_cfg.c **** 			{0x9Fu, 0x06u},
 499:Generated_Source\PSoC4/cyfitter_cfg.c **** 			{0xA1u, 0x01u},
 500:Generated_Source\PSoC4/cyfitter_cfg.c **** 			{0xB0u, 0x04u},
 501:Generated_Source\PSoC4/cyfitter_cfg.c **** 			{0xB1u, 0x01u},
 502:Generated_Source\PSoC4/cyfitter_cfg.c **** 			{0xB2u, 0x02u},
 503:Generated_Source\PSoC4/cyfitter_cfg.c **** 			{0xB3u, 0x02u},
 504:Generated_Source\PSoC4/cyfitter_cfg.c **** 			{0xB4u, 0x01u},
 505:Generated_Source\PSoC4/cyfitter_cfg.c **** 			{0xB5u, 0x04u},
 506:Generated_Source\PSoC4/cyfitter_cfg.c **** 			{0xB6u, 0x02u},
 507:Generated_Source\PSoC4/cyfitter_cfg.c **** 			{0xB9u, 0x28u},
 508:Generated_Source\PSoC4/cyfitter_cfg.c **** 			{0xBEu, 0x04u},
 509:Generated_Source\PSoC4/cyfitter_cfg.c **** 			{0xBFu, 0x14u},
 510:Generated_Source\PSoC4/cyfitter_cfg.c **** 			{0xC0u, 0x60u},
 511:Generated_Source\PSoC4/cyfitter_cfg.c **** 			{0xC1u, 0x05u},
 512:Generated_Source\PSoC4/cyfitter_cfg.c **** 			{0xC5u, 0xD1u},
 513:Generated_Source\PSoC4/cyfitter_cfg.c **** 			{0xC7u, 0x20u},
 514:Generated_Source\PSoC4/cyfitter_cfg.c **** 			{0xC8u, 0x23u},
 515:Generated_Source\PSoC4/cyfitter_cfg.c **** 			{0xC9u, 0xFFu},
 516:Generated_Source\PSoC4/cyfitter_cfg.c **** 			{0xCAu, 0xFFu},
 517:Generated_Source\PSoC4/cyfitter_cfg.c **** 			{0xCBu, 0xFFu},
 518:Generated_Source\PSoC4/cyfitter_cfg.c **** 			{0xCDu, 0xAFu},
 519:Generated_Source\PSoC4/cyfitter_cfg.c **** 			{0xCEu, 0x0Fu},
 520:Generated_Source\PSoC4/cyfitter_cfg.c **** 			{0xCFu, 0x04u},
 521:Generated_Source\PSoC4/cyfitter_cfg.c **** 			{0xD0u, 0x18u},
 522:Generated_Source\PSoC4/cyfitter_cfg.c **** 			{0xD2u, 0x80u},
ARM GAS  C:\Users\luvsd\AppData\Local\Temp\cc9ItDM1.s 			page 18


 523:Generated_Source\PSoC4/cyfitter_cfg.c **** 			{0xD4u, 0x05u},
 524:Generated_Source\PSoC4/cyfitter_cfg.c **** 			{0xD8u, 0x0Bu},
 525:Generated_Source\PSoC4/cyfitter_cfg.c **** 			{0xD9u, 0x0Bu},
 526:Generated_Source\PSoC4/cyfitter_cfg.c **** 			{0xDAu, 0x0Bu},
 527:Generated_Source\PSoC4/cyfitter_cfg.c **** 			{0xDBu, 0x0Bu},
 528:Generated_Source\PSoC4/cyfitter_cfg.c **** 			{0xDCu, 0x99u},
 529:Generated_Source\PSoC4/cyfitter_cfg.c **** 			{0xDDu, 0x99u},
 530:Generated_Source\PSoC4/cyfitter_cfg.c **** 			{0xDFu, 0x01u},
 531:Generated_Source\PSoC4/cyfitter_cfg.c **** 			{0xE0u, 0x40u},
 532:Generated_Source\PSoC4/cyfitter_cfg.c **** 			{0xE2u, 0xC0u},
 533:Generated_Source\PSoC4/cyfitter_cfg.c **** 			{0xE4u, 0x40u},
 534:Generated_Source\PSoC4/cyfitter_cfg.c **** 			{0xE5u, 0x40u},
 535:Generated_Source\PSoC4/cyfitter_cfg.c **** 			{0xE6u, 0xC0u},
 536:Generated_Source\PSoC4/cyfitter_cfg.c **** 			{0xE8u, 0xC0u},
 537:Generated_Source\PSoC4/cyfitter_cfg.c **** 			{0xEAu, 0xC0u},
 538:Generated_Source\PSoC4/cyfitter_cfg.c **** 			{0xECu, 0xC0u},
 539:Generated_Source\PSoC4/cyfitter_cfg.c **** 			{0xEEu, 0xC0u},
 540:Generated_Source\PSoC4/cyfitter_cfg.c **** 			{0x00u, 0x20u},
 541:Generated_Source\PSoC4/cyfitter_cfg.c **** 			{0x02u, 0x02u},
 542:Generated_Source\PSoC4/cyfitter_cfg.c **** 			{0x09u, 0x02u},
 543:Generated_Source\PSoC4/cyfitter_cfg.c **** 			{0x0Au, 0x08u},
 544:Generated_Source\PSoC4/cyfitter_cfg.c **** 			{0x0Eu, 0x90u},
 545:Generated_Source\PSoC4/cyfitter_cfg.c **** 			{0x17u, 0x0Au},
 546:Generated_Source\PSoC4/cyfitter_cfg.c **** 			{0x19u, 0x9Au},
 547:Generated_Source\PSoC4/cyfitter_cfg.c **** 			{0x1Au, 0x08u},
 548:Generated_Source\PSoC4/cyfitter_cfg.c **** 			{0x1Bu, 0x10u},
 549:Generated_Source\PSoC4/cyfitter_cfg.c **** 			{0x1Eu, 0x80u},
 550:Generated_Source\PSoC4/cyfitter_cfg.c **** 			{0x1Fu, 0x20u},
 551:Generated_Source\PSoC4/cyfitter_cfg.c **** 			{0x20u, 0x08u},
 552:Generated_Source\PSoC4/cyfitter_cfg.c **** 			{0x21u, 0x05u},
 553:Generated_Source\PSoC4/cyfitter_cfg.c **** 			{0x24u, 0x05u},
 554:Generated_Source\PSoC4/cyfitter_cfg.c **** 			{0x26u, 0x14u},
 555:Generated_Source\PSoC4/cyfitter_cfg.c **** 			{0x27u, 0x0Au},
 556:Generated_Source\PSoC4/cyfitter_cfg.c **** 			{0x29u, 0x02u},
 557:Generated_Source\PSoC4/cyfitter_cfg.c **** 			{0x2Cu, 0x80u},
 558:Generated_Source\PSoC4/cyfitter_cfg.c **** 			{0x2Eu, 0x90u},
 559:Generated_Source\PSoC4/cyfitter_cfg.c **** 			{0x30u, 0x20u},
 560:Generated_Source\PSoC4/cyfitter_cfg.c **** 			{0x33u, 0x84u},
 561:Generated_Source\PSoC4/cyfitter_cfg.c **** 			{0x36u, 0x14u},
 562:Generated_Source\PSoC4/cyfitter_cfg.c **** 			{0x37u, 0x01u},
 563:Generated_Source\PSoC4/cyfitter_cfg.c **** 			{0x3Bu, 0x08u},
 564:Generated_Source\PSoC4/cyfitter_cfg.c **** 			{0x3Du, 0xA0u},
 565:Generated_Source\PSoC4/cyfitter_cfg.c **** 			{0x3Eu, 0x06u},
 566:Generated_Source\PSoC4/cyfitter_cfg.c **** 			{0x40u, 0x80u},
 567:Generated_Source\PSoC4/cyfitter_cfg.c **** 			{0x41u, 0x01u},
 568:Generated_Source\PSoC4/cyfitter_cfg.c **** 			{0x46u, 0x80u},
 569:Generated_Source\PSoC4/cyfitter_cfg.c **** 			{0x47u, 0x02u},
 570:Generated_Source\PSoC4/cyfitter_cfg.c **** 			{0x48u, 0x10u},
 571:Generated_Source\PSoC4/cyfitter_cfg.c **** 			{0x49u, 0x11u},
 572:Generated_Source\PSoC4/cyfitter_cfg.c **** 			{0x4Au, 0x02u},
 573:Generated_Source\PSoC4/cyfitter_cfg.c **** 			{0x4Bu, 0x08u},
 574:Generated_Source\PSoC4/cyfitter_cfg.c **** 			{0x4Eu, 0x02u},
 575:Generated_Source\PSoC4/cyfitter_cfg.c **** 			{0x4Fu, 0x20u},
 576:Generated_Source\PSoC4/cyfitter_cfg.c **** 			{0x52u, 0x02u},
 577:Generated_Source\PSoC4/cyfitter_cfg.c **** 			{0x58u, 0x80u},
 578:Generated_Source\PSoC4/cyfitter_cfg.c **** 			{0x59u, 0x09u},
 579:Generated_Source\PSoC4/cyfitter_cfg.c **** 			{0x64u, 0x02u},
ARM GAS  C:\Users\luvsd\AppData\Local\Temp\cc9ItDM1.s 			page 19


 580:Generated_Source\PSoC4/cyfitter_cfg.c **** 			{0x66u, 0x28u},
 581:Generated_Source\PSoC4/cyfitter_cfg.c **** 			{0x6Eu, 0x40u},
 582:Generated_Source\PSoC4/cyfitter_cfg.c **** 			{0x71u, 0x02u},
 583:Generated_Source\PSoC4/cyfitter_cfg.c **** 			{0x7Au, 0x80u},
 584:Generated_Source\PSoC4/cyfitter_cfg.c **** 			{0x7Eu, 0x80u},
 585:Generated_Source\PSoC4/cyfitter_cfg.c **** 			{0x81u, 0x80u},
 586:Generated_Source\PSoC4/cyfitter_cfg.c **** 			{0x85u, 0x04u},
 587:Generated_Source\PSoC4/cyfitter_cfg.c **** 			{0x88u, 0x02u},
 588:Generated_Source\PSoC4/cyfitter_cfg.c **** 			{0x8Bu, 0x08u},
 589:Generated_Source\PSoC4/cyfitter_cfg.c **** 			{0x8Eu, 0x40u},
 590:Generated_Source\PSoC4/cyfitter_cfg.c **** 			{0x92u, 0x14u},
 591:Generated_Source\PSoC4/cyfitter_cfg.c **** 			{0x96u, 0x20u},
 592:Generated_Source\PSoC4/cyfitter_cfg.c **** 			{0x98u, 0x40u},
 593:Generated_Source\PSoC4/cyfitter_cfg.c **** 			{0x9Au, 0x22u},
 594:Generated_Source\PSoC4/cyfitter_cfg.c **** 			{0x9Bu, 0x01u},
 595:Generated_Source\PSoC4/cyfitter_cfg.c **** 			{0x9Fu, 0x1Au},
 596:Generated_Source\PSoC4/cyfitter_cfg.c **** 			{0xA0u, 0x80u},
 597:Generated_Source\PSoC4/cyfitter_cfg.c **** 			{0xA1u, 0x50u},
 598:Generated_Source\PSoC4/cyfitter_cfg.c **** 			{0xA3u, 0x08u},
 599:Generated_Source\PSoC4/cyfitter_cfg.c **** 			{0xA6u, 0x04u},
 600:Generated_Source\PSoC4/cyfitter_cfg.c **** 			{0xA7u, 0x80u},
 601:Generated_Source\PSoC4/cyfitter_cfg.c **** 			{0xAAu, 0x18u},
 602:Generated_Source\PSoC4/cyfitter_cfg.c **** 			{0xABu, 0x02u},
 603:Generated_Source\PSoC4/cyfitter_cfg.c **** 			{0xADu, 0x01u},
 604:Generated_Source\PSoC4/cyfitter_cfg.c **** 			{0xB0u, 0x50u},
 605:Generated_Source\PSoC4/cyfitter_cfg.c **** 			{0xB1u, 0x80u},
 606:Generated_Source\PSoC4/cyfitter_cfg.c **** 			{0xB3u, 0x10u},
 607:Generated_Source\PSoC4/cyfitter_cfg.c **** 			{0xB6u, 0x40u},
 608:Generated_Source\PSoC4/cyfitter_cfg.c **** 			{0xC0u, 0x03u},
 609:Generated_Source\PSoC4/cyfitter_cfg.c **** 			{0xC2u, 0x3Au},
 610:Generated_Source\PSoC4/cyfitter_cfg.c **** 			{0xC4u, 0x30u},
 611:Generated_Source\PSoC4/cyfitter_cfg.c **** 			{0xCAu, 0xB1u},
 612:Generated_Source\PSoC4/cyfitter_cfg.c **** 			{0xCCu, 0xEEu},
 613:Generated_Source\PSoC4/cyfitter_cfg.c **** 			{0xCEu, 0xF2u},
 614:Generated_Source\PSoC4/cyfitter_cfg.c **** 			{0xD2u, 0x3Cu},
 615:Generated_Source\PSoC4/cyfitter_cfg.c **** 			{0xD6u, 0x0Bu},
 616:Generated_Source\PSoC4/cyfitter_cfg.c **** 			{0xD8u, 0x70u},
 617:Generated_Source\PSoC4/cyfitter_cfg.c **** 			{0xDEu, 0x81u},
 618:Generated_Source\PSoC4/cyfitter_cfg.c **** 			{0xE0u, 0x08u},
 619:Generated_Source\PSoC4/cyfitter_cfg.c **** 			{0xE6u, 0x40u},
 620:Generated_Source\PSoC4/cyfitter_cfg.c **** 			{0xECu, 0x02u},
 621:Generated_Source\PSoC4/cyfitter_cfg.c **** 			{0xEEu, 0x40u},
 622:Generated_Source\PSoC4/cyfitter_cfg.c **** 			{0x00u, 0x52u},
 623:Generated_Source\PSoC4/cyfitter_cfg.c **** 			{0x02u, 0xA4u},
 624:Generated_Source\PSoC4/cyfitter_cfg.c **** 			{0x04u, 0x31u},
 625:Generated_Source\PSoC4/cyfitter_cfg.c **** 			{0x06u, 0x42u},
 626:Generated_Source\PSoC4/cyfitter_cfg.c **** 			{0x08u, 0x02u},
 627:Generated_Source\PSoC4/cyfitter_cfg.c **** 			{0x0Au, 0x0Du},
 628:Generated_Source\PSoC4/cyfitter_cfg.c **** 			{0x0Cu, 0xE0u},
 629:Generated_Source\PSoC4/cyfitter_cfg.c **** 			{0x0Du, 0x01u},
 630:Generated_Source\PSoC4/cyfitter_cfg.c **** 			{0x10u, 0x0Du},
 631:Generated_Source\PSoC4/cyfitter_cfg.c **** 			{0x14u, 0x42u},
 632:Generated_Source\PSoC4/cyfitter_cfg.c **** 			{0x16u, 0x98u},
 633:Generated_Source\PSoC4/cyfitter_cfg.c **** 			{0x17u, 0x03u},
 634:Generated_Source\PSoC4/cyfitter_cfg.c **** 			{0x18u, 0x0Du},
 635:Generated_Source\PSoC4/cyfitter_cfg.c **** 			{0x1Cu, 0x0Du},
 636:Generated_Source\PSoC4/cyfitter_cfg.c **** 			{0x1Du, 0x04u},
ARM GAS  C:\Users\luvsd\AppData\Local\Temp\cc9ItDM1.s 			page 20


 637:Generated_Source\PSoC4/cyfitter_cfg.c **** 			{0x20u, 0x0Du},
 638:Generated_Source\PSoC4/cyfitter_cfg.c **** 			{0x27u, 0x04u},
 639:Generated_Source\PSoC4/cyfitter_cfg.c **** 			{0x28u, 0x0Du},
 640:Generated_Source\PSoC4/cyfitter_cfg.c **** 			{0x30u, 0xF0u},
 641:Generated_Source\PSoC4/cyfitter_cfg.c **** 			{0x31u, 0x02u},
 642:Generated_Source\PSoC4/cyfitter_cfg.c **** 			{0x33u, 0x04u},
 643:Generated_Source\PSoC4/cyfitter_cfg.c **** 			{0x34u, 0x0Fu},
 644:Generated_Source\PSoC4/cyfitter_cfg.c **** 			{0x35u, 0x01u},
 645:Generated_Source\PSoC4/cyfitter_cfg.c **** 			{0x38u, 0x02u},
 646:Generated_Source\PSoC4/cyfitter_cfg.c **** 			{0x39u, 0x08u},
 647:Generated_Source\PSoC4/cyfitter_cfg.c **** 			{0x3Au, 0x20u},
 648:Generated_Source\PSoC4/cyfitter_cfg.c **** 			{0x56u, 0x08u},
 649:Generated_Source\PSoC4/cyfitter_cfg.c **** 			{0x58u, 0x04u},
 650:Generated_Source\PSoC4/cyfitter_cfg.c **** 			{0x59u, 0x04u},
 651:Generated_Source\PSoC4/cyfitter_cfg.c **** 			{0x5Bu, 0x04u},
 652:Generated_Source\PSoC4/cyfitter_cfg.c **** 			{0x5Cu, 0x23u},
 653:Generated_Source\PSoC4/cyfitter_cfg.c **** 			{0x5Du, 0x90u},
 654:Generated_Source\PSoC4/cyfitter_cfg.c **** 			{0x5Fu, 0x01u},
 655:Generated_Source\PSoC4/cyfitter_cfg.c **** 			{0x80u, 0x4Du},
 656:Generated_Source\PSoC4/cyfitter_cfg.c **** 			{0x81u, 0x01u},
 657:Generated_Source\PSoC4/cyfitter_cfg.c **** 			{0x82u, 0x80u},
 658:Generated_Source\PSoC4/cyfitter_cfg.c **** 			{0x84u, 0x02u},
 659:Generated_Source\PSoC4/cyfitter_cfg.c **** 			{0x85u, 0x01u},
 660:Generated_Source\PSoC4/cyfitter_cfg.c **** 			{0x86u, 0x0Du},
 661:Generated_Source\PSoC4/cyfitter_cfg.c **** 			{0x88u, 0xCDu},
 662:Generated_Source\PSoC4/cyfitter_cfg.c **** 			{0x89u, 0x01u},
 663:Generated_Source\PSoC4/cyfitter_cfg.c **** 			{0x8Cu, 0x01u},
 664:Generated_Source\PSoC4/cyfitter_cfg.c **** 			{0x8Eu, 0x32u},
 665:Generated_Source\PSoC4/cyfitter_cfg.c **** 			{0x8Fu, 0x04u},
 666:Generated_Source\PSoC4/cyfitter_cfg.c **** 			{0x92u, 0x80u},
 667:Generated_Source\PSoC4/cyfitter_cfg.c **** 			{0x93u, 0x01u},
 668:Generated_Source\PSoC4/cyfitter_cfg.c **** 			{0x94u, 0x8Du},
 669:Generated_Source\PSoC4/cyfitter_cfg.c **** 			{0x95u, 0x10u},
 670:Generated_Source\PSoC4/cyfitter_cfg.c **** 			{0x96u, 0x40u},
 671:Generated_Source\PSoC4/cyfitter_cfg.c **** 			{0x97u, 0x66u},
 672:Generated_Source\PSoC4/cyfitter_cfg.c **** 			{0x98u, 0x12u},
 673:Generated_Source\PSoC4/cyfitter_cfg.c **** 			{0x99u, 0x38u},
 674:Generated_Source\PSoC4/cyfitter_cfg.c **** 			{0x9Au, 0x64u},
 675:Generated_Source\PSoC4/cyfitter_cfg.c **** 			{0x9Cu, 0x10u},
 676:Generated_Source\PSoC4/cyfitter_cfg.c **** 			{0x9Eu, 0x60u},
 677:Generated_Source\PSoC4/cyfitter_cfg.c **** 			{0xA0u, 0xCDu},
 678:Generated_Source\PSoC4/cyfitter_cfg.c **** 			{0xA1u, 0x01u},
 679:Generated_Source\PSoC4/cyfitter_cfg.c **** 			{0xA4u, 0x72u},
 680:Generated_Source\PSoC4/cyfitter_cfg.c **** 			{0xA5u, 0x50u},
 681:Generated_Source\PSoC4/cyfitter_cfg.c **** 			{0xA6u, 0x08u},
 682:Generated_Source\PSoC4/cyfitter_cfg.c **** 			{0xA7u, 0x2Eu},
 683:Generated_Source\PSoC4/cyfitter_cfg.c **** 			{0xABu, 0x01u},
 684:Generated_Source\PSoC4/cyfitter_cfg.c **** 			{0xACu, 0xCDu},
 685:Generated_Source\PSoC4/cyfitter_cfg.c **** 			{0xADu, 0x4Au},
 686:Generated_Source\PSoC4/cyfitter_cfg.c **** 			{0xAFu, 0x10u},
 687:Generated_Source\PSoC4/cyfitter_cfg.c **** 			{0xB2u, 0x0Fu},
 688:Generated_Source\PSoC4/cyfitter_cfg.c **** 			{0xB3u, 0x78u},
 689:Generated_Source\PSoC4/cyfitter_cfg.c **** 			{0xB4u, 0x80u},
 690:Generated_Source\PSoC4/cyfitter_cfg.c **** 			{0xB5u, 0x01u},
 691:Generated_Source\PSoC4/cyfitter_cfg.c **** 			{0xB6u, 0x70u},
 692:Generated_Source\PSoC4/cyfitter_cfg.c **** 			{0xB7u, 0x06u},
 693:Generated_Source\PSoC4/cyfitter_cfg.c **** 			{0xB9u, 0x08u},
ARM GAS  C:\Users\luvsd\AppData\Local\Temp\cc9ItDM1.s 			page 21


 694:Generated_Source\PSoC4/cyfitter_cfg.c **** 			{0xBAu, 0x88u},
 695:Generated_Source\PSoC4/cyfitter_cfg.c **** 			{0xBEu, 0x10u},
 696:Generated_Source\PSoC4/cyfitter_cfg.c **** 			{0xBFu, 0x10u},
 697:Generated_Source\PSoC4/cyfitter_cfg.c **** 			{0xD4u, 0x40u},
 698:Generated_Source\PSoC4/cyfitter_cfg.c **** 			{0xD8u, 0x04u},
 699:Generated_Source\PSoC4/cyfitter_cfg.c **** 			{0xD9u, 0x04u},
 700:Generated_Source\PSoC4/cyfitter_cfg.c **** 			{0xDBu, 0x04u},
 701:Generated_Source\PSoC4/cyfitter_cfg.c **** 			{0xDCu, 0x11u},
 702:Generated_Source\PSoC4/cyfitter_cfg.c **** 			{0xDDu, 0x10u},
 703:Generated_Source\PSoC4/cyfitter_cfg.c **** 			{0xDFu, 0x01u},
 704:Generated_Source\PSoC4/cyfitter_cfg.c **** 			{0x00u, 0x45u},
 705:Generated_Source\PSoC4/cyfitter_cfg.c **** 			{0x01u, 0x20u},
 706:Generated_Source\PSoC4/cyfitter_cfg.c **** 			{0x04u, 0x20u},
 707:Generated_Source\PSoC4/cyfitter_cfg.c **** 			{0x05u, 0x84u},
 708:Generated_Source\PSoC4/cyfitter_cfg.c **** 			{0x07u, 0x40u},
 709:Generated_Source\PSoC4/cyfitter_cfg.c **** 			{0x08u, 0x02u},
 710:Generated_Source\PSoC4/cyfitter_cfg.c **** 			{0x0Au, 0x15u},
 711:Generated_Source\PSoC4/cyfitter_cfg.c **** 			{0x0Cu, 0x13u},
 712:Generated_Source\PSoC4/cyfitter_cfg.c **** 			{0x0Eu, 0x22u},
 713:Generated_Source\PSoC4/cyfitter_cfg.c **** 			{0x10u, 0x80u},
 714:Generated_Source\PSoC4/cyfitter_cfg.c **** 			{0x11u, 0x20u},
 715:Generated_Source\PSoC4/cyfitter_cfg.c **** 			{0x15u, 0x01u},
 716:Generated_Source\PSoC4/cyfitter_cfg.c **** 			{0x16u, 0x01u},
 717:Generated_Source\PSoC4/cyfitter_cfg.c **** 			{0x17u, 0x08u},
 718:Generated_Source\PSoC4/cyfitter_cfg.c **** 			{0x18u, 0x40u},
 719:Generated_Source\PSoC4/cyfitter_cfg.c **** 			{0x19u, 0x20u},
 720:Generated_Source\PSoC4/cyfitter_cfg.c **** 			{0x1Cu, 0x02u},
 721:Generated_Source\PSoC4/cyfitter_cfg.c **** 			{0x1Du, 0x04u},
 722:Generated_Source\PSoC4/cyfitter_cfg.c **** 			{0x1Eu, 0x02u},
 723:Generated_Source\PSoC4/cyfitter_cfg.c **** 			{0x1Fu, 0x10u},
 724:Generated_Source\PSoC4/cyfitter_cfg.c **** 			{0x22u, 0x18u},
 725:Generated_Source\PSoC4/cyfitter_cfg.c **** 			{0x23u, 0x40u},
 726:Generated_Source\PSoC4/cyfitter_cfg.c **** 			{0x25u, 0x60u},
 727:Generated_Source\PSoC4/cyfitter_cfg.c **** 			{0x27u, 0x20u},
 728:Generated_Source\PSoC4/cyfitter_cfg.c **** 			{0x28u, 0x20u},
 729:Generated_Source\PSoC4/cyfitter_cfg.c **** 			{0x2Cu, 0x90u},
 730:Generated_Source\PSoC4/cyfitter_cfg.c **** 			{0x2Du, 0x84u},
 731:Generated_Source\PSoC4/cyfitter_cfg.c **** 			{0x2Fu, 0x08u},
 732:Generated_Source\PSoC4/cyfitter_cfg.c **** 			{0x32u, 0x48u},
 733:Generated_Source\PSoC4/cyfitter_cfg.c **** 			{0x34u, 0x02u},
 734:Generated_Source\PSoC4/cyfitter_cfg.c **** 			{0x37u, 0x29u},
 735:Generated_Source\PSoC4/cyfitter_cfg.c **** 			{0x3Bu, 0x40u},
 736:Generated_Source\PSoC4/cyfitter_cfg.c **** 			{0x3Du, 0xA0u},
 737:Generated_Source\PSoC4/cyfitter_cfg.c **** 			{0x3Eu, 0x07u},
 738:Generated_Source\PSoC4/cyfitter_cfg.c **** 			{0x45u, 0x20u},
 739:Generated_Source\PSoC4/cyfitter_cfg.c **** 			{0x46u, 0x08u},
 740:Generated_Source\PSoC4/cyfitter_cfg.c **** 			{0x58u, 0x40u},
 741:Generated_Source\PSoC4/cyfitter_cfg.c **** 			{0x62u, 0x80u},
 742:Generated_Source\PSoC4/cyfitter_cfg.c **** 			{0x64u, 0x01u},
 743:Generated_Source\PSoC4/cyfitter_cfg.c **** 			{0x66u, 0x10u},
 744:Generated_Source\PSoC4/cyfitter_cfg.c **** 			{0x67u, 0x20u},
 745:Generated_Source\PSoC4/cyfitter_cfg.c **** 			{0x68u, 0x20u},
 746:Generated_Source\PSoC4/cyfitter_cfg.c **** 			{0x6Bu, 0x04u},
 747:Generated_Source\PSoC4/cyfitter_cfg.c **** 			{0x6Fu, 0x02u},
 748:Generated_Source\PSoC4/cyfitter_cfg.c **** 			{0x87u, 0x02u},
 749:Generated_Source\PSoC4/cyfitter_cfg.c **** 			{0x8Bu, 0x80u},
 750:Generated_Source\PSoC4/cyfitter_cfg.c **** 			{0x8Fu, 0x20u},
ARM GAS  C:\Users\luvsd\AppData\Local\Temp\cc9ItDM1.s 			page 22


 751:Generated_Source\PSoC4/cyfitter_cfg.c **** 			{0x90u, 0x05u},
 752:Generated_Source\PSoC4/cyfitter_cfg.c **** 			{0x92u, 0x14u},
 753:Generated_Source\PSoC4/cyfitter_cfg.c **** 			{0x96u, 0x20u},
 754:Generated_Source\PSoC4/cyfitter_cfg.c **** 			{0x98u, 0x40u},
 755:Generated_Source\PSoC4/cyfitter_cfg.c **** 			{0x9Au, 0x02u},
 756:Generated_Source\PSoC4/cyfitter_cfg.c **** 			{0x9Bu, 0x01u},
 757:Generated_Source\PSoC4/cyfitter_cfg.c **** 			{0x9Eu, 0x08u},
 758:Generated_Source\PSoC4/cyfitter_cfg.c **** 			{0x9Fu, 0x04u},
 759:Generated_Source\PSoC4/cyfitter_cfg.c **** 			{0xA0u, 0x80u},
 760:Generated_Source\PSoC4/cyfitter_cfg.c **** 			{0xA1u, 0x10u},
 761:Generated_Source\PSoC4/cyfitter_cfg.c **** 			{0xA3u, 0x08u},
 762:Generated_Source\PSoC4/cyfitter_cfg.c **** 			{0xA4u, 0x20u},
 763:Generated_Source\PSoC4/cyfitter_cfg.c **** 			{0xA6u, 0x80u},
 764:Generated_Source\PSoC4/cyfitter_cfg.c **** 			{0xA7u, 0x80u},
 765:Generated_Source\PSoC4/cyfitter_cfg.c **** 			{0xABu, 0x30u},
 766:Generated_Source\PSoC4/cyfitter_cfg.c **** 			{0xB0u, 0x04u},
 767:Generated_Source\PSoC4/cyfitter_cfg.c **** 			{0xC0u, 0xFFu},
 768:Generated_Source\PSoC4/cyfitter_cfg.c **** 			{0xC2u, 0xFFu},
 769:Generated_Source\PSoC4/cyfitter_cfg.c **** 			{0xC4u, 0xBAu},
 770:Generated_Source\PSoC4/cyfitter_cfg.c **** 			{0xCAu, 0xF2u},
 771:Generated_Source\PSoC4/cyfitter_cfg.c **** 			{0xCCu, 0xEAu},
 772:Generated_Source\PSoC4/cyfitter_cfg.c **** 			{0xCEu, 0xF8u},
 773:Generated_Source\PSoC4/cyfitter_cfg.c **** 			{0xD6u, 0x08u},
 774:Generated_Source\PSoC4/cyfitter_cfg.c **** 			{0xD8u, 0x78u},
 775:Generated_Source\PSoC4/cyfitter_cfg.c **** 			{0xE0u, 0x80u},
 776:Generated_Source\PSoC4/cyfitter_cfg.c **** 			{0xE6u, 0x10u},
 777:Generated_Source\PSoC4/cyfitter_cfg.c **** 			{0x80u, 0x13u},
 778:Generated_Source\PSoC4/cyfitter_cfg.c **** 			{0x82u, 0x2Cu},
 779:Generated_Source\PSoC4/cyfitter_cfg.c **** 			{0x88u, 0x02u},
 780:Generated_Source\PSoC4/cyfitter_cfg.c **** 			{0x8Au, 0x0Du},
 781:Generated_Source\PSoC4/cyfitter_cfg.c **** 			{0xA4u, 0x35u},
 782:Generated_Source\PSoC4/cyfitter_cfg.c **** 			{0xA6u, 0x0Au},
 783:Generated_Source\PSoC4/cyfitter_cfg.c **** 			{0xA8u, 0x19u},
 784:Generated_Source\PSoC4/cyfitter_cfg.c **** 			{0xAAu, 0x26u},
 785:Generated_Source\PSoC4/cyfitter_cfg.c **** 			{0xB2u, 0x0Fu},
 786:Generated_Source\PSoC4/cyfitter_cfg.c **** 			{0xB4u, 0x20u},
 787:Generated_Source\PSoC4/cyfitter_cfg.c **** 			{0xB6u, 0x10u},
 788:Generated_Source\PSoC4/cyfitter_cfg.c **** 			{0xBAu, 0x08u},
 789:Generated_Source\PSoC4/cyfitter_cfg.c **** 			{0xBEu, 0x50u},
 790:Generated_Source\PSoC4/cyfitter_cfg.c **** 			{0xD4u, 0x09u},
 791:Generated_Source\PSoC4/cyfitter_cfg.c **** 			{0xD8u, 0x04u},
 792:Generated_Source\PSoC4/cyfitter_cfg.c **** 			{0xDBu, 0x04u},
 793:Generated_Source\PSoC4/cyfitter_cfg.c **** 			{0xDCu, 0x01u},
 794:Generated_Source\PSoC4/cyfitter_cfg.c **** 			{0xDDu, 0x10u},
 795:Generated_Source\PSoC4/cyfitter_cfg.c **** 			{0xDFu, 0x01u},
 796:Generated_Source\PSoC4/cyfitter_cfg.c **** 			{0x00u, 0x10u},
 797:Generated_Source\PSoC4/cyfitter_cfg.c **** 			{0x02u, 0x80u},
 798:Generated_Source\PSoC4/cyfitter_cfg.c **** 			{0x04u, 0x22u},
 799:Generated_Source\PSoC4/cyfitter_cfg.c **** 			{0x06u, 0x22u},
 800:Generated_Source\PSoC4/cyfitter_cfg.c **** 			{0x0Du, 0x02u},
 801:Generated_Source\PSoC4/cyfitter_cfg.c **** 			{0x0Eu, 0x20u},
 802:Generated_Source\PSoC4/cyfitter_cfg.c **** 			{0x0Fu, 0x0Au},
 803:Generated_Source\PSoC4/cyfitter_cfg.c **** 			{0x11u, 0x2Cu},
 804:Generated_Source\PSoC4/cyfitter_cfg.c **** 			{0x15u, 0x41u},
 805:Generated_Source\PSoC4/cyfitter_cfg.c **** 			{0x17u, 0x48u},
 806:Generated_Source\PSoC4/cyfitter_cfg.c **** 			{0x18u, 0x11u},
 807:Generated_Source\PSoC4/cyfitter_cfg.c **** 			{0x19u, 0x24u},
ARM GAS  C:\Users\luvsd\AppData\Local\Temp\cc9ItDM1.s 			page 23


 808:Generated_Source\PSoC4/cyfitter_cfg.c **** 			{0x1Du, 0x02u},
 809:Generated_Source\PSoC4/cyfitter_cfg.c **** 			{0x1Eu, 0x01u},
 810:Generated_Source\PSoC4/cyfitter_cfg.c **** 			{0x24u, 0x02u},
 811:Generated_Source\PSoC4/cyfitter_cfg.c **** 			{0x25u, 0x14u},
 812:Generated_Source\PSoC4/cyfitter_cfg.c **** 			{0x26u, 0x80u},
 813:Generated_Source\PSoC4/cyfitter_cfg.c **** 			{0x27u, 0x08u},
 814:Generated_Source\PSoC4/cyfitter_cfg.c **** 			{0x2Du, 0x01u},
 815:Generated_Source\PSoC4/cyfitter_cfg.c **** 			{0x2Eu, 0xA0u},
 816:Generated_Source\PSoC4/cyfitter_cfg.c **** 			{0x36u, 0x90u},
 817:Generated_Source\PSoC4/cyfitter_cfg.c **** 			{0x37u, 0x09u},
 818:Generated_Source\PSoC4/cyfitter_cfg.c **** 			{0x3Cu, 0x82u},
 819:Generated_Source\PSoC4/cyfitter_cfg.c **** 			{0x3Eu, 0x04u},
 820:Generated_Source\PSoC4/cyfitter_cfg.c **** 			{0x3Fu, 0x02u},
 821:Generated_Source\PSoC4/cyfitter_cfg.c **** 			{0x45u, 0x14u},
 822:Generated_Source\PSoC4/cyfitter_cfg.c **** 			{0x46u, 0x20u},
 823:Generated_Source\PSoC4/cyfitter_cfg.c **** 			{0x47u, 0x02u},
 824:Generated_Source\PSoC4/cyfitter_cfg.c **** 			{0x4Cu, 0x01u},
 825:Generated_Source\PSoC4/cyfitter_cfg.c **** 			{0x4Du, 0x88u},
 826:Generated_Source\PSoC4/cyfitter_cfg.c **** 			{0x4Fu, 0x20u},
 827:Generated_Source\PSoC4/cyfitter_cfg.c **** 			{0x54u, 0x02u},
 828:Generated_Source\PSoC4/cyfitter_cfg.c **** 			{0x56u, 0x90u},
 829:Generated_Source\PSoC4/cyfitter_cfg.c **** 			{0x57u, 0x04u},
 830:Generated_Source\PSoC4/cyfitter_cfg.c **** 			{0x58u, 0x80u},
 831:Generated_Source\PSoC4/cyfitter_cfg.c **** 			{0x59u, 0x08u},
 832:Generated_Source\PSoC4/cyfitter_cfg.c **** 			{0x5Au, 0x01u},
 833:Generated_Source\PSoC4/cyfitter_cfg.c **** 			{0x5Bu, 0x22u},
 834:Generated_Source\PSoC4/cyfitter_cfg.c **** 			{0x60u, 0x01u},
 835:Generated_Source\PSoC4/cyfitter_cfg.c **** 			{0x65u, 0x04u},
 836:Generated_Source\PSoC4/cyfitter_cfg.c **** 			{0x6Au, 0x80u},
 837:Generated_Source\PSoC4/cyfitter_cfg.c **** 			{0x6Cu, 0x10u},
 838:Generated_Source\PSoC4/cyfitter_cfg.c **** 			{0x6Du, 0x41u},
 839:Generated_Source\PSoC4/cyfitter_cfg.c **** 			{0x6Eu, 0x24u},
 840:Generated_Source\PSoC4/cyfitter_cfg.c **** 			{0x6Fu, 0x01u},
 841:Generated_Source\PSoC4/cyfitter_cfg.c **** 			{0x74u, 0x40u},
 842:Generated_Source\PSoC4/cyfitter_cfg.c **** 			{0x76u, 0x03u},
 843:Generated_Source\PSoC4/cyfitter_cfg.c **** 			{0x80u, 0x80u},
 844:Generated_Source\PSoC4/cyfitter_cfg.c **** 			{0x81u, 0x22u},
 845:Generated_Source\PSoC4/cyfitter_cfg.c **** 			{0x86u, 0x80u},
 846:Generated_Source\PSoC4/cyfitter_cfg.c **** 			{0x87u, 0x20u},
 847:Generated_Source\PSoC4/cyfitter_cfg.c **** 			{0x94u, 0x20u},
 848:Generated_Source\PSoC4/cyfitter_cfg.c **** 			{0x95u, 0x05u},
 849:Generated_Source\PSoC4/cyfitter_cfg.c **** 			{0x96u, 0x80u},
 850:Generated_Source\PSoC4/cyfitter_cfg.c **** 			{0x9Du, 0x80u},
 851:Generated_Source\PSoC4/cyfitter_cfg.c **** 			{0x9Eu, 0x11u},
 852:Generated_Source\PSoC4/cyfitter_cfg.c **** 			{0x9Fu, 0x48u},
 853:Generated_Source\PSoC4/cyfitter_cfg.c **** 			{0xA0u, 0x01u},
 854:Generated_Source\PSoC4/cyfitter_cfg.c **** 			{0xA3u, 0x10u},
 855:Generated_Source\PSoC4/cyfitter_cfg.c **** 			{0xA4u, 0x02u},
 856:Generated_Source\PSoC4/cyfitter_cfg.c **** 			{0xA6u, 0x10u},
 857:Generated_Source\PSoC4/cyfitter_cfg.c **** 			{0xA8u, 0x20u},
 858:Generated_Source\PSoC4/cyfitter_cfg.c **** 			{0xABu, 0x10u},
 859:Generated_Source\PSoC4/cyfitter_cfg.c **** 			{0xB1u, 0x40u},
 860:Generated_Source\PSoC4/cyfitter_cfg.c **** 			{0xC0u, 0xFAu},
 861:Generated_Source\PSoC4/cyfitter_cfg.c **** 			{0xC2u, 0xF0u},
 862:Generated_Source\PSoC4/cyfitter_cfg.c **** 			{0xC4u, 0xB6u},
 863:Generated_Source\PSoC4/cyfitter_cfg.c **** 			{0xCAu, 0xB0u},
 864:Generated_Source\PSoC4/cyfitter_cfg.c **** 			{0xCCu, 0xF0u},
ARM GAS  C:\Users\luvsd\AppData\Local\Temp\cc9ItDM1.s 			page 24


 865:Generated_Source\PSoC4/cyfitter_cfg.c **** 			{0xCEu, 0xD0u},
 866:Generated_Source\PSoC4/cyfitter_cfg.c **** 			{0xD0u, 0xE0u},
 867:Generated_Source\PSoC4/cyfitter_cfg.c **** 			{0xD2u, 0x30u},
 868:Generated_Source\PSoC4/cyfitter_cfg.c **** 			{0xD6u, 0x0Fu},
 869:Generated_Source\PSoC4/cyfitter_cfg.c **** 			{0xD8u, 0x48u},
 870:Generated_Source\PSoC4/cyfitter_cfg.c **** 			{0xE2u, 0x80u},
 871:Generated_Source\PSoC4/cyfitter_cfg.c **** 			{0xEEu, 0x24u},
 872:Generated_Source\PSoC4/cyfitter_cfg.c **** 			{0x68u, 0x01u},
 873:Generated_Source\PSoC4/cyfitter_cfg.c **** 			{0x6Fu, 0x10u},
 874:Generated_Source\PSoC4/cyfitter_cfg.c **** 			{0x71u, 0x10u},
 875:Generated_Source\PSoC4/cyfitter_cfg.c **** 			{0xDAu, 0xC0u},
 876:Generated_Source\PSoC4/cyfitter_cfg.c **** 			{0xDCu, 0x20u},
 877:Generated_Source\PSoC4/cyfitter_cfg.c **** 			{0x09u, 0x04u},
 878:Generated_Source\PSoC4/cyfitter_cfg.c **** 			{0x54u, 0x02u},
 879:Generated_Source\PSoC4/cyfitter_cfg.c **** 			{0x57u, 0x80u},
 880:Generated_Source\PSoC4/cyfitter_cfg.c **** 			{0x59u, 0x80u},
 881:Generated_Source\PSoC4/cyfitter_cfg.c **** 			{0x83u, 0x10u},
 882:Generated_Source\PSoC4/cyfitter_cfg.c **** 			{0x8Du, 0x80u},
 883:Generated_Source\PSoC4/cyfitter_cfg.c **** 			{0x9Fu, 0x10u},
 884:Generated_Source\PSoC4/cyfitter_cfg.c **** 			{0xA0u, 0x02u},
 885:Generated_Source\PSoC4/cyfitter_cfg.c **** 			{0xA4u, 0x01u},
 886:Generated_Source\PSoC4/cyfitter_cfg.c **** 			{0xA9u, 0x10u},
 887:Generated_Source\PSoC4/cyfitter_cfg.c **** 			{0xB4u, 0x02u},
 888:Generated_Source\PSoC4/cyfitter_cfg.c **** 			{0xC2u, 0x10u},
 889:Generated_Source\PSoC4/cyfitter_cfg.c **** 			{0xD4u, 0xC0u},
 890:Generated_Source\PSoC4/cyfitter_cfg.c **** 			{0xD6u, 0x20u},
 891:Generated_Source\PSoC4/cyfitter_cfg.c **** 			{0xE2u, 0x20u},
 892:Generated_Source\PSoC4/cyfitter_cfg.c **** 			{0xEEu, 0x20u},
 893:Generated_Source\PSoC4/cyfitter_cfg.c **** 			{0x07u, 0x40u},
 894:Generated_Source\PSoC4/cyfitter_cfg.c **** 			{0x10u, 0x40u},
 895:Generated_Source\PSoC4/cyfitter_cfg.c **** 			{0x55u, 0x08u},
 896:Generated_Source\PSoC4/cyfitter_cfg.c **** 			{0x5Fu, 0x20u},
 897:Generated_Source\PSoC4/cyfitter_cfg.c **** 			{0x62u, 0x02u},
 898:Generated_Source\PSoC4/cyfitter_cfg.c **** 			{0x67u, 0x80u},
 899:Generated_Source\PSoC4/cyfitter_cfg.c **** 			{0x87u, 0x40u},
 900:Generated_Source\PSoC4/cyfitter_cfg.c **** 			{0x88u, 0x40u},
 901:Generated_Source\PSoC4/cyfitter_cfg.c **** 			{0x8Eu, 0x02u},
 902:Generated_Source\PSoC4/cyfitter_cfg.c **** 			{0xA4u, 0x01u},
 903:Generated_Source\PSoC4/cyfitter_cfg.c **** 			{0xA9u, 0x04u},
 904:Generated_Source\PSoC4/cyfitter_cfg.c **** 			{0xABu, 0x80u},
 905:Generated_Source\PSoC4/cyfitter_cfg.c **** 			{0xC0u, 0x20u},
 906:Generated_Source\PSoC4/cyfitter_cfg.c **** 			{0xC4u, 0x10u},
 907:Generated_Source\PSoC4/cyfitter_cfg.c **** 			{0xD4u, 0x40u},
 908:Generated_Source\PSoC4/cyfitter_cfg.c **** 			{0xD6u, 0x20u},
 909:Generated_Source\PSoC4/cyfitter_cfg.c **** 			{0xD8u, 0xC0u},
 910:Generated_Source\PSoC4/cyfitter_cfg.c **** 			{0xE2u, 0x10u},
 911:Generated_Source\PSoC4/cyfitter_cfg.c **** 			{0xE8u, 0x20u},
 912:Generated_Source\PSoC4/cyfitter_cfg.c **** 			{0xEEu, 0x20u},
 913:Generated_Source\PSoC4/cyfitter_cfg.c **** 			{0x81u, 0x08u},
 914:Generated_Source\PSoC4/cyfitter_cfg.c **** 			{0x88u, 0x01u},
 915:Generated_Source\PSoC4/cyfitter_cfg.c **** 			{0xA4u, 0x01u},
 916:Generated_Source\PSoC4/cyfitter_cfg.c **** 			{0xA5u, 0x08u},
 917:Generated_Source\PSoC4/cyfitter_cfg.c **** 			{0xABu, 0x40u},
 918:Generated_Source\PSoC4/cyfitter_cfg.c **** 			{0xB3u, 0x20u},
 919:Generated_Source\PSoC4/cyfitter_cfg.c **** 			{0xE2u, 0x80u},
 920:Generated_Source\PSoC4/cyfitter_cfg.c **** 			{0xECu, 0x80u},
 921:Generated_Source\PSoC4/cyfitter_cfg.c **** 			{0x26u, 0x10u},
ARM GAS  C:\Users\luvsd\AppData\Local\Temp\cc9ItDM1.s 			page 25


 922:Generated_Source\PSoC4/cyfitter_cfg.c **** 			{0x53u, 0x42u},
 923:Generated_Source\PSoC4/cyfitter_cfg.c **** 			{0x56u, 0x20u},
 924:Generated_Source\PSoC4/cyfitter_cfg.c **** 			{0x5Cu, 0x02u},
 925:Generated_Source\PSoC4/cyfitter_cfg.c **** 			{0x5Fu, 0x40u},
 926:Generated_Source\PSoC4/cyfitter_cfg.c **** 			{0x65u, 0x20u},
 927:Generated_Source\PSoC4/cyfitter_cfg.c **** 			{0x82u, 0x20u},
 928:Generated_Source\PSoC4/cyfitter_cfg.c **** 			{0x85u, 0x20u},
 929:Generated_Source\PSoC4/cyfitter_cfg.c **** 			{0xC8u, 0x04u},
 930:Generated_Source\PSoC4/cyfitter_cfg.c **** 			{0xD4u, 0x07u},
 931:Generated_Source\PSoC4/cyfitter_cfg.c **** 			{0xD6u, 0x05u},
 932:Generated_Source\PSoC4/cyfitter_cfg.c **** 			{0xD8u, 0x01u},
 933:Generated_Source\PSoC4/cyfitter_cfg.c **** 			{0x04u, 0x40u},
 934:Generated_Source\PSoC4/cyfitter_cfg.c **** 			{0x87u, 0x02u},
 935:Generated_Source\PSoC4/cyfitter_cfg.c **** 			{0x9Cu, 0x02u},
 936:Generated_Source\PSoC4/cyfitter_cfg.c **** 			{0xA7u, 0x02u},
 937:Generated_Source\PSoC4/cyfitter_cfg.c **** 			{0xAFu, 0x40u},
 938:Generated_Source\PSoC4/cyfitter_cfg.c **** 			{0xB2u, 0x10u},
 939:Generated_Source\PSoC4/cyfitter_cfg.c **** 			{0xB3u, 0x40u},
 940:Generated_Source\PSoC4/cyfitter_cfg.c **** 			{0xC0u, 0x01u},
 941:Generated_Source\PSoC4/cyfitter_cfg.c **** 			{0xEAu, 0x01u},
 942:Generated_Source\PSoC4/cyfitter_cfg.c **** 			{0xECu, 0x01u},
 943:Generated_Source\PSoC4/cyfitter_cfg.c **** 			{0x90u, 0x40u},
 944:Generated_Source\PSoC4/cyfitter_cfg.c **** 			{0xB0u, 0x02u},
 945:Generated_Source\PSoC4/cyfitter_cfg.c **** 			{0xE8u, 0x04u},
 946:Generated_Source\PSoC4/cyfitter_cfg.c **** 			{0x2Du, 0x08u},
 947:Generated_Source\PSoC4/cyfitter_cfg.c **** 			{0x89u, 0x08u},
 948:Generated_Source\PSoC4/cyfitter_cfg.c **** 			{0xA8u, 0x40u},
 949:Generated_Source\PSoC4/cyfitter_cfg.c **** 			{0xCAu, 0x01u},
 950:Generated_Source\PSoC4/cyfitter_cfg.c **** 			{0xE2u, 0x01u},
 951:Generated_Source\PSoC4/cyfitter_cfg.c **** 			{0x10u, 0x08u},
 952:Generated_Source\PSoC4/cyfitter_cfg.c **** 			{0x11u, 0x01u},
 953:Generated_Source\PSoC4/cyfitter_cfg.c **** 			{0x12u, 0x0Eu},
 954:Generated_Source\PSoC4/cyfitter_cfg.c **** 			{0x13u, 0x01u},
 955:Generated_Source\PSoC4/cyfitter_cfg.c **** 		};
 956:Generated_Source\PSoC4/cyfitter_cfg.c **** 
 957:Generated_Source\PSoC4/cyfitter_cfg.c **** 
 958:Generated_Source\PSoC4/cyfitter_cfg.c **** 
 959:Generated_Source\PSoC4/cyfitter_cfg.c **** 		CYPACKED typedef struct {
 960:Generated_Source\PSoC4/cyfitter_cfg.c **** 			void CYFAR *address;
 961:Generated_Source\PSoC4/cyfitter_cfg.c **** 			uint16 size;
 962:Generated_Source\PSoC4/cyfitter_cfg.c **** 		} CYPACKED_ATTR cfg_memset_t;
 963:Generated_Source\PSoC4/cyfitter_cfg.c **** 
 964:Generated_Source\PSoC4/cyfitter_cfg.c **** 
 965:Generated_Source\PSoC4/cyfitter_cfg.c **** 		CYPACKED typedef struct {
 966:Generated_Source\PSoC4/cyfitter_cfg.c **** 			void CYFAR *dest;
 967:Generated_Source\PSoC4/cyfitter_cfg.c **** 			const void CYCODE *src;
 968:Generated_Source\PSoC4/cyfitter_cfg.c **** 			uint16 size;
 969:Generated_Source\PSoC4/cyfitter_cfg.c **** 		} CYPACKED_ATTR cfg_memcpy_t;
 970:Generated_Source\PSoC4/cyfitter_cfg.c **** 
 971:Generated_Source\PSoC4/cyfitter_cfg.c **** 		static const cfg_memset_t CYCODE cfg_memset_list[] = {
 972:Generated_Source\PSoC4/cyfitter_cfg.c **** 			/* address, size */
 973:Generated_Source\PSoC4/cyfitter_cfg.c **** 			{(void CYFAR *)(CYDEV_UDB_P0_U0_BASE), 128u},
 974:Generated_Source\PSoC4/cyfitter_cfg.c **** 			{(void CYFAR *)(CYDEV_UDB_P0_ROUTE_BASE), 1280u},
 975:Generated_Source\PSoC4/cyfitter_cfg.c **** 			{(void CYFAR *)(CYDEV_UDB_P3_U1_BASE), 384u},
 976:Generated_Source\PSoC4/cyfitter_cfg.c **** 			{(void CYFAR *)(CYDEV_UDB_DSI0_BASE), 2048u},
 977:Generated_Source\PSoC4/cyfitter_cfg.c **** 		};
 978:Generated_Source\PSoC4/cyfitter_cfg.c **** 
ARM GAS  C:\Users\luvsd\AppData\Local\Temp\cc9ItDM1.s 			page 26


 979:Generated_Source\PSoC4/cyfitter_cfg.c **** 		/* UDB_0_3_1_CONFIG Address: CYDEV_UDB_P0_U1_BASE Size (bytes): 128 */
 980:Generated_Source\PSoC4/cyfitter_cfg.c **** 		static const uint8 CYCODE BS_UDB_0_3_1_CONFIG_VAL[] = {
 981:Generated_Source\PSoC4/cyfitter_cfg.c **** 			0x56u, 0x49u, 0x09u, 0x86u, 0x00u, 0x00u, 0x00u, 0x00u, 0x84u, 0x00u, 0x00u, 0x00u, 0x84u, 0x40u
 982:Generated_Source\PSoC4/cyfitter_cfg.c **** 			0x01u, 0xE5u, 0x00u, 0x1Au, 0x80u, 0x13u, 0x04u, 0xACu, 0x04u, 0x02u, 0x00u, 0x0Du, 0x84u, 0x00u
 983:Generated_Source\PSoC4/cyfitter_cfg.c **** 			0x04u, 0x00u, 0x80u, 0x00u, 0x07u, 0x00u, 0x38u, 0x00u, 0x0Au, 0x00u, 0x10u, 0x00u, 0x60u, 0x00u
 984:Generated_Source\PSoC4/cyfitter_cfg.c **** 			0x7Fu, 0x00u, 0x80u, 0x80u, 0x00u, 0x0Fu, 0x02u, 0x70u, 0x02u, 0x00u, 0x00u, 0xA0u, 0x00u, 0x00u
 985:Generated_Source\PSoC4/cyfitter_cfg.c **** 			0x45u, 0x06u, 0x30u, 0x00u, 0x02u, 0x0Eu, 0xFCu, 0xBDu, 0x3Du, 0xFFu, 0xFFu, 0xFFu, 0x22u, 0x00u
 986:Generated_Source\PSoC4/cyfitter_cfg.c **** 			0x04u, 0x00u, 0x00u, 0x00u, 0x00u, 0x00u, 0x02u, 0x24u, 0x04u, 0x04u, 0x04u, 0x04u, 0x33u, 0x33u
 987:Generated_Source\PSoC4/cyfitter_cfg.c **** 			0x00u, 0x00u, 0xC0u, 0x00u, 0x40u, 0x01u, 0x10u, 0x11u, 0xC0u, 0x01u, 0x00u, 0x11u, 0x40u, 0x01u
 988:Generated_Source\PSoC4/cyfitter_cfg.c **** 			0x00u, 0x00u, 0x00u, 0x00u, 0x00u, 0x00u, 0x00u, 0x00u, 0x00u, 0x00u, 0x00u, 0x00u, 0x00u, 0x00u
 989:Generated_Source\PSoC4/cyfitter_cfg.c **** 
 990:Generated_Source\PSoC4/cyfitter_cfg.c **** 		/* UDB_0_0_1_CONFIG Address: CYDEV_UDB_P3_U0_BASE Size (bytes): 128 */
 991:Generated_Source\PSoC4/cyfitter_cfg.c **** 		static const uint8 CYCODE BS_UDB_0_0_1_CONFIG_VAL[] = {
 992:Generated_Source\PSoC4/cyfitter_cfg.c **** 			0x07u, 0x18u, 0x38u, 0x00u, 0x0Au, 0x18u, 0x10u, 0x02u, 0x84u, 0x00u, 0x00u, 0x00u, 0x84u, 0x1Au
 993:Generated_Source\PSoC4/cyfitter_cfg.c **** 			0x01u, 0x18u, 0x00u, 0x02u, 0x80u, 0x9Cu, 0x04u, 0x03u, 0x60u, 0x02u, 0x00u, 0x18u, 0x04u, 0x33u
 994:Generated_Source\PSoC4/cyfitter_cfg.c **** 			0x84u, 0x1Au, 0x00u, 0x00u, 0x56u, 0x00u, 0x09u, 0x00u, 0x00u, 0xC1u, 0x00u, 0x38u, 0x04u, 0x82u
 995:Generated_Source\PSoC4/cyfitter_cfg.c **** 			0x7Fu, 0x00u, 0x00u, 0x0Fu, 0x00u, 0xE0u, 0x80u, 0x13u, 0x02u, 0x00u, 0x00u, 0x28u, 0x00u, 0x00u
 996:Generated_Source\PSoC4/cyfitter_cfg.c **** 			0x32u, 0x05u, 0x40u, 0x00u, 0x06u, 0x0Eu, 0xFCu, 0xDBu, 0x3Du, 0xFFu, 0xFFu, 0xFFu, 0x22u, 0x00u
 997:Generated_Source\PSoC4/cyfitter_cfg.c **** 			0x04u, 0x00u, 0x00u, 0x00u, 0x00u, 0x00u, 0x02u, 0x28u, 0x04u, 0x04u, 0x04u, 0x04u, 0x11u, 0x11u
 998:Generated_Source\PSoC4/cyfitter_cfg.c **** 			0x00u, 0x00u, 0xC0u, 0x00u, 0x40u, 0x01u, 0x10u, 0x11u, 0xC0u, 0x01u, 0x00u, 0x11u, 0x40u, 0x01u
 999:Generated_Source\PSoC4/cyfitter_cfg.c **** 			0x00u, 0x00u, 0x00u, 0x00u, 0x00u, 0x00u, 0x00u, 0x00u, 0x00u, 0x00u, 0x00u, 0x00u, 0x00u, 0x00u
1000:Generated_Source\PSoC4/cyfitter_cfg.c **** 
1001:Generated_Source\PSoC4/cyfitter_cfg.c **** 		static const cfg_memcpy_t CYCODE cfg_memcpy_list [] = {
1002:Generated_Source\PSoC4/cyfitter_cfg.c **** 			/* dest, src, size */
1003:Generated_Source\PSoC4/cyfitter_cfg.c **** 			{(void CYFAR *)(CYDEV_UDB_P0_U1_BASE), BS_UDB_0_3_1_CONFIG_VAL, 128u},
1004:Generated_Source\PSoC4/cyfitter_cfg.c **** 			{(void CYFAR *)(CYDEV_UDB_P3_U0_BASE), BS_UDB_0_0_1_CONFIG_VAL, 128u},
1005:Generated_Source\PSoC4/cyfitter_cfg.c **** 		};
1006:Generated_Source\PSoC4/cyfitter_cfg.c **** 
1007:Generated_Source\PSoC4/cyfitter_cfg.c **** 		uint8 CYDATA i;
1008:Generated_Source\PSoC4/cyfitter_cfg.c **** 
1009:Generated_Source\PSoC4/cyfitter_cfg.c **** 		/* Zero out critical memory blocks before beginning configuration */
1010:Generated_Source\PSoC4/cyfitter_cfg.c **** 		for (i = 0u; i < (sizeof(cfg_memset_list)/sizeof(cfg_memset_list[0])); i++)
 404              		.loc 1 1010 0
 405 0152 0024     		movs	r4, #0
 406 0154 0FE0     		b	.L15
 407              	.LVL24:
 408              	.L16:
 409              	.LBB4:
1011:Generated_Source\PSoC4/cyfitter_cfg.c **** 		{
1012:Generated_Source\PSoC4/cyfitter_cfg.c **** 			const cfg_memset_t CYCODE * CYDATA ms = &cfg_memset_list[i];
1013:Generated_Source\PSoC4/cyfitter_cfg.c **** 			CYMEMZERO(ms->address, (size_t)(uint32)(ms->size));
 410              		.loc 1 1013 0 discriminator 3
 411 0156 5E48     		ldr	r0, .L19+4
 412 0158 6200     		lsls	r2, r4, #1
 413 015a 1319     		adds	r3, r2, r4
 414 015c 5900     		lsls	r1, r3, #1
 415 015e 0B00     		movs	r3, r1
 416 0160 4118     		adds	r1, r0, r1
 417 0162 8988     		ldrh	r1, [r1, #4]
 418 0164 1A5A     		ldrh	r2, [r3, r0]
 419 0166 C318     		adds	r3, r0, r3
 420 0168 5888     		ldrh	r0, [r3, #2]
 421 016a 0004     		lsls	r0, r0, #16
 422 016c 1043     		orrs	r0, r2
 423 016e FFF7FEFF 		bl	CYMEMZERO
 424              	.LVL25:
 425              	.LBE4:
ARM GAS  C:\Users\luvsd\AppData\Local\Temp\cc9ItDM1.s 			page 27


1010:Generated_Source\PSoC4/cyfitter_cfg.c **** 		{
 426              		.loc 1 1010 0 discriminator 3
 427 0172 0134     		adds	r4, r4, #1
 428              	.LVL26:
 429 0174 E4B2     		uxtb	r4, r4
 430              	.LVL27:
 431              	.L15:
1010:Generated_Source\PSoC4/cyfitter_cfg.c **** 		{
 432              		.loc 1 1010 0 is_stmt 0 discriminator 1
 433 0176 032C     		cmp	r4, #3
 434 0178 EDD9     		bls	.L16
 435 017a 0024     		movs	r4, #0
 436              	.LVL28:
 437 017c 14E0     		b	.L17
 438              	.LVL29:
 439              	.L18:
 440              	.LBB5:
1014:Generated_Source\PSoC4/cyfitter_cfg.c **** 		}
1015:Generated_Source\PSoC4/cyfitter_cfg.c **** 
1016:Generated_Source\PSoC4/cyfitter_cfg.c **** 		/* Copy device configuration data into registers */
1017:Generated_Source\PSoC4/cyfitter_cfg.c **** 		for (i = 0u; i < (sizeof(cfg_memcpy_list)/sizeof(cfg_memcpy_list[0])); i++)
1018:Generated_Source\PSoC4/cyfitter_cfg.c **** 		{
1019:Generated_Source\PSoC4/cyfitter_cfg.c **** 			const cfg_memcpy_t CYCODE * CYDATA mc = &cfg_memcpy_list[i];
1020:Generated_Source\PSoC4/cyfitter_cfg.c **** 			void * CYDATA destPtr = mc->dest;
 441              		.loc 1 1020 0 is_stmt 1 discriminator 3
 442 017e 544E     		ldr	r6, .L19+4
 443 0180 A200     		lsls	r2, r4, #2
 444 0182 1119     		adds	r1, r2, r4
 445 0184 4B00     		lsls	r3, r1, #1
 446 0186 F318     		adds	r3, r6, r3
 447 0188 198B     		ldrh	r1, [r3, #24]
 448 018a 588B     		ldrh	r0, [r3, #26]
 449 018c 0004     		lsls	r0, r0, #16
 450 018e 0843     		orrs	r0, r1
 451              	.LVL30:
1021:Generated_Source\PSoC4/cyfitter_cfg.c **** 			const void CYCODE * CYDATA srcPtr = mc->src;
 452              		.loc 1 1021 0 discriminator 3
 453 0190 9D8B     		ldrh	r5, [r3, #28]
 454 0192 D98B     		ldrh	r1, [r3, #30]
 455 0194 0904     		lsls	r1, r1, #16
 456 0196 2943     		orrs	r1, r5
 457              	.LVL31:
1022:Generated_Source\PSoC4/cyfitter_cfg.c **** 			uint16 CYDATA numBytes = mc->size;
 458              		.loc 1 1022 0 discriminator 3
 459 0198 1319     		adds	r3, r2, r4
 460 019a 5A00     		lsls	r2, r3, #1
 461 019c B218     		adds	r2, r6, r2
 462 019e 128C     		ldrh	r2, [r2, #32]
 463              	.LVL32:
1023:Generated_Source\PSoC4/cyfitter_cfg.c **** 			CYCONFIGCPYCODE(destPtr, srcPtr, numBytes);
 464              		.loc 1 1023 0 discriminator 3
 465 01a0 FFF7FEFF 		bl	CYCONFIGCPYCODE
 466              	.LVL33:
 467              	.LBE5:
1017:Generated_Source\PSoC4/cyfitter_cfg.c **** 		{
 468              		.loc 1 1017 0 discriminator 3
 469 01a4 0134     		adds	r4, r4, #1
ARM GAS  C:\Users\luvsd\AppData\Local\Temp\cc9ItDM1.s 			page 28


 470              	.LVL34:
 471 01a6 E4B2     		uxtb	r4, r4
 472              	.LVL35:
 473              	.L17:
1017:Generated_Source\PSoC4/cyfitter_cfg.c **** 		{
 474              		.loc 1 1017 0 is_stmt 0 discriminator 1
 475 01a8 012C     		cmp	r4, #1
 476 01aa E8D9     		bls	.L18
1024:Generated_Source\PSoC4/cyfitter_cfg.c **** 		}
1025:Generated_Source\PSoC4/cyfitter_cfg.c **** 
1026:Generated_Source\PSoC4/cyfitter_cfg.c **** 		cfg_write_bytes32(cy_cfg_addr_table, cy_cfg_data_table);
 477              		.loc 1 1026 0 is_stmt 1
 478 01ac 4849     		ldr	r1, .L19+4
 479 01ae 2C31     		adds	r1, r1, #44
 480 01b0 4848     		ldr	r0, .L19+8
 481 01b2 5C30     		adds	r0, r0, #92
 482 01b4 FFF7FEFF 		bl	cfg_write_bytes32
 483              	.LVL36:
1027:Generated_Source\PSoC4/cyfitter_cfg.c **** 
1028:Generated_Source\PSoC4/cyfitter_cfg.c **** 		/* Perform normal device configuration. Order is not critical for these items. */
1029:Generated_Source\PSoC4/cyfitter_cfg.c **** 		CY_SET_REG16((void *)(CYREG_UDB_BCTL0_DRV), 0x0E00u);
 484              		.loc 1 1029 0
 485 01b8 E022     		movs	r2, #224
 486 01ba 1201     		lsls	r2, r2, #4
 487 01bc 464B     		ldr	r3, .L19+12
 488 01be 1A80     		strh	r2, [r3]
1030:Generated_Source\PSoC4/cyfitter_cfg.c **** 		CY_SET_REG8((void *)(CYREG_UDB_BCTL0_DRV + 0x2u), 0x01u);
 489              		.loc 1 1030 0
 490 01c0 0122     		movs	r2, #1
 491 01c2 464B     		ldr	r3, .L19+16
 492 01c4 1A70     		strb	r2, [r3]
1031:Generated_Source\PSoC4/cyfitter_cfg.c **** 
1032:Generated_Source\PSoC4/cyfitter_cfg.c **** 		/* HSIOM Starting address: CYDEV_HSIOM_BASE */
1033:Generated_Source\PSoC4/cyfitter_cfg.c **** 		CY_SET_REG32((void *)(CYDEV_HSIOM_BASE), 0x33003333u);
 493              		.loc 1 1033 0
 494 01c6 464A     		ldr	r2, .L19+20
 495 01c8 464B     		ldr	r3, .L19+24
 496 01ca 1A60     		str	r2, [r3]
1034:Generated_Source\PSoC4/cyfitter_cfg.c **** 		CY_SET_REG32((void *)(CYREG_HSIOM_PORT_SEL1), 0x00003303u);
 497              		.loc 1 1034 0
 498 01cc 464A     		ldr	r2, .L19+28
 499 01ce 474B     		ldr	r3, .L19+32
 500 01d0 1A60     		str	r2, [r3]
1035:Generated_Source\PSoC4/cyfitter_cfg.c **** 		CY_SET_REG32((void *)(CYREG_HSIOM_PORT_SEL2), 0x00330303u);
 501              		.loc 1 1035 0
 502 01d2 474A     		ldr	r2, .L19+36
 503 01d4 474B     		ldr	r3, .L19+40
 504 01d6 1A60     		str	r2, [r3]
1036:Generated_Source\PSoC4/cyfitter_cfg.c **** 		CY_SET_REG32((void *)(CYREG_HSIOM_PORT_SEL3), 0x0000EE99u);
 505              		.loc 1 1036 0
 506 01d8 474A     		ldr	r2, .L19+44
 507 01da 484B     		ldr	r3, .L19+48
 508 01dc 1A60     		str	r2, [r3]
1037:Generated_Source\PSoC4/cyfitter_cfg.c **** 		CY_SET_REG32((void *)(CYREG_HSIOM_PORT_SEL6), 0x00EE0000u);
 509              		.loc 1 1037 0
 510 01de EE22     		movs	r2, #238
 511 01e0 1204     		lsls	r2, r2, #16
ARM GAS  C:\Users\luvsd\AppData\Local\Temp\cc9ItDM1.s 			page 29


 512 01e2 474B     		ldr	r3, .L19+52
 513 01e4 1A60     		str	r2, [r3]
1038:Generated_Source\PSoC4/cyfitter_cfg.c **** 		CY_SET_REG32((void *)(CYREG_HSIOM_PORT_SEL7), 0x00000099u);
 514              		.loc 1 1038 0
 515 01e6 9922     		movs	r2, #153
 516 01e8 464B     		ldr	r3, .L19+56
 517 01ea 1A60     		str	r2, [r3]
1039:Generated_Source\PSoC4/cyfitter_cfg.c **** 
1040:Generated_Source\PSoC4/cyfitter_cfg.c **** 		/* UDB_PA_0 Starting address: CYDEV_UDB_PA0_BASE */
1041:Generated_Source\PSoC4/cyfitter_cfg.c **** 		CY_SET_REG32((void *)(CYDEV_UDB_PA0_BASE), 0x00990000u);
 518              		.loc 1 1041 0
 519 01ec 9923     		movs	r3, #153
 520 01ee 1B04     		lsls	r3, r3, #16
 521 01f0 454A     		ldr	r2, .L19+60
 522 01f2 1360     		str	r3, [r2]
1042:Generated_Source\PSoC4/cyfitter_cfg.c **** 
1043:Generated_Source\PSoC4/cyfitter_cfg.c **** 		/* UDB_PA_1 Starting address: CYDEV_UDB_PA1_BASE */
1044:Generated_Source\PSoC4/cyfitter_cfg.c **** 		CY_SET_REG32((void *)(CYDEV_UDB_PA1_BASE), 0x00990004u);
 523              		.loc 1 1044 0
 524 01f4 454A     		ldr	r2, .L19+64
 525 01f6 4649     		ldr	r1, .L19+68
 526 01f8 0A60     		str	r2, [r1]
1045:Generated_Source\PSoC4/cyfitter_cfg.c **** 		CY_SET_REG32((void *)(CYREG_UDB_PA1_CFG4), 0x02000000u);
 527              		.loc 1 1045 0
 528 01fa 8020     		movs	r0, #128
 529 01fc 8004     		lsls	r0, r0, #18
 530 01fe 4549     		ldr	r1, .L19+72
 531 0200 0860     		str	r0, [r1]
1046:Generated_Source\PSoC4/cyfitter_cfg.c **** 		CY_SET_REG32((void *)(CYREG_UDB_PA1_CFG8), 0x00930000u);
 532              		.loc 1 1046 0
 533 0202 9320     		movs	r0, #147
 534 0204 0004     		lsls	r0, r0, #16
 535 0206 4449     		ldr	r1, .L19+76
 536 0208 0860     		str	r0, [r1]
1047:Generated_Source\PSoC4/cyfitter_cfg.c **** 
1048:Generated_Source\PSoC4/cyfitter_cfg.c **** 		/* UDB_PA_2 Starting address: CYDEV_UDB_PA2_BASE */
1049:Generated_Source\PSoC4/cyfitter_cfg.c **** 		CY_SET_REG32((void *)(CYDEV_UDB_PA2_BASE), 0x00990004u);
 537              		.loc 1 1049 0
 538 020a 4449     		ldr	r1, .L19+80
 539 020c 0A60     		str	r2, [r1]
1050:Generated_Source\PSoC4/cyfitter_cfg.c **** 		CY_SET_REG32((void *)(CYREG_UDB_PA2_CFG4), 0x00080000u);
 540              		.loc 1 1050 0
 541 020e 8021     		movs	r1, #128
 542 0210 0903     		lsls	r1, r1, #12
 543 0212 434A     		ldr	r2, .L19+84
 544 0214 1160     		str	r1, [r2]
1051:Generated_Source\PSoC4/cyfitter_cfg.c **** 		CY_SET_REG32((void *)(CYREG_UDB_PA2_CFG8), 0x0E310000u);
 545              		.loc 1 1051 0
 546 0216 4349     		ldr	r1, .L19+88
 547 0218 434A     		ldr	r2, .L19+92
 548 021a 1160     		str	r1, [r2]
1052:Generated_Source\PSoC4/cyfitter_cfg.c **** 
1053:Generated_Source\PSoC4/cyfitter_cfg.c **** 		/* UDB_PA_4 Starting address: CYDEV_UDB_PA4_BASE */
1054:Generated_Source\PSoC4/cyfitter_cfg.c **** 		CY_SET_REG32((void *)(CYDEV_UDB_PA4_BASE), 0x00990000u);
 549              		.loc 1 1054 0
 550 021c 434A     		ldr	r2, .L19+96
 551 021e 1360     		str	r3, [r2]
ARM GAS  C:\Users\luvsd\AppData\Local\Temp\cc9ItDM1.s 			page 30


1055:Generated_Source\PSoC4/cyfitter_cfg.c **** 		CY_SET_REG32((void *)(CYREG_UDB_PA4_CFG8), 0xD0870000u);
 552              		.loc 1 1055 0
 553 0220 4349     		ldr	r1, .L19+100
 554 0222 444A     		ldr	r2, .L19+104
 555 0224 1160     		str	r1, [r2]
1056:Generated_Source\PSoC4/cyfitter_cfg.c **** 
1057:Generated_Source\PSoC4/cyfitter_cfg.c **** 		/* UDB_PA_5 Starting address: CYDEV_UDB_PA5_BASE */
1058:Generated_Source\PSoC4/cyfitter_cfg.c **** 		CY_SET_REG32((void *)(CYDEV_UDB_PA5_BASE), 0x00990000u);
 556              		.loc 1 1058 0
 557 0226 444A     		ldr	r2, .L19+108
 558 0228 1360     		str	r3, [r2]
1059:Generated_Source\PSoC4/cyfitter_cfg.c **** 
1060:Generated_Source\PSoC4/cyfitter_cfg.c **** 		/* UDB_PA_7 Starting address: CYDEV_UDB_PA7_BASE */
1061:Generated_Source\PSoC4/cyfitter_cfg.c **** 		CY_SET_REG32((void *)(CYDEV_UDB_PA7_BASE), 0x00990000u);
 559              		.loc 1 1061 0
 560 022a 444A     		ldr	r2, .L19+112
 561 022c 1360     		str	r3, [r2]
1062:Generated_Source\PSoC4/cyfitter_cfg.c **** 
1063:Generated_Source\PSoC4/cyfitter_cfg.c **** 		/* INT_SELECT Starting address: CYDEV_CPUSS_INT_SEL */
1064:Generated_Source\PSoC4/cyfitter_cfg.c **** 		CY_SET_REG32((void *)(CYREG_CPUSS_INT_SEL), 0x00000007u);
 562              		.loc 1 1064 0
 563 022e 0722     		movs	r2, #7
 564 0230 434B     		ldr	r3, .L19+116
 565 0232 1A60     		str	r2, [r3]
1065:Generated_Source\PSoC4/cyfitter_cfg.c **** 
1066:Generated_Source\PSoC4/cyfitter_cfg.c **** 		/* INT_CONFIG Starting address: CYDEV_UDB_INT_CFG */
1067:Generated_Source\PSoC4/cyfitter_cfg.c **** 		CY_SET_REG32((void *)(CYREG_UDB_INT_CFG), 0x00000006u);
 566              		.loc 1 1067 0
 567 0234 013A     		subs	r2, r2, #1
 568 0236 434B     		ldr	r3, .L19+120
 569 0238 1A60     		str	r2, [r3]
1068:Generated_Source\PSoC4/cyfitter_cfg.c **** 
1069:Generated_Source\PSoC4/cyfitter_cfg.c **** 		/* Enable UDB array and digital routing */
1070:Generated_Source\PSoC4/cyfitter_cfg.c **** 		CY_SET_XTND_REG8((void *)CYREG_UDB_UDB_WAIT_CFG, (uint8)((CY_GET_XTND_REG8((void *)CYREG_UDB_UDB_
 570              		.loc 1 1070 0
 571 023a 4349     		ldr	r1, .L19+124
 572 023c 0B78     		ldrb	r3, [r1]
 573 023e 3632     		adds	r2, r2, #54
 574 0240 9343     		bics	r3, r2
 575 0242 1422     		movs	r2, #20
 576 0244 1343     		orrs	r3, r2
 577 0246 DBB2     		uxtb	r3, r3
 578 0248 0B70     		strb	r3, [r1]
1071:Generated_Source\PSoC4/cyfitter_cfg.c **** 		CY_SET_XTND_REG8((void *)CYREG_UDB_UDB_BANK_CTL, (uint8)(CY_GET_XTND_REG8((void *)CYREG_UDB_UDB_B
 579              		.loc 1 1071 0
 580 024a 404A     		ldr	r2, .L19+128
 581 024c 1178     		ldrb	r1, [r2]
 582 024e 1623     		movs	r3, #22
 583 0250 0B43     		orrs	r3, r1
 584 0252 DBB2     		uxtb	r3, r3
 585 0254 1370     		strb	r3, [r2]
 586              	.LBE3:
1072:Generated_Source\PSoC4/cyfitter_cfg.c **** 	}
1073:Generated_Source\PSoC4/cyfitter_cfg.c **** 
1074:Generated_Source\PSoC4/cyfitter_cfg.c **** 	/* Perform second pass device configuration. These items must be configured in specific order afte
1075:Generated_Source\PSoC4/cyfitter_cfg.c **** 	/* IOPINS0_0 Starting address: CYDEV_GPIO_PRT0_BASE */
1076:Generated_Source\PSoC4/cyfitter_cfg.c **** 	CY_SET_REG32((void *)(CYDEV_GPIO_PRT0_BASE), 0x000000CFu);
ARM GAS  C:\Users\luvsd\AppData\Local\Temp\cc9ItDM1.s 			page 31


 587              		.loc 1 1076 0
 588 0256 CF22     		movs	r2, #207
 589 0258 3D4B     		ldr	r3, .L19+132
 590 025a 1A60     		str	r2, [r3]
1077:Generated_Source\PSoC4/cyfitter_cfg.c **** 	CY_SET_REG32((void *)(CYREG_GPIO_PRT0_PC), 0x00D80DB6u);
 591              		.loc 1 1077 0
 592 025c 3D4A     		ldr	r2, .L19+136
 593 025e 3E4B     		ldr	r3, .L19+140
 594 0260 1A60     		str	r2, [r3]
1078:Generated_Source\PSoC4/cyfitter_cfg.c **** 
1079:Generated_Source\PSoC4/cyfitter_cfg.c **** 	/* IOPINS0_13 Starting address: CYDEV_GPIO_PRT13_BASE */
1080:Generated_Source\PSoC4/cyfitter_cfg.c **** 	CY_SET_REG32((void *)(CYDEV_GPIO_PRT13_BASE), 0x00000003u);
 595              		.loc 1 1080 0
 596 0262 0322     		movs	r2, #3
 597 0264 3D4B     		ldr	r3, .L19+144
 598 0266 1A60     		str	r2, [r3]
1081:Generated_Source\PSoC4/cyfitter_cfg.c **** 	CY_SET_REG32((void *)(CYREG_GPIO_PRT13_INTR_CFG), 0x00000002u);
 599              		.loc 1 1081 0
 600 0268 0223     		movs	r3, #2
 601 026a 3D4A     		ldr	r2, .L19+148
 602 026c 1360     		str	r3, [r2]
1082:Generated_Source\PSoC4/cyfitter_cfg.c **** 
1083:Generated_Source\PSoC4/cyfitter_cfg.c **** 	/* IOPINS0_1 Starting address: CYDEV_GPIO_PRT1_BASE */
1084:Generated_Source\PSoC4/cyfitter_cfg.c **** 	CY_SET_REG32((void *)(CYDEV_GPIO_PRT1_BASE), 0x0000001Du);
 603              		.loc 1 1084 0
 604 026e 1D21     		movs	r1, #29
 605 0270 3C4A     		ldr	r2, .L19+152
 606 0272 1160     		str	r1, [r2]
1085:Generated_Source\PSoC4/cyfitter_cfg.c **** 	CY_SET_REG32((void *)(CYREG_GPIO_PRT1_PC), 0x00181904u);
 607              		.loc 1 1085 0
 608 0274 3C49     		ldr	r1, .L19+156
 609 0276 3D4A     		ldr	r2, .L19+160
 610 0278 1160     		str	r1, [r2]
1086:Generated_Source\PSoC4/cyfitter_cfg.c **** 
1087:Generated_Source\PSoC4/cyfitter_cfg.c **** 	/* IOPINS0_2 Starting address: CYDEV_GPIO_PRT2_BASE */
1088:Generated_Source\PSoC4/cyfitter_cfg.c **** 	CY_SET_REG32((void *)(CYDEV_GPIO_PRT2_BASE), 0x00000077u);
 611              		.loc 1 1088 0
 612 027a 7721     		movs	r1, #119
 613 027c 3C4A     		ldr	r2, .L19+164
 614 027e 1160     		str	r1, [r2]
1089:Generated_Source\PSoC4/cyfitter_cfg.c **** 	CY_SET_REG32((void *)(CYREG_GPIO_PRT2_PC), 0x001B618Eu);
 615              		.loc 1 1089 0
 616 0280 3C49     		ldr	r1, .L19+168
 617 0282 3D4A     		ldr	r2, .L19+172
 618 0284 1160     		str	r1, [r2]
1090:Generated_Source\PSoC4/cyfitter_cfg.c **** 
1091:Generated_Source\PSoC4/cyfitter_cfg.c **** 	/* IOPINS0_3 Starting address: CYDEV_GPIO_PRT3_BASE */
1092:Generated_Source\PSoC4/cyfitter_cfg.c **** 	CY_SET_REG32((void *)(CYDEV_GPIO_PRT3_BASE), 0x00000002u);
 619              		.loc 1 1092 0
 620 0286 3D4A     		ldr	r2, .L19+176
 621 0288 1360     		str	r3, [r2]
1093:Generated_Source\PSoC4/cyfitter_cfg.c **** 	CY_SET_REG32((void *)(CYREG_GPIO_PRT3_PC), 0x00036DB1u);
 622              		.loc 1 1093 0
 623 028a 3D49     		ldr	r1, .L19+180
 624 028c 3D4A     		ldr	r2, .L19+184
 625 028e 1160     		str	r1, [r2]
1094:Generated_Source\PSoC4/cyfitter_cfg.c **** 	CY_SET_REG32((void *)(CYREG_GPIO_PRT3_PC2), 0x00000002u);
ARM GAS  C:\Users\luvsd\AppData\Local\Temp\cc9ItDM1.s 			page 32


 626              		.loc 1 1094 0
 627 0290 3D4A     		ldr	r2, .L19+188
 628 0292 1360     		str	r3, [r2]
1095:Generated_Source\PSoC4/cyfitter_cfg.c **** 
1096:Generated_Source\PSoC4/cyfitter_cfg.c **** 	/* IOPINS0_4 Starting address: CYDEV_GPIO_PRT4_BASE */
1097:Generated_Source\PSoC4/cyfitter_cfg.c **** 	CY_SET_REG32((void *)(CYDEV_GPIO_PRT4_BASE), 0x00000024u);
 629              		.loc 1 1097 0
 630 0294 2421     		movs	r1, #36
 631 0296 3D4A     		ldr	r2, .L19+192
 632 0298 1160     		str	r1, [r2]
1098:Generated_Source\PSoC4/cyfitter_cfg.c **** 	CY_SET_REG32((void *)(CYREG_GPIO_PRT4_PC), 0x000312B6u);
 633              		.loc 1 1098 0
 634 029a 3D49     		ldr	r1, .L19+196
 635 029c 3D4A     		ldr	r2, .L19+200
 636 029e 1160     		str	r1, [r2]
1099:Generated_Source\PSoC4/cyfitter_cfg.c **** 
1100:Generated_Source\PSoC4/cyfitter_cfg.c **** 	/* IOPINS0_5 Starting address: CYDEV_GPIO_PRT5_BASE */
1101:Generated_Source\PSoC4/cyfitter_cfg.c **** 	CY_SET_REG32((void *)(CYREG_GPIO_PRT5_PC), 0x00030000u);
 637              		.loc 1 1101 0
 638 02a0 C021     		movs	r1, #192
 639 02a2 8902     		lsls	r1, r1, #10
 640 02a4 3C4A     		ldr	r2, .L19+204
 641 02a6 1160     		str	r1, [r2]
1102:Generated_Source\PSoC4/cyfitter_cfg.c **** 
1103:Generated_Source\PSoC4/cyfitter_cfg.c **** 	/* IOPINS0_6 Starting address: CYDEV_GPIO_PRT6_BASE */
1104:Generated_Source\PSoC4/cyfitter_cfg.c **** 	CY_SET_REG32((void *)(CYDEV_GPIO_PRT6_BASE), 0x00000032u);
 642              		.loc 1 1104 0
 643 02a8 3221     		movs	r1, #50
 644 02aa 3C4A     		ldr	r2, .L19+208
 645 02ac 1160     		str	r1, [r2]
1105:Generated_Source\PSoC4/cyfitter_cfg.c **** 	CY_SET_REG32((void *)(CYREG_GPIO_PRT6_PC), 0x00024188u);
 646              		.loc 1 1105 0
 647 02ae 3C49     		ldr	r1, .L19+212
 648 02b0 3C4A     		ldr	r2, .L19+216
 649 02b2 1160     		str	r1, [r2]
1106:Generated_Source\PSoC4/cyfitter_cfg.c **** 
1107:Generated_Source\PSoC4/cyfitter_cfg.c **** 	/* IOPINS0_7 Starting address: CYDEV_GPIO_PRT7_BASE */
1108:Generated_Source\PSoC4/cyfitter_cfg.c **** 	CY_SET_REG32((void *)(CYDEV_GPIO_PRT7_BASE), 0x00000002u);
 650              		.loc 1 1108 0
 651 02b4 3C4A     		ldr	r2, .L19+220
 652 02b6 1360     		str	r3, [r2]
1109:Generated_Source\PSoC4/cyfitter_cfg.c **** 	CY_SET_REG32((void *)(CYREG_GPIO_PRT7_PC), 0x00000031u);
 653              		.loc 1 1109 0
 654 02b8 3121     		movs	r1, #49
 655 02ba 3C4A     		ldr	r2, .L19+224
 656 02bc 1160     		str	r1, [r2]
1110:Generated_Source\PSoC4/cyfitter_cfg.c **** 	CY_SET_REG32((void *)(CYREG_GPIO_PRT7_PC2), 0x00000002u);
 657              		.loc 1 1110 0
 658 02be 3C4A     		ldr	r2, .L19+228
 659 02c0 1360     		str	r3, [r2]
1111:Generated_Source\PSoC4/cyfitter_cfg.c **** 
1112:Generated_Source\PSoC4/cyfitter_cfg.c **** 
1113:Generated_Source\PSoC4/cyfitter_cfg.c **** 	/* Setup clocks based on selections from Clock DWR */
1114:Generated_Source\PSoC4/cyfitter_cfg.c **** 	ClockSetup();
 660              		.loc 1 1114 0
 661 02c2 FFF79DFE 		bl	ClockSetup
 662              	.LVL37:
ARM GAS  C:\Users\luvsd\AppData\Local\Temp\cc9ItDM1.s 			page 33


1115:Generated_Source\PSoC4/cyfitter_cfg.c **** 
1116:Generated_Source\PSoC4/cyfitter_cfg.c **** 	/* Perform basic analog initialization to defaults */
1117:Generated_Source\PSoC4/cyfitter_cfg.c **** 	AnalogSetDefault();
 663              		.loc 1 1117 0
 664 02c6 FFF7FEFF 		bl	AnalogSetDefault
 665              	.LVL38:
1118:Generated_Source\PSoC4/cyfitter_cfg.c **** 
1119:Generated_Source\PSoC4/cyfitter_cfg.c **** }
 666              		.loc 1 1119 0
 667              		@ sp needed
 668              	.LVL39:
 669 02ca 70BD     		pop	{r4, r5, r6, pc}
 670              	.L20:
 671              		.align	2
 672              	.L19:
 673 02cc 1C700F40 		.word	1074753564
 674 02d0 00000000 		.word	.LANCHOR0
 675 02d4 80040000 		.word	.LANCHOR1
 676 02d8 00600F40 		.word	1074749440
 677 02dc 02600F40 		.word	1074749442
 678 02e0 33330033 		.word	855651123
 679 02e4 00000240 		.word	1073872896
 680 02e8 03330000 		.word	13059
 681 02ec 00010240 		.word	1073873152
 682 02f0 03033300 		.word	3343107
 683 02f4 00020240 		.word	1073873408
 684 02f8 99EE0000 		.word	61081
 685 02fc 00030240 		.word	1073873664
 686 0300 00060240 		.word	1073874432
 687 0304 00070240 		.word	1073874688
 688 0308 00500F40 		.word	1074745344
 689 030c 04009900 		.word	10027012
 690 0310 10500F40 		.word	1074745360
 691 0314 14500F40 		.word	1074745364
 692 0318 18500F40 		.word	1074745368
 693 031c 20500F40 		.word	1074745376
 694 0320 24500F40 		.word	1074745380
 695 0324 0000310E 		.word	238092288
 696 0328 28500F40 		.word	1074745384
 697 032c 40500F40 		.word	1074745408
 698 0330 000087D0 		.word	-796459008
 699 0334 48500F40 		.word	1074745416
 700 0338 50500F40 		.word	1074745424
 701 033c 70500F40 		.word	1074745456
 702 0340 20001040 		.word	1074790432
 703 0344 00800F40 		.word	1074757632
 704 0348 01700F40 		.word	1074753537
 705 034c 00700F40 		.word	1074753536
 706 0350 00000440 		.word	1074003968
 707 0354 B60DD800 		.word	14159286
 708 0358 08000440 		.word	1074003976
 709 035c 000D0440 		.word	1074007296
 710 0360 0C0D0440 		.word	1074007308
 711 0364 00010440 		.word	1074004224
 712 0368 04191800 		.word	1579268
 713 036c 08010440 		.word	1074004232
 714 0370 00020440 		.word	1074004480
ARM GAS  C:\Users\luvsd\AppData\Local\Temp\cc9ItDM1.s 			page 34


 715 0374 8E611B00 		.word	1794446
 716 0378 08020440 		.word	1074004488
 717 037c 00030440 		.word	1074004736
 718 0380 B16D0300 		.word	224689
 719 0384 08030440 		.word	1074004744
 720 0388 18030440 		.word	1074004760
 721 038c 00040440 		.word	1074004992
 722 0390 B6120300 		.word	201398
 723 0394 08040440 		.word	1074005000
 724 0398 08050440 		.word	1074005256
 725 039c 00060440 		.word	1074005504
 726 03a0 88410200 		.word	147848
 727 03a4 08060440 		.word	1074005512
 728 03a8 00070440 		.word	1074005760
 729 03ac 08070440 		.word	1074005768
 730 03b0 18070440 		.word	1074005784
 731              		.cfi_endproc
 732              	.LFE7:
 733              		.size	cyfitter_cfg, .-cyfitter_cfg
 734              		.section	.rodata
 735              		.align	2
 736              		.set	.LANCHOR0,. + 0
 737              		.set	.LANCHOR1,. + 1152
 738              		.type	cfg_memset_list.4976, %object
 739              		.size	cfg_memset_list.4976, 24
 740              	cfg_memset_list.4976:
 741 0000 00300F40 		.word	1074737152
 742 0004 8000     		.short	128
 743 0006 00310F40 		.4byte	1074737408
 744 000a 0005     		.short	1280
 745 000c 80360F40 		.word	1074738816
 746 0010 8001     		.short	384
 747 0012 00400F40 		.4byte	1074741248
 748 0016 0008     		.short	2048
 749              		.type	cfg_memcpy_list.4979, %object
 750              		.size	cfg_memcpy_list.4979, 20
 751              	cfg_memcpy_list.4979:
 752 0018 80300F40 		.word	1074737280
 753 001c 24050000 		.word	BS_UDB_0_3_1_CONFIG_VAL.4977
 754 0020 8000     		.short	128
 755 0022 00360F40 		.4byte	1074738688
 756 0026 A4050000 		.4byte	BS_UDB_0_0_1_CONFIG_VAL.4978
 757 002a 8000     		.short	128
 758              		.type	cy_cfg_data_table.4966, %object
 759              		.size	cy_cfg_data_table.4966, 1198
 760              	cy_cfg_data_table.4966:
 761 002c 72       		.byte	114
 762 002d 01       		.byte	1
 763 002e 81       		.byte	-127
 764 002f 0F       		.byte	15
 765 0030 83       		.byte	-125
 766 0031 0D       		.byte	13
 767 0032 86       		.byte	-122
 768 0033 0F       		.byte	15
 769 0034 0B       		.byte	11
 770 0035 01       		.byte	1
 771 0036 0F       		.byte	15
ARM GAS  C:\Users\luvsd\AppData\Local\Temp\cc9ItDM1.s 			page 35


 772 0037 04       		.byte	4
 773 0038 14       		.byte	20
 774 0039 01       		.byte	1
 775 003a 1B       		.byte	27
 776 003b 02       		.byte	2
 777 003c 23       		.byte	35
 778 003d 07       		.byte	7
 779 003e 31       		.byte	49
 780 003f 02       		.byte	2
 781 0040 33       		.byte	51
 782 0041 04       		.byte	4
 783 0042 35       		.byte	53
 784 0043 01       		.byte	1
 785 0044 36       		.byte	54
 786 0045 01       		.byte	1
 787 0046 39       		.byte	57
 788 0047 2A       		.byte	42
 789 0048 3E       		.byte	62
 790 0049 40       		.byte	64
 791 004a 3F       		.byte	63
 792 004b 15       		.byte	21
 793 004c 54       		.byte	84
 794 004d 09       		.byte	9
 795 004e 58       		.byte	88
 796 004f 04       		.byte	4
 797 0050 59       		.byte	89
 798 0051 04       		.byte	4
 799 0052 5B       		.byte	91
 800 0053 04       		.byte	4
 801 0054 5D       		.byte	93
 802 0055 30       		.byte	48
 803 0056 5F       		.byte	95
 804 0057 01       		.byte	1
 805 0058 04       		.byte	4
 806 0059 22       		.byte	34
 807 005a 06       		.byte	6
 808 005b 02       		.byte	2
 809 005c 0A       		.byte	10
 810 005d 20       		.byte	32
 811 005e 0C       		.byte	12
 812 005f 80       		.byte	-128
 813 0060 0E       		.byte	14
 814 0061 68       		.byte	104
 815 0062 16       		.byte	22
 816 0063 09       		.byte	9
 817 0064 17       		.byte	23
 818 0065 09       		.byte	9
 819 0066 1A       		.byte	26
 820 0067 02       		.byte	2
 821 0068 1D       		.byte	29
 822 0069 48       		.byte	72
 823 006a 1E       		.byte	30
 824 006b 40       		.byte	64
 825 006c 20       		.byte	32
 826 006d 04       		.byte	4
 827 006e 21       		.byte	33
 828 006f 01       		.byte	1
ARM GAS  C:\Users\luvsd\AppData\Local\Temp\cc9ItDM1.s 			page 36


 829 0070 23       		.byte	35
 830 0071 10       		.byte	16
 831 0072 24       		.byte	36
 832 0073 03       		.byte	3
 833 0074 25       		.byte	37
 834 0075 04       		.byte	4
 835 0076 26       		.byte	38
 836 0077 20       		.byte	32
 837 0078 2B       		.byte	43
 838 0079 80       		.byte	-128
 839 007a 30       		.byte	48
 840 007b 20       		.byte	32
 841 007c 36       		.byte	54
 842 007d 28       		.byte	40
 843 007e 37       		.byte	55
 844 007f 0A       		.byte	10
 845 0080 39       		.byte	57
 846 0081 50       		.byte	80
 847 0082 3C       		.byte	60
 848 0083 01       		.byte	1
 849 0084 3D       		.byte	61
 850 0085 80       		.byte	-128
 851 0086 45       		.byte	69
 852 0087 08       		.byte	8
 853 0088 47       		.byte	71
 854 0089 12       		.byte	18
 855 008a 4C       		.byte	76
 856 008b 01       		.byte	1
 857 008c 4D       		.byte	77
 858 008d 08       		.byte	8
 859 008e 4E       		.byte	78
 860 008f 08       		.byte	8
 861 0090 55       		.byte	85
 862 0091 C0       		.byte	-64
 863 0092 56       		.byte	86
 864 0093 21       		.byte	33
 865 0094 57       		.byte	87
 866 0095 08       		.byte	8
 867 0096 58       		.byte	88
 868 0097 11       		.byte	17
 869 0098 59       		.byte	89
 870 0099 88       		.byte	-120
 871 009a 61       		.byte	97
 872 009b 40       		.byte	64
 873 009c 62       		.byte	98
 874 009d 30       		.byte	48
 875 009e 66       		.byte	102
 876 009f 10       		.byte	16
 877 00a0 68       		.byte	104
 878 00a1 20       		.byte	32
 879 00a2 69       		.byte	105
 880 00a3 50       		.byte	80
 881 00a4 6C       		.byte	108
 882 00a5 90       		.byte	-112
 883 00a6 6D       		.byte	109
 884 00a7 20       		.byte	32
 885 00a8 6E       		.byte	110
ARM GAS  C:\Users\luvsd\AppData\Local\Temp\cc9ItDM1.s 			page 37


 886 00a9 24       		.byte	36
 887 00aa 6F       		.byte	111
 888 00ab 01       		.byte	1
 889 00ac 76       		.byte	118
 890 00ad 02       		.byte	2
 891 00ae 80       		.byte	-128
 892 00af 05       		.byte	5
 893 00b0 82       		.byte	-126
 894 00b1 10       		.byte	16
 895 00b2 84       		.byte	-124
 896 00b3 01       		.byte	1
 897 00b4 85       		.byte	-123
 898 00b5 08       		.byte	8
 899 00b6 86       		.byte	-122
 900 00b7 01       		.byte	1
 901 00b8 8D       		.byte	-115
 902 00b9 84       		.byte	-124
 903 00ba C0       		.byte	-64
 904 00bb D0       		.byte	-48
 905 00bc C2       		.byte	-62
 906 00bd F4       		.byte	-12
 907 00be C4       		.byte	-60
 908 00bf F0       		.byte	-16
 909 00c0 CA       		.byte	-54
 910 00c1 01       		.byte	1
 911 00c2 CC       		.byte	-52
 912 00c3 E4       		.byte	-28
 913 00c4 CE       		.byte	-50
 914 00c5 9C       		.byte	-100
 915 00c6 D0       		.byte	-48
 916 00c7 E0       		.byte	-32
 917 00c8 D2       		.byte	-46
 918 00c9 30       		.byte	48
 919 00ca D6       		.byte	-42
 920 00cb 0F       		.byte	15
 921 00cc D8       		.byte	-40
 922 00cd 28       		.byte	40
 923 00ce E0       		.byte	-32
 924 00cf 04       		.byte	4
 925 00d0 E4       		.byte	-28
 926 00d1 02       		.byte	2
 927 00d2 01       		.byte	1
 928 00d3 9A       		.byte	-102
 929 00d4 05       		.byte	5
 930 00d5 98       		.byte	-104
 931 00d6 07       		.byte	7
 932 00d7 02       		.byte	2
 933 00d8 09       		.byte	9
 934 00d9 02       		.byte	2
 935 00da 0B       		.byte	11
 936 00db 98       		.byte	-104
 937 00dc 0D       		.byte	13
 938 00dd 02       		.byte	2
 939 00de 11       		.byte	17
 940 00df 98       		.byte	-104
 941 00e0 12       		.byte	18
 942 00e1 01       		.byte	1
ARM GAS  C:\Users\luvsd\AppData\Local\Temp\cc9ItDM1.s 			page 38


 943 00e2 13       		.byte	19
 944 00e3 02       		.byte	2
 945 00e4 15       		.byte	21
 946 00e5 38       		.byte	56
 947 00e6 16       		.byte	22
 948 00e7 03       		.byte	3
 949 00e8 17       		.byte	23
 950 00e9 C0       		.byte	-64
 951 00ea 19       		.byte	25
 952 00eb 13       		.byte	19
 953 00ec 1B       		.byte	27
 954 00ed 64       		.byte	100
 955 00ee 21       		.byte	33
 956 00ef 9A       		.byte	-102
 957 00f0 22       		.byte	34
 958 00f1 03       		.byte	3
 959 00f2 24       		.byte	36
 960 00f3 02       		.byte	2
 961 00f4 29       		.byte	41
 962 00f5 FC       		.byte	-4
 963 00f6 2B       		.byte	43
 964 00f7 03       		.byte	3
 965 00f8 2D       		.byte	45
 966 00f9 21       		.byte	33
 967 00fa 2F       		.byte	47
 968 00fb D8       		.byte	-40
 969 00fc 30       		.byte	48
 970 00fd 03       		.byte	3
 971 00fe 33       		.byte	51
 972 00ff E0       		.byte	-32
 973 0100 34       		.byte	52
 974 0101 03       		.byte	3
 975 0102 35       		.byte	53
 976 0103 13       		.byte	19
 977 0104 37       		.byte	55
 978 0105 0F       		.byte	15
 979 0106 3B       		.byte	59
 980 0107 88       		.byte	-120
 981 0108 40       		.byte	64
 982 0109 60       		.byte	96
 983 010a 41       		.byte	65
 984 010b 05       		.byte	5
 985 010c 49       		.byte	73
 986 010d FF       		.byte	-1
 987 010e 4A       		.byte	74
 988 010f FF       		.byte	-1
 989 0110 4B       		.byte	75
 990 0111 FF       		.byte	-1
 991 0112 4D       		.byte	77
 992 0113 A0       		.byte	-96
 993 0114 4F       		.byte	79
 994 0115 04       		.byte	4
 995 0116 50       		.byte	80
 996 0117 18       		.byte	24
 997 0118 54       		.byte	84
 998 0119 40       		.byte	64
 999 011a 58       		.byte	88
ARM GAS  C:\Users\luvsd\AppData\Local\Temp\cc9ItDM1.s 			page 39


 1000 011b 04       		.byte	4
 1001 011c 59       		.byte	89
 1002 011d 04       		.byte	4
 1003 011e 5A       		.byte	90
 1004 011f 0B       		.byte	11
 1005 0120 5B       		.byte	91
 1006 0121 04       		.byte	4
 1007 0122 5C       		.byte	92
 1008 0123 33       		.byte	51
 1009 0124 5D       		.byte	93
 1010 0125 39       		.byte	57
 1011 0126 5F       		.byte	95
 1012 0127 01       		.byte	1
 1013 0128 60       		.byte	96
 1014 0129 40       		.byte	64
 1015 012a 62       		.byte	98
 1016 012b C0       		.byte	-64
 1017 012c 64       		.byte	100
 1018 012d 40       		.byte	64
 1019 012e 65       		.byte	101
 1020 012f 40       		.byte	64
 1021 0130 66       		.byte	102
 1022 0131 C0       		.byte	-64
 1023 0132 68       		.byte	104
 1024 0133 C0       		.byte	-64
 1025 0134 6A       		.byte	106
 1026 0135 C0       		.byte	-64
 1027 0136 6C       		.byte	108
 1028 0137 C0       		.byte	-64
 1029 0138 6E       		.byte	110
 1030 0139 C0       		.byte	-64
 1031 013a 87       		.byte	-121
 1032 013b 01       		.byte	1
 1033 013c 8A       		.byte	-118
 1034 013d 04       		.byte	4
 1035 013e 8E       		.byte	-114
 1036 013f 02       		.byte	2
 1037 0140 92       		.byte	-110
 1038 0141 01       		.byte	1
 1039 0142 97       		.byte	-105
 1040 0143 04       		.byte	4
 1041 0144 9A       		.byte	-102
 1042 0145 02       		.byte	2
 1043 0146 9B       		.byte	-101
 1044 0147 02       		.byte	2
 1045 0148 9F       		.byte	-97
 1046 0149 06       		.byte	6
 1047 014a A1       		.byte	-95
 1048 014b 01       		.byte	1
 1049 014c B0       		.byte	-80
 1050 014d 04       		.byte	4
 1051 014e B1       		.byte	-79
 1052 014f 01       		.byte	1
 1053 0150 B2       		.byte	-78
 1054 0151 02       		.byte	2
 1055 0152 B3       		.byte	-77
 1056 0153 02       		.byte	2
ARM GAS  C:\Users\luvsd\AppData\Local\Temp\cc9ItDM1.s 			page 40


 1057 0154 B4       		.byte	-76
 1058 0155 01       		.byte	1
 1059 0156 B5       		.byte	-75
 1060 0157 04       		.byte	4
 1061 0158 B6       		.byte	-74
 1062 0159 02       		.byte	2
 1063 015a B9       		.byte	-71
 1064 015b 28       		.byte	40
 1065 015c BE       		.byte	-66
 1066 015d 04       		.byte	4
 1067 015e BF       		.byte	-65
 1068 015f 14       		.byte	20
 1069 0160 C0       		.byte	-64
 1070 0161 60       		.byte	96
 1071 0162 C1       		.byte	-63
 1072 0163 05       		.byte	5
 1073 0164 C5       		.byte	-59
 1074 0165 D1       		.byte	-47
 1075 0166 C7       		.byte	-57
 1076 0167 20       		.byte	32
 1077 0168 C8       		.byte	-56
 1078 0169 23       		.byte	35
 1079 016a C9       		.byte	-55
 1080 016b FF       		.byte	-1
 1081 016c CA       		.byte	-54
 1082 016d FF       		.byte	-1
 1083 016e CB       		.byte	-53
 1084 016f FF       		.byte	-1
 1085 0170 CD       		.byte	-51
 1086 0171 AF       		.byte	-81
 1087 0172 CE       		.byte	-50
 1088 0173 0F       		.byte	15
 1089 0174 CF       		.byte	-49
 1090 0175 04       		.byte	4
 1091 0176 D0       		.byte	-48
 1092 0177 18       		.byte	24
 1093 0178 D2       		.byte	-46
 1094 0179 80       		.byte	-128
 1095 017a D4       		.byte	-44
 1096 017b 05       		.byte	5
 1097 017c D8       		.byte	-40
 1098 017d 0B       		.byte	11
 1099 017e D9       		.byte	-39
 1100 017f 0B       		.byte	11
 1101 0180 DA       		.byte	-38
 1102 0181 0B       		.byte	11
 1103 0182 DB       		.byte	-37
 1104 0183 0B       		.byte	11
 1105 0184 DC       		.byte	-36
 1106 0185 99       		.byte	-103
 1107 0186 DD       		.byte	-35
 1108 0187 99       		.byte	-103
 1109 0188 DF       		.byte	-33
 1110 0189 01       		.byte	1
 1111 018a E0       		.byte	-32
 1112 018b 40       		.byte	64
 1113 018c E2       		.byte	-30
ARM GAS  C:\Users\luvsd\AppData\Local\Temp\cc9ItDM1.s 			page 41


 1114 018d C0       		.byte	-64
 1115 018e E4       		.byte	-28
 1116 018f 40       		.byte	64
 1117 0190 E5       		.byte	-27
 1118 0191 40       		.byte	64
 1119 0192 E6       		.byte	-26
 1120 0193 C0       		.byte	-64
 1121 0194 E8       		.byte	-24
 1122 0195 C0       		.byte	-64
 1123 0196 EA       		.byte	-22
 1124 0197 C0       		.byte	-64
 1125 0198 EC       		.byte	-20
 1126 0199 C0       		.byte	-64
 1127 019a EE       		.byte	-18
 1128 019b C0       		.byte	-64
 1129 019c 00       		.byte	0
 1130 019d 20       		.byte	32
 1131 019e 02       		.byte	2
 1132 019f 02       		.byte	2
 1133 01a0 09       		.byte	9
 1134 01a1 02       		.byte	2
 1135 01a2 0A       		.byte	10
 1136 01a3 08       		.byte	8
 1137 01a4 0E       		.byte	14
 1138 01a5 90       		.byte	-112
 1139 01a6 17       		.byte	23
 1140 01a7 0A       		.byte	10
 1141 01a8 19       		.byte	25
 1142 01a9 9A       		.byte	-102
 1143 01aa 1A       		.byte	26
 1144 01ab 08       		.byte	8
 1145 01ac 1B       		.byte	27
 1146 01ad 10       		.byte	16
 1147 01ae 1E       		.byte	30
 1148 01af 80       		.byte	-128
 1149 01b0 1F       		.byte	31
 1150 01b1 20       		.byte	32
 1151 01b2 20       		.byte	32
 1152 01b3 08       		.byte	8
 1153 01b4 21       		.byte	33
 1154 01b5 05       		.byte	5
 1155 01b6 24       		.byte	36
 1156 01b7 05       		.byte	5
 1157 01b8 26       		.byte	38
 1158 01b9 14       		.byte	20
 1159 01ba 27       		.byte	39
 1160 01bb 0A       		.byte	10
 1161 01bc 29       		.byte	41
 1162 01bd 02       		.byte	2
 1163 01be 2C       		.byte	44
 1164 01bf 80       		.byte	-128
 1165 01c0 2E       		.byte	46
 1166 01c1 90       		.byte	-112
 1167 01c2 30       		.byte	48
 1168 01c3 20       		.byte	32
 1169 01c4 33       		.byte	51
 1170 01c5 84       		.byte	-124
ARM GAS  C:\Users\luvsd\AppData\Local\Temp\cc9ItDM1.s 			page 42


 1171 01c6 36       		.byte	54
 1172 01c7 14       		.byte	20
 1173 01c8 37       		.byte	55
 1174 01c9 01       		.byte	1
 1175 01ca 3B       		.byte	59
 1176 01cb 08       		.byte	8
 1177 01cc 3D       		.byte	61
 1178 01cd A0       		.byte	-96
 1179 01ce 3E       		.byte	62
 1180 01cf 06       		.byte	6
 1181 01d0 40       		.byte	64
 1182 01d1 80       		.byte	-128
 1183 01d2 41       		.byte	65
 1184 01d3 01       		.byte	1
 1185 01d4 46       		.byte	70
 1186 01d5 80       		.byte	-128
 1187 01d6 47       		.byte	71
 1188 01d7 02       		.byte	2
 1189 01d8 48       		.byte	72
 1190 01d9 10       		.byte	16
 1191 01da 49       		.byte	73
 1192 01db 11       		.byte	17
 1193 01dc 4A       		.byte	74
 1194 01dd 02       		.byte	2
 1195 01de 4B       		.byte	75
 1196 01df 08       		.byte	8
 1197 01e0 4E       		.byte	78
 1198 01e1 02       		.byte	2
 1199 01e2 4F       		.byte	79
 1200 01e3 20       		.byte	32
 1201 01e4 52       		.byte	82
 1202 01e5 02       		.byte	2
 1203 01e6 58       		.byte	88
 1204 01e7 80       		.byte	-128
 1205 01e8 59       		.byte	89
 1206 01e9 09       		.byte	9
 1207 01ea 64       		.byte	100
 1208 01eb 02       		.byte	2
 1209 01ec 66       		.byte	102
 1210 01ed 28       		.byte	40
 1211 01ee 6E       		.byte	110
 1212 01ef 40       		.byte	64
 1213 01f0 71       		.byte	113
 1214 01f1 02       		.byte	2
 1215 01f2 7A       		.byte	122
 1216 01f3 80       		.byte	-128
 1217 01f4 7E       		.byte	126
 1218 01f5 80       		.byte	-128
 1219 01f6 81       		.byte	-127
 1220 01f7 80       		.byte	-128
 1221 01f8 85       		.byte	-123
 1222 01f9 04       		.byte	4
 1223 01fa 88       		.byte	-120
 1224 01fb 02       		.byte	2
 1225 01fc 8B       		.byte	-117
 1226 01fd 08       		.byte	8
 1227 01fe 8E       		.byte	-114
ARM GAS  C:\Users\luvsd\AppData\Local\Temp\cc9ItDM1.s 			page 43


 1228 01ff 40       		.byte	64
 1229 0200 92       		.byte	-110
 1230 0201 14       		.byte	20
 1231 0202 96       		.byte	-106
 1232 0203 20       		.byte	32
 1233 0204 98       		.byte	-104
 1234 0205 40       		.byte	64
 1235 0206 9A       		.byte	-102
 1236 0207 22       		.byte	34
 1237 0208 9B       		.byte	-101
 1238 0209 01       		.byte	1
 1239 020a 9F       		.byte	-97
 1240 020b 1A       		.byte	26
 1241 020c A0       		.byte	-96
 1242 020d 80       		.byte	-128
 1243 020e A1       		.byte	-95
 1244 020f 50       		.byte	80
 1245 0210 A3       		.byte	-93
 1246 0211 08       		.byte	8
 1247 0212 A6       		.byte	-90
 1248 0213 04       		.byte	4
 1249 0214 A7       		.byte	-89
 1250 0215 80       		.byte	-128
 1251 0216 AA       		.byte	-86
 1252 0217 18       		.byte	24
 1253 0218 AB       		.byte	-85
 1254 0219 02       		.byte	2
 1255 021a AD       		.byte	-83
 1256 021b 01       		.byte	1
 1257 021c B0       		.byte	-80
 1258 021d 50       		.byte	80
 1259 021e B1       		.byte	-79
 1260 021f 80       		.byte	-128
 1261 0220 B3       		.byte	-77
 1262 0221 10       		.byte	16
 1263 0222 B6       		.byte	-74
 1264 0223 40       		.byte	64
 1265 0224 C0       		.byte	-64
 1266 0225 03       		.byte	3
 1267 0226 C2       		.byte	-62
 1268 0227 3A       		.byte	58
 1269 0228 C4       		.byte	-60
 1270 0229 30       		.byte	48
 1271 022a CA       		.byte	-54
 1272 022b B1       		.byte	-79
 1273 022c CC       		.byte	-52
 1274 022d EE       		.byte	-18
 1275 022e CE       		.byte	-50
 1276 022f F2       		.byte	-14
 1277 0230 D2       		.byte	-46
 1278 0231 3C       		.byte	60
 1279 0232 D6       		.byte	-42
 1280 0233 0B       		.byte	11
 1281 0234 D8       		.byte	-40
 1282 0235 70       		.byte	112
 1283 0236 DE       		.byte	-34
 1284 0237 81       		.byte	-127
ARM GAS  C:\Users\luvsd\AppData\Local\Temp\cc9ItDM1.s 			page 44


 1285 0238 E0       		.byte	-32
 1286 0239 08       		.byte	8
 1287 023a E6       		.byte	-26
 1288 023b 40       		.byte	64
 1289 023c EC       		.byte	-20
 1290 023d 02       		.byte	2
 1291 023e EE       		.byte	-18
 1292 023f 40       		.byte	64
 1293 0240 00       		.byte	0
 1294 0241 52       		.byte	82
 1295 0242 02       		.byte	2
 1296 0243 A4       		.byte	-92
 1297 0244 04       		.byte	4
 1298 0245 31       		.byte	49
 1299 0246 06       		.byte	6
 1300 0247 42       		.byte	66
 1301 0248 08       		.byte	8
 1302 0249 02       		.byte	2
 1303 024a 0A       		.byte	10
 1304 024b 0D       		.byte	13
 1305 024c 0C       		.byte	12
 1306 024d E0       		.byte	-32
 1307 024e 0D       		.byte	13
 1308 024f 01       		.byte	1
 1309 0250 10       		.byte	16
 1310 0251 0D       		.byte	13
 1311 0252 14       		.byte	20
 1312 0253 42       		.byte	66
 1313 0254 16       		.byte	22
 1314 0255 98       		.byte	-104
 1315 0256 17       		.byte	23
 1316 0257 03       		.byte	3
 1317 0258 18       		.byte	24
 1318 0259 0D       		.byte	13
 1319 025a 1C       		.byte	28
 1320 025b 0D       		.byte	13
 1321 025c 1D       		.byte	29
 1322 025d 04       		.byte	4
 1323 025e 20       		.byte	32
 1324 025f 0D       		.byte	13
 1325 0260 27       		.byte	39
 1326 0261 04       		.byte	4
 1327 0262 28       		.byte	40
 1328 0263 0D       		.byte	13
 1329 0264 30       		.byte	48
 1330 0265 F0       		.byte	-16
 1331 0266 31       		.byte	49
 1332 0267 02       		.byte	2
 1333 0268 33       		.byte	51
 1334 0269 04       		.byte	4
 1335 026a 34       		.byte	52
 1336 026b 0F       		.byte	15
 1337 026c 35       		.byte	53
 1338 026d 01       		.byte	1
 1339 026e 38       		.byte	56
 1340 026f 02       		.byte	2
 1341 0270 39       		.byte	57
ARM GAS  C:\Users\luvsd\AppData\Local\Temp\cc9ItDM1.s 			page 45


 1342 0271 08       		.byte	8
 1343 0272 3A       		.byte	58
 1344 0273 20       		.byte	32
 1345 0274 56       		.byte	86
 1346 0275 08       		.byte	8
 1347 0276 58       		.byte	88
 1348 0277 04       		.byte	4
 1349 0278 59       		.byte	89
 1350 0279 04       		.byte	4
 1351 027a 5B       		.byte	91
 1352 027b 04       		.byte	4
 1353 027c 5C       		.byte	92
 1354 027d 23       		.byte	35
 1355 027e 5D       		.byte	93
 1356 027f 90       		.byte	-112
 1357 0280 5F       		.byte	95
 1358 0281 01       		.byte	1
 1359 0282 80       		.byte	-128
 1360 0283 4D       		.byte	77
 1361 0284 81       		.byte	-127
 1362 0285 01       		.byte	1
 1363 0286 82       		.byte	-126
 1364 0287 80       		.byte	-128
 1365 0288 84       		.byte	-124
 1366 0289 02       		.byte	2
 1367 028a 85       		.byte	-123
 1368 028b 01       		.byte	1
 1369 028c 86       		.byte	-122
 1370 028d 0D       		.byte	13
 1371 028e 88       		.byte	-120
 1372 028f CD       		.byte	-51
 1373 0290 89       		.byte	-119
 1374 0291 01       		.byte	1
 1375 0292 8C       		.byte	-116
 1376 0293 01       		.byte	1
 1377 0294 8E       		.byte	-114
 1378 0295 32       		.byte	50
 1379 0296 8F       		.byte	-113
 1380 0297 04       		.byte	4
 1381 0298 92       		.byte	-110
 1382 0299 80       		.byte	-128
 1383 029a 93       		.byte	-109
 1384 029b 01       		.byte	1
 1385 029c 94       		.byte	-108
 1386 029d 8D       		.byte	-115
 1387 029e 95       		.byte	-107
 1388 029f 10       		.byte	16
 1389 02a0 96       		.byte	-106
 1390 02a1 40       		.byte	64
 1391 02a2 97       		.byte	-105
 1392 02a3 66       		.byte	102
 1393 02a4 98       		.byte	-104
 1394 02a5 12       		.byte	18
 1395 02a6 99       		.byte	-103
 1396 02a7 38       		.byte	56
 1397 02a8 9A       		.byte	-102
 1398 02a9 64       		.byte	100
ARM GAS  C:\Users\luvsd\AppData\Local\Temp\cc9ItDM1.s 			page 46


 1399 02aa 9C       		.byte	-100
 1400 02ab 10       		.byte	16
 1401 02ac 9E       		.byte	-98
 1402 02ad 60       		.byte	96
 1403 02ae A0       		.byte	-96
 1404 02af CD       		.byte	-51
 1405 02b0 A1       		.byte	-95
 1406 02b1 01       		.byte	1
 1407 02b2 A4       		.byte	-92
 1408 02b3 72       		.byte	114
 1409 02b4 A5       		.byte	-91
 1410 02b5 50       		.byte	80
 1411 02b6 A6       		.byte	-90
 1412 02b7 08       		.byte	8
 1413 02b8 A7       		.byte	-89
 1414 02b9 2E       		.byte	46
 1415 02ba AB       		.byte	-85
 1416 02bb 01       		.byte	1
 1417 02bc AC       		.byte	-84
 1418 02bd CD       		.byte	-51
 1419 02be AD       		.byte	-83
 1420 02bf 4A       		.byte	74
 1421 02c0 AF       		.byte	-81
 1422 02c1 10       		.byte	16
 1423 02c2 B2       		.byte	-78
 1424 02c3 0F       		.byte	15
 1425 02c4 B3       		.byte	-77
 1426 02c5 78       		.byte	120
 1427 02c6 B4       		.byte	-76
 1428 02c7 80       		.byte	-128
 1429 02c8 B5       		.byte	-75
 1430 02c9 01       		.byte	1
 1431 02ca B6       		.byte	-74
 1432 02cb 70       		.byte	112
 1433 02cc B7       		.byte	-73
 1434 02cd 06       		.byte	6
 1435 02ce B9       		.byte	-71
 1436 02cf 08       		.byte	8
 1437 02d0 BA       		.byte	-70
 1438 02d1 88       		.byte	-120
 1439 02d2 BE       		.byte	-66
 1440 02d3 10       		.byte	16
 1441 02d4 BF       		.byte	-65
 1442 02d5 10       		.byte	16
 1443 02d6 D4       		.byte	-44
 1444 02d7 40       		.byte	64
 1445 02d8 D8       		.byte	-40
 1446 02d9 04       		.byte	4
 1447 02da D9       		.byte	-39
 1448 02db 04       		.byte	4
 1449 02dc DB       		.byte	-37
 1450 02dd 04       		.byte	4
 1451 02de DC       		.byte	-36
 1452 02df 11       		.byte	17
 1453 02e0 DD       		.byte	-35
 1454 02e1 10       		.byte	16
 1455 02e2 DF       		.byte	-33
ARM GAS  C:\Users\luvsd\AppData\Local\Temp\cc9ItDM1.s 			page 47


 1456 02e3 01       		.byte	1
 1457 02e4 00       		.byte	0
 1458 02e5 45       		.byte	69
 1459 02e6 01       		.byte	1
 1460 02e7 20       		.byte	32
 1461 02e8 04       		.byte	4
 1462 02e9 20       		.byte	32
 1463 02ea 05       		.byte	5
 1464 02eb 84       		.byte	-124
 1465 02ec 07       		.byte	7
 1466 02ed 40       		.byte	64
 1467 02ee 08       		.byte	8
 1468 02ef 02       		.byte	2
 1469 02f0 0A       		.byte	10
 1470 02f1 15       		.byte	21
 1471 02f2 0C       		.byte	12
 1472 02f3 13       		.byte	19
 1473 02f4 0E       		.byte	14
 1474 02f5 22       		.byte	34
 1475 02f6 10       		.byte	16
 1476 02f7 80       		.byte	-128
 1477 02f8 11       		.byte	17
 1478 02f9 20       		.byte	32
 1479 02fa 15       		.byte	21
 1480 02fb 01       		.byte	1
 1481 02fc 16       		.byte	22
 1482 02fd 01       		.byte	1
 1483 02fe 17       		.byte	23
 1484 02ff 08       		.byte	8
 1485 0300 18       		.byte	24
 1486 0301 40       		.byte	64
 1487 0302 19       		.byte	25
 1488 0303 20       		.byte	32
 1489 0304 1C       		.byte	28
 1490 0305 02       		.byte	2
 1491 0306 1D       		.byte	29
 1492 0307 04       		.byte	4
 1493 0308 1E       		.byte	30
 1494 0309 02       		.byte	2
 1495 030a 1F       		.byte	31
 1496 030b 10       		.byte	16
 1497 030c 22       		.byte	34
 1498 030d 18       		.byte	24
 1499 030e 23       		.byte	35
 1500 030f 40       		.byte	64
 1501 0310 25       		.byte	37
 1502 0311 60       		.byte	96
 1503 0312 27       		.byte	39
 1504 0313 20       		.byte	32
 1505 0314 28       		.byte	40
 1506 0315 20       		.byte	32
 1507 0316 2C       		.byte	44
 1508 0317 90       		.byte	-112
 1509 0318 2D       		.byte	45
 1510 0319 84       		.byte	-124
 1511 031a 2F       		.byte	47
 1512 031b 08       		.byte	8
ARM GAS  C:\Users\luvsd\AppData\Local\Temp\cc9ItDM1.s 			page 48


 1513 031c 32       		.byte	50
 1514 031d 48       		.byte	72
 1515 031e 34       		.byte	52
 1516 031f 02       		.byte	2
 1517 0320 37       		.byte	55
 1518 0321 29       		.byte	41
 1519 0322 3B       		.byte	59
 1520 0323 40       		.byte	64
 1521 0324 3D       		.byte	61
 1522 0325 A0       		.byte	-96
 1523 0326 3E       		.byte	62
 1524 0327 07       		.byte	7
 1525 0328 45       		.byte	69
 1526 0329 20       		.byte	32
 1527 032a 46       		.byte	70
 1528 032b 08       		.byte	8
 1529 032c 58       		.byte	88
 1530 032d 40       		.byte	64
 1531 032e 62       		.byte	98
 1532 032f 80       		.byte	-128
 1533 0330 64       		.byte	100
 1534 0331 01       		.byte	1
 1535 0332 66       		.byte	102
 1536 0333 10       		.byte	16
 1537 0334 67       		.byte	103
 1538 0335 20       		.byte	32
 1539 0336 68       		.byte	104
 1540 0337 20       		.byte	32
 1541 0338 6B       		.byte	107
 1542 0339 04       		.byte	4
 1543 033a 6F       		.byte	111
 1544 033b 02       		.byte	2
 1545 033c 87       		.byte	-121
 1546 033d 02       		.byte	2
 1547 033e 8B       		.byte	-117
 1548 033f 80       		.byte	-128
 1549 0340 8F       		.byte	-113
 1550 0341 20       		.byte	32
 1551 0342 90       		.byte	-112
 1552 0343 05       		.byte	5
 1553 0344 92       		.byte	-110
 1554 0345 14       		.byte	20
 1555 0346 96       		.byte	-106
 1556 0347 20       		.byte	32
 1557 0348 98       		.byte	-104
 1558 0349 40       		.byte	64
 1559 034a 9A       		.byte	-102
 1560 034b 02       		.byte	2
 1561 034c 9B       		.byte	-101
 1562 034d 01       		.byte	1
 1563 034e 9E       		.byte	-98
 1564 034f 08       		.byte	8
 1565 0350 9F       		.byte	-97
 1566 0351 04       		.byte	4
 1567 0352 A0       		.byte	-96
 1568 0353 80       		.byte	-128
 1569 0354 A1       		.byte	-95
ARM GAS  C:\Users\luvsd\AppData\Local\Temp\cc9ItDM1.s 			page 49


 1570 0355 10       		.byte	16
 1571 0356 A3       		.byte	-93
 1572 0357 08       		.byte	8
 1573 0358 A4       		.byte	-92
 1574 0359 20       		.byte	32
 1575 035a A6       		.byte	-90
 1576 035b 80       		.byte	-128
 1577 035c A7       		.byte	-89
 1578 035d 80       		.byte	-128
 1579 035e AB       		.byte	-85
 1580 035f 30       		.byte	48
 1581 0360 B0       		.byte	-80
 1582 0361 04       		.byte	4
 1583 0362 C0       		.byte	-64
 1584 0363 FF       		.byte	-1
 1585 0364 C2       		.byte	-62
 1586 0365 FF       		.byte	-1
 1587 0366 C4       		.byte	-60
 1588 0367 BA       		.byte	-70
 1589 0368 CA       		.byte	-54
 1590 0369 F2       		.byte	-14
 1591 036a CC       		.byte	-52
 1592 036b EA       		.byte	-22
 1593 036c CE       		.byte	-50
 1594 036d F8       		.byte	-8
 1595 036e D6       		.byte	-42
 1596 036f 08       		.byte	8
 1597 0370 D8       		.byte	-40
 1598 0371 78       		.byte	120
 1599 0372 E0       		.byte	-32
 1600 0373 80       		.byte	-128
 1601 0374 E6       		.byte	-26
 1602 0375 10       		.byte	16
 1603 0376 80       		.byte	-128
 1604 0377 13       		.byte	19
 1605 0378 82       		.byte	-126
 1606 0379 2C       		.byte	44
 1607 037a 88       		.byte	-120
 1608 037b 02       		.byte	2
 1609 037c 8A       		.byte	-118
 1610 037d 0D       		.byte	13
 1611 037e A4       		.byte	-92
 1612 037f 35       		.byte	53
 1613 0380 A6       		.byte	-90
 1614 0381 0A       		.byte	10
 1615 0382 A8       		.byte	-88
 1616 0383 19       		.byte	25
 1617 0384 AA       		.byte	-86
 1618 0385 26       		.byte	38
 1619 0386 B2       		.byte	-78
 1620 0387 0F       		.byte	15
 1621 0388 B4       		.byte	-76
 1622 0389 20       		.byte	32
 1623 038a B6       		.byte	-74
 1624 038b 10       		.byte	16
 1625 038c BA       		.byte	-70
 1626 038d 08       		.byte	8
ARM GAS  C:\Users\luvsd\AppData\Local\Temp\cc9ItDM1.s 			page 50


 1627 038e BE       		.byte	-66
 1628 038f 50       		.byte	80
 1629 0390 D4       		.byte	-44
 1630 0391 09       		.byte	9
 1631 0392 D8       		.byte	-40
 1632 0393 04       		.byte	4
 1633 0394 DB       		.byte	-37
 1634 0395 04       		.byte	4
 1635 0396 DC       		.byte	-36
 1636 0397 01       		.byte	1
 1637 0398 DD       		.byte	-35
 1638 0399 10       		.byte	16
 1639 039a DF       		.byte	-33
 1640 039b 01       		.byte	1
 1641 039c 00       		.byte	0
 1642 039d 10       		.byte	16
 1643 039e 02       		.byte	2
 1644 039f 80       		.byte	-128
 1645 03a0 04       		.byte	4
 1646 03a1 22       		.byte	34
 1647 03a2 06       		.byte	6
 1648 03a3 22       		.byte	34
 1649 03a4 0D       		.byte	13
 1650 03a5 02       		.byte	2
 1651 03a6 0E       		.byte	14
 1652 03a7 20       		.byte	32
 1653 03a8 0F       		.byte	15
 1654 03a9 0A       		.byte	10
 1655 03aa 11       		.byte	17
 1656 03ab 2C       		.byte	44
 1657 03ac 15       		.byte	21
 1658 03ad 41       		.byte	65
 1659 03ae 17       		.byte	23
 1660 03af 48       		.byte	72
 1661 03b0 18       		.byte	24
 1662 03b1 11       		.byte	17
 1663 03b2 19       		.byte	25
 1664 03b3 24       		.byte	36
 1665 03b4 1D       		.byte	29
 1666 03b5 02       		.byte	2
 1667 03b6 1E       		.byte	30
 1668 03b7 01       		.byte	1
 1669 03b8 24       		.byte	36
 1670 03b9 02       		.byte	2
 1671 03ba 25       		.byte	37
 1672 03bb 14       		.byte	20
 1673 03bc 26       		.byte	38
 1674 03bd 80       		.byte	-128
 1675 03be 27       		.byte	39
 1676 03bf 08       		.byte	8
 1677 03c0 2D       		.byte	45
 1678 03c1 01       		.byte	1
 1679 03c2 2E       		.byte	46
 1680 03c3 A0       		.byte	-96
 1681 03c4 36       		.byte	54
 1682 03c5 90       		.byte	-112
 1683 03c6 37       		.byte	55
ARM GAS  C:\Users\luvsd\AppData\Local\Temp\cc9ItDM1.s 			page 51


 1684 03c7 09       		.byte	9
 1685 03c8 3C       		.byte	60
 1686 03c9 82       		.byte	-126
 1687 03ca 3E       		.byte	62
 1688 03cb 04       		.byte	4
 1689 03cc 3F       		.byte	63
 1690 03cd 02       		.byte	2
 1691 03ce 45       		.byte	69
 1692 03cf 14       		.byte	20
 1693 03d0 46       		.byte	70
 1694 03d1 20       		.byte	32
 1695 03d2 47       		.byte	71
 1696 03d3 02       		.byte	2
 1697 03d4 4C       		.byte	76
 1698 03d5 01       		.byte	1
 1699 03d6 4D       		.byte	77
 1700 03d7 88       		.byte	-120
 1701 03d8 4F       		.byte	79
 1702 03d9 20       		.byte	32
 1703 03da 54       		.byte	84
 1704 03db 02       		.byte	2
 1705 03dc 56       		.byte	86
 1706 03dd 90       		.byte	-112
 1707 03de 57       		.byte	87
 1708 03df 04       		.byte	4
 1709 03e0 58       		.byte	88
 1710 03e1 80       		.byte	-128
 1711 03e2 59       		.byte	89
 1712 03e3 08       		.byte	8
 1713 03e4 5A       		.byte	90
 1714 03e5 01       		.byte	1
 1715 03e6 5B       		.byte	91
 1716 03e7 22       		.byte	34
 1717 03e8 60       		.byte	96
 1718 03e9 01       		.byte	1
 1719 03ea 65       		.byte	101
 1720 03eb 04       		.byte	4
 1721 03ec 6A       		.byte	106
 1722 03ed 80       		.byte	-128
 1723 03ee 6C       		.byte	108
 1724 03ef 10       		.byte	16
 1725 03f0 6D       		.byte	109
 1726 03f1 41       		.byte	65
 1727 03f2 6E       		.byte	110
 1728 03f3 24       		.byte	36
 1729 03f4 6F       		.byte	111
 1730 03f5 01       		.byte	1
 1731 03f6 74       		.byte	116
 1732 03f7 40       		.byte	64
 1733 03f8 76       		.byte	118
 1734 03f9 03       		.byte	3
 1735 03fa 80       		.byte	-128
 1736 03fb 80       		.byte	-128
 1737 03fc 81       		.byte	-127
 1738 03fd 22       		.byte	34
 1739 03fe 86       		.byte	-122
 1740 03ff 80       		.byte	-128
ARM GAS  C:\Users\luvsd\AppData\Local\Temp\cc9ItDM1.s 			page 52


 1741 0400 87       		.byte	-121
 1742 0401 20       		.byte	32
 1743 0402 94       		.byte	-108
 1744 0403 20       		.byte	32
 1745 0404 95       		.byte	-107
 1746 0405 05       		.byte	5
 1747 0406 96       		.byte	-106
 1748 0407 80       		.byte	-128
 1749 0408 9D       		.byte	-99
 1750 0409 80       		.byte	-128
 1751 040a 9E       		.byte	-98
 1752 040b 11       		.byte	17
 1753 040c 9F       		.byte	-97
 1754 040d 48       		.byte	72
 1755 040e A0       		.byte	-96
 1756 040f 01       		.byte	1
 1757 0410 A3       		.byte	-93
 1758 0411 10       		.byte	16
 1759 0412 A4       		.byte	-92
 1760 0413 02       		.byte	2
 1761 0414 A6       		.byte	-90
 1762 0415 10       		.byte	16
 1763 0416 A8       		.byte	-88
 1764 0417 20       		.byte	32
 1765 0418 AB       		.byte	-85
 1766 0419 10       		.byte	16
 1767 041a B1       		.byte	-79
 1768 041b 40       		.byte	64
 1769 041c C0       		.byte	-64
 1770 041d FA       		.byte	-6
 1771 041e C2       		.byte	-62
 1772 041f F0       		.byte	-16
 1773 0420 C4       		.byte	-60
 1774 0421 B6       		.byte	-74
 1775 0422 CA       		.byte	-54
 1776 0423 B0       		.byte	-80
 1777 0424 CC       		.byte	-52
 1778 0425 F0       		.byte	-16
 1779 0426 CE       		.byte	-50
 1780 0427 D0       		.byte	-48
 1781 0428 D0       		.byte	-48
 1782 0429 E0       		.byte	-32
 1783 042a D2       		.byte	-46
 1784 042b 30       		.byte	48
 1785 042c D6       		.byte	-42
 1786 042d 0F       		.byte	15
 1787 042e D8       		.byte	-40
 1788 042f 48       		.byte	72
 1789 0430 E2       		.byte	-30
 1790 0431 80       		.byte	-128
 1791 0432 EE       		.byte	-18
 1792 0433 24       		.byte	36
 1793 0434 68       		.byte	104
 1794 0435 01       		.byte	1
 1795 0436 6F       		.byte	111
 1796 0437 10       		.byte	16
 1797 0438 71       		.byte	113
ARM GAS  C:\Users\luvsd\AppData\Local\Temp\cc9ItDM1.s 			page 53


 1798 0439 10       		.byte	16
 1799 043a DA       		.byte	-38
 1800 043b C0       		.byte	-64
 1801 043c DC       		.byte	-36
 1802 043d 20       		.byte	32
 1803 043e 09       		.byte	9
 1804 043f 04       		.byte	4
 1805 0440 54       		.byte	84
 1806 0441 02       		.byte	2
 1807 0442 57       		.byte	87
 1808 0443 80       		.byte	-128
 1809 0444 59       		.byte	89
 1810 0445 80       		.byte	-128
 1811 0446 83       		.byte	-125
 1812 0447 10       		.byte	16
 1813 0448 8D       		.byte	-115
 1814 0449 80       		.byte	-128
 1815 044a 9F       		.byte	-97
 1816 044b 10       		.byte	16
 1817 044c A0       		.byte	-96
 1818 044d 02       		.byte	2
 1819 044e A4       		.byte	-92
 1820 044f 01       		.byte	1
 1821 0450 A9       		.byte	-87
 1822 0451 10       		.byte	16
 1823 0452 B4       		.byte	-76
 1824 0453 02       		.byte	2
 1825 0454 C2       		.byte	-62
 1826 0455 10       		.byte	16
 1827 0456 D4       		.byte	-44
 1828 0457 C0       		.byte	-64
 1829 0458 D6       		.byte	-42
 1830 0459 20       		.byte	32
 1831 045a E2       		.byte	-30
 1832 045b 20       		.byte	32
 1833 045c EE       		.byte	-18
 1834 045d 20       		.byte	32
 1835 045e 07       		.byte	7
 1836 045f 40       		.byte	64
 1837 0460 10       		.byte	16
 1838 0461 40       		.byte	64
 1839 0462 55       		.byte	85
 1840 0463 08       		.byte	8
 1841 0464 5F       		.byte	95
 1842 0465 20       		.byte	32
 1843 0466 62       		.byte	98
 1844 0467 02       		.byte	2
 1845 0468 67       		.byte	103
 1846 0469 80       		.byte	-128
 1847 046a 87       		.byte	-121
 1848 046b 40       		.byte	64
 1849 046c 88       		.byte	-120
 1850 046d 40       		.byte	64
 1851 046e 8E       		.byte	-114
 1852 046f 02       		.byte	2
 1853 0470 A4       		.byte	-92
 1854 0471 01       		.byte	1
ARM GAS  C:\Users\luvsd\AppData\Local\Temp\cc9ItDM1.s 			page 54


 1855 0472 A9       		.byte	-87
 1856 0473 04       		.byte	4
 1857 0474 AB       		.byte	-85
 1858 0475 80       		.byte	-128
 1859 0476 C0       		.byte	-64
 1860 0477 20       		.byte	32
 1861 0478 C4       		.byte	-60
 1862 0479 10       		.byte	16
 1863 047a D4       		.byte	-44
 1864 047b 40       		.byte	64
 1865 047c D6       		.byte	-42
 1866 047d 20       		.byte	32
 1867 047e D8       		.byte	-40
 1868 047f C0       		.byte	-64
 1869 0480 E2       		.byte	-30
 1870 0481 10       		.byte	16
 1871 0482 E8       		.byte	-24
 1872 0483 20       		.byte	32
 1873 0484 EE       		.byte	-18
 1874 0485 20       		.byte	32
 1875 0486 81       		.byte	-127
 1876 0487 08       		.byte	8
 1877 0488 88       		.byte	-120
 1878 0489 01       		.byte	1
 1879 048a A4       		.byte	-92
 1880 048b 01       		.byte	1
 1881 048c A5       		.byte	-91
 1882 048d 08       		.byte	8
 1883 048e AB       		.byte	-85
 1884 048f 40       		.byte	64
 1885 0490 B3       		.byte	-77
 1886 0491 20       		.byte	32
 1887 0492 E2       		.byte	-30
 1888 0493 80       		.byte	-128
 1889 0494 EC       		.byte	-20
 1890 0495 80       		.byte	-128
 1891 0496 26       		.byte	38
 1892 0497 10       		.byte	16
 1893 0498 53       		.byte	83
 1894 0499 42       		.byte	66
 1895 049a 56       		.byte	86
 1896 049b 20       		.byte	32
 1897 049c 5C       		.byte	92
 1898 049d 02       		.byte	2
 1899 049e 5F       		.byte	95
 1900 049f 40       		.byte	64
 1901 04a0 65       		.byte	101
 1902 04a1 20       		.byte	32
 1903 04a2 82       		.byte	-126
 1904 04a3 20       		.byte	32
 1905 04a4 85       		.byte	-123
 1906 04a5 20       		.byte	32
 1907 04a6 C8       		.byte	-56
 1908 04a7 04       		.byte	4
 1909 04a8 D4       		.byte	-44
 1910 04a9 07       		.byte	7
 1911 04aa D6       		.byte	-42
ARM GAS  C:\Users\luvsd\AppData\Local\Temp\cc9ItDM1.s 			page 55


 1912 04ab 05       		.byte	5
 1913 04ac D8       		.byte	-40
 1914 04ad 01       		.byte	1
 1915 04ae 04       		.byte	4
 1916 04af 40       		.byte	64
 1917 04b0 87       		.byte	-121
 1918 04b1 02       		.byte	2
 1919 04b2 9C       		.byte	-100
 1920 04b3 02       		.byte	2
 1921 04b4 A7       		.byte	-89
 1922 04b5 02       		.byte	2
 1923 04b6 AF       		.byte	-81
 1924 04b7 40       		.byte	64
 1925 04b8 B2       		.byte	-78
 1926 04b9 10       		.byte	16
 1927 04ba B3       		.byte	-77
 1928 04bb 40       		.byte	64
 1929 04bc C0       		.byte	-64
 1930 04bd 01       		.byte	1
 1931 04be EA       		.byte	-22
 1932 04bf 01       		.byte	1
 1933 04c0 EC       		.byte	-20
 1934 04c1 01       		.byte	1
 1935 04c2 90       		.byte	-112
 1936 04c3 40       		.byte	64
 1937 04c4 B0       		.byte	-80
 1938 04c5 02       		.byte	2
 1939 04c6 E8       		.byte	-24
 1940 04c7 04       		.byte	4
 1941 04c8 2D       		.byte	45
 1942 04c9 08       		.byte	8
 1943 04ca 89       		.byte	-119
 1944 04cb 08       		.byte	8
 1945 04cc A8       		.byte	-88
 1946 04cd 40       		.byte	64
 1947 04ce CA       		.byte	-54
 1948 04cf 01       		.byte	1
 1949 04d0 E2       		.byte	-30
 1950 04d1 01       		.byte	1
 1951 04d2 10       		.byte	16
 1952 04d3 08       		.byte	8
 1953 04d4 11       		.byte	17
 1954 04d5 01       		.byte	1
 1955 04d6 12       		.byte	18
 1956 04d7 0E       		.byte	14
 1957 04d8 13       		.byte	19
 1958 04d9 01       		.byte	1
 1959 04da 0000     		.space	2
 1960              		.type	cy_cfg_addr_table.4965, %object
 1961              		.size	cy_cfg_addr_table.4965, 72
 1962              	cy_cfg_addr_table.4965:
 1963 04dc 04000F40 		.word	1074724868
 1964 04e0 12300F40 		.word	1074737170
 1965 04e4 3D310F40 		.word	1074737469
 1966 04e8 65320F40 		.word	1074737765
 1967 04ec 52330F40 		.word	1074738002
 1968 04f0 52340F40 		.word	1074738258
ARM GAS  C:\Users\luvsd\AppData\Local\Temp\cc9ItDM1.s 			page 56


 1969 04f4 49350F40 		.word	1074738505
 1970 04f8 13360F40 		.word	1074738707
 1971 04fc 4C370F40 		.word	1074739020
 1972 0500 05400F40 		.word	1074741253
 1973 0504 10410F40 		.word	1074741520
 1974 0508 14420F40 		.word	1074741780
 1975 050c 08430F40 		.word	1074742024
 1976 0510 0C440F40 		.word	1074742284
 1977 0514 0A450F40 		.word	1074742538
 1978 0518 03460F40 		.word	1074742787
 1979 051c 05470F40 		.word	1074743045
 1980 0520 04600F40 		.word	1074749444
 1981              		.type	BS_UDB_0_3_1_CONFIG_VAL.4977, %object
 1982              		.size	BS_UDB_0_3_1_CONFIG_VAL.4977, 128
 1983              	BS_UDB_0_3_1_CONFIG_VAL.4977:
 1984 0524 56       		.byte	86
 1985 0525 49       		.byte	73
 1986 0526 09       		.byte	9
 1987 0527 86       		.byte	-122
 1988 0528 00       		.byte	0
 1989 0529 00       		.byte	0
 1990 052a 00       		.byte	0
 1991 052b 00       		.byte	0
 1992 052c 84       		.byte	-124
 1993 052d 00       		.byte	0
 1994 052e 00       		.byte	0
 1995 052f 00       		.byte	0
 1996 0530 84       		.byte	-124
 1997 0531 40       		.byte	64
 1998 0532 00       		.byte	0
 1999 0533 00       		.byte	0
 2000 0534 01       		.byte	1
 2001 0535 E5       		.byte	-27
 2002 0536 00       		.byte	0
 2003 0537 1A       		.byte	26
 2004 0538 80       		.byte	-128
 2005 0539 13       		.byte	19
 2006 053a 04       		.byte	4
 2007 053b AC       		.byte	-84
 2008 053c 04       		.byte	4
 2009 053d 02       		.byte	2
 2010 053e 00       		.byte	0
 2011 053f 0D       		.byte	13
 2012 0540 84       		.byte	-124
 2013 0541 00       		.byte	0
 2014 0542 00       		.byte	0
 2015 0543 00       		.byte	0
 2016 0544 04       		.byte	4
 2017 0545 00       		.byte	0
 2018 0546 80       		.byte	-128
 2019 0547 00       		.byte	0
 2020 0548 07       		.byte	7
 2021 0549 00       		.byte	0
 2022 054a 38       		.byte	56
 2023 054b 00       		.byte	0
 2024 054c 0A       		.byte	10
 2025 054d 00       		.byte	0
ARM GAS  C:\Users\luvsd\AppData\Local\Temp\cc9ItDM1.s 			page 57


 2026 054e 10       		.byte	16
 2027 054f 00       		.byte	0
 2028 0550 60       		.byte	96
 2029 0551 00       		.byte	0
 2030 0552 00       		.byte	0
 2031 0553 00       		.byte	0
 2032 0554 7F       		.byte	127
 2033 0555 00       		.byte	0
 2034 0556 80       		.byte	-128
 2035 0557 80       		.byte	-128
 2036 0558 00       		.byte	0
 2037 0559 0F       		.byte	15
 2038 055a 02       		.byte	2
 2039 055b 70       		.byte	112
 2040 055c 02       		.byte	2
 2041 055d 00       		.byte	0
 2042 055e 00       		.byte	0
 2043 055f A0       		.byte	-96
 2044 0560 00       		.byte	0
 2045 0561 00       		.byte	0
 2046 0562 44       		.byte	68
 2047 0563 04       		.byte	4
 2048 0564 45       		.byte	69
 2049 0565 06       		.byte	6
 2050 0566 30       		.byte	48
 2051 0567 00       		.byte	0
 2052 0568 02       		.byte	2
 2053 0569 0E       		.byte	14
 2054 056a FC       		.byte	-4
 2055 056b BD       		.byte	-67
 2056 056c 3D       		.byte	61
 2057 056d FF       		.byte	-1
 2058 056e FF       		.byte	-1
 2059 056f FF       		.byte	-1
 2060 0570 22       		.byte	34
 2061 0571 00       		.byte	0
 2062 0572 F0       		.byte	-16
 2063 0573 08       		.byte	8
 2064 0574 04       		.byte	4
 2065 0575 00       		.byte	0
 2066 0576 00       		.byte	0
 2067 0577 00       		.byte	0
 2068 0578 00       		.byte	0
 2069 0579 00       		.byte	0
 2070 057a 02       		.byte	2
 2071 057b 24       		.byte	36
 2072 057c 04       		.byte	4
 2073 057d 04       		.byte	4
 2074 057e 04       		.byte	4
 2075 057f 04       		.byte	4
 2076 0580 33       		.byte	51
 2077 0581 33       		.byte	51
 2078 0582 00       		.byte	0
 2079 0583 01       		.byte	1
 2080 0584 00       		.byte	0
 2081 0585 00       		.byte	0
 2082 0586 C0       		.byte	-64
ARM GAS  C:\Users\luvsd\AppData\Local\Temp\cc9ItDM1.s 			page 58


 2083 0587 00       		.byte	0
 2084 0588 40       		.byte	64
 2085 0589 01       		.byte	1
 2086 058a 10       		.byte	16
 2087 058b 11       		.byte	17
 2088 058c C0       		.byte	-64
 2089 058d 01       		.byte	1
 2090 058e 00       		.byte	0
 2091 058f 11       		.byte	17
 2092 0590 40       		.byte	64
 2093 0591 01       		.byte	1
 2094 0592 40       		.byte	64
 2095 0593 01       		.byte	1
 2096 0594 00       		.byte	0
 2097 0595 00       		.byte	0
 2098 0596 00       		.byte	0
 2099 0597 00       		.byte	0
 2100 0598 00       		.byte	0
 2101 0599 00       		.byte	0
 2102 059a 00       		.byte	0
 2103 059b 00       		.byte	0
 2104 059c 00       		.byte	0
 2105 059d 00       		.byte	0
 2106 059e 00       		.byte	0
 2107 059f 00       		.byte	0
 2108 05a0 00       		.byte	0
 2109 05a1 00       		.byte	0
 2110 05a2 00       		.byte	0
 2111 05a3 00       		.byte	0
 2112              		.type	BS_UDB_0_0_1_CONFIG_VAL.4978, %object
 2113              		.size	BS_UDB_0_0_1_CONFIG_VAL.4978, 128
 2114              	BS_UDB_0_0_1_CONFIG_VAL.4978:
 2115 05a4 07       		.byte	7
 2116 05a5 18       		.byte	24
 2117 05a6 38       		.byte	56
 2118 05a7 00       		.byte	0
 2119 05a8 0A       		.byte	10
 2120 05a9 18       		.byte	24
 2121 05aa 10       		.byte	16
 2122 05ab 02       		.byte	2
 2123 05ac 84       		.byte	-124
 2124 05ad 00       		.byte	0
 2125 05ae 00       		.byte	0
 2126 05af 00       		.byte	0
 2127 05b0 84       		.byte	-124
 2128 05b1 1A       		.byte	26
 2129 05b2 00       		.byte	0
 2130 05b3 00       		.byte	0
 2131 05b4 01       		.byte	1
 2132 05b5 18       		.byte	24
 2133 05b6 00       		.byte	0
 2134 05b7 02       		.byte	2
 2135 05b8 80       		.byte	-128
 2136 05b9 9C       		.byte	-100
 2137 05ba 04       		.byte	4
 2138 05bb 03       		.byte	3
 2139 05bc 60       		.byte	96
ARM GAS  C:\Users\luvsd\AppData\Local\Temp\cc9ItDM1.s 			page 59


 2140 05bd 02       		.byte	2
 2141 05be 00       		.byte	0
 2142 05bf 18       		.byte	24
 2143 05c0 04       		.byte	4
 2144 05c1 33       		.byte	51
 2145 05c2 00       		.byte	0
 2146 05c3 44       		.byte	68
 2147 05c4 84       		.byte	-124
 2148 05c5 1A       		.byte	26
 2149 05c6 00       		.byte	0
 2150 05c7 00       		.byte	0
 2151 05c8 56       		.byte	86
 2152 05c9 00       		.byte	0
 2153 05ca 09       		.byte	9
 2154 05cb 00       		.byte	0
 2155 05cc 00       		.byte	0
 2156 05cd C1       		.byte	-63
 2157 05ce 00       		.byte	0
 2158 05cf 38       		.byte	56
 2159 05d0 04       		.byte	4
 2160 05d1 82       		.byte	-126
 2161 05d2 80       		.byte	-128
 2162 05d3 00       		.byte	0
 2163 05d4 7F       		.byte	127
 2164 05d5 00       		.byte	0
 2165 05d6 00       		.byte	0
 2166 05d7 0F       		.byte	15
 2167 05d8 00       		.byte	0
 2168 05d9 E0       		.byte	-32
 2169 05da 80       		.byte	-128
 2170 05db 13       		.byte	19
 2171 05dc 02       		.byte	2
 2172 05dd 00       		.byte	0
 2173 05de 00       		.byte	0
 2174 05df 28       		.byte	40
 2175 05e0 00       		.byte	0
 2176 05e1 00       		.byte	0
 2177 05e2 40       		.byte	64
 2178 05e3 00       		.byte	0
 2179 05e4 32       		.byte	50
 2180 05e5 05       		.byte	5
 2181 05e6 40       		.byte	64
 2182 05e7 00       		.byte	0
 2183 05e8 06       		.byte	6
 2184 05e9 0E       		.byte	14
 2185 05ea FC       		.byte	-4
 2186 05eb DB       		.byte	-37
 2187 05ec 3D       		.byte	61
 2188 05ed FF       		.byte	-1
 2189 05ee FF       		.byte	-1
 2190 05ef FF       		.byte	-1
 2191 05f0 22       		.byte	34
 2192 05f1 00       		.byte	0
 2193 05f2 F0       		.byte	-16
 2194 05f3 08       		.byte	8
 2195 05f4 04       		.byte	4
 2196 05f5 00       		.byte	0
ARM GAS  C:\Users\luvsd\AppData\Local\Temp\cc9ItDM1.s 			page 60


 2197 05f6 00       		.byte	0
 2198 05f7 00       		.byte	0
 2199 05f8 00       		.byte	0
 2200 05f9 00       		.byte	0
 2201 05fa 02       		.byte	2
 2202 05fb 28       		.byte	40
 2203 05fc 04       		.byte	4
 2204 05fd 04       		.byte	4
 2205 05fe 04       		.byte	4
 2206 05ff 04       		.byte	4
 2207 0600 11       		.byte	17
 2208 0601 11       		.byte	17
 2209 0602 00       		.byte	0
 2210 0603 01       		.byte	1
 2211 0604 00       		.byte	0
 2212 0605 00       		.byte	0
 2213 0606 C0       		.byte	-64
 2214 0607 00       		.byte	0
 2215 0608 40       		.byte	64
 2216 0609 01       		.byte	1
 2217 060a 10       		.byte	16
 2218 060b 11       		.byte	17
 2219 060c C0       		.byte	-64
 2220 060d 01       		.byte	1
 2221 060e 00       		.byte	0
 2222 060f 11       		.byte	17
 2223 0610 40       		.byte	64
 2224 0611 01       		.byte	1
 2225 0612 40       		.byte	64
 2226 0613 01       		.byte	1
 2227 0614 00       		.byte	0
 2228 0615 00       		.byte	0
 2229 0616 00       		.byte	0
 2230 0617 00       		.byte	0
 2231 0618 00       		.byte	0
 2232 0619 00       		.byte	0
 2233 061a 00       		.byte	0
 2234 061b 00       		.byte	0
 2235 061c 00       		.byte	0
 2236 061d 00       		.byte	0
 2237 061e 00       		.byte	0
 2238 061f 00       		.byte	0
 2239 0620 00       		.byte	0
 2240 0621 00       		.byte	0
 2241 0622 00       		.byte	0
 2242 0623 00       		.byte	0
 2243              		.text
 2244              	.Letext0:
 2245              		.file 2 "c:\\program files (x86)\\cypress\\psoc creator\\4.4\\psoc creator\\import\\gnu\\arm\\5.4.
 2246              		.file 3 "Generated_Source\\PSoC4\\cytypes.h"
 2247              		.file 4 "Generated_Source\\PSoC4\\CyLFClk.h"
 2248              		.file 5 "Generated_Source\\PSoC4\\CyLib.h"