ARM GAS  C:\Users\luvsd\AppData\Local\Temp\ccfmQUv3.s 			page 1


   1              		.syntax unified
   2              		.cpu cortex-m0
   3              		.fpu softvfp
   4              		.eabi_attribute 20, 1
   5              		.eabi_attribute 21, 1
   6              		.eabi_attribute 23, 3
   7              		.eabi_attribute 24, 1
   8              		.eabi_attribute 25, 1
   9              		.eabi_attribute 26, 1
  10              		.eabi_attribute 30, 1
  11              		.eabi_attribute 34, 0
  12              		.eabi_attribute 18, 4
  13              		.thumb
  14              		.syntax unified
  15              		.file	"externalFlash.c"
  16              		.text
  17              	.Ltext0:
  18              		.cfi_sections	.debug_frame
  19              		.section	.text.checkSum,"ax",%progbits
  20              		.align	2
  21              		.global	checkSum
  22              		.code	16
  23              		.thumb_func
  24              		.type	checkSum, %function
  25              	checkSum:
  26              	.LFB67:
  27              		.file 1 "lib\\externalFlash.c"
   1:lib/externalFlash.c **** #include "externalFlash.h"
   2:lib/externalFlash.c **** #include "w25qxx.h"
   3:lib/externalFlash.c **** #include "UI.h"
   4:lib/externalFlash.c **** #include "package.h"
   5:lib/externalFlash.c **** 
   6:lib/externalFlash.c **** EXTERNAL_CONFIG g_externalFlash;
   7:lib/externalFlash.c **** 
   8:lib/externalFlash.c **** uint32_t g_uSectorForConfig;
   9:lib/externalFlash.c **** uint32_t g_uAddressForConfig;
  10:lib/externalFlash.c **** 
  11:lib/externalFlash.c **** // Data 초기화
  12:lib/externalFlash.c **** void initExternalFlash()
  13:lib/externalFlash.c **** {
  14:lib/externalFlash.c ****     while(!W25qxx_Init()); 
  15:lib/externalFlash.c ****     
  16:lib/externalFlash.c ****     g_uSectorForConfig = (w25qxx.SectorCount-1);                   // 마지막 섹터
  17:lib/externalFlash.c ****     g_uAddressForConfig = g_uSectorForConfig * w25qxx.SectorSize;  // 주소
  18:lib/externalFlash.c ****        
  19:lib/externalFlash.c ****     if(LoadExternalFlashConfig() == FALSE)
  20:lib/externalFlash.c ****     {
  21:lib/externalFlash.c ****         memset(&g_externalFlash,0, sizeof(g_externalFlash));
  22:lib/externalFlash.c ****         
  23:lib/externalFlash.c ****         SetDefaultExternalFlashConfig();
  24:lib/externalFlash.c ****         SetUserProjectDefaultExternalFlashConfig();   
  25:lib/externalFlash.c ****         ValidationExternalFlashConfig();    
  26:lib/externalFlash.c ****                 
  27:lib/externalFlash.c ****         SaveExternalFlashConfig();
  28:lib/externalFlash.c ****         return;
  29:lib/externalFlash.c ****     }
  30:lib/externalFlash.c ****       
ARM GAS  C:\Users\luvsd\AppData\Local\Temp\ccfmQUv3.s 			page 2


  31:lib/externalFlash.c ****     ValidationExternalFlashConfig();
  32:lib/externalFlash.c ****     
  33:lib/externalFlash.c **** }
  34:lib/externalFlash.c **** 
  35:lib/externalFlash.c **** // external flash에 데이터가 한번도 안썼다면 데이터 초기화
  36:lib/externalFlash.c **** void SetDefaultExternalFlashConfig()
  37:lib/externalFlash.c **** {
  38:lib/externalFlash.c **** //    SetDefaultConfigServer();
  39:lib/externalFlash.c **** 
  40:lib/externalFlash.c ****     getMiscConfig()->bDisplayDir  = DISPLAY_DIRECTION_PORTRAIT;
  41:lib/externalFlash.c ****     getMiscConfig()->uBrightness = 50;
  42:lib/externalFlash.c **** }
  43:lib/externalFlash.c **** 
  44:lib/externalFlash.c **** // 데이터가 유효한지 검사하고, 문제가 있으면 데이터를 초기화 한다.
  45:lib/externalFlash.c **** void ValidationExternalFlashConfig()
  46:lib/externalFlash.c **** {
  47:lib/externalFlash.c **** //    ValidationConfigServer();
  48:lib/externalFlash.c **** 
  49:lib/externalFlash.c ****     if(userProjectDataValidation()==FALSE) SetUserProjectDefaultExternalFlashConfig();
  50:lib/externalFlash.c **** 
  51:lib/externalFlash.c ****     if(getMiscConfig()->bDisplayDir != DISPLAY_DIRECTION_PORTRAIT &&  
  52:lib/externalFlash.c ****        getMiscConfig()->bDisplayDir != DISPLAY_DIRECTION_LANDSCAPE)            getMiscConfig()->bDi
  53:lib/externalFlash.c ****     
  54:lib/externalFlash.c ****     if(getMiscConfig()->uBrightness <= 0 || getMiscConfig()->uBrightness > 99) getMiscConfig()->uBr
  55:lib/externalFlash.c ****             
  56:lib/externalFlash.c ****     
  57:lib/externalFlash.c **** }
  58:lib/externalFlash.c **** 
  59:lib/externalFlash.c **** // external flash에서 데이터를 호출한다
  60:lib/externalFlash.c **** uint8 LoadExternalFlashConfig()
  61:lib/externalFlash.c **** {
  62:lib/externalFlash.c ****     uint8_t *p = (uint8 *) & g_externalFlash;
  63:lib/externalFlash.c ****     
  64:lib/externalFlash.c ****     W25qxx_ReadBytes(p, g_uAddressForConfig,sizeof(EXTERNAL_CONFIG));
  65:lib/externalFlash.c ****     uint16 crc = externalFlashCRC();
  66:lib/externalFlash.c ****     
  67:lib/externalFlash.c ****     if(g_externalFlash.CRC != externalFlashCRC())  return FALSE;
  68:lib/externalFlash.c ****     if(strcmp(g_externalFlash.watermark, EXTERNAL_FLASH_WATER_MARK) != 0) return FALSE;
  69:lib/externalFlash.c **** 
  70:lib/externalFlash.c ****     return TRUE;
  71:lib/externalFlash.c **** }
  72:lib/externalFlash.c **** 
  73:lib/externalFlash.c **** // external flash에 데이터를 저장한다
  74:lib/externalFlash.c **** void SaveExternalFlashConfig()
  75:lib/externalFlash.c **** {
  76:lib/externalFlash.c ****     strcpy(g_externalFlash.watermark,EXTERNAL_FLASH_WATER_MARK);
  77:lib/externalFlash.c ****     g_externalFlash.CRC = externalFlashCRC();
  78:lib/externalFlash.c ****     
  79:lib/externalFlash.c ****     W25qxx_EraseSector(g_uSectorForConfig);
  80:lib/externalFlash.c ****     
  81:lib/externalFlash.c ****     uint8_t *p = (uint8 *) & g_externalFlash;
  82:lib/externalFlash.c ****         
  83:lib/externalFlash.c ****     for(uint i=0; i < sizeof(EXTERNAL_CONFIG); i++)
  84:lib/externalFlash.c ****     {
  85:lib/externalFlash.c ****         W25qxx_WriteByte(p[i], g_uAddressForConfig+i);
  86:lib/externalFlash.c ****     }     
  87:lib/externalFlash.c **** }
ARM GAS  C:\Users\luvsd\AppData\Local\Temp\ccfmQUv3.s 			page 3


  88:lib/externalFlash.c **** 
  89:lib/externalFlash.c **** uint16 externalFlashCRC()
  90:lib/externalFlash.c **** {
  91:lib/externalFlash.c ****     return checkSum((uint8 *) &g_externalFlash, sizeof(g_externalFlash) - 4);
  92:lib/externalFlash.c **** }
  93:lib/externalFlash.c **** 
  94:lib/externalFlash.c **** //////////////////////////////////////////////////////////////////////////////
  95:lib/externalFlash.c **** uint16 checkSum(uint8 *data, uint16 size)
  96:lib/externalFlash.c **** {
  28              		.loc 1 96 0
  29              		.cfi_startproc
  30              		@ args = 0, pretend = 0, frame = 0
  31              		@ frame_needed = 0, uses_anonymous_args = 0
  32              	.LVL0:
  33 0000 10B5     		push	{r4, lr}
  34              		.cfi_def_cfa_offset 8
  35              		.cfi_offset 4, -8
  36              		.cfi_offset 14, -4
  37              	.LVL1:
  38              	.LBB2:
  97:lib/externalFlash.c ****     uint16 checkSum = 0;
  98:lib/externalFlash.c ****     for(int i=1; i < size; i++)
  39              		.loc 1 98 0
  40 0002 0122     		movs	r2, #1
  41              	.LBE2:
  97:lib/externalFlash.c ****     uint16 checkSum = 0;
  42              		.loc 1 97 0
  43 0004 0023     		movs	r3, #0
  44              	.LBB3:
  45              		.loc 1 98 0
  46 0006 03E0     		b	.L2
  47              	.LVL2:
  48              	.L3:
  99:lib/externalFlash.c ****     {
 100:lib/externalFlash.c ****         checkSum += data[i];
  49              		.loc 1 100 0 discriminator 3
  50 0008 845C     		ldrb	r4, [r0, r2]
  51 000a 1B19     		adds	r3, r3, r4
  52              	.LVL3:
  53 000c 9BB2     		uxth	r3, r3
  54              	.LVL4:
  98:lib/externalFlash.c ****     {
  55              		.loc 1 98 0 discriminator 3
  56 000e 0132     		adds	r2, r2, #1
  57              	.LVL5:
  58              	.L2:
  98:lib/externalFlash.c ****     {
  59              		.loc 1 98 0 is_stmt 0 discriminator 1
  60 0010 8A42     		cmp	r2, r1
  61 0012 F9DB     		blt	.L3
  62              	.LBE3:
 101:lib/externalFlash.c ****     }
 102:lib/externalFlash.c ****     return (~checkSum + 1);
  63              		.loc 1 102 0 is_stmt 1
  64 0014 5842     		rsbs	r0, r3, #0
  65              	.LVL6:
  66 0016 80B2     		uxth	r0, r0
ARM GAS  C:\Users\luvsd\AppData\Local\Temp\ccfmQUv3.s 			page 4


 103:lib/externalFlash.c **** }
  67              		.loc 1 103 0
  68              		@ sp needed
  69 0018 10BD     		pop	{r4, pc}
  70              		.cfi_endproc
  71              	.LFE67:
  72              		.size	checkSum, .-checkSum
  73 001a C046     		.section	.text.externalFlashCRC,"ax",%progbits
  74              		.align	2
  75              		.global	externalFlashCRC
  76              		.code	16
  77              		.thumb_func
  78              		.type	externalFlashCRC, %function
  79              	externalFlashCRC:
  80              	.LFB66:
  90:lib/externalFlash.c ****     return checkSum((uint8 *) &g_externalFlash, sizeof(g_externalFlash) - 4);
  81              		.loc 1 90 0
  82              		.cfi_startproc
  83              		@ args = 0, pretend = 0, frame = 0
  84              		@ frame_needed = 0, uses_anonymous_args = 0
  85 0000 10B5     		push	{r4, lr}
  86              		.cfi_def_cfa_offset 8
  87              		.cfi_offset 4, -8
  88              		.cfi_offset 14, -4
  91:lib/externalFlash.c **** }
  89              		.loc 1 91 0
  90 0002 0249     		ldr	r1, .L5
  91 0004 0248     		ldr	r0, .L5+4
  92 0006 FFF7FEFF 		bl	checkSum
  93              	.LVL7:
  92:lib/externalFlash.c **** 
  94              		.loc 1 92 0
  95              		@ sp needed
  96 000a 10BD     		pop	{r4, pc}
  97              	.L6:
  98              		.align	2
  99              	.L5:
 100 000c 06020000 		.word	518
 101 0010 00000000 		.word	g_externalFlash
 102              		.cfi_endproc
 103              	.LFE66:
 104              		.size	externalFlashCRC, .-externalFlashCRC
 105              		.section	.text.LoadExternalFlashConfig,"ax",%progbits
 106              		.align	2
 107              		.global	LoadExternalFlashConfig
 108              		.code	16
 109              		.thumb_func
 110              		.type	LoadExternalFlashConfig, %function
 111              	LoadExternalFlashConfig:
 112              	.LFB64:
  61:lib/externalFlash.c ****     uint8_t *p = (uint8 *) & g_externalFlash;
 113              		.loc 1 61 0
 114              		.cfi_startproc
 115              		@ args = 0, pretend = 0, frame = 0
 116              		@ frame_needed = 0, uses_anonymous_args = 0
 117 0000 10B5     		push	{r4, lr}
 118              		.cfi_def_cfa_offset 8
ARM GAS  C:\Users\luvsd\AppData\Local\Temp\ccfmQUv3.s 			page 5


 119              		.cfi_offset 4, -8
 120              		.cfi_offset 14, -4
 121              	.LVL8:
  64:lib/externalFlash.c ****     uint16 crc = externalFlashCRC();
 122              		.loc 1 64 0
 123 0002 0D4B     		ldr	r3, .L11
 124 0004 1968     		ldr	r1, [r3]
 125 0006 0D4C     		ldr	r4, .L11+4
 126 0008 0D4A     		ldr	r2, .L11+8
 127 000a 2000     		movs	r0, r4
 128 000c FFF7FEFF 		bl	W25qxx_ReadBytes
 129              	.LVL9:
  67:lib/externalFlash.c ****     if(strcmp(g_externalFlash.watermark, EXTERNAL_FLASH_WATER_MARK) != 0) return FALSE;
 130              		.loc 1 67 0
 131 0010 8223     		movs	r3, #130
 132 0012 9B00     		lsls	r3, r3, #2
 133 0014 E45A     		ldrh	r4, [r4, r3]
 134 0016 FFF7FEFF 		bl	externalFlashCRC
 135              	.LVL10:
 136 001a 8442     		cmp	r4, r0
 137 001c 07D1     		bne	.L9
  68:lib/externalFlash.c **** 
 138              		.loc 1 68 0
 139 001e 0949     		ldr	r1, .L11+12
 140 0020 0648     		ldr	r0, .L11+4
 141 0022 FFF7FEFF 		bl	strcmp
 142              	.LVL11:
 143 0026 0028     		cmp	r0, #0
 144 0028 03D0     		beq	.L10
 145 002a 0020     		movs	r0, #0
 146 002c 02E0     		b	.L8
 147              	.L9:
  67:lib/externalFlash.c ****     if(strcmp(g_externalFlash.watermark, EXTERNAL_FLASH_WATER_MARK) != 0) return FALSE;
 148              		.loc 1 67 0
 149 002e 0020     		movs	r0, #0
 150 0030 00E0     		b	.L8
 151              	.L10:
  70:lib/externalFlash.c **** }
 152              		.loc 1 70 0
 153 0032 0120     		movs	r0, #1
 154              	.L8:
  71:lib/externalFlash.c **** 
 155              		.loc 1 71 0
 156              		@ sp needed
 157 0034 10BD     		pop	{r4, pc}
 158              	.L12:
 159 0036 C046     		.align	2
 160              	.L11:
 161 0038 00000000 		.word	g_uAddressForConfig
 162 003c 00000000 		.word	g_externalFlash
 163 0040 0A020000 		.word	522
 164 0044 00000000 		.word	.LC3
 165              		.cfi_endproc
 166              	.LFE64:
 167              		.size	LoadExternalFlashConfig, .-LoadExternalFlashConfig
 168              		.section	.text.SaveExternalFlashConfig,"ax",%progbits
 169              		.align	2
ARM GAS  C:\Users\luvsd\AppData\Local\Temp\ccfmQUv3.s 			page 6


 170              		.global	SaveExternalFlashConfig
 171              		.code	16
 172              		.thumb_func
 173              		.type	SaveExternalFlashConfig, %function
 174              	SaveExternalFlashConfig:
 175              	.LFB65:
  75:lib/externalFlash.c ****     strcpy(g_externalFlash.watermark,EXTERNAL_FLASH_WATER_MARK);
 176              		.loc 1 75 0
 177              		.cfi_startproc
 178              		@ args = 0, pretend = 0, frame = 0
 179              		@ frame_needed = 0, uses_anonymous_args = 0
 180 0000 10B5     		push	{r4, lr}
 181              		.cfi_def_cfa_offset 8
 182              		.cfi_offset 4, -8
 183              		.cfi_offset 14, -4
  76:lib/externalFlash.c ****     g_externalFlash.CRC = externalFlashCRC();
 184              		.loc 1 76 0
 185 0002 0E4C     		ldr	r4, .L16
 186 0004 0C22     		movs	r2, #12
 187 0006 0E49     		ldr	r1, .L16+4
 188 0008 2000     		movs	r0, r4
 189 000a FFF7FEFF 		bl	memcpy
 190              	.LVL12:
  77:lib/externalFlash.c ****     
 191              		.loc 1 77 0
 192 000e FFF7FEFF 		bl	externalFlashCRC
 193              	.LVL13:
 194 0012 8223     		movs	r3, #130
 195 0014 9B00     		lsls	r3, r3, #2
 196 0016 E052     		strh	r0, [r4, r3]
  79:lib/externalFlash.c ****     
 197              		.loc 1 79 0
 198 0018 0A4B     		ldr	r3, .L16+8
 199 001a 1868     		ldr	r0, [r3]
 200 001c FFF7FEFF 		bl	W25qxx_EraseSector
 201              	.LVL14:
 202              	.LBB4:
  83:lib/externalFlash.c ****     {
 203              		.loc 1 83 0
 204 0020 0024     		movs	r4, #0
 205 0022 07E0     		b	.L14
 206              	.LVL15:
 207              	.L15:
  85:lib/externalFlash.c ****     }     
 208              		.loc 1 85 0 discriminator 3
 209 0024 084B     		ldr	r3, .L16+12
 210 0026 1968     		ldr	r1, [r3]
 211 0028 6118     		adds	r1, r4, r1
 212 002a 044B     		ldr	r3, .L16
 213 002c 185D     		ldrb	r0, [r3, r4]
 214 002e FFF7FEFF 		bl	W25qxx_WriteByte
 215              	.LVL16:
  83:lib/externalFlash.c ****     {
 216              		.loc 1 83 0 discriminator 3
 217 0032 0134     		adds	r4, r4, #1
 218              	.LVL17:
 219              	.L14:
ARM GAS  C:\Users\luvsd\AppData\Local\Temp\ccfmQUv3.s 			page 7


  83:lib/externalFlash.c ****     {
 220              		.loc 1 83 0 is_stmt 0 discriminator 1
 221 0034 054B     		ldr	r3, .L16+16
 222 0036 9C42     		cmp	r4, r3
 223 0038 F4D9     		bls	.L15
 224              	.LBE4:
  87:lib/externalFlash.c **** 
 225              		.loc 1 87 0 is_stmt 1
 226              		@ sp needed
 227              	.LVL18:
 228 003a 10BD     		pop	{r4, pc}
 229              	.L17:
 230              		.align	2
 231              	.L16:
 232 003c 00000000 		.word	g_externalFlash
 233 0040 00000000 		.word	.LC3
 234 0044 00000000 		.word	g_uSectorForConfig
 235 0048 00000000 		.word	g_uAddressForConfig
 236 004c 09020000 		.word	521
 237              		.cfi_endproc
 238              	.LFE65:
 239              		.size	SaveExternalFlashConfig, .-SaveExternalFlashConfig
 240              		.section	.text.getExternalConfigData,"ax",%progbits
 241              		.align	2
 242              		.global	getExternalConfigData
 243              		.code	16
 244              		.thumb_func
 245              		.type	getExternalConfigData, %function
 246              	getExternalConfigData:
 247              	.LFB70:
 104:lib/externalFlash.c **** 
 105:lib/externalFlash.c **** EXTERNAL_MISC_CONFIG *getMiscConfig()
 106:lib/externalFlash.c **** {
 107:lib/externalFlash.c ****     return (EXTERNAL_MISC_CONFIG *) &getExternalConfigData()[CONFIG_DATA_MISC];
 108:lib/externalFlash.c **** }
 109:lib/externalFlash.c **** 
 110:lib/externalFlash.c **** EXTERNAL_CONFIG *getConfig()
 111:lib/externalFlash.c **** {
 112:lib/externalFlash.c ****     return (EXTERNAL_CONFIG *) &getExternalConfigData()[CONFIG_DATA_MISC];
 113:lib/externalFlash.c **** }
 114:lib/externalFlash.c **** 
 115:lib/externalFlash.c **** unsigned char *getExternalConfigData()
 116:lib/externalFlash.c **** {
 248              		.loc 1 116 0
 249              		.cfi_startproc
 250              		@ args = 0, pretend = 0, frame = 0
 251              		@ frame_needed = 0, uses_anonymous_args = 0
 252              		@ link register save eliminated.
 117:lib/externalFlash.c ****     return g_externalFlash.data;
 118:lib/externalFlash.c **** }
 253              		.loc 1 118 0
 254 0000 0048     		ldr	r0, .L19
 255              		@ sp needed
 256 0002 7047     		bx	lr
 257              	.L20:
 258              		.align	2
 259              	.L19:
ARM GAS  C:\Users\luvsd\AppData\Local\Temp\ccfmQUv3.s 			page 8


 260 0004 14000000 		.word	g_externalFlash+20
 261              		.cfi_endproc
 262              	.LFE70:
 263              		.size	getExternalConfigData, .-getExternalConfigData
 264              		.section	.text.getMiscConfig,"ax",%progbits
 265              		.align	2
 266              		.global	getMiscConfig
 267              		.code	16
 268              		.thumb_func
 269              		.type	getMiscConfig, %function
 270              	getMiscConfig:
 271              	.LFB68:
 106:lib/externalFlash.c ****     return (EXTERNAL_MISC_CONFIG *) &getExternalConfigData()[CONFIG_DATA_MISC];
 272              		.loc 1 106 0
 273              		.cfi_startproc
 274              		@ args = 0, pretend = 0, frame = 0
 275              		@ frame_needed = 0, uses_anonymous_args = 0
 276 0000 10B5     		push	{r4, lr}
 277              		.cfi_def_cfa_offset 8
 278              		.cfi_offset 4, -8
 279              		.cfi_offset 14, -4
 107:lib/externalFlash.c **** }
 280              		.loc 1 107 0
 281 0002 FFF7FEFF 		bl	getExternalConfigData
 282              	.LVL19:
 283 0006 9630     		adds	r0, r0, #150
 108:lib/externalFlash.c **** 
 284              		.loc 1 108 0
 285              		@ sp needed
 286 0008 10BD     		pop	{r4, pc}
 287              		.cfi_endproc
 288              	.LFE68:
 289              		.size	getMiscConfig, .-getMiscConfig
 290 000a C046     		.section	.text.SetDefaultExternalFlashConfig,"ax",%progbits
 291              		.align	2
 292              		.global	SetDefaultExternalFlashConfig
 293              		.code	16
 294              		.thumb_func
 295              		.type	SetDefaultExternalFlashConfig, %function
 296              	SetDefaultExternalFlashConfig:
 297              	.LFB62:
  37:lib/externalFlash.c **** //    SetDefaultConfigServer();
 298              		.loc 1 37 0
 299              		.cfi_startproc
 300              		@ args = 0, pretend = 0, frame = 0
 301              		@ frame_needed = 0, uses_anonymous_args = 0
 302 0000 10B5     		push	{r4, lr}
 303              		.cfi_def_cfa_offset 8
 304              		.cfi_offset 4, -8
 305              		.cfi_offset 14, -4
  40:lib/externalFlash.c ****     getMiscConfig()->uBrightness = 50;
 306              		.loc 1 40 0
 307 0002 FFF7FEFF 		bl	getMiscConfig
 308              	.LVL20:
 309 0006 0023     		movs	r3, #0
 310 0008 0380     		strh	r3, [r0]
  41:lib/externalFlash.c **** }
ARM GAS  C:\Users\luvsd\AppData\Local\Temp\ccfmQUv3.s 			page 9


 311              		.loc 1 41 0
 312 000a 3233     		adds	r3, r3, #50
 313 000c 4380     		strh	r3, [r0, #2]
  42:lib/externalFlash.c **** 
 314              		.loc 1 42 0
 315              		@ sp needed
 316 000e 10BD     		pop	{r4, pc}
 317              		.cfi_endproc
 318              	.LFE62:
 319              		.size	SetDefaultExternalFlashConfig, .-SetDefaultExternalFlashConfig
 320              		.section	.text.ValidationExternalFlashConfig,"ax",%progbits
 321              		.align	2
 322              		.global	ValidationExternalFlashConfig
 323              		.code	16
 324              		.thumb_func
 325              		.type	ValidationExternalFlashConfig, %function
 326              	ValidationExternalFlashConfig:
 327              	.LFB63:
  46:lib/externalFlash.c **** //    ValidationConfigServer();
 328              		.loc 1 46 0
 329              		.cfi_startproc
 330              		@ args = 0, pretend = 0, frame = 0
 331              		@ frame_needed = 0, uses_anonymous_args = 0
 332 0000 10B5     		push	{r4, lr}
 333              		.cfi_def_cfa_offset 8
 334              		.cfi_offset 4, -8
 335              		.cfi_offset 14, -4
  49:lib/externalFlash.c **** 
 336              		.loc 1 49 0
 337 0002 FFF7FEFF 		bl	userProjectDataValidation
 338              	.LVL21:
 339 0006 0028     		cmp	r0, #0
 340 0008 01D1     		bne	.L24
  49:lib/externalFlash.c **** 
 341              		.loc 1 49 0 is_stmt 0 discriminator 1
 342 000a FFF7FEFF 		bl	SetUserProjectDefaultExternalFlashConfig
 343              	.LVL22:
 344              	.L24:
  51:lib/externalFlash.c ****        getMiscConfig()->bDisplayDir != DISPLAY_DIRECTION_LANDSCAPE)            getMiscConfig()->bDi
 345              		.loc 1 51 0 is_stmt 1
 346 000e FFF7FEFF 		bl	getMiscConfig
 347              	.LVL23:
 348 0012 0388     		ldrh	r3, [r0]
 349 0014 002B     		cmp	r3, #0
 350 0016 03D0     		beq	.L25
  51:lib/externalFlash.c ****        getMiscConfig()->bDisplayDir != DISPLAY_DIRECTION_LANDSCAPE)            getMiscConfig()->bDi
 351              		.loc 1 51 0 is_stmt 0 discriminator 1
 352 0018 012B     		cmp	r3, #1
 353 001a 01D0     		beq	.L25
  52:lib/externalFlash.c ****     
 354              		.loc 1 52 0 is_stmt 1
 355 001c 0023     		movs	r3, #0
 356 001e 0380     		strh	r3, [r0]
 357              	.L25:
  54:lib/externalFlash.c ****             
 358              		.loc 1 54 0
 359 0020 4388     		ldrh	r3, [r0, #2]
ARM GAS  C:\Users\luvsd\AppData\Local\Temp\ccfmQUv3.s 			page 10


 360 0022 002B     		cmp	r3, #0
 361 0024 01D0     		beq	.L26
  54:lib/externalFlash.c ****             
 362              		.loc 1 54 0 is_stmt 0 discriminator 2
 363 0026 632B     		cmp	r3, #99
 364 0028 01D9     		bls	.L23
 365              	.L26:
  54:lib/externalFlash.c ****             
 366              		.loc 1 54 0 discriminator 3
 367 002a 3223     		movs	r3, #50
 368 002c 4380     		strh	r3, [r0, #2]
 369              	.L23:
  57:lib/externalFlash.c **** 
 370              		.loc 1 57 0 is_stmt 1
 371              		@ sp needed
 372 002e 10BD     		pop	{r4, pc}
 373              		.cfi_endproc
 374              	.LFE63:
 375              		.size	ValidationExternalFlashConfig, .-ValidationExternalFlashConfig
 376              		.section	.text.initExternalFlash,"ax",%progbits
 377              		.align	2
 378              		.global	initExternalFlash
 379              		.code	16
 380              		.thumb_func
 381              		.type	initExternalFlash, %function
 382              	initExternalFlash:
 383              	.LFB61:
  13:lib/externalFlash.c ****     while(!W25qxx_Init()); 
 384              		.loc 1 13 0
 385              		.cfi_startproc
 386              		@ args = 0, pretend = 0, frame = 0
 387              		@ frame_needed = 0, uses_anonymous_args = 0
 388 0000 10B5     		push	{r4, lr}
 389              		.cfi_def_cfa_offset 8
 390              		.cfi_offset 4, -8
 391              		.cfi_offset 14, -4
 392              	.L29:
  14:lib/externalFlash.c ****     
 393              		.loc 1 14 0 discriminator 1
 394 0002 FFF7FEFF 		bl	W25qxx_Init
 395              	.LVL24:
 396 0006 0028     		cmp	r0, #0
 397 0008 FBD0     		beq	.L29
  16:lib/externalFlash.c ****     g_uAddressForConfig = g_uSectorForConfig * w25qxx.SectorSize;  // 주소
 398              		.loc 1 16 0
 399 000a 0F4A     		ldr	r2, .L32
 400 000c 5369     		ldr	r3, [r2, #20]
 401 000e 013B     		subs	r3, r3, #1
 402 0010 0E49     		ldr	r1, .L32+4
 403 0012 0B60     		str	r3, [r1]
  17:lib/externalFlash.c ****        
 404              		.loc 1 17 0
 405 0014 1269     		ldr	r2, [r2, #16]
 406 0016 5343     		muls	r3, r2
 407 0018 0D4A     		ldr	r2, .L32+8
 408 001a 1360     		str	r3, [r2]
  19:lib/externalFlash.c ****     {
ARM GAS  C:\Users\luvsd\AppData\Local\Temp\ccfmQUv3.s 			page 11


 409              		.loc 1 19 0
 410 001c FFF7FEFF 		bl	LoadExternalFlashConfig
 411              	.LVL25:
 412 0020 0028     		cmp	r0, #0
 413 0022 0DD1     		bne	.L30
  21:lib/externalFlash.c ****         
 414              		.loc 1 21 0
 415 0024 0B4A     		ldr	r2, .L32+12
 416 0026 0021     		movs	r1, #0
 417 0028 0B48     		ldr	r0, .L32+16
 418 002a FFF7FEFF 		bl	memset
 419              	.LVL26:
  23:lib/externalFlash.c ****         SetUserProjectDefaultExternalFlashConfig();   
 420              		.loc 1 23 0
 421 002e FFF7FEFF 		bl	SetDefaultExternalFlashConfig
 422              	.LVL27:
  24:lib/externalFlash.c ****         ValidationExternalFlashConfig();    
 423              		.loc 1 24 0
 424 0032 FFF7FEFF 		bl	SetUserProjectDefaultExternalFlashConfig
 425              	.LVL28:
  25:lib/externalFlash.c ****                 
 426              		.loc 1 25 0
 427 0036 FFF7FEFF 		bl	ValidationExternalFlashConfig
 428              	.LVL29:
  27:lib/externalFlash.c ****         return;
 429              		.loc 1 27 0
 430 003a FFF7FEFF 		bl	SaveExternalFlashConfig
 431              	.LVL30:
  28:lib/externalFlash.c ****     }
 432              		.loc 1 28 0
 433 003e 01E0     		b	.L28
 434              	.L30:
  31:lib/externalFlash.c ****     
 435              		.loc 1 31 0
 436 0040 FFF7FEFF 		bl	ValidationExternalFlashConfig
 437              	.LVL31:
 438              	.L28:
  33:lib/externalFlash.c **** 
 439              		.loc 1 33 0
 440              		@ sp needed
 441 0044 10BD     		pop	{r4, pc}
 442              	.L33:
 443 0046 C046     		.align	2
 444              	.L32:
 445 0048 00000000 		.word	w25qxx
 446 004c 00000000 		.word	g_uSectorForConfig
 447 0050 00000000 		.word	g_uAddressForConfig
 448 0054 0A020000 		.word	522
 449 0058 00000000 		.word	g_externalFlash
 450              		.cfi_endproc
 451              	.LFE61:
 452              		.size	initExternalFlash, .-initExternalFlash
 453              		.section	.text.getConfig,"ax",%progbits
 454              		.align	2
 455              		.global	getConfig
 456              		.code	16
 457              		.thumb_func
ARM GAS  C:\Users\luvsd\AppData\Local\Temp\ccfmQUv3.s 			page 12


 458              		.type	getConfig, %function
 459              	getConfig:
 460              	.LFB69:
 111:lib/externalFlash.c ****     return (EXTERNAL_CONFIG *) &getExternalConfigData()[CONFIG_DATA_MISC];
 461              		.loc 1 111 0
 462              		.cfi_startproc
 463              		@ args = 0, pretend = 0, frame = 0
 464              		@ frame_needed = 0, uses_anonymous_args = 0
 465 0000 10B5     		push	{r4, lr}
 466              		.cfi_def_cfa_offset 8
 467              		.cfi_offset 4, -8
 468              		.cfi_offset 14, -4
 112:lib/externalFlash.c **** }
 469              		.loc 1 112 0
 470 0002 FFF7FEFF 		bl	getExternalConfigData
 471              	.LVL32:
 472 0006 9630     		adds	r0, r0, #150
 113:lib/externalFlash.c **** 
 473              		.loc 1 113 0
 474              		@ sp needed
 475 0008 10BD     		pop	{r4, pc}
 476              		.cfi_endproc
 477              	.LFE69:
 478              		.size	getConfig, .-getConfig
 479 000a C046     		.section	.text.getExternalConfigUserData,"ax",%progbits
 480              		.align	2
 481              		.global	getExternalConfigUserData
 482              		.code	16
 483              		.thumb_func
 484              		.type	getExternalConfigUserData, %function
 485              	getExternalConfigUserData:
 486              	.LFB71:
 119:lib/externalFlash.c **** unsigned char *getExternalConfigUserData()
 120:lib/externalFlash.c **** {
 487              		.loc 1 120 0
 488              		.cfi_startproc
 489              		@ args = 0, pretend = 0, frame = 0
 490              		@ frame_needed = 0, uses_anonymous_args = 0
 491              		@ link register save eliminated.
 121:lib/externalFlash.c ****     return g_externalFlash.userData;
 122:lib/externalFlash.c **** }...
 492              		.loc 1 122 0
 493 0000 0048     		ldr	r0, .L36
 494              		@ sp needed
 495 0002 7047     		bx	lr
 496              	.L37:
 497              		.align	2
 498              	.L36:
 499 0004 DC000000 		.word	g_externalFlash+220
 500              		.cfi_endproc
 501              	.LFE71:
 502              		.size	getExternalConfigUserData, .-getExternalConfigUserData
 503              		.comm	g_uAddressForConfig,4,4
 504              		.comm	g_uSectorForConfig,4,4
 505              		.comm	g_externalFlash,522,4
 506              		.comm	Param,6,4
 507              		.section	.rodata.str1.4,"aMS",%progbits,1
ARM GAS  C:\Users\luvsd\AppData\Local\Temp\ccfmQUv3.s 			page 13


 508              		.align	2
 509              	.LC3:
 510 0000 53554E54 		.ascii	"SUNTECH IOT\000"
 510      45434820 
 510      494F5400 
 511              		.text
 512              	.Letext0:
 513              		.file 2 "c:\\program files (x86)\\cypress\\psoc creator\\4.4\\psoc creator\\import\\gnu\\arm\\5.4.
 514              		.file 3 "c:\\program files (x86)\\cypress\\psoc creator\\4.4\\psoc creator\\import\\gnu\\arm\\5.4.
 515              		.file 4 "Generated_Source\\PSoC4/cytypes.h"
 516              		.file 5 "c:\\program files (x86)\\cypress\\psoc creator\\4.4\\psoc creator\\import\\gnu\\arm\\5.4.
 517              		.file 6 "./main.h"
 518              		.file 7 "lib\\externalFlash.h"
 519              		.file 8 "lib\\w25qxx.h"
 520              		.file 9 "lib\\UI.h"
 521              		.file 10 "lib\\fonts.h"
 522              		.file 11 "c:\\program files (x86)\\cypress\\psoc creator\\4.4\\psoc creator\\import\\gnu\\arm\\5.4
 523              		.file 12 "./package.h"