ARM GAS  C:\Users\luvsd\AppData\Local\Temp\ccmpGLB8.s 			page 1


   1              		.syntax unified
   2              		.cpu cortex-m0
   3              		.fpu softvfp
   4              		.eabi_attribute 20, 1
   5              		.eabi_attribute 21, 1
   6              		.eabi_attribute 23, 3
   7              		.eabi_attribute 24, 1
   8              		.eabi_attribute 25, 1
   9              		.eabi_attribute 26, 1
  10              		.eabi_attribute 30, 1
  11              		.eabi_attribute 34, 0
  12              		.eabi_attribute 18, 4
  13              		.thumb
  14              		.syntax unified
  15              		.file	"LEDControl.c"
  16              		.text
  17              	.Ltext0:
  18              		.cfi_sections	.debug_frame
  19              		.section	.text.LED_Brightness,"ax",%progbits
  20              		.align	2
  21              		.global	LED_Brightness
  22              		.code	16
  23              		.thumb_func
  24              		.type	LED_Brightness, %function
  25              	LED_Brightness:
  26              	.LFB62:
  27              		.file 1 "lib\\LEDControl.c"
   1:lib/LEDControl.c **** /* ========================================
   2:lib/LEDControl.c ****  *
   3:lib/LEDControl.c ****  * Copyright Suntech, 2023.02.01
   4:lib/LEDControl.c ****  * All Rights Reserved
   5:lib/LEDControl.c ****  * UNPUBLISHED, LICENSED SOFTWARE.
   6:lib/LEDControl.c ****  *
   7:lib/LEDControl.c ****  * CONFIDENTIAL AND PROPRIETARY INFORMATION
   8:lib/LEDControl.c ****  * WHICH IS THE PROPERTY OF Suntech.
   9:lib/LEDControl.c ****  *
  10:lib/LEDControl.c ****  * ========================================
  11:lib/LEDControl.c **** */
  12:lib/LEDControl.c **** #include "LEDControl.h"
  13:lib/LEDControl.c **** #include "externalFlash.h"
  14:lib/LEDControl.c **** uint16 g_uLED1_Color = LED_OFF;
  15:lib/LEDControl.c **** uint16 g_uLED2_Color = LED_OFF;
  16:lib/LEDControl.c **** uint8  g_bLED1_Flickering = FALSE;   
  17:lib/LEDControl.c **** uint8  g_bLED2_Flickering = FALSE;  
  18:lib/LEDControl.c **** 
  19:lib/LEDControl.c **** void initLEDControl()
  20:lib/LEDControl.c **** {
  21:lib/LEDControl.c ****     TCPWM_LED_Start();    
  22:lib/LEDControl.c ****     Control_Reg_LED_1_Write(g_uLED1_Color);
  23:lib/LEDControl.c ****     Control_Reg_LED_2_Write(g_uLED2_Color);  
  24:lib/LEDControl.c ****     
  25:lib/LEDControl.c ****     if(getMiscConfig()->uBrightness < 0 || getMiscConfig()->uBrightness > 99) getMiscConfig()->uBri
  26:lib/LEDControl.c ****   
  27:lib/LEDControl.c ****     LED_Brightness(getMiscConfig()->uBrightness); 
  28:lib/LEDControl.c **** }
  29:lib/LEDControl.c **** 
  30:lib/LEDControl.c **** void LED_Brightness(uint16 brightness)
ARM GAS  C:\Users\luvsd\AppData\Local\Temp\ccmpGLB8.s 			page 2


  31:lib/LEDControl.c **** {
  28              		.loc 1 31 0
  29              		.cfi_startproc
  30              		@ args = 0, pretend = 0, frame = 0
  31              		@ frame_needed = 0, uses_anonymous_args = 0
  32              	.LVL0:
  33 0000 10B5     		push	{r4, lr}
  34              		.cfi_def_cfa_offset 8
  35              		.cfi_offset 4, -8
  36              		.cfi_offset 14, -4
  32:lib/LEDControl.c ****     TCPWM_LED_WriteCompare(brightness);
  37              		.loc 1 32 0
  38 0002 FFF7FEFF 		bl	TCPWM_LED_WriteCompare
  39              	.LVL1:
  33:lib/LEDControl.c **** }
  40              		.loc 1 33 0
  41              		@ sp needed
  42 0006 10BD     		pop	{r4, pc}
  43              		.cfi_endproc
  44              	.LFE62:
  45              		.size	LED_Brightness, .-LED_Brightness
  46              		.section	.text.initLEDControl,"ax",%progbits
  47              		.align	2
  48              		.global	initLEDControl
  49              		.code	16
  50              		.thumb_func
  51              		.type	initLEDControl, %function
  52              	initLEDControl:
  53              	.LFB61:
  20:lib/LEDControl.c ****     TCPWM_LED_Start();    
  54              		.loc 1 20 0
  55              		.cfi_startproc
  56              		@ args = 0, pretend = 0, frame = 0
  57              		@ frame_needed = 0, uses_anonymous_args = 0
  58 0000 10B5     		push	{r4, lr}
  59              		.cfi_def_cfa_offset 8
  60              		.cfi_offset 4, -8
  61              		.cfi_offset 14, -4
  21:lib/LEDControl.c ****     Control_Reg_LED_1_Write(g_uLED1_Color);
  62              		.loc 1 21 0
  63 0002 FFF7FEFF 		bl	TCPWM_LED_Start
  64              	.LVL2:
  22:lib/LEDControl.c ****     Control_Reg_LED_2_Write(g_uLED2_Color);  
  65              		.loc 1 22 0
  66 0006 0C4C     		ldr	r4, .L4
  67 0008 2078     		ldrb	r0, [r4]
  68 000a FFF7FEFF 		bl	Control_Reg_LED_1_Write
  69              	.LVL3:
  23:lib/LEDControl.c ****     
  70              		.loc 1 23 0
  71 000e A078     		ldrb	r0, [r4, #2]
  72 0010 FFF7FEFF 		bl	Control_Reg_LED_2_Write
  73              	.LVL4:
  25:lib/LEDControl.c ****   
  74              		.loc 1 25 0
  75 0014 FFF7FEFF 		bl	getMiscConfig
  76              	.LVL5:
ARM GAS  C:\Users\luvsd\AppData\Local\Temp\ccmpGLB8.s 			page 3


  77 0018 FFF7FEFF 		bl	getMiscConfig
  78              	.LVL6:
  79 001c 4388     		ldrh	r3, [r0, #2]
  80 001e 632B     		cmp	r3, #99
  81 0020 03D9     		bls	.L3
  25:lib/LEDControl.c ****   
  82              		.loc 1 25 0 is_stmt 0 discriminator 3
  83 0022 FFF7FEFF 		bl	getMiscConfig
  84              	.LVL7:
  85 0026 3223     		movs	r3, #50
  86 0028 4380     		strh	r3, [r0, #2]
  87              	.L3:
  27:lib/LEDControl.c **** }
  88              		.loc 1 27 0 is_stmt 1
  89 002a FFF7FEFF 		bl	getMiscConfig
  90              	.LVL8:
  91 002e 4088     		ldrh	r0, [r0, #2]
  92 0030 FFF7FEFF 		bl	LED_Brightness
  93              	.LVL9:
  28:lib/LEDControl.c **** 
  94              		.loc 1 28 0
  95              		@ sp needed
  96 0034 10BD     		pop	{r4, pc}
  97              	.L5:
  98 0036 C046     		.align	2
  99              	.L4:
 100 0038 00000000 		.word	.LANCHOR0
 101              		.cfi_endproc
 102              	.LFE61:
 103              		.size	initLEDControl, .-initLEDControl
 104              		.section	.text.LED_OneSecondControl,"ax",%progbits
 105              		.align	2
 106              		.global	LED_OneSecondControl
 107              		.code	16
 108              		.thumb_func
 109              		.type	LED_OneSecondControl, %function
 110              	LED_OneSecondControl:
 111              	.LFB63:
  34:lib/LEDControl.c **** 
  35:lib/LEDControl.c **** void LED_OneSecondControl()
  36:lib/LEDControl.c **** {
 112              		.loc 1 36 0
 113              		.cfi_startproc
 114              		@ args = 0, pretend = 0, frame = 0
 115              		@ frame_needed = 0, uses_anonymous_args = 0
 116 0000 10B5     		push	{r4, lr}
 117              		.cfi_def_cfa_offset 8
 118              		.cfi_offset 4, -8
 119              		.cfi_offset 14, -4
  37:lib/LEDControl.c ****     static uint8 count =0;
  38:lib/LEDControl.c ****     static uint8 Flickering = FALSE;
  39:lib/LEDControl.c ****     
  40:lib/LEDControl.c ****     Flickering = Flickering ? FALSE : TRUE;
 120              		.loc 1 40 0
 121 0002 174A     		ldr	r2, .L13
 122 0004 1379     		ldrb	r3, [r2, #4]
 123 0006 5942     		rsbs	r1, r3, #0
ARM GAS  C:\Users\luvsd\AppData\Local\Temp\ccmpGLB8.s 			page 4


 124 0008 4B41     		adcs	r3, r3, r1
 125 000a DBB2     		uxtb	r3, r3
 126 000c 1371     		strb	r3, [r2, #4]
  41:lib/LEDControl.c ****     
  42:lib/LEDControl.c ****     if(g_bLED1_Flickering)
 127              		.loc 1 42 0
 128 000e 5279     		ldrb	r2, [r2, #5]
 129 0010 002A     		cmp	r2, #0
 130 0012 0AD0     		beq	.L7
  43:lib/LEDControl.c ****     {
  44:lib/LEDControl.c ****         if(Flickering) Control_Reg_LED_1_Write(g_uLED1_Color);
 131              		.loc 1 44 0
 132 0014 002B     		cmp	r3, #0
 133 0016 04D0     		beq	.L8
 134              		.loc 1 44 0 is_stmt 0 discriminator 1
 135 0018 114B     		ldr	r3, .L13
 136 001a 1878     		ldrb	r0, [r3]
 137 001c FFF7FEFF 		bl	Control_Reg_LED_1_Write
 138              	.LVL10:
 139 0020 07E0     		b	.L9
 140              	.L8:
  45:lib/LEDControl.c ****         else           Control_Reg_LED_1_Write(LED_OFF);
 141              		.loc 1 45 0 is_stmt 1
 142 0022 0020     		movs	r0, #0
 143 0024 FFF7FEFF 		bl	Control_Reg_LED_1_Write
 144              	.LVL11:
 145 0028 03E0     		b	.L9
 146              	.L7:
  46:lib/LEDControl.c ****     } else {
  47:lib/LEDControl.c ****         Control_Reg_LED_1_Write(g_uLED1_Color);
 147              		.loc 1 47 0
 148 002a 0D4B     		ldr	r3, .L13
 149 002c 1878     		ldrb	r0, [r3]
 150 002e FFF7FEFF 		bl	Control_Reg_LED_1_Write
 151              	.LVL12:
 152              	.L9:
  48:lib/LEDControl.c ****     }
  49:lib/LEDControl.c ****     
  50:lib/LEDControl.c **** 
  51:lib/LEDControl.c ****     if(g_bLED2_Flickering)
 153              		.loc 1 51 0
 154 0032 0B4B     		ldr	r3, .L13
 155 0034 9B79     		ldrb	r3, [r3, #6]
 156 0036 002B     		cmp	r3, #0
 157 0038 0CD0     		beq	.L10
  52:lib/LEDControl.c ****     {
  53:lib/LEDControl.c ****         if(Flickering) Control_Reg_LED_2_Write(g_uLED2_Color);
 158              		.loc 1 53 0
 159 003a 094B     		ldr	r3, .L13
 160 003c 1B79     		ldrb	r3, [r3, #4]
 161 003e 002B     		cmp	r3, #0
 162 0040 04D0     		beq	.L11
 163              		.loc 1 53 0 is_stmt 0 discriminator 1
 164 0042 074B     		ldr	r3, .L13
 165 0044 9878     		ldrb	r0, [r3, #2]
 166 0046 FFF7FEFF 		bl	Control_Reg_LED_2_Write
 167              	.LVL13:
ARM GAS  C:\Users\luvsd\AppData\Local\Temp\ccmpGLB8.s 			page 5


 168 004a 07E0     		b	.L6
 169              	.L11:
  54:lib/LEDControl.c ****         else           Control_Reg_LED_2_Write(LED_OFF);
 170              		.loc 1 54 0 is_stmt 1
 171 004c 0020     		movs	r0, #0
 172 004e FFF7FEFF 		bl	Control_Reg_LED_2_Write
 173              	.LVL14:
 174 0052 03E0     		b	.L6
 175              	.L10:
  55:lib/LEDControl.c ****     } else {
  56:lib/LEDControl.c ****         Control_Reg_LED_2_Write(g_uLED2_Color);
 176              		.loc 1 56 0
 177 0054 024B     		ldr	r3, .L13
 178 0056 9878     		ldrb	r0, [r3, #2]
 179 0058 FFF7FEFF 		bl	Control_Reg_LED_2_Write
 180              	.LVL15:
 181              	.L6:
  57:lib/LEDControl.c ****     }
  58:lib/LEDControl.c ****     
  59:lib/LEDControl.c **** }
 182              		.loc 1 59 0
 183              		@ sp needed
 184 005c 10BD     		pop	{r4, pc}
 185              	.L14:
 186 005e C046     		.align	2
 187              	.L13:
 188 0060 00000000 		.word	.LANCHOR0
 189              		.cfi_endproc
 190              	.LFE63:
 191              		.size	LED_OneSecondControl, .-LED_OneSecondControl
 192              		.global	g_bLED2_Flickering
 193              		.global	g_bLED1_Flickering
 194              		.global	g_uLED2_Color
 195              		.global	g_uLED1_Color
 196              		.comm	Param,6,4
 197              		.bss
 198              		.align	1
 199              		.set	.LANCHOR0,. + 0
 200              		.type	g_uLED1_Color, %object
 201              		.size	g_uLED1_Color, 2
 202              	g_uLED1_Color:
 203 0000 0000     		.space	2
 204              		.type	g_uLED2_Color, %object
 205              		.size	g_uLED2_Color, 2
 206              	g_uLED2_Color:
 207 0002 0000     		.space	2
 208              		.type	Flickering.8821, %object
 209              		.size	Flickering.8821, 1
 210              	Flickering.8821:
 211 0004 00       		.space	1
 212              		.type	g_bLED1_Flickering, %object
 213              		.size	g_bLED1_Flickering, 1
 214              	g_bLED1_Flickering:
 215 0005 00       		.space	1
 216              		.type	g_bLED2_Flickering, %object
 217              		.size	g_bLED2_Flickering, 1
 218              	g_bLED2_Flickering:
ARM GAS  C:\Users\luvsd\AppData\Local\Temp\ccmpGLB8.s 			page 6


 219 0006 00       		.space	1
 220              		.text
 221              	.Letext0:
 222              		.file 2 "Generated_Source\\PSoC4/cytypes.h"
 223              		.file 3 "./main.h"
 224              		.file 4 "Generated_Source\\PSoC4/TCPWM_LED.h"
 225              		.file 5 "Generated_Source\\PSoC4/Control_Reg_LED_1.h"
 226              		.file 6 "Generated_Source\\PSoC4/Control_Reg_LED_2.h"
 227              		.file 7 "lib\\externalFlash.h"