ARM GAS  C:\Users\luvsd\AppData\Local\Temp\ccGf1Wie.s 			page 1


   1              		.syntax unified
   2              		.cpu cortex-m0
   3              		.fpu softvfp
   4              		.eabi_attribute 20, 1
   5              		.eabi_attribute 21, 1
   6              		.eabi_attribute 23, 3
   7              		.eabi_attribute 24, 1
   8              		.eabi_attribute 25, 1
   9              		.eabi_attribute 26, 1
  10              		.eabi_attribute 30, 1
  11              		.eabi_attribute 34, 0
  12              		.eabi_attribute 18, 4
  13              		.thumb
  14              		.syntax unified
  15              		.file	"main.c"
  16              		.text
  17              	.Ltext0:
  18              		.cfi_sections	.debug_frame
  19              		.section	.text.EnterBootloaderMode,"ax",%progbits
  20              		.align	2
  21              		.global	EnterBootloaderMode
  22              		.code	16
  23              		.thumb_func
  24              		.type	EnterBootloaderMode, %function
  25              	EnterBootloaderMode:
  26              	.LFB61:
  27              		.file 1 "main.c"
   1:main.c        **** /* ========================================
   2:main.c        ****  *
   3:main.c        ****  * Copyright Suntech, 2023.02.01
   4:main.c        ****  * All Rights Reserved
   5:main.c        ****  * UNPUBLISHED, LICENSED SOFTWARE.
   6:main.c        ****  *
   7:main.c        ****  * CONFIDENTIAL AND PROPRIETARY INFORMATION
   8:main.c        ****  * WHICH IS THE PROPERTY OF Suntech.
   9:main.c        ****  *
  10:main.c        ****  * ========================================
  11:main.c        **** */
  12:main.c        **** #include "main.h"
  13:main.c        **** #include "setup.h"
  14:main.c        **** #include "userTimer.h"
  15:main.c        **** #include "menuDesign.h"
  16:main.c        **** #include "lib/LEDControl.h"
  17:main.c        **** #include "lib/USB.h"
  18:main.c        **** #include "count.h"
  19:main.c        **** #include "Bootloadable.h"
  20:main.c        **** #include <string.h>
  21:main.c        **** 
  22:main.c        **** //#include "lib/image.h"
  23:main.c        **** //#include "lib/fonts.h"
  24:main.c        **** 
  25:main.c        **** extern uint8 OneSecondIndex;
  26:main.c        **** 
  27:main.c        **** // image.h를 사용하면, SRAM의 50%를 차지한다.
  28:main.c        **** 
  29:main.c        **** // 부트로더 진입 함수 (서브메뉴에서 호출용)
  30:main.c        **** void EnterBootloaderMode(void)
ARM GAS  C:\Users\luvsd\AppData\Local\Temp\ccGf1Wie.s 			page 2


  31:main.c        **** {
  28              		.loc 1 31 0
  29              		.cfi_startproc
  30              		@ args = 0, pretend = 0, frame = 0
  31              		@ frame_needed = 0, uses_anonymous_args = 0
  32 0000 10B5     		push	{r4, lr}
  33              		.cfi_def_cfa_offset 8
  34              		.cfi_offset 4, -8
  35              		.cfi_offset 14, -4
  32:main.c        ****     printf("Entering Bootloader Mode...\r\n");
  36              		.loc 1 32 0
  37 0002 0448     		ldr	r0, .L2
  38 0004 FFF7FEFF 		bl	puts
  39              	.LVL0:
  33:main.c        **** 
  34:main.c        ****     // LED 표시 (빨간색 5번 깜박임)
  35:main.c        ****     /* for(int i = 0; i < 5; i++)
  36:main.c        ****     {
  37:main.c        ****         LED1_R_Write(1);
  38:main.c        ****         CyDelay(200);
  39:main.c        ****         LED1_R_Write(0);
  40:main.c        ****         CyDelay(200);
  41:main.c        ****     } */
  42:main.c        ****     // 마지막에 켜진 상태 유지
  43:main.c        ****     /* LED1_R_Write(1);
  44:main.c        ****     CyDelay(1000); */
  45:main.c        **** 
  46:main.c        ****     // 부트로더 모드로 전환
  47:main.c        ****     Bootloadable_Load();
  40              		.loc 1 47 0
  41 0008 FFF7FEFF 		bl	Bootloadable_Load
  42              	.LVL1:
  48:main.c        ****     CySoftwareReset();
  43              		.loc 1 48 0
  44 000c FFF7FEFF 		bl	CySoftwareReset
  45              	.LVL2:
  49:main.c        **** }
  46              		.loc 1 49 0
  47              		@ sp needed
  48 0010 10BD     		pop	{r4, pc}
  49              	.L3:
  50 0012 C046     		.align	2
  51              	.L2:
  52 0014 00000000 		.word	.LC0
  53              		.cfi_endproc
  54              	.LFE61:
  55              		.size	EnterBootloaderMode, .-EnterBootloaderMode
  56              		.section	.text.main,"ax",%progbits
  57              		.align	2
  58              		.global	main
  59              		.code	16
  60              		.thumb_func
  61              		.type	main, %function
  62              	main:
  63              	.LFB62:
  50:main.c        **** 
  51:main.c        **** int main(void)
ARM GAS  C:\Users\luvsd\AppData\Local\Temp\ccGf1Wie.s 			page 3


  52:main.c        **** {
  64              		.loc 1 52 0
  65              		.cfi_startproc
  66              		@ Volatile: function does not return.
  67              		@ args = 0, pretend = 0, frame = 0
  68              		@ frame_needed = 0, uses_anonymous_args = 0
  69 0000 10B5     		push	{r4, lr}
  70              		.cfi_def_cfa_offset 8
  71              		.cfi_offset 4, -8
  72              		.cfi_offset 14, -4
  53:main.c        ****     /* Enable WCO */
  54:main.c        ****     CySysClkWcoStart();
  73              		.loc 1 54 0
  74 0002 FFF7FEFF 		bl	CySysClkWcoStart
  75              	.LVL3:
  55:main.c        ****     
  56:main.c        ****     CyGlobalIntEnable; /* Enable global interrupts. */
  76              		.loc 1 56 0
  77              		.syntax divided
  78              	@ 56 "main.c" 1
  79 0006 62B6     		CPSIE   i
  80              	@ 0 "" 2
  57:main.c        ****  
  58:main.c        ****     SetUp();
  81              		.loc 1 58 0
  82              		.thumb
  83              		.syntax unified
  84 0008 FFF7FEFF 		bl	SetUp
  85              	.LVL4:
  59:main.c        ****  
  60:main.c        ****     LCD_Backlight_Write(1);  
  86              		.loc 1 60 0
  87 000c 0120     		movs	r0, #1
  88 000e FFF7FEFF 		bl	LCD_Backlight_Write
  89              	.LVL5:
  61:main.c        ****         
  62:main.c        ****     //g_uLED1_Color = LED_RED;
  63:main.c        ****     //g_bLED1_Flickering = TRUE;  
  64:main.c        ****     g_uLED1_Color = LED_GREEN;
  90              		.loc 1 64 0
  91 0012 0222     		movs	r2, #2
  92 0014 0D4B     		ldr	r3, .L7
  93 0016 1A80     		strh	r2, [r3]
  65:main.c        ****     g_bLED1_Flickering = FALSE;   
  94              		.loc 1 65 0
  95 0018 0022     		movs	r2, #0
  96 001a 0D4B     		ldr	r3, .L7+4
  97 001c 1A70     		strb	r2, [r3]
  66:main.c        **** 
  67:main.c        ****     printf("Hello. Main loop started.\r\n");
  98              		.loc 1 67 0
  99 001e 0D48     		ldr	r0, .L7+8
 100 0020 FFF7FEFF 		bl	puts
 101              	.LVL6:
  68:main.c        ****     printf("Use SET menu -> USB Update to enter bootloader mode.\r\n");
 102              		.loc 1 68 0
 103 0024 0C48     		ldr	r0, .L7+12
ARM GAS  C:\Users\luvsd\AppData\Local\Temp\ccGf1Wie.s 			page 4


 104 0026 FFF7FEFF 		bl	puts
 105              	.LVL7:
 106              	.L6:
  69:main.c        **** 
  70:main.c        ****     for(;;)
  71:main.c        ****     {
  72:main.c        ****         OneMilliSecond_MainLoop(); //1ms 마다 작동하는 함수 (시간은 정확하지 않음)
 107              		.loc 1 72 0
 108 002a FFF7FEFF 		bl	OneMilliSecond_MainLoop
 109              	.LVL8:
  73:main.c        ****         OneSecond_MainLoop();      // 1s 마다 작동하는 함수 (시간은 정확하지 않음)
 110              		.loc 1 73 0
 111 002e FFF7FEFF 		bl	OneSecond_MainLoop
 112              	.LVL9:
  74:main.c        **** 
  75:main.c        ****         // CheckTitleTouch();      // 제거: 새로운 서브메뉴 방식으로 변경
  76:main.c        **** 
  77:main.c        ****         if(isFinishCounter_1s(OneSecondIndex)) LED_OneSecondControl();
 113              		.loc 1 77 0
 114 0032 0A4B     		ldr	r3, .L7+16
 115 0034 1878     		ldrb	r0, [r3]
 116 0036 FFF7FEFF 		bl	isFinishCounter_1s
 117              	.LVL10:
 118 003a 0028     		cmp	r0, #0
 119 003c 01D0     		beq	.L5
 120              		.loc 1 77 0 is_stmt 0 discriminator 1
 121 003e FFF7FEFF 		bl	LED_OneSecondControl
 122              	.LVL11:
 123              	.L5:
  78:main.c        **** 
  79:main.c        ****         MenuLoop();
 124              		.loc 1 79 0 is_stmt 1
 125 0042 FFF7FEFF 		bl	MenuLoop
 126              	.LVL12:
  80:main.c        **** 
  81:main.c        ****         SetCountLoop();
 127              		.loc 1 81 0
 128 0046 FFF7FEFF 		bl	SetCountLoop
 129              	.LVL13:
  82:main.c        ****     }
 130              		.loc 1 82 0
 131 004a EEE7     		b	.L6
 132              	.L8:
 133              		.align	2
 134              	.L7:
 135 004c 00000000 		.word	g_uLED1_Color
 136 0050 00000000 		.word	g_bLED1_Flickering
 137 0054 20000000 		.word	.LC4
 138 0058 3C000000 		.word	.LC6
 139 005c 00000000 		.word	OneSecondIndex
 140              		.cfi_endproc
 141              	.LFE62:
 142              		.size	main, .-main
 143              		.comm	Param,6,4
 144              		.section	.rodata.str1.4,"aMS",%progbits,1
 145              		.align	2
 146              	.LC0:
ARM GAS  C:\Users\luvsd\AppData\Local\Temp\ccGf1Wie.s 			page 5


 147 0000 456E7465 		.ascii	"Entering Bootloader Mode...\015\000"
 147      72696E67 
 147      20426F6F 
 147      746C6F61 
 147      64657220 
 148 001d 000000   		.space	3
 149              	.LC4:
 150 0020 48656C6C 		.ascii	"Hello. Main loop started.\015\000"
 150      6F2E204D 
 150      61696E20 
 150      6C6F6F70 
 150      20737461 
 151 003b 00       		.space	1
 152              	.LC6:
 153 003c 55736520 		.ascii	"Use SET menu -> USB Update to enter bootloader mode"
 153      53455420 
 153      6D656E75 
 153      202D3E20 
 153      55534220 
 154 006f 2E0D00   		.ascii	".\015\000"
 155              		.text
 156              	.Letext0:
 157              		.file 2 "Generated_Source\\PSoC4/cytypes.h"
 158              		.file 3 "main.h"
 159              		.file 4 "lib/fonts.h"
 160              		.file 5 "lib/LEDControl.h"
 161              		.file 6 "Generated_Source\\PSoC4/Bootloadable.h"
 162              		.file 7 "Generated_Source\\PSoC4/CyLib.h"
 163              		.file 8 "Generated_Source\\PSoC4/CyLFClk.h"
 164              		.file 9 "setup.h"
 165              		.file 10 "Generated_Source\\PSoC4/LCD_Backlight.h"
 166              		.file 11 "userTimer.h"
 167              		.file 12 "lib/RealTimeClock.h"
 168              		.file 13 "lib/menu.h"
 169              		.file 14 "count.h"
 170              		.file 15 "<built-in>"