ARM GAS  C:\Users\luvsd\AppData\Local\Temp\ccKCZrlj.s 			page 1


   1              		.syntax unified
   2              		.cpu cortex-m0
   3              		.fpu softvfp
   4              		.eabi_attribute 20, 1
   5              		.eabi_attribute 21, 1
   6              		.eabi_attribute 23, 3
   7              		.eabi_attribute 24, 1
   8              		.eabi_attribute 25, 1
   9              		.eabi_attribute 26, 1
  10              		.eabi_attribute 30, 1
  11              		.eabi_attribute 34, 0
  12              		.eabi_attribute 18, 4
  13              		.thumb
  14              		.syntax unified
  15              		.file	"menu.c"
  16              		.text
  17              	.Ltext0:
  18              		.cfi_sections	.debug_frame
  19              		.section	.text.initMenu,"ax",%progbits
  20              		.align	2
  21              		.global	initMenu
  22              		.code	16
  23              		.thumb_func
  24              		.type	initMenu, %function
  25              	initMenu:
  26              	.LFB61:
  27              		.file 1 "lib\\menu.c"
   1:lib/menu.c    **** /* ========================================
   2:lib/menu.c    ****  *
   3:lib/menu.c    ****  * Copyright Suntech, 2023.02.01
   4:lib/menu.c    ****  * All Rights Reserved
   5:lib/menu.c    ****  * UNPUBLISHED, LICENSED SOFTWARE.
   6:lib/menu.c    ****  *
   7:lib/menu.c    ****  * CONFIDENTIAL AND PROPRIETARY INFORMATION
   8:lib/menu.c    ****  * WHICH IS THE PROPERTY OF Suntech.
   9:lib/menu.c    ****  *
  10:lib/menu.c    ****  * ========================================
  11:lib/menu.c    **** */
  12:lib/menu.c    **** #include "menu.h"
  13:lib/menu.c    **** 
  14:lib/menu.c    **** MENUNODE *g_MenuNode;
  15:lib/menu.c    **** MENUNODE *g_TopMenuNode;
  16:lib/menu.c    **** 
  17:lib/menu.c    **** void initMenu()
  18:lib/menu.c    **** {    
  28              		.loc 1 18 0
  29              		.cfi_startproc
  30              		@ args = 0, pretend = 0, frame = 0
  31              		@ frame_needed = 0, uses_anonymous_args = 0
  32 0000 10B5     		push	{r4, lr}
  33              		.cfi_def_cfa_offset 8
  34              		.cfi_offset 4, -8
  35              		.cfi_offset 14, -4
  19:lib/menu.c    ****     g_MenuNode = menuCreate();
  36              		.loc 1 19 0
  37 0002 FFF7FEFF 		bl	menuCreate
  38              	.LVL0:
ARM GAS  C:\Users\luvsd\AppData\Local\Temp\ccKCZrlj.s 			page 2


  39 0006 014B     		ldr	r3, .L2
  40 0008 1860     		str	r0, [r3]
  20:lib/menu.c    **** }
  41              		.loc 1 20 0
  42              		@ sp needed
  43 000a 10BD     		pop	{r4, pc}
  44              	.L3:
  45              		.align	2
  46              	.L2:
  47 000c 00000000 		.word	g_MenuNode
  48              		.cfi_endproc
  49              	.LFE61:
  50              		.size	initMenu, .-initMenu
  51              		.section	.text.addMENUNODE,"ax",%progbits
  52              		.align	2
  53              		.global	addMENUNODE
  54              		.code	16
  55              		.thumb_func
  56              		.type	addMENUNODE, %function
  57              	addMENUNODE:
  58              	.LFB63:
  21:lib/menu.c    **** 
  22:lib/menu.c    **** //=============================================================================================
  23:lib/menu.c    **** #define MAX_MENU_NODE 20
  24:lib/menu.c    **** MENUNODE g_MENUNODE[MAX_MENU_NODE];
  25:lib/menu.c    **** 
  26:lib/menu.c    **** MENUNODE * createMENUNODE(MENUNODE *parent, char *nodeName, int (*func)(void *this, uint8 reflash))
  27:lib/menu.c    **** {
  28:lib/menu.c    ****     static uint16 index=0;
  29:lib/menu.c    ****     
  30:lib/menu.c    ****     if(index >= MAX_MENU_NODE)
  31:lib/menu.c    ****     {
  32:lib/menu.c    ****         printf("Out of Memory : [%d]\r\n", index);
  33:lib/menu.c    ****         return NULL;
  34:lib/menu.c    ****     }
  35:lib/menu.c    ****     
  36:lib/menu.c    ****     MENUNODE *node = &g_MENUNODE[index++];
  37:lib/menu.c    ****     
  38:lib/menu.c    ****     node->parent       = parent;
  39:lib/menu.c    ****     node->func         = func;
  40:lib/menu.c    ****     node->firstChild   = NULL;
  41:lib/menu.c    ****     node->nextSibling  = NULL;
  42:lib/menu.c    ****     strcpy(node->nodeName,nodeName);
  43:lib/menu.c    ****     
  44:lib/menu.c    ****     if(parent != NULL) addMENUNODE(parent,node);
  45:lib/menu.c    ****     
  46:lib/menu.c    ****     return node;
  47:lib/menu.c    **** }
  48:lib/menu.c    **** 
  49:lib/menu.c    **** void addMENUNODE(MENUNODE *parent, MENUNODE *newChild)
  50:lib/menu.c    **** {
  59              		.loc 1 50 0
  60              		.cfi_startproc
  61              		@ args = 0, pretend = 0, frame = 0
  62              		@ frame_needed = 0, uses_anonymous_args = 0
  63              		@ link register save eliminated.
  64              	.LVL1:
ARM GAS  C:\Users\luvsd\AppData\Local\Temp\ccKCZrlj.s 			page 3


  51:lib/menu.c    ****     MENUNODE *temp;
  52:lib/menu.c    ****     
  53:lib/menu.c    ****     if(parent->firstChild == NULL)
  65              		.loc 1 53 0
  66 0000 4268     		ldr	r2, [r0, #4]
  67 0002 002A     		cmp	r2, #0
  68 0004 02D1     		bne	.L5
  54:lib/menu.c    ****     {
  55:lib/menu.c    ****         parent->firstChild = newChild;
  69              		.loc 1 55 0
  70 0006 4160     		str	r1, [r0, #4]
  71 0008 04E0     		b	.L6
  72              	.LVL2:
  73              	.L7:
  56:lib/menu.c    ****     } else {
  57:lib/menu.c    ****         temp = parent->firstChild;
  58:lib/menu.c    ****         while(temp->nextSibling != NULL)
  59:lib/menu.c    ****         {
  60:lib/menu.c    ****             temp = temp->nextSibling;
  74              		.loc 1 60 0
  75 000a 1A00     		movs	r2, r3
  76              	.LVL3:
  77              	.L5:
  58:lib/menu.c    ****         {
  78              		.loc 1 58 0
  79 000c 9368     		ldr	r3, [r2, #8]
  80 000e 002B     		cmp	r3, #0
  81 0010 FBD1     		bne	.L7
  61:lib/menu.c    ****         }
  62:lib/menu.c    ****         temp->nextSibling = newChild;
  82              		.loc 1 62 0
  83 0012 9160     		str	r1, [r2, #8]
  84              	.LVL4:
  85              	.L6:
  63:lib/menu.c    **** 
  64:lib/menu.c    ****     }
  65:lib/menu.c    ****     newChild->parent = parent;
  86              		.loc 1 65 0
  87 0014 0860     		str	r0, [r1]
  66:lib/menu.c    **** }
  88              		.loc 1 66 0
  89              		@ sp needed
  90 0016 7047     		bx	lr
  91              		.cfi_endproc
  92              	.LFE63:
  93              		.size	addMENUNODE, .-addMENUNODE
  94              		.section	.text.createMENUNODE,"ax",%progbits
  95              		.align	2
  96              		.global	createMENUNODE
  97              		.code	16
  98              		.thumb_func
  99              		.type	createMENUNODE, %function
 100              	createMENUNODE:
 101              	.LFB62:
  27:lib/menu.c    ****     static uint16 index=0;
 102              		.loc 1 27 0
 103              		.cfi_startproc
ARM GAS  C:\Users\luvsd\AppData\Local\Temp\ccKCZrlj.s 			page 4


 104              		@ args = 0, pretend = 0, frame = 0
 105              		@ frame_needed = 0, uses_anonymous_args = 0
 106              	.LVL5:
 107 0000 F8B5     		push	{r3, r4, r5, r6, r7, lr}
 108              		.cfi_def_cfa_offset 24
 109              		.cfi_offset 3, -24
 110              		.cfi_offset 4, -20
 111              		.cfi_offset 5, -16
 112              		.cfi_offset 6, -12
 113              		.cfi_offset 7, -8
 114              		.cfi_offset 14, -4
 115 0002 0600     		movs	r6, r0
 116 0004 9446     		mov	ip, r2
  30:lib/menu.c    ****     {
 117              		.loc 1 30 0
 118 0006 134B     		ldr	r3, .L12
 119 0008 1B88     		ldrh	r3, [r3]
 120 000a 132B     		cmp	r3, #19
 121 000c 05D9     		bls	.L9
  32:lib/menu.c    ****         return NULL;
 122              		.loc 1 32 0
 123 000e 1900     		movs	r1, r3
 124              	.LVL6:
 125 0010 1148     		ldr	r0, .L12+4
 126              	.LVL7:
 127 0012 FFF7FEFF 		bl	printf
 128              	.LVL8:
  33:lib/menu.c    ****     }
 129              		.loc 1 33 0
 130 0016 0020     		movs	r0, #0
 131 0018 1BE0     		b	.L10
 132              	.LVL9:
 133              	.L9:
  36:lib/menu.c    ****     
 134              		.loc 1 36 0
 135 001a 581C     		adds	r0, r3, #1
 136              	.LVL10:
 137 001c 0D4A     		ldr	r2, .L12
 138              	.LVL11:
 139 001e 1080     		strh	r0, [r2]
 140 0020 DF00     		lsls	r7, r3, #3
 141 0022 F818     		adds	r0, r7, r3
 142 0024 8400     		lsls	r4, r0, #2
 143 0026 2000     		movs	r0, r4
 144 0028 0C4D     		ldr	r5, .L12+8
 145 002a 6419     		adds	r4, r4, r5
 146              	.LVL12:
  38:lib/menu.c    ****     node->func         = func;
 147              		.loc 1 38 0
 148 002c 4651     		str	r6, [r0, r5]
  39:lib/menu.c    ****     node->firstChild   = NULL;
 149              		.loc 1 39 0
 150 002e 6246     		mov	r2, ip
 151 0030 E260     		str	r2, [r4, #12]
  40:lib/menu.c    ****     node->nextSibling  = NULL;
 152              		.loc 1 40 0
 153 0032 0022     		movs	r2, #0
ARM GAS  C:\Users\luvsd\AppData\Local\Temp\ccKCZrlj.s 			page 5


 154 0034 6260     		str	r2, [r4, #4]
  41:lib/menu.c    ****     strcpy(node->nodeName,nodeName);
 155              		.loc 1 41 0
 156 0036 A260     		str	r2, [r4, #8]
  42:lib/menu.c    ****     
 157              		.loc 1 42 0
 158 0038 1030     		adds	r0, r0, #16
 159 003a 4019     		adds	r0, r0, r5
 160 003c FFF7FEFF 		bl	strcpy
 161              	.LVL13:
  44:lib/menu.c    ****     
 162              		.loc 1 44 0
 163 0040 002E     		cmp	r6, #0
 164 0042 05D0     		beq	.L11
  44:lib/menu.c    ****     
 165              		.loc 1 44 0 is_stmt 0 discriminator 1
 166 0044 2100     		movs	r1, r4
 167 0046 3000     		movs	r0, r6
 168 0048 FFF7FEFF 		bl	addMENUNODE
 169              	.LVL14:
  46:lib/menu.c    **** }
 170              		.loc 1 46 0 is_stmt 1 discriminator 1
 171 004c 2000     		movs	r0, r4
 172 004e 00E0     		b	.L10
 173              	.L11:
  46:lib/menu.c    **** }
 174              		.loc 1 46 0 is_stmt 0
 175 0050 2000     		movs	r0, r4
 176              	.LVL15:
 177              	.L10:
  47:lib/menu.c    **** 
 178              		.loc 1 47 0 is_stmt 1
 179              		@ sp needed
 180              	.LVL16:
 181 0052 F8BD     		pop	{r3, r4, r5, r6, r7, pc}
 182              	.L13:
 183              		.align	2
 184              	.L12:
 185 0054 00000000 		.word	.LANCHOR0
 186 0058 00000000 		.word	.LC2
 187 005c 00000000 		.word	g_MENUNODE
 188              		.cfi_endproc
 189              	.LFE62:
 190              		.size	createMENUNODE, .-createMENUNODE
 191              		.section	.text.getNoOfChild,"ax",%progbits
 192              		.align	2
 193              		.global	getNoOfChild
 194              		.code	16
 195              		.thumb_func
 196              		.type	getNoOfChild, %function
 197              	getNoOfChild:
 198              	.LFB64:
  67:lib/menu.c    **** 
  68:lib/menu.c    **** int getNoOfChild(MENUNODE *parent)
  69:lib/menu.c    **** {
 199              		.loc 1 69 0
 200              		.cfi_startproc
ARM GAS  C:\Users\luvsd\AppData\Local\Temp\ccKCZrlj.s 			page 6


 201              		@ args = 0, pretend = 0, frame = 0
 202              		@ frame_needed = 0, uses_anonymous_args = 0
 203              		@ link register save eliminated.
 204              	.LVL17:
  70:lib/menu.c    ****     MENUNODE *temp = parent->firstChild;    
 205              		.loc 1 70 0
 206 0000 4368     		ldr	r3, [r0, #4]
 207              	.LVL18:
  71:lib/menu.c    ****     int count = 0;
 208              		.loc 1 71 0
 209 0002 0020     		movs	r0, #0
 210              	.LVL19:
  72:lib/menu.c    ****     
  73:lib/menu.c    ****     while(temp != NULL)
 211              		.loc 1 73 0
 212 0004 01E0     		b	.L15
 213              	.LVL20:
 214              	.L16:
  74:lib/menu.c    ****     {
  75:lib/menu.c    ****         count++;
 215              		.loc 1 75 0
 216 0006 0130     		adds	r0, r0, #1
 217              	.LVL21:
  76:lib/menu.c    ****         temp = temp->nextSibling;
 218              		.loc 1 76 0
 219 0008 9B68     		ldr	r3, [r3, #8]
 220              	.LVL22:
 221              	.L15:
  73:lib/menu.c    ****     {
 222              		.loc 1 73 0
 223 000a 002B     		cmp	r3, #0
 224 000c FBD1     		bne	.L16
  77:lib/menu.c    ****     }
  78:lib/menu.c    ****     return count;
  79:lib/menu.c    **** }
 225              		.loc 1 79 0
 226              		@ sp needed
 227 000e 7047     		bx	lr
 228              		.cfi_endproc
 229              	.LFE64:
 230              		.size	getNoOfChild, .-getNoOfChild
 231              		.section	.text.getNthChild,"ax",%progbits
 232              		.align	2
 233              		.global	getNthChild
 234              		.code	16
 235              		.thumb_func
 236              		.type	getNthChild, %function
 237              	getNthChild:
 238              	.LFB65:
  80:lib/menu.c    **** 
  81:lib/menu.c    **** MENUNODE * getNthChild(MENUNODE *parent, int index)
  82:lib/menu.c    **** {
 239              		.loc 1 82 0
 240              		.cfi_startproc
 241              		@ args = 0, pretend = 0, frame = 0
 242              		@ frame_needed = 0, uses_anonymous_args = 0
 243              		@ link register save eliminated.
ARM GAS  C:\Users\luvsd\AppData\Local\Temp\ccKCZrlj.s 			page 7


 244              	.LVL23:
  83:lib/menu.c    ****     MENUNODE *temp = parent->firstChild;    
 245              		.loc 1 83 0
 246 0000 4068     		ldr	r0, [r0, #4]
 247              	.LVL24:
  84:lib/menu.c    ****     int count = 0;
 248              		.loc 1 84 0
 249 0002 0023     		movs	r3, #0
  85:lib/menu.c    ****     
  86:lib/menu.c    ****     while(temp != NULL)
 250              		.loc 1 86 0
 251 0004 03E0     		b	.L18
 252              	.LVL25:
 253              	.L20:
  87:lib/menu.c    ****     {
  88:lib/menu.c    ****         if(count == index) return temp;
 254              		.loc 1 88 0
 255 0006 8B42     		cmp	r3, r1
 256 0008 03D0     		beq	.L19
  89:lib/menu.c    ****         count++;
 257              		.loc 1 89 0
 258 000a 0133     		adds	r3, r3, #1
 259              	.LVL26:
  90:lib/menu.c    ****         temp = temp->nextSibling;
 260              		.loc 1 90 0
 261 000c 8068     		ldr	r0, [r0, #8]
 262              	.LVL27:
 263              	.L18:
  86:lib/menu.c    ****     {
 264              		.loc 1 86 0
 265 000e 0028     		cmp	r0, #0
 266 0010 F9D1     		bne	.L20
 267              	.L19:
  91:lib/menu.c    ****     }
  92:lib/menu.c    ****     return NULL;
  93:lib/menu.c    **** }
 268              		.loc 1 93 0
 269              		@ sp needed
 270 0012 7047     		bx	lr
 271              		.cfi_endproc
 272              	.LFE65:
 273              		.size	getNthChild, .-getNthChild
 274              		.section	.text.reflashMenu,"ax",%progbits
 275              		.align	2
 276              		.global	reflashMenu
 277              		.code	16
 278              		.thumb_func
 279              		.type	reflashMenu, %function
 280              	reflashMenu:
 281              	.LFB66:
  94:lib/menu.c    **** 
  95:lib/menu.c    **** void reflashMenu()
  96:lib/menu.c    **** {
 282              		.loc 1 96 0
 283              		.cfi_startproc
 284              		@ args = 0, pretend = 0, frame = 0
 285              		@ frame_needed = 0, uses_anonymous_args = 0
ARM GAS  C:\Users\luvsd\AppData\Local\Temp\ccKCZrlj.s 			page 8


 286 0000 10B5     		push	{r4, lr}
 287              		.cfi_def_cfa_offset 8
 288              		.cfi_offset 4, -8
 289              		.cfi_offset 14, -4
  97:lib/menu.c    ****     if(g_MenuNode) g_MenuNode->func(g_MenuNode,TRUE);
 290              		.loc 1 97 0
 291 0002 044B     		ldr	r3, .L24
 292 0004 1868     		ldr	r0, [r3]
 293 0006 0028     		cmp	r0, #0
 294 0008 02D0     		beq	.L22
 295              		.loc 1 97 0 is_stmt 0 discriminator 1
 296 000a C368     		ldr	r3, [r0, #12]
 297 000c 0121     		movs	r1, #1
 298 000e 9847     		blx	r3
 299              	.LVL28:
 300              	.L22:
  98:lib/menu.c    **** }
 301              		.loc 1 98 0 is_stmt 1
 302              		@ sp needed
 303 0010 10BD     		pop	{r4, pc}
 304              	.L25:
 305 0012 C046     		.align	2
 306              	.L24:
 307 0014 00000000 		.word	g_MenuNode
 308              		.cfi_endproc
 309              	.LFE66:
 310              		.size	reflashMenu, .-reflashMenu
 311              		.section	.text.MenuLoop,"ax",%progbits
 312              		.align	2
 313              		.global	MenuLoop
 314              		.code	16
 315              		.thumb_func
 316              		.type	MenuLoop, %function
 317              	MenuLoop:
 318              	.LFB67:
  99:lib/menu.c    **** 
 100:lib/menu.c    **** void MenuLoop()
 101:lib/menu.c    **** {
 319              		.loc 1 101 0
 320              		.cfi_startproc
 321              		@ args = 0, pretend = 0, frame = 0
 322              		@ frame_needed = 0, uses_anonymous_args = 0
 323 0000 10B5     		push	{r4, lr}
 324              		.cfi_def_cfa_offset 8
 325              		.cfi_offset 4, -8
 326              		.cfi_offset 14, -4
 102:lib/menu.c    ****     static uint8 reflash = TRUE;
 103:lib/menu.c    **** 
 104:lib/menu.c    ****     int subMenu = g_MenuNode->func((MENUNODE *) g_MenuNode, reflash);
 327              		.loc 1 104 0
 328 0002 174B     		ldr	r3, .L31
 329 0004 1868     		ldr	r0, [r3]
 330 0006 C368     		ldr	r3, [r0, #12]
 331 0008 164C     		ldr	r4, .L31+4
 332 000a 2178     		ldrb	r1, [r4]
 333 000c 9847     		blx	r3
 334              	.LVL29:
ARM GAS  C:\Users\luvsd\AppData\Local\Temp\ccKCZrlj.s 			page 9


 335 000e 0100     		movs	r1, r0
 336              	.LVL30:
 105:lib/menu.c    ****     if(reflash) reflash = FALSE;
 337              		.loc 1 105 0
 338 0010 2378     		ldrb	r3, [r4]
 339 0012 002B     		cmp	r3, #0
 340 0014 02D0     		beq	.L27
 341              		.loc 1 105 0 is_stmt 0 discriminator 1
 342 0016 0022     		movs	r2, #0
 343 0018 124B     		ldr	r3, .L31+4
 344 001a 1A70     		strb	r2, [r3]
 345              	.L27:
 106:lib/menu.c    **** 
 107:lib/menu.c    ****     if(subMenu == MENU_RETURN_THIS_REFLASH)
 346              		.loc 1 107 0 is_stmt 1
 347 001c 124B     		ldr	r3, .L31+8
 348 001e 9942     		cmp	r1, r3
 349 0020 03D1     		bne	.L28
 108:lib/menu.c    ****     {
 109:lib/menu.c    ****         reflash = TRUE;
 350              		.loc 1 109 0
 351 0022 0122     		movs	r2, #1
 352 0024 0F4B     		ldr	r3, .L31+4
 353 0026 1A70     		strb	r2, [r3]
 354              	.LVL31:
 110:lib/menu.c    ****         subMenu = MENU_RETURN_THIS;
 355              		.loc 1 110 0
 356 0028 1049     		ldr	r1, .L31+12
 357              	.LVL32:
 358              	.L28:
 111:lib/menu.c    ****     }
 112:lib/menu.c    **** 
 113:lib/menu.c    ****     if(subMenu != MENU_RETURN_THIS) 
 359              		.loc 1 113 0
 360 002a 104B     		ldr	r3, .L31+12
 361 002c 9942     		cmp	r1, r3
 362 002e 16D0     		beq	.L26
 114:lib/menu.c    ****     {
 115:lib/menu.c    ****         reflash = TRUE;
 363              		.loc 1 115 0
 364 0030 0122     		movs	r2, #1
 365 0032 0C4B     		ldr	r3, .L31+4
 366 0034 1A70     		strb	r2, [r3]
 116:lib/menu.c    **** 
 117:lib/menu.c    ****         if(subMenu == MENU_RETURN_PARENT)
 367              		.loc 1 117 0
 368 0036 8023     		movs	r3, #128
 369 0038 1B06     		lsls	r3, r3, #24
 370 003a 9942     		cmp	r1, r3
 371 003c 07D1     		bne	.L30
 118:lib/menu.c    ****         {
 119:lib/menu.c    ****             if(g_MenuNode->parent != NULL) g_MenuNode = g_MenuNode->parent;
 372              		.loc 1 119 0
 373 003e 084B     		ldr	r3, .L31
 374 0040 1B68     		ldr	r3, [r3]
 375 0042 1B68     		ldr	r3, [r3]
 376 0044 002B     		cmp	r3, #0
ARM GAS  C:\Users\luvsd\AppData\Local\Temp\ccKCZrlj.s 			page 10


 377 0046 0AD0     		beq	.L26
 378              		.loc 1 119 0 is_stmt 0 discriminator 1
 379 0048 054A     		ldr	r2, .L31
 380 004a 1360     		str	r3, [r2]
 381 004c 07E0     		b	.L26
 382              	.L30:
 383              	.LBB2:
 120:lib/menu.c    ****         }
 121:lib/menu.c    ****         else
 122:lib/menu.c    ****         {
 123:lib/menu.c    ****              MENUNODE * child = getNthChild(g_MenuNode, subMenu);
 384              		.loc 1 123 0 is_stmt 1
 385 004e 044B     		ldr	r3, .L31
 386 0050 1868     		ldr	r0, [r3]
 387 0052 FFF7FEFF 		bl	getNthChild
 388              	.LVL33:
 124:lib/menu.c    ****              if(child != NULL) g_MenuNode = child;
 389              		.loc 1 124 0
 390 0056 0028     		cmp	r0, #0
 391 0058 01D0     		beq	.L26
 392              		.loc 1 124 0 is_stmt 0 discriminator 1
 393 005a 014B     		ldr	r3, .L31
 394 005c 1860     		str	r0, [r3]
 395              	.LVL34:
 396              	.L26:
 397              	.LBE2:
 125:lib/menu.c    ****         }   
 126:lib/menu.c    ****    }
 127:lib/menu.c    **** }
 398              		.loc 1 127 0 is_stmt 1
 399              		@ sp needed
 400 005e 10BD     		pop	{r4, pc}
 401              	.L32:
 402              		.align	2
 403              	.L31:
 404 0060 00000000 		.word	g_MenuNode
 405 0064 00000000 		.word	.LANCHOR1
 406 0068 02000080 		.word	-2147483646
 407 006c 01000080 		.word	-2147483647
 408              		.cfi_endproc
 409              	.LFE67:
 410              		.size	MenuLoop, .-MenuLoop
 411              		.comm	g_MENUNODE,720,4
 412              		.comm	g_TopMenuNode,4,4
 413              		.comm	g_MenuNode,4,4
 414              		.comm	Param,6,4
 415              		.data
 416              		.set	.LANCHOR1,. + 0
 417              		.type	reflash.8845, %object
 418              		.size	reflash.8845, 1
 419              	reflash.8845:
 420 0000 01       		.byte	1
 421              		.section	.rodata.str1.4,"aMS",%progbits,1
 422              		.align	2
 423              	.LC2:
 424 0000 4F757420 		.ascii	"Out of Memory : [%d]\015\012\000"
 424      6F66204D 
ARM GAS  C:\Users\luvsd\AppData\Local\Temp\ccKCZrlj.s 			page 11


 424      656D6F72 
 424      79203A20 
 424      5B25645D 
 425              		.bss
 426              		.align	1
 427              		.set	.LANCHOR0,. + 0
 428              		.type	index.8814, %object
 429              		.size	index.8814, 2
 430              	index.8814:
 431 0000 0000     		.space	2
 432              		.text
 433              	.Letext0:
 434              		.file 2 "Generated_Source\\PSoC4/cytypes.h"
 435              		.file 3 "./main.h"
 436              		.file 4 "lib\\menu.h"
 437              		.file 5 "c:\\program files (x86)\\cypress\\psoc creator\\4.4\\psoc creator\\import\\gnu\\arm\\5.4.
 438              		.file 6 "c:\\program files (x86)\\cypress\\psoc creator\\4.4\\psoc creator\\import\\gnu\\arm\\5.4.