ARM GAS  C:\Users\luvsd\AppData\Local\Temp\ccqGuhfM.s 			page 1


   1              		.syntax unified
   2              		.cpu cortex-m0
   3              		.fpu softvfp
   4              		.eabi_attribute 20, 1
   5              		.eabi_attribute 21, 1
   6              		.eabi_attribute 23, 3
   7              		.eabi_attribute 24, 1
   8              		.eabi_attribute 25, 1
   9              		.eabi_attribute 26, 1
  10              		.eabi_attribute 30, 1
  11              		.eabi_attribute 34, 0
  12              		.eabi_attribute 18, 4
  13              		.thumb
  14              		.syntax unified
  15              		.file	"SPIM_FLASH_PM.c"
  16              		.text
  17              	.Ltext0:
  18              		.cfi_sections	.debug_frame
  19              		.section	.text.SPIM_FLASH_SaveConfig,"ax",%progbits
  20              		.align	2
  21              		.global	SPIM_FLASH_SaveConfig
  22              		.code	16
  23              		.thumb_func
  24              		.type	SPIM_FLASH_SaveConfig, %function
  25              	SPIM_FLASH_SaveConfig:
  26              	.LFB1:
  27              		.file 1 "Generated_Source\\PSoC4\\SPIM_FLASH_PM.c"
   1:Generated_Source\PSoC4/SPIM_FLASH_PM.c **** /*******************************************************************************
   2:Generated_Source\PSoC4/SPIM_FLASH_PM.c **** * File Name: SPIM_FLASH_PM.c
   3:Generated_Source\PSoC4/SPIM_FLASH_PM.c **** * Version 2.50
   4:Generated_Source\PSoC4/SPIM_FLASH_PM.c **** *
   5:Generated_Source\PSoC4/SPIM_FLASH_PM.c **** * Description:
   6:Generated_Source\PSoC4/SPIM_FLASH_PM.c **** *  This file contains the setup, control and status commands to support
   7:Generated_Source\PSoC4/SPIM_FLASH_PM.c **** *  component operations in low power mode.
   8:Generated_Source\PSoC4/SPIM_FLASH_PM.c **** *
   9:Generated_Source\PSoC4/SPIM_FLASH_PM.c **** * Note:
  10:Generated_Source\PSoC4/SPIM_FLASH_PM.c **** *
  11:Generated_Source\PSoC4/SPIM_FLASH_PM.c **** ********************************************************************************
  12:Generated_Source\PSoC4/SPIM_FLASH_PM.c **** * Copyright 2008-2015, Cypress Semiconductor Corporation.  All rights reserved.
  13:Generated_Source\PSoC4/SPIM_FLASH_PM.c **** * You may use this file only in accordance with the license, terms, conditions,
  14:Generated_Source\PSoC4/SPIM_FLASH_PM.c **** * disclaimers, and limitations in the end user license agreement accompanying
  15:Generated_Source\PSoC4/SPIM_FLASH_PM.c **** * the software package with which this file was provided.
  16:Generated_Source\PSoC4/SPIM_FLASH_PM.c **** *******************************************************************************/
  17:Generated_Source\PSoC4/SPIM_FLASH_PM.c **** 
  18:Generated_Source\PSoC4/SPIM_FLASH_PM.c **** #include "SPIM_FLASH_PVT.h"
  19:Generated_Source\PSoC4/SPIM_FLASH_PM.c **** 
  20:Generated_Source\PSoC4/SPIM_FLASH_PM.c **** static SPIM_FLASH_BACKUP_STRUCT SPIM_FLASH_backup =
  21:Generated_Source\PSoC4/SPIM_FLASH_PM.c **** {
  22:Generated_Source\PSoC4/SPIM_FLASH_PM.c ****     SPIM_FLASH_DISABLED,
  23:Generated_Source\PSoC4/SPIM_FLASH_PM.c ****     SPIM_FLASH_BITCTR_INIT,
  24:Generated_Source\PSoC4/SPIM_FLASH_PM.c **** };
  25:Generated_Source\PSoC4/SPIM_FLASH_PM.c **** 
  26:Generated_Source\PSoC4/SPIM_FLASH_PM.c **** 
  27:Generated_Source\PSoC4/SPIM_FLASH_PM.c **** /*******************************************************************************
  28:Generated_Source\PSoC4/SPIM_FLASH_PM.c **** * Function Name: SPIM_FLASH_SaveConfig
  29:Generated_Source\PSoC4/SPIM_FLASH_PM.c **** ********************************************************************************
  30:Generated_Source\PSoC4/SPIM_FLASH_PM.c **** *
ARM GAS  C:\Users\luvsd\AppData\Local\Temp\ccqGuhfM.s 			page 2


  31:Generated_Source\PSoC4/SPIM_FLASH_PM.c **** * Summary:
  32:Generated_Source\PSoC4/SPIM_FLASH_PM.c **** *  Empty function. Included for consistency with other components.
  33:Generated_Source\PSoC4/SPIM_FLASH_PM.c **** *
  34:Generated_Source\PSoC4/SPIM_FLASH_PM.c **** * Parameters:
  35:Generated_Source\PSoC4/SPIM_FLASH_PM.c **** *  None.
  36:Generated_Source\PSoC4/SPIM_FLASH_PM.c **** *
  37:Generated_Source\PSoC4/SPIM_FLASH_PM.c **** * Return:
  38:Generated_Source\PSoC4/SPIM_FLASH_PM.c **** *  None.
  39:Generated_Source\PSoC4/SPIM_FLASH_PM.c **** *
  40:Generated_Source\PSoC4/SPIM_FLASH_PM.c **** *******************************************************************************/
  41:Generated_Source\PSoC4/SPIM_FLASH_PM.c **** void SPIM_FLASH_SaveConfig(void) 
  42:Generated_Source\PSoC4/SPIM_FLASH_PM.c **** {
  28              		.loc 1 42 0
  29              		.cfi_startproc
  30              		@ args = 0, pretend = 0, frame = 0
  31              		@ frame_needed = 0, uses_anonymous_args = 0
  32              		@ link register save eliminated.
  43:Generated_Source\PSoC4/SPIM_FLASH_PM.c **** 
  44:Generated_Source\PSoC4/SPIM_FLASH_PM.c **** }
  33              		.loc 1 44 0
  34              		@ sp needed
  35 0000 7047     		bx	lr
  36              		.cfi_endproc
  37              	.LFE1:
  38              		.size	SPIM_FLASH_SaveConfig, .-SPIM_FLASH_SaveConfig
  39 0002 C046     		.section	.text.SPIM_FLASH_RestoreConfig,"ax",%progbits
  40              		.align	2
  41              		.global	SPIM_FLASH_RestoreConfig
  42              		.code	16
  43              		.thumb_func
  44              		.type	SPIM_FLASH_RestoreConfig, %function
  45              	SPIM_FLASH_RestoreConfig:
  46              	.LFB2:
  45:Generated_Source\PSoC4/SPIM_FLASH_PM.c **** 
  46:Generated_Source\PSoC4/SPIM_FLASH_PM.c **** 
  47:Generated_Source\PSoC4/SPIM_FLASH_PM.c **** /*******************************************************************************
  48:Generated_Source\PSoC4/SPIM_FLASH_PM.c **** * Function Name: SPIM_FLASH_RestoreConfig
  49:Generated_Source\PSoC4/SPIM_FLASH_PM.c **** ********************************************************************************
  50:Generated_Source\PSoC4/SPIM_FLASH_PM.c **** *
  51:Generated_Source\PSoC4/SPIM_FLASH_PM.c **** * Summary:
  52:Generated_Source\PSoC4/SPIM_FLASH_PM.c **** *  Empty function. Included for consistency with other components.
  53:Generated_Source\PSoC4/SPIM_FLASH_PM.c **** *
  54:Generated_Source\PSoC4/SPIM_FLASH_PM.c **** * Parameters:
  55:Generated_Source\PSoC4/SPIM_FLASH_PM.c **** *  None.
  56:Generated_Source\PSoC4/SPIM_FLASH_PM.c **** *
  57:Generated_Source\PSoC4/SPIM_FLASH_PM.c **** * Return:
  58:Generated_Source\PSoC4/SPIM_FLASH_PM.c **** *  None.
  59:Generated_Source\PSoC4/SPIM_FLASH_PM.c **** *
  60:Generated_Source\PSoC4/SPIM_FLASH_PM.c **** *******************************************************************************/
  61:Generated_Source\PSoC4/SPIM_FLASH_PM.c **** void SPIM_FLASH_RestoreConfig(void) 
  62:Generated_Source\PSoC4/SPIM_FLASH_PM.c **** {
  47              		.loc 1 62 0
  48              		.cfi_startproc
  49              		@ args = 0, pretend = 0, frame = 0
  50              		@ frame_needed = 0, uses_anonymous_args = 0
  51              		@ link register save eliminated.
  63:Generated_Source\PSoC4/SPIM_FLASH_PM.c **** 
ARM GAS  C:\Users\luvsd\AppData\Local\Temp\ccqGuhfM.s 			page 3


  64:Generated_Source\PSoC4/SPIM_FLASH_PM.c **** }
  52              		.loc 1 64 0
  53              		@ sp needed
  54 0000 7047     		bx	lr
  55              		.cfi_endproc
  56              	.LFE2:
  57              		.size	SPIM_FLASH_RestoreConfig, .-SPIM_FLASH_RestoreConfig
  58 0002 C046     		.section	.text.SPIM_FLASH_Sleep,"ax",%progbits
  59              		.align	2
  60              		.global	SPIM_FLASH_Sleep
  61              		.code	16
  62              		.thumb_func
  63              		.type	SPIM_FLASH_Sleep, %function
  64              	SPIM_FLASH_Sleep:
  65              	.LFB3:
  65:Generated_Source\PSoC4/SPIM_FLASH_PM.c **** 
  66:Generated_Source\PSoC4/SPIM_FLASH_PM.c **** 
  67:Generated_Source\PSoC4/SPIM_FLASH_PM.c **** /*******************************************************************************
  68:Generated_Source\PSoC4/SPIM_FLASH_PM.c **** * Function Name: SPIM_FLASH_Sleep
  69:Generated_Source\PSoC4/SPIM_FLASH_PM.c **** ********************************************************************************
  70:Generated_Source\PSoC4/SPIM_FLASH_PM.c **** *
  71:Generated_Source\PSoC4/SPIM_FLASH_PM.c **** * Summary:
  72:Generated_Source\PSoC4/SPIM_FLASH_PM.c **** *  Prepare SPIM Component goes to sleep.
  73:Generated_Source\PSoC4/SPIM_FLASH_PM.c **** *
  74:Generated_Source\PSoC4/SPIM_FLASH_PM.c **** * Parameters:
  75:Generated_Source\PSoC4/SPIM_FLASH_PM.c **** *  None.
  76:Generated_Source\PSoC4/SPIM_FLASH_PM.c **** *
  77:Generated_Source\PSoC4/SPIM_FLASH_PM.c **** * Return:
  78:Generated_Source\PSoC4/SPIM_FLASH_PM.c **** *  None.
  79:Generated_Source\PSoC4/SPIM_FLASH_PM.c **** *
  80:Generated_Source\PSoC4/SPIM_FLASH_PM.c **** * Global Variables:
  81:Generated_Source\PSoC4/SPIM_FLASH_PM.c **** *  SPIM_FLASH_backup - modified when non-retention registers are saved.
  82:Generated_Source\PSoC4/SPIM_FLASH_PM.c **** *
  83:Generated_Source\PSoC4/SPIM_FLASH_PM.c **** * Reentrant:
  84:Generated_Source\PSoC4/SPIM_FLASH_PM.c **** *  No.
  85:Generated_Source\PSoC4/SPIM_FLASH_PM.c **** *
  86:Generated_Source\PSoC4/SPIM_FLASH_PM.c **** *******************************************************************************/
  87:Generated_Source\PSoC4/SPIM_FLASH_PM.c **** void SPIM_FLASH_Sleep(void) 
  88:Generated_Source\PSoC4/SPIM_FLASH_PM.c **** {
  66              		.loc 1 88 0
  67              		.cfi_startproc
  68              		@ args = 0, pretend = 0, frame = 0
  69              		@ frame_needed = 0, uses_anonymous_args = 0
  70 0000 10B5     		push	{r4, lr}
  71              		.cfi_def_cfa_offset 8
  72              		.cfi_offset 4, -8
  73              		.cfi_offset 14, -4
  89:Generated_Source\PSoC4/SPIM_FLASH_PM.c ****     /* Save components enable state */
  90:Generated_Source\PSoC4/SPIM_FLASH_PM.c ****     SPIM_FLASH_backup.enableState = ((uint8) SPIM_FLASH_IS_ENABLED);
  74              		.loc 1 90 0
  75 0002 054B     		ldr	r3, .L4
  76 0004 1B78     		ldrb	r3, [r3]
  77 0006 1B09     		lsrs	r3, r3, #4
  78 0008 0122     		movs	r2, #1
  79 000a 1340     		ands	r3, r2
  80 000c 034A     		ldr	r2, .L4+4
  81 000e 1370     		strb	r3, [r2]
ARM GAS  C:\Users\luvsd\AppData\Local\Temp\ccqGuhfM.s 			page 4


  91:Generated_Source\PSoC4/SPIM_FLASH_PM.c **** 
  92:Generated_Source\PSoC4/SPIM_FLASH_PM.c ****     SPIM_FLASH_Stop();
  82              		.loc 1 92 0
  83 0010 FFF7FEFF 		bl	SPIM_FLASH_Stop
  84              	.LVL0:
  93:Generated_Source\PSoC4/SPIM_FLASH_PM.c **** }
  85              		.loc 1 93 0
  86              		@ sp needed
  87 0014 10BD     		pop	{r4, pc}
  88              	.L5:
  89 0016 C046     		.align	2
  90              	.L4:
  91 0018 90000F40 		.word	1074725008
  92 001c 00000000 		.word	.LANCHOR0
  93              		.cfi_endproc
  94              	.LFE3:
  95              		.size	SPIM_FLASH_Sleep, .-SPIM_FLASH_Sleep
  96              		.section	.text.SPIM_FLASH_Wakeup,"ax",%progbits
  97              		.align	2
  98              		.global	SPIM_FLASH_Wakeup
  99              		.code	16
 100              		.thumb_func
 101              		.type	SPIM_FLASH_Wakeup, %function
 102              	SPIM_FLASH_Wakeup:
 103              	.LFB4:
  94:Generated_Source\PSoC4/SPIM_FLASH_PM.c **** 
  95:Generated_Source\PSoC4/SPIM_FLASH_PM.c **** 
  96:Generated_Source\PSoC4/SPIM_FLASH_PM.c **** /*******************************************************************************
  97:Generated_Source\PSoC4/SPIM_FLASH_PM.c **** * Function Name: SPIM_FLASH_Wakeup
  98:Generated_Source\PSoC4/SPIM_FLASH_PM.c **** ********************************************************************************
  99:Generated_Source\PSoC4/SPIM_FLASH_PM.c **** *
 100:Generated_Source\PSoC4/SPIM_FLASH_PM.c **** * Summary:
 101:Generated_Source\PSoC4/SPIM_FLASH_PM.c **** *  Prepare SPIM Component to wake up.
 102:Generated_Source\PSoC4/SPIM_FLASH_PM.c **** *
 103:Generated_Source\PSoC4/SPIM_FLASH_PM.c **** * Parameters:
 104:Generated_Source\PSoC4/SPIM_FLASH_PM.c **** *  None.
 105:Generated_Source\PSoC4/SPIM_FLASH_PM.c **** *
 106:Generated_Source\PSoC4/SPIM_FLASH_PM.c **** * Return:
 107:Generated_Source\PSoC4/SPIM_FLASH_PM.c **** *  None.
 108:Generated_Source\PSoC4/SPIM_FLASH_PM.c **** *
 109:Generated_Source\PSoC4/SPIM_FLASH_PM.c **** * Global Variables:
 110:Generated_Source\PSoC4/SPIM_FLASH_PM.c **** *  SPIM_FLASH_backup - used when non-retention registers are restored.
 111:Generated_Source\PSoC4/SPIM_FLASH_PM.c **** *  SPIM_FLASH_txBufferWrite - modified every function call - resets to
 112:Generated_Source\PSoC4/SPIM_FLASH_PM.c **** *  zero.
 113:Generated_Source\PSoC4/SPIM_FLASH_PM.c **** *  SPIM_FLASH_txBufferRead - modified every function call - resets to
 114:Generated_Source\PSoC4/SPIM_FLASH_PM.c **** *  zero.
 115:Generated_Source\PSoC4/SPIM_FLASH_PM.c **** *  SPIM_FLASH_rxBufferWrite - modified every function call - resets to
 116:Generated_Source\PSoC4/SPIM_FLASH_PM.c **** *  zero.
 117:Generated_Source\PSoC4/SPIM_FLASH_PM.c **** *  SPIM_FLASH_rxBufferRead - modified every function call - resets to
 118:Generated_Source\PSoC4/SPIM_FLASH_PM.c **** *  zero.
 119:Generated_Source\PSoC4/SPIM_FLASH_PM.c **** *
 120:Generated_Source\PSoC4/SPIM_FLASH_PM.c **** * Reentrant:
 121:Generated_Source\PSoC4/SPIM_FLASH_PM.c **** *  No.
 122:Generated_Source\PSoC4/SPIM_FLASH_PM.c **** *
 123:Generated_Source\PSoC4/SPIM_FLASH_PM.c **** *******************************************************************************/
 124:Generated_Source\PSoC4/SPIM_FLASH_PM.c **** void SPIM_FLASH_Wakeup(void) 
 125:Generated_Source\PSoC4/SPIM_FLASH_PM.c **** {
ARM GAS  C:\Users\luvsd\AppData\Local\Temp\ccqGuhfM.s 			page 5


 104              		.loc 1 125 0
 105              		.cfi_startproc
 106              		@ args = 0, pretend = 0, frame = 0
 107              		@ frame_needed = 0, uses_anonymous_args = 0
 108 0000 10B5     		push	{r4, lr}
 109              		.cfi_def_cfa_offset 8
 110              		.cfi_offset 4, -8
 111              		.cfi_offset 14, -4
 126:Generated_Source\PSoC4/SPIM_FLASH_PM.c ****     #if(SPIM_FLASH_RX_SOFTWARE_BUF_ENABLED)
 127:Generated_Source\PSoC4/SPIM_FLASH_PM.c ****         SPIM_FLASH_rxBufferFull  = 0u;
 128:Generated_Source\PSoC4/SPIM_FLASH_PM.c ****         SPIM_FLASH_rxBufferRead  = 0u;
 129:Generated_Source\PSoC4/SPIM_FLASH_PM.c ****         SPIM_FLASH_rxBufferWrite = 0u;
 130:Generated_Source\PSoC4/SPIM_FLASH_PM.c ****     #endif /* (SPIM_FLASH_RX_SOFTWARE_BUF_ENABLED) */
 131:Generated_Source\PSoC4/SPIM_FLASH_PM.c **** 
 132:Generated_Source\PSoC4/SPIM_FLASH_PM.c ****     #if(SPIM_FLASH_TX_SOFTWARE_BUF_ENABLED)
 133:Generated_Source\PSoC4/SPIM_FLASH_PM.c ****         SPIM_FLASH_txBufferFull  = 0u;
 134:Generated_Source\PSoC4/SPIM_FLASH_PM.c ****         SPIM_FLASH_txBufferRead  = 0u;
 135:Generated_Source\PSoC4/SPIM_FLASH_PM.c ****         SPIM_FLASH_txBufferWrite = 0u;
 136:Generated_Source\PSoC4/SPIM_FLASH_PM.c ****     #endif /* (SPIM_FLASH_TX_SOFTWARE_BUF_ENABLED) */
 137:Generated_Source\PSoC4/SPIM_FLASH_PM.c **** 
 138:Generated_Source\PSoC4/SPIM_FLASH_PM.c ****     /* Clear any data from the RX and TX FIFO */
 139:Generated_Source\PSoC4/SPIM_FLASH_PM.c ****     SPIM_FLASH_ClearFIFO();
 112              		.loc 1 139 0
 113 0002 FFF7FEFF 		bl	SPIM_FLASH_ClearFIFO
 114              	.LVL1:
 140:Generated_Source\PSoC4/SPIM_FLASH_PM.c **** 
 141:Generated_Source\PSoC4/SPIM_FLASH_PM.c ****     /* Restore components block enable state */
 142:Generated_Source\PSoC4/SPIM_FLASH_PM.c ****     if(0u != SPIM_FLASH_backup.enableState)
 115              		.loc 1 142 0
 116 0006 034B     		ldr	r3, .L8
 117 0008 1B78     		ldrb	r3, [r3]
 118 000a 002B     		cmp	r3, #0
 119 000c 01D0     		beq	.L6
 143:Generated_Source\PSoC4/SPIM_FLASH_PM.c ****     {
 144:Generated_Source\PSoC4/SPIM_FLASH_PM.c ****         SPIM_FLASH_Enable();
 120              		.loc 1 144 0
 121 000e FFF7FEFF 		bl	SPIM_FLASH_Enable
 122              	.LVL2:
 123              	.L6:
 145:Generated_Source\PSoC4/SPIM_FLASH_PM.c ****     }
 146:Generated_Source\PSoC4/SPIM_FLASH_PM.c **** }
 124              		.loc 1 146 0
 125              		@ sp needed
 126 0012 10BD     		pop	{r4, pc}
 127              	.L9:
 128              		.align	2
 129              	.L8:
 130 0014 00000000 		.word	.LANCHOR0
 131              		.cfi_endproc
 132              	.LFE4:
 133              		.size	SPIM_FLASH_Wakeup, .-SPIM_FLASH_Wakeup
 134              		.data
 135              		.align	2
 136              		.set	.LANCHOR0,. + 0
 137              		.type	SPIM_FLASH_backup, %object
 138              		.size	SPIM_FLASH_backup, 2
 139              	SPIM_FLASH_backup:
ARM GAS  C:\Users\luvsd\AppData\Local\Temp\ccqGuhfM.s 			page 6


 140 0000 00       		.byte	0
 141 0001 0F       		.byte	15
 142              		.text
 143              	.Letext0:
 144              		.file 2 "Generated_Source\\PSoC4\\cytypes.h"
 145              		.file 3 "Generated_Source\\PSoC4\\SPIM_FLASH.h"