ARM GAS  C:\Users\luvsd\AppData\Local\Temp\cc5UPwTP.s 			page 1


   1              		.syntax unified
   2              		.cpu cortex-m0
   3              		.fpu softvfp
   4              		.eabi_attribute 20, 1
   5              		.eabi_attribute 21, 1
   6              		.eabi_attribute 23, 3
   7              		.eabi_attribute 24, 1
   8              		.eabi_attribute 25, 1
   9              		.eabi_attribute 26, 1
  10              		.eabi_attribute 30, 1
  11              		.eabi_attribute 34, 0
  12              		.eabi_attribute 18, 4
  13              		.thumb
  14              		.syntax unified
  15              		.file	"userProjectCounter.c"
  16              		.text
  17              	.Ltext0:
  18              		.cfi_sections	.debug_frame
  19              		.section	.text.initUserProject,"ax",%progbits
  20              		.align	2
  21              		.global	initUserProject
  22              		.code	16
  23              		.thumb_func
  24              		.type	initUserProject, %function
  25              	initUserProject:
  26              	.LFB61:
  27              		.file 1 "userProjectCounter.c"
   1:userProjectCounter.c **** /* ========================================
   2:userProjectCounter.c ****  *
   3:userProjectCounter.c ****  * Copyright Suntech, 2023.03.30
   4:userProjectCounter.c ****  * All Rights Reserved
   5:userProjectCounter.c ****  * UNPUBLISHED, LICENSED SOFTWARE.
   6:userProjectCounter.c ****  *
   7:userProjectCounter.c ****  * CONFIDENTIAL AND PROPRIETARY INFORMATION
   8:userProjectCounter.c ****  * WHICH IS THE PROPERTY OF Suntech.
   9:userProjectCounter.c ****  *
  10:userProjectCounter.c ****  * ========================================
  11:userProjectCounter.c **** */
  12:userProjectCounter.c **** #include "userProjectCounter.h"
  13:userProjectCounter.c **** #include "lib/externalFlash.h"
  14:userProjectCounter.c ****  
  15:userProjectCounter.c **** #ifdef USER_PROJECT_TRIM_COUNT
  16:userProjectCounter.c ****  
  17:userProjectCounter.c **** MACHINE_PARAMETER *g_ptrMachineParameter = NULL;
  18:userProjectCounter.c **** MACHINE_PARAMETER g_DefaultMachineParameter = {
  19:userProjectCounter.c ****     .setTrimCount = MAX_SET_TRIM_COUNT,
  20:userProjectCounter.c ****   //  .curTrimCount = 0,
  21:userProjectCounter.c **** };
  22:userProjectCounter.c ****     
  23:userProjectCounter.c **** void initUserProject()
  24:userProjectCounter.c **** {
  28              		.loc 1 24 0
  29              		.cfi_startproc
  30              		@ args = 0, pretend = 0, frame = 0
  31              		@ frame_needed = 0, uses_anonymous_args = 0
  32 0000 10B5     		push	{r4, lr}
  33              		.cfi_def_cfa_offset 8
ARM GAS  C:\Users\luvsd\AppData\Local\Temp\cc5UPwTP.s 			page 2


  34              		.cfi_offset 4, -8
  35              		.cfi_offset 14, -4
  25:userProjectCounter.c ****     g_ptrMachineParameter = (MACHINE_PARAMETER *) getExternalConfigUserData();
  36              		.loc 1 25 0
  37 0002 FFF7FEFF 		bl	getExternalConfigUserData
  38              	.LVL0:
  39 0006 014B     		ldr	r3, .L2
  40 0008 1860     		str	r0, [r3]
  26:userProjectCounter.c **** }
  41              		.loc 1 26 0
  42              		@ sp needed
  43 000a 10BD     		pop	{r4, pc}
  44              	.L3:
  45              		.align	2
  46              	.L2:
  47 000c 00000000 		.word	.LANCHOR0
  48              		.cfi_endproc
  49              	.LFE61:
  50              		.size	initUserProject, .-initUserProject
  51              		.section	.text.SetUserProjectDefaultExternalFlashConfig,"ax",%progbits
  52              		.align	2
  53              		.global	SetUserProjectDefaultExternalFlashConfig
  54              		.code	16
  55              		.thumb_func
  56              		.type	SetUserProjectDefaultExternalFlashConfig, %function
  57              	SetUserProjectDefaultExternalFlashConfig:
  58              	.LFB62:
  27:userProjectCounter.c **** 
  28:userProjectCounter.c **** void SetUserProjectDefaultExternalFlashConfig() // refer to externalFlash.h
  29:userProjectCounter.c **** {
  59              		.loc 1 29 0
  60              		.cfi_startproc
  61              		@ args = 0, pretend = 0, frame = 0
  62              		@ frame_needed = 0, uses_anonymous_args = 0
  63 0000 10B5     		push	{r4, lr}
  64              		.cfi_def_cfa_offset 8
  65              		.cfi_offset 4, -8
  66              		.cfi_offset 14, -4
  30:userProjectCounter.c ****     memcpy(g_ptrMachineParameter,&g_DefaultMachineParameter,sizeof(MACHINE_PARAMETER));
  67              		.loc 1 30 0
  68 0002 034B     		ldr	r3, .L5
  69 0004 1868     		ldr	r0, [r3]
  70 0006 0222     		movs	r2, #2
  71 0008 0249     		ldr	r1, .L5+4
  72 000a FFF7FEFF 		bl	memcpy
  73              	.LVL1:
  31:userProjectCounter.c ****    // g_ptrMachineParameter->machineType = PATTERN_MACHINE;
  32:userProjectCounter.c **** }
  74              		.loc 1 32 0
  75              		@ sp needed
  76 000e 10BD     		pop	{r4, pc}
  77              	.L6:
  78              		.align	2
  79              	.L5:
  80 0010 00000000 		.word	.LANCHOR0
  81 0014 00000000 		.word	.LANCHOR1
  82              		.cfi_endproc
ARM GAS  C:\Users\luvsd\AppData\Local\Temp\cc5UPwTP.s 			page 3


  83              	.LFE62:
  84              		.size	SetUserProjectDefaultExternalFlashConfig, .-SetUserProjectDefaultExternalFlashConfig
  85              		.section	.text.userProjectDataValidation,"ax",%progbits
  86              		.align	2
  87              		.global	userProjectDataValidation
  88              		.code	16
  89              		.thumb_func
  90              		.type	userProjectDataValidation, %function
  91              	userProjectDataValidation:
  92              	.LFB63:
  33:userProjectCounter.c **** 
  34:userProjectCounter.c **** uint8 userProjectDataValidation()
  35:userProjectCounter.c **** {
  93              		.loc 1 35 0
  94              		.cfi_startproc
  95              		@ args = 0, pretend = 0, frame = 0
  96              		@ frame_needed = 0, uses_anonymous_args = 0
  97              		@ link register save eliminated.
  36:userProjectCounter.c ****     if(g_ptrMachineParameter->setTrimCount < 0 || g_ptrMachineParameter->setTrimCount > MAX_SET_TRI
  98              		.loc 1 36 0
  99 0000 044B     		ldr	r3, .L10
 100 0002 1B68     		ldr	r3, [r3]
 101 0004 1B88     		ldrh	r3, [r3]
 102 0006 632B     		cmp	r3, #99
 103 0008 01D9     		bls	.L9
 104 000a 0020     		movs	r0, #0
 105 000c 00E0     		b	.L8
 106              	.L9:
  37:userProjectCounter.c ****     
  38:userProjectCounter.c ****   //      printf("g_ptrMachineParameter. %d\r\n",g_ptrMachineParameter->curTrimCount);
  39:userProjectCounter.c ****  //   if(g_ptrMachineParameter->curTrimCount < 0 || g_ptrMachineParameter->curTrimCount > MAX_SET_T
  40:userProjectCounter.c ****     
  41:userProjectCounter.c ****     return TRUE;
 107              		.loc 1 41 0
 108 000e 0120     		movs	r0, #1
 109              	.L8:
  42:userProjectCounter.c **** }
 110              		.loc 1 42 0
 111              		@ sp needed
 112 0010 7047     		bx	lr
 113              	.L11:
 114 0012 C046     		.align	2
 115              	.L10:
 116 0014 00000000 		.word	.LANCHOR0
 117              		.cfi_endproc
 118              	.LFE63:
 119              		.size	userProjectDataValidation, .-userProjectDataValidation
 120              		.global	g_DefaultMachineParameter
 121              		.global	g_ptrMachineParameter
 122              		.comm	Param,6,4
 123              		.data
 124              		.align	2
 125              		.set	.LANCHOR1,. + 0
 126              		.type	g_DefaultMachineParameter, %object
 127              		.size	g_DefaultMachineParameter, 2
 128              	g_DefaultMachineParameter:
 129 0000 6300     		.short	99
ARM GAS  C:\Users\luvsd\AppData\Local\Temp\cc5UPwTP.s 			page 4


 130              		.bss
 131              		.align	2
 132              		.set	.LANCHOR0,. + 0
 133              		.type	g_ptrMachineParameter, %object
 134              		.size	g_ptrMachineParameter, 4
 135              	g_ptrMachineParameter:
 136 0000 00000000 		.space	4
 137              		.text
 138              	.Letext0:
 139              		.file 2 "Generated_Source\\PSoC4/cytypes.h"
 140              		.file 3 "main.h"
 141              		.file 4 "userProjectCounter.h"
 142              		.file 5 "lib/externalFlash.h"