ARM GAS  C:\Users\luvsd\AppData\Local\Temp\cc7qBZw4.s 			page 1


   1              		.syntax unified
   2              		.cpu cortex-m0
   3              		.fpu softvfp
   4              		.eabi_attribute 20, 1
   5              		.eabi_attribute 21, 1
   6              		.eabi_attribute 23, 3
   7              		.eabi_attribute 24, 1
   8              		.eabi_attribute 25, 1
   9              		.eabi_attribute 26, 1
  10              		.eabi_attribute 30, 1
  11              		.eabi_attribute 34, 0
  12              		.eabi_attribute 18, 4
  13              		.thumb
  14              		.syntax unified
  15              		.file	"w25qxx.c"
  16              		.text
  17              	.Ltext0:
  18              		.cfi_sections	.debug_frame
  19              		.section	.text.W25qxx_ReadID,"ax",%progbits
  20              		.align	2
  21              		.global	W25qxx_ReadID
  22              		.code	16
  23              		.thumb_func
  24              		.type	W25qxx_ReadID, %function
  25              	W25qxx_ReadID:
  26              	.LFB60:
  27              		.file 1 "lib\\w25qxx.c"
   1:lib/w25qxx.c  **** 
   2:lib/w25qxx.c  **** #include "w25qxx.h"
   3:lib/w25qxx.c  **** 
   4:lib/w25qxx.c  **** #define DELAY_W25QXX        (10)
   5:lib/w25qxx.c  **** #define W25QXX_DUMMY_BYTE         0xA5
   6:lib/w25qxx.c  **** 
   7:lib/w25qxx.c  **** w25qxx_t	w25qxx;
   8:lib/w25qxx.c  **** 
   9:lib/w25qxx.c  **** //#################################################################################################
  10:lib/w25qxx.c  **** uint32_t W25qxx_ReadID(void)
  11:lib/w25qxx.c  **** {
  28              		.loc 1 11 0
  29              		.cfi_startproc
  30              		@ args = 0, pretend = 0, frame = 8
  31              		@ frame_needed = 0, uses_anonymous_args = 0
  32 0000 30B5     		push	{r4, r5, lr}
  33              		.cfi_def_cfa_offset 12
  34              		.cfi_offset 4, -12
  35              		.cfi_offset 5, -8
  36              		.cfi_offset 14, -4
  37 0002 83B0     		sub	sp, sp, #12
  38              		.cfi_def_cfa_offset 24
  39              	.LVL0:
  12:lib/w25qxx.c  ****     uint8 readDataNO = 0;
  13:lib/w25qxx.c  ****     uint8 len;
  14:lib/w25qxx.c  ****     uint32_t Temp;
  15:lib/w25qxx.c  ****     uint8_t data[4] = {0x9F,0xA5,0xA5,0xA5};
  40              		.loc 1 15 0
  41 0004 0422     		movs	r2, #4
  42 0006 1649     		ldr	r1, .L5
ARM GAS  C:\Users\luvsd\AppData\Local\Temp\cc7qBZw4.s 			page 2


  43 0008 01A8     		add	r0, sp, #4
  44 000a FFF7FEFF 		bl	memcpy
  45              	.LVL1:
  16:lib/w25qxx.c  ****     
  17:lib/w25qxx.c  ****     Ctrl_MEM_SS_Write(0);
  46              		.loc 1 17 0
  47 000e 0020     		movs	r0, #0
  48 0010 FFF7FEFF 		bl	Ctrl_MEM_SS_Write
  49              	.LVL2:
  18:lib/w25qxx.c  ****     SPIM_FLASH_PutArray(data, 4);
  50              		.loc 1 18 0
  51 0014 0421     		movs	r1, #4
  52 0016 01A8     		add	r0, sp, #4
  53 0018 FFF7FEFF 		bl	SPIM_FLASH_PutArray
  54              	.LVL3:
  55              	.L2:
  19:lib/w25qxx.c  ****     
  20:lib/w25qxx.c  ****     while(!(SPIM_FLASH_ReadTxStatus() & SPIM_FLASH_STS_SPI_DONE));
  56              		.loc 1 20 0 discriminator 1
  57 001c FFF7FEFF 		bl	SPIM_FLASH_ReadTxStatus
  58              	.LVL4:
  59 0020 C307     		lsls	r3, r0, #31
  60 0022 FBD5     		bpl	.L2
  21:lib/w25qxx.c  ****     CyDelayUs(DELAY_W25QXX);
  61              		.loc 1 21 0
  62 0024 0A20     		movs	r0, #10
  63 0026 FFF7FEFF 		bl	CyDelayUs
  64              	.LVL5:
  22:lib/w25qxx.c  ****     Ctrl_MEM_SS_Write(1);
  65              		.loc 1 22 0
  66 002a 0120     		movs	r0, #1
  67 002c FFF7FEFF 		bl	Ctrl_MEM_SS_Write
  68              	.LVL6:
  12:lib/w25qxx.c  ****     uint8 len;
  69              		.loc 1 12 0
  70 0030 0025     		movs	r5, #0
  23:lib/w25qxx.c  ****     
  24:lib/w25qxx.c  ****     while(SPIM_FLASH_GetRxBufferSize() > 0)
  71              		.loc 1 24 0
  72 0032 06E0     		b	.L3
  73              	.LVL7:
  74              	.L4:
  25:lib/w25qxx.c  ****     {
  26:lib/w25qxx.c  ****         data[readDataNO++] = SPIM_FLASH_ReadByte();
  75              		.loc 1 26 0
  76 0034 6C1C     		adds	r4, r5, #1
  77 0036 E4B2     		uxtb	r4, r4
  78              	.LVL8:
  79 0038 FFF7FEFF 		bl	SPIM_FLASH_ReadRxData
  80              	.LVL9:
  81 003c 01AB     		add	r3, sp, #4
  82 003e 5855     		strb	r0, [r3, r5]
  83 0040 2500     		movs	r5, r4
  84              	.LVL10:
  85              	.L3:
  24:lib/w25qxx.c  ****     {
  86              		.loc 1 24 0
ARM GAS  C:\Users\luvsd\AppData\Local\Temp\cc7qBZw4.s 			page 3


  87 0042 FFF7FEFF 		bl	SPIM_FLASH_GetRxBufferSize
  88              	.LVL11:
  89 0046 0028     		cmp	r0, #0
  90 0048 F4D1     		bne	.L4
  27:lib/w25qxx.c  ****     }
  28:lib/w25qxx.c  ****     
  29:lib/w25qxx.c  ****     Temp = (data[1] << 16) | (data[2] << 8) | data[3];
  91              		.loc 1 29 0
  92 004a 01AA     		add	r2, sp, #4
  93 004c 5078     		ldrb	r0, [r2, #1]
  94 004e 0004     		lsls	r0, r0, #16
  95 0050 9378     		ldrb	r3, [r2, #2]
  96 0052 1B02     		lsls	r3, r3, #8
  97 0054 1843     		orrs	r0, r3
  98 0056 D378     		ldrb	r3, [r2, #3]
  99 0058 1843     		orrs	r0, r3
 100              	.LVL12:
  30:lib/w25qxx.c  ****     return Temp;
  31:lib/w25qxx.c  **** }
 101              		.loc 1 31 0
 102 005a 03B0     		add	sp, sp, #12
 103              		@ sp needed
 104              	.LVL13:
 105 005c 30BD     		pop	{r4, r5, pc}
 106              	.L6:
 107 005e C046     		.align	2
 108              	.L5:
 109 0060 40000000 		.word	.LANCHOR0
 110              		.cfi_endproc
 111              	.LFE60:
 112              		.size	W25qxx_ReadID, .-W25qxx_ReadID
 113              		.section	.text.W25qxx_ReadUniqID,"ax",%progbits
 114              		.align	2
 115              		.global	W25qxx_ReadUniqID
 116              		.code	16
 117              		.thumb_func
 118              		.type	W25qxx_ReadUniqID, %function
 119              	W25qxx_ReadUniqID:
 120              	.LFB61:
  32:lib/w25qxx.c  **** //#################################################################################################
  33:lib/w25qxx.c  **** void W25qxx_ReadUniqID(void)
  34:lib/w25qxx.c  **** {
 121              		.loc 1 34 0
 122              		.cfi_startproc
 123              		@ args = 0, pretend = 0, frame = 8
 124              		@ frame_needed = 0, uses_anonymous_args = 0
 125 0000 30B5     		push	{r4, r5, lr}
 126              		.cfi_def_cfa_offset 12
 127              		.cfi_offset 4, -12
 128              		.cfi_offset 5, -8
 129              		.cfi_offset 14, -4
 130 0002 83B0     		sub	sp, sp, #12
 131              		.cfi_def_cfa_offset 24
 132              	.LVL14:
  35:lib/w25qxx.c  ****     uint8 i = 0;
  36:lib/w25qxx.c  ****     uint8_t data[8] = {0x4B,0xA5,0xA5,0xA5,0xA5,};
 133              		.loc 1 36 0
ARM GAS  C:\Users\luvsd\AppData\Local\Temp\cc7qBZw4.s 			page 4


 134 0004 0822     		movs	r2, #8
 135 0006 0021     		movs	r1, #0
 136 0008 6846     		mov	r0, sp
 137 000a FFF7FEFF 		bl	memset
 138              	.LVL15:
 139 000e 4B23     		movs	r3, #75
 140 0010 6A46     		mov	r2, sp
 141 0012 1370     		strb	r3, [r2]
 142 0014 5A33     		adds	r3, r3, #90
 143 0016 5370     		strb	r3, [r2, #1]
 144 0018 9370     		strb	r3, [r2, #2]
 145 001a D370     		strb	r3, [r2, #3]
 146 001c 1371     		strb	r3, [r2, #4]
  37:lib/w25qxx.c  ****     
  38:lib/w25qxx.c  ****     // Command    
  39:lib/w25qxx.c  ****     Ctrl_MEM_SS_Write(0);
 147              		.loc 1 39 0
 148 001e 0020     		movs	r0, #0
 149 0020 FFF7FEFF 		bl	Ctrl_MEM_SS_Write
 150              	.LVL16:
  40:lib/w25qxx.c  ****     SPIM_FLASH_PutArray(data, 5);
 151              		.loc 1 40 0
 152 0024 0521     		movs	r1, #5
 153 0026 6846     		mov	r0, sp
 154 0028 FFF7FEFF 		bl	SPIM_FLASH_PutArray
 155              	.LVL17:
 156              	.L8:
  41:lib/w25qxx.c  ****     while(!(SPIM_FLASH_ReadTxStatus() & SPIM_FLASH_STS_SPI_DONE));  
 157              		.loc 1 41 0 discriminator 1
 158 002c FFF7FEFF 		bl	SPIM_FLASH_ReadTxStatus
 159              	.LVL18:
 160 0030 C307     		lsls	r3, r0, #31
 161 0032 FBD5     		bpl	.L8
  42:lib/w25qxx.c  ****     SPIM_FLASH_ClearRxBuffer();
 162              		.loc 1 42 0
 163 0034 FFF7FEFF 		bl	SPIM_FLASH_ClearRxBuffer
 164              	.LVL19:
  43:lib/w25qxx.c  ****     SPIM_FLASH_PutArray(data, 8);
 165              		.loc 1 43 0
 166 0038 0821     		movs	r1, #8
 167 003a 6846     		mov	r0, sp
 168 003c FFF7FEFF 		bl	SPIM_FLASH_PutArray
 169              	.LVL20:
 170              	.L9:
  44:lib/w25qxx.c  ****     while(!(SPIM_FLASH_ReadTxStatus() & SPIM_FLASH_STS_SPI_DONE));
 171              		.loc 1 44 0 discriminator 1
 172 0040 FFF7FEFF 		bl	SPIM_FLASH_ReadTxStatus
 173              	.LVL21:
 174 0044 C307     		lsls	r3, r0, #31
 175 0046 FBD5     		bpl	.L9
  45:lib/w25qxx.c  ****     CyDelayUs(DELAY_W25QXX);
 176              		.loc 1 45 0
 177 0048 0A20     		movs	r0, #10
 178 004a FFF7FEFF 		bl	CyDelayUs
 179              	.LVL22:
  46:lib/w25qxx.c  ****     Ctrl_MEM_SS_Write(1);
 180              		.loc 1 46 0
ARM GAS  C:\Users\luvsd\AppData\Local\Temp\cc7qBZw4.s 			page 5


 181 004e 0120     		movs	r0, #1
 182 0050 FFF7FEFF 		bl	Ctrl_MEM_SS_Write
 183              	.LVL23:
  35:lib/w25qxx.c  ****     uint8_t data[8] = {0x4B,0xA5,0xA5,0xA5,0xA5,};
 184              		.loc 1 35 0
 185 0054 0024     		movs	r4, #0
  47:lib/w25qxx.c  **** 	while(SPIM_FLASH_GetRxBufferSize() > 0)
 186              		.loc 1 47 0
 187 0056 07E0     		b	.L10
 188              	.LVL24:
 189              	.L11:
  48:lib/w25qxx.c  ****     {
  49:lib/w25qxx.c  ****         w25qxx.UniqID[i++] = SPIM_FLASH_ReadByte();
 190              		.loc 1 49 0
 191 0058 651C     		adds	r5, r4, #1
 192 005a EDB2     		uxtb	r5, r5
 193              	.LVL25:
 194 005c FFF7FEFF 		bl	SPIM_FLASH_ReadRxData
 195              	.LVL26:
 196 0060 044B     		ldr	r3, .L12
 197 0062 1C19     		adds	r4, r3, r4
 198 0064 6070     		strb	r0, [r4, #1]
 199 0066 2C00     		movs	r4, r5
 200              	.LVL27:
 201              	.L10:
  47:lib/w25qxx.c  **** 	while(SPIM_FLASH_GetRxBufferSize() > 0)
 202              		.loc 1 47 0
 203 0068 FFF7FEFF 		bl	SPIM_FLASH_GetRxBufferSize
 204              	.LVL28:
 205 006c 0028     		cmp	r0, #0
 206 006e F3D1     		bne	.L11
  50:lib/w25qxx.c  ****     }
  51:lib/w25qxx.c  **** }
 207              		.loc 1 51 0
 208 0070 03B0     		add	sp, sp, #12
 209              		@ sp needed
 210              	.LVL29:
 211 0072 30BD     		pop	{r4, r5, pc}
 212              	.L13:
 213              		.align	2
 214              	.L12:
 215 0074 00000000 		.word	w25qxx
 216              		.cfi_endproc
 217              	.LFE61:
 218              		.size	W25qxx_ReadUniqID, .-W25qxx_ReadUniqID
 219              		.section	.text.W25qxx_WriteEnable,"ax",%progbits
 220              		.align	2
 221              		.global	W25qxx_WriteEnable
 222              		.code	16
 223              		.thumb_func
 224              		.type	W25qxx_WriteEnable, %function
 225              	W25qxx_WriteEnable:
 226              	.LFB62:
  52:lib/w25qxx.c  **** //#################################################################################################
  53:lib/w25qxx.c  **** void W25qxx_WriteEnable(void)
  54:lib/w25qxx.c  **** {
 227              		.loc 1 54 0
ARM GAS  C:\Users\luvsd\AppData\Local\Temp\cc7qBZw4.s 			page 6


 228              		.cfi_startproc
 229              		@ args = 0, pretend = 0, frame = 0
 230              		@ frame_needed = 0, uses_anonymous_args = 0
 231 0000 10B5     		push	{r4, lr}
 232              		.cfi_def_cfa_offset 8
 233              		.cfi_offset 4, -8
 234              		.cfi_offset 14, -4
  55:lib/w25qxx.c  ****     CyDelay(1);
 235              		.loc 1 55 0
 236 0002 0120     		movs	r0, #1
 237 0004 FFF7FEFF 		bl	CyDelay
 238              	.LVL30:
  56:lib/w25qxx.c  ****     Ctrl_MEM_SS_Write(0);
 239              		.loc 1 56 0
 240 0008 0020     		movs	r0, #0
 241 000a FFF7FEFF 		bl	Ctrl_MEM_SS_Write
 242              	.LVL31:
  57:lib/w25qxx.c  ****     SPIM_FLASH_WriteByte(0x06);	
 243              		.loc 1 57 0
 244 000e 0620     		movs	r0, #6
 245 0010 FFF7FEFF 		bl	SPIM_FLASH_WriteTxData
 246              	.LVL32:
 247              	.L15:
  58:lib/w25qxx.c  ****     //SPIM_FLASH_WriteByte(W25QXX_DUMMY_BYTE); 
  59:lib/w25qxx.c  ****     while(!(SPIM_FLASH_ReadTxStatus() & SPIM_FLASH_STS_SPI_DONE));  
 248              		.loc 1 59 0 discriminator 1
 249 0014 FFF7FEFF 		bl	SPIM_FLASH_ReadTxStatus
 250              	.LVL33:
 251 0018 C307     		lsls	r3, r0, #31
 252 001a FBD5     		bpl	.L15
  60:lib/w25qxx.c  ****     CyDelayUs(DELAY_W25QXX);
 253              		.loc 1 60 0
 254 001c 0A20     		movs	r0, #10
 255 001e FFF7FEFF 		bl	CyDelayUs
 256              	.LVL34:
  61:lib/w25qxx.c  ****     Ctrl_MEM_SS_Write(1);
 257              		.loc 1 61 0
 258 0022 0120     		movs	r0, #1
 259 0024 FFF7FEFF 		bl	Ctrl_MEM_SS_Write
 260              	.LVL35:
  62:lib/w25qxx.c  ****     SPIM_FLASH_ClearRxBuffer();
 261              		.loc 1 62 0
 262 0028 FFF7FEFF 		bl	SPIM_FLASH_ClearRxBuffer
 263              	.LVL36:
  63:lib/w25qxx.c  ****     CyDelay(1);
 264              		.loc 1 63 0
 265 002c 0120     		movs	r0, #1
 266 002e FFF7FEFF 		bl	CyDelay
 267              	.LVL37:
  64:lib/w25qxx.c  **** }
 268              		.loc 1 64 0
 269              		@ sp needed
 270 0032 10BD     		pop	{r4, pc}
 271              		.cfi_endproc
 272              	.LFE62:
 273              		.size	W25qxx_WriteEnable, .-W25qxx_WriteEnable
 274              		.section	.text.W25qxx_WriteDisable,"ax",%progbits
ARM GAS  C:\Users\luvsd\AppData\Local\Temp\cc7qBZw4.s 			page 7


 275              		.align	2
 276              		.global	W25qxx_WriteDisable
 277              		.code	16
 278              		.thumb_func
 279              		.type	W25qxx_WriteDisable, %function
 280              	W25qxx_WriteDisable:
 281              	.LFB63:
  65:lib/w25qxx.c  **** //#################################################################################################
  66:lib/w25qxx.c  **** void W25qxx_WriteDisable(void)
  67:lib/w25qxx.c  **** {
 282              		.loc 1 67 0
 283              		.cfi_startproc
 284              		@ args = 0, pretend = 0, frame = 0
 285              		@ frame_needed = 0, uses_anonymous_args = 0
 286 0000 10B5     		push	{r4, lr}
 287              		.cfi_def_cfa_offset 8
 288              		.cfi_offset 4, -8
 289              		.cfi_offset 14, -4
  68:lib/w25qxx.c  ****     CyDelay(1);
 290              		.loc 1 68 0
 291 0002 0120     		movs	r0, #1
 292 0004 FFF7FEFF 		bl	CyDelay
 293              	.LVL38:
  69:lib/w25qxx.c  ****     Ctrl_MEM_SS_Write(0);
 294              		.loc 1 69 0
 295 0008 0020     		movs	r0, #0
 296 000a FFF7FEFF 		bl	Ctrl_MEM_SS_Write
 297              	.LVL39:
  70:lib/w25qxx.c  ****     SPIM_FLASH_WriteByte(0x04);
 298              		.loc 1 70 0
 299 000e 0420     		movs	r0, #4
 300 0010 FFF7FEFF 		bl	SPIM_FLASH_WriteTxData
 301              	.LVL40:
 302              	.L17:
  71:lib/w25qxx.c  ****     while(!(SPIM_FLASH_ReadTxStatus() & SPIM_FLASH_STS_SPI_DONE));  
 303              		.loc 1 71 0 discriminator 1
 304 0014 FFF7FEFF 		bl	SPIM_FLASH_ReadTxStatus
 305              	.LVL41:
 306 0018 C307     		lsls	r3, r0, #31
 307 001a FBD5     		bpl	.L17
  72:lib/w25qxx.c  ****     CyDelayUs(DELAY_W25QXX);
 308              		.loc 1 72 0
 309 001c 0A20     		movs	r0, #10
 310 001e FFF7FEFF 		bl	CyDelayUs
 311              	.LVL42:
  73:lib/w25qxx.c  ****     Ctrl_MEM_SS_Write(1);
 312              		.loc 1 73 0
 313 0022 0120     		movs	r0, #1
 314 0024 FFF7FEFF 		bl	Ctrl_MEM_SS_Write
 315              	.LVL43:
  74:lib/w25qxx.c  ****     SPIM_FLASH_ClearRxBuffer();
 316              		.loc 1 74 0
 317 0028 FFF7FEFF 		bl	SPIM_FLASH_ClearRxBuffer
 318              	.LVL44:
  75:lib/w25qxx.c  ****     CyDelay(1);
 319              		.loc 1 75 0
 320 002c 0120     		movs	r0, #1
ARM GAS  C:\Users\luvsd\AppData\Local\Temp\cc7qBZw4.s 			page 8


 321 002e FFF7FEFF 		bl	CyDelay
 322              	.LVL45:
  76:lib/w25qxx.c  **** }
 323              		.loc 1 76 0
 324              		@ sp needed
 325 0032 10BD     		pop	{r4, pc}
 326              		.cfi_endproc
 327              	.LFE63:
 328              		.size	W25qxx_WriteDisable, .-W25qxx_WriteDisable
 329              		.section	.text.W25qxx_ReadStatusRegister,"ax",%progbits
 330              		.align	2
 331              		.global	W25qxx_ReadStatusRegister
 332              		.code	16
 333              		.thumb_func
 334              		.type	W25qxx_ReadStatusRegister, %function
 335              	W25qxx_ReadStatusRegister:
 336              	.LFB64:
  77:lib/w25qxx.c  **** //#################################################################################################
  78:lib/w25qxx.c  **** uint8_t W25qxx_ReadStatusRegister(uint8_t	SelectStatusRegister_1_2_3)
  79:lib/w25qxx.c  **** {
 337              		.loc 1 79 0
 338              		.cfi_startproc
 339              		@ args = 0, pretend = 0, frame = 8
 340              		@ frame_needed = 0, uses_anonymous_args = 0
 341              	.LVL46:
 342 0000 30B5     		push	{r4, r5, lr}
 343              		.cfi_def_cfa_offset 12
 344              		.cfi_offset 4, -12
 345              		.cfi_offset 5, -8
 346              		.cfi_offset 14, -4
 347 0002 83B0     		sub	sp, sp, #12
 348              		.cfi_def_cfa_offset 24
 349 0004 0400     		movs	r4, r0
 350              	.LVL47:
  80:lib/w25qxx.c  ****     uint8 readDataNO =0; 
  81:lib/w25qxx.c  **** 	uint8_t	status[2]={0,};
 351              		.loc 1 81 0
 352 0006 0022     		movs	r2, #0
 353 0008 01AB     		add	r3, sp, #4
 354 000a 1A80     		strh	r2, [r3]
  82:lib/w25qxx.c  ****     
  83:lib/w25qxx.c  ****     Ctrl_MEM_SS_Write(0);
 355              		.loc 1 83 0
 356 000c 0020     		movs	r0, #0
 357              	.LVL48:
 358 000e FFF7FEFF 		bl	Ctrl_MEM_SS_Write
 359              	.LVL49:
  84:lib/w25qxx.c  **** 	if(SelectStatusRegister_1_2_3==1)
 360              		.loc 1 84 0
 361 0012 012C     		cmp	r4, #1
 362 0014 1FD1     		bne	.L19
  85:lib/w25qxx.c  **** 	{
  86:lib/w25qxx.c  **** 		SPIM_FLASH_WriteByte(0x05);
 363              		.loc 1 86 0
 364 0016 0520     		movs	r0, #5
 365 0018 FFF7FEFF 		bl	SPIM_FLASH_WriteTxData
 366              	.LVL50:
ARM GAS  C:\Users\luvsd\AppData\Local\Temp\cc7qBZw4.s 			page 9


  87:lib/w25qxx.c  ****         SPIM_FLASH_WriteByte(W25QXX_DUMMY_BYTE);
 367              		.loc 1 87 0
 368 001c A520     		movs	r0, #165
 369 001e FFF7FEFF 		bl	SPIM_FLASH_WriteTxData
 370              	.LVL51:
 371              	.L20:
  88:lib/w25qxx.c  ****         while(!(SPIM_FLASH_ReadTxStatus() & SPIM_FLASH_STS_SPI_DONE));
 372              		.loc 1 88 0 discriminator 1
 373 0022 FFF7FEFF 		bl	SPIM_FLASH_ReadTxStatus
 374              	.LVL52:
 375 0026 C307     		lsls	r3, r0, #31
 376 0028 FBD5     		bpl	.L20
  89:lib/w25qxx.c  ****         CyDelayUs(DELAY_W25QXX);
 377              		.loc 1 89 0
 378 002a 0A20     		movs	r0, #10
 379 002c FFF7FEFF 		bl	CyDelayUs
 380              	.LVL53:
  80:lib/w25qxx.c  **** 	uint8_t	status[2]={0,};
 381              		.loc 1 80 0
 382 0030 0025     		movs	r5, #0
  90:lib/w25qxx.c  ****         while(SPIM_FLASH_GetRxBufferSize() > 0)
 383              		.loc 1 90 0
 384 0032 06E0     		b	.L21
 385              	.LVL54:
 386              	.L22:
  91:lib/w25qxx.c  ****         {
  92:lib/w25qxx.c  ****             status[readDataNO++] = SPIM_FLASH_ReadByte();
 387              		.loc 1 92 0
 388 0034 6C1C     		adds	r4, r5, #1
 389 0036 E4B2     		uxtb	r4, r4
 390              	.LVL55:
 391 0038 FFF7FEFF 		bl	SPIM_FLASH_ReadRxData
 392              	.LVL56:
 393 003c 01AB     		add	r3, sp, #4
 394 003e 5855     		strb	r0, [r3, r5]
 395 0040 2500     		movs	r5, r4
 396              	.LVL57:
 397              	.L21:
  90:lib/w25qxx.c  ****         while(SPIM_FLASH_GetRxBufferSize() > 0)
 398              		.loc 1 90 0
 399 0042 FFF7FEFF 		bl	SPIM_FLASH_GetRxBufferSize
 400              	.LVL58:
 401 0046 0028     		cmp	r0, #0
 402 0048 F4D1     		bne	.L22
  93:lib/w25qxx.c  ****         }
  94:lib/w25qxx.c  **** 		w25qxx.StatusRegister1 = status[1];
 403              		.loc 1 94 0
 404 004a 01AB     		add	r3, sp, #4
 405 004c 5978     		ldrb	r1, [r3, #1]
 406 004e 2423     		movs	r3, #36
 407 0050 264A     		ldr	r2, .L31
 408 0052 D154     		strb	r1, [r2, r3]
 409 0054 40E0     		b	.L23
 410              	.LVL59:
 411              	.L19:
  95:lib/w25qxx.c  **** 	}
  96:lib/w25qxx.c  **** 	else if(SelectStatusRegister_1_2_3==2)
ARM GAS  C:\Users\luvsd\AppData\Local\Temp\cc7qBZw4.s 			page 10


 412              		.loc 1 96 0
 413 0056 022C     		cmp	r4, #2
 414 0058 1FD1     		bne	.L24
  97:lib/w25qxx.c  **** 	{
  98:lib/w25qxx.c  **** 		SPIM_FLASH_WriteByte(0x35);
 415              		.loc 1 98 0
 416 005a 3520     		movs	r0, #53
 417 005c FFF7FEFF 		bl	SPIM_FLASH_WriteTxData
 418              	.LVL60:
  99:lib/w25qxx.c  ****         SPIM_FLASH_WriteByte(W25QXX_DUMMY_BYTE);
 419              		.loc 1 99 0
 420 0060 A520     		movs	r0, #165
 421 0062 FFF7FEFF 		bl	SPIM_FLASH_WriteTxData
 422              	.LVL61:
 423              	.L25:
 100:lib/w25qxx.c  ****         while(!(SPIM_FLASH_ReadTxStatus() & SPIM_FLASH_STS_SPI_DONE)); 
 424              		.loc 1 100 0 discriminator 1
 425 0066 FFF7FEFF 		bl	SPIM_FLASH_ReadTxStatus
 426              	.LVL62:
 427 006a C307     		lsls	r3, r0, #31
 428 006c FBD5     		bpl	.L25
 101:lib/w25qxx.c  ****         CyDelayUs(DELAY_W25QXX);
 429              		.loc 1 101 0
 430 006e 0A20     		movs	r0, #10
 431 0070 FFF7FEFF 		bl	CyDelayUs
 432              	.LVL63:
  80:lib/w25qxx.c  **** 	uint8_t	status[2]={0,};
 433              		.loc 1 80 0
 434 0074 0025     		movs	r5, #0
 102:lib/w25qxx.c  ****         while(SPIM_FLASH_GetRxBufferSize() > 0)
 435              		.loc 1 102 0
 436 0076 06E0     		b	.L26
 437              	.LVL64:
 438              	.L27:
 103:lib/w25qxx.c  ****         {
 104:lib/w25qxx.c  ****             status[readDataNO++] = SPIM_FLASH_ReadByte();
 439              		.loc 1 104 0
 440 0078 6C1C     		adds	r4, r5, #1
 441 007a E4B2     		uxtb	r4, r4
 442              	.LVL65:
 443 007c FFF7FEFF 		bl	SPIM_FLASH_ReadRxData
 444              	.LVL66:
 445 0080 01AB     		add	r3, sp, #4
 446 0082 5855     		strb	r0, [r3, r5]
 447 0084 2500     		movs	r5, r4
 448              	.LVL67:
 449              	.L26:
 102:lib/w25qxx.c  ****         while(SPIM_FLASH_GetRxBufferSize() > 0)
 450              		.loc 1 102 0
 451 0086 FFF7FEFF 		bl	SPIM_FLASH_GetRxBufferSize
 452              	.LVL68:
 453 008a 0028     		cmp	r0, #0
 454 008c F4D1     		bne	.L27
 105:lib/w25qxx.c  ****         }
 106:lib/w25qxx.c  **** 		w25qxx.StatusRegister2 = status[1];
 455              		.loc 1 106 0
 456 008e 01AB     		add	r3, sp, #4
ARM GAS  C:\Users\luvsd\AppData\Local\Temp\cc7qBZw4.s 			page 11


 457 0090 5978     		ldrb	r1, [r3, #1]
 458 0092 2523     		movs	r3, #37
 459 0094 154A     		ldr	r2, .L31
 460 0096 D154     		strb	r1, [r2, r3]
 461 0098 1EE0     		b	.L23
 462              	.LVL69:
 463              	.L24:
 107:lib/w25qxx.c  **** 	}
 108:lib/w25qxx.c  **** 	else
 109:lib/w25qxx.c  **** 	{
 110:lib/w25qxx.c  **** 		SPIM_FLASH_WriteByte(0x15);
 464              		.loc 1 110 0
 465 009a 1520     		movs	r0, #21
 466 009c FFF7FEFF 		bl	SPIM_FLASH_WriteTxData
 467              	.LVL70:
 111:lib/w25qxx.c  ****         SPIM_FLASH_WriteByte(W25QXX_DUMMY_BYTE);
 468              		.loc 1 111 0
 469 00a0 A520     		movs	r0, #165
 470 00a2 FFF7FEFF 		bl	SPIM_FLASH_WriteTxData
 471              	.LVL71:
 472              	.L28:
 112:lib/w25qxx.c  ****         while(!(SPIM_FLASH_ReadTxStatus() & SPIM_FLASH_STS_SPI_DONE)); 
 473              		.loc 1 112 0 discriminator 1
 474 00a6 FFF7FEFF 		bl	SPIM_FLASH_ReadTxStatus
 475              	.LVL72:
 476 00aa C307     		lsls	r3, r0, #31
 477 00ac FBD5     		bpl	.L28
 113:lib/w25qxx.c  ****         CyDelayUs(DELAY_W25QXX);
 478              		.loc 1 113 0
 479 00ae 0A20     		movs	r0, #10
 480 00b0 FFF7FEFF 		bl	CyDelayUs
 481              	.LVL73:
  80:lib/w25qxx.c  **** 	uint8_t	status[2]={0,};
 482              		.loc 1 80 0
 483 00b4 0025     		movs	r5, #0
 114:lib/w25qxx.c  ****         while(SPIM_FLASH_GetRxBufferSize() > 0)
 484              		.loc 1 114 0
 485 00b6 06E0     		b	.L29
 486              	.LVL74:
 487              	.L30:
 115:lib/w25qxx.c  ****         {
 116:lib/w25qxx.c  ****             status[readDataNO++] = SPIM_FLASH_ReadByte();
 488              		.loc 1 116 0
 489 00b8 6C1C     		adds	r4, r5, #1
 490 00ba E4B2     		uxtb	r4, r4
 491              	.LVL75:
 492 00bc FFF7FEFF 		bl	SPIM_FLASH_ReadRxData
 493              	.LVL76:
 494 00c0 01AB     		add	r3, sp, #4
 495 00c2 5855     		strb	r0, [r3, r5]
 496 00c4 2500     		movs	r5, r4
 497              	.LVL77:
 498              	.L29:
 114:lib/w25qxx.c  ****         while(SPIM_FLASH_GetRxBufferSize() > 0)
 499              		.loc 1 114 0
 500 00c6 FFF7FEFF 		bl	SPIM_FLASH_GetRxBufferSize
 501              	.LVL78:
ARM GAS  C:\Users\luvsd\AppData\Local\Temp\cc7qBZw4.s 			page 12


 502 00ca 0028     		cmp	r0, #0
 503 00cc F4D1     		bne	.L30
 117:lib/w25qxx.c  ****         }
 118:lib/w25qxx.c  **** 		w25qxx.StatusRegister3 = status[1];
 504              		.loc 1 118 0
 505 00ce 01AB     		add	r3, sp, #4
 506 00d0 5978     		ldrb	r1, [r3, #1]
 507 00d2 2623     		movs	r3, #38
 508 00d4 054A     		ldr	r2, .L31
 509 00d6 D154     		strb	r1, [r2, r3]
 510              	.L23:
 119:lib/w25qxx.c  **** 	}
 120:lib/w25qxx.c  ****     Ctrl_MEM_SS_Write(1);
 511              		.loc 1 120 0
 512 00d8 0120     		movs	r0, #1
 513 00da FFF7FEFF 		bl	Ctrl_MEM_SS_Write
 514              	.LVL79:
 121:lib/w25qxx.c  ****     CyDelayUs(DELAY_W25QXX);
 515              		.loc 1 121 0
 516 00de 0A20     		movs	r0, #10
 517 00e0 FFF7FEFF 		bl	CyDelayUs
 518              	.LVL80:
 122:lib/w25qxx.c  **** 	return status[1];
 519              		.loc 1 122 0
 520 00e4 01AB     		add	r3, sp, #4
 521 00e6 5878     		ldrb	r0, [r3, #1]
 123:lib/w25qxx.c  **** }
 522              		.loc 1 123 0
 523 00e8 03B0     		add	sp, sp, #12
 524              		@ sp needed
 525              	.LVL81:
 526 00ea 30BD     		pop	{r4, r5, pc}
 527              	.L32:
 528              		.align	2
 529              	.L31:
 530 00ec 00000000 		.word	w25qxx
 531              		.cfi_endproc
 532              	.LFE64:
 533              		.size	W25qxx_ReadStatusRegister, .-W25qxx_ReadStatusRegister
 534              		.section	.text.W25qxx_WriteStatusRegister,"ax",%progbits
 535              		.align	2
 536              		.global	W25qxx_WriteStatusRegister
 537              		.code	16
 538              		.thumb_func
 539              		.type	W25qxx_WriteStatusRegister, %function
 540              	W25qxx_WriteStatusRegister:
 541              	.LFB65:
 124:lib/w25qxx.c  **** //#################################################################################################
 125:lib/w25qxx.c  **** void W25qxx_WriteStatusRegister(uint8_t	SelectStatusRegister_1_2_3,uint8_t Data)
 126:lib/w25qxx.c  **** {
 542              		.loc 1 126 0
 543              		.cfi_startproc
 544              		@ args = 0, pretend = 0, frame = 0
 545              		@ frame_needed = 0, uses_anonymous_args = 0
 546              	.LVL82:
 547 0000 70B5     		push	{r4, r5, r6, lr}
 548              		.cfi_def_cfa_offset 16
ARM GAS  C:\Users\luvsd\AppData\Local\Temp\cc7qBZw4.s 			page 13


 549              		.cfi_offset 4, -16
 550              		.cfi_offset 5, -12
 551              		.cfi_offset 6, -8
 552              		.cfi_offset 14, -4
 553 0002 0500     		movs	r5, r0
 554 0004 0C00     		movs	r4, r1
 555              	.LVL83:
 127:lib/w25qxx.c  **** 	uint8_t	status=0;
 128:lib/w25qxx.c  ****     Ctrl_MEM_SS_Write(0);
 556              		.loc 1 128 0
 557 0006 0020     		movs	r0, #0
 558              	.LVL84:
 559 0008 FFF7FEFF 		bl	Ctrl_MEM_SS_Write
 560              	.LVL85:
 129:lib/w25qxx.c  **** 	if(SelectStatusRegister_1_2_3==1)
 561              		.loc 1 129 0
 562 000c 012D     		cmp	r5, #1
 563 000e 06D1     		bne	.L34
 130:lib/w25qxx.c  **** 	{
 131:lib/w25qxx.c  ****         SPIM_FLASH_WriteByte(0x01);
 564              		.loc 1 131 0
 565 0010 0120     		movs	r0, #1
 566 0012 FFF7FEFF 		bl	SPIM_FLASH_WriteTxData
 567              	.LVL86:
 132:lib/w25qxx.c  **** 		w25qxx.StatusRegister1 = Data;
 568              		.loc 1 132 0
 569 0016 2423     		movs	r3, #36
 570 0018 114A     		ldr	r2, .L38
 571 001a D454     		strb	r4, [r2, r3]
 572 001c 0EE0     		b	.L35
 573              	.L34:
 133:lib/w25qxx.c  **** 	}
 134:lib/w25qxx.c  **** 	else if(SelectStatusRegister_1_2_3==2)
 574              		.loc 1 134 0
 575 001e 022D     		cmp	r5, #2
 576 0020 06D1     		bne	.L36
 135:lib/w25qxx.c  **** 	{
 136:lib/w25qxx.c  ****         SPIM_FLASH_WriteByte(0x31);
 577              		.loc 1 136 0
 578 0022 3120     		movs	r0, #49
 579 0024 FFF7FEFF 		bl	SPIM_FLASH_WriteTxData
 580              	.LVL87:
 137:lib/w25qxx.c  **** 		w25qxx.StatusRegister2 = Data;
 581              		.loc 1 137 0
 582 0028 2523     		movs	r3, #37
 583 002a 0D4A     		ldr	r2, .L38
 584 002c D454     		strb	r4, [r2, r3]
 585 002e 05E0     		b	.L35
 586              	.L36:
 138:lib/w25qxx.c  **** 	}
 139:lib/w25qxx.c  **** 	else
 140:lib/w25qxx.c  **** 	{
 141:lib/w25qxx.c  ****         SPIM_FLASH_WriteByte(0x11);
 587              		.loc 1 141 0
 588 0030 1120     		movs	r0, #17
 589 0032 FFF7FEFF 		bl	SPIM_FLASH_WriteTxData
 590              	.LVL88:
ARM GAS  C:\Users\luvsd\AppData\Local\Temp\cc7qBZw4.s 			page 14


 142:lib/w25qxx.c  **** 		w25qxx.StatusRegister3 = Data;
 591              		.loc 1 142 0
 592 0036 2623     		movs	r3, #38
 593 0038 094A     		ldr	r2, .L38
 594 003a D454     		strb	r4, [r2, r3]
 595              	.L35:
 143:lib/w25qxx.c  **** 	}
 144:lib/w25qxx.c  **** 	SPIM_FLASH_WriteByte(Data);
 596              		.loc 1 144 0
 597 003c 2000     		movs	r0, r4
 598 003e FFF7FEFF 		bl	SPIM_FLASH_WriteTxData
 599              	.LVL89:
 600              	.L37:
 145:lib/w25qxx.c  ****     while(!(SPIM_FLASH_ReadTxStatus() & SPIM_FLASH_STS_SPI_DONE)); 
 601              		.loc 1 145 0 discriminator 1
 602 0042 FFF7FEFF 		bl	SPIM_FLASH_ReadTxStatus
 603              	.LVL90:
 604 0046 C307     		lsls	r3, r0, #31
 605 0048 FBD5     		bpl	.L37
 146:lib/w25qxx.c  ****     CyDelayUs(DELAY_W25QXX);
 606              		.loc 1 146 0
 607 004a 0A20     		movs	r0, #10
 608 004c FFF7FEFF 		bl	CyDelayUs
 609              	.LVL91:
 147:lib/w25qxx.c  ****     Ctrl_MEM_SS_Write(1);
 610              		.loc 1 147 0
 611 0050 0120     		movs	r0, #1
 612 0052 FFF7FEFF 		bl	Ctrl_MEM_SS_Write
 613              	.LVL92:
 148:lib/w25qxx.c  ****     CyDelay(20);
 614              		.loc 1 148 0
 615 0056 1420     		movs	r0, #20
 616 0058 FFF7FEFF 		bl	CyDelay
 617              	.LVL93:
 149:lib/w25qxx.c  **** }
 618              		.loc 1 149 0
 619              		@ sp needed
 620 005c 70BD     		pop	{r4, r5, r6, pc}
 621              	.L39:
 622 005e C046     		.align	2
 623              	.L38:
 624 0060 00000000 		.word	w25qxx
 625              		.cfi_endproc
 626              	.LFE65:
 627              		.size	W25qxx_WriteStatusRegister, .-W25qxx_WriteStatusRegister
 628              		.section	.text.W25qxx_WaitForWriteEnd,"ax",%progbits
 629              		.align	2
 630              		.global	W25qxx_WaitForWriteEnd
 631              		.code	16
 632              		.thumb_func
 633              		.type	W25qxx_WaitForWriteEnd, %function
 634              	W25qxx_WaitForWriteEnd:
 635              	.LFB66:
 150:lib/w25qxx.c  **** //#################################################################################################
 151:lib/w25qxx.c  **** void W25qxx_WaitForWriteEnd(void)
 152:lib/w25qxx.c  **** {
 636              		.loc 1 152 0
ARM GAS  C:\Users\luvsd\AppData\Local\Temp\cc7qBZw4.s 			page 15


 637              		.cfi_startproc
 638              		@ args = 0, pretend = 0, frame = 0
 639              		@ frame_needed = 0, uses_anonymous_args = 0
 640 0000 10B5     		push	{r4, lr}
 641              		.cfi_def_cfa_offset 8
 642              		.cfi_offset 4, -8
 643              		.cfi_offset 14, -4
 153:lib/w25qxx.c  ****     Ctrl_MEM_SS_Write(0);
 644              		.loc 1 153 0
 645 0002 0020     		movs	r0, #0
 646 0004 FFF7FEFF 		bl	Ctrl_MEM_SS_Write
 647              	.LVL94:
 154:lib/w25qxx.c  **** 	SPIM_FLASH_WriteByte(0x05);
 648              		.loc 1 154 0
 649 0008 0520     		movs	r0, #5
 650 000a FFF7FEFF 		bl	SPIM_FLASH_WriteTxData
 651              	.LVL95:
 652              	.L41:
 155:lib/w25qxx.c  ****     while(!(SPIM_FLASH_ReadTxStatus() & SPIM_FLASH_STS_SPI_DONE));
 653              		.loc 1 155 0 discriminator 1
 654 000e FFF7FEFF 		bl	SPIM_FLASH_ReadTxStatus
 655              	.LVL96:
 656 0012 C307     		lsls	r3, r0, #31
 657 0014 FBD5     		bpl	.L41
 156:lib/w25qxx.c  ****     CyDelayUs(DELAY_W25QXX);
 658              		.loc 1 156 0
 659 0016 0A20     		movs	r0, #10
 660 0018 FFF7FEFF 		bl	CyDelayUs
 661              	.LVL97:
 157:lib/w25qxx.c  ****     SPIM_FLASH_ClearRxBuffer();
 662              		.loc 1 157 0
 663 001c FFF7FEFF 		bl	SPIM_FLASH_ClearRxBuffer
 664              	.LVL98:
 665              	.L43:
 158:lib/w25qxx.c  ****     do
 159:lib/w25qxx.c  ****     {
 160:lib/w25qxx.c  ****         SPIM_FLASH_WriteByte(W25QXX_DUMMY_BYTE);
 666              		.loc 1 160 0
 667 0020 A520     		movs	r0, #165
 668 0022 FFF7FEFF 		bl	SPIM_FLASH_WriteTxData
 669              	.LVL99:
 670              	.L42:
 161:lib/w25qxx.c  ****         while(!(SPIM_FLASH_ReadTxStatus() & SPIM_FLASH_STS_SPI_DONE));
 671              		.loc 1 161 0 discriminator 1
 672 0026 FFF7FEFF 		bl	SPIM_FLASH_ReadTxStatus
 673              	.LVL100:
 674 002a C307     		lsls	r3, r0, #31
 675 002c FBD5     		bpl	.L42
 162:lib/w25qxx.c  ****         w25qxx.StatusRegister1 = SPIM_FLASH_ReadByte();
 676              		.loc 1 162 0
 677 002e FFF7FEFF 		bl	SPIM_FLASH_ReadRxData
 678              	.LVL101:
 679 0032 2423     		movs	r3, #36
 680 0034 064A     		ldr	r2, .L44
 681 0036 D054     		strb	r0, [r2, r3]
 163:lib/w25qxx.c  ****     }
 164:lib/w25qxx.c  ****     while ((w25qxx.StatusRegister1 & 0x01) == 0x01);
ARM GAS  C:\Users\luvsd\AppData\Local\Temp\cc7qBZw4.s 			page 16


 682              		.loc 1 164 0
 683 0038 C307     		lsls	r3, r0, #31
 684 003a F1D4     		bmi	.L43
 165:lib/w25qxx.c  ****     CyDelayUs(DELAY_W25QXX);
 685              		.loc 1 165 0
 686 003c 0A20     		movs	r0, #10
 687 003e FFF7FEFF 		bl	CyDelayUs
 688              	.LVL102:
 166:lib/w25qxx.c  ****     Ctrl_MEM_SS_Write(1);
 689              		.loc 1 166 0
 690 0042 0120     		movs	r0, #1
 691 0044 FFF7FEFF 		bl	Ctrl_MEM_SS_Write
 692              	.LVL103:
 167:lib/w25qxx.c  ****     CyDelay(1);
 693              		.loc 1 167 0
 694 0048 0120     		movs	r0, #1
 695 004a FFF7FEFF 		bl	CyDelay
 696              	.LVL104:
 168:lib/w25qxx.c  **** }
 697              		.loc 1 168 0
 698              		@ sp needed
 699 004e 10BD     		pop	{r4, pc}
 700              	.L45:
 701              		.align	2
 702              	.L44:
 703 0050 00000000 		.word	w25qxx
 704              		.cfi_endproc
 705              	.LFE66:
 706              		.size	W25qxx_WaitForWriteEnd, .-W25qxx_WaitForWriteEnd
 707              		.section	.text.W25qxx_Init,"ax",%progbits
 708              		.align	2
 709              		.global	W25qxx_Init
 710              		.code	16
 711              		.thumb_func
 712              		.type	W25qxx_Init, %function
 713              	W25qxx_Init:
 714              	.LFB67:
 169:lib/w25qxx.c  **** //#################################################################################################
 170:lib/w25qxx.c  **** bool	W25qxx_Init(void)
 171:lib/w25qxx.c  **** {
 715              		.loc 1 171 0
 716              		.cfi_startproc
 717              		@ args = 0, pretend = 0, frame = 0
 718              		@ frame_needed = 0, uses_anonymous_args = 0
 719 0000 10B5     		push	{r4, lr}
 720              		.cfi_def_cfa_offset 8
 721              		.cfi_offset 4, -8
 722              		.cfi_offset 14, -4
 172:lib/w25qxx.c  ****     w25qxx.Lock=1;
 723              		.loc 1 172 0
 724 0002 0121     		movs	r1, #1
 725 0004 2723     		movs	r3, #39
 726 0006 3B4A     		ldr	r2, .L61
 727 0008 D154     		strb	r1, [r2, r3]
 173:lib/w25qxx.c  ****     CyDelay(100);
 728              		.loc 1 173 0
 729 000a 6420     		movs	r0, #100
ARM GAS  C:\Users\luvsd\AppData\Local\Temp\cc7qBZw4.s 			page 17


 730 000c FFF7FEFF 		bl	CyDelay
 731              	.LVL105:
 174:lib/w25qxx.c  ****     
 175:lib/w25qxx.c  ****     uint32_t	id;
 176:lib/w25qxx.c  ****     
 177:lib/w25qxx.c  ****     id=W25qxx_ReadID();
 732              		.loc 1 177 0
 733 0010 FFF7FEFF 		bl	W25qxx_ReadID
 734              	.LVL106:
 178:lib/w25qxx.c  **** 
 179:lib/w25qxx.c  ****     switch(id & 0x000000FF)
 735              		.loc 1 179 0
 736 0014 FF23     		movs	r3, #255
 737 0016 1840     		ands	r0, r3
 738              	.LVL107:
 739 0018 1138     		subs	r0, r0, #17
 740 001a 0F28     		cmp	r0, #15
 741 001c 41D8     		bhi	.L47
 742 001e 8000     		lsls	r0, r0, #2
 743 0020 354B     		ldr	r3, .L61+4
 744 0022 1B58     		ldr	r3, [r3, r0]
 745 0024 9F46     		mov	pc, r3
 746              		.section	.rodata
 747              		.align	2
 748              	.L49:
 749 0000 96000000 		.word	.L48
 750 0004 8A000000 		.word	.L50
 751 0008 7E000000 		.word	.L51
 752 000c 72000000 		.word	.L52
 753 0010 66000000 		.word	.L53
 754 0014 5A000000 		.word	.L54
 755 0018 4E000000 		.word	.L55
 756 001c 42000000 		.word	.L56
 757 0020 34000000 		.word	.L57
 758 0024 A2000000 		.word	.L47
 759 0028 A2000000 		.word	.L47
 760 002c A2000000 		.word	.L47
 761 0030 A2000000 		.word	.L47
 762 0034 A2000000 		.word	.L47
 763 0038 A2000000 		.word	.L47
 764 003c 26000000 		.word	.L58
 765              		.section	.text.W25qxx_Init
 766              	.L58:
 180:lib/w25qxx.c  ****     {
 181:lib/w25qxx.c  ****     	case 0x20:	// 	w25q512
 182:lib/w25qxx.c  ****     		w25qxx.ID=W25Q512;
 767              		.loc 1 182 0
 768 0026 334B     		ldr	r3, .L61
 769 0028 0A22     		movs	r2, #10
 770 002a 1A70     		strb	r2, [r3]
 183:lib/w25qxx.c  ****     		w25qxx.BlockCount=1024;
 771              		.loc 1 183 0
 772 002c 8022     		movs	r2, #128
 773 002e D200     		lsls	r2, r2, #3
 774 0030 DA61     		str	r2, [r3, #28]
 184:lib/w25qxx.c  ****     	break;
 775              		.loc 1 184 0
ARM GAS  C:\Users\luvsd\AppData\Local\Temp\cc7qBZw4.s 			page 18


 776 0032 3CE0     		b	.L59
 777              	.L57:
 185:lib/w25qxx.c  ****     	case 0x19:	// 	w25q256
 186:lib/w25qxx.c  ****     		w25qxx.ID=W25Q256;
 778              		.loc 1 186 0
 779 0034 2F4B     		ldr	r3, .L61
 780 0036 0922     		movs	r2, #9
 781 0038 1A70     		strb	r2, [r3]
 187:lib/w25qxx.c  ****     		w25qxx.BlockCount=512;
 782              		.loc 1 187 0
 783 003a F832     		adds	r2, r2, #248
 784 003c FF32     		adds	r2, r2, #255
 785 003e DA61     		str	r2, [r3, #28]
 188:lib/w25qxx.c  ****     	break;
 786              		.loc 1 188 0
 787 0040 35E0     		b	.L59
 788              	.L56:
 189:lib/w25qxx.c  ****     	case 0x18:	// 	w25q128
 190:lib/w25qxx.c  ****     		w25qxx.ID=W25Q128;
 789              		.loc 1 190 0
 790 0042 2C4B     		ldr	r3, .L61
 791 0044 0822     		movs	r2, #8
 792 0046 1A70     		strb	r2, [r3]
 191:lib/w25qxx.c  ****     		w25qxx.BlockCount=256;
 793              		.loc 1 191 0
 794 0048 F832     		adds	r2, r2, #248
 795 004a DA61     		str	r2, [r3, #28]
 192:lib/w25qxx.c  ****     	break;
 796              		.loc 1 192 0
 797 004c 2FE0     		b	.L59
 798              	.L55:
 193:lib/w25qxx.c  ****     	case 0x17:	//	w25q64
 194:lib/w25qxx.c  ****     		w25qxx.ID=W25Q64;
 799              		.loc 1 194 0
 800 004e 294B     		ldr	r3, .L61
 801 0050 0722     		movs	r2, #7
 802 0052 1A70     		strb	r2, [r3]
 195:lib/w25qxx.c  ****     		w25qxx.BlockCount=128;
 803              		.loc 1 195 0
 804 0054 7932     		adds	r2, r2, #121
 805 0056 DA61     		str	r2, [r3, #28]
 196:lib/w25qxx.c  ****     	break;
 806              		.loc 1 196 0
 807 0058 29E0     		b	.L59
 808              	.L54:
 197:lib/w25qxx.c  ****     	case 0x16:	//	w25q32
 198:lib/w25qxx.c  ****     		w25qxx.ID=W25Q32;
 809              		.loc 1 198 0
 810 005a 264B     		ldr	r3, .L61
 811 005c 0622     		movs	r2, #6
 812 005e 1A70     		strb	r2, [r3]
 199:lib/w25qxx.c  ****     		w25qxx.BlockCount=64;
 813              		.loc 1 199 0
 814 0060 3A32     		adds	r2, r2, #58
 815 0062 DA61     		str	r2, [r3, #28]
 200:lib/w25qxx.c  ****     	break;
 816              		.loc 1 200 0
ARM GAS  C:\Users\luvsd\AppData\Local\Temp\cc7qBZw4.s 			page 19


 817 0064 23E0     		b	.L59
 818              	.L53:
 201:lib/w25qxx.c  ****     	case 0x15:	//	w25q16
 202:lib/w25qxx.c  ****     		w25qxx.ID=W25Q16;
 819              		.loc 1 202 0
 820 0066 234B     		ldr	r3, .L61
 821 0068 0522     		movs	r2, #5
 822 006a 1A70     		strb	r2, [r3]
 203:lib/w25qxx.c  ****     		w25qxx.BlockCount=32;
 823              		.loc 1 203 0
 824 006c 1B32     		adds	r2, r2, #27
 825 006e DA61     		str	r2, [r3, #28]
 204:lib/w25qxx.c  ****     	break;
 826              		.loc 1 204 0
 827 0070 1DE0     		b	.L59
 828              	.L52:
 205:lib/w25qxx.c  ****     	case 0x14:	//	w25q80
 206:lib/w25qxx.c  ****     		w25qxx.ID=W25Q80;
 829              		.loc 1 206 0
 830 0072 204B     		ldr	r3, .L61
 831 0074 0422     		movs	r2, #4
 832 0076 1A70     		strb	r2, [r3]
 207:lib/w25qxx.c  ****     		w25qxx.BlockCount=16;
 833              		.loc 1 207 0
 834 0078 0C32     		adds	r2, r2, #12
 835 007a DA61     		str	r2, [r3, #28]
 208:lib/w25qxx.c  ****     	break;
 836              		.loc 1 208 0
 837 007c 17E0     		b	.L59
 838              	.L51:
 209:lib/w25qxx.c  ****     	case 0x13:	//	w25q40
 210:lib/w25qxx.c  ****     		w25qxx.ID=W25Q40;
 839              		.loc 1 210 0
 840 007e 1D4B     		ldr	r3, .L61
 841 0080 0322     		movs	r2, #3
 842 0082 1A70     		strb	r2, [r3]
 211:lib/w25qxx.c  ****     		w25qxx.BlockCount=8;
 843              		.loc 1 211 0
 844 0084 0532     		adds	r2, r2, #5
 845 0086 DA61     		str	r2, [r3, #28]
 212:lib/w25qxx.c  ****     	break;
 846              		.loc 1 212 0
 847 0088 11E0     		b	.L59
 848              	.L50:
 213:lib/w25qxx.c  ****     	case 0x12:	//	w25q20
 214:lib/w25qxx.c  ****     		w25qxx.ID=W25Q20;
 849              		.loc 1 214 0
 850 008a 1A4B     		ldr	r3, .L61
 851 008c 0222     		movs	r2, #2
 852 008e 1A70     		strb	r2, [r3]
 215:lib/w25qxx.c  ****     		w25qxx.BlockCount=4;
 853              		.loc 1 215 0
 854 0090 0232     		adds	r2, r2, #2
 855 0092 DA61     		str	r2, [r3, #28]
 216:lib/w25qxx.c  ****     	break;
 856              		.loc 1 216 0
 857 0094 0BE0     		b	.L59
ARM GAS  C:\Users\luvsd\AppData\Local\Temp\cc7qBZw4.s 			page 20


 858              	.L48:
 217:lib/w25qxx.c  ****     	case 0x11:	//	w25q10
 218:lib/w25qxx.c  ****     		w25qxx.ID=W25Q10;
 859              		.loc 1 218 0
 860 0096 174B     		ldr	r3, .L61
 861 0098 0122     		movs	r2, #1
 862 009a 1A70     		strb	r2, [r3]
 219:lib/w25qxx.c  ****     		w25qxx.BlockCount=2;
 863              		.loc 1 219 0
 864 009c 0132     		adds	r2, r2, #1
 865 009e DA61     		str	r2, [r3, #28]
 220:lib/w25qxx.c  ****     	break;
 866              		.loc 1 220 0
 867 00a0 05E0     		b	.L59
 868              	.L47:
 221:lib/w25qxx.c  ****     	default:
 222:lib/w25qxx.c  ****     		w25qxx.Lock=0;	
 869              		.loc 1 222 0
 870 00a2 0021     		movs	r1, #0
 871 00a4 2723     		movs	r3, #39
 872 00a6 134A     		ldr	r2, .L61
 873 00a8 D154     		strb	r1, [r2, r3]
 223:lib/w25qxx.c  ****     		return false;
 874              		.loc 1 223 0
 875 00aa 0020     		movs	r0, #0
 876 00ac 20E0     		b	.L60
 877              	.L59:
 224:lib/w25qxx.c  ****     			
 225:lib/w25qxx.c  ****     }		
 226:lib/w25qxx.c  ****     w25qxx.PageSize=256;
 878              		.loc 1 226 0
 879 00ae 114C     		ldr	r4, .L61
 880 00b0 8023     		movs	r3, #128
 881 00b2 5B00     		lsls	r3, r3, #1
 882 00b4 6381     		strh	r3, [r4, #10]
 227:lib/w25qxx.c  ****     w25qxx.SectorSize=0x1000;
 883              		.loc 1 227 0
 884 00b6 8023     		movs	r3, #128
 885 00b8 5B01     		lsls	r3, r3, #5
 886 00ba 2361     		str	r3, [r4, #16]
 228:lib/w25qxx.c  ****     w25qxx.SectorCount=w25qxx.BlockCount*16;
 887              		.loc 1 228 0
 888 00bc E369     		ldr	r3, [r4, #28]
 889 00be 1A01     		lsls	r2, r3, #4
 890 00c0 6261     		str	r2, [r4, #20]
 229:lib/w25qxx.c  ****     w25qxx.PageCount=(w25qxx.SectorCount*w25qxx.SectorSize)/w25qxx.PageSize;
 891              		.loc 1 229 0
 892 00c2 1B04     		lsls	r3, r3, #16
 893 00c4 1A0A     		lsrs	r2, r3, #8
 894 00c6 E260     		str	r2, [r4, #12]
 230:lib/w25qxx.c  ****     w25qxx.BlockSize=w25qxx.SectorSize*16;
 895              		.loc 1 230 0
 896 00c8 8022     		movs	r2, #128
 897 00ca 5202     		lsls	r2, r2, #9
 898 00cc A261     		str	r2, [r4, #24]
 231:lib/w25qxx.c  ****     w25qxx.CapacityInKiloByte=(w25qxx.SectorCount*w25qxx.SectorSize)/1024;
 899              		.loc 1 231 0
ARM GAS  C:\Users\luvsd\AppData\Local\Temp\cc7qBZw4.s 			page 21


 900 00ce 9B0A     		lsrs	r3, r3, #10
 901 00d0 2362     		str	r3, [r4, #32]
 232:lib/w25qxx.c  ****     W25qxx_ReadUniqID();
 902              		.loc 1 232 0
 903 00d2 FFF7FEFF 		bl	W25qxx_ReadUniqID
 904              	.LVL108:
 233:lib/w25qxx.c  ****     W25qxx_ReadStatusRegister(1);
 905              		.loc 1 233 0
 906 00d6 0120     		movs	r0, #1
 907 00d8 FFF7FEFF 		bl	W25qxx_ReadStatusRegister
 908              	.LVL109:
 234:lib/w25qxx.c  ****     W25qxx_ReadStatusRegister(2);
 909              		.loc 1 234 0
 910 00dc 0220     		movs	r0, #2
 911 00de FFF7FEFF 		bl	W25qxx_ReadStatusRegister
 912              	.LVL110:
 235:lib/w25qxx.c  ****     W25qxx_ReadStatusRegister(3);
 913              		.loc 1 235 0
 914 00e2 0320     		movs	r0, #3
 915 00e4 FFF7FEFF 		bl	W25qxx_ReadStatusRegister
 916              	.LVL111:
 236:lib/w25qxx.c  ****     w25qxx.Lock=0;	
 917              		.loc 1 236 0
 918 00e8 0022     		movs	r2, #0
 919 00ea 2723     		movs	r3, #39
 920 00ec E254     		strb	r2, [r4, r3]
 237:lib/w25qxx.c  ****     return true;
 921              		.loc 1 237 0
 922 00ee 0120     		movs	r0, #1
 923              	.L60:
 238:lib/w25qxx.c  **** }	
 924              		.loc 1 238 0
 925              		@ sp needed
 926 00f0 10BD     		pop	{r4, pc}
 927              	.L62:
 928 00f2 C046     		.align	2
 929              	.L61:
 930 00f4 00000000 		.word	w25qxx
 931 00f8 00000000 		.word	.L49
 932              		.cfi_endproc
 933              	.LFE67:
 934              		.size	W25qxx_Init, .-W25qxx_Init
 935              		.section	.text.W25qxx_EraseChip,"ax",%progbits
 936              		.align	2
 937              		.global	W25qxx_EraseChip
 938              		.code	16
 939              		.thumb_func
 940              		.type	W25qxx_EraseChip, %function
 941              	W25qxx_EraseChip:
 942              	.LFB68:
 239:lib/w25qxx.c  **** //#################################################################################################
 240:lib/w25qxx.c  **** void	W25qxx_EraseChip(void)
 241:lib/w25qxx.c  **** {
 943              		.loc 1 241 0
 944              		.cfi_startproc
 945              		@ args = 0, pretend = 0, frame = 0
 946              		@ frame_needed = 0, uses_anonymous_args = 0
ARM GAS  C:\Users\luvsd\AppData\Local\Temp\cc7qBZw4.s 			page 22


 947 0000 10B5     		push	{r4, lr}
 948              		.cfi_def_cfa_offset 8
 949              		.cfi_offset 4, -8
 950              		.cfi_offset 14, -4
 242:lib/w25qxx.c  **** 	while(w25qxx.Lock==1)
 951              		.loc 1 242 0
 952 0002 02E0     		b	.L64
 953              	.L65:
 243:lib/w25qxx.c  **** 		CyDelay(1);
 954              		.loc 1 243 0
 955 0004 0120     		movs	r0, #1
 956 0006 FFF7FEFF 		bl	CyDelay
 957              	.LVL112:
 958              	.L64:
 242:lib/w25qxx.c  **** 	while(w25qxx.Lock==1)
 959              		.loc 1 242 0
 960 000a 2723     		movs	r3, #39
 961 000c 0F4A     		ldr	r2, .L67
 962 000e D35C     		ldrb	r3, [r2, r3]
 963 0010 012B     		cmp	r3, #1
 964 0012 F7D0     		beq	.L65
 244:lib/w25qxx.c  **** 	w25qxx.Lock=1;	
 965              		.loc 1 244 0
 966 0014 0121     		movs	r1, #1
 967 0016 2723     		movs	r3, #39
 968 0018 D154     		strb	r1, [r2, r3]
 245:lib/w25qxx.c  **** 	W25qxx_WriteEnable();
 969              		.loc 1 245 0
 970 001a FFF7FEFF 		bl	W25qxx_WriteEnable
 971              	.LVL113:
 246:lib/w25qxx.c  ****     
 247:lib/w25qxx.c  ****     Ctrl_MEM_SS_Write(0);
 972              		.loc 1 247 0
 973 001e 0020     		movs	r0, #0
 974 0020 FFF7FEFF 		bl	Ctrl_MEM_SS_Write
 975              	.LVL114:
 248:lib/w25qxx.c  ****     SPIM_FLASH_WriteByte(0xC7);
 976              		.loc 1 248 0
 977 0024 C720     		movs	r0, #199
 978 0026 FFF7FEFF 		bl	SPIM_FLASH_WriteTxData
 979              	.LVL115:
 980              	.L66:
 249:lib/w25qxx.c  ****     while(!(SPIM_FLASH_ReadTxStatus() & SPIM_FLASH_STS_SPI_DONE));
 981              		.loc 1 249 0 discriminator 1
 982 002a FFF7FEFF 		bl	SPIM_FLASH_ReadTxStatus
 983              	.LVL116:
 984 002e C307     		lsls	r3, r0, #31
 985 0030 FBD5     		bpl	.L66
 250:lib/w25qxx.c  ****     CyDelayUs(DELAY_W25QXX);
 986              		.loc 1 250 0
 987 0032 0A20     		movs	r0, #10
 988 0034 FFF7FEFF 		bl	CyDelayUs
 989              	.LVL117:
 251:lib/w25qxx.c  ****     Ctrl_MEM_SS_Write(1);       
 990              		.loc 1 251 0
 991 0038 0120     		movs	r0, #1
 992 003a FFF7FEFF 		bl	Ctrl_MEM_SS_Write
ARM GAS  C:\Users\luvsd\AppData\Local\Temp\cc7qBZw4.s 			page 23


 993              	.LVL118:
 252:lib/w25qxx.c  ****     
 253:lib/w25qxx.c  **** 	W25qxx_WaitForWriteEnd();
 994              		.loc 1 253 0
 995 003e FFF7FEFF 		bl	W25qxx_WaitForWriteEnd
 996              	.LVL119:
 254:lib/w25qxx.c  ****     
 255:lib/w25qxx.c  **** 	w25qxx.Lock=0;	
 997              		.loc 1 255 0
 998 0042 0021     		movs	r1, #0
 999 0044 2723     		movs	r3, #39
 1000 0046 014A     		ldr	r2, .L67
 1001 0048 D154     		strb	r1, [r2, r3]
 256:lib/w25qxx.c  **** }
 1002              		.loc 1 256 0
 1003              		@ sp needed
 1004 004a 10BD     		pop	{r4, pc}
 1005              	.L68:
 1006              		.align	2
 1007              	.L67:
 1008 004c 00000000 		.word	w25qxx
 1009              		.cfi_endproc
 1010              	.LFE68:
 1011              		.size	W25qxx_EraseChip, .-W25qxx_EraseChip
 1012              		.section	.text.W25qxx_EraseSector,"ax",%progbits
 1013              		.align	2
 1014              		.global	W25qxx_EraseSector
 1015              		.code	16
 1016              		.thumb_func
 1017              		.type	W25qxx_EraseSector, %function
 1018              	W25qxx_EraseSector:
 1019              	.LFB69:
 257:lib/w25qxx.c  **** //#################################################################################################
 258:lib/w25qxx.c  **** void W25qxx_EraseSector(uint32_t SectorAddr)
 259:lib/w25qxx.c  **** {
 1020              		.loc 1 259 0
 1021              		.cfi_startproc
 1022              		@ args = 0, pretend = 0, frame = 0
 1023              		@ frame_needed = 0, uses_anonymous_args = 0
 1024              	.LVL120:
 1025 0000 10B5     		push	{r4, lr}
 1026              		.cfi_def_cfa_offset 8
 1027              		.cfi_offset 4, -8
 1028              		.cfi_offset 14, -4
 1029 0002 0400     		movs	r4, r0
 260:lib/w25qxx.c  **** 	while(w25qxx.Lock==1)
 1030              		.loc 1 260 0
 1031 0004 02E0     		b	.L70
 1032              	.LVL121:
 1033              	.L71:
 261:lib/w25qxx.c  **** 		CyDelay(1);
 1034              		.loc 1 261 0
 1035 0006 0120     		movs	r0, #1
 1036 0008 FFF7FEFF 		bl	CyDelay
 1037              	.LVL122:
 1038              	.L70:
 260:lib/w25qxx.c  **** 	while(w25qxx.Lock==1)
ARM GAS  C:\Users\luvsd\AppData\Local\Temp\cc7qBZw4.s 			page 24


 1039              		.loc 1 260 0
 1040 000c 2723     		movs	r3, #39
 1041 000e 1A4A     		ldr	r2, .L73
 1042 0010 D35C     		ldrb	r3, [r2, r3]
 1043 0012 012B     		cmp	r3, #1
 1044 0014 F7D0     		beq	.L71
 262:lib/w25qxx.c  **** 	w25qxx.Lock=1;
 1045              		.loc 1 262 0
 1046 0016 1300     		movs	r3, r2
 1047 0018 0121     		movs	r1, #1
 1048 001a 2722     		movs	r2, #39
 1049 001c 9954     		strb	r1, [r3, r2]
 263:lib/w25qxx.c  **** 	//W25qxx_WaitForWriteEnd();
 264:lib/w25qxx.c  **** 	SectorAddr = SectorAddr * w25qxx.SectorSize;
 1050              		.loc 1 264 0
 1051 001e 1869     		ldr	r0, [r3, #16]
 1052 0020 4443     		muls	r4, r0
 1053              	.LVL123:
 265:lib/w25qxx.c  ****     W25qxx_WriteEnable();
 1054              		.loc 1 265 0
 1055 0022 FFF7FEFF 		bl	W25qxx_WriteEnable
 1056              	.LVL124:
 266:lib/w25qxx.c  ****     Ctrl_MEM_SS_Write(0);
 1057              		.loc 1 266 0
 1058 0026 0020     		movs	r0, #0
 1059 0028 FFF7FEFF 		bl	Ctrl_MEM_SS_Write
 1060              	.LVL125:
 267:lib/w25qxx.c  ****     SPIM_FLASH_WriteByte(0x20);
 1061              		.loc 1 267 0
 1062 002c 2020     		movs	r0, #32
 1063 002e FFF7FEFF 		bl	SPIM_FLASH_WriteTxData
 1064              	.LVL126:
 268:lib/w25qxx.c  ****     SPIM_FLASH_WriteByte((SectorAddr & 0xFF0000) >> 16);
 1065              		.loc 1 268 0
 1066 0032 200C     		lsrs	r0, r4, #16
 1067 0034 C0B2     		uxtb	r0, r0
 1068 0036 FFF7FEFF 		bl	SPIM_FLASH_WriteTxData
 1069              	.LVL127:
 269:lib/w25qxx.c  ****     SPIM_FLASH_WriteByte((SectorAddr & 0xFF00) >> 8);
 1070              		.loc 1 269 0
 1071 003a 200A     		lsrs	r0, r4, #8
 1072 003c C0B2     		uxtb	r0, r0
 1073 003e FFF7FEFF 		bl	SPIM_FLASH_WriteTxData
 1074              	.LVL128:
 270:lib/w25qxx.c  ****     SPIM_FLASH_WriteByte(SectorAddr & 0xFF);
 1075              		.loc 1 270 0
 1076 0042 E0B2     		uxtb	r0, r4
 1077 0044 FFF7FEFF 		bl	SPIM_FLASH_WriteTxData
 1078              	.LVL129:
 1079              	.L72:
 271:lib/w25qxx.c  ****     while(!(SPIM_FLASH_ReadTxStatus() & SPIM_FLASH_STS_SPI_DONE));
 1080              		.loc 1 271 0 discriminator 1
 1081 0048 FFF7FEFF 		bl	SPIM_FLASH_ReadTxStatus
 1082              	.LVL130:
 1083 004c C307     		lsls	r3, r0, #31
 1084 004e FBD5     		bpl	.L72
 272:lib/w25qxx.c  ****     CyDelayUs(DELAY_W25QXX);
ARM GAS  C:\Users\luvsd\AppData\Local\Temp\cc7qBZw4.s 			page 25


 1085              		.loc 1 272 0
 1086 0050 0A20     		movs	r0, #10
 1087 0052 FFF7FEFF 		bl	CyDelayUs
 1088              	.LVL131:
 273:lib/w25qxx.c  ****     Ctrl_MEM_SS_Write(1);
 1089              		.loc 1 273 0
 1090 0056 0120     		movs	r0, #1
 1091 0058 FFF7FEFF 		bl	Ctrl_MEM_SS_Write
 1092              	.LVL132:
 274:lib/w25qxx.c  ****     CyDelay(200);
 1093              		.loc 1 274 0
 1094 005c C820     		movs	r0, #200
 1095 005e FFF7FEFF 		bl	CyDelay
 1096              	.LVL133:
 275:lib/w25qxx.c  ****     W25qxx_WaitForWriteEnd();
 1097              		.loc 1 275 0
 1098 0062 FFF7FEFF 		bl	W25qxx_WaitForWriteEnd
 1099              	.LVL134:
 276:lib/w25qxx.c  **** 	CyDelay(1);
 1100              		.loc 1 276 0
 1101 0066 0120     		movs	r0, #1
 1102 0068 FFF7FEFF 		bl	CyDelay
 1103              	.LVL135:
 277:lib/w25qxx.c  **** 	w25qxx.Lock=0;
 1104              		.loc 1 277 0
 1105 006c 0021     		movs	r1, #0
 1106 006e 2723     		movs	r3, #39
 1107 0070 014A     		ldr	r2, .L73
 1108 0072 D154     		strb	r1, [r2, r3]
 278:lib/w25qxx.c  **** }
 1109              		.loc 1 278 0
 1110              		@ sp needed
 1111              	.LVL136:
 1112 0074 10BD     		pop	{r4, pc}
 1113              	.L74:
 1114 0076 C046     		.align	2
 1115              	.L73:
 1116 0078 00000000 		.word	w25qxx
 1117              		.cfi_endproc
 1118              	.LFE69:
 1119              		.size	W25qxx_EraseSector, .-W25qxx_EraseSector
 1120              		.section	.text.W25qxx_EraseBlock,"ax",%progbits
 1121              		.align	2
 1122              		.global	W25qxx_EraseBlock
 1123              		.code	16
 1124              		.thumb_func
 1125              		.type	W25qxx_EraseBlock, %function
 1126              	W25qxx_EraseBlock:
 1127              	.LFB70:
 279:lib/w25qxx.c  **** //#################################################################################################
 280:lib/w25qxx.c  **** void W25qxx_EraseBlock(uint32_t BlockAddr)
 281:lib/w25qxx.c  **** {
 1128              		.loc 1 281 0
 1129              		.cfi_startproc
 1130              		@ args = 0, pretend = 0, frame = 0
 1131              		@ frame_needed = 0, uses_anonymous_args = 0
 1132              	.LVL137:
ARM GAS  C:\Users\luvsd\AppData\Local\Temp\cc7qBZw4.s 			page 26


 1133 0000 70B5     		push	{r4, r5, r6, lr}
 1134              		.cfi_def_cfa_offset 16
 1135              		.cfi_offset 4, -16
 1136              		.cfi_offset 5, -12
 1137              		.cfi_offset 6, -8
 1138              		.cfi_offset 14, -4
 1139 0002 0400     		movs	r4, r0
 282:lib/w25qxx.c  **** 	while(w25qxx.Lock==1)
 1140              		.loc 1 282 0
 1141 0004 02E0     		b	.L76
 1142              	.LVL138:
 1143              	.L77:
 283:lib/w25qxx.c  **** 		CyDelay(1);
 1144              		.loc 1 283 0
 1145 0006 0120     		movs	r0, #1
 1146 0008 FFF7FEFF 		bl	CyDelay
 1147              	.LVL139:
 1148              	.L76:
 282:lib/w25qxx.c  **** 	while(w25qxx.Lock==1)
 1149              		.loc 1 282 0
 1150 000c 2723     		movs	r3, #39
 1151 000e 1D4A     		ldr	r2, .L80
 1152 0010 D35C     		ldrb	r3, [r2, r3]
 1153 0012 012B     		cmp	r3, #1
 1154 0014 F7D0     		beq	.L77
 284:lib/w25qxx.c  **** 	w25qxx.Lock=1;	
 1155              		.loc 1 284 0
 1156 0016 1500     		movs	r5, r2
 1157 0018 0122     		movs	r2, #1
 1158 001a 2723     		movs	r3, #39
 1159 001c EA54     		strb	r2, [r5, r3]
 285:lib/w25qxx.c  **** 	W25qxx_WaitForWriteEnd();
 1160              		.loc 1 285 0
 1161 001e FFF7FEFF 		bl	W25qxx_WaitForWriteEnd
 1162              	.LVL140:
 286:lib/w25qxx.c  **** 	BlockAddr = BlockAddr * w25qxx.SectorSize*16;
 1163              		.loc 1 286 0
 1164 0022 2B69     		ldr	r3, [r5, #16]
 1165 0024 5C43     		muls	r4, r3
 1166              	.LVL141:
 1167 0026 2401     		lsls	r4, r4, #4
 1168              	.LVL142:
 287:lib/w25qxx.c  ****     W25qxx_WriteEnable();
 1169              		.loc 1 287 0
 1170 0028 FFF7FEFF 		bl	W25qxx_WriteEnable
 1171              	.LVL143:
 288:lib/w25qxx.c  ****     Ctrl_MEM_SS_Write(0);
 1172              		.loc 1 288 0
 1173 002c 0020     		movs	r0, #0
 1174 002e FFF7FEFF 		bl	Ctrl_MEM_SS_Write
 1175              	.LVL144:
 289:lib/w25qxx.c  ****     SPIM_FLASH_WriteByte(0xD8);
 1176              		.loc 1 289 0
 1177 0032 D820     		movs	r0, #216
 1178 0034 FFF7FEFF 		bl	SPIM_FLASH_WriteTxData
 1179              	.LVL145:
 290:lib/w25qxx.c  **** 	if(w25qxx.ID>=W25Q256)
ARM GAS  C:\Users\luvsd\AppData\Local\Temp\cc7qBZw4.s 			page 27


 1180              		.loc 1 290 0
 1181 0038 2B78     		ldrb	r3, [r5]
 1182 003a 082B     		cmp	r3, #8
 1183 003c 02D9     		bls	.L78
 291:lib/w25qxx.c  **** 		SPIM_FLASH_WriteByte((BlockAddr & 0xFF000000) >> 24);
 1184              		.loc 1 291 0
 1185 003e 200E     		lsrs	r0, r4, #24
 1186 0040 FFF7FEFF 		bl	SPIM_FLASH_WriteTxData
 1187              	.LVL146:
 1188              	.L78:
 292:lib/w25qxx.c  ****     SPIM_FLASH_WriteByte((BlockAddr & 0xFF0000) >> 16);
 1189              		.loc 1 292 0
 1190 0044 200C     		lsrs	r0, r4, #16
 1191 0046 C0B2     		uxtb	r0, r0
 1192 0048 FFF7FEFF 		bl	SPIM_FLASH_WriteTxData
 1193              	.LVL147:
 293:lib/w25qxx.c  ****     SPIM_FLASH_WriteByte((BlockAddr & 0xFF00) >> 8);
 1194              		.loc 1 293 0
 1195 004c 200A     		lsrs	r0, r4, #8
 1196 004e C0B2     		uxtb	r0, r0
 1197 0050 FFF7FEFF 		bl	SPIM_FLASH_WriteTxData
 1198              	.LVL148:
 294:lib/w25qxx.c  ****     SPIM_FLASH_WriteByte(BlockAddr & 0xFF);
 1199              		.loc 1 294 0
 1200 0054 E0B2     		uxtb	r0, r4
 1201 0056 FFF7FEFF 		bl	SPIM_FLASH_WriteTxData
 1202              	.LVL149:
 1203              	.L79:
 295:lib/w25qxx.c  ****     while(!(SPIM_FLASH_ReadTxStatus() & SPIM_FLASH_STS_SPI_DONE));
 1204              		.loc 1 295 0 discriminator 1
 1205 005a FFF7FEFF 		bl	SPIM_FLASH_ReadTxStatus
 1206              	.LVL150:
 1207 005e C307     		lsls	r3, r0, #31
 1208 0060 FBD5     		bpl	.L79
 296:lib/w25qxx.c  ****     CyDelayUs(DELAY_W25QXX);
 1209              		.loc 1 296 0
 1210 0062 0A20     		movs	r0, #10
 1211 0064 FFF7FEFF 		bl	CyDelayUs
 1212              	.LVL151:
 297:lib/w25qxx.c  ****     Ctrl_MEM_SS_Write(1);
 1213              		.loc 1 297 0
 1214 0068 0120     		movs	r0, #1
 1215 006a FFF7FEFF 		bl	Ctrl_MEM_SS_Write
 1216              	.LVL152:
 298:lib/w25qxx.c  ****     W25qxx_WaitForWriteEnd();
 1217              		.loc 1 298 0
 1218 006e FFF7FEFF 		bl	W25qxx_WaitForWriteEnd
 1219              	.LVL153:
 299:lib/w25qxx.c  **** 	CyDelay(1);
 1220              		.loc 1 299 0
 1221 0072 0120     		movs	r0, #1
 1222 0074 FFF7FEFF 		bl	CyDelay
 1223              	.LVL154:
 300:lib/w25qxx.c  **** 	w25qxx.Lock=0;
 1224              		.loc 1 300 0
 1225 0078 0021     		movs	r1, #0
 1226 007a 2723     		movs	r3, #39
ARM GAS  C:\Users\luvsd\AppData\Local\Temp\cc7qBZw4.s 			page 28


 1227 007c 014A     		ldr	r2, .L80
 1228 007e D154     		strb	r1, [r2, r3]
 301:lib/w25qxx.c  **** }
 1229              		.loc 1 301 0
 1230              		@ sp needed
 1231              	.LVL155:
 1232 0080 70BD     		pop	{r4, r5, r6, pc}
 1233              	.L81:
 1234 0082 C046     		.align	2
 1235              	.L80:
 1236 0084 00000000 		.word	w25qxx
 1237              		.cfi_endproc
 1238              	.LFE70:
 1239              		.size	W25qxx_EraseBlock, .-W25qxx_EraseBlock
 1240              		.global	__aeabi_uidiv
 1241              		.section	.text.W25qxx_PageToSector,"ax",%progbits
 1242              		.align	2
 1243              		.global	W25qxx_PageToSector
 1244              		.code	16
 1245              		.thumb_func
 1246              		.type	W25qxx_PageToSector, %function
 1247              	W25qxx_PageToSector:
 1248              	.LFB71:
 302:lib/w25qxx.c  **** //#################################################################################################
 303:lib/w25qxx.c  **** uint32_t	W25qxx_PageToSector(uint32_t	PageAddress)
 304:lib/w25qxx.c  **** {
 1249              		.loc 1 304 0
 1250              		.cfi_startproc
 1251              		@ args = 0, pretend = 0, frame = 0
 1252              		@ frame_needed = 0, uses_anonymous_args = 0
 1253              	.LVL156:
 1254 0000 10B5     		push	{r4, lr}
 1255              		.cfi_def_cfa_offset 8
 1256              		.cfi_offset 4, -8
 1257              		.cfi_offset 14, -4
 305:lib/w25qxx.c  **** 	return ((PageAddress*w25qxx.PageSize)/w25qxx.SectorSize);
 1258              		.loc 1 305 0
 1259 0002 034B     		ldr	r3, .L83
 1260 0004 5A89     		ldrh	r2, [r3, #10]
 1261 0006 5043     		muls	r0, r2
 1262              	.LVL157:
 1263 0008 1969     		ldr	r1, [r3, #16]
 1264 000a FFF7FEFF 		bl	__aeabi_uidiv
 1265              	.LVL158:
 306:lib/w25qxx.c  **** }
 1266              		.loc 1 306 0
 1267              		@ sp needed
 1268 000e 10BD     		pop	{r4, pc}
 1269              	.L84:
 1270              		.align	2
 1271              	.L83:
 1272 0010 00000000 		.word	w25qxx
 1273              		.cfi_endproc
 1274              	.LFE71:
 1275              		.size	W25qxx_PageToSector, .-W25qxx_PageToSector
 1276              		.section	.text.W25qxx_PageToBlock,"ax",%progbits
 1277              		.align	2
ARM GAS  C:\Users\luvsd\AppData\Local\Temp\cc7qBZw4.s 			page 29


 1278              		.global	W25qxx_PageToBlock
 1279              		.code	16
 1280              		.thumb_func
 1281              		.type	W25qxx_PageToBlock, %function
 1282              	W25qxx_PageToBlock:
 1283              	.LFB72:
 307:lib/w25qxx.c  **** //#################################################################################################
 308:lib/w25qxx.c  **** uint32_t	W25qxx_PageToBlock(uint32_t	PageAddress)
 309:lib/w25qxx.c  **** {
 1284              		.loc 1 309 0
 1285              		.cfi_startproc
 1286              		@ args = 0, pretend = 0, frame = 0
 1287              		@ frame_needed = 0, uses_anonymous_args = 0
 1288              	.LVL159:
 1289 0000 10B5     		push	{r4, lr}
 1290              		.cfi_def_cfa_offset 8
 1291              		.cfi_offset 4, -8
 1292              		.cfi_offset 14, -4
 310:lib/w25qxx.c  **** 	return ((PageAddress*w25qxx.PageSize)/w25qxx.BlockSize);
 1293              		.loc 1 310 0
 1294 0002 034B     		ldr	r3, .L86
 1295 0004 5A89     		ldrh	r2, [r3, #10]
 1296 0006 5043     		muls	r0, r2
 1297              	.LVL160:
 1298 0008 9969     		ldr	r1, [r3, #24]
 1299 000a FFF7FEFF 		bl	__aeabi_uidiv
 1300              	.LVL161:
 311:lib/w25qxx.c  **** }
 1301              		.loc 1 311 0
 1302              		@ sp needed
 1303 000e 10BD     		pop	{r4, pc}
 1304              	.L87:
 1305              		.align	2
 1306              	.L86:
 1307 0010 00000000 		.word	w25qxx
 1308              		.cfi_endproc
 1309              	.LFE72:
 1310              		.size	W25qxx_PageToBlock, .-W25qxx_PageToBlock
 1311              		.section	.text.W25qxx_SectorToBlock,"ax",%progbits
 1312              		.align	2
 1313              		.global	W25qxx_SectorToBlock
 1314              		.code	16
 1315              		.thumb_func
 1316              		.type	W25qxx_SectorToBlock, %function
 1317              	W25qxx_SectorToBlock:
 1318              	.LFB73:
 312:lib/w25qxx.c  **** //#################################################################################################
 313:lib/w25qxx.c  **** uint32_t	W25qxx_SectorToBlock(uint32_t	SectorAddress)
 314:lib/w25qxx.c  **** {
 1319              		.loc 1 314 0
 1320              		.cfi_startproc
 1321              		@ args = 0, pretend = 0, frame = 0
 1322              		@ frame_needed = 0, uses_anonymous_args = 0
 1323              	.LVL162:
 1324 0000 10B5     		push	{r4, lr}
 1325              		.cfi_def_cfa_offset 8
 1326              		.cfi_offset 4, -8
ARM GAS  C:\Users\luvsd\AppData\Local\Temp\cc7qBZw4.s 			page 30


 1327              		.cfi_offset 14, -4
 315:lib/w25qxx.c  **** 	return ((SectorAddress*w25qxx.SectorSize)/w25qxx.BlockSize);
 1328              		.loc 1 315 0
 1329 0002 034B     		ldr	r3, .L89
 1330 0004 1A69     		ldr	r2, [r3, #16]
 1331 0006 5043     		muls	r0, r2
 1332              	.LVL163:
 1333 0008 9969     		ldr	r1, [r3, #24]
 1334 000a FFF7FEFF 		bl	__aeabi_uidiv
 1335              	.LVL164:
 316:lib/w25qxx.c  **** }
 1336              		.loc 1 316 0
 1337              		@ sp needed
 1338 000e 10BD     		pop	{r4, pc}
 1339              	.L90:
 1340              		.align	2
 1341              	.L89:
 1342 0010 00000000 		.word	w25qxx
 1343              		.cfi_endproc
 1344              	.LFE73:
 1345              		.size	W25qxx_SectorToBlock, .-W25qxx_SectorToBlock
 1346              		.section	.text.W25qxx_SectorToPage,"ax",%progbits
 1347              		.align	2
 1348              		.global	W25qxx_SectorToPage
 1349              		.code	16
 1350              		.thumb_func
 1351              		.type	W25qxx_SectorToPage, %function
 1352              	W25qxx_SectorToPage:
 1353              	.LFB74:
 317:lib/w25qxx.c  **** //#################################################################################################
 318:lib/w25qxx.c  **** uint32_t	W25qxx_SectorToPage(uint32_t	SectorAddress)
 319:lib/w25qxx.c  **** {
 1354              		.loc 1 319 0
 1355              		.cfi_startproc
 1356              		@ args = 0, pretend = 0, frame = 0
 1357              		@ frame_needed = 0, uses_anonymous_args = 0
 1358              	.LVL165:
 1359 0000 10B5     		push	{r4, lr}
 1360              		.cfi_def_cfa_offset 8
 1361              		.cfi_offset 4, -8
 1362              		.cfi_offset 14, -4
 320:lib/w25qxx.c  **** 	return (SectorAddress*w25qxx.SectorSize)/w25qxx.PageSize;
 1363              		.loc 1 320 0
 1364 0002 034B     		ldr	r3, .L92
 1365 0004 1A69     		ldr	r2, [r3, #16]
 1366 0006 5043     		muls	r0, r2
 1367              	.LVL166:
 1368 0008 5989     		ldrh	r1, [r3, #10]
 1369 000a FFF7FEFF 		bl	__aeabi_uidiv
 1370              	.LVL167:
 321:lib/w25qxx.c  **** }
 1371              		.loc 1 321 0
 1372              		@ sp needed
 1373 000e 10BD     		pop	{r4, pc}
 1374              	.L93:
 1375              		.align	2
 1376              	.L92:
ARM GAS  C:\Users\luvsd\AppData\Local\Temp\cc7qBZw4.s 			page 31


 1377 0010 00000000 		.word	w25qxx
 1378              		.cfi_endproc
 1379              	.LFE74:
 1380              		.size	W25qxx_SectorToPage, .-W25qxx_SectorToPage
 1381              		.section	.text.W25qxx_BlockToPage,"ax",%progbits
 1382              		.align	2
 1383              		.global	W25qxx_BlockToPage
 1384              		.code	16
 1385              		.thumb_func
 1386              		.type	W25qxx_BlockToPage, %function
 1387              	W25qxx_BlockToPage:
 1388              	.LFB75:
 322:lib/w25qxx.c  **** //#################################################################################################
 323:lib/w25qxx.c  **** uint32_t	W25qxx_BlockToPage(uint32_t	BlockAddress)
 324:lib/w25qxx.c  **** {
 1389              		.loc 1 324 0
 1390              		.cfi_startproc
 1391              		@ args = 0, pretend = 0, frame = 0
 1392              		@ frame_needed = 0, uses_anonymous_args = 0
 1393              	.LVL168:
 1394 0000 10B5     		push	{r4, lr}
 1395              		.cfi_def_cfa_offset 8
 1396              		.cfi_offset 4, -8
 1397              		.cfi_offset 14, -4
 325:lib/w25qxx.c  **** 	return (BlockAddress*w25qxx.BlockSize)/w25qxx.PageSize;
 1398              		.loc 1 325 0
 1399 0002 034B     		ldr	r3, .L95
 1400 0004 9A69     		ldr	r2, [r3, #24]
 1401 0006 5043     		muls	r0, r2
 1402              	.LVL169:
 1403 0008 5989     		ldrh	r1, [r3, #10]
 1404 000a FFF7FEFF 		bl	__aeabi_uidiv
 1405              	.LVL170:
 326:lib/w25qxx.c  **** }
 1406              		.loc 1 326 0
 1407              		@ sp needed
 1408 000e 10BD     		pop	{r4, pc}
 1409              	.L96:
 1410              		.align	2
 1411              	.L95:
 1412 0010 00000000 		.word	w25qxx
 1413              		.cfi_endproc
 1414              	.LFE75:
 1415              		.size	W25qxx_BlockToPage, .-W25qxx_BlockToPage
 1416              		.section	.text.W25qxx_WriteByte,"ax",%progbits
 1417              		.align	2
 1418              		.global	W25qxx_WriteByte
 1419              		.code	16
 1420              		.thumb_func
 1421              		.type	W25qxx_WriteByte, %function
 1422              	W25qxx_WriteByte:
 1423              	.LFB76:
 327:lib/w25qxx.c  **** 
 328:lib/w25qxx.c  **** //#################################################################################################
 329:lib/w25qxx.c  **** void W25qxx_WriteByte(uint8_t pBuffer, uint32_t WriteAddr_inBytes)
 330:lib/w25qxx.c  **** {
 1424              		.loc 1 330 0
ARM GAS  C:\Users\luvsd\AppData\Local\Temp\cc7qBZw4.s 			page 32


 1425              		.cfi_startproc
 1426              		@ args = 0, pretend = 0, frame = 0
 1427              		@ frame_needed = 0, uses_anonymous_args = 0
 1428              	.LVL171:
 1429 0000 70B5     		push	{r4, r5, r6, lr}
 1430              		.cfi_def_cfa_offset 16
 1431              		.cfi_offset 4, -16
 1432              		.cfi_offset 5, -12
 1433              		.cfi_offset 6, -8
 1434              		.cfi_offset 14, -4
 1435 0002 0400     		movs	r4, r0
 1436 0004 0D00     		movs	r5, r1
 331:lib/w25qxx.c  **** 	while(w25qxx.Lock==1)
 1437              		.loc 1 331 0
 1438 0006 02E0     		b	.L98
 1439              	.LVL172:
 1440              	.L99:
 332:lib/w25qxx.c  **** 		CyDelay(1);
 1441              		.loc 1 332 0
 1442 0008 0120     		movs	r0, #1
 1443 000a FFF7FEFF 		bl	CyDelay
 1444              	.LVL173:
 1445              	.L98:
 331:lib/w25qxx.c  **** 	while(w25qxx.Lock==1)
 1446              		.loc 1 331 0
 1447 000e 2723     		movs	r3, #39
 1448 0010 1B4A     		ldr	r2, .L102
 1449 0012 D35C     		ldrb	r3, [r2, r3]
 1450 0014 012B     		cmp	r3, #1
 1451 0016 F7D0     		beq	.L99
 333:lib/w25qxx.c  **** 	w25qxx.Lock=1;
 1452              		.loc 1 333 0
 1453 0018 1600     		movs	r6, r2
 1454 001a 0122     		movs	r2, #1
 1455 001c 2723     		movs	r3, #39
 1456 001e F254     		strb	r2, [r6, r3]
 334:lib/w25qxx.c  **** 	W25qxx_WaitForWriteEnd();
 1457              		.loc 1 334 0
 1458 0020 FFF7FEFF 		bl	W25qxx_WaitForWriteEnd
 1459              	.LVL174:
 335:lib/w25qxx.c  ****     
 336:lib/w25qxx.c  ****     W25qxx_WriteEnable();
 1460              		.loc 1 336 0
 1461 0024 FFF7FEFF 		bl	W25qxx_WriteEnable
 1462              	.LVL175:
 337:lib/w25qxx.c  ****     Ctrl_MEM_SS_Write(0);
 1463              		.loc 1 337 0
 1464 0028 0020     		movs	r0, #0
 1465 002a FFF7FEFF 		bl	Ctrl_MEM_SS_Write
 1466              	.LVL176:
 338:lib/w25qxx.c  ****     SPIM_FLASH_WriteByte(0x02);
 1467              		.loc 1 338 0
 1468 002e 0220     		movs	r0, #2
 1469 0030 FFF7FEFF 		bl	SPIM_FLASH_WriteTxData
 1470              	.LVL177:
 339:lib/w25qxx.c  **** 	if(w25qxx.ID>=W25Q256)
 1471              		.loc 1 339 0
ARM GAS  C:\Users\luvsd\AppData\Local\Temp\cc7qBZw4.s 			page 33


 1472 0034 3378     		ldrb	r3, [r6]
 1473 0036 082B     		cmp	r3, #8
 1474 0038 02D9     		bls	.L100
 340:lib/w25qxx.c  **** 		SPIM_FLASH_WriteByte((WriteAddr_inBytes & 0xFF000000) >> 24);
 1475              		.loc 1 340 0
 1476 003a 280E     		lsrs	r0, r5, #24
 1477 003c FFF7FEFF 		bl	SPIM_FLASH_WriteTxData
 1478              	.LVL178:
 1479              	.L100:
 341:lib/w25qxx.c  ****     SPIM_FLASH_WriteByte((WriteAddr_inBytes & 0xFF0000) >> 16);
 1480              		.loc 1 341 0
 1481 0040 280C     		lsrs	r0, r5, #16
 1482 0042 C0B2     		uxtb	r0, r0
 1483 0044 FFF7FEFF 		bl	SPIM_FLASH_WriteTxData
 1484              	.LVL179:
 342:lib/w25qxx.c  ****     SPIM_FLASH_WriteByte((WriteAddr_inBytes & 0xFF00) >> 8);
 1485              		.loc 1 342 0
 1486 0048 280A     		lsrs	r0, r5, #8
 1487 004a C0B2     		uxtb	r0, r0
 1488 004c FFF7FEFF 		bl	SPIM_FLASH_WriteTxData
 1489              	.LVL180:
 343:lib/w25qxx.c  ****     SPIM_FLASH_WriteByte(WriteAddr_inBytes & 0xFF);
 1490              		.loc 1 343 0
 1491 0050 E8B2     		uxtb	r0, r5
 1492 0052 FFF7FEFF 		bl	SPIM_FLASH_WriteTxData
 1493              	.LVL181:
 344:lib/w25qxx.c  ****     SPIM_FLASH_WriteByte(pBuffer);
 1494              		.loc 1 344 0
 1495 0056 2000     		movs	r0, r4
 1496 0058 FFF7FEFF 		bl	SPIM_FLASH_WriteTxData
 1497              	.LVL182:
 1498              	.L101:
 345:lib/w25qxx.c  ****     while(!(SPIM_FLASH_ReadTxStatus() & SPIM_FLASH_STS_SPI_DONE));
 1499              		.loc 1 345 0 discriminator 1
 1500 005c FFF7FEFF 		bl	SPIM_FLASH_ReadTxStatus
 1501              	.LVL183:
 1502 0060 C307     		lsls	r3, r0, #31
 1503 0062 FBD5     		bpl	.L101
 346:lib/w25qxx.c  ****     CyDelayUs(DELAY_W25QXX);
 1504              		.loc 1 346 0
 1505 0064 0A20     		movs	r0, #10
 1506 0066 FFF7FEFF 		bl	CyDelayUs
 1507              	.LVL184:
 347:lib/w25qxx.c  ****     Ctrl_MEM_SS_Write(1);
 1508              		.loc 1 347 0
 1509 006a 0120     		movs	r0, #1
 1510 006c FFF7FEFF 		bl	Ctrl_MEM_SS_Write
 1511              	.LVL185:
 348:lib/w25qxx.c  ****     W25qxx_WaitForWriteEnd();
 1512              		.loc 1 348 0
 1513 0070 FFF7FEFF 		bl	W25qxx_WaitForWriteEnd
 1514              	.LVL186:
 349:lib/w25qxx.c  **** 	w25qxx.Lock=0;
 1515              		.loc 1 349 0
 1516 0074 0021     		movs	r1, #0
 1517 0076 2723     		movs	r3, #39
 1518 0078 014A     		ldr	r2, .L102
ARM GAS  C:\Users\luvsd\AppData\Local\Temp\cc7qBZw4.s 			page 34


 1519 007a D154     		strb	r1, [r2, r3]
 350:lib/w25qxx.c  **** }
 1520              		.loc 1 350 0
 1521              		@ sp needed
 1522              	.LVL187:
 1523 007c 70BD     		pop	{r4, r5, r6, pc}
 1524              	.L103:
 1525 007e C046     		.align	2
 1526              	.L102:
 1527 0080 00000000 		.word	w25qxx
 1528              		.cfi_endproc
 1529              	.LFE76:
 1530              		.size	W25qxx_WriteByte, .-W25qxx_WriteByte
 1531              		.section	.text.W25qxx_WritePage,"ax",%progbits
 1532              		.align	2
 1533              		.global	W25qxx_WritePage
 1534              		.code	16
 1535              		.thumb_func
 1536              		.type	W25qxx_WritePage, %function
 1537              	W25qxx_WritePage:
 1538              	.LFB77:
 351:lib/w25qxx.c  **** //#################################################################################################
 352:lib/w25qxx.c  **** void 	W25qxx_WritePage(uint8_t *pBuffer	,uint32_t Page_Address,uint32_t OffsetInByte,uint32_t NumBy
 353:lib/w25qxx.c  **** {
 1539              		.loc 1 353 0
 1540              		.cfi_startproc
 1541              		@ args = 0, pretend = 0, frame = 0
 1542              		@ frame_needed = 0, uses_anonymous_args = 0
 1543              	.LVL188:
 1544 0000 F8B5     		push	{r3, r4, r5, r6, r7, lr}
 1545              		.cfi_def_cfa_offset 24
 1546              		.cfi_offset 3, -24
 1547              		.cfi_offset 4, -20
 1548              		.cfi_offset 5, -16
 1549              		.cfi_offset 6, -12
 1550              		.cfi_offset 7, -8
 1551              		.cfi_offset 14, -4
 1552 0002 0500     		movs	r5, r0
 1553 0004 0E00     		movs	r6, r1
 1554 0006 1400     		movs	r4, r2
 1555 0008 1F00     		movs	r7, r3
 354:lib/w25qxx.c  ****     uint32_t i;
 355:lib/w25qxx.c  **** 	while(w25qxx.Lock==1)
 1556              		.loc 1 355 0
 1557 000a 02E0     		b	.L105
 1558              	.LVL189:
 1559              	.L106:
 356:lib/w25qxx.c  **** 		CyDelay(1);
 1560              		.loc 1 356 0
 1561 000c 0120     		movs	r0, #1
 1562 000e FFF7FEFF 		bl	CyDelay
 1563              	.LVL190:
 1564              	.L105:
 355:lib/w25qxx.c  **** 		CyDelay(1);
 1565              		.loc 1 355 0
 1566 0012 2723     		movs	r3, #39
 1567 0014 274A     		ldr	r2, .L114
ARM GAS  C:\Users\luvsd\AppData\Local\Temp\cc7qBZw4.s 			page 35


 1568 0016 D35C     		ldrb	r3, [r2, r3]
 1569 0018 012B     		cmp	r3, #1
 1570 001a F7D0     		beq	.L106
 357:lib/w25qxx.c  **** 	w25qxx.Lock=1;
 1571              		.loc 1 357 0
 1572 001c 1300     		movs	r3, r2
 1573 001e 0121     		movs	r1, #1
 1574 0020 2722     		movs	r2, #39
 1575 0022 9954     		strb	r1, [r3, r2]
 358:lib/w25qxx.c  **** 	if(((NumByteToWrite_up_to_PageSize+OffsetInByte)>w25qxx.PageSize)||(NumByteToWrite_up_to_PageSize=
 1576              		.loc 1 358 0
 1577 0024 3A19     		adds	r2, r7, r4
 1578 0026 5B89     		ldrh	r3, [r3, #10]
 1579 0028 9A42     		cmp	r2, r3
 1580 002a 01D8     		bhi	.L107
 1581              		.loc 1 358 0 is_stmt 0 discriminator 1
 1582 002c 002F     		cmp	r7, #0
 1583 002e 00D1     		bne	.L108
 1584              	.L107:
 359:lib/w25qxx.c  **** 		NumByteToWrite_up_to_PageSize=w25qxx.PageSize-OffsetInByte;
 1585              		.loc 1 359 0 is_stmt 1
 1586 0030 1F1B     		subs	r7, r3, r4
 1587              	.LVL191:
 1588              	.L108:
 360:lib/w25qxx.c  **** 	if((OffsetInByte+NumByteToWrite_up_to_PageSize) > w25qxx.PageSize)
 1589              		.loc 1 360 0
 1590 0032 3A19     		adds	r2, r7, r4
 1591 0034 9342     		cmp	r3, r2
 1592 0036 00D2     		bcs	.L109
 361:lib/w25qxx.c  **** 		NumByteToWrite_up_to_PageSize = w25qxx.PageSize-OffsetInByte;
 1593              		.loc 1 361 0
 1594 0038 1F1B     		subs	r7, r3, r4
 1595              	.LVL192:
 1596              	.L109:
 362:lib/w25qxx.c  **** 	W25qxx_WaitForWriteEnd();
 1597              		.loc 1 362 0
 1598 003a FFF7FEFF 		bl	W25qxx_WaitForWriteEnd
 1599              	.LVL193:
 363:lib/w25qxx.c  ****     W25qxx_WriteEnable();
 1600              		.loc 1 363 0
 1601 003e FFF7FEFF 		bl	W25qxx_WriteEnable
 1602              	.LVL194:
 364:lib/w25qxx.c  ****     Ctrl_MEM_SS_Write(0);
 1603              		.loc 1 364 0
 1604 0042 0020     		movs	r0, #0
 1605 0044 FFF7FEFF 		bl	Ctrl_MEM_SS_Write
 1606              	.LVL195:
 365:lib/w25qxx.c  ****     SPIM_FLASH_WriteByte(0x02);
 1607              		.loc 1 365 0
 1608 0048 0220     		movs	r0, #2
 1609 004a FFF7FEFF 		bl	SPIM_FLASH_WriteTxData
 1610              	.LVL196:
 366:lib/w25qxx.c  **** 	Page_Address = (Page_Address*w25qxx.PageSize)+OffsetInByte;	
 1611              		.loc 1 366 0
 1612 004e 194B     		ldr	r3, .L114
 1613 0050 5889     		ldrh	r0, [r3, #10]
 1614 0052 4643     		muls	r6, r0
ARM GAS  C:\Users\luvsd\AppData\Local\Temp\cc7qBZw4.s 			page 36


 1615              	.LVL197:
 1616 0054 A419     		adds	r4, r4, r6
 1617              	.LVL198:
 367:lib/w25qxx.c  **** 	if(w25qxx.ID>=W25Q256)
 1618              		.loc 1 367 0
 1619 0056 1B78     		ldrb	r3, [r3]
 1620 0058 082B     		cmp	r3, #8
 1621 005a 02D9     		bls	.L110
 368:lib/w25qxx.c  **** 		SPIM_FLASH_WriteByte((Page_Address & 0xFF000000) >> 24);
 1622              		.loc 1 368 0
 1623 005c 200E     		lsrs	r0, r4, #24
 1624 005e FFF7FEFF 		bl	SPIM_FLASH_WriteTxData
 1625              	.LVL199:
 1626              	.L110:
 369:lib/w25qxx.c  ****     SPIM_FLASH_WriteByte((Page_Address & 0xFF0000) >> 16);
 1627              		.loc 1 369 0
 1628 0062 200C     		lsrs	r0, r4, #16
 1629 0064 C0B2     		uxtb	r0, r0
 1630 0066 FFF7FEFF 		bl	SPIM_FLASH_WriteTxData
 1631              	.LVL200:
 370:lib/w25qxx.c  ****     SPIM_FLASH_WriteByte((Page_Address & 0xFF00) >> 8);
 1632              		.loc 1 370 0
 1633 006a 200A     		lsrs	r0, r4, #8
 1634 006c C0B2     		uxtb	r0, r0
 1635 006e FFF7FEFF 		bl	SPIM_FLASH_WriteTxData
 1636              	.LVL201:
 371:lib/w25qxx.c  ****     SPIM_FLASH_WriteByte(Page_Address&0xFF);
 1637              		.loc 1 371 0
 1638 0072 E0B2     		uxtb	r0, r4
 1639 0074 FFF7FEFF 		bl	SPIM_FLASH_WriteTxData
 1640              	.LVL202:
 372:lib/w25qxx.c  **** 	//HAL_SPI_Transmit(&_W25QXX_SPI,pBuffer,NumByteToWrite_up_to_PageSize,100);
 373:lib/w25qxx.c  ****     for(i = 0; i < NumByteToWrite_up_to_PageSize; i++)
 1641              		.loc 1 373 0
 1642 0078 0024     		movs	r4, #0
 1643              	.LVL203:
 1644 007a 05E0     		b	.L111
 1645              	.LVL204:
 1646              	.L112:
 374:lib/w25qxx.c  ****     {
 375:lib/w25qxx.c  ****         SPIM_FLASH_WriteByte(*pBuffer++);
 1647              		.loc 1 375 0 discriminator 3
 1648 007c 6E1C     		adds	r6, r5, #1
 1649              	.LVL205:
 1650 007e 2878     		ldrb	r0, [r5]
 1651 0080 FFF7FEFF 		bl	SPIM_FLASH_WriteTxData
 1652              	.LVL206:
 373:lib/w25qxx.c  ****     {
 1653              		.loc 1 373 0 discriminator 3
 1654 0084 0134     		adds	r4, r4, #1
 1655              	.LVL207:
 1656              		.loc 1 375 0 discriminator 3
 1657 0086 3500     		movs	r5, r6
 1658              	.LVL208:
 1659              	.L111:
 373:lib/w25qxx.c  ****     {
 1660              		.loc 1 373 0 discriminator 1
ARM GAS  C:\Users\luvsd\AppData\Local\Temp\cc7qBZw4.s 			page 37


 1661 0088 A742     		cmp	r7, r4
 1662 008a F7D8     		bhi	.L112
 1663              	.L113:
 376:lib/w25qxx.c  ****     }
 377:lib/w25qxx.c  ****     while(!(SPIM_FLASH_ReadTxStatus() & SPIM_FLASH_STS_SPI_DONE));
 1664              		.loc 1 377 0 discriminator 1
 1665 008c FFF7FEFF 		bl	SPIM_FLASH_ReadTxStatus
 1666              	.LVL209:
 1667 0090 C307     		lsls	r3, r0, #31
 1668 0092 FBD5     		bpl	.L113
 378:lib/w25qxx.c  ****     CyDelayUs(DELAY_W25QXX);
 1669              		.loc 1 378 0
 1670 0094 0A20     		movs	r0, #10
 1671 0096 FFF7FEFF 		bl	CyDelayUs
 1672              	.LVL210:
 379:lib/w25qxx.c  ****     Ctrl_MEM_SS_Write(1);
 1673              		.loc 1 379 0
 1674 009a 0120     		movs	r0, #1
 1675 009c FFF7FEFF 		bl	Ctrl_MEM_SS_Write
 1676              	.LVL211:
 380:lib/w25qxx.c  ****     W25qxx_WaitForWriteEnd();
 1677              		.loc 1 380 0
 1678 00a0 FFF7FEFF 		bl	W25qxx_WaitForWriteEnd
 1679              	.LVL212:
 381:lib/w25qxx.c  **** 	CyDelay(1);
 1680              		.loc 1 381 0
 1681 00a4 0120     		movs	r0, #1
 1682 00a6 FFF7FEFF 		bl	CyDelay
 1683              	.LVL213:
 382:lib/w25qxx.c  **** 	w25qxx.Lock=0;
 1684              		.loc 1 382 0
 1685 00aa 0021     		movs	r1, #0
 1686 00ac 2723     		movs	r3, #39
 1687 00ae 014A     		ldr	r2, .L114
 1688 00b0 D154     		strb	r1, [r2, r3]
 383:lib/w25qxx.c  **** }
 1689              		.loc 1 383 0
 1690              		@ sp needed
 1691              	.LVL214:
 1692              	.LVL215:
 1693              	.LVL216:
 1694 00b2 F8BD     		pop	{r3, r4, r5, r6, r7, pc}
 1695              	.L115:
 1696              		.align	2
 1697              	.L114:
 1698 00b4 00000000 		.word	w25qxx
 1699              		.cfi_endproc
 1700              	.LFE77:
 1701              		.size	W25qxx_WritePage, .-W25qxx_WritePage
 1702              		.global	__aeabi_uidivmod
 1703              		.section	.text.W25qxx_WriteSector,"ax",%progbits
 1704              		.align	2
 1705              		.global	W25qxx_WriteSector
 1706              		.code	16
 1707              		.thumb_func
 1708              		.type	W25qxx_WriteSector, %function
 1709              	W25qxx_WriteSector:
ARM GAS  C:\Users\luvsd\AppData\Local\Temp\cc7qBZw4.s 			page 38


 1710              	.LFB78:
 384:lib/w25qxx.c  **** //#################################################################################################
 385:lib/w25qxx.c  **** void 	W25qxx_WriteSector(uint8_t *pBuffer	,uint32_t Sector_Address,uint32_t OffsetInByte	,uint32_t 
 386:lib/w25qxx.c  **** {
 1711              		.loc 1 386 0
 1712              		.cfi_startproc
 1713              		@ args = 0, pretend = 0, frame = 8
 1714              		@ frame_needed = 0, uses_anonymous_args = 0
 1715              	.LVL217:
 1716 0000 F0B5     		push	{r4, r5, r6, r7, lr}
 1717              		.cfi_def_cfa_offset 20
 1718              		.cfi_offset 4, -20
 1719              		.cfi_offset 5, -16
 1720              		.cfi_offset 6, -12
 1721              		.cfi_offset 7, -8
 1722              		.cfi_offset 14, -4
 1723 0002 83B0     		sub	sp, sp, #12
 1724              		.cfi_def_cfa_offset 32
 1725 0004 0700     		movs	r7, r0
 1726 0006 1500     		movs	r5, r2
 387:lib/w25qxx.c  **** 	if((NumByteToWrite_up_to_SectorSize>w25qxx.SectorSize)||(NumByteToWrite_up_to_SectorSize==0))
 1727              		.loc 1 387 0
 1728 0008 1A4A     		ldr	r2, .L124
 1729              	.LVL218:
 1730 000a 1269     		ldr	r2, [r2, #16]
 1731 000c 9A42     		cmp	r2, r3
 1732 000e 02D3     		bcc	.L122
 1733              		.loc 1 387 0 is_stmt 0 discriminator 1
 1734 0010 002B     		cmp	r3, #0
 1735 0012 02D0     		beq	.L123
 1736 0014 02E0     		b	.L117
 1737              	.L122:
 388:lib/w25qxx.c  **** 		NumByteToWrite_up_to_SectorSize=w25qxx.SectorSize;
 1738              		.loc 1 388 0 is_stmt 1
 1739 0016 1300     		movs	r3, r2
 1740              	.LVL219:
 1741 0018 00E0     		b	.L117
 1742              	.LVL220:
 1743              	.L123:
 1744 001a 1300     		movs	r3, r2
 1745              	.LVL221:
 1746              	.L117:
 389:lib/w25qxx.c  **** 	if(OffsetInByte>=w25qxx.SectorSize)
 1747              		.loc 1 389 0
 1748 001c AA42     		cmp	r2, r5
 1749 001e 26D9     		bls	.L116
 390:lib/w25qxx.c  **** 	{
 391:lib/w25qxx.c  **** 		return;
 392:lib/w25qxx.c  **** 	}	
 393:lib/w25qxx.c  **** 	uint32_t	StartPage;
 394:lib/w25qxx.c  **** 	int32_t		BytesToWrite;
 395:lib/w25qxx.c  **** 	uint32_t	LocalOffset;	
 396:lib/w25qxx.c  **** 	if((OffsetInByte+NumByteToWrite_up_to_SectorSize) > w25qxx.SectorSize)
 1750              		.loc 1 396 0
 1751 0020 5819     		adds	r0, r3, r5
 1752              	.LVL222:
 1753 0022 8242     		cmp	r2, r0
ARM GAS  C:\Users\luvsd\AppData\Local\Temp\cc7qBZw4.s 			page 39


 1754 0024 01D2     		bcs	.L119
 397:lib/w25qxx.c  **** 		BytesToWrite = w25qxx.SectorSize-OffsetInByte;
 1755              		.loc 1 397 0
 1756 0026 541B     		subs	r4, r2, r5
 1757              	.LVL223:
 1758 0028 00E0     		b	.L120
 1759              	.LVL224:
 1760              	.L119:
 398:lib/w25qxx.c  **** 	else
 399:lib/w25qxx.c  **** 		BytesToWrite = NumByteToWrite_up_to_SectorSize;	
 1761              		.loc 1 399 0
 1762 002a 1C00     		movs	r4, r3
 1763              	.LVL225:
 1764              	.L120:
 400:lib/w25qxx.c  **** 	StartPage = W25qxx_SectorToPage(Sector_Address)+(OffsetInByte/w25qxx.PageSize);
 1765              		.loc 1 400 0
 1766 002c 0800     		movs	r0, r1
 1767 002e FFF7FEFF 		bl	W25qxx_SectorToPage
 1768              	.LVL226:
 1769 0032 0600     		movs	r6, r0
 1770 0034 0F4B     		ldr	r3, .L124
 1771 0036 5B89     		ldrh	r3, [r3, #10]
 1772 0038 0193     		str	r3, [sp, #4]
 1773 003a 1900     		movs	r1, r3
 1774 003c 2800     		movs	r0, r5
 1775 003e FFF7FEFF 		bl	__aeabi_uidiv
 1776              	.LVL227:
 1777 0042 3618     		adds	r6, r6, r0
 1778              	.LVL228:
 401:lib/w25qxx.c  **** 	LocalOffset = OffsetInByte%w25qxx.PageSize;	
 1779              		.loc 1 401 0
 1780 0044 0199     		ldr	r1, [sp, #4]
 1781 0046 2800     		movs	r0, r5
 1782 0048 FFF7FEFF 		bl	__aeabi_uidivmod
 1783              	.LVL229:
 1784 004c 0D00     		movs	r5, r1
 1785              	.LVL230:
 1786              	.L121:
 402:lib/w25qxx.c  **** 	do
 403:lib/w25qxx.c  **** 	{		
 404:lib/w25qxx.c  **** 		W25qxx_WritePage(pBuffer,StartPage,LocalOffset,BytesToWrite);
 1787              		.loc 1 404 0 discriminator 1
 1788 004e 2300     		movs	r3, r4
 1789 0050 2A00     		movs	r2, r5
 1790 0052 3100     		movs	r1, r6
 1791 0054 3800     		movs	r0, r7
 1792 0056 FFF7FEFF 		bl	W25qxx_WritePage
 1793              	.LVL231:
 405:lib/w25qxx.c  **** 		StartPage++;
 1794              		.loc 1 405 0 discriminator 1
 1795 005a 0136     		adds	r6, r6, #1
 1796              	.LVL232:
 406:lib/w25qxx.c  **** 		BytesToWrite-=w25qxx.PageSize-LocalOffset;
 1797              		.loc 1 406 0 discriminator 1
 1798 005c 054B     		ldr	r3, .L124
 1799 005e 5A89     		ldrh	r2, [r3, #10]
 1800 0060 AB1A     		subs	r3, r5, r2
ARM GAS  C:\Users\luvsd\AppData\Local\Temp\cc7qBZw4.s 			page 40


 1801 0062 E418     		adds	r4, r4, r3
 1802              	.LVL233:
 407:lib/w25qxx.c  **** 		pBuffer += w25qxx.PageSize - LocalOffset;
 1803              		.loc 1 407 0 discriminator 1
 1804 0064 521B     		subs	r2, r2, r5
 1805 0066 BF18     		adds	r7, r7, r2
 1806              	.LVL234:
 408:lib/w25qxx.c  **** 		LocalOffset=0;
 1807              		.loc 1 408 0 discriminator 1
 1808 0068 0025     		movs	r5, #0
 409:lib/w25qxx.c  **** 	}while(BytesToWrite>0);	
 1809              		.loc 1 409 0 discriminator 1
 1810 006a 002C     		cmp	r4, #0
 1811 006c EFDC     		bgt	.L121
 1812              	.LVL235:
 1813              	.L116:
 410:lib/w25qxx.c  **** }
 1814              		.loc 1 410 0
 1815 006e 03B0     		add	sp, sp, #12
 1816              		@ sp needed
 1817              	.LVL236:
 1818 0070 F0BD     		pop	{r4, r5, r6, r7, pc}
 1819              	.L125:
 1820 0072 C046     		.align	2
 1821              	.L124:
 1822 0074 00000000 		.word	w25qxx
 1823              		.cfi_endproc
 1824              	.LFE78:
 1825              		.size	W25qxx_WriteSector, .-W25qxx_WriteSector
 1826              		.section	.text.W25qxx_WriteBlock,"ax",%progbits
 1827              		.align	2
 1828              		.global	W25qxx_WriteBlock
 1829              		.code	16
 1830              		.thumb_func
 1831              		.type	W25qxx_WriteBlock, %function
 1832              	W25qxx_WriteBlock:
 1833              	.LFB79:
 411:lib/w25qxx.c  **** //#################################################################################################
 412:lib/w25qxx.c  **** void 	W25qxx_WriteBlock	(uint8_t* pBuffer ,uint32_t Block_Address	,uint32_t OffsetInByte	,uint32_t	
 413:lib/w25qxx.c  **** {
 1834              		.loc 1 413 0
 1835              		.cfi_startproc
 1836              		@ args = 0, pretend = 0, frame = 8
 1837              		@ frame_needed = 0, uses_anonymous_args = 0
 1838              	.LVL237:
 1839 0000 F0B5     		push	{r4, r5, r6, r7, lr}
 1840              		.cfi_def_cfa_offset 20
 1841              		.cfi_offset 4, -20
 1842              		.cfi_offset 5, -16
 1843              		.cfi_offset 6, -12
 1844              		.cfi_offset 7, -8
 1845              		.cfi_offset 14, -4
 1846 0002 83B0     		sub	sp, sp, #12
 1847              		.cfi_def_cfa_offset 32
 1848 0004 0700     		movs	r7, r0
 1849 0006 1500     		movs	r5, r2
 414:lib/w25qxx.c  **** 	if((NumByteToWrite_up_to_BlockSize>w25qxx.BlockSize)||(NumByteToWrite_up_to_BlockSize==0))
ARM GAS  C:\Users\luvsd\AppData\Local\Temp\cc7qBZw4.s 			page 41


 1850              		.loc 1 414 0
 1851 0008 1A4A     		ldr	r2, .L134
 1852              	.LVL238:
 1853 000a 9269     		ldr	r2, [r2, #24]
 1854 000c 9A42     		cmp	r2, r3
 1855 000e 02D3     		bcc	.L132
 1856              		.loc 1 414 0 is_stmt 0 discriminator 1
 1857 0010 002B     		cmp	r3, #0
 1858 0012 02D0     		beq	.L133
 1859 0014 02E0     		b	.L127
 1860              	.L132:
 415:lib/w25qxx.c  **** 		NumByteToWrite_up_to_BlockSize=w25qxx.BlockSize;
 1861              		.loc 1 415 0 is_stmt 1
 1862 0016 1300     		movs	r3, r2
 1863              	.LVL239:
 1864 0018 00E0     		b	.L127
 1865              	.LVL240:
 1866              	.L133:
 1867 001a 1300     		movs	r3, r2
 1868              	.LVL241:
 1869              	.L127:
 416:lib/w25qxx.c  **** 	if(OffsetInByte>=w25qxx.BlockSize)
 1870              		.loc 1 416 0
 1871 001c AA42     		cmp	r2, r5
 1872 001e 26D9     		bls	.L126
 417:lib/w25qxx.c  **** 	{
 418:lib/w25qxx.c  **** 		return;
 419:lib/w25qxx.c  **** 	}	
 420:lib/w25qxx.c  **** 	uint32_t	StartPage;
 421:lib/w25qxx.c  **** 	int32_t		BytesToWrite;
 422:lib/w25qxx.c  **** 	uint32_t	LocalOffset;	
 423:lib/w25qxx.c  **** 	if((OffsetInByte+NumByteToWrite_up_to_BlockSize) > w25qxx.BlockSize)
 1873              		.loc 1 423 0
 1874 0020 5819     		adds	r0, r3, r5
 1875              	.LVL242:
 1876 0022 8242     		cmp	r2, r0
 1877 0024 01D2     		bcs	.L129
 424:lib/w25qxx.c  **** 		BytesToWrite = w25qxx.BlockSize-OffsetInByte;
 1878              		.loc 1 424 0
 1879 0026 541B     		subs	r4, r2, r5
 1880              	.LVL243:
 1881 0028 00E0     		b	.L130
 1882              	.LVL244:
 1883              	.L129:
 425:lib/w25qxx.c  **** 	else
 426:lib/w25qxx.c  **** 		BytesToWrite = NumByteToWrite_up_to_BlockSize;	
 1884              		.loc 1 426 0
 1885 002a 1C00     		movs	r4, r3
 1886              	.LVL245:
 1887              	.L130:
 427:lib/w25qxx.c  **** 	StartPage = W25qxx_BlockToPage(Block_Address)+(OffsetInByte/w25qxx.PageSize);
 1888              		.loc 1 427 0
 1889 002c 0800     		movs	r0, r1
 1890 002e FFF7FEFF 		bl	W25qxx_BlockToPage
 1891              	.LVL246:
 1892 0032 0600     		movs	r6, r0
 1893 0034 0F4B     		ldr	r3, .L134
ARM GAS  C:\Users\luvsd\AppData\Local\Temp\cc7qBZw4.s 			page 42


 1894 0036 5B89     		ldrh	r3, [r3, #10]
 1895 0038 0193     		str	r3, [sp, #4]
 1896 003a 1900     		movs	r1, r3
 1897 003c 2800     		movs	r0, r5
 1898 003e FFF7FEFF 		bl	__aeabi_uidiv
 1899              	.LVL247:
 1900 0042 3618     		adds	r6, r6, r0
 1901              	.LVL248:
 428:lib/w25qxx.c  **** 	LocalOffset = OffsetInByte%w25qxx.PageSize;	
 1902              		.loc 1 428 0
 1903 0044 0199     		ldr	r1, [sp, #4]
 1904 0046 2800     		movs	r0, r5
 1905 0048 FFF7FEFF 		bl	__aeabi_uidivmod
 1906              	.LVL249:
 1907 004c 0D00     		movs	r5, r1
 1908              	.LVL250:
 1909              	.L131:
 429:lib/w25qxx.c  **** 	do
 430:lib/w25qxx.c  **** 	{		
 431:lib/w25qxx.c  **** 		W25qxx_WritePage(pBuffer,StartPage,LocalOffset,BytesToWrite);
 1910              		.loc 1 431 0 discriminator 1
 1911 004e 2300     		movs	r3, r4
 1912 0050 2A00     		movs	r2, r5
 1913 0052 3100     		movs	r1, r6
 1914 0054 3800     		movs	r0, r7
 1915 0056 FFF7FEFF 		bl	W25qxx_WritePage
 1916              	.LVL251:
 432:lib/w25qxx.c  **** 		StartPage++;
 1917              		.loc 1 432 0 discriminator 1
 1918 005a 0136     		adds	r6, r6, #1
 1919              	.LVL252:
 433:lib/w25qxx.c  **** 		BytesToWrite-=w25qxx.PageSize-LocalOffset;
 1920              		.loc 1 433 0 discriminator 1
 1921 005c 054B     		ldr	r3, .L134
 1922 005e 5A89     		ldrh	r2, [r3, #10]
 1923 0060 AB1A     		subs	r3, r5, r2
 1924 0062 E418     		adds	r4, r4, r3
 1925              	.LVL253:
 434:lib/w25qxx.c  **** 		pBuffer += w25qxx.PageSize - LocalOffset;
 1926              		.loc 1 434 0 discriminator 1
 1927 0064 521B     		subs	r2, r2, r5
 1928 0066 BF18     		adds	r7, r7, r2
 1929              	.LVL254:
 435:lib/w25qxx.c  **** 		LocalOffset=0;
 1930              		.loc 1 435 0 discriminator 1
 1931 0068 0025     		movs	r5, #0
 436:lib/w25qxx.c  **** 	}while(BytesToWrite>0);	
 1932              		.loc 1 436 0 discriminator 1
 1933 006a 002C     		cmp	r4, #0
 1934 006c EFDC     		bgt	.L131
 1935              	.LVL255:
 1936              	.L126:
 437:lib/w25qxx.c  **** }
 1937              		.loc 1 437 0
 1938 006e 03B0     		add	sp, sp, #12
 1939              		@ sp needed
 1940              	.LVL256:
ARM GAS  C:\Users\luvsd\AppData\Local\Temp\cc7qBZw4.s 			page 43


 1941 0070 F0BD     		pop	{r4, r5, r6, r7, pc}
 1942              	.L135:
 1943 0072 C046     		.align	2
 1944              	.L134:
 1945 0074 00000000 		.word	w25qxx
 1946              		.cfi_endproc
 1947              	.LFE79:
 1948              		.size	W25qxx_WriteBlock, .-W25qxx_WriteBlock
 1949              		.section	.text.W25qxx_ReadByte,"ax",%progbits
 1950              		.align	2
 1951              		.global	W25qxx_ReadByte
 1952              		.code	16
 1953              		.thumb_func
 1954              		.type	W25qxx_ReadByte, %function
 1955              	W25qxx_ReadByte:
 1956              	.LFB80:
 438:lib/w25qxx.c  **** //#################################################################################################
 439:lib/w25qxx.c  **** void 	W25qxx_ReadByte(uint8_t *pBuffer,uint32_t Bytes_Address)
 440:lib/w25qxx.c  **** {
 1957              		.loc 1 440 0
 1958              		.cfi_startproc
 1959              		@ args = 0, pretend = 0, frame = 0
 1960              		@ frame_needed = 0, uses_anonymous_args = 0
 1961              	.LVL257:
 1962 0000 70B5     		push	{r4, r5, r6, lr}
 1963              		.cfi_def_cfa_offset 16
 1964              		.cfi_offset 4, -16
 1965              		.cfi_offset 5, -12
 1966              		.cfi_offset 6, -8
 1967              		.cfi_offset 14, -4
 1968 0002 0400     		movs	r4, r0
 1969 0004 0D00     		movs	r5, r1
 441:lib/w25qxx.c  **** 	while(w25qxx.Lock==1)
 1970              		.loc 1 441 0
 1971 0006 02E0     		b	.L137
 1972              	.LVL258:
 1973              	.L138:
 442:lib/w25qxx.c  **** 		CyDelay(1);
 1974              		.loc 1 442 0
 1975 0008 0120     		movs	r0, #1
 1976 000a FFF7FEFF 		bl	CyDelay
 1977              	.LVL259:
 1978              	.L137:
 441:lib/w25qxx.c  **** 	while(w25qxx.Lock==1)
 1979              		.loc 1 441 0
 1980 000e 2723     		movs	r3, #39
 1981 0010 204A     		ldr	r2, .L144
 1982 0012 D35C     		ldrb	r3, [r2, r3]
 1983 0014 012B     		cmp	r3, #1
 1984 0016 F7D0     		beq	.L138
 443:lib/w25qxx.c  **** 	w25qxx.Lock=1;
 1985              		.loc 1 443 0
 1986 0018 1600     		movs	r6, r2
 1987 001a 0122     		movs	r2, #1
 1988 001c 2723     		movs	r3, #39
 1989 001e F254     		strb	r2, [r6, r3]
 444:lib/w25qxx.c  ****     Ctrl_MEM_SS_Write(0);
ARM GAS  C:\Users\luvsd\AppData\Local\Temp\cc7qBZw4.s 			page 44


 1990              		.loc 1 444 0
 1991 0020 0020     		movs	r0, #0
 1992 0022 FFF7FEFF 		bl	Ctrl_MEM_SS_Write
 1993              	.LVL260:
 445:lib/w25qxx.c  ****     SPIM_FLASH_WriteByte(0x0B);
 1994              		.loc 1 445 0
 1995 0026 0B20     		movs	r0, #11
 1996 0028 FFF7FEFF 		bl	SPIM_FLASH_WriteTxData
 1997              	.LVL261:
 446:lib/w25qxx.c  **** 	if(w25qxx.ID>=W25Q256)
 1998              		.loc 1 446 0
 1999 002c 3378     		ldrb	r3, [r6]
 2000 002e 082B     		cmp	r3, #8
 2001 0030 02D9     		bls	.L139
 447:lib/w25qxx.c  **** 		SPIM_FLASH_WriteByte((Bytes_Address & 0xFF000000) >> 24);
 2002              		.loc 1 447 0
 2003 0032 280E     		lsrs	r0, r5, #24
 2004 0034 FFF7FEFF 		bl	SPIM_FLASH_WriteTxData
 2005              	.LVL262:
 2006              	.L139:
 448:lib/w25qxx.c  ****     SPIM_FLASH_WriteByte((Bytes_Address & 0xFF0000) >> 16);
 2007              		.loc 1 448 0
 2008 0038 280C     		lsrs	r0, r5, #16
 2009 003a C0B2     		uxtb	r0, r0
 2010 003c FFF7FEFF 		bl	SPIM_FLASH_WriteTxData
 2011              	.LVL263:
 449:lib/w25qxx.c  ****     SPIM_FLASH_WriteByte((Bytes_Address& 0xFF00) >> 8);
 2012              		.loc 1 449 0
 2013 0040 280A     		lsrs	r0, r5, #8
 2014 0042 C0B2     		uxtb	r0, r0
 2015 0044 FFF7FEFF 		bl	SPIM_FLASH_WriteTxData
 2016              	.LVL264:
 450:lib/w25qxx.c  ****     SPIM_FLASH_WriteByte(Bytes_Address & 0xFF);
 2017              		.loc 1 450 0
 2018 0048 E8B2     		uxtb	r0, r5
 2019 004a FFF7FEFF 		bl	SPIM_FLASH_WriteTxData
 2020              	.LVL265:
 451:lib/w25qxx.c  **** 	SPIM_FLASH_WriteByte(0);
 2021              		.loc 1 451 0
 2022 004e 0020     		movs	r0, #0
 2023 0050 FFF7FEFF 		bl	SPIM_FLASH_WriteTxData
 2024              	.LVL266:
 2025              	.L140:
 452:lib/w25qxx.c  ****     while(!(SPIM_FLASH_ReadTxStatus() & SPIM_FLASH_STS_SPI_DONE));
 2026              		.loc 1 452 0 discriminator 1
 2027 0054 FFF7FEFF 		bl	SPIM_FLASH_ReadTxStatus
 2028              	.LVL267:
 2029 0058 C307     		lsls	r3, r0, #31
 2030 005a FBD5     		bpl	.L140
 453:lib/w25qxx.c  ****     SPIM_FLASH_ClearRxBuffer();
 2031              		.loc 1 453 0
 2032 005c FFF7FEFF 		bl	SPIM_FLASH_ClearRxBuffer
 2033              	.LVL268:
 454:lib/w25qxx.c  ****     SPIM_FLASH_WriteByte(W25QXX_DUMMY_BYTE);
 2034              		.loc 1 454 0
 2035 0060 A520     		movs	r0, #165
 2036 0062 FFF7FEFF 		bl	SPIM_FLASH_WriteTxData
ARM GAS  C:\Users\luvsd\AppData\Local\Temp\cc7qBZw4.s 			page 45


 2037              	.LVL269:
 2038              	.L141:
 455:lib/w25qxx.c  ****     while(!(SPIM_FLASH_ReadTxStatus() & SPIM_FLASH_STS_SPI_DONE));  
 2039              		.loc 1 455 0 discriminator 1
 2040 0066 FFF7FEFF 		bl	SPIM_FLASH_ReadTxStatus
 2041              	.LVL270:
 2042 006a C307     		lsls	r3, r0, #31
 2043 006c FBD5     		bpl	.L141
 456:lib/w25qxx.c  ****     CyDelayUs(DELAY_W25QXX);
 2044              		.loc 1 456 0
 2045 006e 0A20     		movs	r0, #10
 2046 0070 FFF7FEFF 		bl	CyDelayUs
 2047              	.LVL271:
 457:lib/w25qxx.c  ****     Ctrl_MEM_SS_Write(1);
 2048              		.loc 1 457 0
 2049 0074 0120     		movs	r0, #1
 2050 0076 FFF7FEFF 		bl	Ctrl_MEM_SS_Write
 2051              	.LVL272:
 458:lib/w25qxx.c  ****     while(SPIM_FLASH_GetRxBufferSize() > 0)
 2052              		.loc 1 458 0
 2053 007a 02E0     		b	.L142
 2054              	.L143:
 459:lib/w25qxx.c  ****     {
 460:lib/w25qxx.c  ****         *pBuffer = SPIM_FLASH_ReadByte();
 2055              		.loc 1 460 0
 2056 007c FFF7FEFF 		bl	SPIM_FLASH_ReadRxData
 2057              	.LVL273:
 2058 0080 2070     		strb	r0, [r4]
 2059              	.L142:
 458:lib/w25qxx.c  ****     while(SPIM_FLASH_GetRxBufferSize() > 0)
 2060              		.loc 1 458 0
 2061 0082 FFF7FEFF 		bl	SPIM_FLASH_GetRxBufferSize
 2062              	.LVL274:
 2063 0086 0028     		cmp	r0, #0
 2064 0088 F8D1     		bne	.L143
 461:lib/w25qxx.c  ****     }
 462:lib/w25qxx.c  **** 	w25qxx.Lock=0;
 2065              		.loc 1 462 0
 2066 008a 0021     		movs	r1, #0
 2067 008c 2723     		movs	r3, #39
 2068 008e 014A     		ldr	r2, .L144
 2069 0090 D154     		strb	r1, [r2, r3]
 463:lib/w25qxx.c  **** }
 2070              		.loc 1 463 0
 2071              		@ sp needed
 2072              	.LVL275:
 2073              	.LVL276:
 2074 0092 70BD     		pop	{r4, r5, r6, pc}
 2075              	.L145:
 2076              		.align	2
 2077              	.L144:
 2078 0094 00000000 		.word	w25qxx
 2079              		.cfi_endproc
 2080              	.LFE80:
 2081              		.size	W25qxx_ReadByte, .-W25qxx_ReadByte
 2082              		.section	.text.W25qxx_ReadBytes,"ax",%progbits
 2083              		.align	2
ARM GAS  C:\Users\luvsd\AppData\Local\Temp\cc7qBZw4.s 			page 46


 2084              		.global	W25qxx_ReadBytes
 2085              		.code	16
 2086              		.thumb_func
 2087              		.type	W25qxx_ReadBytes, %function
 2088              	W25qxx_ReadBytes:
 2089              	.LFB81:
 464:lib/w25qxx.c  **** //#################################################################################################
 465:lib/w25qxx.c  **** void W25qxx_ReadBytes(uint8_t* pBuffer, uint32_t ReadAddr, uint32_t NumByteToRead)
 466:lib/w25qxx.c  **** {
 2090              		.loc 1 466 0
 2091              		.cfi_startproc
 2092              		@ args = 0, pretend = 0, frame = 0
 2093              		@ frame_needed = 0, uses_anonymous_args = 0
 2094              	.LVL277:
 2095 0000 F8B5     		push	{r3, r4, r5, r6, r7, lr}
 2096              		.cfi_def_cfa_offset 24
 2097              		.cfi_offset 3, -24
 2098              		.cfi_offset 4, -20
 2099              		.cfi_offset 5, -16
 2100              		.cfi_offset 6, -12
 2101              		.cfi_offset 7, -8
 2102              		.cfi_offset 14, -4
 2103 0002 0500     		movs	r5, r0
 2104 0004 0C00     		movs	r4, r1
 2105 0006 1600     		movs	r6, r2
 467:lib/w25qxx.c  ****     uint32_t i;
 468:lib/w25qxx.c  **** 	while(w25qxx.Lock==1)
 2106              		.loc 1 468 0
 2107 0008 02E0     		b	.L147
 2108              	.LVL278:
 2109              	.L148:
 469:lib/w25qxx.c  **** 		CyDelay(1);
 2110              		.loc 1 469 0
 2111 000a 0120     		movs	r0, #1
 2112 000c FFF7FEFF 		bl	CyDelay
 2113              	.LVL279:
 2114              	.L147:
 468:lib/w25qxx.c  **** 		CyDelay(1);
 2115              		.loc 1 468 0
 2116 0010 2723     		movs	r3, #39
 2117 0012 234A     		ldr	r2, .L154
 2118 0014 D35C     		ldrb	r3, [r2, r3]
 2119 0016 012B     		cmp	r3, #1
 2120 0018 F7D0     		beq	.L148
 470:lib/w25qxx.c  **** 	w25qxx.Lock=1;
 2121              		.loc 1 470 0
 2122 001a 1700     		movs	r7, r2
 2123 001c 0122     		movs	r2, #1
 2124 001e 2723     		movs	r3, #39
 2125 0020 FA54     		strb	r2, [r7, r3]
 471:lib/w25qxx.c  ****     
 472:lib/w25qxx.c  ****     Ctrl_MEM_SS_Write(0);
 2126              		.loc 1 472 0
 2127 0022 0020     		movs	r0, #0
 2128 0024 FFF7FEFF 		bl	Ctrl_MEM_SS_Write
 2129              	.LVL280:
 473:lib/w25qxx.c  **** 	SPIM_FLASH_WriteByte(0x0B);
ARM GAS  C:\Users\luvsd\AppData\Local\Temp\cc7qBZw4.s 			page 47


 2130              		.loc 1 473 0
 2131 0028 0B20     		movs	r0, #11
 2132 002a FFF7FEFF 		bl	SPIM_FLASH_WriteTxData
 2133              	.LVL281:
 474:lib/w25qxx.c  **** 	if(w25qxx.ID>=W25Q256)
 2134              		.loc 1 474 0
 2135 002e 3B78     		ldrb	r3, [r7]
 2136 0030 082B     		cmp	r3, #8
 2137 0032 02D9     		bls	.L149
 475:lib/w25qxx.c  **** 		SPIM_FLASH_WriteByte((ReadAddr & 0xFF000000) >> 24);
 2138              		.loc 1 475 0
 2139 0034 200E     		lsrs	r0, r4, #24
 2140 0036 FFF7FEFF 		bl	SPIM_FLASH_WriteTxData
 2141              	.LVL282:
 2142              	.L149:
 476:lib/w25qxx.c  ****     SPIM_FLASH_WriteByte((ReadAddr & 0xFF0000) >> 16);
 2143              		.loc 1 476 0
 2144 003a 200C     		lsrs	r0, r4, #16
 2145 003c C0B2     		uxtb	r0, r0
 2146 003e FFF7FEFF 		bl	SPIM_FLASH_WriteTxData
 2147              	.LVL283:
 477:lib/w25qxx.c  ****     SPIM_FLASH_WriteByte((ReadAddr& 0xFF00) >> 8);
 2148              		.loc 1 477 0
 2149 0042 200A     		lsrs	r0, r4, #8
 2150 0044 C0B2     		uxtb	r0, r0
 2151 0046 FFF7FEFF 		bl	SPIM_FLASH_WriteTxData
 2152              	.LVL284:
 478:lib/w25qxx.c  ****     SPIM_FLASH_WriteByte(ReadAddr & 0xFF);
 2153              		.loc 1 478 0
 2154 004a E0B2     		uxtb	r0, r4
 2155 004c FFF7FEFF 		bl	SPIM_FLASH_WriteTxData
 2156              	.LVL285:
 479:lib/w25qxx.c  **** 	SPIM_FLASH_WriteByte(0);
 2157              		.loc 1 479 0
 2158 0050 0020     		movs	r0, #0
 2159 0052 FFF7FEFF 		bl	SPIM_FLASH_WriteTxData
 2160              	.LVL286:
 2161              	.L150:
 480:lib/w25qxx.c  ****     while(!(SPIM_FLASH_ReadTxStatus() & SPIM_FLASH_STS_SPI_DONE));
 2162              		.loc 1 480 0 discriminator 1
 2163 0056 FFF7FEFF 		bl	SPIM_FLASH_ReadTxStatus
 2164              	.LVL287:
 2165 005a C307     		lsls	r3, r0, #31
 2166 005c FBD5     		bpl	.L150
 481:lib/w25qxx.c  ****     CyDelayUs(DELAY_W25QXX);
 2167              		.loc 1 481 0
 2168 005e 0A20     		movs	r0, #10
 2169 0060 FFF7FEFF 		bl	CyDelayUs
 2170              	.LVL288:
 482:lib/w25qxx.c  ****     SPIM_FLASH_ClearRxBuffer();
 2171              		.loc 1 482 0
 2172 0064 FFF7FEFF 		bl	SPIM_FLASH_ClearRxBuffer
 2173              	.LVL289:
 483:lib/w25qxx.c  ****     for(i=0; i < NumByteToRead; i++)
 2174              		.loc 1 483 0
 2175 0068 0024     		movs	r4, #0
 2176              	.LVL290:
ARM GAS  C:\Users\luvsd\AppData\Local\Temp\cc7qBZw4.s 			page 48


 2177 006a 0CE0     		b	.L151
 2178              	.LVL291:
 2179              	.L153:
 484:lib/w25qxx.c  ****     {
 485:lib/w25qxx.c  ****         SPIM_FLASH_WriteByte(W25QXX_DUMMY_BYTE);
 2180              		.loc 1 485 0
 2181 006c A520     		movs	r0, #165
 2182 006e FFF7FEFF 		bl	SPIM_FLASH_WriteTxData
 2183              	.LVL292:
 2184              	.L152:
 486:lib/w25qxx.c  ****         while(!(SPIM_FLASH_ReadTxStatus() & SPIM_FLASH_STS_SPI_DONE));
 2185              		.loc 1 486 0 discriminator 1
 2186 0072 FFF7FEFF 		bl	SPIM_FLASH_ReadTxStatus
 2187              	.LVL293:
 2188 0076 C307     		lsls	r3, r0, #31
 2189 0078 FBD5     		bpl	.L152
 487:lib/w25qxx.c  ****     	*pBuffer++ = SPIM_FLASH_ReadByte();
 2190              		.loc 1 487 0 discriminator 2
 2191 007a 6F1C     		adds	r7, r5, #1
 2192              	.LVL294:
 2193 007c FFF7FEFF 		bl	SPIM_FLASH_ReadRxData
 2194              	.LVL295:
 2195 0080 2870     		strb	r0, [r5]
 483:lib/w25qxx.c  ****     {
 2196              		.loc 1 483 0 discriminator 2
 2197 0082 0134     		adds	r4, r4, #1
 2198              	.LVL296:
 2199              		.loc 1 487 0 discriminator 2
 2200 0084 3D00     		movs	r5, r7
 2201              	.LVL297:
 2202              	.L151:
 483:lib/w25qxx.c  ****     {
 2203              		.loc 1 483 0 discriminator 1
 2204 0086 B442     		cmp	r4, r6
 2205 0088 F0D3     		bcc	.L153
 488:lib/w25qxx.c  ****     }
 489:lib/w25qxx.c  ****     CyDelayUs(DELAY_W25QXX);
 2206              		.loc 1 489 0
 2207 008a 0A20     		movs	r0, #10
 2208 008c FFF7FEFF 		bl	CyDelayUs
 2209              	.LVL298:
 490:lib/w25qxx.c  ****     Ctrl_MEM_SS_Write(1);	
 2210              		.loc 1 490 0
 2211 0090 0120     		movs	r0, #1
 2212 0092 FFF7FEFF 		bl	Ctrl_MEM_SS_Write
 2213              	.LVL299:
 491:lib/w25qxx.c  **** 	w25qxx.Lock=0;
 2214              		.loc 1 491 0
 2215 0096 0021     		movs	r1, #0
 2216 0098 2723     		movs	r3, #39
 2217 009a 014A     		ldr	r2, .L154
 2218 009c D154     		strb	r1, [r2, r3]
 492:lib/w25qxx.c  **** }
 2219              		.loc 1 492 0
 2220              		@ sp needed
 2221              	.LVL300:
 2222              	.LVL301:
ARM GAS  C:\Users\luvsd\AppData\Local\Temp\cc7qBZw4.s 			page 49


 2223              	.LVL302:
 2224 009e F8BD     		pop	{r3, r4, r5, r6, r7, pc}
 2225              	.L155:
 2226              		.align	2
 2227              	.L154:
 2228 00a0 00000000 		.word	w25qxx
 2229              		.cfi_endproc
 2230              	.LFE81:
 2231              		.size	W25qxx_ReadBytes, .-W25qxx_ReadBytes
 2232              		.section	.text.W25qxx_ReadPage,"ax",%progbits
 2233              		.align	2
 2234              		.global	W25qxx_ReadPage
 2235              		.code	16
 2236              		.thumb_func
 2237              		.type	W25qxx_ReadPage, %function
 2238              	W25qxx_ReadPage:
 2239              	.LFB82:
 493:lib/w25qxx.c  **** //#################################################################################################
 494:lib/w25qxx.c  **** void 	W25qxx_ReadPage(uint8_t *pBuffer,uint32_t Page_Address,uint32_t OffsetInByte,uint32_t NumByte
 495:lib/w25qxx.c  **** {
 2240              		.loc 1 495 0
 2241              		.cfi_startproc
 2242              		@ args = 0, pretend = 0, frame = 0
 2243              		@ frame_needed = 0, uses_anonymous_args = 0
 2244              	.LVL303:
 2245 0000 F8B5     		push	{r3, r4, r5, r6, r7, lr}
 2246              		.cfi_def_cfa_offset 24
 2247              		.cfi_offset 3, -24
 2248              		.cfi_offset 4, -20
 2249              		.cfi_offset 5, -16
 2250              		.cfi_offset 6, -12
 2251              		.cfi_offset 7, -8
 2252              		.cfi_offset 14, -4
 2253 0002 0500     		movs	r5, r0
 2254 0004 0E00     		movs	r6, r1
 2255 0006 1400     		movs	r4, r2
 2256 0008 1F00     		movs	r7, r3
 496:lib/w25qxx.c  ****     uint32_t i;
 497:lib/w25qxx.c  **** 	while(w25qxx.Lock==1)
 2257              		.loc 1 497 0
 2258 000a 02E0     		b	.L157
 2259              	.LVL304:
 2260              	.L158:
 498:lib/w25qxx.c  **** 		CyDelay(1);
 2261              		.loc 1 498 0
 2262 000c 0120     		movs	r0, #1
 2263 000e FFF7FEFF 		bl	CyDelay
 2264              	.LVL305:
 2265              	.L157:
 497:lib/w25qxx.c  **** 		CyDelay(1);
 2266              		.loc 1 497 0
 2267 0012 2723     		movs	r3, #39
 2268 0014 264A     		ldr	r2, .L167
 2269 0016 D35C     		ldrb	r3, [r2, r3]
 2270 0018 012B     		cmp	r3, #1
 2271 001a F7D0     		beq	.L158
 499:lib/w25qxx.c  **** 	w25qxx.Lock=1;
ARM GAS  C:\Users\luvsd\AppData\Local\Temp\cc7qBZw4.s 			page 50


 2272              		.loc 1 499 0
 2273 001c 1300     		movs	r3, r2
 2274 001e 0121     		movs	r1, #1
 2275 0020 2722     		movs	r2, #39
 2276 0022 9954     		strb	r1, [r3, r2]
 500:lib/w25qxx.c  **** 	if((NumByteToRead_up_to_PageSize>w25qxx.PageSize)||(NumByteToRead_up_to_PageSize==0))
 2277              		.loc 1 500 0
 2278 0024 5889     		ldrh	r0, [r3, #10]
 2279 0026 B842     		cmp	r0, r7
 2280 0028 02D3     		bcc	.L165
 2281              		.loc 1 500 0 is_stmt 0 discriminator 1
 2282 002a 002F     		cmp	r7, #0
 2283 002c 02D0     		beq	.L166
 2284 002e 02E0     		b	.L159
 2285              	.L165:
 501:lib/w25qxx.c  **** 		NumByteToRead_up_to_PageSize=w25qxx.PageSize;
 2286              		.loc 1 501 0 is_stmt 1
 2287 0030 0700     		movs	r7, r0
 2288              	.LVL306:
 2289 0032 00E0     		b	.L159
 2290              	.LVL307:
 2291              	.L166:
 2292 0034 0700     		movs	r7, r0
 2293              	.LVL308:
 2294              	.L159:
 502:lib/w25qxx.c  **** 	if((OffsetInByte+NumByteToRead_up_to_PageSize) > w25qxx.PageSize)
 2295              		.loc 1 502 0
 2296 0036 3B19     		adds	r3, r7, r4
 2297 0038 9842     		cmp	r0, r3
 2298 003a 00D2     		bcs	.L160
 503:lib/w25qxx.c  **** 		NumByteToRead_up_to_PageSize = w25qxx.PageSize-OffsetInByte;	
 2299              		.loc 1 503 0
 2300 003c 071B     		subs	r7, r0, r4
 2301              	.LVL309:
 2302              	.L160:
 504:lib/w25qxx.c  **** 	Page_Address = Page_Address*w25qxx.PageSize+OffsetInByte;
 2303              		.loc 1 504 0
 2304 003e 7043     		muls	r0, r6
 2305 0040 2418     		adds	r4, r4, r0
 2306              	.LVL310:
 505:lib/w25qxx.c  ****     
 506:lib/w25qxx.c  ****     Ctrl_MEM_SS_Write(0);
 2307              		.loc 1 506 0
 2308 0042 0020     		movs	r0, #0
 2309 0044 FFF7FEFF 		bl	Ctrl_MEM_SS_Write
 2310              	.LVL311:
 507:lib/w25qxx.c  **** 	SPIM_FLASH_WriteByte(0x0B);
 2311              		.loc 1 507 0
 2312 0048 0B20     		movs	r0, #11
 2313 004a FFF7FEFF 		bl	SPIM_FLASH_WriteTxData
 2314              	.LVL312:
 508:lib/w25qxx.c  **** 	if(w25qxx.ID>=W25Q256)
 2315              		.loc 1 508 0
 2316 004e 184B     		ldr	r3, .L167
 2317 0050 1B78     		ldrb	r3, [r3]
 2318 0052 082B     		cmp	r3, #8
 2319 0054 02D9     		bls	.L161
ARM GAS  C:\Users\luvsd\AppData\Local\Temp\cc7qBZw4.s 			page 51


 509:lib/w25qxx.c  **** 		SPIM_FLASH_WriteByte((Page_Address & 0xFF000000) >> 24);
 2320              		.loc 1 509 0
 2321 0056 200E     		lsrs	r0, r4, #24
 2322 0058 FFF7FEFF 		bl	SPIM_FLASH_WriteTxData
 2323              	.LVL313:
 2324              	.L161:
 510:lib/w25qxx.c  ****     SPIM_FLASH_WriteByte((Page_Address & 0xFF0000) >> 16);
 2325              		.loc 1 510 0
 2326 005c 200C     		lsrs	r0, r4, #16
 2327 005e C0B2     		uxtb	r0, r0
 2328 0060 FFF7FEFF 		bl	SPIM_FLASH_WriteTxData
 2329              	.LVL314:
 511:lib/w25qxx.c  ****     SPIM_FLASH_WriteByte((Page_Address& 0xFF00) >> 8);
 2330              		.loc 1 511 0
 2331 0064 200A     		lsrs	r0, r4, #8
 2332 0066 C0B2     		uxtb	r0, r0
 2333 0068 FFF7FEFF 		bl	SPIM_FLASH_WriteTxData
 2334              	.LVL315:
 512:lib/w25qxx.c  ****     SPIM_FLASH_WriteByte(Page_Address & 0xFF);
 2335              		.loc 1 512 0
 2336 006c E0B2     		uxtb	r0, r4
 2337 006e FFF7FEFF 		bl	SPIM_FLASH_WriteTxData
 2338              	.LVL316:
 513:lib/w25qxx.c  **** 	SPIM_FLASH_WriteByte(0);
 2339              		.loc 1 513 0
 2340 0072 0020     		movs	r0, #0
 2341 0074 FFF7FEFF 		bl	SPIM_FLASH_WriteTxData
 2342              	.LVL317:
 514:lib/w25qxx.c  ****     for(i=0; i < NumByteToRead_up_to_PageSize; i++)
 2343              		.loc 1 514 0
 2344 0078 0024     		movs	r4, #0
 2345              	.LVL318:
 2346 007a 08E0     		b	.L162
 2347              	.LVL319:
 2348              	.L163:
 515:lib/w25qxx.c  ****     {
 516:lib/w25qxx.c  ****         SPIM_FLASH_WriteByte(W25QXX_DUMMY_BYTE);
 2349              		.loc 1 516 0 discriminator 3
 2350 007c A520     		movs	r0, #165
 2351 007e FFF7FEFF 		bl	SPIM_FLASH_WriteTxData
 2352              	.LVL320:
 517:lib/w25qxx.c  ****     	*pBuffer++ = SPIM_FLASH_ReadByte();
 2353              		.loc 1 517 0 discriminator 3
 2354 0082 6E1C     		adds	r6, r5, #1
 2355              	.LVL321:
 2356 0084 FFF7FEFF 		bl	SPIM_FLASH_ReadRxData
 2357              	.LVL322:
 2358 0088 2870     		strb	r0, [r5]
 514:lib/w25qxx.c  ****     for(i=0; i < NumByteToRead_up_to_PageSize; i++)
 2359              		.loc 1 514 0 discriminator 3
 2360 008a 0134     		adds	r4, r4, #1
 2361              	.LVL323:
 2362              		.loc 1 517 0 discriminator 3
 2363 008c 3500     		movs	r5, r6
 2364              	.LVL324:
 2365              	.L162:
 514:lib/w25qxx.c  ****     for(i=0; i < NumByteToRead_up_to_PageSize; i++)
ARM GAS  C:\Users\luvsd\AppData\Local\Temp\cc7qBZw4.s 			page 52


 2366              		.loc 1 514 0 discriminator 1
 2367 008e A742     		cmp	r7, r4
 2368 0090 F4D8     		bhi	.L163
 2369              	.L164:
 518:lib/w25qxx.c  ****     }
 519:lib/w25qxx.c  ****     
 520:lib/w25qxx.c  ****     while(!(SPIM_FLASH_ReadTxStatus() & SPIM_FLASH_STS_SPI_DONE));
 2370              		.loc 1 520 0 discriminator 1
 2371 0092 FFF7FEFF 		bl	SPIM_FLASH_ReadTxStatus
 2372              	.LVL325:
 2373 0096 C307     		lsls	r3, r0, #31
 2374 0098 FBD5     		bpl	.L164
 521:lib/w25qxx.c  ****     CyDelayUs(DELAY_W25QXX);
 2375              		.loc 1 521 0
 2376 009a 0A20     		movs	r0, #10
 2377 009c FFF7FEFF 		bl	CyDelayUs
 2378              	.LVL326:
 522:lib/w25qxx.c  ****     Ctrl_MEM_SS_Write(1);
 2379              		.loc 1 522 0
 2380 00a0 0120     		movs	r0, #1
 2381 00a2 FFF7FEFF 		bl	Ctrl_MEM_SS_Write
 2382              	.LVL327:
 523:lib/w25qxx.c  ****     
 524:lib/w25qxx.c  **** 	w25qxx.Lock=0;
 2383              		.loc 1 524 0
 2384 00a6 0021     		movs	r1, #0
 2385 00a8 2723     		movs	r3, #39
 2386 00aa 014A     		ldr	r2, .L167
 2387 00ac D154     		strb	r1, [r2, r3]
 525:lib/w25qxx.c  **** }
 2388              		.loc 1 525 0
 2389              		@ sp needed
 2390              	.LVL328:
 2391              	.LVL329:
 2392              	.LVL330:
 2393 00ae F8BD     		pop	{r3, r4, r5, r6, r7, pc}
 2394              	.L168:
 2395              		.align	2
 2396              	.L167:
 2397 00b0 00000000 		.word	w25qxx
 2398              		.cfi_endproc
 2399              	.LFE82:
 2400              		.size	W25qxx_ReadPage, .-W25qxx_ReadPage
 2401              		.section	.text.W25qxx_ReadSector,"ax",%progbits
 2402              		.align	2
 2403              		.global	W25qxx_ReadSector
 2404              		.code	16
 2405              		.thumb_func
 2406              		.type	W25qxx_ReadSector, %function
 2407              	W25qxx_ReadSector:
 2408              	.LFB83:
 526:lib/w25qxx.c  **** //#################################################################################################
 527:lib/w25qxx.c  **** void 	W25qxx_ReadSector(uint8_t *pBuffer,uint32_t Sector_Address,uint32_t OffsetInByte,uint32_t Num
 528:lib/w25qxx.c  **** {	
 2409              		.loc 1 528 0
 2410              		.cfi_startproc
 2411              		@ args = 0, pretend = 0, frame = 8
ARM GAS  C:\Users\luvsd\AppData\Local\Temp\cc7qBZw4.s 			page 53


 2412              		@ frame_needed = 0, uses_anonymous_args = 0
 2413              	.LVL331:
 2414 0000 F0B5     		push	{r4, r5, r6, r7, lr}
 2415              		.cfi_def_cfa_offset 20
 2416              		.cfi_offset 4, -20
 2417              		.cfi_offset 5, -16
 2418              		.cfi_offset 6, -12
 2419              		.cfi_offset 7, -8
 2420              		.cfi_offset 14, -4
 2421 0002 83B0     		sub	sp, sp, #12
 2422              		.cfi_def_cfa_offset 32
 2423 0004 0700     		movs	r7, r0
 2424 0006 1500     		movs	r5, r2
 529:lib/w25qxx.c  **** 	if((NumByteToRead_up_to_SectorSize>w25qxx.SectorSize)||(NumByteToRead_up_to_SectorSize==0))
 2425              		.loc 1 529 0
 2426 0008 1A4A     		ldr	r2, .L177
 2427              	.LVL332:
 2428 000a 1269     		ldr	r2, [r2, #16]
 2429 000c 9A42     		cmp	r2, r3
 2430 000e 02D3     		bcc	.L175
 2431              		.loc 1 529 0 is_stmt 0 discriminator 1
 2432 0010 002B     		cmp	r3, #0
 2433 0012 02D0     		beq	.L176
 2434 0014 02E0     		b	.L170
 2435              	.L175:
 530:lib/w25qxx.c  **** 		NumByteToRead_up_to_SectorSize=w25qxx.SectorSize;
 2436              		.loc 1 530 0 is_stmt 1
 2437 0016 1300     		movs	r3, r2
 2438              	.LVL333:
 2439 0018 00E0     		b	.L170
 2440              	.LVL334:
 2441              	.L176:
 2442 001a 1300     		movs	r3, r2
 2443              	.LVL335:
 2444              	.L170:
 531:lib/w25qxx.c  **** 	if(OffsetInByte>=w25qxx.SectorSize)
 2445              		.loc 1 531 0
 2446 001c AA42     		cmp	r2, r5
 2447 001e 26D9     		bls	.L169
 532:lib/w25qxx.c  **** 	{
 533:lib/w25qxx.c  **** 		#if (_W25QXX_DEBUG==1)
 534:lib/w25qxx.c  **** 		printf("---w25qxx ReadSector Faild!\r\n");
 535:lib/w25qxx.c  **** 		CyDelay(100);
 536:lib/w25qxx.c  **** 		#endif	
 537:lib/w25qxx.c  **** 		return;
 538:lib/w25qxx.c  **** 	}	
 539:lib/w25qxx.c  **** 	uint32_t	StartPage;
 540:lib/w25qxx.c  **** 	int32_t		BytesToRead;
 541:lib/w25qxx.c  **** 	uint32_t	LocalOffset;	
 542:lib/w25qxx.c  **** 	if((OffsetInByte+NumByteToRead_up_to_SectorSize) > w25qxx.SectorSize)
 2448              		.loc 1 542 0
 2449 0020 5819     		adds	r0, r3, r5
 2450              	.LVL336:
 2451 0022 8242     		cmp	r2, r0
 2452 0024 01D2     		bcs	.L172
 543:lib/w25qxx.c  **** 		BytesToRead = w25qxx.SectorSize-OffsetInByte;
 2453              		.loc 1 543 0
ARM GAS  C:\Users\luvsd\AppData\Local\Temp\cc7qBZw4.s 			page 54


 2454 0026 541B     		subs	r4, r2, r5
 2455              	.LVL337:
 2456 0028 00E0     		b	.L173
 2457              	.LVL338:
 2458              	.L172:
 544:lib/w25qxx.c  **** 	else
 545:lib/w25qxx.c  **** 		BytesToRead = NumByteToRead_up_to_SectorSize;	
 2459              		.loc 1 545 0
 2460 002a 1C00     		movs	r4, r3
 2461              	.LVL339:
 2462              	.L173:
 546:lib/w25qxx.c  **** 	StartPage = W25qxx_SectorToPage(Sector_Address)+(OffsetInByte/w25qxx.PageSize);
 2463              		.loc 1 546 0
 2464 002c 0800     		movs	r0, r1
 2465 002e FFF7FEFF 		bl	W25qxx_SectorToPage
 2466              	.LVL340:
 2467 0032 0600     		movs	r6, r0
 2468 0034 0F4B     		ldr	r3, .L177
 2469 0036 5B89     		ldrh	r3, [r3, #10]
 2470 0038 0193     		str	r3, [sp, #4]
 2471 003a 1900     		movs	r1, r3
 2472 003c 2800     		movs	r0, r5
 2473 003e FFF7FEFF 		bl	__aeabi_uidiv
 2474              	.LVL341:
 2475 0042 3618     		adds	r6, r6, r0
 2476              	.LVL342:
 547:lib/w25qxx.c  **** 	LocalOffset = OffsetInByte%w25qxx.PageSize;	
 2477              		.loc 1 547 0
 2478 0044 0199     		ldr	r1, [sp, #4]
 2479 0046 2800     		movs	r0, r5
 2480 0048 FFF7FEFF 		bl	__aeabi_uidivmod
 2481              	.LVL343:
 2482 004c 0D00     		movs	r5, r1
 2483              	.LVL344:
 2484              	.L174:
 548:lib/w25qxx.c  **** 	do
 549:lib/w25qxx.c  **** 	{		
 550:lib/w25qxx.c  **** 		W25qxx_ReadPage(pBuffer,StartPage,LocalOffset,BytesToRead);
 2485              		.loc 1 550 0 discriminator 1
 2486 004e 2300     		movs	r3, r4
 2487 0050 2A00     		movs	r2, r5
 2488 0052 3100     		movs	r1, r6
 2489 0054 3800     		movs	r0, r7
 2490 0056 FFF7FEFF 		bl	W25qxx_ReadPage
 2491              	.LVL345:
 551:lib/w25qxx.c  **** 		StartPage++;
 2492              		.loc 1 551 0 discriminator 1
 2493 005a 0136     		adds	r6, r6, #1
 2494              	.LVL346:
 552:lib/w25qxx.c  **** 		BytesToRead-=w25qxx.PageSize-LocalOffset;
 2495              		.loc 1 552 0 discriminator 1
 2496 005c 054B     		ldr	r3, .L177
 2497 005e 5A89     		ldrh	r2, [r3, #10]
 2498 0060 AB1A     		subs	r3, r5, r2
 2499 0062 E418     		adds	r4, r4, r3
 2500              	.LVL347:
 553:lib/w25qxx.c  **** 		pBuffer += w25qxx.PageSize - LocalOffset;
ARM GAS  C:\Users\luvsd\AppData\Local\Temp\cc7qBZw4.s 			page 55


 2501              		.loc 1 553 0 discriminator 1
 2502 0064 521B     		subs	r2, r2, r5
 2503 0066 BF18     		adds	r7, r7, r2
 2504              	.LVL348:
 554:lib/w25qxx.c  **** 		LocalOffset=0;
 2505              		.loc 1 554 0 discriminator 1
 2506 0068 0025     		movs	r5, #0
 555:lib/w25qxx.c  **** 	}while(BytesToRead>0);
 2507              		.loc 1 555 0 discriminator 1
 2508 006a 002C     		cmp	r4, #0
 2509 006c EFDC     		bgt	.L174
 2510              	.LVL349:
 2511              	.L169:
 556:lib/w25qxx.c  **** }
 2512              		.loc 1 556 0
 2513 006e 03B0     		add	sp, sp, #12
 2514              		@ sp needed
 2515              	.LVL350:
 2516 0070 F0BD     		pop	{r4, r5, r6, r7, pc}
 2517              	.L178:
 2518 0072 C046     		.align	2
 2519              	.L177:
 2520 0074 00000000 		.word	w25qxx
 2521              		.cfi_endproc
 2522              	.LFE83:
 2523              		.size	W25qxx_ReadSector, .-W25qxx_ReadSector
 2524              		.section	.text.W25qxx_ReadBlock,"ax",%progbits
 2525              		.align	2
 2526              		.global	W25qxx_ReadBlock
 2527              		.code	16
 2528              		.thumb_func
 2529              		.type	W25qxx_ReadBlock, %function
 2530              	W25qxx_ReadBlock:
 2531              	.LFB84:
 557:lib/w25qxx.c  **** //#################################################################################################
 558:lib/w25qxx.c  **** void 	W25qxx_ReadBlock(uint8_t* pBuffer,uint32_t Block_Address,uint32_t OffsetInByte,uint32_t	NumBy
 559:lib/w25qxx.c  **** {
 2532              		.loc 1 559 0
 2533              		.cfi_startproc
 2534              		@ args = 0, pretend = 0, frame = 8
 2535              		@ frame_needed = 0, uses_anonymous_args = 0
 2536              	.LVL351:
 2537 0000 F0B5     		push	{r4, r5, r6, r7, lr}
 2538              		.cfi_def_cfa_offset 20
 2539              		.cfi_offset 4, -20
 2540              		.cfi_offset 5, -16
 2541              		.cfi_offset 6, -12
 2542              		.cfi_offset 7, -8
 2543              		.cfi_offset 14, -4
 2544 0002 83B0     		sub	sp, sp, #12
 2545              		.cfi_def_cfa_offset 32
 2546 0004 0700     		movs	r7, r0
 2547 0006 1500     		movs	r5, r2
 560:lib/w25qxx.c  **** 	if((NumByteToRead_up_to_BlockSize>w25qxx.BlockSize)||(NumByteToRead_up_to_BlockSize==0))
 2548              		.loc 1 560 0
 2549 0008 1A4A     		ldr	r2, .L187
 2550              	.LVL352:
ARM GAS  C:\Users\luvsd\AppData\Local\Temp\cc7qBZw4.s 			page 56


 2551 000a 9269     		ldr	r2, [r2, #24]
 2552 000c 9A42     		cmp	r2, r3
 2553 000e 02D3     		bcc	.L185
 2554              		.loc 1 560 0 is_stmt 0 discriminator 1
 2555 0010 002B     		cmp	r3, #0
 2556 0012 02D0     		beq	.L186
 2557 0014 02E0     		b	.L180
 2558              	.L185:
 561:lib/w25qxx.c  **** 		NumByteToRead_up_to_BlockSize=w25qxx.BlockSize;
 2559              		.loc 1 561 0 is_stmt 1
 2560 0016 1300     		movs	r3, r2
 2561              	.LVL353:
 2562 0018 00E0     		b	.L180
 2563              	.LVL354:
 2564              	.L186:
 2565 001a 1300     		movs	r3, r2
 2566              	.LVL355:
 2567              	.L180:
 562:lib/w25qxx.c  **** 	if(OffsetInByte>=w25qxx.BlockSize)
 2568              		.loc 1 562 0
 2569 001c AA42     		cmp	r2, r5
 2570 001e 26D9     		bls	.L179
 563:lib/w25qxx.c  **** 	{	
 564:lib/w25qxx.c  **** 		return;
 565:lib/w25qxx.c  **** 	}	
 566:lib/w25qxx.c  **** 	uint32_t	StartPage;
 567:lib/w25qxx.c  **** 	int32_t		BytesToRead;
 568:lib/w25qxx.c  **** 	uint32_t	LocalOffset;	
 569:lib/w25qxx.c  **** 	if((OffsetInByte+NumByteToRead_up_to_BlockSize) > w25qxx.BlockSize)
 2571              		.loc 1 569 0
 2572 0020 5819     		adds	r0, r3, r5
 2573              	.LVL356:
 2574 0022 8242     		cmp	r2, r0
 2575 0024 01D2     		bcs	.L182
 570:lib/w25qxx.c  **** 		BytesToRead = w25qxx.BlockSize-OffsetInByte;
 2576              		.loc 1 570 0
 2577 0026 541B     		subs	r4, r2, r5
 2578              	.LVL357:
 2579 0028 00E0     		b	.L183
 2580              	.LVL358:
 2581              	.L182:
 571:lib/w25qxx.c  **** 	else
 572:lib/w25qxx.c  **** 		BytesToRead = NumByteToRead_up_to_BlockSize;	
 2582              		.loc 1 572 0
 2583 002a 1C00     		movs	r4, r3
 2584              	.LVL359:
 2585              	.L183:
 573:lib/w25qxx.c  **** 	StartPage = W25qxx_BlockToPage(Block_Address)+(OffsetInByte/w25qxx.PageSize);
 2586              		.loc 1 573 0
 2587 002c 0800     		movs	r0, r1
 2588 002e FFF7FEFF 		bl	W25qxx_BlockToPage
 2589              	.LVL360:
 2590 0032 0600     		movs	r6, r0
 2591 0034 0F4B     		ldr	r3, .L187
 2592 0036 5B89     		ldrh	r3, [r3, #10]
 2593 0038 0193     		str	r3, [sp, #4]
 2594 003a 1900     		movs	r1, r3
ARM GAS  C:\Users\luvsd\AppData\Local\Temp\cc7qBZw4.s 			page 57


 2595 003c 2800     		movs	r0, r5
 2596 003e FFF7FEFF 		bl	__aeabi_uidiv
 2597              	.LVL361:
 2598 0042 3618     		adds	r6, r6, r0
 2599              	.LVL362:
 574:lib/w25qxx.c  **** 	LocalOffset = OffsetInByte%w25qxx.PageSize;	
 2600              		.loc 1 574 0
 2601 0044 0199     		ldr	r1, [sp, #4]
 2602 0046 2800     		movs	r0, r5
 2603 0048 FFF7FEFF 		bl	__aeabi_uidivmod
 2604              	.LVL363:
 2605 004c 0D00     		movs	r5, r1
 2606              	.LVL364:
 2607              	.L184:
 575:lib/w25qxx.c  **** 	do
 576:lib/w25qxx.c  **** 	{		
 577:lib/w25qxx.c  **** 		W25qxx_ReadPage(pBuffer,StartPage,LocalOffset,BytesToRead);
 2608              		.loc 1 577 0 discriminator 1
 2609 004e 2300     		movs	r3, r4
 2610 0050 2A00     		movs	r2, r5
 2611 0052 3100     		movs	r1, r6
 2612 0054 3800     		movs	r0, r7
 2613 0056 FFF7FEFF 		bl	W25qxx_ReadPage
 2614              	.LVL365:
 578:lib/w25qxx.c  **** 		StartPage++;
 2615              		.loc 1 578 0 discriminator 1
 2616 005a 0136     		adds	r6, r6, #1
 2617              	.LVL366:
 579:lib/w25qxx.c  **** 		BytesToRead-=w25qxx.PageSize-LocalOffset;
 2618              		.loc 1 579 0 discriminator 1
 2619 005c 054B     		ldr	r3, .L187
 2620 005e 5A89     		ldrh	r2, [r3, #10]
 2621 0060 AB1A     		subs	r3, r5, r2
 2622 0062 E418     		adds	r4, r4, r3
 2623              	.LVL367:
 580:lib/w25qxx.c  **** 		pBuffer += w25qxx.PageSize - LocalOffset;
 2624              		.loc 1 580 0 discriminator 1
 2625 0064 521B     		subs	r2, r2, r5
 2626 0066 BF18     		adds	r7, r7, r2
 2627              	.LVL368:
 581:lib/w25qxx.c  **** 		LocalOffset=0;
 2628              		.loc 1 581 0 discriminator 1
 2629 0068 0025     		movs	r5, #0
 582:lib/w25qxx.c  **** 	}while(BytesToRead>0);	
 2630              		.loc 1 582 0 discriminator 1
 2631 006a 002C     		cmp	r4, #0
 2632 006c EFDC     		bgt	.L184
 2633              	.LVL369:
 2634              	.L179:
 583:lib/w25qxx.c  **** }
 2635              		.loc 1 583 0
 2636 006e 03B0     		add	sp, sp, #12
 2637              		@ sp needed
 2638              	.LVL370:
 2639 0070 F0BD     		pop	{r4, r5, r6, r7, pc}
 2640              	.L188:
 2641 0072 C046     		.align	2
ARM GAS  C:\Users\luvsd\AppData\Local\Temp\cc7qBZw4.s 			page 58


 2642              	.L187:
 2643 0074 00000000 		.word	w25qxx
 2644              		.cfi_endproc
 2645              	.LFE84:
 2646              		.size	W25qxx_ReadBlock, .-W25qxx_ReadBlock
 2647              		.comm	w25qxx,40,4
 2648              		.section	.rodata
 2649              		.align	2
 2650              		.set	.LANCHOR0,. + 0
 2651              	.LC0:
 2652 0040 9F       		.byte	-97
 2653 0041 A5       		.byte	-91
 2654 0042 A5       		.byte	-91
 2655 0043 A5       		.byte	-91
 2656              		.text
 2657              	.Letext0:
 2658              		.file 2 "c:\\program files (x86)\\cypress\\psoc creator\\4.4\\psoc creator\\import\\gnu\\arm\\5.4.
 2659              		.file 3 "c:\\program files (x86)\\cypress\\psoc creator\\4.4\\psoc creator\\import\\gnu\\arm\\5.4.
 2660              		.file 4 "Generated_Source\\PSoC4/cytypes.h"
 2661              		.file 5 "lib\\w25qxx.h"
 2662              		.file 6 "Generated_Source\\PSoC4/Ctrl_MEM_SS.h"
 2663              		.file 7 "Generated_Source\\PSoC4/SPIM_FLASH.h"
 2664              		.file 8 "Generated_Source\\PSoC4/CyLib.h"