ARM GAS  C:\Users\luvsd\AppData\Local\Temp\cc7qBZw4.s 			page 1


   1              		.syntax unified
   2              		.cpu cortex-m0
   3              		.fpu softvfp
   4              		.eabi_attribute 20, 1
   5              		.eabi_attribute 21, 1
   6              		.eabi_attribute 23, 3
   7              		.eabi_attribute 24, 1
   8              		.eabi_attribute 25, 1
   9              		.eabi_attribute 26, 1
  10              		.eabi_attribute 30, 1
  11              		.eabi_attribute 34, 0
  12              		.eabi_attribute 18, 4
  13              		.thumb
  14              		.syntax unified
  15              		.file	"w25qxx.c"
  16              		.text
  17              	.Ltext0:
  18              		.cfi_sections	.debug_frame
  19              		.section	.text.W25qxx_ReadID,"ax",%progbits
  20              		.align	2
  21              		.global	W25qxx_ReadID
  22              		.code	16
  23              		.thumb_func
  24              		.type	W25qxx_ReadID, %function
  25              	W25qxx_ReadID:
  26              	.LFB60:
  27              		.file 1 "lib\\w25qxx.c"
   1:lib/w25qxx.c  **** 
   2:lib/w25qxx.c  **** #include "w25qxx.h"
   3:lib/w25qxx.c  **** 
   4:lib/w25qxx.c  **** #define DELAY_W25QXX        (10)
   5:lib/w25qxx.c  **** #define W25QXX_DUMMY_BYTE         0xA5
   6:lib/w25qxx.c  **** 
   7:lib/w25qxx.c  **** w25qxx_t	w25qxx;
   8:lib/w25qxx.c  **** 
   9:lib/w25qxx.c  **** //#################################################################################################
  10:lib/w25qxx.c  **** uint32_t W25qxx_ReadID(void)
  11:lib/w25qxx.c  **** {
  28              		.loc 1 11 0
  29              		.cfi_startproc
  30              		@ args = 0, pretend = 0, frame = 8
  31              		@ frame_needed = 0, uses_anonymous_args = 0
  32 0000 30B5     		push	{r4, r5, lr}
  33              		.cfi_def_cfa_offset 12
  34              		.cfi_offset 4, -12
  35              		.cfi_offset 5, -8
  36              		.cfi_offset 14, -4
  37 0002 83B0     		sub	sp, sp, #12
  38              		.cfi_def_cfa_offset 24
  39              	.LVL0:
  12:lib/w25qxx.c  ****     uint8 readDataNO = 0;
  13:lib/w25qxx.c  ****     uint8 len;
  14:lib/w25qxx.c  ****     uint32_t Temp;
  15:lib/w25qxx.c  ****     uint8_t data[4] = {0x9F,0xA5,0xA5,0xA5};
  40              		.loc 1 15 0
  41 0004 0422     		movs	r2, #4
  42 0006 1649     		ldr	r1, .L5
ARM GAS  C:\Users\luvsd\AppData\Local\Temp\cc7qBZw4.s 			page 2


  43 0008 01A8     		add	r0, sp, #4
  44 000a FFF7FEFF 		bl	memcpy
  45              	.LVL1:
  16:lib/w25qxx.c  ****     
  17:lib/w25qxx.c  ****     Ctrl_MEM_SS_Write(0);
  46              		.loc 1 17 0
  47 000e 0020     		movs	r0, #0
  48 0010 FFF7FEFF 		bl	Ctrl_MEM_SS_Write
  49              	.LVL2:
  18:lib/w25qxx.c  ****     SPIM_FLASH_PutArray(data, 4);
  50              		.loc 1 18 0
  51 0014 0421     		movs	r1, #4
  52 0016 01A8     		add	r0, sp, #4
  53 0018 FFF7FEFF 		bl	SPIM_FLASH_PutArray
  54              	.LVL3:
  55              	.L2:
  19:lib/w25qxx.c  ****     
  20:lib/w25qxx.c  ****     while(!(SPIM_FLASH_ReadTxStatus() & SPIM_FLASH_STS_SPI_DONE));
  56              		.loc 1 20 0 discriminator 1
  57 001c FFF7FEFF 		bl	SPIM_FLASH_ReadTxStatus
  58              	.LVL4:
  59 0020 C307     		lsls	r3, r0, #31
  60 0022 FBD5     		bpl	.L2
  21:lib/w25qxx.c  ****     CyDelayUs(DELAY_W25QXX);
  61              		.loc 1 21 0
  62 0024 0A20     		movs	r0, #10
  63 0026 FFF7FEFF 		bl	CyDelayUs
  64              	.LVL5:
  22:lib/w25qxx.c  ****     Ctrl_MEM_SS_Write(1);
  65              		.loc 1 22 0
  66 002a 0120     		movs	r0, #1
  67 002c FFF7FEFF 		bl	Ctrl_MEM_SS_Write
  68              	.LVL6:
  12:lib/w25qxx.c  ****     uint8 len;
  69              		.loc 1 12 0
  70 0030 0025     		movs	r5, #0
  23:lib/w25qxx.c  ****     
  24:lib/w25qxx.c  ****     while(SPIM_FLASH_GetRxBufferSize() > 0)
  71              		.loc 1 24 0
  72 0032 06E0     		b	.L3
  73              	.LVL7:
  74              	.L4:
  25:lib/w25qxx.c  ****     {
  26:lib/w25qxx.c  ****         data[readDataNO++] = SPIM_FLASH_ReadByte();
  75              		.loc 1 26 0
  76 0034 6C1C     		adds	r4, r5, #1
  77 0036 E4B2     		uxtb	r4, r4
  78              	.LVL8:
  79 0038 FFF7FEFF 		bl	SPIM_FLASH_ReadRxData
  80              	.LVL9:
  81 003c 01AB     		add	r3, sp, #4
  82 003e 5855     		strb	r0, [r3, r5]
  83 0040 2500     		movs	r5, r4
  84              	.LVL10:
  85              	.L3:
  24:lib/w25qxx.c  ****     {
  86              		.loc 1 24 0
ARM GAS  C:\Users\luvsd\AppData\Local\Temp\cc7qBZw4.s 			page 3


  87 0042 FFF7FEFF 		bl	SPIM_FLASH_GetRxBufferSize
  88              	.LVL11:
  89 0046 0028     		cmp	r0, #0
  90 0048 F4D1     		bne	.L4
  27:lib/w25qxx.c  ****     }
  28:lib/w25qxx.c  ****     
  29:lib/w25qxx.c  ****     Temp = (data[1] << 16) | (data[2] << 8) | data[3];
  91              		.loc 1 29 0
  92 004a 01AA     		add	r2, sp, #4
  93 004c 5078     		ldrb	r0, [r2, #1]
  94 004e 0004     		lsls	r0, r0, #16
  95 0050 9378     		ldrb	r3, [r2, #2]
  96 0052 1B02     		lsls	r3, r3, #8
  97 0054 1843     		orrs	r0, r3
  98 0056 D378     		ldrb	r3, [r2, #3]
  99 0058 1843     		orrs	r0, r3
 100              	.LVL12:
  30:lib/w25qxx.c  ****     return Temp;
  31:lib/w25qxx.c  **** }
 101              		.loc 1 31 0
 102 005a 03B0     		add	sp, sp, #12
 103              		@ sp needed
 104              	.LVL13:
 105 005c 30BD     		pop	{r4, r5, pc}
 106              	.L6:
 107 005e C046     		.align	2
 108              	.L5:
 109 0060 40000000 		.word	.LANCHOR0
 110              		.cfi_endproc
 111              	.LFE60:
 112              		.size	W25qxx_ReadID, .-W25qxx_ReadID
 113              		.section	.text.W25qxx_ReadUniqID,"ax",%progbits
 114              		.align	2
 115              		.global	W25qxx_ReadUniqID
 116              		.code	16
 117              		.thumb_func
 118              		.type	W25qxx_ReadUniqID, %function
 119              	W25qxx_ReadUniqID:
 120              	.LFB61:
  32:lib/w25qxx.c  **** //#################################################################################################
  33:lib/w25qxx.c  **** void W25qxx_ReadUniqID(void)
  34:lib/w25qxx.c  **** {
 121              		.loc 1 34 0
 122              		.cfi_startproc
 123              		@ args = 0, pretend = 0, frame = 8
 124              		@ frame_needed = 0, uses_anonymous_args = 0
 125 0000 30B5     		push	{r4, r5, lr}
 126              		.cfi_def_cfa_offset 12
 127              		.cfi_offset 4, -12
 128              		.cfi_offset 5, -8
 129              		.cfi_offset 14, -4
 130 0002 83B0     		sub	sp, sp, #12
 131              		.cfi_def_cfa_offset 24
 132              	.LVL14:
  35:lib/w25qxx.c  ****     uint8 i = 0;
  36:lib/w25qxx.c  ****     uint8_t data[8] = {0x4B,0xA5,0xA5,0xA5,0xA5,};
 133              		.loc 1 36 0
ARM GAS  C:\Users\luvsd\AppData\Local\Temp\cc7qBZw4.s 			page 4


 134 0004 0822     		movs	r2, #8
 135 0006 0021     		movs	r1, #0
 136 0008 6846     		mov	r0, sp
 137 000a FFF7FEFF 		bl	memset
 138              	.LVL15:
 139 000e 4B23     		movs	r3, #75
 140 0010 6A46     		mov	r2, sp
 141 0012 1370     		strb	r3, [r2]
 142 0014 5A33     		adds	r3, r3, #90
 143 0016 5370     		strb	r3, [r2, #1]
 144 0018 9370     		strb	r3, [r2, #2]
 145 001a D370     		strb	r3, [r2, #3]
 146 001c 1371     		strb	r3, [r2, #4]
  37:lib/w25qxx.c  ****     
  38:lib/w25qxx.c  ****     // Command    
  39:lib/w25qxx.c  ****     Ctrl_MEM_SS_Write(0);
 147              		.loc 1 39 0
 148 001e 0020     		movs	r0, #0
 149 0020 FFF7FEFF 		bl	Ctrl_MEM_SS_Write
 150              	.LVL16:
  40:lib/w25qxx.c  ****     SPIM_FLASH_PutArray(data, 5);
 151              		.loc 1 40 0
 152 0024 0521     		movs	r1, #5
 153 0026 6846     		mov	r0, sp
 154 0028 FFF7FEFF 		bl	SPIM_FLASH_PutArray
 155              	.LVL17:
 156              	.L8:
  41:lib/w25qxx.c  ****     while(!(SPIM_FLASH_ReadTxStatus() & SPIM_FLASH_STS_SPI_DONE));  
 157              		.loc 1 41 0 discriminator 1
 158 002c FFF7FEFF 		bl	SPIM_FLASH_ReadTxStatus
 159              	.LVL18:
 160 0030 C307     		lsls	r3, r0, #31
 161 0032 FBD5     		bpl	.L8
  42:lib/w25qxx.c  ****     SPIM_FLASH_ClearRxBuffer();
 162              		.loc 1 42 0
 163 0034 FFF7FEFF 		bl	SPIM_FLASH_ClearRxBuffer
 164              	.LVL19:
  43:lib/w25qxx.c  ****     SPIM_FLASH_PutArray(data, 8);
 165              		.loc 1 43 0
 166 0038 0821     		movs	r1, #8
 167 003a 6846     		mov	r0, sp
 168 003c FFF7FEFF 		bl	SPIM_FLASH_PutArray
 169              	.LVL20:
 170              	.L9:
  44:lib/w25qxx.c  ****     while(!(SPIM_FLASH_ReadTxStatus() & SPIM_FLASH_STS_SPI_DONE));
 171              		.loc 1 44 0 discriminator 1
 172 0040 FFF7FEFF 		bl	SPIM_FLASH_ReadTxStatus
 173              	.LVL21:
 174 0044 C307     		lsls	r3, r0, #31
 175 0046 FBD5     		bpl	.L9
  45:lib/w25qxx.c  ****     CyDelayUs(DELAY_W25QXX);
 176              		.loc 1 45 0
 177 0048 0A20     		movs	r0, #10
 178 004a FFF7FEFF 		bl	CyDelayUs
 179              	.LVL22:
  46:lib/w25qxx.c  ****     Ctrl_MEM_SS_Write(1);
 180              		.loc 1 46 0
ARM GAS  C:\Users\luvsd\AppData\Local\Temp\cc7qBZw4.s 			page 5


 181 004e 0120     		movs	r0, #1
 182 0050 FFF7FEFF 		bl	Ctrl_MEM_SS_Write
 183              	.LVL23:
  35:lib/w25qxx.c  ****     uint8_t data[8] = {0x4B,0xA5,0xA5,0xA5,0xA5,};
 184              		.loc 1 35 0
 185 0054 0024     		movs	r4, #0
  47:lib/w25qxx.c  **** 	while(SPIM_FLASH_GetRxBufferSize() > 0)
 186              		.loc 1 47 0
 187 0056 07E0     		b	.L10
 188              	.LVL24:
 189              	.L11:
  48:lib/w25qxx.c  ****     {
  49:lib/w25qxx.c  ****         w25qxx.UniqID[i++] = SPIM_FLASH_ReadByte();
 190              		.loc 1 49 0
 191 0058 651C     		adds	r5, r4, #1
 192 005a EDB2     		uxtb	r5, r5
 193              	.LVL25:
 194 005c FFF7FEFF 		bl	SPIM_FLASH_ReadRxData
 195              	.LVL26:
 196 0060 044B     		ldr	r3, .L12
 197 0062 1C19     		adds	r4, r3, r4
 198 0064 6070     		strb	r0, [r4, #1]
 199 0066 2C00     		movs	r4, r5
 200              	.LVL27:
 201              	.L10:
  47:lib/w25qxx.c  **** 	while(SPIM_FLASH_GetRxBufferSize() > 0)
 202              		.loc 1 47 0
 203 0068 FFF7FEFF 		bl	SPIM_FLASH_GetRxBufferSize
 204              	.LVL28:
 205 006c 0028     		cmp	r0, #0
 206 006e F3D1     		bne	.L11
  50:lib/w25qxx.c  ****     }
  51:lib/w25qxx.c  **** }
 207              		.loc 1 51 0
 208 0070 03B0     		add	sp, sp, #12
 209              		@ sp needed
 210              	.LVL29:
 211 0072 30BD     		pop	{r4, r5, pc}
 212              	.L13:
 213              		.align	2
 214              	.L12:
 215 0074 00000000 		.word	w25qxx
 216              		.cfi_endproc
 217              	.LFE61:
 218              		.size	W25qxx_ReadUniqID, .-W25qxx_ReadUniqID
 219              		.section	.text.W25qxx_WriteEnable,"ax",%progbits
 220              		.align	2
 221              		.global	W25qxx_WriteEnable
 222              		.code	16
 223              		.thumb_func
 224              		.type	W25qxx_WriteEnable, %function
 225              	W25qxx_WriteEnable:
 226              	.LFB62:
  52:lib/w25qxx.c  **** //#################################################################################################
  53:lib/w25qxx.c  **** void W25qxx_WriteEnable(void)
  54:lib/w25qxx.c  **** {
 227              		.loc 1 54 0
ARM GAS  C:\Users\luvsd\AppData\Local\Temp\cc7qBZw4.s 			page 6


 228              		.cfi_startproc
 229              		@ args = 0, pretend = 0, frame = 0
 230              		@ frame_needed = 0, uses_anonymous_args = 0
 231 0000 10B5     		push	{r4, lr}
 232              		.cfi_def_cfa_offset 8
 233              		.cfi_offset 4, -8
 234              		.cfi_offset 14, -4
  55:lib/w25qxx.c  ****     CyDelay(1);
 235              		.loc 1 55 0
 236 0002 0120     		movs	r0, #1
 237 0004 FFF7FEFF 		bl	CyDelay
 238              	.LVL30:
  56:lib/w25qxx.c  ****     Ctrl_MEM_SS_Write(0);
 239              		.loc 1 56 0
 240 0008 0020     		movs	r0, #0
 241 000a FFF7FEFF 		bl	Ctrl_MEM_SS_Write
 242              	.LVL31:
  57:lib/w25qxx.c  ****     SPIM_FLASH_WriteByte(0x06);	
 243              		.loc 1 57 0
 244 000e 0620     		movs	r0, #6
 245 0010 FFF7FEFF 		bl	SPIM_FLASH_WriteTxData
 246              	.LVL32:
 247              	.L15:
  58:lib/w25qxx.c  ****     //SPIM_FLASH_WriteByte(W25QXX_DUMMY_BYTE); 
  59:lib/w25qxx.c  ****     while(!(SPIM_FLASH_ReadTxStatus() & SPIM_FLASH_STS_SPI_DONE));  
 248              		.loc 1 59 0 discriminator 1
 249 0014 FFF7FEFF 		bl	SPIM_FLASH_ReadTxStatus
 250              	.LVL33:
 251 0018 C307     		lsls	r3, r0, #31
 252 001a FBD5     		bpl	.L15
  60:lib/w25qxx.c  ****     CyDelayUs(DELAY_W25QXX);
 253              		.loc 1 60 0
 254 001c 0A20     		movs	r0, #10
 255 001e FFF7FEFF 		bl	CyDelayUs
 256              	.LVL34:
  61:lib/w25qxx.c  ****     Ctrl_MEM_SS_Write(1);
 257              		.loc 1 61 0
 258 0022 0120     		movs	r0, #1
 259 0024 FFF7FEFF 		bl	Ctrl_MEM_SS_Write
 260              	.LVL35:
  62:lib/w25qxx.c  ****     SPIM_FLASH_ClearRxBuffer();
 261              		.loc 1 62 0
 262 0028 FFF7FEFF 		bl	SPIM_FLASH_ClearRxBuffer
 263              	.LVL36:
  63:lib/w25qxx.c  ****     CyDelay(1);
 264              		.loc 1 63 0
 265 002c 0120     		movs	r0, #1
 266 002e FFF7FEFF 		bl	CyDelay
 267              	.LVL37:
  64:lib/w25qxx.c  **** }
 268              		.loc 1 64 0
 269              		@ sp needed
 270 0032 10BD     		pop	{r4, pc}
 271              		.cfi_endproc
 272              	.LFE62:
 273              		.size	W25qxx_WriteEnable, .-W25qxx_WriteEnable
 274              		.section	.text.W25qxx_WriteDisable,"ax",%progbits
ARM GAS  C:\Users\luvsd\AppData\Local\Temp\cc7qBZw4.s 			page 7


 275              		.align	2
 276              		.global	W25qxx_WriteDisable
 277              		.code	16
 278              		.thumb_func
 279              		.type	W25qxx_WriteDisable, %function
 280              	W25qxx_WriteDisable:
 281              	.LFB63:
  65:lib/w25qxx.c  **** //#################################################################################################
  66:lib/w25qxx.c  **** void W25qxx_WriteDisable(void)
  67:lib/w25qxx.c  **** {
 282              		.loc 1 67 0
 283              		.cfi_startproc
 284              		@ args = 0, pretend = 0, frame = 0
 285              		@ frame_needed = 0, uses_anonymous_args = 0
 286 0000 10B5     		push	{r4, lr}
 287              		.cfi_def_cfa_offset 8
 288              		.cfi_offset 4, -8
 289              		.cfi_offset 14, -4
  68:lib/w25qxx.c  ****     CyDelay(1);
 290              		.loc 1 68 0
 291 0002 0120     		movs	r0, #1
 292 0004 FFF7FEFF 		bl	CyDelay
 293              	.LVL38:
  69:lib/w25qxx.c  ****     Ctrl_MEM_SS_Write(0);
 294              		.loc 1 69 0
 295 0008 0020     		movs	r0, #0
 296 000a FFF7FEFF 		bl	Ctrl_MEM_SS_Write
 297              	.LVL39:
  70:lib/w25qxx.c  ****     SPIM_FLASH_WriteByte(0x04);
 298              		.loc 1 70 0
 299 000e 0420     		movs	r0, #4
 300 0010 FFF7FEFF 		bl	SPIM_FLASH_WriteTxData
 301              	.LVL40:
 302              	.L17:
  71:lib/w25qxx.c  ****     while(!(SPIM_FLASH_ReadTxStatus() & SPIM_FLASH_STS_SPI_DONE));  
 303              		.loc 1 71 0 discriminator 1
 304 0014 FFF7FEFF 		bl	SPIM_FLASH_ReadTxStatus
 305              	.LVL41:
 306 0018 C307     		lsls	r3, r0, #31
 307 001a FBD5     		bpl	.L17
  72:lib/w25qxx.c  ****     CyDelayUs(DELAY_W25QXX);
 308              		.loc 1 72 0
 309 001c 0A20     		movs	r0, #10
 310 001e FFF7FEFF 		bl	CyDelayUs
 311              	.LVL42:
  73:lib/w25qxx.c  ****     Ctrl_MEM_SS_Write(1);
 312              		.loc 1 73 0
 313 0022 0120     		movs	r0, #1
 314 0024 FFF7FEFF 		bl	Ctrl_MEM_SS_Write
 315              	.LVL43:
  74:lib/w25qxx.c  ****     SPIM_FLASH_ClearRxBuffer();
 316              		.loc 1 74 0
 317 0028 FFF7FEFF 		bl	SPIM_FLASH_ClearRxBuffer
 318              	.LVL44:
  75:lib/w25qxx.c  ****     CyDelay(1);
 319              		.loc 1 75 0
 320 002c 0120     		movs	r0, #1
ARM GAS  C:\Users\luvsd\AppData\Local\Temp\cc7qBZw4.s 			page 8


 321 002e FFF7FEFF 		bl	CyDelay
 322              	.LVL45:
  76:lib/w25qxx.c  **** }
 323              		.loc 1 76 0
 324              		@ sp needed
 325 0032 10BD     		pop	{r4, pc}
 326              		.cfi_endproc
 327              	.LFE63:
 328              		.size	W25qxx_WriteDisable, .-W25qxx_WriteDisable
 329              		.section	.text.W25qxx_ReadStatusRegister,"ax",%progbits
 330              		.align	2
 331              		.global	W25qxx_ReadStatusRegister
 332              		.code	16
 333              		.thumb_func
 334              		.type	W25qxx_ReadStatusRegister, %function
 335              	W25qxx_ReadStatusRegister:
 336              	.LFB64:
  77:lib/w25qxx.c  **** //#################################################################################################
  78:lib/w25qxx.c  **** uint8_t W25qxx_ReadStatusRegister(uint8_t	SelectStatusRegister_1_2_3)
  79:lib/w25qxx.c  **** {
 337              		.loc 1 79 0
 338              		.cfi_startproc
 339              		@ args = 0, pretend = 0, frame = 8
 340              		@ frame_needed = 0, uses_anonymous_args = 0
 341              	.LVL46:
 342 0000 30B5     		push	{r4, r5, lr}
 343              		.cfi_def_cfa_offset 12
 344              		.cfi_offset 4, -12
 345              		.cfi_offset 5, -8
 346              		.cfi_offset 14, -4
 347 0002 83B0     		sub	sp, sp, #12
 348              		.cfi_def_cfa_offset 24
 349 0004 0400     		movs	r4, r0
 350              	.LVL47:
  80:lib/w25qxx.c  ****     uint8 readDataNO =0; 
  81:lib/w25qxx.c  **** 	uint8_t	status[2]={0,};
 351              		.loc 1 81 0
 352 0006 0022     		movs	r2, #0
 353 0008 01AB     		add	r3, sp, #4
 354 000a 1A80     		strh	r2, [r3]
  82:lib/w25qxx.c  ****     
  83:lib/w25qxx.c  ****     Ctrl_MEM_SS_Write(0);
 355              		.loc 1 83 0
 356 000c 0020     		movs	r0, #0
 357              	.LVL48:
 358 000e FFF7FEFF 		bl	Ctrl_MEM_SS_Write
 359              	.LVL49:
  84:lib/w25qxx.c  **** 	if(SelectStatusRegister_1_2_3==1)
 360              		.loc 1 84 0
 361 0012 012C     		cmp	r4, #1
 362 0014 1FD1     		bne	.L19
  85:lib/w25qxx.c  **** 	{
  86:lib/w25qxx.c  **** 		SPIM_FLASH_WriteByte(0x05);
 363              		.loc 1 86 0
 364 0016 0520     		movs	r0, #5
 365 0018 FFF7FEFF 		bl	SPIM_FLASH_WriteTxData
 366              	.LVL50:
ARM GAS  C:\Users\luvsd\AppData\Local\Temp\cc7qBZw4.s 			page 9


  87:lib/w25qxx.c  ****         SPIM_FLASH_WriteByte(W25QXX_DUMMY_BYTE);
 367              		.loc 1 87 0
 368 001c A520     		movs	r0, #165
 369 001e FFF7FEFF 		bl	SPIM_FLASH_WriteTxData
 370              	.LVL51:
 371              	.L20:
  88:lib/w25qxx.c  ****         while(!(SPIM_FLASH_ReadTxStatus() & SPIM_FLASH_STS_SPI_DONE));
 372              		.loc 1 88 0 discriminator 1
 373 0022 FFF7FEFF 		bl	SPIM_FLASH_ReadTxStatus
 374              	.LVL52:
 375 0026 C307     		lsls	r3, r0, #31
 376 0028 FBD5     		bpl	.L20
  89:lib/w25qxx.c  ****         CyDelayUs(DELAY_W25QXX);
 377              		.loc 1 89 0
 378 002a 0A20     		movs	r0, #10
 379 002c FFF7FEFF 		bl	CyDelayUs
 380              	.LVL53:
  80:lib/w25qxx.c  **** 	uint8_t	status[2]={0,};
 381              		.loc 1 80 0
 382 0030 0025     		movs	r5, #0
  90:lib/w25qxx.c  ****         while(SPIM_FLASH_GetRxBufferSize() > 0)
 383              		.loc 1 90 0
 384 0032 06E0     		b	.L21
 385              	.LVL54:
 386              	.L22:
  91:lib/w25qxx.c  ****         {
  92:lib/w25qxx.c  ****             status[readDataNO++] = SPIM_FLASH_ReadByte();
 387              		.loc 1 92 0
 388 0034 6C1C     		adds	r4, r5, #1
 389 0036 E4B2     		uxtb	r4, r4
 390              	.LVL55:
 391 0038 FFF7FEFF 		bl	SPIM_FLASH_ReadRxData
 392              	.LVL56:
 393 003c 01AB     		add	r3, sp, #4
 394 003e 5855     		strb	r0, [r3, r5]
 395 0040 2500     		movs	r5, r4
 396              	.LVL57:
 397              	.L21:
  90:lib/w25qxx.c  ****         while(SPIM_FLASH_GetRxBufferSize() > 0)
 398              		.loc 1 90 0
 399 0042 FFF7FEFF 		bl	SPIM_FLASH_GetRxBufferSize
 400              	.LVL58:
 401 0046 0028     		cmp	r0, #0
 402 0048 F4D1     		bne	.L22
  93:lib/w25qxx.c  ****         }
  94:lib/w25qxx.c  **** 		w25qxx.StatusRegister1 = status[1];
 403              		.loc 1 94 0
 404 004a 01AB     		add	r3, sp, #4
 405 004c 5978     		ldrb	r1, [r3, #1]
 406 004e 2423     		movs	r3, #36
 407 0050 264A     		ldr	r2, .L31
 408 0052 D154     		strb	r1, [r2, r3]
 409 0054 40E0     		b	.L23
 410              	.LVL59:
 411              	.L19:
  95:lib/w25qxx.c  **** 	}
  96:lib/w25qxx.c  **** 	else if(SelectStatusRegister_1_2_3==2)
ARM GAS  C:\Users\luvsd\AppData\Local\Temp\cc7qBZw4.s 			page 10


 412              		.loc 1 96 0
 413 0056 022C     		cmp	r4, #2
 414 0058 1FD1     		bne	.L24
  97:lib/w25qxx.c  **** 	{
  98:lib/w25qxx.c  **** 		SPIM_FLASH_WriteByte(0x35);
 415              		.loc 1 98 0
 416 005a 3520     		movs	r0, #53
 417 005c FFF7FEFF 		bl	SPIM_FLASH_WriteTxData
 418              	.LVL60:
  99:lib/w25qxx.c  ****         SPIM_FLASH_WriteByte(W25QXX_DUMMY_BYTE);
 419              		.loc 1 99 0
 420 0060 A520     		movs	r0, #165
 421 0062 FFF7FEFF 		bl	SPIM_FLASH_WriteTxData
 422              	.LVL61:
 423              	.L25:
 100:lib/w25qxx.c  ****         while(!(SPIM_FLASH_ReadTxStatus() & SPIM_FLASH_STS_SPI_DONE)); 
 424              		.loc 1 100 0 discriminator 1
 425 0066 FFF7FEFF 		bl	SPIM_FLASH_ReadTxStatus
 426              	.LVL62:
 427 006a C307     		lsls	r3, r0, #31
 428 006c FBD5     		bpl	.L25
 101:lib/w25qxx.c  ****         CyDelayUs(DELAY_W25QXX);
 429              		.loc 1 101 0
 430 006e 0A20     		movs	r0, #10
 431 0070 FFF7FEFF 		bl	CyDelayUs
 432              	.LVL63:
  80:lib/w25qxx.c  **** 	uint8_t	status[2]={0,};
 433              		.loc 1 80 0
 434 0074 0025     		movs	r5, #0
 102:lib/w25qxx.c  ****         while(SPIM_FLASH_GetRxBufferSize() > 0)
 435              		.loc 1 102 0
 436 0076 06E0     		b	.L26
 437              	.LVL64:
 438              	.L27:
 103:lib/w25qxx.c  ****         {
 104:lib/w25qxx.c  ****             status[readDataNO++] = SPIM_FLASH_ReadByte();
 439              		.loc 1 104 0
 440 0078 6C1C     		adds	r4, r5, #1
 441 007a E4B2     		uxtb	r4, r4
 442              	.LVL65:
 443 007c FFF7FEFF 		bl	SPIM_FLASH_ReadRxData
 444              	.LVL66:
 445 0080 01AB     		add	r3, sp, #4
 446 0082 5855     		strb	r0, [r3, r5]
 447 0084 2500     		movs	r5, r4
 448              	.LVL67:
 449              	.L26:
 102:lib/w25qxx.c  ****         while(SPIM_FLASH_GetRxBufferSize() > 0)
 450              		.loc 1 102 0
 451 0086 FFF7FEFF 		bl	SPIM_FLASH_GetRxBufferSize
 452              	.LVL68:
 453 008a 0028     		cmp	r0, #0
 454 008c F4D1     		bne	.L27
 105:lib/w25qxx.c  ****         }
 106:lib/w25qxx.c  **** 		w25qxx.StatusRegister2 = status[1];
 455              		.loc 1 106 0
 456 008e 01AB     		add	r3, sp, #4
ARM GAS  C:\Users\luvsd\AppData\Local\Temp\cc7qBZw4.s 			page 11


 457 0090 5978     		ldrb	r1, [r3, #1]
 458 0092 2523     		movs	r3, #37
 459 0094 154A     		ldr	r2, .L31
 460 0096 D154     		strb	r1, [r2, r3]
 461 0098 1EE0     		b	.L23
 462              	.LVL69:
 463              	.L24:
 107:lib/w25qxx.c  **** 	}
 108:lib/w25qxx.c  **** 	else
 109:lib/w25qxx.c  **** 	{
 110:lib/w25qxx.c  **** 		SPIM_FLASH_WriteByte(0x15);
 464              		.loc 1 110 0
 465 009a 1520     		movs	r0, #21
 466 009c FFF7FEFF 		bl	SPIM_FLASH_WriteTxData
 467              	.LVL70:
 111:lib/w25qxx.c  ****         SPIM_FLASH_WriteByte(W25QXX_DUMMY_BYTE);
 468              		.loc 1 111 0
 469 00a0 A520     		movs	r0, #165
 470 00a2 FFF7FEFF 		bl	SPIM_FLASH_WriteTxData
 471              	.LVL71:
 472              	.L28:
 112:lib/w25qxx.c  ****         while(!(SPIM_FLASH_ReadTxStatus() & SPIM_FLASH_STS_SPI_DONE)); 
 473              		.loc 1 112 0 discriminator 1
 474 00a6 FFF7FEFF 		bl	SPIM_FLASH_ReadTxStatus
 475              	.LVL72:
 476 00aa C307     		lsls	r3, r0, #31
 477 00ac FBD5     		bpl	.L28
 113:lib/w25qxx.c  ****         CyDelayUs(DELAY_W25QXX);
 478              		.loc 1 113 0
 479 00ae 0A20     		movs	r0, #10
 480 00b0 FFF7FEFF 		bl	CyDelayUs
 481              	.LVL73:
  80:lib/w25qxx.c  **** 	uint8_t	status[2]={0,};
 482              		.loc 1 80 0
 483 00b4 0025     		movs	r5, #0
 114:lib/w25qxx.c  ****         while(SPIM_FLASH_GetRxBufferSize() > 0)
 484              		.loc 1 114 0
 485 00b6 06E0     		b	.L29
 486              	.LVL74:
 487              	.L30:
 115:lib/w25qxx.c  ****         {
 116:lib/w25qxx.c  ****             status[readDataNO++] = SPIM_FLASH_ReadByte();
 488              		.loc 1 116 0
 489 00b8 6C1C     		adds	r4, r5, #1
 490 00ba E4B2     		uxtb	r4, r4
 491              	.LVL75:
 492 00bc FFF7FEFF 		bl	SPIM_FLASH_ReadRxData
 493              	.LVL76:
 494 00c0 01AB     		add	r3, sp, #4
 495 00c2 5855     		strb	r0, [r3, r5]
 496 00c4 2500     		movs	r5, r4
 497              	.LVL77:
 498              	.L29:
 114:lib/w25qxx.c  ****         while(SPIM_FLASH_GetRxBufferSize() > 0)
 499              		.loc 1 114 0
 500 00c6 FFF7FEFF 		bl	SPIM_FLASH_GetRxBufferSize
 501              	.LVL78:
ARM GAS  C:\Users\luvsd\AppData\Local\Temp\cc7qBZw4.s 			page 12


 502 00ca 0028     		cmp	r0, #0
 503 00cc F4D1     		bne	.L30
 117:lib/w25qxx.c  ****         }
 118:lib/w25qxx.c  **** 		w25qxx.StatusRegister3 = status[1];
 504              		.loc 1 118 0
 505 00ce 01AB     		add	r3, sp, #4
 506 00d0 5978     		ldrb	r1, [r3, #1]
 507 00d2 2623     		movs	r3, #38
 508 00d4 054A     		ldr	r2, .L31
 509 00d6 D154     		strb	r1, [r2, r3]
 510              	.L23:
 119:lib/w25qxx.c  **** 	}
 120:lib/w25qxx.c  ****     Ctrl_MEM_SS_Write(1);
 511              		.loc 1 120 0
 512 00d8 0120     		movs	r0, #1
 513 00da FFF7FEFF 		bl	Ctrl_MEM_SS_Write
 514              	.LVL79:
 121:lib/w25qxx.c  ****     CyDelayUs(DELAY_W25QXX);
 515              		.loc 1 121 0
 516 00de 0A20     		movs	r0, #10
 517 00e0 FFF7FEFF 		bl	CyDelayUs
 518              	.LVL80:
 122:lib/w25qxx.c  **** 	return status[1];
 519              		.loc 1 122 0
 520 00e4 01AB     		add	r3, sp, #4
 521 00e6 5878     		ldrb	r0, [r3, #1]
 123:lib/w25qxx.c  **** }
 522              		.loc 1 123 0
 523 00e8 03B0     		add	sp, sp, #12
 524              		@ sp needed
 525              	.LVL81:
 526 00ea 30BD     		pop	{r4, r5, pc}
 527              	.L32:
 528              		.align	2
 529              	.L31:
 530 00ec 00000000 		.word	w25qxx
 531              		.cfi_endproc
 532              	.LFE64:
 533              		.size	W25qxx_ReadStatusRegister, .-W25qxx_ReadStatusRegister
 534              		.section	.text.W25qxx_WriteStatusRegister,"ax",%progbits
 535              		.align	2
 536              		.global	W25qxx_WriteStatusRegister
 537              		.code	16
 538              		.thumb_func
 539              		.type	W25qxx_WriteStatusRegister, %function
 540              	W25qxx_WriteStatusRegister:
 541              	.LFB65:
 124:lib/w25qxx.c  **** //#################################################################################################
 125:lib/w25qxx.c  **** void W25qxx_WriteStatusRegister(uint8_t	SelectStatusRegister_1_2_3,uint8_t Data)
 126:lib/w25qxx.c  **** {
 542              		.loc 1 126 0
 543              		.cfi_startproc
 544              		@ args = 0, pretend = 0, frame = 0
 545              		@ frame_needed = 0, uses_anonymous_args = 0
 546              	.LVL82:
 547 0000 70B5     		push	{r4, r5, r6, lr}
 548              		.cfi_def_cfa_offset 16
ARM GAS  C:\Users\luvsd\AppData\Local\Temp\cc7qBZw4.s 			page 13


 549              		.cfi_offset 4, -16
 550              		.cfi_offset 5, -12
 551              		.cfi_offset 6, -8
 552              		.cfi_offset 14, -4
 553 0002 0500     		movs	r5, r0
 554 0004 0C00     		movs	r4, r1
 555              	.LVL83:
 127:lib/w25qxx.c  **** 	uint8_t	status=0;
 128:lib/w25qxx.c  ****     Ctrl_MEM_SS_Write(0);
 556              		.loc 1 128 0
 557 0006 0020     		movs	r0, #0
 558              	.LVL84:
 559 0008 FFF7FEFF 		bl	Ctrl_MEM_SS_Write
 560              	.LVL85:
 129:lib/w25qxx.c  **** 	if(SelectStatusRegister_1_2_3==1)
 561              		.loc 1 129 0
 562 000c 012D     		cmp	r5, #1
 563 000e 06D1     		bne	.L34
 130:lib/w25qxx.c  **** 	{
 131:lib/w25qxx.c  ****         SPIM_FLASH_WriteByte(0x01);
 564              		.loc 1 131 0
 565 0010 0120     		movs	r0, #1
 566 0012 FFF7FEFF 		bl	SPIM_FLASH_WriteTxData
 567              	.LVL86:
 132:lib/w25qxx.c  **** 		w25qxx.StatusRegister1 = Data;
 568              		.loc 1 132 0
 569 0016 2423     		movs	r3, #36
 570 0018 114A     		ldr	r2, .L38
 571 001a D454     		strb	r4, [r2, r3]
 572 001c 0EE0     		b	.L35
 573              	.L34:
 133:lib/w25qxx.c  **** 	}
 134:lib/w25qxx.c  **** 	else if(SelectStatusRegister_1_2_3==2)
 574              		.loc 1 134 0
 575 001e 022D     		cmp	r5, #2
 576 0020 06D1     		bne	.L36
 135:lib/w25qxx.c  **** 	{
 136:lib/w25qxx.c  ****         SPIM_FLASH_WriteByte(0x31);
 577              		.loc 1 136 0
 578 0022 3120     		movs	r0, #49
 579 0024 FFF7FEFF 		bl	SPIM_FLASH_WriteTxData
 580              	.LVL87:
 137:lib/w25qxx.c  **** 		w25qxx.StatusRegister2 = Data;
 581              		.loc 1 137 0
 582 0028 2523     		movs	r3, #37
 583 002a 0D4A     		ldr	r2, .L38
 584 002c D454     		strb	r4, [r2, r3]
 585 002e 05E0     		b	.L35
 586              	.L36:
 138:lib/w25qxx.c  **** 	}
 139:lib/w25qxx.c  **** 	else
 140:lib/w25qxx.c  **** 	{
 141:lib/w25qxx.c  ****         SPIM_FLASH_WriteByte(0x11);
 587              		.loc 1 141 0
 588 0030 1120     		movs	r0, #17
 589 0032 FFF7FEFF 		bl	SPIM_FLASH_WriteTxData
 590              	.LVL88:
ARM GAS  C:\Users\luvsd\AppData\Local\Temp\cc7qBZw4.s 			page 14


 142:lib/w25qxx.c  **** 		w25qxx.StatusRegister3 = Data;
 591              		.loc 1 142 0
 592 0036 2623     		movs	r3, #38
 593 0038 094A     		ldr	r2, .L38
 594 003a D454     		strb	r4, [r2, r3]
 595              	.L35:
 143:lib/w25qxx.c  **** 	}
 144:lib/w25qxx.c  **** 	SPIM_FLASH_WriteByte(Data);
 596              		.loc 1 144 0
 597 003c 2000     		movs	r0, r4
 598 003e FFF7FEFF 		bl	SPIM_FLASH_WriteTxData
 599              	.LVL89:
 600              	.L37:
 145:lib/w25qxx.c  ****     while(!(SPIM_FLASH_ReadTxStatus() & SPIM_FLASH_STS_SPI_DONE)); 
 601              		.loc 1 145 0 discriminator 1
 602 0042 FFF7FEFF 		bl	SPIM_FLASH_ReadTxStatus
 603              	.LVL90:
 604 0046 C307     		lsls	r3, r0, #31
 605 0048 FBD5     		bpl	.L37
 146:lib/w25qxx.c  ****     CyDelayUs(DELAY_W25QXX);
 606              		.loc 1 146 0
 607 004a 0A20     		movs	r0, #10
 608 004c FFF7FEFF 		bl	CyDelayUs
 609              	.LVL91:
 147:lib/w25qxx.c  ****     Ctrl_MEM_SS_Write(1);
 610              		.loc 1 147 0
 611 0050 0120     		movs	r0, #1
 612 0052 FFF7FEFF 		bl	Ctrl_MEM_SS_Write
 613              	.LVL92:
 148:lib/w25qxx.c  ****     CyDelay(20);
 614              		.loc 1 148 0
 615 0056 1420     		movs	r0, #20
 616 0058 FFF7FEFF 		bl	CyDelay
 617              	.LVL93:
 149:lib/w25qxx.c  **** }
 618              		.loc 1 149 0
 619              		@ sp needed
 620 005c 70BD     		pop	{r4, r5, r6, pc}
 621              	.L39:
 622 005e C046     		.align	2
 623              	.L38:
 624 0060 00000000 		.word	w25qxx
 625              		.cfi_endproc
 626              	.LFE65:
 627              		.size	W25qxx_WriteStatusRegister, .-W25qxx_WriteStatusRegister
 628              		.section	.text.W25qxx_WaitForWriteEnd,"ax",%progbits
 629              		.align	2
 630              		.global	W25qxx_WaitForWriteEnd
 631              		.code	16
 632              		.thumb_func
 633              		.type	W25qxx_WaitForWriteEnd, %function
 634              	W25qxx_WaitForWriteEnd:
 635              	.LFB66:
 150:lib/w25qxx.c  **** //#################################################################################################
 151:lib/w25qxx.c  **** void W25qxx_WaitForWriteEnd(void)
 152:lib/w25qxx.c  **** {
 636              		.loc 1 152 0
ARM GAS  C:\Users\luvsd\AppData\Local\Temp\cc7qBZw4.s 			page 15


 637              		.cfi_startproc
 638              		@ args = 0, pretend = 0, frame = 0
 639              		@ frame_needed = 0, uses_anonymous_args = 0
 640 0000 10B5     		push	{r4, lr}
 641              		.cfi_def_cfa_offset 8
 642              		.cfi_offset 4, -8
 643              		.cfi_offset 14, -4
 153:lib/w25qxx.c  ****     Ctrl_MEM_SS_Write(0);
 644              		.loc 1 153 0
 645 0002 0020     		movs	r0, #0
 646 0004 FFF7FEFF 		bl	Ctrl_MEM_SS_Write
 647              	.LVL94:
 154:lib/w25qxx.c  **** 	SPIM_FLASH_WriteByte(0x05);
 648              		.loc 1 154 0
 649 0008 0520     		movs	r0, #5
 650 000a FFF7FEFF 		bl	SPIM_FLASH_WriteTxData
 651              	.LVL95:
 652              	.L41:
 155:lib/w25qxx.c  ****     while(!(SPIM_FLASH_ReadTxStatus() & SPIM_FLASH_STS_SPI_DONE));
 653              		.loc 1 155 0 discriminator 1
 654 000e FFF7FEFF 		bl	SPIM_FLASH_ReadTxStatus
 655              	.LVL96:
 656 0012 C307     		lsls	r3, r0, #31
 657 0014 FBD5     		bpl	.L41
 156:lib/w25qxx.c  ****     CyDelayUs(DELAY_W25QXX);
 658              		.loc 1 156 0
 659 0016 0A20     		movs	r0, #10
 660 0018 FFF7FEFF 		bl	CyDelayUs
 661              	.LVL97:
 157:lib/w25qxx.c  ****     SPIM_FLASH_ClearRxBuffer();
 662              		.loc 1 157 0
 663 001c FFF7FEFF 		bl	SPIM_FLASH_ClearRxBuffer
 664              	.LVL98:
 665              	.L43:
 158:lib/w25qxx.c  ****     do
 159:lib/w25qxx.c  ****     {
 160:lib/w25qxx.c  ****         SPIM_FLASH_WriteByte(W25QXX_DUMMY_BYTE);
 666              		.loc 1 160 0
 667 0020 A520     		movs	r0, #165
 668 0022 FFF7FEFF 		bl	SPIM_FLASH_WriteTxData
 669              	.LVL99:
 670              	.L42:
 161:lib/w25qxx.c  ****         while(!(SPIM_FLASH_ReadTxStatus() & SPIM_FLASH_STS_SPI_DONE));
 671              		.loc 1 161 0 discriminator 1
 672 0026 FFF7FEFF 		bl	SPIM_FLASH_ReadTxStatus
 673              	.LVL100:
 674 002a C307     		lsls	r3, r0, #31
 675 002c FBD5     		bpl	.L42
 162:lib/w25qxx.c  ****         w25qxx.StatusRegister1 = SPIM_FLASH_ReadByte();
 676              		.loc 1 162 0
 677 002e FFF7FEFF 		bl	SPIM_FLASH_ReadRxData
 678              	.LVL101:
 679 0032 2423     		movs	r3, #36
 680 0034 064A     		ldr	r2, .L44
 681 0036 D054     		strb	r0, [r2, r3]
 163:lib/w25qxx.c  ****     }
 164:lib/w25qxx.c  ****     while ((w25qxx.StatusRegister1 & 0x01) == 0x01);
ARM GAS  C:\Users\luvsd\AppData\Local\Temp\cc7qBZw4.s 			page 16


 682              		.loc 1 164 0
 683 0038 C307     		lsls	r3, r0, #31
 684 003a F1D4     		bmi	.L43
 165:lib/w25qxx.c  ****     CyDelayUs(DELAY_W25QXX);
 685              		.loc 1 165 0
 686 003c 0A20     		movs	r0, #10
 687 003e FFF7FEFF 		bl	CyDelayUs
 688              	.LVL102:
 166:lib/w25qxx.c  ****     Ctrl_MEM_SS_Write(1);
 689              		.loc 1 166 0
 690 0042 0120     		movs	r0, #1
 691 0044 FFF7FEFF 		bl	Ctrl_MEM_SS_Write
 692              	.LVL103:
 167:lib/w25qxx.c  ****     CyDelay(1);
 693              		.loc 1 167 0
 694 0048 0120     		movs	r0, #1
 695 004a FFF7FEFF 		bl	CyDelay
 696              	.LVL104:
 168:lib/w25qxx.c  **** }
 697              		.loc 1 168 0
 698              		@ sp needed
 699 004e 10BD     		pop	{r4, pc}
 700              	.L45:
 701              		.align	2
 702              	.L44:
 703 0050 00000000 		.word	w25qxx
 704              		.cfi_endproc
 705              	.LFE66:
 706              		.size	W25qxx_WaitForWriteEnd, .-W25qxx_WaitForWriteEnd
 707              		.section	.text.W25qxx_Init,"ax",%progbits
 708              		.align	2
 709              		.global	W25qxx_Init
 710              		.code	16
 711              		.thumb_func
 712              		.type	W25qxx_Init, %function
 713              	W25qxx_Init:
 714              	.LFB67:
 169:lib/w25qxx.c  **** //#################################################################################################
 170:lib/w25qxx.c  **** bool	W25qxx_Init(void)
 171:lib/w25qxx.c  **** {
 715              		.loc 1 171 0
 716              		.cfi_startproc
 717              		@ args = 0, pretend = 0, frame = 0
 718              		@ frame_needed = 0, uses_anonymous_args = 0
 719 0000 10B5     		push	{r4, lr}
 720              		.cfi_def_cfa_offset 8
 721              		.cfi_offset 4, -8
 722              		.cfi_offset 14, -4
 172:lib/w25qxx.c  ****     w25qxx.Lock=1;
 723              		.loc 1 172 0
 724 0002 0121     		movs	r1, #1
 725 0004 2723     		movs	r3, #39
 726 0006 3B4A     		ldr	r2, .L61
 727 0008 D154     		strb	r1, [r2, r3]
 173:lib/w25qxx.c  ****     CyDelay(100);
 728              		.loc 1 173 0
 729 000a 6420     		movs	r0, #100
ARM GAS  C:\Users\luvsd\AppData\Local\Temp\cc7qBZw4.s 			page 17


 730 000c FFF7FEFF 		bl	CyDelay
 731              	.LVL105:
 174:lib/w25qxx.c  ****     
 175:lib/w25qxx.c  ****     uint32_t	id;
 176:lib/w25qxx.c  ****     
 177:lib/w25qxx.c  ****     id=W25qxx_ReadID();
 732              		.loc 1 177 0
 733 0010 FFF7FEFF 		bl	W25qxx_ReadID
 734              	.LVL106:
 178:lib/w25qxx.c  **** 
 179:lib/w25qxx.c  ****     switch(id & 0x000000FF)
 735              		.loc 1 179 0
 736 0014 FF23     		movs	r3, #255
 737 0016 1840     		ands	r0, r3
 738              	.LVL107:
 739 0018 1138     		subs	r0, r0, #17
 740 001a 0F28     		cmp	r0, #15
 741 001c 41D8     		bhi	.L47
 742 001e 8000     		lsls	r0, r0, #2
 743 0020 354B     		ldr	r3, .L61+4
 744 0022 1B58     		ldr	r3, [r3, r0]
 745 0024 9F46     		mov	pc, r3
 746              		.section	.rodata
 747              		.align	2
 748              	.L49:
 749 0000 96000000 		.word	.L48
 750 0004 8A000000 		.word	.L50
 751 0008 7E000000 		.word	.L51
 752 000c 72000000 		.word	.L52
 753 0010 66000000 		.word	.L53
 754 0014 5A000000 		.word	.L54
 755 0018 4E000000 		.word	.L55
 756 001c 42000000 		.word	.L56
 757 0020 34000000 		.word	.L57
 758 0024 A2000000 		.word	.L47
 759 0028 A2000000 		.word	.L47
 760 002c A2000000 		.word	.L47
 761 0030 A2000000 		.word	.L47
 762 0034 A2000000 		.word	.L47
 763 0038 A2000000 		.word	.L47
 764 003c 26000000 		.word	.L58
 765              		.section	.text.W25qxx_Init
 766              	.L58:
 180:lib/w25qxx.c  ****     {
 181:lib/w25qxx.c  ****     	case 0x20:	// 	w25q512
 182:lib/w25qxx.c  ****     		w25qxx.ID=W25Q512;
 767              		.loc 1 182 0
 768 0026 334B     		ldr	r3, .L61
 769 0028 0A22     		movs	r2, #10
 770 002a 1A70     		strb	r2, [r3]
 183:lib/w25qxx.c  ****     		w25qxx.BlockCount=1024;
 771              		.loc 1 183 0
 772 002c 8022     		movs	r2, #128
 773 002e D200     		lsls	r2, r2, #3
 774 0030 DA61     		str	r2, [r3, #28]
 184:lib/w25qxx.c  ****     	break;
 775              		.loc 1 184 0
ARM GAS  C:\Users\luvsd\AppData\Local\Temp\cc7qBZw4.s 			page 18


 776 0032 3CE0     		b	.L59
 777              	.L57:
 185:lib/w25qxx.c  ****     	case 0x19:	// 	w25q256
 186:lib/w25qxx.c  ****     		w25qxx.ID=W25Q256;
 778              		.loc 1 186 0
 779 0034 2F4B     		ldr	r3, .L61
 780 0036 0922     		movs	r2, #9
 781 0038 1A70     		strb	r2, [r3]
 187:lib/w25qxx.c  ****     		w25qxx.BlockCount=512;
 782              		.loc 1 187 0
 783 003a F832     		adds	r2, r2, #248
 784 003c FF32     		adds	r2, r2, #255
 785 003e DA61     		str	r2, [r3, #28]
 188:lib/w25qxx.c  ****     	break;
 786              		.loc 1 188 0
 787 0040 35E0     		b	.L59
 788              	.L56:
 189:lib/w25qxx.c  ****     	case 0x18:	// 	w25q128
 190:lib/w25qxx.c  ****     		w25qxx.ID=W25Q128;
 789              		.loc 1 190 0
 790 0042 2C4B     		ldr	r3, .L61
 791 0044 0822     		movs	r2, #8
 792 0046 1A70     		strb	r2, [r3]
 191:lib/w25qxx.c  ****     		w25qxx.BlockCount=256;
 793              		.loc 1 191 0
 794 0048 F832     		adds	r2, r2, #248
 795 004a DA61     		str	r2, [r3, #28]
 192:lib/w25qxx.c  ****     	break;
 796              		.loc 1 192 0
 797 004c 2FE0     		b	.L59
 798              	.L55:
 193:lib/w25qxx.c  ****     	case 0x17:	//	w25q64
 194:lib/w25qxx.c  ****     		w25qxx.ID=W25Q64;
 799              		.loc 1 194 0
 800 004e 294B     		ldr	r3, .L61
 801 0050 0722     		movs	r2, #7
 802 0052 1A70     		strb	r2, [r3]
 195:lib/w25qxx.c  ****     		w25qxx.BlockCount=128;
 803              		.loc 1 195 0
 804 0054 7932     		adds	r2, r2, #121
 805 0056 DA61     		str	r2, [r3, #28]
 196:lib/w25qxx.c  ****     	break;
 806              		.loc 1 196 0
 807 0058 29E0     		b	.L59
 808              	.L54:
 197:lib/w25qxx.c  ****     	case 0x16:	//	w25q32
 198:lib/w25qxx.c  ****     		w25qxx.ID=W25Q32;
 809              		.loc 1 198 0
 810 005a 264B     		ldr	r3, .L61
 811 005c 0622     		movs	r2, #6
 812 005e 1A70     		strb	r2, [r3]
 199:lib/w25qxx.c  ****     		w25qxx.BlockCount=64;
 813              		.loc 1 199 0
 814 0060 3A32     		adds	r2, r2, #58
 815 0062 DA61     		str	r2, [r3, #28]
 200:lib/w25qxx.c  ****     	break;
 816              		.loc 1 200 0
ARM GAS  C:\Users\luvsd\AppData\Local\Temp\cc7qBZw4.s 			page 19


 817 0064 23E0     		b	.L59
 818              	.L53:
 201:lib/w25qxx.c  ****     	case 0x15:	//	w25q16
 202:lib/w25qxx.c  ****     		w25qxx.ID=W25Q16;
 819              		.loc 1 202 0
 820 0066 234B     		ldr	r3, .L61
 821 0068 0522     		movs	r2, #5
 822 006a 1A70     		strb	r2, [r3]
 203:lib/w25qxx.c  ****     		w25qxx.BlockCount=32;
 823              		.loc 1 203 0
 824 006c 1B32     		adds	r2, r2, #27
 825 006e DA61     		str	r2, [r3, #28]
 204:lib/w25qxx.c  ****     	break;
 826              		.loc 1 204 0
 827 0070 1DE0     		b	.L59
 828              	.L52:
 205:lib/w25qxx.c  ****     	case 0x14:	//	w25q80
 206:lib/w25qxx.c  ****     		w25qxx.ID=W25Q80;
 829              		.loc 1 206 0
 830 0072 204B     		ldr	r3, .L61
 831 0074 0422     		movs	r2, #4
 832 0076 1A70     		strb	r2, [r3]
 207:lib/w25qxx.c  ****     		w25qxx.BlockCount=16;
 833              		.loc 1 207 0
 834 0078 0C32     		adds	r2, r2, #12
 835 007a DA61     		str	r2, [r3, #28]
 208:lib/w25qxx.c  ****     	break;
 836              		.loc 1 208 0
 837 007c 17E0     		b	.L59
 838              	.L51:
 209:lib/w25qxx.c  ****     	case 0x13:	//	w25q40
 210:lib/w25qxx.c  ****     		w25qxx.ID=W25Q40;
 839              		.loc 1 210 0
 840 007e 1D4B     		ldr	r3, .L61
 841 0080 0322     		movs	r2, #3
 842 0082 1A70     		strb	r2, [r3]
 211:lib/w25qxx.c  ****     		w25qxx.BlockCount=8;
 843              		.loc 1 211 0
 844 0084 0532     		adds	r2, r2, #5
 845 0086 DA61     		str	r2, [r3, #28]
 212:lib/w25qxx.c  ****     	break;
 846              		.loc 1 212 0
 847 0088 11E0     		b	.L59
 848              	.L50:
 213:lib/w25qxx.c  ****     	case 0x12:	//	w25q20
 214:lib/w25qxx.c  ****     		w25qxx.ID=W25Q20;
 849              		.loc 1 214 0
 850 008a 1A4B     		ldr	r3, .L61
 851 008c 0222     		movs	r2, #2
 852 008e 1A70     		strb	r2, [r3]
 215:lib/w25qxx.c  ****     		w25qxx.BlockCount=4;
 853              		.loc 1 215 0
 854 0090 0232     		adds	r2, r2, #2
 855 0092 DA61     		str	r2, [r3, #28]
 216:lib/w25qxx.c  ****     	break;
 856              		.loc 1 216 0
 857 0094 0BE0     		b	.L59
ARM GAS  C:\Users\luvsd\AppData\Local\Temp\cc7qBZw4.s 			page 20


 858              	.L48:
 217:lib/w25qxx.c  ****     	case 0x11:	//	w25q10
 218:lib/w25qxx.c  ****     		w25qxx.ID=W25Q10;
 859              		.loc 1 218 0
 860 0096 174B     		ldr	r3, .L61
 861 0098 0122     		movs	r2, #1
 862 009a 1A70     		strb	r2, [r3]
 219:lib/w25qxx.c  ****     		w25qxx.BlockCount=2;
 863              		.loc 1 219 0
 864 009c 0132     		adds	r2, r2, #1
 865 009e DA61     		str	r2, [r3, #28]
 220:lib/w25qxx.c  ****     	break;
 866              		.loc 1 220 0
 867 00a0 05E0     		b	.L59
 868              	.L47:
 221:lib/w25qxx.c  ****     	default:
 222:lib/w25qxx.c  ****     		w25qxx.Lock=0;	
 869              		.loc 1 222 0
 870 00a2 0021     		movs	r1, #0
 871 00a4 2723     		movs	r3, #39
 872 00a6 134A     		ldr	r2, .L61
 873 00a8 D154     		strb	r1, [r2, r3]
 223:lib/w25qxx.c  ****     		return false;
 874              		.loc 1 223 0
 875 00aa 0020     		movs	r0, #0
 876 00ac 20E0     		b	.L60
 877              	.L59:
 224:lib/w25qxx.c  ****     			
 225:lib/w25qxx.c  ****     }		
 226:lib/w25qxx.c  ****     w25qxx.PageSize=256;
 878              		.loc 1 226 0
 879 00ae 114C     		ldr	r4, .L61
 880 00b0 8023     		movs	r3, #128
 881 00b2 5B00     		lsls	r3, r3, #1
 882 00b4 6381     		strh	r3, [r4, #10]
 227:lib/w25qxx.c  ****     w25qxx.SectorSize=0x1000;
 883              		.loc 1 227 0
 884 00b6 8023     		movs	r3, #128
 885 00b8 5B01     		lsls	r3, r3, #5
 886 00ba 2361     		str	r3, [r4, #16]
 228:lib/w25qxx.c  ****     w25qxx.SectorCount=w25qxx.BlockCount*16;
 887              		.loc 1 228 0
 888 00bc E369     		ldr	r3, [r4, #28]
 889 00be 1A01     		lsls	r2, r3, #4
 890 00c0 6261     		str	r2, [r4, #20]
 229:lib/w25qxx.c  ****     w25qxx.PageCount=(w25qxx.SectorCount*w25qxx.SectorSize)/w25qxx.PageSize;
 891              		.loc 1 229 0
 892 00c2 1B04     		lsls	r3, r3, #16
 893 00c4 1A0A     		lsrs	r2, r3, #8
 894 00c6 E260     		str	r2, [r4, #12]
 230:lib/w25qxx.c  ****     w25qxx.BlockSize=w25qxx.SectorSize*16;
 895              		.loc 1 230 0
 896 00c8 8022     		movs	r2, #128
 897 00ca 5202     		lsls	r2, r2, #9
 898 00cc A261     		str	r2, [r4, #24]
 231:lib/w25qxx.c  ****     w25qxx.CapacityInKiloByte=(w25qxx.SectorCount*w25qxx.SectorSize)/1024;
 899              		.loc 1 231 0
ARM GAS  C:\Users\luvsd\AppData\Local\Temp\cc7qBZw4.s 			page 21


 900 00ce 9B0A     		lsrs	r3, r3, #10
 901 00d0 2362     		str	r3, [r4, #32]
 232:lib/w25qxx.c  ****     W25qxx_ReadUniqID();
 902              		.loc 1 232 0
 903 00d2 FFF7FEFF 		bl	W25qxx_ReadUniqID
 904              	.LVL108:
 233:lib/w25qxx.c  ****     W25qxx_ReadStatusRegister(1);
 905              		.loc 1 233 0
 906 00d6 0120     		movs	r0, #1
 907 00d8 FFF7FEFF 		bl	W25qxx_ReadStatusRegister
 908              	.LVL109:
 234:lib/w25qxx.c  ****     W25qxx_ReadStatusRegister(2);
 909              		.loc 1 234 0
 910 00dc 0220     		movs	r0, #2
 911 00de FFF7FEFF 		bl	W25qxx_ReadStatusRegister
 912              	.LVL110:
 235:lib/w25qxx.c  ****     W25qxx_ReadStatusRegister(3);
 913              		.loc 1 235 0
 914 00e2 0320     		movs	r0, #3
 915 00e4 FFF7FEFF 		bl	W25qxx_ReadStatusRegister
 916              	.LVL111:
 236:lib/w25qxx.c  ****     w25qxx.Lock=0;	
 917              		.loc 1 236 0
 918 00e8 0022     		movs	r2, #0
 919 00ea 2723     		movs	r3, #39
 920 00ec E254     		strb	r2, [r4, r3]
 237:lib/w25qxx.c  ****     return true;
 921              		.loc 1 237 0
 922 00ee 0120     		movs	r0, #1
 923              	.L60:
 238:lib/w25qxx.c  **** }	
 924              		.loc 1 238 0
 925              		@ sp needed
 926 00f0 10BD     		pop	{r4, pc}
 927              	.L62:
 928 00f2 C046     		.align	2
 929              	.L61:
 930 00f4 00000000 		.word	w25qxx
 931 00f8 00000000 		.word	.L49
 932              		.cfi_endproc
 933              	.LFE67:
 934              		.size	W25qxx_Init, .-W25qxx_Init
 935              		.section	.text.W25qxx_EraseChip,"ax",%progbits
 936              		.align	2
 937              		.global	W25qxx_EraseChip
 938              		.code	16
 939              		.thumb_func
 940              		.type	W25qxx_EraseChip, %function
 941              	W25qxx_EraseChip:
 942              	.LFB68:
 239:lib/w25qxx.c  **** //#################################################################################################
 240:lib/w25qxx.c  **** void	W25qxx_EraseChip(void)
 241:lib/w25qxx.c  **** {
 943              		.loc 1 241 0
 944              		.cfi_startproc
 945              		@ args = 0, pretend = 0, frame = 0
 946              		@ frame_needed = 0, uses_anonymous_args = 0
ARM GAS  C:\Users\luvsd\AppData\Local\Temp\cc7qBZw4.s 			page 22


 947 0000 10B5     		push	{r4, lr}
 948              		.cfi_def_cfa_offset 8
 949              		.cfi_offset 4, -8
 950              		.cfi_offset 14, -4
 242:lib/w25qxx.c  **** 	while(w25qxx.Lock==1)
 951              		.loc 1 242 0
 952 0002 02E0     		b	.L64
 953              	.L65:
 243:lib/w25qxx.c  **** 		CyDelay(1);
 954              		.loc 1 243 0
 955 0004 0120     		movs	r0, #1
 956 0006 FFF7FEFF 		bl	CyDelay
 957              	.LVL112:
 958              	.L64:
 242:lib/w25qxx.c  **** 	while(w25qxx.Lock==1)
 959              		.loc 1 242 0
 960 000a 2723     		movs	r3, #39
 961 000c 0F4A     		ldr	r2, .L67
 962 000e D35C     		ldrb	r3, [r2, r3]
 963 0010 012B     		cmp	r3, #1
 964 0012 F7D0     		beq	.L65
 244:lib/w25qxx.c  **** 	w25qxx.Lock=1;	
 965              		.loc 1 244 0
 966 0014 0121     		movs	r1, #1
 967 0016 2723     		movs	r3, #39
 968 0018 D154     		strb	r1, [r2, r3]
 245:lib/w25qxx.c  **** 	W25qxx_WriteEnable();
 969              		.loc 1 245 0
 970 001a FFF7FEFF 		bl	W25qxx_WriteEnable
 971              	.LVL113:
 246:lib/w25qxx.c  ****     
 247:lib/w25qxx.c  ****     Ctrl_MEM_SS_Write(0);
 972              		.loc 1 247 0
 973 001e 0020     		movs	r0, #0
 974 0020 FFF7FEFF 		bl	Ctrl_MEM_SS_Write
 975              	.LVL114:
 248:lib/w25qxx.c  ****     SPIM_FLASH_WriteByte(0xC7);
 976              		.loc 1 248 0
 977 0024 C720     		movs	r0, #199
 978 0026 FFF7FEFF 		bl	SPIM_FLASH_WriteTxData
 979              	.LVL115:
 980              	.L66:
 249:lib/w25qxx.c  ****     while(!(SPIM_FLASH_ReadTxStatus() & SPIM_FLASH_STS_SPI_DONE));
 981              		.loc 1 249 0 discriminator 1
 982 002a FFF7FEFF 		bl	SPIM_FLASH_ReadTxStatus
 983              	.LVL116:
 984 002e C307     		lsls	r3, r0, #31
 985 0030 FBD5     		bpl	.L66
 250:lib/w25qxx.c  ****     CyDelayUs(DELAY_W25QXX);
 986              		.loc 1 250 0
 987 0032 0A20     		movs	r0, #10
 988 0034 FFF7FEFF 		bl	CyDelayUs
 989              	.LVL117:
 251:lib/w25qxx.c  ****     Ctrl_MEM_SS_Write(1);       
 990              		.loc 1 251 0
 991 0038 0120     		movs	r0, #1
 992 003a FFF7FEFF 		bl	Ctrl_MEM_SS_Write
ARM GAS  C:\Users\luvsd\AppData\Local\Temp\cc7qBZw4.s 			page 23


 993              	.LVL118:
 252:lib/w25qxx.c  ****     
 253:lib/w25qxx.c  **** 	W25qxx_WaitForWriteEnd();
 994              		.loc 1 253 0
 995 003e FFF7FEFF 		bl	W25qxx_WaitForWriteEnd
 996              	.LVL119:
 254:lib/w25qxx.c  ****     
 255:lib/w25qxx.c  **** 	w25qxx.Lock=0;	
 997              		.loc 1 255 0
 998 0042 0021     		movs	r1, #0
 999 0044 2723     		movs	r3, #39
 1000 0046 014A     		ldr	r2, .L67
 1001 0048 D154     		strb	r1, [r2, r3]
 256:lib/w25qxx.c  **** }
 1002              		.loc 1 256 0
 1003              		@ sp needed
 1004 004a 10BD     		pop	{r4, pc}
 1005              	.L68:
 1006              		.align	2
 1007              	.L67:
 1008 004c 00000000 		.word	w25qxx
 1009              		.cfi_endproc
 1010              	.LFE68:
 1011              		.size	W25qxx_EraseChip, .-W25qxx_EraseChip
 1012              		.section	.text.W25qxx_EraseSector,"ax",%progbits
 1013              		.align	2
 1014              		.global	W25qxx_EraseSector
 1015              		.code	16
 1016              		.thumb_func
 1017              		.type	W25qxx_EraseSector, %function
 1018              	W25qxx_EraseSector:
 1019              	.LFB69:
 257:lib/w25qxx.c  **** //#################################################################################################
 258:lib/w25qxx.c  **** void W25qxx_EraseSector(uint32_t SectorAddr)
 259:lib/w25qxx.c  **** {
 1020              		.loc 1 259 0
 1021              		.cfi_startproc
 1022              		@ args = 0, pretend = 0, frame = 0
 1023              		@ frame_needed = 0, uses_anonymous_args = 0
 1024              	.LVL120:
 1025 0000 10B5     		push	{r4, lr}
 1026              		.cfi_def_cfa_offset 8
 1027              		.cfi_offset 4, -8
 1028              		.cfi_offset 14, -4
 1029 0002 0400     		movs	r4, r0
 260:lib/w25qxx.c  **** 	while(w25qxx.Lock==1)
 1030              		.loc 1 260 0
 1031 0004 02E0     		b	.L70
 1032              	.LVL121:
 1033              	.L71:
 261:lib/w25qxx.c  **** 		CyDelay(1);
 1034              		.loc 1 261 0
 1035 0006 0120     		movs	r0, #1
 1036 0008 FFF7FEFF 		bl	CyDelay
 1037              	.LVL122:
 1038              	.L70:
 260:lib/w25qxx.c  **** 	while(w25qxx.Lock==1)
ARM GAS  C:\Users\luvsd\AppData\Local\Temp\cc7qBZw4.s 			page 24


 1039              		.loc 1 260 0
 1040 000c 2723     		movs	r3, #39
 1041 000e 1A4A     		ldr	r2, .L73
 1042 0010 D35C     		ldrb	r3, [r2, r3]
 1043 0012 012B     		cmp	r3, #1
 1044 0014 F7D0     		beq	.L71
 262:lib/w25qxx.c  **** 	w25qxx.Lock=1;
 1045              		.loc 1 262 0
 1046 0016 1300     		movs	r3, r2
 1047 0018 0121     		movs	r1, #1
 1048 001a 2722     		movs	r2, #39
 1049 001c 9954     		strb	r1, [r3, r2]
 263:lib/w25qxx.c  **** 	//W25qxx_WaitForWriteEnd();
 264:lib/w25qxx.c  **** 	SectorAddr = SectorAddr * w25qxx.SectorSize;
 1050              		.loc 1 264 0
 1051 001e 1869     		ldr	r0, [r3, #16]
 1052 0020 4443     		muls	r4, r0
 1053              	.LVL123:
 265:lib/w25qxx.c  ****     W25qxx_WriteEnable();
 1054              		.loc 1 265 0
 1055 0022 FFF7FEFF 		bl	W25qxx_WriteEnable
 1056              	.LVL124:
 266:lib/w25qxx.c  ****     Ctrl_MEM_SS_Write(0);
 1057              		.loc 1 266 0
 1058 0026 0020     		movs	r0, #0
 1059 0028 FFF7FEFF 		bl	Ctrl_MEM_SS_Write
 1060              	.LVL125:
 267:lib/w25qxx.c  ****     SPIM_FLASH_WriteByte(0x20);
 1061              		.loc 1 267 0
 1062 002c 2020     		movs	r0, #32
 1063 002e FFF7FEFF 		bl	SPIM_FLASH_WriteTxData
 1064              	.LVL126:
 268:lib/w25qxx.c  ****     SPIM_FLASH_WriteByte((SectorAddr & 0xFF0000) >> 16);
 1065              		.loc 1 268 0
 1066 0032 200C     		lsrs	r0, r4, #16
 1067 0034 C0B2     		uxtb	r0, r0
 1068 0036 FFF7FEFF 		bl	SPIM_FLASH_WriteTxData
 1069              	.LVL127:
 269:lib/w25qxx.c  ****     SPIM_FLASH_WriteByte((SectorAddr & 0xFF00) >> 8);
 1070              		.loc 1 269 0
 1071 003a 200A     		lsrs	r0, r4, #8
 1072 003c C0B2     		uxtb	r0, r0
 1073 003e FFF7FEFF 		bl	SPIM_FLASH_WriteTxData
 1074              	.LVL128:
 270:lib/w25qxx.c  ****     SPIM_FLASH_WriteByte(SectorAddr & 0xFF);
 1075              		.loc 1 270 0
 1076 0042 E0B2     		uxtb	r0, r4
 1077 0044 FFF7FEFF 		bl	SPIM_FLASH_WriteTxData
 1078              	.LVL129:
 1079              	.L72:
 271:lib/w25qxx.c  ****     while(!(SPIM_FLASH_ReadTxStatus() & SPIM_FLASH_STS_SPI_DONE));
 1080              		.loc 1 271 0 discriminator 1
 1081 0048 FFF7FEFF 		bl	SPIM_FLASH_ReadTxStatus
 1082              	.LVL130:
 1083 004c C307     		lsls	r3, r0, #31
 1084 004e FBD5     		bpl	.L72
 272:lib/w25qxx.c  ****     CyDelayUs(DELAY_W25QXX);
ARM GAS  C:\Users\luvsd\AppData\Local\Temp\cc7qBZw4.s 			page 25


 1085              		.loc 1 272 0
 1086 0050 0A20     		movs	r0, #10
 1087 0052 FFF7FEFF 		bl	CyDelayUs
 1088              	.LVL131:
 273:lib/w25qxx.c  ****     Ctrl_MEM_SS_Write(1);
 1089              		.loc 1 273 0
 1090 0056 0120     		movs	r0, #1
 1091 0058 FFF7FEFF 		bl	Ctrl_MEM_SS_Write
 1092              	.LVL132:
 274:lib/w25qxx.c  ****     CyDelay(200);
 1093              		.loc 1 274 0
 1094 005c C820     		movs	r0, #200
 1095 005e FFF7FEFF 		bl	CyDelay
 1096              	.LVL133:
 275:lib/w25qxx.c  ****     W25qxx_WaitForWriteEnd();
 1097              		.loc 1 275 0
 1098 0062 FFF7FEFF 		bl	W25qxx_WaitForWriteEnd
 1099              	.LVL134:
 276:lib/w25qxx.c  **** 	CyDelay(1);
 1100              		.loc 1 276 0
 1101 0066 0120     		movs	r0, #1
 1102 0068 FFF7FEFF 		bl	CyDelay
 1103              	.LVL135:
 277:lib/w25qxx.c  **** 	w25qxx.Lock=0;
 1104              		.loc 1 277 0
 1105 006c 0021     		movs	r1, #0
 1106 006e 2723     		movs	r3, #39
 1107 0070 014A     		ldr	r2, .L73
 1108 0072 D154     		strb	r1, [r2, r3]
 278:lib/w25qxx.c  **** }
 1109              		.loc 1 278 0
 1110              		@ sp needed
 1111              	.LVL136:
 1112 0074 10BD     		pop	{r4, pc}
 1113              	.L74:
 1114 0076 C046     		.align	2
 1115              	.L73:
 1116 0078 00000000 		.word	w25qxx
 1117              		.cfi_endproc
 1118              	.LFE69:
 1119              		.size	W25qxx_EraseSector, .-W25qxx_EraseSector
 1120              		.section	.text.W25qxx_EraseBlock,"ax",%progbits
 1121              		.align	2
 1122              		.global	W25qxx_EraseBlock
 1123              		.code	16
 1124              		.thumb_func
 1125              		.type	W25qxx_EraseBlock, %function
 1126              	W25qxx_EraseBlock:
 1127              	.LFB70:
 279:lib/w25qxx.c  **** //#################################################################################################
 280:lib/w25qxx.c  **** void W25qxx_EraseBlock(uint32_t BlockAddr)
 281:lib/w25qxx.c  **** {
 1128              		.loc 1 281 0
 1129              		.cfi_startproc
 1130              		@ args = 0, pretend = 0, frame = 0
 1131              		@ frame_needed = 0, uses_anonymous_args = 0
 1132              	.LVL137:
ARM GAS  C:\Users\luvsd\AppData\Local\Temp\cc7qBZw4.s 			page 26


 1133 0000 70B5     		push	{r4, r5, r6, lr}
 1134              		.cfi_def_cfa_offset 16
 1135              		.cfi_offset 4, -16
 1136              		.cfi_offset 5, -12
 1137              		.cfi_offset 6, -8
 1138              		.cfi_offset 14, -4
 1139 0002 0400     		movs	r4, r0
 282:lib/w25qxx.c  **** 	while(w25qxx.Lock==1)
 1140              		.loc 1 282 0
 1141 0004 02E0     		b	.L76
 1142              	.LVL138:
 1143              	.L77:
 283:lib/w25qxx.c  **** 		CyDelay(1);
 1144              		.loc 1 283 0
 1145 0006 0120     		movs	r0, #1
 1146 0008 FFF7FEFF 		bl	CyDelay
 1147              	.LVL139:
 1148              	.L76:
 282:lib/w25qxx.c  **** 	while(w25qxx.Lock==1)
 1149              		.loc 1 282 0
 1150 000c 2723     		movs	r3, #39
 1151 000e 1D4A     		ldr	r2, .L80
 1152 0010 D35C     		ldrb	r3, [r2, r3]
 1153 0012 012B     		cmp	r3, #1
 1154 0014 F7D0     		beq	.L77
 284:lib/w25qxx.c  **** 	w25qxx.Lock=1;	
 1155              		.loc 1 284 0
 1156 0016 1500     		movs	r5, r2
 1157 0018 0122     		movs	r2, #1
 1158 001a 2723     		movs	r3, #39
 1159 001c EA54     		strb	r2, [r5, r3]
 285:lib/w25qxx.c  **** 	W25qxx_WaitForWriteEnd();
 1160              		.loc 1 285 0
 1161 001e FFF7FEFF 		bl	W25qxx_WaitForWriteEnd
 1162              	.LVL140:
 286:lib/w25qxx.c  **** 	BlockAddr = BlockAddr * w25qxx.SectorSize*16;
 1163              		.loc 1 286 0
 1164 0022 2B69     		ldr	r3, [r5, #16]
 1165 0024 5C43     		muls	r4, r3
 1166              	.LVL141:
 1167 0026 2401     		lsls	r4, r4, #4
 1168              	.LVL142:
 287:lib/w25qxx.c  ****     W25qxx_WriteEnable();
 1169              		.loc 1 287 0
 1170 0028 FFF7FEFF 		bl	W25qxx_WriteEnable
 1171              	.LVL143:
 288:lib/w25qxx.c  ****     Ctrl_MEM_SS_Write(0);
 1172              		.loc 1 288 0
 1173 002c 0020     		movs	r0, #0
 1174 002e FFF7FEFF 		bl	Ctrl_MEM_SS_Write
 1175              	.LVL144:
 289:lib/w25qxx.c  ****     SPIM_FLASH_WriteByte(0xD8);
 1176              		.loc 1 289 0
 1177 0032 D820     		movs	r0, #216
 1178 0034 FFF7FEFF 		bl	SPIM_FLASH_WriteTxData
 1179              	.LVL145:
 290:lib/w25qxx.c  **** 	if(w25qxx.ID>=W25Q256)
ARM GAS  C:\Users\luvsd\AppData\Local\Temp\cc7qBZw4.s 			page 27


 1180              		.loc 1 290 0
 1181 0038 2B78     		ldrb	r3, [r5]
 1182 003a 082B     		cmp	r3, #8
 1183 003c 02D9     		bls	.L78
 291:lib/w25qxx.c  **** 		SPIM_FLASH_WriteByte((BlockAddr & 0xFF000000) >> 24);
 1184              		.loc 1 291 0
 1185 003e 200E     		lsrs	r0, r4, #24
 1186 0040 FFF7FEFF 		bl	SPIM_FLASH_WriteTxData
 1187              	.LVL146:
 1188              	.L78:
 292:lib/w25qxx.c  ****     SPIM_FLASH_WriteByte((BlockAddr & 0xFF0000) >> 16);
 1189              		.loc 1 292 0
 1190 0044 200C     		lsrs	r0, r4, #16
 1191 0046 C0B2     		uxtb	r0, r0
 1192 0048 FFF7FEFF 		bl	SPIM_FLASH_WriteTxData
 1193              	.LVL147:
 293:lib/w25qxx.c  ****     SPIM_FLASH_WriteByte((BlockAddr & 0xFF00) >> 8);
 1194              		.loc 1 293 0
 1195 004c 200A     		lsrs	r0, r4, #8
 1196 004e C0B2     		uxtb	r0, r0
 1197 0050 FFF7FEFF 		bl	SPIM_FLASH_WriteTxData
 1198              	.LVL148:
 294:lib/w25qxx.c  ****     SPIM_FLASH_WriteByte(BlockAddr & 0xFF);
 1199              		.loc 1 294 0
 1200 0054 E0B2     		uxtb	r0, r4
 1201 0056 FFF7FEFF 		bl	SPIM_FLASH_WriteTxData
 1202              	.LVL149:
 1203              	.L79:
 295:lib/w25qxx.c  ****     while(!(SPIM_FLASH_ReadTxStatus() & SPIM_FLASH_STS_SPI_DONE));
 1204              		.loc 1 295 0 discriminator 1
 1205 005a FFF7FEFF 		bl	SPIM_FLASH_ReadTxStatus
 1206              	.LVL150:
 1207 005e C307     		lsls	r3, r0, #31
 1208 0060 FBD5     		bpl	.L79
 296:lib/w25qxx.c  ****     CyDelayUs(DELAY_W25QXX);
 1209              		.loc 1 296 0
 1210 0062 0A20     		movs	r0, #10
 1211 0064 FFF7FEFF 		bl	CyDelayUs
 1212              	.LVL151:
 297:lib/w25qxx.c  ****     Ctrl_MEM_SS_Write(1);
 1213              		.loc 1 297 0
 1214 0068 0120     		movs	r0, #1
 1215 006a FFF7FEFF 		bl	Ctrl_MEM_SS_Write
 1216              	.LVL152:
 298:lib/w25qxx.c  ****     W25qxx_WaitForWriteEnd();
 1217              		.loc 1 298 0
 1218 006e FFF7FEFF 		bl	W25qxx_WaitForWriteEnd
 1219              	.LVL153:
 299:lib/w25qxx.c  **** 	CyDelay(1);
 1220              		.loc 1 299 0
 1221 0072 0120     		movs	r0, #1
 1222 0074 FFF7FEFF 		bl	CyDelay
 1223              	.LVL154:
 300:lib/w25qxx.c  **** 	w25qxx.Lock=0;
 1224              		.loc 1 300 0
 1225 0078 0021     		movs	r1, #0
 1226 007a 2723     		movs	r3, #39
ARM GAS  C:\Users\luvsd\AppData\Local\Temp\cc7qBZw4.s 			page 28


 1227 007c 014A     		ldr	r2, .L80
 1228 007e D154     		strb	r1, [r2, r3]
 301:lib/w25qxx.c  **** }
 1229              		.loc 1 301 0
 1230              		@ sp needed
 1231              	.LVL155:
 1232 0080 70BD     		pop	{r4, r5, r6, pc}
 1233              	.L81:
 1234 0082 C046     		.align	2
 1235              	.L80:
 1236 0084 00000000 		.word	w25qxx
 1237              		.cfi_endproc
 1238              	.LFE70:
 1239              		.size	W25qxx_EraseBlock, .-W25qxx_EraseBlock
 1240              		.global	__aeabi_uidiv
 1241              		.section	.text.W25qxx_PageToSector,"ax",%progbits
 1242              		.align	2
 1243              		.global	W25qxx_PageToSector
 1244              		.code	16
 1245              		.thumb_func
 1246              		.type	W25qxx_PageToSector, %function
 1247              	W25qxx_PageToSector:
 1248              	.LFB71:
 302:lib/w25qxx.c  **** //#################################################################################################
 303:lib/w25qxx.c  **** uint32_t	W25qxx_PageToSector(uint32_t	PageAddress)
 304:lib/w25qxx.c  **** {
 1249              		.loc 1 304 0
 1250              		.cfi_startproc
 1251              		@ args = 0, pretend = 0, frame = 0
 1252              		@ frame_needed = 0, uses_anonymous_args = 0
 1253              	.LVL156:
 1254 0000 10B5     		push	{r4, lr}
 1255              		.cfi_def_cfa_offset 8
 1256              		.cfi_offset 4, -8
 1257              		.cfi_offset 14, -4
 305:lib/w25qxx.c  **** 	return ((PageAddress*w25qxx.PageSize)/w25qxx.SectorSize);
 1258              		.loc 1 305 0
 1259 0002 034B     		ldr	r3, .L83
 1260 0004 5A89     		ldrh	r2, [r3, #10]
 1261 0006 5043     		muls	r0, r2
 1262              	.LVL157:
 1263 0008 1969     		ldr	r1, [r3, #16]
 1264 000a FFF7FEFF 		bl	__aeabi_uidiv
 1265              	.LVL158:
 306:lib/w25qxx.c  **** }
 1266              		.loc 1 306 0
 1267              		@ sp needed
 1268 000e 10BD     		pop	{r4, pc}
 1269              	.L84:
 1270              		.align	2
 1271              	.L83:
 1272 0010 00000000 		.word	w25qxx
 1273              		.cfi_endproc
 1274              	.LFE71:
 1275              		.size	W25qxx_PageToSector, .-W25qxx_PageToSector
 1276              		.section	.text.W25qxx_PageToBlock,"ax",%progbits
 1277              		.align	2
ARM GAS  C:\Users\luvsd\AppData\Local\Temp\cc7qBZw4.s 			page 29


 1278              		.global	W25qxx_PageToBlock
 1279              		.code	16
 1280              		.thumb_func
 1281              		.type	W25qxx_PageToBlock, %function
 1282              	W25qxx_PageToBlock:
 1283              	.LFB72:
 307:lib/w25qxx.c  **** //#################################################################################################
 308:lib/w25qxx.c  **** uint32_t	W25qxx_PageToBlock(uint32_t	PageAddress)
 309:lib/w25qxx.c  **** {
 1284              		.loc 1 309 0
 1285              		.cfi_startproc
 1286              		@ args = 0, pretend = 0, frame = 0
 1287              		@ frame_needed = 0, uses_anonymous_args = 0
 1288              	.LVL159:
 1289 0000 10B5     		push	{r4, lr}
 1290              		.cfi_def_cfa_offset 8
 1291              		.cfi_offset 4, -8
 1292              		.cfi_offset 14, -4
 310:lib/w25qxx.c  **** 	return ((PageAddress*w25qxx.PageSize)/w25qxx.BlockSize);
 1293              		.loc 1 310 0
 1294 0002 034B     		ldr	r3, .L86
 1295 0004 5A89     		ldrh	r2, [r3, #10]
 1296 0006 5043     		muls	r0, r2
 1297              	.LVL160:
 1298 0008 9969     		ldr	r1, [r3, #24]
 1299 000a FFF7FEFF 		bl	__aeabi_uidiv
 1300              	.LVL161:
 311:lib/w25qxx.c  **** }
 1301              		.loc 1 311 0
 1302              		@ sp needed
 1303 000e 10BD     		pop	{r4, pc}
 1304              	.L87:
 1305              		.align	2
 1306              	.L86:
 1307 0010 00000000 		.word	w25qxx
 1308              		.cfi_endproc
 1309              	.LFE72:
 1310              		.size	W25qxx_PageToBlock, .-W25qxx_PageToBlock
 1311              		.section	.text.W25qxx_SectorToBlock,"ax",%progbits
 1312              		.align	2
 1313              		.global	W25qxx_SectorToBlock
 1314              		.code	16
 1315              		.thumb_func
 1316              		.type	W25qxx_SectorToBlock, %function
 1317              	W25qxx_SectorToBlock:
 1318              	.LFB73:
 312:lib/w25qxx.c  **** //#################################################################################################
 313:lib/w25qxx.c  **** uint32_t	W25qxx_SectorToBlock(uint32_t	SectorAddress)
 314:lib/w25qxx.c  **** {
 1319              		.loc 1 314 0
 1320              		.cfi_startproc
 1321              		@ args = 0, pretend = 0, frame = 0
 1322              		@ frame_needed = 0, uses_anonymous_args = 0
 1323              	.LVL162:
 1324 0000 10B5     		push	{r4, lr}
 1325              		.cfi_def_cfa_offset 8
 1326              		.cfi_offset 4, -8
ARM GAS  C:\Users\luvsd\AppData\Local\Temp\cc7qBZw4.s 			page 30


 1327              		.cfi_offset 14, -4
 315:lib/w25qxx.c  **** 	return ((SectorAddress*w25qxx.SectorSize)/w25qxx.BlockSize);
 1328              		.loc 1 315 0
 1329 0002 034B     		ldr	r3, .L89
 1330 0004 1A69     		ldr	r2, [r3, #16]
 1331 0006 5043     		muls	r0, r2
 1332              	.LVL163:
 1333 0008 9969     		ldr	r1, [r3, #24]
 1334 000a FFF7FEFF 		bl	__aeabi_uidiv
 1335              	.LVL164:
 316:lib/w25qxx.c  **** }
 1336              		.loc 1 316 0
 1337              		@ sp needed
 1338 000e 10BD     		pop	{r4, pc}
 1339              	.L90:
 1340              		.align	2
 1341              	.L89:
 1342 0010 00000000 		.word	w25qxx
 1343              		.cfi_endproc
 1344              	.LFE73:
 1345              		.size	W25qxx_SectorToBlock, .-W25qxx_SectorToBlock
 1346              		.section	.text.W25qxx_SectorToPage,"ax",%progbits
 1347              		.align	2
 1348              		.global	W25qxx_SectorToPage
 1349              		.code	16
 1350              		.thumb_func
 1351              		.type	W25qxx_SectorToPage, %function
 1352              	W25qxx_SectorToPage:
 1353              	.LFB74:
 317:lib/w25qxx.c  **** //#################################################################################################
 318:lib/w25qxx.c  **** uint32_t	W25qxx_SectorToPage(uint32_t	SectorAddress)
 319:lib/w25qxx.c  **** {
 1354              		.loc 1 319 0
 1355              		.cfi_startproc
 1356              		@ args = 0, pretend = 0, frame = 0
 1357              		@ frame_needed = 0, uses_anonymous_args = 0
 1358              	.LVL165:
 1359 0000 10B5     		push	{r4, lr}
 1360              		.cfi_def_cfa_offset 8
 1361              		.cfi_offset 4, -8
 1362              		.cfi_offset 14, -4
 320:lib/w25qxx.c  **** 	return (SectorAddress*w25qxx.SectorSize)/w25qxx.PageSize;
 1363              		.loc 1 320 0
 1364 0002 034B     		ldr	r3, .L92
 1365 0004 1A69     		ldr	r2, [r3, #16]
 1366 0006 5043     		muls	r0, r2
 1367              	.LVL166:
 1368 0008 5989     		ldrh	r1, [r3, #10]
 1369 000a FFF7FEFF 		bl	__aeabi_uidiv
 1370              	.LVL167:
 321:lib/w25qxx.c  **** }
 1371              		.loc 1 321 0
 1372              		@ sp needed
 1373 000e 10BD     		pop	{r4, pc}
 1374              	.L93:
 1375              		.align	2
 1376              	.L92:
ARM GAS  C:\Users\luvsd\AppData\Local\Temp\cc7qBZw4.s 			page 31


 1377 0010 00000000 		.word	w25qxx
 1378              		.cfi_endproc
 1379              	.LFE74:
 1380              		.size	W25qxx_SectorToPage, .-W25qxx_SectorToPage
 1381              		.section	.text.W25qxx_BlockToPage,"ax",%progbits
 1382              		.align	2
 1383              		.global	W25qxx_BlockToPage
 1384              		.code	16
 1385              		.thumb_func
 1386              		.type	W25qxx_BlockToPage, %function
 1387              	W25qxx_BlockToPage:
 1388              	.LFB75:
 322:lib/w25qxx.c  **** //#################################################################################################
 323:lib/w25qxx.c  **** uint32_t	W25qxx_BlockToPage(uint32_t	BlockAddress)
 324:lib/w25qxx.c  **** {
 1389              		.loc 1 324 0
 1390              		.cfi_startproc
 1391              		@ args = 0, pretend = 0, frame = 0
 1392              		@ frame_needed = 0, uses_anonymous_args = 0
 1393              	.LVL168:
 1394 0000 10B5     		push	{r4, lr}
 1395              		.cfi_def_cfa_offset 8
 1396              		.cfi_offset 4, -8
 1397              		.cfi_offset 14, -4
 325:lib/w25qxx.c  **** 	return (BlockAddress*w25qxx.BlockSize)/w25qxx.PageSize;
 1398              		.loc 1 325 0
 1399 0002 034B     		ldr	r3, .L95
 1400 0004 9A69     		ldr	r2, [r3, #24]
 1401 0006 5043     		muls	r0, r2
 1402              	.LVL169:
 1403 0008 5989     		ldrh	r1, [r3, #10]
 1404 000a FFF7FEFF 		bl	__aeabi_uidiv
 1405              	.LVL170:
 326:lib/w25qxx.c  **** }
 1406              		.loc 1 326 0
 1407              		@ sp needed
 1408 000e 10BD     		pop	{r4, pc}
 1409              	.L96:
 1410              		.align	2
 1411              	.L95:
 1412 0010 00000000 		.word	w25qxx
 1413              		.cfi_endproc
 1414              	.LFE75:
 1415              		.size	W25qxx_BlockToPage, .-W25qxx_BlockToPage
 1416              		.section	.text.W25qxx_WriteByte,"ax",%progbits
 1417              		.align	2
 1418              		.global	W25qxx_WriteByte
 1419              		.code	16
 1420              		.thumb_func
 1421              		.type	W25qxx_WriteByte, %function
 1422              	W25qxx_WriteByte:
 1423              	.LFB76:
 327:lib/w25qxx.c  **** 
 328:lib/w25qxx.c  **** //#################################################################################################
 329:lib/w25qxx.c  **** void W25qxx_WriteByte(uint8_t pBuffer, uint32_t WriteAddr_inBytes)
 330:lib/w25qxx.c  **** {
 1424              		.loc 1 330 0
ARM GAS  C:\Users\luvsd\AppData\Local\Temp\cc7qBZw4.s 			page 32


 1425              		.cfi_startproc
 1426              		@ args = 0, pretend = 0, frame = 0
 1427              		@ frame_needed = 0, uses_anonymous_args = 0
 1428              	.LVL171:
 1429 0000 70B5     		push	{r4, r5, r6, lr}
 1430              		.cfi_def_cfa_offset 16
 1431              		.cfi_offset 4, -16
 1432              		.cfi_offset 5, -12
 1433              		.cfi_offset 6, -8
 1434              		.cfi_offset 14, -4
 1435 0002 0400     		movs	r4, r0
 1436 0004 0D00     		movs	r5, r1
 331:lib/w25qxx.c  **** 	while(w25qxx.Lock==1)
 1437              		.loc 1 331 0
 1438 0006 02E0     		b	.L98
 1439              	.LVL172:
 1440              	.L99:
 332:lib/w25qxx.c  **** 		CyDelay(1);
 1441              		.loc 1 332 0
 1442 0008 0120     		movs	r0, #1
 1443 000a FFF7FEFF 		bl	CyDelay
 1444              	.LVL173:
 1445              	.L98:
 331:lib/w25qxx.c  **** 	while(w25qxx.Lock==1)
 1446              		.loc 1 331 0
 1447 000e 2723     		movs	r3, #39
 1448 0010 1B4A     		ldr	r2, .L102
 1449 0012 D35C     		ldrb	r3, [r2, r3]
 1450 0014 012B     		cmp	r3, #1
 1451 0016 F7D0     		beq	.L99
 333:lib/w25qxx.c  **** 	w25qxx.Lock=1;
 1452              		.loc 1 333 0
 1453 0018 1600     		movs	r6, r2
 1454 001a 0122     		movs	r2, #1
 1455 001c 2723     		movs	r3, #39
 1456 001e F254     		strb	r2, [r6, r3]
 334:lib/w25qxx.c  **** 	W25qxx_WaitForWriteEnd();
 1457              		.loc 1 334 0
 1458 0020 FFF7FEFF 		bl	W25qxx_WaitForWriteEnd
 1459              	.LVL174:
 335:lib/w25qxx.c  ****     
 336:lib/w25qxx.c  ****     W25qxx_WriteEnable();
 1460              		.loc 1 336 0
 1461 0024 FFF7FEFF 		bl	W25qxx_WriteEnable
 1462              	.LVL175:
 337:lib/w25qxx.c  ****     Ctrl_MEM_SS_Write(0);
 1463              		.loc 1 337 0
 1464 0028 0020     		movs	r0, #0
 1465 002a FFF7FEFF 		bl	Ctrl_MEM_SS_Write
 1466              	.LVL176:
 338:lib/w25qxx.c  ****     SPIM_FLASH_WriteByte(0x02);
 1467              		.loc 1 338 0
 1468 002e 0220     		movs	r0, #2
 1469 0030 FFF7FEFF 		bl	SPIM_FLASH_WriteTxData
 1470              	.LVL177:
 339:lib/w25qxx.c  **** 	if(w25qxx.ID>=W25Q256)
 1471              		.loc 1 339 0
ARM GAS  C:\Users\luvsd\AppData\Local\Temp\cc7qBZw4.s 			page 33


 1472 0034 3378     		ldrb	r3, [r6]
 1473 0036 082B     		cmp	r3, #8
 1474 0038 02D9     		bls	.L100
 340:lib/w25qxx.c  **** 		SPIM_FLASH_WriteByte((WriteAddr_inBytes & 0xFF000000) >> 24);
 1475              		.loc 1 340 0
 1476 003a 280E     		lsrs	r0, r5, #24
 1477 003c FFF7FEFF 		bl	SPIM_FLASH_WriteTxData
 1478              	.LVL178:
 1479              	.L100:
 341:lib/w25qxx.c  ****     SPIM_FLASH_WriteByte((WriteAddr_inBytes & 0xFF0000) >> 16);
 1480              		.loc 1 341 0
 1481 0040 280C     		lsrs	r0, r5, #16
 1482 0042 C0B2     		uxtb	r0, r0
 1483 0044 FFF7FEFF 		bl	SPIM_FLASH_WriteTxData
 1484              	.LVL179:
 342:lib/w25qxx.c  ****     SPIM_FLASH_WriteByte((WriteAddr_inBytes & 0xFF00) >> 8);
 1485              		.loc 1 342 0
 1486 0048 280A     		lsrs	r0, r5, #8
 1487 004a C0B2     		uxtb	r0, r0
 1488 004c FFF7FEFF 		bl	SPIM_FLASH_WriteTxData
 1489              	.LVL180:
 343:lib/w25qxx.c  ****     SPIM_FLASH_WriteByte(WriteAddr_inBytes & 0xFF);
 1490              		.loc 1 343 0
 1491 0050 E8B2     		uxtb	r0, r5
 1492 0052 FFF7FEFF 		bl	SPIM_FLASH_WriteTxData
 1493              	.LVL181:
 344:lib/w25qxx.c  ****     SPIM_FLASH_WriteByte(pBuffer);
 1494              		.loc 1 344 0
 1495 0056 2000     		movs	r0, r4
 1496 0058 FFF7FEFF 		bl	SPIM_FLASH_WriteTxData
 1497              	.LVL182:
 1498              	.L101:
 345:lib/w25qxx.c  ****     while(!(SPIM_FLASH_ReadTxStatus() & SPIM_FLASH_STS_SPI_DONE));
 1499              		.loc 1 345 0 discriminator 1
 1500 005c FFF7FEFF 		bl	SPIM_FLASH_ReadTxStatus
 1501              	.LVL183:
 1502 0060 C307     		lsls	r3, r0, #31
 1503 0062 FBD5     		bpl	.L101
 346:lib/w25qxx.c  ****     CyDelayUs(DELAY_W25QXX);
 1504              		.loc 1 346 0
 1505 0064 0A20     		movs	r0, #10
 1506 0066 FFF7FEFF 		bl	CyDelayUs
 1507              	.LVL184:
 347:lib/w25qxx.c  ****     Ctrl_MEM_SS_Write(1);
 1508              		.loc 1 347 0
 1509 006a 0120     		movs	r0, #1
 1510 006c FFF7FEFF 		bl	Ctrl_MEM_SS_Write
 1511              	.LVL185:
 348:lib/w25qxx.c  ****     W25qxx_WaitForWriteEnd();
 1512              		.loc 1 348 0
 1513 0070 FFF7FEFF 		bl	W25qxx_WaitForWriteEnd
 1514              	.LVL186:
 349:lib/w25qxx.c  **** 	w25qxx.Lock=0;
 1515              		.loc 1 349 0
 1516 0074 0021     		movs	r1, #0
 1517 0076 2723     		movs	r3, #39
 1518 0078 014A     		ldr	r2, .L102
ARM GAS  C:\Users\luvsd\AppData\Local\Temp\cc7qBZw4.s 			page 34


 1519 007a D154     		strb	r1, [r2, r3]
 350:lib/w25qxx.c  **** }
 1520              		.loc 1 350 0
 1521              		@ sp needed
 1522              	.LVL187:
 1523 007c 70BD     		pop	{r4, r5, r6, pc}
 1524              	.L103:
 1525 007e C046     		.align	2
 1526              	.L102:
 1527 0080 00000000 		.word	w25qxx
 1528              		.cfi_endproc
 1529              	.LFE76:
 1530              		.size	W25qxx_WriteByte, .-W25qxx_WriteByte
 1531              		.section	.text.W25qxx_WritePage,"ax",%progbits
 1532              		.align	2
 1533              		.global	W25qxx_WritePage
 1534              		.code	16
 1535              		.thumb_func
 1536              		.type	W25qxx_WritePage, %function
 1537              	W25qxx_WritePage:
 1538              	.LFB77:
 351:lib/w25qxx.c  **** //#################################################################################################
 352:lib/w25qxx.c  **** void 	W25qxx_WritePage(uint8_t *pBuffer	,uint32_t Page_Address,uint32_t OffsetInByte,uint32_t NumBy
 353:lib/w25qxx.c  **** {
 1539              		.loc 1 353 0
 1540              		.cfi_startproc
 1541              		@ args = 0, pretend = 0, frame = 0
 1542              		@ frame_needed = 0, uses_anonymous_args = 0
 1543              	.LVL188:
 1544 0000 F8B5     		push	{r3, r4, r5, r6, r7, lr}
 1545              		.cfi_def_cfa_offset 24
 1546              		.cfi_offset 3, -24
 1547              		.cfi_offset 4, -20
 1548              		.cfi_offset 5, -16
 1549              		.cfi_offset 6, -12
 1550              		.cfi_offset 7, -8
 1551              		.cfi_offset 14, -4
 1552 0002 0500     		movs	r5, r0
 1553 0004 0E00     		movs	r6, r1
 1554 0006 1400     		movs	r4, r2
 1555 0008 1F00     		movs	r7, r3
 354:lib/w25qxx.c  ****     uint32_t i;
 355:lib/w25qxx.c  **** 	while(w25qxx.Lock==1)
 1556              		.loc 1 355 0
 1557 000a 02E0     		b	.L105
 1558              	.LVL189:
 1559              	.L106:
 356:lib/w25qxx.c  **** 		CyDelay(1);
 1560              		.loc 1 356 0
 1561 000c 0120     		movs	r0, #1
 1562 000e FFF7FEFF 		bl	CyDelay
 1563              	.LVL190:
 1564              	.L105:
 355:lib/w25qxx.c  **** 		CyDelay(1);
 1565              		.loc 1 355 0
 1566 0012 2723     		movs	r3, #39
 1567 0014 274A     		ldr	r2, .L114
ARM GAS  C:\Users\luvsd\AppData\Local\Temp\cc7qBZw4.s 			page 35


 1568 0016 D35C     		ldrb	r3, [r2, r3]
 1569 0018 012B     		cmp	r3, #1
 1570 001a F7D0     		beq	.L106
 357:lib/w25qxx.c  **** 	w25qxx.Lock=1;
 1571              		.loc 1 357 0
 1572 001c 1300     		movs	r3, r2
 1573 001e 0121     		movs	r1, #1
 1574 0020 2722     		movs	r2, #39
 1575 0022 9954     		strb	r1, [r3, r2]
 358:lib/w25qxx.c  **** 	if(((NumByteToWrite_up_to_PageSize+OffsetInByte)>w25qxx.PageSize)||(NumByteToWrite_up_to_PageSize=
 1576              		.loc 1 358 0
 1577 0024 3A19     		adds	r2, r7, r4
 1578 0026 5B89     		ldrh	r3, [r3, #10]
 1579 0028 9A42     		cmp	r2, r3
 1580 002a 01D8     		bhi	.L107
 1581              		.loc 1 358 0 is_stmt 0 discriminator 1
 1582 002c 002F     		cmp	r7, #0
 1583 002e 00D1     		bne	.L108
 1584              	.L107:
 359:lib/w25qxx.c  **** 		NumByteToWrite_up_to_PageSize=w25qxx.PageSize-OffsetInByte;
 1585              		.loc 1 359 0 is_stmt 1
 1586 0030 1F1B     		subs	r7, r3, r4
 1587              	.LVL191:
 1588              	.L108:
 360:lib/w25qxx.c  **** 	if((OffsetInByte+NumByteToWrite_up_to_PageSize) > w25qxx.PageSize)
 1589              		.loc 1 360 0
 1590 0032 3A19     		adds	r2, r7, r4
 1591 0034 9342     		cmp	r3, r2
 1592 0036 00D2     		bcs	.L109
 361:lib/w25qxx.c  **** 		NumByteToWrite_up_to_PageSize = w25qxx.PageSize-OffsetInByte;
 1593              		.loc 1 361 0
 1594 0038 1F1B     		subs	r7, r3, r4
 1595              	.LVL192:
 1596              	.L109:
 362:lib/w25qxx.c  **** 	W25qxx_WaitForWriteEnd();
 1597              		.loc 1 362 0
 1598 003a FFF7FEFF 		bl	W25qxx_WaitForWriteEnd
 1599              	.LVL193:
 363:lib/w25qxx.c  ****     W25qxx_WriteEnable();
 1600              		.loc 1 363 0
 1601 003e FFF7FEFF 		bl	W25qxx_WriteEnable
 1602              	.LVL194:
 364:lib/w25qxx.c  ****     Ctrl_MEM_SS_Write(0);
 1603              		.loc 1 364 0
 1604 0042 0020     		movs	r0, #0
 1605 0044 FFF7FEFF 		bl	Ctrl_MEM_SS_Write
 1606              	.LVL195:
 365:lib/w25qxx.c  ****     SPIM_FLASH_WriteByte(0x02);
 1607              		.loc 1 365 0
 1608 0048 0220     		movs	r0, #2
 1609 004a FFF7FEFF 		bl	SPIM_FLASH_WriteTxData
 1610              	.LVL196:
 366:lib/w25qxx.c  **** 	Page_Address = (Page_Address*w25qxx.PageSize)+OffsetInByte;	
 1611              		.loc 1 366 0
 1612 004e 194B     		ldr	r3, .L114
 1613 0050 5889     		ldrh	r0, [r3, #10]
 1614 0052 4643     		muls	r6, r0
ARM GAS  C:\Users\luvsd\AppData\Local\Temp\cc7qBZw4.s 			page 36


 1615              	.LVL197:
 1616 0054 A419     		adds	r4, r4, r6
 1617              	.LVL198:
 367:lib/w25qxx.c  **** 	if(w25qxx.ID>=W25Q256)
 1618              		.loc 1 367 0
 1619 0056 1B78     		ldrb	r3, [r3]
 1620 0058 082B     		cmp	r3, #8
 1621 005a 02D9     		bls	.L110
 368:lib/w25qxx.c  **** 		SPIM_FLASH_WriteByte((Page_Address & 0xFF000000) >> 24);
 1622              		.loc 1 368 0
 1623 005c 200E     		lsrs	r0, r4, #24
 1624 005e FFF7FEFF 		bl	SPIM_FLASH_WriteTxData
 1625              	.LVL199:
 1626              	.L110:
 369:lib/w25qxx.c  ****     SPIM_FLASH_WriteByte((Page_Address & 0xFF0000) >> 16);
 1627              		.loc 1 369 0
 1628 0062 200C     		lsrs	r0, r4, #16
 1629 0064 C0B2     		uxtb	r0, r0
 1630 0066 FFF7FEFF 		bl	SPIM_FLASH_WriteTxData
 1631              	.LVL200:
 370:lib/w25qxx.c  ****     SPIM_FLASH_WriteByte((Page_Address & 0xFF00) >> 8);
 1632              		.loc 1 370 0
 1633 006a 200A     		lsrs	r0, r4, #8
 1634 006c C0B2     		uxtb	r0, r0
 1635 006e FFF7FEFF 		bl	SPIM_FLASH_WriteTxData
 1636              	.LVL201:
 371:lib/w25qxx.c  ****     SPIM_FLASH_WriteByte(Page_Address&0xFF);
 1637              		.loc 1 371 0
 1638 0072 E0B2     		uxtb	r0, r4
 1639 0074 FFF7FEFF 		bl	SPIM_FLASH_WriteTxData
 1640              	.LVL202:
 372:lib/w25qxx.c  **** 	//HAL_SPI_Transmit(&_W25QXX_SPI,pBuffer,NumByteToWrite_up_to_PageSize,100);
 373:lib/w25qxx.c  ****     for(i = 0; i < NumByteToWrite_up_to_PageSize; i++)
 1641              		.loc 1 373 0
 1642 0078 0024     		movs	r4, #0
 1643              	.LVL203:
 1644 007a 05E0     		b	.L111
 1645              	.LVL204:
 1646              	.L112:
 374:lib/w25qxx.c  ****     {
 375:lib/w25qxx.c  ****         SPIM_FLASH_WriteByte(*pBuffer++);
 1647              		.loc 1 375 0 discriminator 3
 1648 007c 6E1C     		adds	r6, r5, #1
 1649              	.LVL205:
 1650 007e 2878     		ldrb	r0, [r5]
 1651 0080 FFF7FEFF 		bl	SPIM_FLASH_WriteTxData
 1652              	.LVL206:
 373:lib/w25qxx.c  ****     {
 1653              		.loc 1 373 0 discriminator 3
 1654 0084 0134     		adds	r4, r4, #1
 1655              	.LVL207:
 1656              		.loc 1 375 0 discriminator 3
 1657 0086 3500     		movs	r5, r6
 1658              	.LVL208:
 1659              	.L111:
 373:lib/w25qxx.c  ****     {
 1660              		.loc 1 373 0 discriminator 1
ARM GAS  C:\Users\luvsd\AppData\Local\Temp\cc7qBZw4.s 			page 37


 1661 0088 A742     		cmp	r7, r4
 1662 008a F7D8     		bhi	.L112
 1663              	.L113:
 376:lib/w25qxx.c  ****     }
 377:lib/w25qxx.c  ****     while(!(SPIM_FLASH_ReadTxStatus() & SPIM_FLASH_STS_SPI_DONE));
 1664              		.loc 1 377 0 discriminator 1
 1665 008c FFF7FEFF 		bl	SPIM_FLASH_ReadTxStatus
 1666              	.LVL209:
 1667 0090 C307     		lsls	r3, r0, #31
 1668 0092 FBD5     		bpl	.L113
 378:lib/w25qxx.c  ****     CyDelayUs(DELAY_W25QXX);
 1669              		.loc 1 378 0
 1670 0094 0A20     		movs	r0, #10
 1671 0096 FFF7FEFF 		bl	CyDelayUs
 1672              	.LVL210:
 379:lib/w25qxx.c  ****     Ctrl_MEM_SS_Write(1);
 1673              		.loc 1 379 0
 1674 009a 0120     		movs	r0, #1
 1675 009c FFF7FEFF 		bl	Ctrl_MEM_SS_Write
 1676              	.LVL211:
 380:lib/w25qxx.c  ****     W25qxx_WaitForWriteEnd();
 1677              		.loc 1 380 0
 1678 00a0 FFF7FEFF 		bl	W25qxx_WaitForWriteEnd
 1679              	.LVL212:
 381:lib/w25qxx.c  **** 	CyDelay(1);
 1680              		.loc 1 381 0
 1681 00a4 0120     		movs	r0, #1
 1682 00a6 FFF7FEFF 		bl	CyDelay
 1683              	.LVL213:
 382:lib/w25qxx.c  **** 	w25qxx.Lock=0;
 1684              		.loc 1 382 0
 1685 00aa 0021     		movs	r1, #0
 1686 00ac 2723     		movs	r3, #39
 1687 00ae 014A     		ldr	r2, .L114
 1688 00b0 D154     		strb	r1, [r2, r3]
 383:lib/w25qxx.c  **** }
 1689              		.loc 1 383 0
 1690              		@ sp needed
 1691              	.LVL214:
 1692              	.LVL215:
 1693              	.LVL216:
 1694 00b2 F8BD     		pop	{r3, r4, r5, r6, r7, pc}
 1695              	.L115:
 1696              		.align	2
 1697              	.L114:
 1698 00b4 00000000 		.word	w25qxx
 1699              		.cfi_endproc
 1700              	.LFE77:
 1701              		.size	W25qxx_WritePage, .-W25qxx_WritePage
 1702              		.global	__aeabi_uidivmod
 1703              		.section	.text.W25qxx_WriteSector,"ax",%progbits
 1704              		.align	2
 1705              		.global	W25qxx_WriteSector
 1706              		.code	16
 1707              		.thumb_func
 1708              		.type	W25qxx_WriteSector, %function
 1709              	W25qxx_WriteSector:
ARM GAS  C:\Users\luvsd\AppData\Local\Temp\cc7qBZw4.s 			page 38


 1710              	.LFB78:
 384:lib/w25qxx.c  **** //#################################################################################################
 385:lib/w25qxx.c  **** void 	W25qxx_WriteSector(uint8_t *pBuffer	,uint32_t Sector_Address,uint32_t OffsetInByte	,uint32_t 
 386:lib/w25qxx.c  **** {
 1711              		.loc 1 386 0
 1712              		.cfi_startproc
 1713              		@ args = 0, pretend = 0, frame = 8
 1714              		@ frame_needed = 0, uses_anonymous_args = 0
 1715              	.LVL217:
 1716 0000 F0B5     		push	{r4, r5, r6, r7, lr}
 1717              		.cfi_def_cfa_offset 20
 1718              		.cfi_offset 4, -20
 1719              		.cfi_offset 5, -16
 1720              		.cfi_offset 6, -12
 1721              		.cfi_offset 7, -8
 1722              		.cfi_offset 14, -4
 1723 0002 83B0     		sub	sp, sp, #12
 1724              		.cfi_def_cfa_offset 32
 1725 0004 0700     		movs	r7, r0
 1726 0006 1500     		movs	r5, r2
 387:lib/w25qxx.c  **** 	if((NumByteToWrite_up_to_SectorSize>w25qxx.SectorSize)||(NumByteToWrite_up_to_SectorSize==0))
 1727              		.loc 1 387 0
 1728 0008 1A4A     		ldr	r2, .L124
 1729              	.LVL218:
 1730 000a 1269     		ldr	r2, [r2, #16]
 1731 000c 9A42     		cmp	r2, r3
 1732 000e 02D3     		bcc	.L122
 1733              		.loc 1 387 0 is_stmt 0 discriminator 1
 1734 0010 002B     		cmp	r3, #0
 1735 0012 02D0     		beq	.L123
 1736 0014 02E0     		b	.L117
 1737              	.L122:
 388:lib/w25qxx.c  **** 		NumByteToWrite_up_to_SectorSize=w25qxx.SectorSize;
 1738              		.loc 1 388 0 is_stmt 1
 1739 0016 1300     		movs	r3, r2
 1740              	.LVL219:
 1741 0018 00E0     		b	.L117
 1742              	.LVL220:
 1743              	.L123:
 1744 001a 1300     		movs	r3, r2
 1745              	.LVL221:
 1746              	.L117:
 389:lib/w25qxx.c  **** 	if(OffsetInByte>=w25qxx.SectorSize)
 1747              		.loc 1 389 0
 1748 001c AA42     		cmp	r2, r5
 1749 001e 26D9     		bls	.L116
 390:lib/w25qxx.c  **** 	{
 391:lib/w25qxx.c  **** 		return;
 392:lib/w25qxx.c  **** 	}	
 393:lib/w25qxx.c  **** 	uint32_t	StartPage;
 394:lib/w25qxx.c  **** 	int32_t		BytesToWrite;
 395:lib/w25qxx.c  **** 	uint32_t	LocalOffset;	
 396:lib/w25qxx.c  **** 	if((OffsetInByte+NumByteToWrite_up_to_SectorSize) > w25qxx.SectorSize)
 1750              		.loc 1 396 0
 1751 0020 5819     		adds	r0, r3, r5
 1752              	.LVL222:
 1753 0022 8242     		cmp	r2, r0
ARM GAS  C:\Users\luvsd\AppData\Local\Temp\cc7qBZw4.s 			page 39


 1754 0024 01D2     		bcs	.L119
 397:lib/w25qxx.c  **** 		BytesToWrite = w25qxx.SectorSize-OffsetInByte;
 1755              		.loc 1 397 0
 1756 0026 541B     		subs	r4, r2, r5
 1757              	.LVL223:
 1758 0028 00E0     		b	.L120
 1759              	.LVL224:
 1760              	.L119:
 398:lib/w25qxx.c  **** 	else
 399:lib/w25qxx.c  **** 		BytesToWrite = NumByteToWrite_up_to_SectorSize;	
 1761              		.loc 1 399 0
 1762 002a 1C00     		movs	r4, r3
 1763              	.LVL225:
 1764              	.L120:
 400:lib/w25qxx.c  **** 	StartPage = W25qxx_SectorToPage(Sector_Address)+(OffsetInByte/w25qxx.PageSize);
 1765              		.loc 1 400 0
 1766 002c 0800     		movs	r0, r1
 1767 002e FFF7FEFF 		bl	W25qxx_SectorToPage
 1768              	.LVL226:
 1769 0032 0600     		movs	r6, r0
 1770 0034 0F4B     		ldr	r3, .L124
 1771 0036 5B89     		ldrh	r3, [r3, #10]
 1772 0038 0193     		str	r3, [sp, #4]
 1773 003a 1900     		movs	r1, r3
 1774 003c 2800     		movs	r0, r5
 1775 003e FFF7FEFF 		bl	__aeabi_uidiv
 1776              	.LVL227:
 1777 0042 3618     		adds	r6, r6, r0
 1778              	.LVL228:
 401:lib/w25qxx.c  **** 	LocalOffset = OffsetInByte%w25qxx.PageSize;	
 1779              		.loc 1 401 0
 1780 0044 0199     		ldr	r1, [sp, #4]
 1781 0046 2800     		movs	r0, r5
 1782 0048 FFF7FEFF 		bl	__aeabi_uidivmod
 1783              	.LVL229:
 1784 004c 0D00     		movs	r5, r1
 1785              	.LVL230:
 1786              	.L121:
 402:lib/w25qxx.c  **** 	do
 403:lib/w25qxx.c  **** 	{		
 404:lib/w25qxx.c  **** 		W25qxx_WritePage(pBuffer,StartPage,LocalOffset,BytesToWrite);
 1787              		.loc 1 404 0 discriminator 1
 1788 004e 2300     		movs	r3, r4
 1789 0050 2A00     		movs	r2, r5
 1790 0052 3100     		movs	r1, r6
 1791 0054 3800     		movs	r0, r7
 1792 0056 FFF7FEFF 		bl	W25qxx_WritePage
 1793              	.LVL231:
 405:lib/w25qxx.c  **** 		StartPage++;
 1794              		.loc 1 405 0 discriminator 1
 1795 005a 0136     		adds	r6, r6, #1
 1796              	.LVL232:
 406:lib/w25qxx.c  **** 		BytesToWrite-=w25qxx.PageSize-LocalOffset;
 1797              		.loc 1 406 0 discriminator 1
 1798 005c 054B     		ldr	r3, .L124
 1799 005e 5A89     		ldrh	r2, [r3, #10]
 1800 0060 AB1A     		subs	r3, r5, r2
ARM GAS  C:\Users\luvsd\AppData\Local\Temp\cc7qBZw4.s 			page 40


 1801 0062 E418     		adds	r4, r4, r3
 1802              	.LVL233:
 407:lib/w25qxx.c  **** 		pBuffer += w25qxx.PageSize - LocalOffset;
 1803              		.loc 1 407 0 discriminator 1
 1804 0064 521B     		subs	r2, r2, r5
 1805 0066 BF18     		adds	r7, r7, r2
 1806              	.LVL234:
 408:lib/w25qxx.c  **** 		LocalOffset=0;
 1807              		.loc 1 408 0 discriminator 1
 1808 0068 0025     		movs	r5, #0
 409:lib/w25qxx.c  **** 	}while(BytesToWrite>0);	
 1809              		.loc 1 409 0 discriminator 1
 1810 006a 002C     		cmp	r4, #0
 1811 006c EFDC     		bgt	.L121
 1812              	.LVL235:
 1813              	.L116:
 410:lib/w25qxx.c  **** }
 1814              		.loc 1 410 0
 1815 006e 03B0     		add	sp, sp, #12
 1816              		@ sp needed
 1817              	.LVL236:
 1818 0070 F0BD     		pop	{r4, r5, r6, r7, pc}
 1819              	.L125:
 1820 0072 C046     		.align	2
 1821              	.L124:
 1822 0074 00000000 		.word	w25qxx
 1823              		.cfi_endproc
 1824              	.LFE78:
 1825              		.size	W25qxx_WriteSector, .-W25qxx_WriteSector
 1826              		.section	.text.W25qxx_WriteBlock,"ax",%progbits
 1827              		.align	2
 1828              		.global	W25qxx_WriteBlock
 1829              		.code	16
 1830              		.thumb_func
 1831              		.type	W25qxx_WriteBlock, %function
 1832              	W25qxx_WriteBlock:
 1833              	.LFB79:
 411:lib/w25qxx.c  **** //#################################################################################################
 412:lib/w25qxx.c  **** void 	W25qxx_WriteBlock	(uint8_t* pBuffer ,uint32_t Block_Address	,uint32_t OffsetInByte	,uint32_t	
 413:lib/w25qxx.c  **** {
 1834              		.loc 1 413 0
 1835              		.cfi_startproc
 1836              		@ args = 0, pretend = 0, frame = 8
 1837              		@ frame_needed = 0, uses_anonymous_args = 0
 1838              	.LVL237:
 1839 0000 F0B5     		push	{r4, r5, r6, r7, lr}
 1840              		.cfi_def_cfa_offset 20
 1841              		.cfi_offset 4, -20
 1842              		.cfi_offset 5, -16
 1843              		.cfi_offset 6, -12
 1844              		.cfi_offset 7, -8
 1845              		.cfi_offset 14, -4
 1846 0002 83B0     		sub	sp, sp, #12
 1847              		.cfi_def_cfa_offset 32
 1848 0004 0700     		movs	r7, r0
 1849 0006 1500     		movs	r5, r2
 414:lib/w25qxx.c  **** 	if((NumByteToWrite_up_to_BlockSize>w25qxx.BlockSize)||(NumByteToWrite_up_to_BlockSize==0))
ARM GAS  C:\Users\luvsd\AppData\Local\Temp\cc7qBZw4.s 			page 41


 1850              		.loc 1 414 0
 1851 0008 1A4A     		ldr	r2, .L134
 1852              	.LVL238:
 1853 000a 9269     		ldr	r2, [r2, #24]
 1854 000c 9A42     		cmp	r2, r3
 1855 000e 02D3     		bcc	.L132
 1856              		.loc 1 414 0 is_stmt 0 discriminator 1
 1857 0010 002B     		cmp	r3, #0
 1858 0012 02D0     		beq	.L133
 1859 0014 02E0     		b	.L127
 1860              	.L132:
 415:lib/w25qxx.c  **** 		NumByteToWrite_up_to_BlockSize=w25qxx.BlockSize;
 1861              		.loc 1 415 0 is_stmt 1
 1862 0016 1300     		movs	r3, r2
 1863              	.LVL239:
 1864 0018 00E0     		b	.L127
 1865              	.LVL240:
 1866              	.L133:
 1867 001a 1300     		movs	r3, r2
 1868              	.LVL241:
 1869              	.L127:
 416:lib/w25qxx.c  **** 	if(OffsetInByte>=w25qxx.BlockSize)
 1870              		.loc 1 416 0
 1871 001c AA42     		cmp	r2, r5
 1872 001e 26D9     		bls	.L126
 417:lib/w25qxx.c  **** 	{
 418:lib/w25qxx.c  **** 		return;
 419:lib/w25qxx.c  **** 	}	
 420:lib/w25qxx.c  **** 	uint32_t	StartPage;
 421:lib/w25qxx.c  **** 	int32_t		BytesToWrite;
 422:lib/w25qxx.c  **** 	uint32_t	LocalOffset;	
 423:lib/w25qxx.c  **** 	if((OffsetInByte+NumByteToWrite_up_to_BlockSize) > w25qxx.BlockSize)
 1873              		.loc 1 423 0
 1874 0020 5819     		adds	r0, r3, r5
 1875              	.LVL242:
 1876 0022 8242     		cmp	r2, r0
 1877 0024 01D2     		bcs	.L129
 424:lib/w25qxx.c  **** 		BytesToWrite = w25qxx.BlockSize-OffsetInByte;
 1878              		.loc 1 424 0
 1879 0026 541B     		subs	r4, r2, r5
 1880              	.LVL243:
 1881 0028 00E0     		b	.L130
 1882              	.LVL244:
 1883              	.L129:
 425:lib/w25qxx.c  **** 	else
 426:lib/w25qxx.c  **** 		BytesToWrite = NumByteToWrite_up_to_BlockSize;	
 1884              		.loc 1 426 0
 1885 002a 1C00     		movs	r4, r3
 1886              	.LVL245:
 1887              	.L130:
 427:lib/w25qxx.c  **** 	StartPage = W25qxx_BlockToPage(Block_Address)+(OffsetInByte/w25qxx.PageSize);
 1888              		.loc 1 427 0
 1889 002c 0800     		movs	r0, r1
 1890 002e FFF7FEFF 		bl	W25qxx_BlockToPage
 1891              	.LVL246:
 1892 0032 0600     		movs	r6, r0
 1893 0034 0F4B     		ldr	r3, .L134
ARM GAS  C:\Users\luvsd\AppData\Local\Temp\cc7qBZw4.s 			page 42


 1894 0036 5B89     		ldrh	r3, [r3, #10]
 1895 0038 0193     		str	r3, [sp, #4]
 1896 003a 1900     		movs	r1, r3
 1897 003c 2800     		movs	r0, r5
 1898 003e FFF7FEFF 		bl	__aeabi_uidiv
 1899              	.LVL247:
 1900 0042 3618     		adds	r6, r6, r0
 1901              	.LVL248:
 428:lib/w25qxx.c  **** 	LocalOffset = OffsetInByte%w25qxx.PageSize;	
 1902              		.loc 1 428 0
 1903 0044 0199     		ldr	r1, [sp, #4]
 1904 0046 2800     		movs	r0, r5
 1905 0048 FFF7FEFF 		bl	__aeabi_uidivmod
 1906              	.LVL249:
 1907 004c 0D00     		movs	r5, r1
 1908              	.LVL250:
 1909              	.L131:
 429:lib/w25qxx.c  **** 	do
 430:lib/w25qxx.c  **** 	{		
 431:lib/w25qxx.c  **** 		W25qxx_WritePage(pBuffer,StartPage,LocalOffset,BytesToWrite);
 1910              		.loc 1 431 0 discriminator 1
 1911 004e 2300     		movs	r3, r4
 1912 0050 2A00     		movs	r2, r5
 1913 0052 3100     		movs	r1, r6
 1914 0054 3800     		movs	r0, r7
 1915 0056 FFF7FEFF 		bl	W25qxx_WritePage
 1916              	.LVL251:
 432:lib/w25qxx.c  **** 		StartPage++;
 1917              		.loc 1 432 0 discriminator 1
 1918 005a 0136     		adds	r6, r6, #1
 1919              	.LVL252:
 433:lib/w25qxx.c  **** 		BytesToWrite-=w25qxx.PageSize-LocalOffset;
 1920              		.loc 1 433 0 discriminator 1
 1921 005c 054B     		ldr	r3, .L134
 1922 005e 5A89     		ldrh	r2, [r3, #10]
 1923 0060 AB1A     		subs	r3, r5, r2
 1924 0062 E418     		adds	r4, r4, r3
 1925              	.LVL253:
 434:lib/w25qxx.c  **** 		pBuffer += w25qxx.PageSize - LocalOffset;
 1926              		.loc 1 434 0 discriminator 1
 1927 0064 521B     		subs	r2, r2, r5
 1928 0066 BF18     		adds	r7, r7, r2
 1929              	.LVL254:
 435:lib/w25qxx.c  **** 		LocalOffset=0;
 1930              		.loc 1 435 0 discriminator 1
 1931 0068 0025     		movs	r5, #0
 436:lib/w25qxx.c  **** 	}while(BytesToWrite>0);	
 1932              		.loc 1 436 0 discriminator 1
 1933 006a 002C     		cmp	r4, #0
 1934 006c EFDC     		bgt	.L131
 1935              	.LVL255:
 1936              	.L126:
 437:lib/w25qxx.c  **** }
 1937              		.loc 1 437 0
 1938 006e 03B0     		add	sp, sp, #12
 1939              		@ sp needed
 1940              	.LVL256:
ARM GAS  C:\Users\luvsd\AppData\Local\Temp\cc7qBZw4.s 			page 43


 1941 0070 F0BD     		pop	{r4, r5, r6, r7, pc}
 1942              	.L135:
 1943 0072 C046     		.align	2
 1944              	.L134:
 1945 0074 00000000 		.word	w25qxx
 1946              		.cfi_endproc
 1947              	.LFE79:
 1948              		.size	W25qxx_WriteBlock, .-W25qxx_WriteBlock
 1949              		.section	.text.W25qxx_ReadByte,"ax",%progbits
 1950              		.align	2
 1951              		.global	W25qxx_ReadByte
 1952              		.code	16
 1953              		.thumb_func
 1954              		.type	W25qxx_ReadByte, %function
 1955              	W25qxx_ReadByte:
 1956              	.LFB80:
 438:lib/w25qxx.c  **** //#################################################################################################
 439:lib/w25qxx.c  **** void 	W25qxx_ReadByte(uint8_t *pBuffer,uint32_t Bytes_Address)
 440:lib/w25qxx.c  **** {
 1957              		.loc 1 440 0
 1958              		.cfi_startproc
 1959              		@ args = 0, pretend = 0, frame = 0
 1960              		@ frame_needed = 0, uses_anonymous_args = 0
 1961              	.LVL257:
 1962 0000 70B5     		push	{r4, r5, r6, lr}
 1963              		.cfi_def_cfa_offset 16
 1964              		.cfi_offset 4, -16
 1965              		.cfi_offset 5, -12
 1966              		.cfi_offset 6, -8
 1967              		.cfi_offset 14, -4
 1968 0002 0400     		movs	r4, r0
 1969 0004 0D00     		movs	r5, r1
 441:lib/w25qxx.c  **** 	while(w25qxx.Lock==1)
 1970              		.loc 1 441 0
 1971 0006 02E0     		b	.L137
 1972              	.LVL258:
 1973              	.L138:
 442:lib/w25qxx.c  **** 		CyDelay(1);
 1974              		.loc 1 442 0
 1975 0008 0120     		movs	r0, #1
 1976 000a FFF7FEFF 		bl	CyDelay
 1977              	.LVL259:
 1978              	.L137:
 441:lib/w25qxx.c  **** 	while(w25qxx.Lock==1)
 1979              		.loc 1 441 0
 1980 000e 2723     		movs	r3, #39
 1981 0010 204A     		ldr	r2, .L144
 1982 0012 D35C     		ldrb	r3, [r2, r3]
 1983 0014 012B     		cmp	r3, #1
 1984 0016 F7D0     		beq	.L138
 443:lib/w25qxx.c  **** 	w25qxx.Lock=1;
 1985              		.loc 1 443 0
 1986 0018 1600     		movs	r6, r2
 1987 001a 0122     		movs	r2, #1
 1988 001c 2723     		movs	r3, #39
 1989 001e F254     		strb	r2, [r6, r3]
 444:lib/w25qxx.c  ****     Ctrl_MEM_SS_Write(0);
ARM GAS  C:\Users\luvsd\AppData\Local\Temp\cc7qBZw4.s 			page 44


 1990              		.loc 1 444 0
 1991 0020 0020     		movs	r0, #0
 1992 0022 FFF7FEFF 		bl	Ctrl_MEM_SS_Write
 1993              	.LVL260:
 445:lib/w25qxx.c  ****     SPIM_FLASH_WriteByte(0x0B);
 1994              		.loc 1 445 0
 1995 0026 0B20     		movs	r0, #11
 1996 0028 FFF7FEFF 		bl	SPIM_FLASH_WriteTxData
 1997              	.LVL261:
 446:lib/w25qxx.c  **** 	if(w25qxx.ID>=W25Q256)
 1998              		.loc 1 446 0
 1999 002c 3378     		ldrb	r3, [r6]
 2000 002e 082B     		cmp	r3, #8
 2001 0030 02D9     		bls	.L139
 447:lib/w25qxx.c  **** 		SPIM_FLASH_WriteByte((Bytes_Address & 0xFF000000) >> 24);
 2002              		.loc 1 447 0
 2003 0032 280E     		lsrs	r0, r5, #24
 2004 0034 FFF7FEFF 		bl	SPIM_FLASH_WriteTxData
 2005              	.LVL262:
 2006              	.L139:
 448:lib/w25qxx.c  ****     SPIM_FLASH_WriteByte((Bytes_Address & 0xFF0000) >> 16);
 2007              		.loc 1 448 0
 2008 0038 280C     		lsrs	r0, r5, #16
 2009 003a C0B2     		uxtb	r0, r0
 2010 003c FFF7FEFF 		bl	SPIM_FLASH_WriteTxData
 2011              	.LVL263:
 449:lib/w25qxx.c  ****     SPIM_FLASH_WriteByte((Bytes_Address& 0xFF00) >> 8);
 2012              		.loc 1 449 0
 2013 0040 280A     		lsrs	r0, r5, #8
 2014 0042 C0B2     		uxtb	r0, r0
 2015 0044 FFF7FEFF 		bl	SPIM_FLASH_WriteTxData
 2016              	.LVL264:
 450:lib/w25qxx.c  ****     SPIM_FLASH_WriteByte(Bytes_Address & 0xFF);
 2017              		.loc 1 450 0
 2018 0048 E8B2     		uxtb	r0, r5
 2019 004a FFF7FEFF 		bl	SPIM_FLASH_WriteTxData
 2020              	.LVL265:
 451:lib/w25qxx.c  **** 	SPIM_FLASH_WriteByte(0);
 2021              		.loc 1 451 0
 2022 004e 0020     		movs	r0, #0
 2023 0050 FFF7FEFF 		bl	SPIM_FLASH_WriteTxData
 2024              	.LVL266:
 2025              	.L140:
 452:lib/w25qxx.c  ****     while(!(SPIM_FLASH_ReadTxStatus() & SPIM_FLASH_STS_SPI_DONE));
 2026              		.loc 1 452 0 discriminator 1
 2027 0054 FFF7FEFF 		bl	SPIM_FLASH_ReadTxStatus
 2028              	.LVL267:
 2029 0058 C307     		lsls	r3, r0, #31
 2030 005a FBD5     		bpl	.L140
 453:lib/w25qxx.c  ****     SPIM_FLASH_ClearRxBuffer();
 2031              		.loc 1 453 0
 2032 005c FFF7FEFF 		bl	SPIM_FLASH_ClearRxBuffer
 2033              	.LVL268:
 454:lib/w25qxx.c  ****     SPIM_FLASH_WriteByte(W25QXX_DUMMY_BYTE);
 2034              		.loc 1 454 0
 2035 0060 A520     		movs	r0, #165
 2036 0062 FFF7FEFF 		bl	SPIM_FLASH_WriteTxData
ARM GAS  C:\Users\luvsd\AppData\Local\Temp\cc7qBZw4.s 			page 45


 2037              	.LVL269:
 2038              	.L141:
 455:lib/w25qxx.c  ****     while(!(SPIM_FLASH_ReadTxStatus() & SPIM_FLASH_STS_SPI_DONE));  
 2039              		.loc 1 455 0 discriminator 1
 2040 0066 FFF7FEFF 		bl	SPIM_FLASH_ReadTxStatus
 2041              	.LVL270:
 2042 006a C307     		lsls	r3, r0, #31
 2043 006c FBD5     		bpl	.L141
 456:lib/w25qxx.c  ****     CyDelayUs(DELAY_W25QXX);
 2044              		.loc 1 456 0
 2045 006e 0A20     		movs	r0, #10
 2046 0070 FFF7FEFF 		bl	CyDelayUs
 2047              	.LVL271:
 457:lib/w25qxx.c  ****     Ctrl_MEM_SS_Write(1);
 2048              		.loc 1 457 0
 2049 0074 0120     		movs	r0, #1
 2050 0076 FFF7FEFF 		bl	Ctrl_MEM_SS_Write
 2051              	.LVL272:
 458:lib/w25qxx.c  ****     while(SPIM_FLASH_GetRxBufferSize() > 0)
 2052              		.loc 1 458 0
 2053 007a 02E0     		b	.L142
 2054              	.L143:
 459:lib/w25qxx.c  ****     {
 460:lib/w25qxx.c  ****         *pBuffer = SPIM_FLASH_ReadByte();
 2055              		.loc 1 460 0
 2056 007c FFF7FEFF 		bl	SPIM_FLASH_ReadRxData
 2057              	.LVL273:
 2058 0080 2070     		strb	r0, [r4]
 2059              	.L142:
 458:lib/w25qxx.c  ****     while(SPIM_FLASH_GetRxBufferSize() > 0)
 2060              		.loc 1 458 0
 2061 0082 FFF7FEFF 		bl	SPIM_FLASH_GetRxBufferSize
 2062              	.LVL274:
 2063 0086 0028     		cmp	r0, #0
 2064 0088 F8D1     		bne	.L143
 461:lib/w25qxx.c  ****     }
 462:lib/w25qxx.c  **** 	w25qxx.Lock=0;
 2065              		.loc 1 462 0
 2066 008a 0021     		movs	r1, #0
 2067 008c 2723     		movs	r3, #39
 2068 008e 014A     		ldr	r2, .L144
 2069 0090 D154     		strb	r1, [r2, r3]
 463:lib/w25qxx.c  **** }
 2070              		.loc 1 463 0
 2071              		@ sp needed
 2072              	.LVL275:
 2073              	.LVL276:
 2074 0092 70BD     		pop	{r4, r5, r6, pc}
 2075              	.L145:
 2076              		.align	2
 2077              	.L144:
 2078 0094 00000000 		.word	w25qxx
 2079              		.cfi_endproc
 2080              	.LFE80:
 2081              		.size	W25qxx_ReadByte, .-W25qxx_ReadByte
 2082              		.section	.text.W25qxx_ReadBytes,"ax",%progbits
 2083              		.align	2
ARM GAS  C:\Users\luvsd\AppData\Local\Temp\cc7qBZw4.s 			page 46


 2084              		.global	W25qxx_ReadBytes
 2085              		.code	16
 2086              		.thumb_func
 2087              		.type	W25qxx_ReadBytes, %function
 2088              	W25qxx_ReadBytes:
 2089              	.LFB81:
 464:lib/w25qxx.c  **** //#################################################################################################
 465:lib/w25qxx.c  **** void W25qxx_ReadBytes(uint8_t* pBuffer, uint32_t ReadAddr, uint32_t NumByteToRead)
 466:lib/w25qxx.c  **** {
 2090              		.loc 1 466 0
 2091              		.cfi_startproc
 2092              		@ args = 0, pretend = 0, frame = 0
 2093              		@ frame_needed = 0, uses_anonymous_args = 0
 2094              	.LVL277:
 2095 0000 F8B5     		push	{r3, r4, r5, r6, r7, lr}
 2096              		.cfi_def_cfa_offset 24
 2097              		.cfi_offset 3, -24
 2098              		.cfi_offset 4, -20
 2099              		.cfi_offset 5, -16
 2100              		.cfi_offset 6, -12
 2101              		.cfi_offset 7, -8
 2102              		.cfi_offset 14, -4
 2103 0002 0500     		movs	r5, r0
 2104 0004 0C00     		movs	r4, r1
 2105 0006 1600     		movs	r6, r2
 467:lib/w25qxx.c  ****     uint32_t i;
 468:lib/w25qxx.c  **** 	while(w25qxx.Lock==1)
 2106              		.loc 1 468 0
 2107 0008 02E0     		b	.L147
 2108              	.LVL278:
 2109              	.L148:
 469:lib/w25qxx.c  **** 		CyDelay(1);
 2110              		.loc 1 469 0
 2111 000a 0120     		movs	r0, #1
 2112 000c FFF7FEFF 		bl	CyDelay
 2113              	.LVL279:
 2114              	.L147:
 468:lib/w25qxx.c  **** 		CyDelay(1);
 2115              		.loc 1 468 0
 2116 0010 2723     		movs	r3, #39
 2117 0012 234A     		ldr	r2, .L154
 2118 0014 D35C     		ldrb	r3, [r2, r3]
 2119 0016 012B     		cmp	r3, #1
 2120 0018 F7D0     		beq	.L148
 470:lib/w25qxx.c  **** 	w25qxx.Lock=1;
 2121              		.loc 1 470 0
 2122 001a 1700     		movs	r7, r2
 2123 001c 0122     		movs	r2, #1
 2124 001e 2723     		movs	r3, #39
 2125 0020 FA54     		strb	r2, [r7, r3]
 471:lib/w25qxx.c  ****     
 472:lib/w25qxx.c  ****     Ctrl_MEM_SS_Write(0);
 2126              		.loc 1 472 0
 2127 0022 0020     		movs	r0, #0
 2128 0024 FFF7FEFF 		bl	Ctrl_MEM_SS_Write
 2129              	.LVL280:
 473:lib/w25qxx.c  **** 	SPIM_FLASH_WriteByte(0x0B);
ARM GAS  C:\Users\luvsd\AppData\Local\Temp\cc7qBZw4.s 			page 47


 2130              		.loc 1 473 0
 2131 0028 0B20     		movs	r0, #11
 2132 002a FFF7FEFF 		bl	SPIM_FLASH_WriteTxData
 2133              	.LVL281:
 474:lib/w25qxx.c  **** 	if(w25qxx.ID>=W25Q256)
 2134              		.loc 1 474 0
 2135 002e 3B78     		ldrb	r3, [r7]
 2136 0030 082B     		cmp	r3, #8
 2137 0032 02D9     		bls	.L149
 475:lib/w25qxx.c  **** 		SPIM_FLASH_WriteByte((ReadAddr & 0xFF000000) >> 24);
 2138              		.loc 1 475 0
 2139 0034 200E     		lsrs	r0, r4, #24
 2140 0036 FFF7FEFF 		bl	SPIM_FLASH_WriteTxData
 2141              	.LVL282:
 2142              	.L149:
 476:lib/w25qxx.c  ****     SPIM_FLASH_WriteByte((ReadAddr & 0xFF0000) >> 16);
 2143              		.loc 1 476 0
 2144 003a 200C     		lsrs	r0, r4, #16
 2145 003c C0B2     		uxtb	r0, r0
 2146 003e FFF7FEFF 		bl	SPIM_FLASH_WriteTxData
 2147              	.LVL283:
 477:lib/w25qxx.c  ****     SPIM_FLASH_WriteByte((ReadAddr& 0xFF00) >> 8);
 2148              		.loc 1 477 0
 2149 0042 200A     		lsrs	r0, r4, #8
 2150 0044 C0B2     		uxtb	r0, r0
 2151 0046 FFF7FEFF 		bl	SPIM_FLASH_WriteTxData
 2152              	.LVL284:
 478:lib/w25qxx.c  ****     SPIM_FLASH_WriteByte(ReadAddr & 0xFF);
 2153              		.loc 1 478 0
 2154 004a E0B2     		uxtb	r0, r4
 2155 004c FFF7FEFF 		bl	SPIM_FLASH_WriteTxData
 2156              	.LVL285:
 479:lib/w25qxx.c  **** 	SPIM_FLASH_WriteByte(0);
 2157              		.loc 1 479 0
 2158 0050 0020     		movs	r0, #0
 2159 0052 FFF7FEFF 		bl	SPIM_FLASH_WriteTxData
 2160              	.LVL286:
 2161              	.L150:
 480:lib/w25qxx.c  ****     while(!(SPIM_FLASH_ReadTxStatus() & SPIM_FLASH_STS_SPI_DONE));
 2162              		.loc 1 480 0 discriminator 1
 2163 0056 FFF7FEFF 		bl	SPIM_FLASH_ReadTxStatus
 2164              	.LVL287:
 2165 005a C307     		lsls	r3, r0, #31
 2166 005c FBD5     		bpl	.L150
 481:lib/w25qxx.c  ****     CyDelayUs(DELAY_W25QXX);
 2167              		.loc 1 481 0
 2168 005e 0A20     		movs	r0, #10
 2169 0060 FFF7FEFF 		bl	CyDelayUs
 2170              	.LVL288:
 482:lib/w25qxx.c  ****     SPIM_FLASH_ClearRxBuffer();
 2171              		.loc 1 482 0
 2172 0064 FFF7FEFF 		bl	SPIM_FLASH_ClearRxBuffer
 2173              	.LVL289:
 483:lib/w25qxx.c  ****     for(i=0; i < NumByteToRead; i++)
 2174              		.loc 1 483 0
 2175 0068 0024     		movs	r4, #0
 2176              	.LVL290:
ARM GAS  C:\Users\luvsd\AppData\Local\Temp\cc7qBZw4.s 			page 48


 2177 006a 0CE0     		b	.L151
 2178              	.LVL291:
 2179              	.L153:
 484:lib/w25qxx.c  ****     {
 485:lib/w25qxx.c  ****         SPIM_FLASH_WriteByte(W25QXX_DUMMY_BYTE);
 2180              		.loc 1 485 0
 2181 006c A520     		movs	r0, #165
 2182 006e FFF7FEFF 		bl	SPIM_FLASH_WriteTxData
 2183              	.LVL292:
 2184              	.L152:
 486:lib/w25qxx.c  ****         while(!(SPIM_FLASH_ReadTxStatus() & SPIM_FLASH_STS_SPI_DONE));
 2185              		.loc 1 486 0 discriminator 1
 2186 0072 FFF7FEFF 		bl	SPIM_FLASH_ReadTxStatus
 2187              	.LVL293:
 2188 0076 C307     		lsls	r3, r0, #31
 2189 0078 FBD5     		bpl	.L152
 487:lib/w25qxx.c  ****     	*pBuffer++ = SPIM_FLASH_ReadByte();
 2190              		.loc 1 487 0 discriminator 2
 2191 007a 6F1C     		adds	r7, r5, #1
 2192              	.LVL294:
 2193 007c FFF7FEFF 		bl	SPIM_FLASH_ReadRxData
 2194              	.LVL295:
 2195 0080 2870     		strb	r0, [r5]
 483:lib/w25qxx.c  ****     {
 2196              		.loc 1 483 0 discriminator 2
 2197 0082 0134     		adds	r4, r4, #1
 2198              	.LVL296:
 2199              		.loc 1 487 0 discriminator 2
 2200 0084 3D00     		movs	r5, r7
 2201              	.LVL297:
 2202              	.L151:
 483:lib/w25qxx.c  ****     {
 2203              		.loc 1 483 0 discriminator 1
 2204 0086 B442     		cmp	r4, r6
 2205 0088 F0D3     		bcc	.L153
 488:lib/w25qxx.c  ****     }
 489:lib/w25qxx.c  ****     CyDelayUs(DELAY_W25QXX);
 2206              		.loc 1 489 0
 2207 008a 0A20     		movs	r0, #10
 2208 008c FFF7FEFF 		bl	CyDelayUs
 2209              	.LVL298:
 490:lib/w25qxx.c  ****     Ctrl_MEM_SS_Write(1);	
 2210              		.loc 1 490 0
 2211 0090 0120     		movs	r0, #1
 2212 0092 FFF7FEFF 		bl	Ctrl_MEM_SS_Write
 2213              	.LVL299:
 491:lib/w25qxx.c  **** 	w25qxx.Lock=0;
 2214              		.loc 1 491 0
 2215 0096 0021     		movs	r1, #0
 2216 0098 2723     		movs	r3, #39
 2217 009a 014A     		ldr	r2, .L154
 2218 009c D154     		strb	r1, [r2, r3]
 492:lib/w25qxx.c  **** }
 2219              		.loc 1 492 0
 2220              		@ sp needed
 2221              	.LVL300:
 2222              	.LVL301:
ARM GAS  C:\Users\luvsd\AppData\Local\Temp\cc7qBZw4.s 			page 49


 2223              	.LVL302:
 2224 009e F8BD     		pop	{r3, r4, r5, r6, r7, pc}
 2225              	.L155:
 2226              		.align	2
 2227              	.L154:
 2228 00a0 00000000 		.word	w25qxx
 2229              		.cfi_endproc
 2230              	.LFE81:
 2231              		.size	W25qxx_ReadBytes, .-W25qxx_ReadBytes
 2232              		.section	.text.W25qxx_ReadPage,"ax",%progbits
 2233              		.align	2
 2234              		.global	W25qxx_ReadPage
 2235              		.code	16
 2236              		.thumb_func
 2237              		.type	W25qxx_ReadPage, %function
 2238              	W25qxx_ReadPage:
 2239              	.LFB82:
 493:lib/w25qxx.c  **** //#################################################################################################
 494:lib/w25qxx.c  **** void 	W25qxx_ReadPage(uint8_t *pBuffer,uint32_t Page_Address,uint32_t OffsetInByte,uint32_t NumByte
 495:lib/w25qxx.c  **** {
 2240              		.loc 1 495 0
 2241              		.cfi_startproc
 2242              		@ args = 0, pretend = 0, frame = 0
 2243              		@ frame_needed = 0, uses_anonymous_args = 0
 2244              	.LVL303:
 2245 0000 F8B5     		push	{r3, r4, r5, r6, r7, lr}
 2246              		.cfi_def_cfa_offset 24
 2247              		.cfi_offset 3, -24
 2248              		.cfi_offset 4, -20
 2249              		.cfi_offset 5, -16
 2250              		.cfi_offset 6, -12
 2251              		.cfi_offset 7, -8
 2252              		.cfi_offset 14, -4
 2253 0002 0500     		movs	r5, r0
 2254 0004 0E00     		movs	r6, r1
 2255 0006 1400     		movs	r4, r2
 2256 0008 1F00     		movs	r7, r3
 496:lib/w25qxx.c  ****     uint32_t i;
 497:lib/w25qxx.c  **** 	while(w25qxx.Lock==1)
 2257              		.loc 1 497 0
 2258 000a 02E0     		b	.L157
 2259              	.LVL304:
 2260              	.L158:
 498:lib/w25qxx.c  **** 		CyDelay(1);
 2261              		.loc 1 498 0
 2262 000c 0120     		movs	r0, #1
 2263 000e FFF7FEFF 		bl	CyDelay
 2264              	.LVL305:
 2265              	.L157:
 497:lib/w25qxx.c  **** 		CyDelay(1);
 2266              		.loc 1 497 0
 2267 0012 2723     		movs	r3, #39
 2268 0014 264A     		ldr	r2, .L167
 2269 0016 D35C     		ldrb	r3, [r2, r3]
 2270 0018 012B     		cmp	r3, #1
 2271 001a F7D0     		beq	.L158
 499:lib/w25qxx.c  **** 	w25qxx.Lock=1;
ARM GAS  C:\Users\luvsd\AppData\Local\Temp\cc7qBZw4.s 			page 50


 2272              		.loc 1 499 0
 2273 001c 1300     		movs	r3, r2
 2274 001e 0121     		movs	r1, #1
 2275 0020 2722     		movs	r2, #39
 2276 0022 9954     		strb	r1, [r3, r2]
 500:lib/w25qxx.c  **** 	if((NumByteToRead_up_to_PageSize>w25qxx.PageSize)||(NumByteToRead_up_to_PageSize==0))
 2277              		.loc 1 500 0
 2278 0024 5889     		ldrh	r0, [r3, #10]
 2279 0026 B842     		cmp	r0, r7
 2280 0028 02D3     		bcc	.L165
 2281              		.loc 1 500 0 is_stmt 0 discriminator 1
 2282 002a 002F     		cmp	r7, #0
 2283 002c 02D0     		beq	.L166
 2284 002e 02E0     		b	.L159
 2285              	.L165:
 501:lib/w25qxx.c  **** 		NumByteToRead_up_to_PageSize=w25qxx.PageSize;
 2286              		.loc 1 501 0 is_stmt 1
 2287 0030 0700     		movs	r7, r0
 2288              	.LVL306:
 2289 0032 00E0     		b	.L159
 2290              	.LVL307:
 2291              	.L166:
 2292 0034 0700     		movs	r7, r0
 2293              	.LVL308:
 2294              	.L159:
 502:lib/w25qxx.c  **** 	if((OffsetInByte+NumByteToRead_up_to_PageSize) > w25qxx.PageSize)
 2295              		.loc 1 502 0
 2296 0036 3B19     		adds	r3, r7, r4
 2297 0038 9842     		cmp	r0, r3
 2298 003a 00D2     		bcs	.L160
 503:lib/w25qxx.c  **** 		NumByteToRead_up_to_PageSize = w25qxx.PageSize-OffsetInByte;	
 2299              		.loc 1 503 0
 2300 003c 071B     		subs	r7, r0, r4
 2301              	.LVL309:
 2302              	.L160:
 504:lib/w25qxx.c  **** 	Page_Address = Page_Address*w25qxx.PageSize+OffsetInByte;
 2303              		.loc 1 504 0
 2304 003e 7043     		muls	r0, r6
 2305 0040 2418     		adds	r4, r4, r0
 2306              	.LVL310:
 505:lib/w25qxx.c  ****     
 506:lib/w25qxx.c  ****     Ctrl_MEM_SS_Write(0);
 2307              		.loc 1 506 0
 2308 0042 0020     		movs	r0, #0
 2309 0044 FFF7FEFF 		bl	Ctrl_MEM_SS_Write
 2310              	.LVL311:
 507:lib/w25qxx.c  **** 	SPIM_FLASH_WriteByte(0x0B);
 2311              		.loc 1 507 0
 2312 0048 0B20     		movs	r0, #11
 2313 004a FFF7FEFF 		bl	SPIM_FLASH_WriteTxData
 2314              	.LVL312:
 508:lib/w25qxx.c  **** 	if(w25qxx.ID>=W25Q256)
 2315              		.loc 1 508 0
 2316 004e 184B     		ldr	r3, .L167
 2317 0050 1B78     		ldrb	r3, [r3]
 2318 0052 082B     		cmp	r3, #8
 2319 0054 02D9     		bls	.L161
ARM GAS  C:\Users\luvsd\AppData\Local\Temp\cc7qBZw4.s 			page 51


 509:lib/w25qxx.c  **** 		SPIM_FLASH_WriteByte((Page_Address & 0xFF000000) >> 24);
 2320              		.loc 1 509 0
 2321 0056 200E     		lsrs	r0, r4, #24
 2322 0058 FFF7FEFF 		bl	SPIM_FLASH_WriteTxData
 2323              	.LVL313:
 2324              	.L161:
 510:lib/w25qxx.c  ****     SPIM_FLASH_WriteByte((Page_Address & 0xFF0000) >> 16);
 2325              		.loc 1 510 0
 2326 005c 200C     		lsrs	r0, r4, #16
 2327 005e C0B2     		uxtb	r0, r0
 2328 0060 FFF7FEFF 		bl	SPIM_FLASH_WriteTxData
 2329              	.LVL314:
 511:lib/w25qxx.c  ****     SPIM_FLASH_WriteByte((Page_Address& 0xFF00) >> 8);
 2330              		.loc 1 511 0
 2331 0064 200A     		lsrs	r0, r4, #8
 2332 0066 C0B2     		uxtb	r0, r0
 2333 0068 FFF7FEFF 		bl	SPIM_FLASH_WriteTxData
 2334              	.LVL315:
 512:lib/w25qxx.c  ****     SPIM_FLASH_WriteByte(Page_Address & 0xFF);
 2335              		.loc 1 512 0
 2336 006c E0B2     		uxtb	r0, r4
 2337 006e FFF7FEFF 		bl	SPIM_FLASH_WriteTxData
 2338              	.LVL316:
 513:lib/w25qxx.c  **** 	SPIM_FLASH_WriteByte(0);
 2339              		.loc 1 513 0
 2340 0072 0020     		movs	r0, #0
 2341 0074 FFF7FEFF 		bl	SPIM_FLASH_WriteTxData
 2342              	.LVL317:
 514:lib/w25qxx.c  ****     for(i=0; i < NumByteToRead_up_to_PageSize; i++)
 2343              		.loc 1 514 0
 2344 0078 0024     		movs	r4, #0
 2345              	.LVL318:
 2346 007a 08E0     		b	.L162
 2347              	.LVL319:
 2348              	.L163:
 515:lib/w25qxx.c  ****     {
 516:lib/w25qxx.c  ****         SPIM_FLASH_WriteByte(W25QXX_DUMMY_BYTE);
 2349              		.loc 1 516 0 discriminator 3
 2350 007c A520     		movs	r0, #165
 2351 007e FFF7FEFF 		bl	SPIM_FLASH_WriteTxData
 2352              	.LVL320:
 517:lib/w25qxx.c  ****     	*pBuffer++ = SPIM_FLASH_ReadByte();
 2353              		.loc 1 517 0 discriminator 3
 2354 0082 6E1C     		adds	r6, r5, #1
 2355              	.LVL321:
 2356 0084 FFF7FEFF 		bl	SPIM_FLASH_ReadRxData
 2357              	.LVL322:
 2358 0088 2870     		strb	r0, [r5]
 514:lib/w25qxx.c  ****     for(i=0; i < NumByteToRead_up_to_PageSize; i++)
 2359              		.loc 1 514 0 discriminator 3
 2360 008a 0134     		adds	r4, r4, #1
 2361              	.LVL323:
 2362              		.loc 1 517 0 discriminator 3
 2363 008c 3500     		movs	r5, r6
 2364              	.LVL324:
 2365              	.L162:
 514:lib/w25qxx.c  ****     for(i=0; i < NumByteToRead_up_to_PageSize; i++)
ARM GAS  C:\Users\luvsd\AppData\Local\Temp\cc7qBZw4.s 			page 52


 2366              		.loc 1 514 0 discriminator 1
 2367 008e A742     		cmp	r7, r4
 2368 0090 F4D8     		bhi	.L163
 2369              	.L164:
 518:lib/w25qxx.c  ****     }
 519:lib/w25qxx.c  ****     
 520:lib/w25qxx.c  ****     while(!(SPIM_FLASH_ReadTxStatus() & SPIM_FLASH_STS_SPI_DONE));
 2370              		.loc 1 520 0 discriminator 1
 2371 0092 FFF7FEFF 		bl	SPIM_FLASH_ReadTxStatus
 2372              	.LVL325:
 2373 0096 C307     		lsls	r3, r0, #31
 2374 0098 FBD5     		bpl	.L164
 521:lib/w25qxx.c  ****     CyDelayUs(DELAY_W25QXX);
 2375              		.loc 1 521 0
 2376 009a 0A20     		movs	r0, #10
 2377 009c FFF7FEFF 		bl	CyDelayUs
 2378              	.LVL326:
 522:lib/w25qxx.c  ****     Ctrl_MEM_SS_Write(1);
 2379              		.loc 1 522 0
 2380 00a0 0120     		movs	r0, #1
 2381 00a2 FFF7FEFF 		bl	Ctrl_MEM_SS_Write
 2382              	.LVL327:
 523:lib/w25qxx.c  ****     
 524:lib/w25qxx.c  **** 	w25qxx.Lock=0;
 2383              		.loc 1 524 0
 2384 00a6 0021     		movs	r1, #0
 2385 00a8 2723     		movs	r3, #39
 2386 00aa 014A     		ldr	r2, .L167
 2387 00ac D154     		strb	r1, [r2, r3]
 525:lib/w25qxx.c  **** }
 2388              		.loc 1 525 0
 2389              		@ sp needed
 2390              	.LVL328:
 2391              	.LVL329:
 2392              	.LVL330:
 2393 00ae F8BD     		pop	{r3, r4, r5, r6, r7, pc}
 2394              	.L168:
 2395              		.align	2
 2396              	.L167:
 2397 00b0 00000000 		.word	w25qxx
 2398              		.cfi_endproc
 2399              	.LFE82:
 2400              		.size	W25qxx_ReadPage, .-W25qxx_ReadPage
 2401              		.section	.text.W25qxx_ReadSector,"ax",%progbits
 2402              		.align	2
 2403              		.global	W25qxx_ReadSector
 2404              		.code	16
 2405              		.thumb_func
 2406              		.type	W25qxx_ReadSector, %function
 2407              	W25qxx_ReadSector:
 2408              	.LFB83:
 526:lib/w25qxx.c  **** //#################################################################################################
 527:lib/w25qxx.c  **** void 	W25qxx_ReadSector(uint8_t *pBuffer,uint32_t Sector_Address,uint32_t OffsetInByte,uint32_t Num
 528:lib/w25qxx.c  **** {	
 2409              		.loc 1 528 0
 2410              		.cfi_startproc
 2411              		@ args = 0, pretend = 0, frame = 8
ARM GAS  C:\Users\luvsd\AppData\Local\Temp\cc7qBZw4.s 			page 53


 2412              		@ frame_needed = 0, uses_anonymous_args = 0
 2413              	.LVL331:
 2414 0000 F0B5     		push	{r4, r5, r6, r7, lr}
 2415              		.cfi_def_cfa_offset 20
 2416              		.cfi_offset 4, -20
 2417              		.cfi_offset 5, -16
 2418              		.cfi_offset 6, -12
 2419              		.cfi_offset 7, -8
 2420              		.cfi_offset 14, -4
 2421 0002 83B0     		sub	sp, sp, #12
 2422              		.cfi_def_cfa_offset 32
 2423 0004 0700     		movs	r7, r0
 2424 0006 1500     		movs	r5, r2
 529:lib/w25qxx.c  **** 	if((NumByteToRead_up_to_SectorSize>w25qxx.SectorSize)||(NumByteToRead_up_to_SectorSize==0))
 2425              		.loc 1 529 0
 2426 0008 1A4A     		ldr	r2, .L177
 2427              	.LVL332:
 2428 000a 1269     		ldr	r2, [r2, #16]
 2429 000c 9A42     		cmp	r2, r3
 2430 000e 02D3     		bcc	.L175
 2431              		.loc 1 529 0 is_stmt 0 discriminator 1
 2432 0010 002B     		cmp	r3, #0
 2433 0012 02D0     		beq	.L176
 2434 0014 02E0     		b	.L170
 2435              	.L175:
 530:lib/w25qxx.c  **** 		NumByteToRead_up_to_SectorSize=w25qxx.SectorSize;
 2436              		.loc 1 530 0 is_stmt 1
 2437 0016 1300     		movs	r3, r2
 2438              	.LVL333:
 2439 0018 00E0     		b	.L170
 2440              	.LVL334:
 2441              	.L176:
 2442 001a 1300     		movs	r3, r2
 2443              	.LVL335:
 2444              	.L170:
 531:lib/w25qxx.c  **** 	if(OffsetInByte>=w25qxx.SectorSize)
 2445              		.loc 1 531 0
 2446 001c AA42     		cmp	r2, r5
 2447 001e 26D9     		bls	.L169
 532:lib/w25qxx.c  **** 	{
 533:lib/w25qxx.c  **** 		#if (_W25QXX_DEBUG==1)
 534:lib/w25qxx.c  **** 		printf("---w25qxx ReadSector Faild!\r\n");
 535:lib/w25qxx.c  **** 		CyDelay(100);
 536:lib/w25qxx.c  **** 		#endif	
 537:lib/w25qxx.c  **** 		return;
 538:lib/w25qxx.c  **** 	}	
 539:lib/w25qxx.c  **** 	uint32_t	StartPage;
 540:lib/w25qxx.c  **** 	int32_t		BytesToRead;
 541:lib/w25qxx.c  **** 	uint32_t	LocalOffset;	
 542:lib/w25qxx.c  **** 	if((OffsetInByte+NumByteToRead_up_to_SectorSize) > w25qxx.SectorSize)
 2448              		.loc 1 542 0
 2449 0020 5819     		adds	r0, r3, r5
 2450              	.LVL336:
 2451 0022 8242     		cmp	r2, r0
 2452 0024 01D2     		bcs	.L172
 543:lib/w25qxx.c  **** 		BytesToRead = w25qxx.SectorSize-OffsetInByte;
 2453              		.loc 1 543 0
ARM GAS  C:\Users\luvsd\AppData\Local\Temp\cc7qBZw4.s 			page 54


 2454 0026 541B     		subs	r4, r2, r5
 2455              	.LVL337:
 2456 0028 00E0     		b	.L173
 2457              	.LVL338:
 2458              	.L172:
 544:lib/w25qxx.c  **** 	else
 545:lib/w25qxx.c  **** 		BytesToRead = NumByteToRead_up_to_SectorSize;	
 2459              		.loc 1 545 0
 2460 002a 1C00     		movs	r4, r3
 2461              	.LVL339:
 2462              	.L173:
 546:lib/w25qxx.c  **** 	StartPage = W25qxx_SectorToPage(Sector_Address)+(OffsetInByte/w25qxx.PageSize);
 2463              		.loc 1 546 0
 2464 002c 0800     		movs	r0, r1
 2465 002e FFF7FEFF 		bl	W25qxx_SectorToPage
 2466              	.LVL340:
 2467 0032 0600     		movs	r6, r0
 2468 0034 0F4B     		ldr	r3, .L177
 2469 0036 5B89     		ldrh	r3, [r3, #10]
 2470 0038 0193     		str	r3, [sp, #4]
 2471 003a 1900     		movs	r1, r3
 2472 003c 2800     		movs	r0, r5
 2473 003e FFF7FEFF 		bl	__aeabi_uidiv
 2474              	.LVL341:
 2475 0042 3618     		adds	r6, r6, r0
 2476              	.LVL342:
 547:lib/w25qxx.c  **** 	LocalOffset = OffsetInByte%w25qxx.PageSize;	
 2477              		.loc 1 547 0
 2478 0044 0199     		ldr	r1, [sp, #4]
 2479 0046 2800     		movs	r0, r5
 2480 0048 FFF7FEFF 		bl	__aeabi_uidivmod
 2481              	.LVL343:
 2482 004c 0D00     		movs	r5, r1
 2483              	.LVL344:
 2484              	.L174:
 548:lib/w25qxx.c  **** 	do
 549:lib/w25qxx.c  **** 	{		
 550:lib/w25qxx.c  **** 		W25qxx_ReadPage(pBuffer,StartPage,LocalOffset,BytesToRead);
 2485              		.loc 1 550 0 discriminator 1
 2486 004e 2300     		movs	r3, r4
 2487 0050 2A00     		movs	r2, r5
 2488 0052 3100     		movs	r1, r6
 2489 0054 3800     		movs	r0, r7
 2490 0056 FFF7FEFF 		bl	W25qxx_ReadPage
 2491              	.LVL345:
 551:lib/w25qxx.c  **** 		StartPage++;
 2492              		.loc 1 551 0 discriminator 1
 2493 005a 0136     		adds	r6, r6, #1
 2494              	.LVL346:
 552:lib/w25qxx.c  **** 		BytesToRead-=w25qxx.PageSize-LocalOffset;
 2495              		.loc 1 552 0 discriminator 1
 2496 005c 054B     		ldr	r3, .L177
 2497 005e 5A89     		ldrh	r2, [r3, #10]
 2498 0060 AB1A     		subs	r3, r5, r2
 2499 0062 E418     		adds	r4, r4, r3
 2500              	.LVL347:
 553:lib/w25qxx.c  **** 		pBuffer += w25qxx.PageSize - LocalOffset;
ARM GAS  C:\Users\luvsd\AppData\Local\Temp\cc7qBZw4.s 			page 55


 2501              		.loc 1 553 0 discriminator 1
 2502 0064 521B     		subs	r2, r2, r5
 2503 0066 BF18     		adds	r7, r7, r2
 2504              	.LVL348:
 554:lib/w25qxx.c  **** 		LocalOffset=0;
 2505              		.loc 1 554 0 discriminator 1
 2506 0068 0025     		movs	r5, #0
 555:lib/w25qxx.c  **** 	}while(BytesToRead>0);
 2507              		.loc 1 555 0 discriminator 1
 2508 006a 002C     		cmp	r4, #0
 2509 006c EFDC     		bgt	.L174
 2510              	.LVL349:
 2511              	.L169:
 556:lib/w25qxx.c  **** }
 2512              		.loc 1 556 0
 2513 006e 03B0     		add	sp, sp, #12
 2514              		@ sp needed
 2515              	.LVL350:
 2516 0070 F0BD     		pop	{r4, r5, r6, r7, pc}
 2517              	.L178:
 2518 0072 C046     		.align	2
 2519              	.L177:
 2520 0074 00000000 		.word	w25qxx
 2521              		.cfi_endproc
 2522              	.LFE83:
 2523              		.size	W25qxx_ReadSector, .-W25qxx_ReadSector
 2524              		.section	.text.W25qxx_ReadBlock,"ax",%progbits
 2525              		.align	2
 2526              		.global	W25qxx_ReadBlock
 2527              		.code	16
 2528              		.thumb_func
 2529              		.type	W25qxx_ReadBlock, %function
 2530              	W25qxx_ReadBlock:
 2531              	.LFB84:
 557:lib/w25qxx.c  **** //#################################################################################################
 558:lib/w25qxx.c  **** void 	W25qxx_ReadBlock(uint8_t* pBuffer,uint32_t Block_Address,uint32_t OffsetInByte,uint32_t	NumBy
 559:lib/w25qxx.c  **** {
 2532              		.loc 1 559 0
 2533              		.cfi_startproc
 2534              		@ args = 0, pretend = 0, frame = 8
 2535              		@ frame_needed = 0, uses_anonymous_args = 0
 2536              	.LVL351:
 2537 0000 F0B5     		push	{r4, r5, r6, r7, lr}
 2538              		.cfi_def_cfa_offset 20
 2539              		.cfi_offset 4, -20
 2540              		.cfi_offset 5, -16
 2541              		.cfi_offset 6, -12
 2542              		.cfi_offset 7, -8
 2543              		.cfi_offset 14, -4
 2544 0002 83B0     		sub	sp, sp, #12
 2545              		.cfi_def_cfa_offset 32
 2546 0004 0700     		movs	r7, r0
 2547 0006 1500     		movs	r5, r2
 560:lib/w25qxx.c  **** 	if((NumByteToRead_up_to_BlockSize>w25qxx.BlockSize)||(NumByteToRead_up_to_BlockSize==0))
 2548              		.loc 1 560 0
 2549 0008 1A4A     		ldr	r2, .L187
 2550              	.LVL352:
ARM GAS  C:\Users\luvsd\AppData\Local\Temp\cc7qBZw4.s 			page 56


 2551 000a 9269     		ldr	r2, [r2, #24]
 2552 000c 9A42     		cmp	r2, r3
 2553 000e 02D3     		bcc	.L185
 2554              		.loc 1 560 0 is_stmt 0 discriminator 1
 2555 0010 002B     		cmp	r3, #0
 2556 0012 02D0     		beq	.L186
 2557 0014 02E0     		b	.L180
 2558              	.L185:
 561:lib/w25qxx.c  **** 		NumByteToRead_up_to_BlockSize=w25qxx.BlockSize;
 2559              		.loc 1 561 0 is_stmt 1
 2560 0016 1300     		movs	r3, r2
 2561              	.LVL353:
 2562 0018 00E0     		b	.L180
 2563              	.LVL354:
 2564              	.L186:
 2565 001a 1300     		movs	r3, r2
 2566              	.LVL355:
 2567              	.L180:
 562:lib/w25qxx.c  **** 	if(OffsetInByte>=w25qxx.BlockSize)
 2568              		.loc 1 562 0
 2569 001c AA42     		cmp	r2, r5
 2570 001e 26D9     		bls	.L179
 563:lib/w25qxx.c  **** 	{	
 564:lib/w25qxx.c  **** 		return;
 565:lib/w25qxx.c  **** 	}	
 566:lib/w25qxx.c  **** 	uint32_t	StartPage;
 567:lib/w25qxx.c  **** 	int32_t		BytesToRead;
 568:lib/w25qxx.c  **** 	uint32_t	LocalOffset;	
 569:lib/w25qxx.c  **** 	if((OffsetInByte+NumByteToRead_up_to_BlockSize) > w25qxx.BlockSize)
 2571              		.loc 1 569 0
 2572 0020 5819     		adds	r0, r3, r5
 2573              	.LVL356:
 2574 0022 8242     		cmp	r2, r0
 2575 0024 01D2     		bcs	.L182
 570:lib/w25qxx.c  **** 		BytesToRead = w25qxx.BlockSize-OffsetInByte;
 2576              		.loc 1 570 0
 2577 0026 541B     		subs	r4, r2, r5
 2578              	.LVL357:
 2579 0028 00E0     		b	.L183
 2580              	.LVL358:
 2581              	.L182:
 571:lib/w25qxx.c  **** 	else
 572:lib/w25qxx.c  **** 		BytesToRead = NumByteToRead_up_to_BlockSize;	
 2582              		.loc 1 572 0
 2583 002a 1C00     		movs	r4, r3
 2584              	.LVL359:
 2585              	.L183:
 573:lib/w25qxx.c  **** 	StartPage = W25qxx_BlockToPage(Block_Address)+(OffsetInByte/w25qxx.PageSize);
 2586              		.loc 1 573 0
 2587 002c 0800     		movs	r0, r1
 2588 002e FFF7FEFF 		bl	W25qxx_BlockToPage
 2589              	.LVL360:
 2590 0032 0600     		movs	r6, r0
 2591 0034 0F4B     		ldr	r3, .L187
 2592 0036 5B89     		ldrh	r3, [r3, #10]
 2593 0038 0193     		str	r3, [sp, #4]
 2594 003a 1900     		movs	r1, r3
ARM GAS  C:\Users\luvsd\AppData\Local\Temp\cc7qBZw4.s 			page 57


 2595 003c 2800     		movs	r0, r5
 2596 003e FFF7FEFF 		bl	__aeabi_uidiv
 2597              	.LVL361:
 2598 0042 3618     		adds	r6, r6, r0
 2599              	.LVL362:
 574:lib/w25qxx.c  **** 	LocalOffset = OffsetInByte%w25qxx.PageSize;	
 2600              		.loc 1 574 0
 2601 0044 0199     		ldr	r1, [sp, #4]
 2602 0046 2800     		movs	r0, r5
 2603 0048 FFF7FEFF 		bl	__aeabi_uidivmod
 2604              	.LVL363:
 2605 004c 0D00     		movs	r5, r1
 2606              	.LVL364:
 2607              	.L184:
 575:lib/w25qxx.c  **** 	do
 576:lib/w25qxx.c  **** 	{		
 577:lib/w25qxx.c  **** 		W25qxx_ReadPage(pBuffer,StartPage,LocalOffset,BytesToRead);
 2608              		.loc 1 577 0 discriminator 1
 2609 004e 2300     		movs	r3, r4
 2610 0050 2A00     		movs	r2, r5
 2611 0052 3100     		movs	r1, r6
 2612 0054 3800     		movs	r0, r7
 2613 0056 FFF7FEFF 		bl	W25qxx_ReadPage
 2614              	.LVL365:
 578:lib/w25qxx.c  **** 		StartPage++;
 2615              		.loc 1 578 0 discriminator 1
 2616 005a 0136     		adds	r6, r6, #1
 2617              	.LVL366:
 579:lib/w25qxx.c  **** 		BytesToRead-=w25qxx.PageSize-LocalOffset;
 2618              		.loc 1 579 0 discriminator 1
 2619 005c 054B     		ldr	r3, .L187
 2620 005e 5A89     		ldrh	r2, [r3, #10]
 2621 0060 AB1A     		subs	r3, r5, r2
 2622 0062 E418     		adds	r4, r4, r3
 2623              	.LVL367:
 580:lib/w25qxx.c  **** 		pBuffer += w25qxx.PageSize - LocalOffset;
 2624              		.loc 1 580 0 discriminator 1
 2625 0064 521B     		subs	r2, r2, r5
 2626 0066 BF18     		adds	r7, r7, r2
 2627              	.LVL368:
 581:lib/w25qxx.c  **** 		LocalOffset=0;
 2628              		.loc 1 581 0 discriminator 1
 2629 0068 0025     		movs	r5, #0
 582:lib/w25qxx.c  **** 	}while(BytesToRead>0);	
 2630              		.loc 1 582 0 discriminator 1
 2631 006a 002C     		cmp	r4, #0
 2632 006c EFDC     		bgt	.L184
 2633              	.LVL369:
 2634              	.L179:
 583:lib/w25qxx.c  **** }
 2635              		.loc 1 583 0
 2636 006e 03B0     		add	sp, sp, #12
 2637              		@ sp needed
 2638              	.LVL370:
 2639 0070 F0BD     		pop	{r4, r5, r6, r7, pc}
 2640              	.L188:
 2641 0072 C046     		.align	2
ARM GAS  C:\Users\luvsd\AppData\Local\Temp\cc7qBZw4.s 			page 58


 2642              	.L187:
 2643 0074 00000000 		.word	w25qxx
 2644              		.cfi_endproc
 2645              	.LFE84:
 2646              		.size	W25qxx_ReadBlock, .-W25qxx_ReadBlock
 2647              		.comm	w25qxx,40,4
 2648              		.section	.rodata
 2649              		.align	2
 2650              		.set	.LANCHOR0,. + 0
 2651              	.LC0:
 2652 0040 9F       		.byte	-97
 2653 0041 A5       		.byte	-91
 2654 0042 A5       		.byte	-91
 2655 0043 A5       		.byte	-91
 2656              		.text
 2657              	.Letext0:
 2658              		.file 2 "c:\\program files (x86)\\cypress\\psoc creator\\4.4\\psoc creator\\import\\gnu\\arm\\5.4.
 2659              		.file 3 "c:\\program files (x86)\\cypress\\psoc creator\\4.4\\psoc creator\\import\\gnu\\arm\\5.4.
 2660              		.file 4 "Generated_Source\\PSoC4/cytypes.h"
 2661              		.file 5 "lib\\w25qxx.h"
 2662              		.file 6 "Generated_Source\\PSoC4/Ctrl_MEM_SS.h"
 2663              		.file 7 "Generated_Source\\PSoC4/SPIM_FLASH.h"
 2664              		.file 8 "Generated_Source\\PSoC4/CyLib.h"
 2665              		.section	.debug_info,"",%progbits
 2666              	.Ldebug_info0:
 2667 0000 21160000 		.4byte	0x1621
 2668 0004 0400     		.2byte	0x4
 2669 0006 00000000 		.4byte	.Ldebug_abbrev0
 2670 000a 04       		.byte	0x4
 2671 000b 01       		.uleb128 0x1
 2672 000c 56010000 		.4byte	.LASF114
 2673 0010 0C       		.byte	0xc
 2674 0011 27050000 		.4byte	.LASF115
 2675 0015 F2030000 		.4byte	.LASF116
 2676 0019 00000000 		.4byte	.Ldebug_ranges0+0
 2677 001d 00000000 		.4byte	0
 2678 0021 00000000 		.4byte	.Ldebug_line0
 2679 0025 02       		.uleb128 0x2
 2680 0026 01       		.byte	0x1
 2681 0027 06       		.byte	0x6
 2682 0028 9B030000 		.4byte	.LASF0
 2683 002c 03       		.uleb128 0x3
 2684 002d 42040000 		.4byte	.LASF3
 2685 0031 02       		.byte	0x2
 2686 0032 1D       		.byte	0x1d
 2687 0033 37000000 		.4byte	0x37
 2688 0037 02       		.uleb128 0x2
 2689 0038 01       		.byte	0x1
 2690 0039 08       		.byte	0x8
 2691 003a FC020000 		.4byte	.LASF1
 2692 003e 02       		.uleb128 0x2
 2693 003f 02       		.byte	0x2
 2694 0040 05       		.byte	0x5
 2695 0041 8C000000 		.4byte	.LASF2
 2696 0045 03       		.uleb128 0x3
 2697 0046 00010000 		.4byte	.LASF4
 2698 004a 02       		.byte	0x2
ARM GAS  C:\Users\luvsd\AppData\Local\Temp\cc7qBZw4.s 			page 59


 2699 004b 2B       		.byte	0x2b
 2700 004c 50000000 		.4byte	0x50
 2701 0050 02       		.uleb128 0x2
 2702 0051 02       		.byte	0x2
 2703 0052 07       		.byte	0x7
 2704 0053 95050000 		.4byte	.LASF5
 2705 0057 03       		.uleb128 0x3
 2706 0058 46060000 		.4byte	.LASF6
 2707 005c 02       		.byte	0x2
 2708 005d 3F       		.byte	0x3f
 2709 005e 62000000 		.4byte	0x62
 2710 0062 02       		.uleb128 0x2
 2711 0063 04       		.byte	0x4
 2712 0064 05       		.byte	0x5
 2713 0065 D6040000 		.4byte	.LASF7
 2714 0069 03       		.uleb128 0x3
 2715 006a 09060000 		.4byte	.LASF8
 2716 006e 02       		.byte	0x2
 2717 006f 41       		.byte	0x41
 2718 0070 74000000 		.4byte	0x74
 2719 0074 02       		.uleb128 0x2
 2720 0075 04       		.byte	0x4
 2721 0076 07       		.byte	0x7
 2722 0077 CA050000 		.4byte	.LASF9
 2723 007b 02       		.uleb128 0x2
 2724 007c 08       		.byte	0x8
 2725 007d 05       		.byte	0x5
 2726 007e 7A020000 		.4byte	.LASF10
 2727 0082 02       		.uleb128 0x2
 2728 0083 08       		.byte	0x8
 2729 0084 07       		.byte	0x7
 2730 0085 AF030000 		.4byte	.LASF11
 2731 0089 04       		.uleb128 0x4
 2732 008a 04       		.byte	0x4
 2733 008b 05       		.byte	0x5
 2734 008c 696E7400 		.ascii	"int\000"
 2735 0090 02       		.uleb128 0x2
 2736 0091 04       		.byte	0x4
 2737 0092 07       		.byte	0x7
 2738 0093 CF030000 		.4byte	.LASF12
 2739 0097 03       		.uleb128 0x3
 2740 0098 02020000 		.4byte	.LASF13
 2741 009c 03       		.byte	0x3
 2742 009d 18       		.byte	0x18
 2743 009e 2C000000 		.4byte	0x2c
 2744 00a2 03       		.uleb128 0x3
 2745 00a3 CD040000 		.4byte	.LASF14
 2746 00a7 03       		.byte	0x3
 2747 00a8 24       		.byte	0x24
 2748 00a9 45000000 		.4byte	0x45
 2749 00ad 03       		.uleb128 0x3
 2750 00ae A7030000 		.4byte	.LASF15
 2751 00b2 03       		.byte	0x3
 2752 00b3 2C       		.byte	0x2c
 2753 00b4 57000000 		.4byte	0x57
 2754 00b8 03       		.uleb128 0x3
 2755 00b9 C6030000 		.4byte	.LASF16
ARM GAS  C:\Users\luvsd\AppData\Local\Temp\cc7qBZw4.s 			page 60


 2756 00bd 03       		.byte	0x3
 2757 00be 30       		.byte	0x30
 2758 00bf 69000000 		.4byte	0x69
 2759 00c3 05       		.uleb128 0x5
 2760 00c4 95060000 		.4byte	.LASF17
 2761 00c8 04       		.byte	0x4
 2762 00c9 FC01     		.2byte	0x1fc
 2763 00cb 37000000 		.4byte	0x37
 2764 00cf 02       		.uleb128 0x2
 2765 00d0 04       		.byte	0x4
 2766 00d1 04       		.byte	0x4
 2767 00d2 54020000 		.4byte	.LASF18
 2768 00d6 02       		.uleb128 0x2
 2769 00d7 08       		.byte	0x8
 2770 00d8 04       		.byte	0x4
 2771 00d9 0B010000 		.4byte	.LASF19
 2772 00dd 02       		.uleb128 0x2
 2773 00de 01       		.byte	0x1
 2774 00df 08       		.byte	0x8
 2775 00e0 C8040000 		.4byte	.LASF20
 2776 00e4 02       		.uleb128 0x2
 2777 00e5 08       		.byte	0x8
 2778 00e6 04       		.byte	0x4
 2779 00e7 DB000000 		.4byte	.LASF21
 2780 00eb 02       		.uleb128 0x2
 2781 00ec 04       		.byte	0x4
 2782 00ed 07       		.byte	0x7
 2783 00ee A0000000 		.4byte	.LASF22
 2784 00f2 06       		.uleb128 0x6
 2785 00f3 01       		.byte	0x1
 2786 00f4 37000000 		.4byte	0x37
 2787 00f8 05       		.byte	0x5
 2788 00f9 08       		.byte	0x8
 2789 00fa 3B010000 		.4byte	0x13b
 2790 00fe 07       		.uleb128 0x7
 2791 00ff B9020000 		.4byte	.LASF23
 2792 0103 01       		.byte	0x1
 2793 0104 07       		.uleb128 0x7
 2794 0105 05050000 		.4byte	.LASF24
 2795 0109 02       		.byte	0x2
 2796 010a 07       		.uleb128 0x7
 2797 010b 12010000 		.4byte	.LASF25
 2798 010f 03       		.byte	0x3
 2799 0110 07       		.uleb128 0x7
 2800 0111 35020000 		.4byte	.LASF26
 2801 0115 04       		.byte	0x4
 2802 0116 07       		.uleb128 0x7
 2803 0117 E3020000 		.4byte	.LASF27
 2804 011b 05       		.byte	0x5
 2805 011c 07       		.uleb128 0x7
 2806 011d 20050000 		.4byte	.LASF28
 2807 0121 06       		.byte	0x6
 2808 0122 07       		.uleb128 0x7
 2809 0123 C3050000 		.4byte	.LASF29
 2810 0127 07       		.byte	0x7
 2811 0128 07       		.uleb128 0x7
 2812 0129 8D060000 		.4byte	.LASF30
ARM GAS  C:\Users\luvsd\AppData\Local\Temp\cc7qBZw4.s 			page 61


 2813 012d 08       		.byte	0x8
 2814 012e 07       		.uleb128 0x7
 2815 012f 3E060000 		.4byte	.LASF31
 2816 0133 09       		.byte	0x9
 2817 0134 07       		.uleb128 0x7
 2818 0135 B1020000 		.4byte	.LASF32
 2819 0139 0A       		.byte	0xa
 2820 013a 00       		.byte	0
 2821 013b 03       		.uleb128 0x3
 2822 013c A5060000 		.4byte	.LASF33
 2823 0140 05       		.byte	0x5
 2824 0141 14       		.byte	0x14
 2825 0142 F2000000 		.4byte	0xf2
 2826 0146 08       		.uleb128 0x8
 2827 0147 28       		.byte	0x28
 2828 0148 05       		.byte	0x5
 2829 0149 16       		.byte	0x16
 2830 014a EA010000 		.4byte	0x1ea
 2831 014e 09       		.uleb128 0x9
 2832 014f 494400   		.ascii	"ID\000"
 2833 0152 05       		.byte	0x5
 2834 0153 18       		.byte	0x18
 2835 0154 3B010000 		.4byte	0x13b
 2836 0158 00       		.byte	0
 2837 0159 0A       		.uleb128 0xa
 2838 015a A8050000 		.4byte	.LASF34
 2839 015e 05       		.byte	0x5
 2840 015f 19       		.byte	0x19
 2841 0160 EA010000 		.4byte	0x1ea
 2842 0164 01       		.byte	0x1
 2843 0165 0A       		.uleb128 0xa
 2844 0166 0A020000 		.4byte	.LASF35
 2845 016a 05       		.byte	0x5
 2846 016b 1A       		.byte	0x1a
 2847 016c A2000000 		.4byte	0xa2
 2848 0170 0A       		.byte	0xa
 2849 0171 0A       		.uleb128 0xa
 2850 0172 4C040000 		.4byte	.LASF36
 2851 0176 05       		.byte	0x5
 2852 0177 1B       		.byte	0x1b
 2853 0178 B8000000 		.4byte	0xb8
 2854 017c 0C       		.byte	0xc
 2855 017d 0A       		.uleb128 0xa
 2856 017e 7D030000 		.4byte	.LASF37
 2857 0182 05       		.byte	0x5
 2858 0183 1C       		.byte	0x1c
 2859 0184 B8000000 		.4byte	0xb8
 2860 0188 10       		.byte	0x10
 2861 0189 0A       		.uleb128 0xa
 2862 018a F9040000 		.4byte	.LASF38
 2863 018e 05       		.byte	0x5
 2864 018f 1D       		.byte	0x1d
 2865 0190 B8000000 		.4byte	0xb8
 2866 0194 14       		.byte	0x14
 2867 0195 0A       		.uleb128 0xa
 2868 0196 09000000 		.4byte	.LASF39
 2869 019a 05       		.byte	0x5
ARM GAS  C:\Users\luvsd\AppData\Local\Temp\cc7qBZw4.s 			page 62


 2870 019b 1E       		.byte	0x1e
 2871 019c B8000000 		.4byte	0xb8
 2872 01a0 18       		.byte	0x18
 2873 01a1 0A       		.uleb128 0xa
 2874 01a2 14060000 		.4byte	.LASF40
 2875 01a6 05       		.byte	0x5
 2876 01a7 1F       		.byte	0x1f
 2877 01a8 B8000000 		.4byte	0xb8
 2878 01ac 1C       		.byte	0x1c
 2879 01ad 0A       		.uleb128 0xa
 2880 01ae 69040000 		.4byte	.LASF41
 2881 01b2 05       		.byte	0x5
 2882 01b3 20       		.byte	0x20
 2883 01b4 B8000000 		.4byte	0xb8
 2884 01b8 20       		.byte	0x20
 2885 01b9 0A       		.uleb128 0xa
 2886 01ba B1060000 		.4byte	.LASF42
 2887 01be 05       		.byte	0x5
 2888 01bf 21       		.byte	0x21
 2889 01c0 97000000 		.4byte	0x97
 2890 01c4 24       		.byte	0x24
 2891 01c5 0A       		.uleb128 0xa
 2892 01c6 C1060000 		.4byte	.LASF43
 2893 01ca 05       		.byte	0x5
 2894 01cb 22       		.byte	0x22
 2895 01cc 97000000 		.4byte	0x97
 2896 01d0 25       		.byte	0x25
 2897 01d1 0A       		.uleb128 0xa
 2898 01d2 46010000 		.4byte	.LASF44
 2899 01d6 05       		.byte	0x5
 2900 01d7 23       		.byte	0x23
 2901 01d8 97000000 		.4byte	0x97
 2902 01dc 26       		.byte	0x26
 2903 01dd 0A       		.uleb128 0xa
 2904 01de AC020000 		.4byte	.LASF45
 2905 01e2 05       		.byte	0x5
 2906 01e3 24       		.byte	0x24
 2907 01e4 97000000 		.4byte	0x97
 2908 01e8 27       		.byte	0x27
 2909 01e9 00       		.byte	0
 2910 01ea 0B       		.uleb128 0xb
 2911 01eb 97000000 		.4byte	0x97
 2912 01ef FA010000 		.4byte	0x1fa
 2913 01f3 0C       		.uleb128 0xc
 2914 01f4 EB000000 		.4byte	0xeb
 2915 01f8 07       		.byte	0x7
 2916 01f9 00       		.byte	0
 2917 01fa 03       		.uleb128 0x3
 2918 01fb 00000000 		.4byte	.LASF46
 2919 01ff 05       		.byte	0x5
 2920 0200 26       		.byte	0x26
 2921 0201 46010000 		.4byte	0x146
 2922 0205 0D       		.uleb128 0xd
 2923 0206 19010000 		.4byte	.LASF53
 2924 020a 01       		.byte	0x1
 2925 020b 0A       		.byte	0xa
 2926 020c B8000000 		.4byte	0xb8
ARM GAS  C:\Users\luvsd\AppData\Local\Temp\cc7qBZw4.s 			page 63


 2927 0210 00000000 		.4byte	.LFB60
 2928 0214 64000000 		.4byte	.LFE60-.LFB60
 2929 0218 01       		.uleb128 0x1
 2930 0219 9C       		.byte	0x9c
 2931 021a E3020000 		.4byte	0x2e3
 2932 021e 0E       		.uleb128 0xe
 2933 021f 2A020000 		.4byte	.LASF47
 2934 0223 01       		.byte	0x1
 2935 0224 0C       		.byte	0xc
 2936 0225 C3000000 		.4byte	0xc3
 2937 0229 00000000 		.4byte	.LLST0
 2938 022d 0F       		.uleb128 0xf
 2939 022e 6C656E00 		.ascii	"len\000"
 2940 0232 01       		.byte	0x1
 2941 0233 0D       		.byte	0xd
 2942 0234 C3000000 		.4byte	0xc3
 2943 0238 10       		.uleb128 0x10
 2944 0239 4F020000 		.4byte	.LASF48
 2945 023d 01       		.byte	0x1
 2946 023e 0E       		.byte	0xe
 2947 023f B8000000 		.4byte	0xb8
 2948 0243 01       		.uleb128 0x1
 2949 0244 50       		.byte	0x50
 2950 0245 10       		.uleb128 0x10
 2951 0246 89050000 		.4byte	.LASF49
 2952 024a 01       		.byte	0x1
 2953 024b 0F       		.byte	0xf
 2954 024c E3020000 		.4byte	0x2e3
 2955 0250 02       		.uleb128 0x2
 2956 0251 91       		.byte	0x91
 2957 0252 6C       		.sleb128 -20
 2958 0253 11       		.uleb128 0x11
 2959 0254 0E000000 		.4byte	.LVL1
 2960 0258 AF150000 		.4byte	0x15af
 2961 025c 75020000 		.4byte	0x275
 2962 0260 12       		.uleb128 0x12
 2963 0261 01       		.uleb128 0x1
 2964 0262 50       		.byte	0x50
 2965 0263 02       		.uleb128 0x2
 2966 0264 91       		.byte	0x91
 2967 0265 6C       		.sleb128 -20
 2968 0266 12       		.uleb128 0x12
 2969 0267 01       		.uleb128 0x1
 2970 0268 51       		.byte	0x51
 2971 0269 05       		.uleb128 0x5
 2972 026a 03       		.byte	0x3
 2973 026b 40000000 		.4byte	.LANCHOR0
 2974 026f 12       		.uleb128 0x12
 2975 0270 01       		.uleb128 0x1
 2976 0271 52       		.byte	0x52
 2977 0272 01       		.uleb128 0x1
 2978 0273 34       		.byte	0x34
 2979 0274 00       		.byte	0
 2980 0275 11       		.uleb128 0x11
 2981 0276 14000000 		.4byte	.LVL2
 2982 027a B8150000 		.4byte	0x15b8
 2983 027e 88020000 		.4byte	0x288
ARM GAS  C:\Users\luvsd\AppData\Local\Temp\cc7qBZw4.s 			page 64


 2984 0282 12       		.uleb128 0x12
 2985 0283 01       		.uleb128 0x1
 2986 0284 50       		.byte	0x50
 2987 0285 01       		.uleb128 0x1
 2988 0286 30       		.byte	0x30
 2989 0287 00       		.byte	0
 2990 0288 11       		.uleb128 0x11
 2991 0289 1C000000 		.4byte	.LVL3
 2992 028d C3150000 		.4byte	0x15c3
 2993 0291 A1020000 		.4byte	0x2a1
 2994 0295 12       		.uleb128 0x12
 2995 0296 01       		.uleb128 0x1
 2996 0297 50       		.byte	0x50
 2997 0298 02       		.uleb128 0x2
 2998 0299 91       		.byte	0x91
 2999 029a 6C       		.sleb128 -20
 3000 029b 12       		.uleb128 0x12
 3001 029c 01       		.uleb128 0x1
 3002 029d 51       		.byte	0x51
 3003 029e 01       		.uleb128 0x1
 3004 029f 34       		.byte	0x34
 3005 02a0 00       		.byte	0
 3006 02a1 13       		.uleb128 0x13
 3007 02a2 20000000 		.4byte	.LVL4
 3008 02a6 CE150000 		.4byte	0x15ce
 3009 02aa 11       		.uleb128 0x11
 3010 02ab 2A000000 		.4byte	.LVL5
 3011 02af D9150000 		.4byte	0x15d9
 3012 02b3 BD020000 		.4byte	0x2bd
 3013 02b7 12       		.uleb128 0x12
 3014 02b8 01       		.uleb128 0x1
 3015 02b9 50       		.byte	0x50
 3016 02ba 01       		.uleb128 0x1
 3017 02bb 3A       		.byte	0x3a
 3018 02bc 00       		.byte	0
 3019 02bd 11       		.uleb128 0x11
 3020 02be 30000000 		.4byte	.LVL6
 3021 02c2 B8150000 		.4byte	0x15b8
 3022 02c6 D0020000 		.4byte	0x2d0
 3023 02ca 12       		.uleb128 0x12
 3024 02cb 01       		.uleb128 0x1
 3025 02cc 50       		.byte	0x50
 3026 02cd 01       		.uleb128 0x1
 3027 02ce 31       		.byte	0x31
 3028 02cf 00       		.byte	0
 3029 02d0 13       		.uleb128 0x13
 3030 02d1 3C000000 		.4byte	.LVL9
 3031 02d5 E4150000 		.4byte	0x15e4
 3032 02d9 13       		.uleb128 0x13
 3033 02da 46000000 		.4byte	.LVL11
 3034 02de EF150000 		.4byte	0x15ef
 3035 02e2 00       		.byte	0
 3036 02e3 0B       		.uleb128 0xb
 3037 02e4 97000000 		.4byte	0x97
 3038 02e8 F3020000 		.4byte	0x2f3
 3039 02ec 0C       		.uleb128 0xc
 3040 02ed EB000000 		.4byte	0xeb
ARM GAS  C:\Users\luvsd\AppData\Local\Temp\cc7qBZw4.s 			page 65


 3041 02f1 03       		.byte	0x3
 3042 02f2 00       		.byte	0
 3043 02f3 14       		.uleb128 0x14
 3044 02f4 5A030000 		.4byte	.LASF50
 3045 02f8 01       		.byte	0x1
 3046 02f9 21       		.byte	0x21
 3047 02fa 00000000 		.4byte	.LFB61
 3048 02fe 78000000 		.4byte	.LFE61-.LFB61
 3049 0302 01       		.uleb128 0x1
 3050 0303 9C       		.byte	0x9c
 3051 0304 DA030000 		.4byte	0x3da
 3052 0308 15       		.uleb128 0x15
 3053 0309 6900     		.ascii	"i\000"
 3054 030b 01       		.byte	0x1
 3055 030c 23       		.byte	0x23
 3056 030d C3000000 		.4byte	0xc3
 3057 0311 35000000 		.4byte	.LLST1
 3058 0315 10       		.uleb128 0x10
 3059 0316 89050000 		.4byte	.LASF49
 3060 031a 01       		.byte	0x1
 3061 031b 24       		.byte	0x24
 3062 031c EA010000 		.4byte	0x1ea
 3063 0320 02       		.uleb128 0x2
 3064 0321 91       		.byte	0x91
 3065 0322 68       		.sleb128 -24
 3066 0323 11       		.uleb128 0x11
 3067 0324 0E000000 		.4byte	.LVL15
 3068 0328 FA150000 		.4byte	0x15fa
 3069 032c 41030000 		.4byte	0x341
 3070 0330 12       		.uleb128 0x12
 3071 0331 01       		.uleb128 0x1
 3072 0332 50       		.byte	0x50
 3073 0333 02       		.uleb128 0x2
 3074 0334 7D       		.byte	0x7d
 3075 0335 00       		.sleb128 0
 3076 0336 12       		.uleb128 0x12
 3077 0337 01       		.uleb128 0x1
 3078 0338 51       		.byte	0x51
 3079 0339 01       		.uleb128 0x1
 3080 033a 30       		.byte	0x30
 3081 033b 12       		.uleb128 0x12
 3082 033c 01       		.uleb128 0x1
 3083 033d 52       		.byte	0x52
 3084 033e 01       		.uleb128 0x1
 3085 033f 38       		.byte	0x38
 3086 0340 00       		.byte	0
 3087 0341 11       		.uleb128 0x11
 3088 0342 24000000 		.4byte	.LVL16
 3089 0346 B8150000 		.4byte	0x15b8
 3090 034a 54030000 		.4byte	0x354
 3091 034e 12       		.uleb128 0x12
 3092 034f 01       		.uleb128 0x1
 3093 0350 50       		.byte	0x50
 3094 0351 01       		.uleb128 0x1
 3095 0352 30       		.byte	0x30
 3096 0353 00       		.byte	0
 3097 0354 11       		.uleb128 0x11
ARM GAS  C:\Users\luvsd\AppData\Local\Temp\cc7qBZw4.s 			page 66


 3098 0355 2C000000 		.4byte	.LVL17
 3099 0359 C3150000 		.4byte	0x15c3
 3100 035d 6D030000 		.4byte	0x36d
 3101 0361 12       		.uleb128 0x12
 3102 0362 01       		.uleb128 0x1
 3103 0363 50       		.byte	0x50
 3104 0364 02       		.uleb128 0x2
 3105 0365 7D       		.byte	0x7d
 3106 0366 00       		.sleb128 0
 3107 0367 12       		.uleb128 0x12
 3108 0368 01       		.uleb128 0x1
 3109 0369 51       		.byte	0x51
 3110 036a 01       		.uleb128 0x1
 3111 036b 35       		.byte	0x35
 3112 036c 00       		.byte	0
 3113 036d 13       		.uleb128 0x13
 3114 036e 30000000 		.4byte	.LVL18
 3115 0372 CE150000 		.4byte	0x15ce
 3116 0376 13       		.uleb128 0x13
 3117 0377 38000000 		.4byte	.LVL19
 3118 037b 03160000 		.4byte	0x1603
 3119 037f 11       		.uleb128 0x11
 3120 0380 40000000 		.4byte	.LVL20
 3121 0384 C3150000 		.4byte	0x15c3
 3122 0388 98030000 		.4byte	0x398
 3123 038c 12       		.uleb128 0x12
 3124 038d 01       		.uleb128 0x1
 3125 038e 50       		.byte	0x50
 3126 038f 02       		.uleb128 0x2
 3127 0390 7D       		.byte	0x7d
 3128 0391 00       		.sleb128 0
 3129 0392 12       		.uleb128 0x12
 3130 0393 01       		.uleb128 0x1
 3131 0394 51       		.byte	0x51
 3132 0395 01       		.uleb128 0x1
 3133 0396 38       		.byte	0x38
 3134 0397 00       		.byte	0
 3135 0398 13       		.uleb128 0x13
 3136 0399 44000000 		.4byte	.LVL21
 3137 039d CE150000 		.4byte	0x15ce
 3138 03a1 11       		.uleb128 0x11
 3139 03a2 4E000000 		.4byte	.LVL22
 3140 03a6 D9150000 		.4byte	0x15d9
 3141 03aa B4030000 		.4byte	0x3b4
 3142 03ae 12       		.uleb128 0x12
 3143 03af 01       		.uleb128 0x1
 3144 03b0 50       		.byte	0x50
 3145 03b1 01       		.uleb128 0x1
 3146 03b2 3A       		.byte	0x3a
 3147 03b3 00       		.byte	0
 3148 03b4 11       		.uleb128 0x11
 3149 03b5 54000000 		.4byte	.LVL23
 3150 03b9 B8150000 		.4byte	0x15b8
 3151 03bd C7030000 		.4byte	0x3c7
 3152 03c1 12       		.uleb128 0x12
 3153 03c2 01       		.uleb128 0x1
 3154 03c3 50       		.byte	0x50
ARM GAS  C:\Users\luvsd\AppData\Local\Temp\cc7qBZw4.s 			page 67


 3155 03c4 01       		.uleb128 0x1
 3156 03c5 31       		.byte	0x31
 3157 03c6 00       		.byte	0
 3158 03c7 13       		.uleb128 0x13
 3159 03c8 60000000 		.4byte	.LVL26
 3160 03cc E4150000 		.4byte	0x15e4
 3161 03d0 13       		.uleb128 0x13
 3162 03d1 6C000000 		.4byte	.LVL28
 3163 03d5 EF150000 		.4byte	0x15ef
 3164 03d9 00       		.byte	0
 3165 03da 14       		.uleb128 0x14
 3166 03db 3C020000 		.4byte	.LASF51
 3167 03df 01       		.byte	0x1
 3168 03e0 35       		.byte	0x35
 3169 03e1 00000000 		.4byte	.LFB62
 3170 03e5 34000000 		.4byte	.LFE62-.LFB62
 3171 03e9 01       		.uleb128 0x1
 3172 03ea 9C       		.byte	0x9c
 3173 03eb 70040000 		.4byte	0x470
 3174 03ef 11       		.uleb128 0x11
 3175 03f0 08000000 		.4byte	.LVL30
 3176 03f4 0E160000 		.4byte	0x160e
 3177 03f8 02040000 		.4byte	0x402
 3178 03fc 12       		.uleb128 0x12
 3179 03fd 01       		.uleb128 0x1
 3180 03fe 50       		.byte	0x50
 3181 03ff 01       		.uleb128 0x1
 3182 0400 31       		.byte	0x31
 3183 0401 00       		.byte	0
 3184 0402 11       		.uleb128 0x11
 3185 0403 0E000000 		.4byte	.LVL31
 3186 0407 B8150000 		.4byte	0x15b8
 3187 040b 15040000 		.4byte	0x415
 3188 040f 12       		.uleb128 0x12
 3189 0410 01       		.uleb128 0x1
 3190 0411 50       		.byte	0x50
 3191 0412 01       		.uleb128 0x1
 3192 0413 30       		.byte	0x30
 3193 0414 00       		.byte	0
 3194 0415 11       		.uleb128 0x11
 3195 0416 14000000 		.4byte	.LVL32
 3196 041a 19160000 		.4byte	0x1619
 3197 041e 28040000 		.4byte	0x428
 3198 0422 12       		.uleb128 0x12
 3199 0423 01       		.uleb128 0x1
 3200 0424 50       		.byte	0x50
 3201 0425 01       		.uleb128 0x1
 3202 0426 36       		.byte	0x36
 3203 0427 00       		.byte	0
 3204 0428 13       		.uleb128 0x13
 3205 0429 18000000 		.4byte	.LVL33
 3206 042d CE150000 		.4byte	0x15ce
 3207 0431 11       		.uleb128 0x11
 3208 0432 22000000 		.4byte	.LVL34
 3209 0436 D9150000 		.4byte	0x15d9
 3210 043a 44040000 		.4byte	0x444
 3211 043e 12       		.uleb128 0x12
ARM GAS  C:\Users\luvsd\AppData\Local\Temp\cc7qBZw4.s 			page 68


 3212 043f 01       		.uleb128 0x1
 3213 0440 50       		.byte	0x50
 3214 0441 01       		.uleb128 0x1
 3215 0442 3A       		.byte	0x3a
 3216 0443 00       		.byte	0
 3217 0444 11       		.uleb128 0x11
 3218 0445 28000000 		.4byte	.LVL35
 3219 0449 B8150000 		.4byte	0x15b8
 3220 044d 57040000 		.4byte	0x457
 3221 0451 12       		.uleb128 0x12
 3222 0452 01       		.uleb128 0x1
 3223 0453 50       		.byte	0x50
 3224 0454 01       		.uleb128 0x1
 3225 0455 31       		.byte	0x31
 3226 0456 00       		.byte	0
 3227 0457 13       		.uleb128 0x13
 3228 0458 2C000000 		.4byte	.LVL36
 3229 045c 03160000 		.4byte	0x1603
 3230 0460 16       		.uleb128 0x16
 3231 0461 32000000 		.4byte	.LVL37
 3232 0465 0E160000 		.4byte	0x160e
 3233 0469 12       		.uleb128 0x12
 3234 046a 01       		.uleb128 0x1
 3235 046b 50       		.byte	0x50
 3236 046c 01       		.uleb128 0x1
 3237 046d 31       		.byte	0x31
 3238 046e 00       		.byte	0
 3239 046f 00       		.byte	0
 3240 0470 14       		.uleb128 0x14
 3241 0471 1A070000 		.4byte	.LASF52
 3242 0475 01       		.byte	0x1
 3243 0476 42       		.byte	0x42
 3244 0477 00000000 		.4byte	.LFB63
 3245 047b 34000000 		.4byte	.LFE63-.LFB63
 3246 047f 01       		.uleb128 0x1
 3247 0480 9C       		.byte	0x9c
 3248 0481 06050000 		.4byte	0x506
 3249 0485 11       		.uleb128 0x11
 3250 0486 08000000 		.4byte	.LVL38
 3251 048a 0E160000 		.4byte	0x160e
 3252 048e 98040000 		.4byte	0x498
 3253 0492 12       		.uleb128 0x12
 3254 0493 01       		.uleb128 0x1
 3255 0494 50       		.byte	0x50
 3256 0495 01       		.uleb128 0x1
 3257 0496 31       		.byte	0x31
 3258 0497 00       		.byte	0
 3259 0498 11       		.uleb128 0x11
 3260 0499 0E000000 		.4byte	.LVL39
 3261 049d B8150000 		.4byte	0x15b8
 3262 04a1 AB040000 		.4byte	0x4ab
 3263 04a5 12       		.uleb128 0x12
 3264 04a6 01       		.uleb128 0x1
 3265 04a7 50       		.byte	0x50
 3266 04a8 01       		.uleb128 0x1
 3267 04a9 30       		.byte	0x30
 3268 04aa 00       		.byte	0
ARM GAS  C:\Users\luvsd\AppData\Local\Temp\cc7qBZw4.s 			page 69


 3269 04ab 11       		.uleb128 0x11
 3270 04ac 14000000 		.4byte	.LVL40
 3271 04b0 19160000 		.4byte	0x1619
 3272 04b4 BE040000 		.4byte	0x4be
 3273 04b8 12       		.uleb128 0x12
 3274 04b9 01       		.uleb128 0x1
 3275 04ba 50       		.byte	0x50
 3276 04bb 01       		.uleb128 0x1
 3277 04bc 34       		.byte	0x34
 3278 04bd 00       		.byte	0
 3279 04be 13       		.uleb128 0x13
 3280 04bf 18000000 		.4byte	.LVL41
 3281 04c3 CE150000 		.4byte	0x15ce
 3282 04c7 11       		.uleb128 0x11
 3283 04c8 22000000 		.4byte	.LVL42
 3284 04cc D9150000 		.4byte	0x15d9
 3285 04d0 DA040000 		.4byte	0x4da
 3286 04d4 12       		.uleb128 0x12
 3287 04d5 01       		.uleb128 0x1
 3288 04d6 50       		.byte	0x50
 3289 04d7 01       		.uleb128 0x1
 3290 04d8 3A       		.byte	0x3a
 3291 04d9 00       		.byte	0
 3292 04da 11       		.uleb128 0x11
 3293 04db 28000000 		.4byte	.LVL43
 3294 04df B8150000 		.4byte	0x15b8
 3295 04e3 ED040000 		.4byte	0x4ed
 3296 04e7 12       		.uleb128 0x12
 3297 04e8 01       		.uleb128 0x1
 3298 04e9 50       		.byte	0x50
 3299 04ea 01       		.uleb128 0x1
 3300 04eb 31       		.byte	0x31
 3301 04ec 00       		.byte	0
 3302 04ed 13       		.uleb128 0x13
 3303 04ee 2C000000 		.4byte	.LVL44
 3304 04f2 03160000 		.4byte	0x1603
 3305 04f6 16       		.uleb128 0x16
 3306 04f7 32000000 		.4byte	.LVL45
 3307 04fb 0E160000 		.4byte	0x160e
 3308 04ff 12       		.uleb128 0x12
 3309 0500 01       		.uleb128 0x1
 3310 0501 50       		.byte	0x50
 3311 0502 01       		.uleb128 0x1
 3312 0503 31       		.byte	0x31
 3313 0504 00       		.byte	0
 3314 0505 00       		.byte	0
 3315 0506 0D       		.uleb128 0xd
 3316 0507 EE060000 		.4byte	.LASF54
 3317 050b 01       		.byte	0x1
 3318 050c 4E       		.byte	0x4e
 3319 050d 97000000 		.4byte	0x97
 3320 0511 00000000 		.4byte	.LFB64
 3321 0515 F0000000 		.4byte	.LFE64-.LFB64
 3322 0519 01       		.uleb128 0x1
 3323 051a 9C       		.byte	0x9c
 3324 051b 81060000 		.4byte	0x681
 3325 051f 17       		.uleb128 0x17
ARM GAS  C:\Users\luvsd\AppData\Local\Temp\cc7qBZw4.s 			page 70


 3326 0520 C8020000 		.4byte	.LASF57
 3327 0524 01       		.byte	0x1
 3328 0525 4E       		.byte	0x4e
 3329 0526 97000000 		.4byte	0x97
 3330 052a 6A000000 		.4byte	.LLST2
 3331 052e 0E       		.uleb128 0xe
 3332 052f 2A020000 		.4byte	.LASF47
 3333 0533 01       		.byte	0x1
 3334 0534 50       		.byte	0x50
 3335 0535 C3000000 		.4byte	0xc3
 3336 0539 8B000000 		.4byte	.LLST3
 3337 053d 10       		.uleb128 0x10
 3338 053e B2040000 		.4byte	.LASF55
 3339 0542 01       		.byte	0x1
 3340 0543 51       		.byte	0x51
 3341 0544 81060000 		.4byte	0x681
 3342 0548 02       		.uleb128 0x2
 3343 0549 91       		.byte	0x91
 3344 054a 6C       		.sleb128 -20
 3345 054b 11       		.uleb128 0x11
 3346 054c 12000000 		.4byte	.LVL49
 3347 0550 B8150000 		.4byte	0x15b8
 3348 0554 5E050000 		.4byte	0x55e
 3349 0558 12       		.uleb128 0x12
 3350 0559 01       		.uleb128 0x1
 3351 055a 50       		.byte	0x50
 3352 055b 01       		.uleb128 0x1
 3353 055c 30       		.byte	0x30
 3354 055d 00       		.byte	0
 3355 055e 11       		.uleb128 0x11
 3356 055f 1C000000 		.4byte	.LVL50
 3357 0563 19160000 		.4byte	0x1619
 3358 0567 71050000 		.4byte	0x571
 3359 056b 12       		.uleb128 0x12
 3360 056c 01       		.uleb128 0x1
 3361 056d 50       		.byte	0x50
 3362 056e 01       		.uleb128 0x1
 3363 056f 35       		.byte	0x35
 3364 0570 00       		.byte	0
 3365 0571 11       		.uleb128 0x11
 3366 0572 22000000 		.4byte	.LVL51
 3367 0576 19160000 		.4byte	0x1619
 3368 057a 85050000 		.4byte	0x585
 3369 057e 12       		.uleb128 0x12
 3370 057f 01       		.uleb128 0x1
 3371 0580 50       		.byte	0x50
 3372 0581 02       		.uleb128 0x2
 3373 0582 09       		.byte	0x9
 3374 0583 A5       		.byte	0xa5
 3375 0584 00       		.byte	0
 3376 0585 13       		.uleb128 0x13
 3377 0586 26000000 		.4byte	.LVL52
 3378 058a CE150000 		.4byte	0x15ce
 3379 058e 11       		.uleb128 0x11
 3380 058f 30000000 		.4byte	.LVL53
 3381 0593 D9150000 		.4byte	0x15d9
 3382 0597 A1050000 		.4byte	0x5a1
ARM GAS  C:\Users\luvsd\AppData\Local\Temp\cc7qBZw4.s 			page 71


 3383 059b 12       		.uleb128 0x12
 3384 059c 01       		.uleb128 0x1
 3385 059d 50       		.byte	0x50
 3386 059e 01       		.uleb128 0x1
 3387 059f 3A       		.byte	0x3a
 3388 05a0 00       		.byte	0
 3389 05a1 13       		.uleb128 0x13
 3390 05a2 3C000000 		.4byte	.LVL56
 3391 05a6 E4150000 		.4byte	0x15e4
 3392 05aa 13       		.uleb128 0x13
 3393 05ab 46000000 		.4byte	.LVL58
 3394 05af EF150000 		.4byte	0x15ef
 3395 05b3 11       		.uleb128 0x11
 3396 05b4 60000000 		.4byte	.LVL60
 3397 05b8 19160000 		.4byte	0x1619
 3398 05bc C7050000 		.4byte	0x5c7
 3399 05c0 12       		.uleb128 0x12
 3400 05c1 01       		.uleb128 0x1
 3401 05c2 50       		.byte	0x50
 3402 05c3 02       		.uleb128 0x2
 3403 05c4 08       		.byte	0x8
 3404 05c5 35       		.byte	0x35
 3405 05c6 00       		.byte	0
 3406 05c7 11       		.uleb128 0x11
 3407 05c8 66000000 		.4byte	.LVL61
 3408 05cc 19160000 		.4byte	0x1619
 3409 05d0 DB050000 		.4byte	0x5db
 3410 05d4 12       		.uleb128 0x12
 3411 05d5 01       		.uleb128 0x1
 3412 05d6 50       		.byte	0x50
 3413 05d7 02       		.uleb128 0x2
 3414 05d8 09       		.byte	0x9
 3415 05d9 A5       		.byte	0xa5
 3416 05da 00       		.byte	0
 3417 05db 13       		.uleb128 0x13
 3418 05dc 6A000000 		.4byte	.LVL62
 3419 05e0 CE150000 		.4byte	0x15ce
 3420 05e4 11       		.uleb128 0x11
 3421 05e5 74000000 		.4byte	.LVL63
 3422 05e9 D9150000 		.4byte	0x15d9
 3423 05ed F7050000 		.4byte	0x5f7
 3424 05f1 12       		.uleb128 0x12
 3425 05f2 01       		.uleb128 0x1
 3426 05f3 50       		.byte	0x50
 3427 05f4 01       		.uleb128 0x1
 3428 05f5 3A       		.byte	0x3a
 3429 05f6 00       		.byte	0
 3430 05f7 13       		.uleb128 0x13
 3431 05f8 80000000 		.4byte	.LVL66
 3432 05fc E4150000 		.4byte	0x15e4
 3433 0600 13       		.uleb128 0x13
 3434 0601 8A000000 		.4byte	.LVL68
 3435 0605 EF150000 		.4byte	0x15ef
 3436 0609 11       		.uleb128 0x11
 3437 060a A0000000 		.4byte	.LVL70
 3438 060e 19160000 		.4byte	0x1619
 3439 0612 1C060000 		.4byte	0x61c
ARM GAS  C:\Users\luvsd\AppData\Local\Temp\cc7qBZw4.s 			page 72


 3440 0616 12       		.uleb128 0x12
 3441 0617 01       		.uleb128 0x1
 3442 0618 50       		.byte	0x50
 3443 0619 01       		.uleb128 0x1
 3444 061a 45       		.byte	0x45
 3445 061b 00       		.byte	0
 3446 061c 11       		.uleb128 0x11
 3447 061d A6000000 		.4byte	.LVL71
 3448 0621 19160000 		.4byte	0x1619
 3449 0625 30060000 		.4byte	0x630
 3450 0629 12       		.uleb128 0x12
 3451 062a 01       		.uleb128 0x1
 3452 062b 50       		.byte	0x50
 3453 062c 02       		.uleb128 0x2
 3454 062d 09       		.byte	0x9
 3455 062e A5       		.byte	0xa5
 3456 062f 00       		.byte	0
 3457 0630 13       		.uleb128 0x13
 3458 0631 AA000000 		.4byte	.LVL72
 3459 0635 CE150000 		.4byte	0x15ce
 3460 0639 11       		.uleb128 0x11
 3461 063a B4000000 		.4byte	.LVL73
 3462 063e D9150000 		.4byte	0x15d9
 3463 0642 4C060000 		.4byte	0x64c
 3464 0646 12       		.uleb128 0x12
 3465 0647 01       		.uleb128 0x1
 3466 0648 50       		.byte	0x50
 3467 0649 01       		.uleb128 0x1
 3468 064a 3A       		.byte	0x3a
 3469 064b 00       		.byte	0
 3470 064c 13       		.uleb128 0x13
 3471 064d C0000000 		.4byte	.LVL76
 3472 0651 E4150000 		.4byte	0x15e4
 3473 0655 13       		.uleb128 0x13
 3474 0656 CA000000 		.4byte	.LVL78
 3475 065a EF150000 		.4byte	0x15ef
 3476 065e 11       		.uleb128 0x11
 3477 065f DE000000 		.4byte	.LVL79
 3478 0663 B8150000 		.4byte	0x15b8
 3479 0667 71060000 		.4byte	0x671
 3480 066b 12       		.uleb128 0x12
 3481 066c 01       		.uleb128 0x1
 3482 066d 50       		.byte	0x50
 3483 066e 01       		.uleb128 0x1
 3484 066f 31       		.byte	0x31
 3485 0670 00       		.byte	0
 3486 0671 16       		.uleb128 0x16
 3487 0672 E4000000 		.4byte	.LVL80
 3488 0676 D9150000 		.4byte	0x15d9
 3489 067a 12       		.uleb128 0x12
 3490 067b 01       		.uleb128 0x1
 3491 067c 50       		.byte	0x50
 3492 067d 01       		.uleb128 0x1
 3493 067e 3A       		.byte	0x3a
 3494 067f 00       		.byte	0
 3495 0680 00       		.byte	0
 3496 0681 0B       		.uleb128 0xb
ARM GAS  C:\Users\luvsd\AppData\Local\Temp\cc7qBZw4.s 			page 73


 3497 0682 97000000 		.4byte	0x97
 3498 0686 91060000 		.4byte	0x691
 3499 068a 0C       		.uleb128 0xc
 3500 068b EB000000 		.4byte	0xeb
 3501 068f 01       		.byte	0x1
 3502 0690 00       		.byte	0
 3503 0691 14       		.uleb128 0x14
 3504 0692 16030000 		.4byte	.LASF56
 3505 0696 01       		.byte	0x1
 3506 0697 7D       		.byte	0x7d
 3507 0698 00000000 		.4byte	.LFB65
 3508 069c 64000000 		.4byte	.LFE65-.LFB65
 3509 06a0 01       		.uleb128 0x1
 3510 06a1 9C       		.byte	0x9c
 3511 06a2 70070000 		.4byte	0x770
 3512 06a6 17       		.uleb128 0x17
 3513 06a7 C8020000 		.4byte	.LASF57
 3514 06ab 01       		.byte	0x1
 3515 06ac 7D       		.byte	0x7d
 3516 06ad 97000000 		.4byte	0x97
 3517 06b1 1A010000 		.4byte	.LLST4
 3518 06b5 17       		.uleb128 0x17
 3519 06b6 7C040000 		.4byte	.LASF58
 3520 06ba 01       		.byte	0x1
 3521 06bb 7D       		.byte	0x7d
 3522 06bc 97000000 		.4byte	0x97
 3523 06c0 3B010000 		.4byte	.LLST5
 3524 06c4 18       		.uleb128 0x18
 3525 06c5 B2040000 		.4byte	.LASF55
 3526 06c9 01       		.byte	0x1
 3527 06ca 7F       		.byte	0x7f
 3528 06cb 97000000 		.4byte	0x97
 3529 06cf 00       		.byte	0
 3530 06d0 11       		.uleb128 0x11
 3531 06d1 0C000000 		.4byte	.LVL85
 3532 06d5 B8150000 		.4byte	0x15b8
 3533 06d9 E3060000 		.4byte	0x6e3
 3534 06dd 12       		.uleb128 0x12
 3535 06de 01       		.uleb128 0x1
 3536 06df 50       		.byte	0x50
 3537 06e0 01       		.uleb128 0x1
 3538 06e1 30       		.byte	0x30
 3539 06e2 00       		.byte	0
 3540 06e3 11       		.uleb128 0x11
 3541 06e4 16000000 		.4byte	.LVL86
 3542 06e8 19160000 		.4byte	0x1619
 3543 06ec F6060000 		.4byte	0x6f6
 3544 06f0 12       		.uleb128 0x12
 3545 06f1 01       		.uleb128 0x1
 3546 06f2 50       		.byte	0x50
 3547 06f3 01       		.uleb128 0x1
 3548 06f4 31       		.byte	0x31
 3549 06f5 00       		.byte	0
 3550 06f6 11       		.uleb128 0x11
 3551 06f7 28000000 		.4byte	.LVL87
 3552 06fb 19160000 		.4byte	0x1619
 3553 06ff 0A070000 		.4byte	0x70a
ARM GAS  C:\Users\luvsd\AppData\Local\Temp\cc7qBZw4.s 			page 74


 3554 0703 12       		.uleb128 0x12
 3555 0704 01       		.uleb128 0x1
 3556 0705 50       		.byte	0x50
 3557 0706 02       		.uleb128 0x2
 3558 0707 08       		.byte	0x8
 3559 0708 31       		.byte	0x31
 3560 0709 00       		.byte	0
 3561 070a 11       		.uleb128 0x11
 3562 070b 36000000 		.4byte	.LVL88
 3563 070f 19160000 		.4byte	0x1619
 3564 0713 1D070000 		.4byte	0x71d
 3565 0717 12       		.uleb128 0x12
 3566 0718 01       		.uleb128 0x1
 3567 0719 50       		.byte	0x50
 3568 071a 01       		.uleb128 0x1
 3569 071b 41       		.byte	0x41
 3570 071c 00       		.byte	0
 3571 071d 11       		.uleb128 0x11
 3572 071e 42000000 		.4byte	.LVL89
 3573 0722 19160000 		.4byte	0x1619
 3574 0726 31070000 		.4byte	0x731
 3575 072a 12       		.uleb128 0x12
 3576 072b 01       		.uleb128 0x1
 3577 072c 50       		.byte	0x50
 3578 072d 02       		.uleb128 0x2
 3579 072e 74       		.byte	0x74
 3580 072f 00       		.sleb128 0
 3581 0730 00       		.byte	0
 3582 0731 13       		.uleb128 0x13
 3583 0732 46000000 		.4byte	.LVL90
 3584 0736 CE150000 		.4byte	0x15ce
 3585 073a 11       		.uleb128 0x11
 3586 073b 50000000 		.4byte	.LVL91
 3587 073f D9150000 		.4byte	0x15d9
 3588 0743 4D070000 		.4byte	0x74d
 3589 0747 12       		.uleb128 0x12
 3590 0748 01       		.uleb128 0x1
 3591 0749 50       		.byte	0x50
 3592 074a 01       		.uleb128 0x1
 3593 074b 3A       		.byte	0x3a
 3594 074c 00       		.byte	0
 3595 074d 11       		.uleb128 0x11
 3596 074e 56000000 		.4byte	.LVL92
 3597 0752 B8150000 		.4byte	0x15b8
 3598 0756 60070000 		.4byte	0x760
 3599 075a 12       		.uleb128 0x12
 3600 075b 01       		.uleb128 0x1
 3601 075c 50       		.byte	0x50
 3602 075d 01       		.uleb128 0x1
 3603 075e 31       		.byte	0x31
 3604 075f 00       		.byte	0
 3605 0760 16       		.uleb128 0x16
 3606 0761 5C000000 		.4byte	.LVL93
 3607 0765 0E160000 		.4byte	0x160e
 3608 0769 12       		.uleb128 0x12
 3609 076a 01       		.uleb128 0x1
 3610 076b 50       		.byte	0x50
ARM GAS  C:\Users\luvsd\AppData\Local\Temp\cc7qBZw4.s 			page 75


 3611 076c 01       		.uleb128 0x1
 3612 076d 44       		.byte	0x44
 3613 076e 00       		.byte	0
 3614 076f 00       		.byte	0
 3615 0770 14       		.uleb128 0x14
 3616 0771 3A050000 		.4byte	.LASF59
 3617 0775 01       		.byte	0x1
 3618 0776 97       		.byte	0x97
 3619 0777 00000000 		.4byte	.LFB66
 3620 077b 54000000 		.4byte	.LFE66-.LFB66
 3621 077f 01       		.uleb128 0x1
 3622 0780 9C       		.byte	0x9c
 3623 0781 2C080000 		.4byte	0x82c
 3624 0785 11       		.uleb128 0x11
 3625 0786 08000000 		.4byte	.LVL94
 3626 078a B8150000 		.4byte	0x15b8
 3627 078e 98070000 		.4byte	0x798
 3628 0792 12       		.uleb128 0x12
 3629 0793 01       		.uleb128 0x1
 3630 0794 50       		.byte	0x50
 3631 0795 01       		.uleb128 0x1
 3632 0796 30       		.byte	0x30
 3633 0797 00       		.byte	0
 3634 0798 11       		.uleb128 0x11
 3635 0799 0E000000 		.4byte	.LVL95
 3636 079d 19160000 		.4byte	0x1619
 3637 07a1 AB070000 		.4byte	0x7ab
 3638 07a5 12       		.uleb128 0x12
 3639 07a6 01       		.uleb128 0x1
 3640 07a7 50       		.byte	0x50
 3641 07a8 01       		.uleb128 0x1
 3642 07a9 35       		.byte	0x35
 3643 07aa 00       		.byte	0
 3644 07ab 13       		.uleb128 0x13
 3645 07ac 12000000 		.4byte	.LVL96
 3646 07b0 CE150000 		.4byte	0x15ce
 3647 07b4 11       		.uleb128 0x11
 3648 07b5 1C000000 		.4byte	.LVL97
 3649 07b9 D9150000 		.4byte	0x15d9
 3650 07bd C7070000 		.4byte	0x7c7
 3651 07c1 12       		.uleb128 0x12
 3652 07c2 01       		.uleb128 0x1
 3653 07c3 50       		.byte	0x50
 3654 07c4 01       		.uleb128 0x1
 3655 07c5 3A       		.byte	0x3a
 3656 07c6 00       		.byte	0
 3657 07c7 13       		.uleb128 0x13
 3658 07c8 20000000 		.4byte	.LVL98
 3659 07cc 03160000 		.4byte	0x1603
 3660 07d0 11       		.uleb128 0x11
 3661 07d1 26000000 		.4byte	.LVL99
 3662 07d5 19160000 		.4byte	0x1619
 3663 07d9 E4070000 		.4byte	0x7e4
 3664 07dd 12       		.uleb128 0x12
 3665 07de 01       		.uleb128 0x1
 3666 07df 50       		.byte	0x50
 3667 07e0 02       		.uleb128 0x2
ARM GAS  C:\Users\luvsd\AppData\Local\Temp\cc7qBZw4.s 			page 76


 3668 07e1 09       		.byte	0x9
 3669 07e2 A5       		.byte	0xa5
 3670 07e3 00       		.byte	0
 3671 07e4 13       		.uleb128 0x13
 3672 07e5 2A000000 		.4byte	.LVL100
 3673 07e9 CE150000 		.4byte	0x15ce
 3674 07ed 13       		.uleb128 0x13
 3675 07ee 32000000 		.4byte	.LVL101
 3676 07f2 E4150000 		.4byte	0x15e4
 3677 07f6 11       		.uleb128 0x11
 3678 07f7 42000000 		.4byte	.LVL102
 3679 07fb D9150000 		.4byte	0x15d9
 3680 07ff 09080000 		.4byte	0x809
 3681 0803 12       		.uleb128 0x12
 3682 0804 01       		.uleb128 0x1
 3683 0805 50       		.byte	0x50
 3684 0806 01       		.uleb128 0x1
 3685 0807 3A       		.byte	0x3a
 3686 0808 00       		.byte	0
 3687 0809 11       		.uleb128 0x11
 3688 080a 48000000 		.4byte	.LVL103
 3689 080e B8150000 		.4byte	0x15b8
 3690 0812 1C080000 		.4byte	0x81c
 3691 0816 12       		.uleb128 0x12
 3692 0817 01       		.uleb128 0x1
 3693 0818 50       		.byte	0x50
 3694 0819 01       		.uleb128 0x1
 3695 081a 31       		.byte	0x31
 3696 081b 00       		.byte	0
 3697 081c 16       		.uleb128 0x16
 3698 081d 4E000000 		.4byte	.LVL104
 3699 0821 0E160000 		.4byte	0x160e
 3700 0825 12       		.uleb128 0x12
 3701 0826 01       		.uleb128 0x1
 3702 0827 50       		.byte	0x50
 3703 0828 01       		.uleb128 0x1
 3704 0829 31       		.byte	0x31
 3705 082a 00       		.byte	0
 3706 082b 00       		.byte	0
 3707 082c 0D       		.uleb128 0xd
 3708 082d 8F020000 		.4byte	.LASF60
 3709 0831 01       		.byte	0x1
 3710 0832 AA       		.byte	0xaa
 3711 0833 AF080000 		.4byte	0x8af
 3712 0837 00000000 		.4byte	.LFB67
 3713 083b FC000000 		.4byte	.LFE67-.LFB67
 3714 083f 01       		.uleb128 0x1
 3715 0840 9C       		.byte	0x9c
 3716 0841 AF080000 		.4byte	0x8af
 3717 0845 15       		.uleb128 0x15
 3718 0846 696400   		.ascii	"id\000"
 3719 0849 01       		.byte	0x1
 3720 084a AF       		.byte	0xaf
 3721 084b B8000000 		.4byte	0xb8
 3722 084f 5C010000 		.4byte	.LLST6
 3723 0853 11       		.uleb128 0x11
 3724 0854 10000000 		.4byte	.LVL105
ARM GAS  C:\Users\luvsd\AppData\Local\Temp\cc7qBZw4.s 			page 77


 3725 0858 0E160000 		.4byte	0x160e
 3726 085c 67080000 		.4byte	0x867
 3727 0860 12       		.uleb128 0x12
 3728 0861 01       		.uleb128 0x1
 3729 0862 50       		.byte	0x50
 3730 0863 02       		.uleb128 0x2
 3731 0864 08       		.byte	0x8
 3732 0865 64       		.byte	0x64
 3733 0866 00       		.byte	0
 3734 0867 13       		.uleb128 0x13
 3735 0868 14000000 		.4byte	.LVL106
 3736 086c 05020000 		.4byte	0x205
 3737 0870 13       		.uleb128 0x13
 3738 0871 D6000000 		.4byte	.LVL108
 3739 0875 F3020000 		.4byte	0x2f3
 3740 0879 11       		.uleb128 0x11
 3741 087a DC000000 		.4byte	.LVL109
 3742 087e 06050000 		.4byte	0x506
 3743 0882 8C080000 		.4byte	0x88c
 3744 0886 12       		.uleb128 0x12
 3745 0887 01       		.uleb128 0x1
 3746 0888 50       		.byte	0x50
 3747 0889 01       		.uleb128 0x1
 3748 088a 31       		.byte	0x31
 3749 088b 00       		.byte	0
 3750 088c 11       		.uleb128 0x11
 3751 088d E2000000 		.4byte	.LVL110
 3752 0891 06050000 		.4byte	0x506
 3753 0895 9F080000 		.4byte	0x89f
 3754 0899 12       		.uleb128 0x12
 3755 089a 01       		.uleb128 0x1
 3756 089b 50       		.byte	0x50
 3757 089c 01       		.uleb128 0x1
 3758 089d 32       		.byte	0x32
 3759 089e 00       		.byte	0
 3760 089f 16       		.uleb128 0x16
 3761 08a0 E8000000 		.4byte	.LVL111
 3762 08a4 06050000 		.4byte	0x506
 3763 08a8 12       		.uleb128 0x12
 3764 08a9 01       		.uleb128 0x1
 3765 08aa 50       		.byte	0x50
 3766 08ab 01       		.uleb128 0x1
 3767 08ac 33       		.byte	0x33
 3768 08ad 00       		.byte	0
 3769 08ae 00       		.byte	0
 3770 08af 02       		.uleb128 0x2
 3771 08b0 01       		.byte	0x1
 3772 08b1 02       		.byte	0x2
 3773 08b2 34050000 		.4byte	.LASF61
 3774 08b6 14       		.uleb128 0x14
 3775 08b7 6C030000 		.4byte	.LASF62
 3776 08bb 01       		.byte	0x1
 3777 08bc F0       		.byte	0xf0
 3778 08bd 00000000 		.4byte	.LFB68
 3779 08c1 50000000 		.4byte	.LFE68-.LFB68
 3780 08c5 01       		.uleb128 0x1
 3781 08c6 9C       		.byte	0x9c
ARM GAS  C:\Users\luvsd\AppData\Local\Temp\cc7qBZw4.s 			page 78


 3782 08c7 47090000 		.4byte	0x947
 3783 08cb 11       		.uleb128 0x11
 3784 08cc 0A000000 		.4byte	.LVL112
 3785 08d0 0E160000 		.4byte	0x160e
 3786 08d4 DE080000 		.4byte	0x8de
 3787 08d8 12       		.uleb128 0x12
 3788 08d9 01       		.uleb128 0x1
 3789 08da 50       		.byte	0x50
 3790 08db 01       		.uleb128 0x1
 3791 08dc 31       		.byte	0x31
 3792 08dd 00       		.byte	0
 3793 08de 13       		.uleb128 0x13
 3794 08df 1E000000 		.4byte	.LVL113
 3795 08e3 DA030000 		.4byte	0x3da
 3796 08e7 11       		.uleb128 0x11
 3797 08e8 24000000 		.4byte	.LVL114
 3798 08ec B8150000 		.4byte	0x15b8
 3799 08f0 FA080000 		.4byte	0x8fa
 3800 08f4 12       		.uleb128 0x12
 3801 08f5 01       		.uleb128 0x1
 3802 08f6 50       		.byte	0x50
 3803 08f7 01       		.uleb128 0x1
 3804 08f8 30       		.byte	0x30
 3805 08f9 00       		.byte	0
 3806 08fa 11       		.uleb128 0x11
 3807 08fb 2A000000 		.4byte	.LVL115
 3808 08ff 19160000 		.4byte	0x1619
 3809 0903 0E090000 		.4byte	0x90e
 3810 0907 12       		.uleb128 0x12
 3811 0908 01       		.uleb128 0x1
 3812 0909 50       		.byte	0x50
 3813 090a 02       		.uleb128 0x2
 3814 090b 09       		.byte	0x9
 3815 090c C7       		.byte	0xc7
 3816 090d 00       		.byte	0
 3817 090e 13       		.uleb128 0x13
 3818 090f 2E000000 		.4byte	.LVL116
 3819 0913 CE150000 		.4byte	0x15ce
 3820 0917 11       		.uleb128 0x11
 3821 0918 38000000 		.4byte	.LVL117
 3822 091c D9150000 		.4byte	0x15d9
 3823 0920 2A090000 		.4byte	0x92a
 3824 0924 12       		.uleb128 0x12
 3825 0925 01       		.uleb128 0x1
 3826 0926 50       		.byte	0x50
 3827 0927 01       		.uleb128 0x1
 3828 0928 3A       		.byte	0x3a
 3829 0929 00       		.byte	0
 3830 092a 11       		.uleb128 0x11
 3831 092b 3E000000 		.4byte	.LVL118
 3832 092f B8150000 		.4byte	0x15b8
 3833 0933 3D090000 		.4byte	0x93d
 3834 0937 12       		.uleb128 0x12
 3835 0938 01       		.uleb128 0x1
 3836 0939 50       		.byte	0x50
 3837 093a 01       		.uleb128 0x1
 3838 093b 31       		.byte	0x31
ARM GAS  C:\Users\luvsd\AppData\Local\Temp\cc7qBZw4.s 			page 79


 3839 093c 00       		.byte	0
 3840 093d 13       		.uleb128 0x13
 3841 093e 42000000 		.4byte	.LVL119
 3842 0942 70070000 		.4byte	0x770
 3843 0946 00       		.byte	0
 3844 0947 19       		.uleb128 0x19
 3845 0948 A9000000 		.4byte	.LASF63
 3846 094c 01       		.byte	0x1
 3847 094d 0201     		.2byte	0x102
 3848 094f 00000000 		.4byte	.LFB69
 3849 0953 7C000000 		.4byte	.LFE69-.LFB69
 3850 0957 01       		.uleb128 0x1
 3851 0958 9C       		.byte	0x9c
 3852 0959 4C0A0000 		.4byte	0xa4c
 3853 095d 1A       		.uleb128 0x1a
 3854 095e 63000000 		.4byte	.LASF64
 3855 0962 01       		.byte	0x1
 3856 0963 0201     		.2byte	0x102
 3857 0965 B8000000 		.4byte	0xb8
 3858 0969 6F010000 		.4byte	.LLST7
 3859 096d 11       		.uleb128 0x11
 3860 096e 0C000000 		.4byte	.LVL122
 3861 0972 0E160000 		.4byte	0x160e
 3862 0976 80090000 		.4byte	0x980
 3863 097a 12       		.uleb128 0x12
 3864 097b 01       		.uleb128 0x1
 3865 097c 50       		.byte	0x50
 3866 097d 01       		.uleb128 0x1
 3867 097e 31       		.byte	0x31
 3868 097f 00       		.byte	0
 3869 0980 13       		.uleb128 0x13
 3870 0981 26000000 		.4byte	.LVL124
 3871 0985 DA030000 		.4byte	0x3da
 3872 0989 11       		.uleb128 0x11
 3873 098a 2C000000 		.4byte	.LVL125
 3874 098e B8150000 		.4byte	0x15b8
 3875 0992 9C090000 		.4byte	0x99c
 3876 0996 12       		.uleb128 0x12
 3877 0997 01       		.uleb128 0x1
 3878 0998 50       		.byte	0x50
 3879 0999 01       		.uleb128 0x1
 3880 099a 30       		.byte	0x30
 3881 099b 00       		.byte	0
 3882 099c 11       		.uleb128 0x11
 3883 099d 32000000 		.4byte	.LVL126
 3884 09a1 19160000 		.4byte	0x1619
 3885 09a5 B0090000 		.4byte	0x9b0
 3886 09a9 12       		.uleb128 0x12
 3887 09aa 01       		.uleb128 0x1
 3888 09ab 50       		.byte	0x50
 3889 09ac 02       		.uleb128 0x2
 3890 09ad 08       		.byte	0x8
 3891 09ae 20       		.byte	0x20
 3892 09af 00       		.byte	0
 3893 09b0 11       		.uleb128 0x11
 3894 09b1 3A000000 		.4byte	.LVL127
 3895 09b5 19160000 		.4byte	0x1619
ARM GAS  C:\Users\luvsd\AppData\Local\Temp\cc7qBZw4.s 			page 80


 3896 09b9 C6090000 		.4byte	0x9c6
 3897 09bd 12       		.uleb128 0x12
 3898 09be 01       		.uleb128 0x1
 3899 09bf 50       		.byte	0x50
 3900 09c0 04       		.uleb128 0x4
 3901 09c1 74       		.byte	0x74
 3902 09c2 00       		.sleb128 0
 3903 09c3 40       		.byte	0x40
 3904 09c4 25       		.byte	0x25
 3905 09c5 00       		.byte	0
 3906 09c6 11       		.uleb128 0x11
 3907 09c7 42000000 		.4byte	.LVL128
 3908 09cb 19160000 		.4byte	0x1619
 3909 09cf DC090000 		.4byte	0x9dc
 3910 09d3 12       		.uleb128 0x12
 3911 09d4 01       		.uleb128 0x1
 3912 09d5 50       		.byte	0x50
 3913 09d6 04       		.uleb128 0x4
 3914 09d7 74       		.byte	0x74
 3915 09d8 00       		.sleb128 0
 3916 09d9 38       		.byte	0x38
 3917 09da 25       		.byte	0x25
 3918 09db 00       		.byte	0
 3919 09dc 11       		.uleb128 0x11
 3920 09dd 48000000 		.4byte	.LVL129
 3921 09e1 19160000 		.4byte	0x1619
 3922 09e5 F0090000 		.4byte	0x9f0
 3923 09e9 12       		.uleb128 0x12
 3924 09ea 01       		.uleb128 0x1
 3925 09eb 50       		.byte	0x50
 3926 09ec 02       		.uleb128 0x2
 3927 09ed 74       		.byte	0x74
 3928 09ee 00       		.sleb128 0
 3929 09ef 00       		.byte	0
 3930 09f0 13       		.uleb128 0x13
 3931 09f1 4C000000 		.4byte	.LVL130
 3932 09f5 CE150000 		.4byte	0x15ce
 3933 09f9 11       		.uleb128 0x11
 3934 09fa 56000000 		.4byte	.LVL131
 3935 09fe D9150000 		.4byte	0x15d9
 3936 0a02 0C0A0000 		.4byte	0xa0c
 3937 0a06 12       		.uleb128 0x12
 3938 0a07 01       		.uleb128 0x1
 3939 0a08 50       		.byte	0x50
 3940 0a09 01       		.uleb128 0x1
 3941 0a0a 3A       		.byte	0x3a
 3942 0a0b 00       		.byte	0
 3943 0a0c 11       		.uleb128 0x11
 3944 0a0d 5C000000 		.4byte	.LVL132
 3945 0a11 B8150000 		.4byte	0x15b8
 3946 0a15 1F0A0000 		.4byte	0xa1f
 3947 0a19 12       		.uleb128 0x12
 3948 0a1a 01       		.uleb128 0x1
 3949 0a1b 50       		.byte	0x50
 3950 0a1c 01       		.uleb128 0x1
 3951 0a1d 31       		.byte	0x31
 3952 0a1e 00       		.byte	0
ARM GAS  C:\Users\luvsd\AppData\Local\Temp\cc7qBZw4.s 			page 81


 3953 0a1f 11       		.uleb128 0x11
 3954 0a20 62000000 		.4byte	.LVL133
 3955 0a24 0E160000 		.4byte	0x160e
 3956 0a28 330A0000 		.4byte	0xa33
 3957 0a2c 12       		.uleb128 0x12
 3958 0a2d 01       		.uleb128 0x1
 3959 0a2e 50       		.byte	0x50
 3960 0a2f 02       		.uleb128 0x2
 3961 0a30 08       		.byte	0x8
 3962 0a31 C8       		.byte	0xc8
 3963 0a32 00       		.byte	0
 3964 0a33 13       		.uleb128 0x13
 3965 0a34 66000000 		.4byte	.LVL134
 3966 0a38 70070000 		.4byte	0x770
 3967 0a3c 16       		.uleb128 0x16
 3968 0a3d 6C000000 		.4byte	.LVL135
 3969 0a41 0E160000 		.4byte	0x160e
 3970 0a45 12       		.uleb128 0x12
 3971 0a46 01       		.uleb128 0x1
 3972 0a47 50       		.byte	0x50
 3973 0a48 01       		.uleb128 0x1
 3974 0a49 31       		.byte	0x31
 3975 0a4a 00       		.byte	0
 3976 0a4b 00       		.byte	0
 3977 0a4c 19       		.uleb128 0x19
 3978 0a4d EA020000 		.4byte	.LASF65
 3979 0a51 01       		.byte	0x1
 3980 0a52 1801     		.2byte	0x118
 3981 0a54 00000000 		.4byte	.LFB70
 3982 0a58 88000000 		.4byte	.LFE70-.LFB70
 3983 0a5c 01       		.uleb128 0x1
 3984 0a5d 9C       		.byte	0x9c
 3985 0a5e 5C0B0000 		.4byte	0xb5c
 3986 0a62 1A       		.uleb128 0x1a
 3987 0a63 96000000 		.4byte	.LASF66
 3988 0a67 01       		.byte	0x1
 3989 0a68 1801     		.2byte	0x118
 3990 0a6a B8000000 		.4byte	0xb8
 3991 0a6e 8D010000 		.4byte	.LLST8
 3992 0a72 11       		.uleb128 0x11
 3993 0a73 0C000000 		.4byte	.LVL139
 3994 0a77 0E160000 		.4byte	0x160e
 3995 0a7b 850A0000 		.4byte	0xa85
 3996 0a7f 12       		.uleb128 0x12
 3997 0a80 01       		.uleb128 0x1
 3998 0a81 50       		.byte	0x50
 3999 0a82 01       		.uleb128 0x1
 4000 0a83 31       		.byte	0x31
 4001 0a84 00       		.byte	0
 4002 0a85 13       		.uleb128 0x13
 4003 0a86 22000000 		.4byte	.LVL140
 4004 0a8a 70070000 		.4byte	0x770
 4005 0a8e 13       		.uleb128 0x13
 4006 0a8f 2C000000 		.4byte	.LVL143
 4007 0a93 DA030000 		.4byte	0x3da
 4008 0a97 11       		.uleb128 0x11
 4009 0a98 32000000 		.4byte	.LVL144
ARM GAS  C:\Users\luvsd\AppData\Local\Temp\cc7qBZw4.s 			page 82


 4010 0a9c B8150000 		.4byte	0x15b8
 4011 0aa0 AA0A0000 		.4byte	0xaaa
 4012 0aa4 12       		.uleb128 0x12
 4013 0aa5 01       		.uleb128 0x1
 4014 0aa6 50       		.byte	0x50
 4015 0aa7 01       		.uleb128 0x1
 4016 0aa8 30       		.byte	0x30
 4017 0aa9 00       		.byte	0
 4018 0aaa 11       		.uleb128 0x11
 4019 0aab 38000000 		.4byte	.LVL145
 4020 0aaf 19160000 		.4byte	0x1619
 4021 0ab3 BE0A0000 		.4byte	0xabe
 4022 0ab7 12       		.uleb128 0x12
 4023 0ab8 01       		.uleb128 0x1
 4024 0ab9 50       		.byte	0x50
 4025 0aba 02       		.uleb128 0x2
 4026 0abb 09       		.byte	0x9
 4027 0abc D8       		.byte	0xd8
 4028 0abd 00       		.byte	0
 4029 0abe 11       		.uleb128 0x11
 4030 0abf 44000000 		.4byte	.LVL146
 4031 0ac3 19160000 		.4byte	0x1619
 4032 0ac7 D40A0000 		.4byte	0xad4
 4033 0acb 12       		.uleb128 0x12
 4034 0acc 01       		.uleb128 0x1
 4035 0acd 50       		.byte	0x50
 4036 0ace 04       		.uleb128 0x4
 4037 0acf 74       		.byte	0x74
 4038 0ad0 00       		.sleb128 0
 4039 0ad1 48       		.byte	0x48
 4040 0ad2 25       		.byte	0x25
 4041 0ad3 00       		.byte	0
 4042 0ad4 11       		.uleb128 0x11
 4043 0ad5 4C000000 		.4byte	.LVL147
 4044 0ad9 19160000 		.4byte	0x1619
 4045 0add EA0A0000 		.4byte	0xaea
 4046 0ae1 12       		.uleb128 0x12
 4047 0ae2 01       		.uleb128 0x1
 4048 0ae3 50       		.byte	0x50
 4049 0ae4 04       		.uleb128 0x4
 4050 0ae5 74       		.byte	0x74
 4051 0ae6 00       		.sleb128 0
 4052 0ae7 40       		.byte	0x40
 4053 0ae8 25       		.byte	0x25
 4054 0ae9 00       		.byte	0
 4055 0aea 11       		.uleb128 0x11
 4056 0aeb 54000000 		.4byte	.LVL148
 4057 0aef 19160000 		.4byte	0x1619
 4058 0af3 000B0000 		.4byte	0xb00
 4059 0af7 12       		.uleb128 0x12
 4060 0af8 01       		.uleb128 0x1
 4061 0af9 50       		.byte	0x50
 4062 0afa 04       		.uleb128 0x4
 4063 0afb 74       		.byte	0x74
 4064 0afc 00       		.sleb128 0
 4065 0afd 38       		.byte	0x38
 4066 0afe 25       		.byte	0x25
ARM GAS  C:\Users\luvsd\AppData\Local\Temp\cc7qBZw4.s 			page 83


 4067 0aff 00       		.byte	0
 4068 0b00 11       		.uleb128 0x11
 4069 0b01 5A000000 		.4byte	.LVL149
 4070 0b05 19160000 		.4byte	0x1619
 4071 0b09 140B0000 		.4byte	0xb14
 4072 0b0d 12       		.uleb128 0x12
 4073 0b0e 01       		.uleb128 0x1
 4074 0b0f 50       		.byte	0x50
 4075 0b10 02       		.uleb128 0x2
 4076 0b11 74       		.byte	0x74
 4077 0b12 00       		.sleb128 0
 4078 0b13 00       		.byte	0
 4079 0b14 13       		.uleb128 0x13
 4080 0b15 5E000000 		.4byte	.LVL150
 4081 0b19 CE150000 		.4byte	0x15ce
 4082 0b1d 11       		.uleb128 0x11
 4083 0b1e 68000000 		.4byte	.LVL151
 4084 0b22 D9150000 		.4byte	0x15d9
 4085 0b26 300B0000 		.4byte	0xb30
 4086 0b2a 12       		.uleb128 0x12
 4087 0b2b 01       		.uleb128 0x1
 4088 0b2c 50       		.byte	0x50
 4089 0b2d 01       		.uleb128 0x1
 4090 0b2e 3A       		.byte	0x3a
 4091 0b2f 00       		.byte	0
 4092 0b30 11       		.uleb128 0x11
 4093 0b31 6E000000 		.4byte	.LVL152
 4094 0b35 B8150000 		.4byte	0x15b8
 4095 0b39 430B0000 		.4byte	0xb43
 4096 0b3d 12       		.uleb128 0x12
 4097 0b3e 01       		.uleb128 0x1
 4098 0b3f 50       		.byte	0x50
 4099 0b40 01       		.uleb128 0x1
 4100 0b41 31       		.byte	0x31
 4101 0b42 00       		.byte	0
 4102 0b43 13       		.uleb128 0x13
 4103 0b44 72000000 		.4byte	.LVL153
 4104 0b48 70070000 		.4byte	0x770
 4105 0b4c 16       		.uleb128 0x16
 4106 0b4d 78000000 		.4byte	.LVL154
 4107 0b51 0E160000 		.4byte	0x160e
 4108 0b55 12       		.uleb128 0x12
 4109 0b56 01       		.uleb128 0x1
 4110 0b57 50       		.byte	0x50
 4111 0b58 01       		.uleb128 0x1
 4112 0b59 31       		.byte	0x31
 4113 0b5a 00       		.byte	0
 4114 0b5b 00       		.byte	0
 4115 0b5c 1B       		.uleb128 0x1b
 4116 0b5d 4F000000 		.4byte	.LASF67
 4117 0b61 01       		.byte	0x1
 4118 0b62 2F01     		.2byte	0x12f
 4119 0b64 B8000000 		.4byte	0xb8
 4120 0b68 00000000 		.4byte	.LFB71
 4121 0b6c 14000000 		.4byte	.LFE71-.LFB71
 4122 0b70 01       		.uleb128 0x1
 4123 0b71 9C       		.byte	0x9c
ARM GAS  C:\Users\luvsd\AppData\Local\Temp\cc7qBZw4.s 			page 84


 4124 0b72 870B0000 		.4byte	0xb87
 4125 0b76 1A       		.uleb128 0x1a
 4126 0b77 0A030000 		.4byte	.LASF68
 4127 0b7b 01       		.byte	0x1
 4128 0b7c 2F01     		.2byte	0x12f
 4129 0b7e B8000000 		.4byte	0xb8
 4130 0b82 C4010000 		.4byte	.LLST9
 4131 0b86 00       		.byte	0
 4132 0b87 1B       		.uleb128 0x1b
 4133 0b88 9F040000 		.4byte	.LASF69
 4134 0b8c 01       		.byte	0x1
 4135 0b8d 3401     		.2byte	0x134
 4136 0b8f B8000000 		.4byte	0xb8
 4137 0b93 00000000 		.4byte	.LFB72
 4138 0b97 14000000 		.4byte	.LFE72-.LFB72
 4139 0b9b 01       		.uleb128 0x1
 4140 0b9c 9C       		.byte	0x9c
 4141 0b9d B20B0000 		.4byte	0xbb2
 4142 0ba1 1A       		.uleb128 0x1a
 4143 0ba2 0A030000 		.4byte	.LASF68
 4144 0ba6 01       		.byte	0x1
 4145 0ba7 3401     		.2byte	0x134
 4146 0ba9 B8000000 		.4byte	0xb8
 4147 0bad E5010000 		.4byte	.LLST10
 4148 0bb1 00       		.byte	0
 4149 0bb2 1B       		.uleb128 0x1b
 4150 0bb3 D9060000 		.4byte	.LASF70
 4151 0bb7 01       		.byte	0x1
 4152 0bb8 3901     		.2byte	0x139
 4153 0bba B8000000 		.4byte	0xb8
 4154 0bbe 00000000 		.4byte	.LFB73
 4155 0bc2 14000000 		.4byte	.LFE73-.LFB73
 4156 0bc6 01       		.uleb128 0x1
 4157 0bc7 9C       		.byte	0x9c
 4158 0bc8 DD0B0000 		.4byte	0xbdd
 4159 0bcc 1A       		.uleb128 0x1a
 4160 0bcd 81040000 		.4byte	.LASF71
 4161 0bd1 01       		.byte	0x1
 4162 0bd2 3901     		.2byte	0x139
 4163 0bd4 B8000000 		.4byte	0xb8
 4164 0bd8 06020000 		.4byte	.LLST11
 4165 0bdc 00       		.byte	0
 4166 0bdd 1B       		.uleb128 0x1b
 4167 0bde AF050000 		.4byte	.LASF72
 4168 0be2 01       		.byte	0x1
 4169 0be3 3E01     		.2byte	0x13e
 4170 0be5 B8000000 		.4byte	0xb8
 4171 0be9 00000000 		.4byte	.LFB74
 4172 0bed 14000000 		.4byte	.LFE74-.LFB74
 4173 0bf1 01       		.uleb128 0x1
 4174 0bf2 9C       		.byte	0x9c
 4175 0bf3 080C0000 		.4byte	0xc08
 4176 0bf7 1A       		.uleb128 0x1a
 4177 0bf8 81040000 		.4byte	.LASF71
 4178 0bfc 01       		.byte	0x1
 4179 0bfd 3E01     		.2byte	0x13e
 4180 0bff B8000000 		.4byte	0xb8
ARM GAS  C:\Users\luvsd\AppData\Local\Temp\cc7qBZw4.s 			page 85


 4181 0c03 27020000 		.4byte	.LLST12
 4182 0c07 00       		.byte	0
 4183 0c08 1B       		.uleb128 0x1b
 4184 0c09 56040000 		.4byte	.LASF73
 4185 0c0d 01       		.byte	0x1
 4186 0c0e 4301     		.2byte	0x143
 4187 0c10 B8000000 		.4byte	0xb8
 4188 0c14 00000000 		.4byte	.LFB75
 4189 0c18 14000000 		.4byte	.LFE75-.LFB75
 4190 0c1c 01       		.uleb128 0x1
 4191 0c1d 9C       		.byte	0x9c
 4192 0c1e 330C0000 		.4byte	0xc33
 4193 0c22 1A       		.uleb128 0x1a
 4194 0c23 7C050000 		.4byte	.LASF74
 4195 0c27 01       		.byte	0x1
 4196 0c28 4301     		.2byte	0x143
 4197 0c2a B8000000 		.4byte	0xb8
 4198 0c2e 48020000 		.4byte	.LLST13
 4199 0c32 00       		.byte	0
 4200 0c33 19       		.uleb128 0x19
 4201 0c34 BC000000 		.4byte	.LASF75
 4202 0c38 01       		.byte	0x1
 4203 0c39 4901     		.2byte	0x149
 4204 0c3b 00000000 		.4byte	.LFB76
 4205 0c3f 84000000 		.4byte	.LFE76-.LFB76
 4206 0c43 01       		.uleb128 0x1
 4207 0c44 9C       		.byte	0x9c
 4208 0c45 570D0000 		.4byte	0xd57
 4209 0c49 1A       		.uleb128 0x1a
 4210 0c4a C0020000 		.4byte	.LASF76
 4211 0c4e 01       		.byte	0x1
 4212 0c4f 4901     		.2byte	0x149
 4213 0c51 97000000 		.4byte	0x97
 4214 0c55 69020000 		.4byte	.LLST14
 4215 0c59 1A       		.uleb128 0x1a
 4216 0c5a DC050000 		.4byte	.LASF77
 4217 0c5e 01       		.byte	0x1
 4218 0c5f 4901     		.2byte	0x149
 4219 0c61 B8000000 		.4byte	0xb8
 4220 0c65 8A020000 		.4byte	.LLST15
 4221 0c69 11       		.uleb128 0x11
 4222 0c6a 0E000000 		.4byte	.LVL173
 4223 0c6e 0E160000 		.4byte	0x160e
 4224 0c72 7C0C0000 		.4byte	0xc7c
 4225 0c76 12       		.uleb128 0x12
 4226 0c77 01       		.uleb128 0x1
 4227 0c78 50       		.byte	0x50
 4228 0c79 01       		.uleb128 0x1
 4229 0c7a 31       		.byte	0x31
 4230 0c7b 00       		.byte	0
 4231 0c7c 13       		.uleb128 0x13
 4232 0c7d 24000000 		.4byte	.LVL174
 4233 0c81 70070000 		.4byte	0x770
 4234 0c85 13       		.uleb128 0x13
 4235 0c86 28000000 		.4byte	.LVL175
 4236 0c8a DA030000 		.4byte	0x3da
 4237 0c8e 11       		.uleb128 0x11
ARM GAS  C:\Users\luvsd\AppData\Local\Temp\cc7qBZw4.s 			page 86


 4238 0c8f 2E000000 		.4byte	.LVL176
 4239 0c93 B8150000 		.4byte	0x15b8
 4240 0c97 A10C0000 		.4byte	0xca1
 4241 0c9b 12       		.uleb128 0x12
 4242 0c9c 01       		.uleb128 0x1
 4243 0c9d 50       		.byte	0x50
 4244 0c9e 01       		.uleb128 0x1
 4245 0c9f 30       		.byte	0x30
 4246 0ca0 00       		.byte	0
 4247 0ca1 11       		.uleb128 0x11
 4248 0ca2 34000000 		.4byte	.LVL177
 4249 0ca6 19160000 		.4byte	0x1619
 4250 0caa B40C0000 		.4byte	0xcb4
 4251 0cae 12       		.uleb128 0x12
 4252 0caf 01       		.uleb128 0x1
 4253 0cb0 50       		.byte	0x50
 4254 0cb1 01       		.uleb128 0x1
 4255 0cb2 32       		.byte	0x32
 4256 0cb3 00       		.byte	0
 4257 0cb4 11       		.uleb128 0x11
 4258 0cb5 40000000 		.4byte	.LVL178
 4259 0cb9 19160000 		.4byte	0x1619
 4260 0cbd CA0C0000 		.4byte	0xcca
 4261 0cc1 12       		.uleb128 0x12
 4262 0cc2 01       		.uleb128 0x1
 4263 0cc3 50       		.byte	0x50
 4264 0cc4 04       		.uleb128 0x4
 4265 0cc5 75       		.byte	0x75
 4266 0cc6 00       		.sleb128 0
 4267 0cc7 48       		.byte	0x48
 4268 0cc8 25       		.byte	0x25
 4269 0cc9 00       		.byte	0
 4270 0cca 11       		.uleb128 0x11
 4271 0ccb 48000000 		.4byte	.LVL179
 4272 0ccf 19160000 		.4byte	0x1619
 4273 0cd3 E00C0000 		.4byte	0xce0
 4274 0cd7 12       		.uleb128 0x12
 4275 0cd8 01       		.uleb128 0x1
 4276 0cd9 50       		.byte	0x50
 4277 0cda 04       		.uleb128 0x4
 4278 0cdb 75       		.byte	0x75
 4279 0cdc 00       		.sleb128 0
 4280 0cdd 40       		.byte	0x40
 4281 0cde 25       		.byte	0x25
 4282 0cdf 00       		.byte	0
 4283 0ce0 11       		.uleb128 0x11
 4284 0ce1 50000000 		.4byte	.LVL180
 4285 0ce5 19160000 		.4byte	0x1619
 4286 0ce9 F60C0000 		.4byte	0xcf6
 4287 0ced 12       		.uleb128 0x12
 4288 0cee 01       		.uleb128 0x1
 4289 0cef 50       		.byte	0x50
 4290 0cf0 04       		.uleb128 0x4
 4291 0cf1 75       		.byte	0x75
 4292 0cf2 00       		.sleb128 0
 4293 0cf3 38       		.byte	0x38
 4294 0cf4 25       		.byte	0x25
ARM GAS  C:\Users\luvsd\AppData\Local\Temp\cc7qBZw4.s 			page 87


 4295 0cf5 00       		.byte	0
 4296 0cf6 11       		.uleb128 0x11
 4297 0cf7 56000000 		.4byte	.LVL181
 4298 0cfb 19160000 		.4byte	0x1619
 4299 0cff 0A0D0000 		.4byte	0xd0a
 4300 0d03 12       		.uleb128 0x12
 4301 0d04 01       		.uleb128 0x1
 4302 0d05 50       		.byte	0x50
 4303 0d06 02       		.uleb128 0x2
 4304 0d07 75       		.byte	0x75
 4305 0d08 00       		.sleb128 0
 4306 0d09 00       		.byte	0
 4307 0d0a 11       		.uleb128 0x11
 4308 0d0b 5C000000 		.4byte	.LVL182
 4309 0d0f 19160000 		.4byte	0x1619
 4310 0d13 1E0D0000 		.4byte	0xd1e
 4311 0d17 12       		.uleb128 0x12
 4312 0d18 01       		.uleb128 0x1
 4313 0d19 50       		.byte	0x50
 4314 0d1a 02       		.uleb128 0x2
 4315 0d1b 74       		.byte	0x74
 4316 0d1c 00       		.sleb128 0
 4317 0d1d 00       		.byte	0
 4318 0d1e 13       		.uleb128 0x13
 4319 0d1f 60000000 		.4byte	.LVL183
 4320 0d23 CE150000 		.4byte	0x15ce
 4321 0d27 11       		.uleb128 0x11
 4322 0d28 6A000000 		.4byte	.LVL184
 4323 0d2c D9150000 		.4byte	0x15d9
 4324 0d30 3A0D0000 		.4byte	0xd3a
 4325 0d34 12       		.uleb128 0x12
 4326 0d35 01       		.uleb128 0x1
 4327 0d36 50       		.byte	0x50
 4328 0d37 01       		.uleb128 0x1
 4329 0d38 3A       		.byte	0x3a
 4330 0d39 00       		.byte	0
 4331 0d3a 11       		.uleb128 0x11
 4332 0d3b 70000000 		.4byte	.LVL185
 4333 0d3f B8150000 		.4byte	0x15b8
 4334 0d43 4D0D0000 		.4byte	0xd4d
 4335 0d47 12       		.uleb128 0x12
 4336 0d48 01       		.uleb128 0x1
 4337 0d49 50       		.byte	0x50
 4338 0d4a 01       		.uleb128 0x1
 4339 0d4b 31       		.byte	0x31
 4340 0d4c 00       		.byte	0
 4341 0d4d 13       		.uleb128 0x13
 4342 0d4e 74000000 		.4byte	.LVL186
 4343 0d52 70070000 		.4byte	0x770
 4344 0d56 00       		.byte	0
 4345 0d57 19       		.uleb128 0x19
 4346 0d58 7B000000 		.4byte	.LASF78
 4347 0d5c 01       		.byte	0x1
 4348 0d5d 6001     		.2byte	0x160
 4349 0d5f 00000000 		.4byte	.LFB77
 4350 0d63 B8000000 		.4byte	.LFE77-.LFB77
 4351 0d67 01       		.uleb128 0x1
ARM GAS  C:\Users\luvsd\AppData\Local\Temp\cc7qBZw4.s 			page 88


 4352 0d68 9C       		.byte	0x9c
 4353 0d69 AD0E0000 		.4byte	0xead
 4354 0d6d 1A       		.uleb128 0x1a
 4355 0d6e C0020000 		.4byte	.LASF76
 4356 0d72 01       		.byte	0x1
 4357 0d73 6001     		.2byte	0x160
 4358 0d75 AD0E0000 		.4byte	0xead
 4359 0d79 B6020000 		.4byte	.LLST16
 4360 0d7d 1A       		.uleb128 0x1a
 4361 0d7e 31030000 		.4byte	.LASF79
 4362 0d82 01       		.byte	0x1
 4363 0d83 6001     		.2byte	0x160
 4364 0d85 B8000000 		.4byte	0xb8
 4365 0d89 EA020000 		.4byte	.LLST17
 4366 0d8d 1A       		.uleb128 0x1a
 4367 0d8e 6E000000 		.4byte	.LASF80
 4368 0d92 01       		.byte	0x1
 4369 0d93 6001     		.2byte	0x160
 4370 0d95 B8000000 		.4byte	0xb8
 4371 0d99 32030000 		.4byte	.LLST18
 4372 0d9d 1A       		.uleb128 0x1a
 4373 0d9e E4010000 		.4byte	.LASF81
 4374 0da2 01       		.byte	0x1
 4375 0da3 6001     		.2byte	0x160
 4376 0da5 B8000000 		.4byte	0xb8
 4377 0da9 5E030000 		.4byte	.LLST19
 4378 0dad 1C       		.uleb128 0x1c
 4379 0dae 6900     		.ascii	"i\000"
 4380 0db0 01       		.byte	0x1
 4381 0db1 6201     		.2byte	0x162
 4382 0db3 B8000000 		.4byte	0xb8
 4383 0db7 7C030000 		.4byte	.LLST20
 4384 0dbb 11       		.uleb128 0x11
 4385 0dbc 12000000 		.4byte	.LVL190
 4386 0dc0 0E160000 		.4byte	0x160e
 4387 0dc4 CE0D0000 		.4byte	0xdce
 4388 0dc8 12       		.uleb128 0x12
 4389 0dc9 01       		.uleb128 0x1
 4390 0dca 50       		.byte	0x50
 4391 0dcb 01       		.uleb128 0x1
 4392 0dcc 31       		.byte	0x31
 4393 0dcd 00       		.byte	0
 4394 0dce 13       		.uleb128 0x13
 4395 0dcf 3E000000 		.4byte	.LVL193
 4396 0dd3 70070000 		.4byte	0x770
 4397 0dd7 13       		.uleb128 0x13
 4398 0dd8 42000000 		.4byte	.LVL194
 4399 0ddc DA030000 		.4byte	0x3da
 4400 0de0 11       		.uleb128 0x11
 4401 0de1 48000000 		.4byte	.LVL195
 4402 0de5 B8150000 		.4byte	0x15b8
 4403 0de9 F30D0000 		.4byte	0xdf3
 4404 0ded 12       		.uleb128 0x12
 4405 0dee 01       		.uleb128 0x1
 4406 0def 50       		.byte	0x50
 4407 0df0 01       		.uleb128 0x1
 4408 0df1 30       		.byte	0x30
ARM GAS  C:\Users\luvsd\AppData\Local\Temp\cc7qBZw4.s 			page 89


 4409 0df2 00       		.byte	0
 4410 0df3 11       		.uleb128 0x11
 4411 0df4 4E000000 		.4byte	.LVL196
 4412 0df8 19160000 		.4byte	0x1619
 4413 0dfc 060E0000 		.4byte	0xe06
 4414 0e00 12       		.uleb128 0x12
 4415 0e01 01       		.uleb128 0x1
 4416 0e02 50       		.byte	0x50
 4417 0e03 01       		.uleb128 0x1
 4418 0e04 32       		.byte	0x32
 4419 0e05 00       		.byte	0
 4420 0e06 11       		.uleb128 0x11
 4421 0e07 62000000 		.4byte	.LVL199
 4422 0e0b 19160000 		.4byte	0x1619
 4423 0e0f 1C0E0000 		.4byte	0xe1c
 4424 0e13 12       		.uleb128 0x12
 4425 0e14 01       		.uleb128 0x1
 4426 0e15 50       		.byte	0x50
 4427 0e16 04       		.uleb128 0x4
 4428 0e17 74       		.byte	0x74
 4429 0e18 00       		.sleb128 0
 4430 0e19 48       		.byte	0x48
 4431 0e1a 25       		.byte	0x25
 4432 0e1b 00       		.byte	0
 4433 0e1c 11       		.uleb128 0x11
 4434 0e1d 6A000000 		.4byte	.LVL200
 4435 0e21 19160000 		.4byte	0x1619
 4436 0e25 320E0000 		.4byte	0xe32
 4437 0e29 12       		.uleb128 0x12
 4438 0e2a 01       		.uleb128 0x1
 4439 0e2b 50       		.byte	0x50
 4440 0e2c 04       		.uleb128 0x4
 4441 0e2d 74       		.byte	0x74
 4442 0e2e 00       		.sleb128 0
 4443 0e2f 40       		.byte	0x40
 4444 0e30 25       		.byte	0x25
 4445 0e31 00       		.byte	0
 4446 0e32 11       		.uleb128 0x11
 4447 0e33 72000000 		.4byte	.LVL201
 4448 0e37 19160000 		.4byte	0x1619
 4449 0e3b 480E0000 		.4byte	0xe48
 4450 0e3f 12       		.uleb128 0x12
 4451 0e40 01       		.uleb128 0x1
 4452 0e41 50       		.byte	0x50
 4453 0e42 04       		.uleb128 0x4
 4454 0e43 74       		.byte	0x74
 4455 0e44 00       		.sleb128 0
 4456 0e45 38       		.byte	0x38
 4457 0e46 25       		.byte	0x25
 4458 0e47 00       		.byte	0
 4459 0e48 11       		.uleb128 0x11
 4460 0e49 78000000 		.4byte	.LVL202
 4461 0e4d 19160000 		.4byte	0x1619
 4462 0e51 5C0E0000 		.4byte	0xe5c
 4463 0e55 12       		.uleb128 0x12
 4464 0e56 01       		.uleb128 0x1
 4465 0e57 50       		.byte	0x50
ARM GAS  C:\Users\luvsd\AppData\Local\Temp\cc7qBZw4.s 			page 90


 4466 0e58 02       		.uleb128 0x2
 4467 0e59 74       		.byte	0x74
 4468 0e5a 00       		.sleb128 0
 4469 0e5b 00       		.byte	0
 4470 0e5c 13       		.uleb128 0x13
 4471 0e5d 84000000 		.4byte	.LVL206
 4472 0e61 19160000 		.4byte	0x1619
 4473 0e65 13       		.uleb128 0x13
 4474 0e66 90000000 		.4byte	.LVL209
 4475 0e6a CE150000 		.4byte	0x15ce
 4476 0e6e 11       		.uleb128 0x11
 4477 0e6f 9A000000 		.4byte	.LVL210
 4478 0e73 D9150000 		.4byte	0x15d9
 4479 0e77 810E0000 		.4byte	0xe81
 4480 0e7b 12       		.uleb128 0x12
 4481 0e7c 01       		.uleb128 0x1
 4482 0e7d 50       		.byte	0x50
 4483 0e7e 01       		.uleb128 0x1
 4484 0e7f 3A       		.byte	0x3a
 4485 0e80 00       		.byte	0
 4486 0e81 11       		.uleb128 0x11
 4487 0e82 A0000000 		.4byte	.LVL211
 4488 0e86 B8150000 		.4byte	0x15b8
 4489 0e8a 940E0000 		.4byte	0xe94
 4490 0e8e 12       		.uleb128 0x12
 4491 0e8f 01       		.uleb128 0x1
 4492 0e90 50       		.byte	0x50
 4493 0e91 01       		.uleb128 0x1
 4494 0e92 31       		.byte	0x31
 4495 0e93 00       		.byte	0
 4496 0e94 13       		.uleb128 0x13
 4497 0e95 A4000000 		.4byte	.LVL212
 4498 0e99 70070000 		.4byte	0x770
 4499 0e9d 16       		.uleb128 0x16
 4500 0e9e AA000000 		.4byte	.LVL213
 4501 0ea2 0E160000 		.4byte	0x160e
 4502 0ea6 12       		.uleb128 0x12
 4503 0ea7 01       		.uleb128 0x1
 4504 0ea8 50       		.byte	0x50
 4505 0ea9 01       		.uleb128 0x1
 4506 0eaa 31       		.byte	0x31
 4507 0eab 00       		.byte	0
 4508 0eac 00       		.byte	0
 4509 0ead 1D       		.uleb128 0x1d
 4510 0eae 04       		.byte	0x4
 4511 0eaf 97000000 		.4byte	0x97
 4512 0eb3 1E       		.uleb128 0x1e
 4513 0eb4 88030000 		.4byte	.LASF82
 4514 0eb8 01       		.byte	0x1
 4515 0eb9 8101     		.2byte	0x181
 4516 0ebb 00000000 		.4byte	.LFB78
 4517 0ebf 78000000 		.4byte	.LFE78-.LFB78
 4518 0ec3 01       		.uleb128 0x1
 4519 0ec4 9C       		.byte	0x9c
 4520 0ec5 710F0000 		.4byte	0xf71
 4521 0ec9 1A       		.uleb128 0x1a
 4522 0eca C0020000 		.4byte	.LASF76
ARM GAS  C:\Users\luvsd\AppData\Local\Temp\cc7qBZw4.s 			page 91


 4523 0ece 01       		.byte	0x1
 4524 0ecf 8101     		.2byte	0x181
 4525 0ed1 AD0E0000 		.4byte	0xead
 4526 0ed5 9B030000 		.4byte	.LLST21
 4527 0ed9 1A       		.uleb128 0x1a
 4528 0eda B9040000 		.4byte	.LASF83
 4529 0ede 01       		.byte	0x1
 4530 0edf 8101     		.2byte	0x181
 4531 0ee1 B8000000 		.4byte	0xb8
 4532 0ee5 B9030000 		.4byte	.LLST22
 4533 0ee9 1A       		.uleb128 0x1a
 4534 0eea 6E000000 		.4byte	.LASF80
 4535 0eee 01       		.byte	0x1
 4536 0eef 8101     		.2byte	0x181
 4537 0ef1 B8000000 		.4byte	0xb8
 4538 0ef5 DA030000 		.4byte	.LLST23
 4539 0ef9 1A       		.uleb128 0x1a
 4540 0efa 5A020000 		.4byte	.LASF84
 4541 0efe 01       		.byte	0x1
 4542 0eff 8101     		.2byte	0x181
 4543 0f01 B8000000 		.4byte	0xb8
 4544 0f05 06040000 		.4byte	.LLST24
 4545 0f09 1F       		.uleb128 0x1f
 4546 0f0a 9B060000 		.4byte	.LASF85
 4547 0f0e 01       		.byte	0x1
 4548 0f0f 8901     		.2byte	0x189
 4549 0f11 B8000000 		.4byte	0xb8
 4550 0f15 32040000 		.4byte	.LLST25
 4551 0f19 1F       		.uleb128 0x1f
 4552 0f1a 42000000 		.4byte	.LASF86
 4553 0f1e 01       		.byte	0x1
 4554 0f1f 8A01     		.2byte	0x18a
 4555 0f21 AD000000 		.4byte	0xad
 4556 0f25 45040000 		.4byte	.LLST26
 4557 0f29 1F       		.uleb128 0x1f
 4558 0f2a DF040000 		.4byte	.LASF87
 4559 0f2e 01       		.byte	0x1
 4560 0f2f 8B01     		.2byte	0x18b
 4561 0f31 B8000000 		.4byte	0xb8
 4562 0f35 63040000 		.4byte	.LLST27
 4563 0f39 11       		.uleb128 0x11
 4564 0f3a 32000000 		.4byte	.LVL226
 4565 0f3e DD0B0000 		.4byte	0xbdd
 4566 0f42 4E0F0000 		.4byte	0xf4e
 4567 0f46 12       		.uleb128 0x12
 4568 0f47 01       		.uleb128 0x1
 4569 0f48 50       		.byte	0x50
 4570 0f49 03       		.uleb128 0x3
 4571 0f4a F3       		.byte	0xf3
 4572 0f4b 01       		.uleb128 0x1
 4573 0f4c 51       		.byte	0x51
 4574 0f4d 00       		.byte	0
 4575 0f4e 16       		.uleb128 0x16
 4576 0f4f 5A000000 		.4byte	.LVL231
 4577 0f53 570D0000 		.4byte	0xd57
 4578 0f57 12       		.uleb128 0x12
 4579 0f58 01       		.uleb128 0x1
ARM GAS  C:\Users\luvsd\AppData\Local\Temp\cc7qBZw4.s 			page 92


 4580 0f59 50       		.byte	0x50
 4581 0f5a 02       		.uleb128 0x2
 4582 0f5b 77       		.byte	0x77
 4583 0f5c 00       		.sleb128 0
 4584 0f5d 12       		.uleb128 0x12
 4585 0f5e 01       		.uleb128 0x1
 4586 0f5f 51       		.byte	0x51
 4587 0f60 02       		.uleb128 0x2
 4588 0f61 76       		.byte	0x76
 4589 0f62 00       		.sleb128 0
 4590 0f63 12       		.uleb128 0x12
 4591 0f64 01       		.uleb128 0x1
 4592 0f65 52       		.byte	0x52
 4593 0f66 02       		.uleb128 0x2
 4594 0f67 75       		.byte	0x75
 4595 0f68 00       		.sleb128 0
 4596 0f69 12       		.uleb128 0x12
 4597 0f6a 01       		.uleb128 0x1
 4598 0f6b 53       		.byte	0x53
 4599 0f6c 02       		.uleb128 0x2
 4600 0f6d 74       		.byte	0x74
 4601 0f6e 00       		.sleb128 0
 4602 0f6f 00       		.byte	0
 4603 0f70 00       		.byte	0
 4604 0f71 1E       		.uleb128 0x1e
 4605 0f72 08070000 		.4byte	.LASF88
 4606 0f76 01       		.byte	0x1
 4607 0f77 9C01     		.2byte	0x19c
 4608 0f79 00000000 		.4byte	.LFB79
 4609 0f7d 78000000 		.4byte	.LFE79-.LFB79
 4610 0f81 01       		.uleb128 0x1
 4611 0f82 9C       		.byte	0x9c
 4612 0f83 2F100000 		.4byte	0x102f
 4613 0f87 1A       		.uleb128 0x1a
 4614 0f88 C0020000 		.4byte	.LASF76
 4615 0f8c 01       		.byte	0x1
 4616 0f8d 9C01     		.2byte	0x19c
 4617 0f8f AD0E0000 		.4byte	0xead
 4618 0f93 82040000 		.4byte	.LLST28
 4619 0f97 1A       		.uleb128 0x1a
 4620 0f98 CD000000 		.4byte	.LASF89
 4621 0f9c 01       		.byte	0x1
 4622 0f9d 9C01     		.2byte	0x19c
 4623 0f9f B8000000 		.4byte	0xb8
 4624 0fa3 A0040000 		.4byte	.LLST29
 4625 0fa7 1A       		.uleb128 0x1a
 4626 0fa8 6E000000 		.4byte	.LASF80
 4627 0fac 01       		.byte	0x1
 4628 0fad 9C01     		.2byte	0x19c
 4629 0faf B8000000 		.4byte	0xb8
 4630 0fb3 C1040000 		.4byte	.LLST30
 4631 0fb7 1A       		.uleb128 0x1a
 4632 0fb8 27010000 		.4byte	.LASF90
 4633 0fbc 01       		.byte	0x1
 4634 0fbd 9C01     		.2byte	0x19c
 4635 0fbf B8000000 		.4byte	0xb8
 4636 0fc3 ED040000 		.4byte	.LLST31
ARM GAS  C:\Users\luvsd\AppData\Local\Temp\cc7qBZw4.s 			page 93


 4637 0fc7 1F       		.uleb128 0x1f
 4638 0fc8 9B060000 		.4byte	.LASF85
 4639 0fcc 01       		.byte	0x1
 4640 0fcd A401     		.2byte	0x1a4
 4641 0fcf B8000000 		.4byte	0xb8
 4642 0fd3 19050000 		.4byte	.LLST32
 4643 0fd7 1F       		.uleb128 0x1f
 4644 0fd8 42000000 		.4byte	.LASF86
 4645 0fdc 01       		.byte	0x1
 4646 0fdd A501     		.2byte	0x1a5
 4647 0fdf AD000000 		.4byte	0xad
 4648 0fe3 2C050000 		.4byte	.LLST33
 4649 0fe7 1F       		.uleb128 0x1f
 4650 0fe8 DF040000 		.4byte	.LASF87
 4651 0fec 01       		.byte	0x1
 4652 0fed A601     		.2byte	0x1a6
 4653 0fef B8000000 		.4byte	0xb8
 4654 0ff3 4A050000 		.4byte	.LLST34
 4655 0ff7 11       		.uleb128 0x11
 4656 0ff8 32000000 		.4byte	.LVL246
 4657 0ffc 080C0000 		.4byte	0xc08
 4658 1000 0C100000 		.4byte	0x100c
 4659 1004 12       		.uleb128 0x12
 4660 1005 01       		.uleb128 0x1
 4661 1006 50       		.byte	0x50
 4662 1007 03       		.uleb128 0x3
 4663 1008 F3       		.byte	0xf3
 4664 1009 01       		.uleb128 0x1
 4665 100a 51       		.byte	0x51
 4666 100b 00       		.byte	0
 4667 100c 16       		.uleb128 0x16
 4668 100d 5A000000 		.4byte	.LVL251
 4669 1011 570D0000 		.4byte	0xd57
 4670 1015 12       		.uleb128 0x12
 4671 1016 01       		.uleb128 0x1
 4672 1017 50       		.byte	0x50
 4673 1018 02       		.uleb128 0x2
 4674 1019 77       		.byte	0x77
 4675 101a 00       		.sleb128 0
 4676 101b 12       		.uleb128 0x12
 4677 101c 01       		.uleb128 0x1
 4678 101d 51       		.byte	0x51
 4679 101e 02       		.uleb128 0x2
 4680 101f 76       		.byte	0x76
 4681 1020 00       		.sleb128 0
 4682 1021 12       		.uleb128 0x12
 4683 1022 01       		.uleb128 0x1
 4684 1023 52       		.byte	0x52
 4685 1024 02       		.uleb128 0x2
 4686 1025 75       		.byte	0x75
 4687 1026 00       		.sleb128 0
 4688 1027 12       		.uleb128 0x12
 4689 1028 01       		.uleb128 0x1
 4690 1029 53       		.byte	0x53
 4691 102a 02       		.uleb128 0x2
 4692 102b 74       		.byte	0x74
 4693 102c 00       		.sleb128 0
ARM GAS  C:\Users\luvsd\AppData\Local\Temp\cc7qBZw4.s 			page 94


 4694 102d 00       		.byte	0
 4695 102e 00       		.byte	0
 4696 102f 19       		.uleb128 0x19
 4697 1030 8F040000 		.4byte	.LASF91
 4698 1034 01       		.byte	0x1
 4699 1035 B701     		.2byte	0x1b7
 4700 1037 00000000 		.4byte	.LFB80
 4701 103b 98000000 		.4byte	.LFE80-.LFB80
 4702 103f 01       		.uleb128 0x1
 4703 1040 9C       		.byte	0x9c
 4704 1041 6F110000 		.4byte	0x116f
 4705 1045 1A       		.uleb128 0x1a
 4706 1046 C0020000 		.4byte	.LASF76
 4707 104a 01       		.byte	0x1
 4708 104b B701     		.2byte	0x1b7
 4709 104d AD0E0000 		.4byte	0xead
 4710 1051 69050000 		.4byte	.LLST35
 4711 1055 1A       		.uleb128 0x1a
 4712 1056 6E050000 		.4byte	.LASF92
 4713 105a 01       		.byte	0x1
 4714 105b B701     		.2byte	0x1b7
 4715 105d B8000000 		.4byte	0xb8
 4716 1061 95050000 		.4byte	.LLST36
 4717 1065 11       		.uleb128 0x11
 4718 1066 0E000000 		.4byte	.LVL259
 4719 106a 0E160000 		.4byte	0x160e
 4720 106e 78100000 		.4byte	0x1078
 4721 1072 12       		.uleb128 0x12
 4722 1073 01       		.uleb128 0x1
 4723 1074 50       		.byte	0x50
 4724 1075 01       		.uleb128 0x1
 4725 1076 31       		.byte	0x31
 4726 1077 00       		.byte	0
 4727 1078 11       		.uleb128 0x11
 4728 1079 26000000 		.4byte	.LVL260
 4729 107d B8150000 		.4byte	0x15b8
 4730 1081 8B100000 		.4byte	0x108b
 4731 1085 12       		.uleb128 0x12
 4732 1086 01       		.uleb128 0x1
 4733 1087 50       		.byte	0x50
 4734 1088 01       		.uleb128 0x1
 4735 1089 30       		.byte	0x30
 4736 108a 00       		.byte	0
 4737 108b 11       		.uleb128 0x11
 4738 108c 2C000000 		.4byte	.LVL261
 4739 1090 19160000 		.4byte	0x1619
 4740 1094 9E100000 		.4byte	0x109e
 4741 1098 12       		.uleb128 0x12
 4742 1099 01       		.uleb128 0x1
 4743 109a 50       		.byte	0x50
 4744 109b 01       		.uleb128 0x1
 4745 109c 3B       		.byte	0x3b
 4746 109d 00       		.byte	0
 4747 109e 11       		.uleb128 0x11
 4748 109f 38000000 		.4byte	.LVL262
 4749 10a3 19160000 		.4byte	0x1619
 4750 10a7 B4100000 		.4byte	0x10b4
ARM GAS  C:\Users\luvsd\AppData\Local\Temp\cc7qBZw4.s 			page 95


 4751 10ab 12       		.uleb128 0x12
 4752 10ac 01       		.uleb128 0x1
 4753 10ad 50       		.byte	0x50
 4754 10ae 04       		.uleb128 0x4
 4755 10af 75       		.byte	0x75
 4756 10b0 00       		.sleb128 0
 4757 10b1 48       		.byte	0x48
 4758 10b2 25       		.byte	0x25
 4759 10b3 00       		.byte	0
 4760 10b4 11       		.uleb128 0x11
 4761 10b5 40000000 		.4byte	.LVL263
 4762 10b9 19160000 		.4byte	0x1619
 4763 10bd CA100000 		.4byte	0x10ca
 4764 10c1 12       		.uleb128 0x12
 4765 10c2 01       		.uleb128 0x1
 4766 10c3 50       		.byte	0x50
 4767 10c4 04       		.uleb128 0x4
 4768 10c5 75       		.byte	0x75
 4769 10c6 00       		.sleb128 0
 4770 10c7 40       		.byte	0x40
 4771 10c8 25       		.byte	0x25
 4772 10c9 00       		.byte	0
 4773 10ca 11       		.uleb128 0x11
 4774 10cb 48000000 		.4byte	.LVL264
 4775 10cf 19160000 		.4byte	0x1619
 4776 10d3 E0100000 		.4byte	0x10e0
 4777 10d7 12       		.uleb128 0x12
 4778 10d8 01       		.uleb128 0x1
 4779 10d9 50       		.byte	0x50
 4780 10da 04       		.uleb128 0x4
 4781 10db 75       		.byte	0x75
 4782 10dc 00       		.sleb128 0
 4783 10dd 38       		.byte	0x38
 4784 10de 25       		.byte	0x25
 4785 10df 00       		.byte	0
 4786 10e0 11       		.uleb128 0x11
 4787 10e1 4E000000 		.4byte	.LVL265
 4788 10e5 19160000 		.4byte	0x1619
 4789 10e9 F4100000 		.4byte	0x10f4
 4790 10ed 12       		.uleb128 0x12
 4791 10ee 01       		.uleb128 0x1
 4792 10ef 50       		.byte	0x50
 4793 10f0 02       		.uleb128 0x2
 4794 10f1 75       		.byte	0x75
 4795 10f2 00       		.sleb128 0
 4796 10f3 00       		.byte	0
 4797 10f4 11       		.uleb128 0x11
 4798 10f5 54000000 		.4byte	.LVL266
 4799 10f9 19160000 		.4byte	0x1619
 4800 10fd 07110000 		.4byte	0x1107
 4801 1101 12       		.uleb128 0x12
 4802 1102 01       		.uleb128 0x1
 4803 1103 50       		.byte	0x50
 4804 1104 01       		.uleb128 0x1
 4805 1105 30       		.byte	0x30
 4806 1106 00       		.byte	0
 4807 1107 13       		.uleb128 0x13
ARM GAS  C:\Users\luvsd\AppData\Local\Temp\cc7qBZw4.s 			page 96


 4808 1108 58000000 		.4byte	.LVL267
 4809 110c CE150000 		.4byte	0x15ce
 4810 1110 13       		.uleb128 0x13
 4811 1111 60000000 		.4byte	.LVL268
 4812 1115 03160000 		.4byte	0x1603
 4813 1119 11       		.uleb128 0x11
 4814 111a 66000000 		.4byte	.LVL269
 4815 111e 19160000 		.4byte	0x1619
 4816 1122 2D110000 		.4byte	0x112d
 4817 1126 12       		.uleb128 0x12
 4818 1127 01       		.uleb128 0x1
 4819 1128 50       		.byte	0x50
 4820 1129 02       		.uleb128 0x2
 4821 112a 09       		.byte	0x9
 4822 112b A5       		.byte	0xa5
 4823 112c 00       		.byte	0
 4824 112d 13       		.uleb128 0x13
 4825 112e 6A000000 		.4byte	.LVL270
 4826 1132 CE150000 		.4byte	0x15ce
 4827 1136 11       		.uleb128 0x11
 4828 1137 74000000 		.4byte	.LVL271
 4829 113b D9150000 		.4byte	0x15d9
 4830 113f 49110000 		.4byte	0x1149
 4831 1143 12       		.uleb128 0x12
 4832 1144 01       		.uleb128 0x1
 4833 1145 50       		.byte	0x50
 4834 1146 01       		.uleb128 0x1
 4835 1147 3A       		.byte	0x3a
 4836 1148 00       		.byte	0
 4837 1149 11       		.uleb128 0x11
 4838 114a 7A000000 		.4byte	.LVL272
 4839 114e B8150000 		.4byte	0x15b8
 4840 1152 5C110000 		.4byte	0x115c
 4841 1156 12       		.uleb128 0x12
 4842 1157 01       		.uleb128 0x1
 4843 1158 50       		.byte	0x50
 4844 1159 01       		.uleb128 0x1
 4845 115a 31       		.byte	0x31
 4846 115b 00       		.byte	0
 4847 115c 13       		.uleb128 0x13
 4848 115d 80000000 		.4byte	.LVL273
 4849 1161 E4150000 		.4byte	0x15e4
 4850 1165 13       		.uleb128 0x13
 4851 1166 86000000 		.4byte	.LVL274
 4852 116a EF150000 		.4byte	0x15ef
 4853 116e 00       		.byte	0
 4854 116f 19       		.uleb128 0x19
 4855 1170 9B020000 		.4byte	.LASF93
 4856 1174 01       		.byte	0x1
 4857 1175 D101     		.2byte	0x1d1
 4858 1177 00000000 		.4byte	.LFB81
 4859 117b A4000000 		.4byte	.LFE81-.LFB81
 4860 117f 01       		.uleb128 0x1
 4861 1180 9C       		.byte	0x9c
 4862 1181 D3120000 		.4byte	0x12d3
 4863 1185 1A       		.uleb128 0x1a
 4864 1186 C0020000 		.4byte	.LASF76
ARM GAS  C:\Users\luvsd\AppData\Local\Temp\cc7qBZw4.s 			page 97


 4865 118a 01       		.byte	0x1
 4866 118b D101     		.2byte	0x1d1
 4867 118d AD0E0000 		.4byte	0xead
 4868 1191 C1050000 		.4byte	.LLST37
 4869 1195 1A       		.uleb128 0x1a
 4870 1196 2E070000 		.4byte	.LASF94
 4871 119a 01       		.byte	0x1
 4872 119b D101     		.2byte	0x1d1
 4873 119d B8000000 		.4byte	0xb8
 4874 11a1 F5050000 		.4byte	.LLST38
 4875 11a5 1A       		.uleb128 0x1a
 4876 11a6 EB040000 		.4byte	.LASF95
 4877 11aa 01       		.byte	0x1
 4878 11ab D101     		.2byte	0x1d1
 4879 11ad B8000000 		.4byte	0xb8
 4880 11b1 21060000 		.4byte	.LLST39
 4881 11b5 1C       		.uleb128 0x1c
 4882 11b6 6900     		.ascii	"i\000"
 4883 11b8 01       		.byte	0x1
 4884 11b9 D301     		.2byte	0x1d3
 4885 11bb B8000000 		.4byte	0xb8
 4886 11bf 4D060000 		.4byte	.LLST40
 4887 11c3 11       		.uleb128 0x11
 4888 11c4 10000000 		.4byte	.LVL279
 4889 11c8 0E160000 		.4byte	0x160e
 4890 11cc D6110000 		.4byte	0x11d6
 4891 11d0 12       		.uleb128 0x12
 4892 11d1 01       		.uleb128 0x1
 4893 11d2 50       		.byte	0x50
 4894 11d3 01       		.uleb128 0x1
 4895 11d4 31       		.byte	0x31
 4896 11d5 00       		.byte	0
 4897 11d6 11       		.uleb128 0x11
 4898 11d7 28000000 		.4byte	.LVL280
 4899 11db B8150000 		.4byte	0x15b8
 4900 11df E9110000 		.4byte	0x11e9
 4901 11e3 12       		.uleb128 0x12
 4902 11e4 01       		.uleb128 0x1
 4903 11e5 50       		.byte	0x50
 4904 11e6 01       		.uleb128 0x1
 4905 11e7 30       		.byte	0x30
 4906 11e8 00       		.byte	0
 4907 11e9 11       		.uleb128 0x11
 4908 11ea 2E000000 		.4byte	.LVL281
 4909 11ee 19160000 		.4byte	0x1619
 4910 11f2 FC110000 		.4byte	0x11fc
 4911 11f6 12       		.uleb128 0x12
 4912 11f7 01       		.uleb128 0x1
 4913 11f8 50       		.byte	0x50
 4914 11f9 01       		.uleb128 0x1
 4915 11fa 3B       		.byte	0x3b
 4916 11fb 00       		.byte	0
 4917 11fc 11       		.uleb128 0x11
 4918 11fd 3A000000 		.4byte	.LVL282
 4919 1201 19160000 		.4byte	0x1619
 4920 1205 12120000 		.4byte	0x1212
 4921 1209 12       		.uleb128 0x12
ARM GAS  C:\Users\luvsd\AppData\Local\Temp\cc7qBZw4.s 			page 98


 4922 120a 01       		.uleb128 0x1
 4923 120b 50       		.byte	0x50
 4924 120c 04       		.uleb128 0x4
 4925 120d 74       		.byte	0x74
 4926 120e 00       		.sleb128 0
 4927 120f 48       		.byte	0x48
 4928 1210 25       		.byte	0x25
 4929 1211 00       		.byte	0
 4930 1212 11       		.uleb128 0x11
 4931 1213 42000000 		.4byte	.LVL283
 4932 1217 19160000 		.4byte	0x1619
 4933 121b 28120000 		.4byte	0x1228
 4934 121f 12       		.uleb128 0x12
 4935 1220 01       		.uleb128 0x1
 4936 1221 50       		.byte	0x50
 4937 1222 04       		.uleb128 0x4
 4938 1223 74       		.byte	0x74
 4939 1224 00       		.sleb128 0
 4940 1225 40       		.byte	0x40
 4941 1226 25       		.byte	0x25
 4942 1227 00       		.byte	0
 4943 1228 11       		.uleb128 0x11
 4944 1229 4A000000 		.4byte	.LVL284
 4945 122d 19160000 		.4byte	0x1619
 4946 1231 3E120000 		.4byte	0x123e
 4947 1235 12       		.uleb128 0x12
 4948 1236 01       		.uleb128 0x1
 4949 1237 50       		.byte	0x50
 4950 1238 04       		.uleb128 0x4
 4951 1239 74       		.byte	0x74
 4952 123a 00       		.sleb128 0
 4953 123b 38       		.byte	0x38
 4954 123c 25       		.byte	0x25
 4955 123d 00       		.byte	0
 4956 123e 11       		.uleb128 0x11
 4957 123f 50000000 		.4byte	.LVL285
 4958 1243 19160000 		.4byte	0x1619
 4959 1247 52120000 		.4byte	0x1252
 4960 124b 12       		.uleb128 0x12
 4961 124c 01       		.uleb128 0x1
 4962 124d 50       		.byte	0x50
 4963 124e 02       		.uleb128 0x2
 4964 124f 74       		.byte	0x74
 4965 1250 00       		.sleb128 0
 4966 1251 00       		.byte	0
 4967 1252 11       		.uleb128 0x11
 4968 1253 56000000 		.4byte	.LVL286
 4969 1257 19160000 		.4byte	0x1619
 4970 125b 65120000 		.4byte	0x1265
 4971 125f 12       		.uleb128 0x12
 4972 1260 01       		.uleb128 0x1
 4973 1261 50       		.byte	0x50
 4974 1262 01       		.uleb128 0x1
 4975 1263 30       		.byte	0x30
 4976 1264 00       		.byte	0
 4977 1265 13       		.uleb128 0x13
 4978 1266 5A000000 		.4byte	.LVL287
ARM GAS  C:\Users\luvsd\AppData\Local\Temp\cc7qBZw4.s 			page 99


 4979 126a CE150000 		.4byte	0x15ce
 4980 126e 11       		.uleb128 0x11
 4981 126f 64000000 		.4byte	.LVL288
 4982 1273 D9150000 		.4byte	0x15d9
 4983 1277 81120000 		.4byte	0x1281
 4984 127b 12       		.uleb128 0x12
 4985 127c 01       		.uleb128 0x1
 4986 127d 50       		.byte	0x50
 4987 127e 01       		.uleb128 0x1
 4988 127f 3A       		.byte	0x3a
 4989 1280 00       		.byte	0
 4990 1281 13       		.uleb128 0x13
 4991 1282 68000000 		.4byte	.LVL289
 4992 1286 03160000 		.4byte	0x1603
 4993 128a 11       		.uleb128 0x11
 4994 128b 72000000 		.4byte	.LVL292
 4995 128f 19160000 		.4byte	0x1619
 4996 1293 9E120000 		.4byte	0x129e
 4997 1297 12       		.uleb128 0x12
 4998 1298 01       		.uleb128 0x1
 4999 1299 50       		.byte	0x50
 5000 129a 02       		.uleb128 0x2
 5001 129b 09       		.byte	0x9
 5002 129c A5       		.byte	0xa5
 5003 129d 00       		.byte	0
 5004 129e 13       		.uleb128 0x13
 5005 129f 76000000 		.4byte	.LVL293
 5006 12a3 CE150000 		.4byte	0x15ce
 5007 12a7 13       		.uleb128 0x13
 5008 12a8 80000000 		.4byte	.LVL295
 5009 12ac E4150000 		.4byte	0x15e4
 5010 12b0 11       		.uleb128 0x11
 5011 12b1 90000000 		.4byte	.LVL298
 5012 12b5 D9150000 		.4byte	0x15d9
 5013 12b9 C3120000 		.4byte	0x12c3
 5014 12bd 12       		.uleb128 0x12
 5015 12be 01       		.uleb128 0x1
 5016 12bf 50       		.byte	0x50
 5017 12c0 01       		.uleb128 0x1
 5018 12c1 3A       		.byte	0x3a
 5019 12c2 00       		.byte	0
 5020 12c3 16       		.uleb128 0x16
 5021 12c4 96000000 		.4byte	.LVL299
 5022 12c8 B8150000 		.4byte	0x15b8
 5023 12cc 12       		.uleb128 0x12
 5024 12cd 01       		.uleb128 0x1
 5025 12ce 50       		.byte	0x50
 5026 12cf 01       		.uleb128 0x1
 5027 12d0 31       		.byte	0x31
 5028 12d1 00       		.byte	0
 5029 12d2 00       		.byte	0
 5030 12d3 19       		.uleb128 0x19
 5031 12d4 37070000 		.4byte	.LASF96
 5032 12d8 01       		.byte	0x1
 5033 12d9 EE01     		.2byte	0x1ee
 5034 12db 00000000 		.4byte	.LFB82
 5035 12df B4000000 		.4byte	.LFE82-.LFB82
ARM GAS  C:\Users\luvsd\AppData\Local\Temp\cc7qBZw4.s 			page 100


 5036 12e3 01       		.uleb128 0x1
 5037 12e4 9C       		.byte	0x9c
 5038 12e5 22140000 		.4byte	0x1422
 5039 12e9 1A       		.uleb128 0x1a
 5040 12ea C0020000 		.4byte	.LASF76
 5041 12ee 01       		.byte	0x1
 5042 12ef EE01     		.2byte	0x1ee
 5043 12f1 AD0E0000 		.4byte	0xead
 5044 12f5 6C060000 		.4byte	.LLST41
 5045 12f9 1A       		.uleb128 0x1a
 5046 12fa 31030000 		.4byte	.LASF79
 5047 12fe 01       		.byte	0x1
 5048 12ff EE01     		.2byte	0x1ee
 5049 1301 B8000000 		.4byte	0xb8
 5050 1305 A0060000 		.4byte	.LLST42
 5051 1309 1A       		.uleb128 0x1a
 5052 130a 6E000000 		.4byte	.LASF80
 5053 130e 01       		.byte	0x1
 5054 130f EE01     		.2byte	0x1ee
 5055 1311 B8000000 		.4byte	0xb8
 5056 1315 C9060000 		.4byte	.LLST43
 5057 1319 1A       		.uleb128 0x1a
 5058 131a 51050000 		.4byte	.LASF97
 5059 131e 01       		.byte	0x1
 5060 131f EE01     		.2byte	0x1ee
 5061 1321 B8000000 		.4byte	0xb8
 5062 1325 F5060000 		.4byte	.LLST44
 5063 1329 1C       		.uleb128 0x1c
 5064 132a 6900     		.ascii	"i\000"
 5065 132c 01       		.byte	0x1
 5066 132d F001     		.2byte	0x1f0
 5067 132f B8000000 		.4byte	0xb8
 5068 1333 2C070000 		.4byte	.LLST45
 5069 1337 11       		.uleb128 0x11
 5070 1338 12000000 		.4byte	.LVL305
 5071 133c 0E160000 		.4byte	0x160e
 5072 1340 4A130000 		.4byte	0x134a
 5073 1344 12       		.uleb128 0x12
 5074 1345 01       		.uleb128 0x1
 5075 1346 50       		.byte	0x50
 5076 1347 01       		.uleb128 0x1
 5077 1348 31       		.byte	0x31
 5078 1349 00       		.byte	0
 5079 134a 11       		.uleb128 0x11
 5080 134b 48000000 		.4byte	.LVL311
 5081 134f B8150000 		.4byte	0x15b8
 5082 1353 5D130000 		.4byte	0x135d
 5083 1357 12       		.uleb128 0x12
 5084 1358 01       		.uleb128 0x1
 5085 1359 50       		.byte	0x50
 5086 135a 01       		.uleb128 0x1
 5087 135b 30       		.byte	0x30
 5088 135c 00       		.byte	0
 5089 135d 11       		.uleb128 0x11
 5090 135e 4E000000 		.4byte	.LVL312
 5091 1362 19160000 		.4byte	0x1619
 5092 1366 70130000 		.4byte	0x1370
ARM GAS  C:\Users\luvsd\AppData\Local\Temp\cc7qBZw4.s 			page 101


 5093 136a 12       		.uleb128 0x12
 5094 136b 01       		.uleb128 0x1
 5095 136c 50       		.byte	0x50
 5096 136d 01       		.uleb128 0x1
 5097 136e 3B       		.byte	0x3b
 5098 136f 00       		.byte	0
 5099 1370 11       		.uleb128 0x11
 5100 1371 5C000000 		.4byte	.LVL313
 5101 1375 19160000 		.4byte	0x1619
 5102 1379 86130000 		.4byte	0x1386
 5103 137d 12       		.uleb128 0x12
 5104 137e 01       		.uleb128 0x1
 5105 137f 50       		.byte	0x50
 5106 1380 04       		.uleb128 0x4
 5107 1381 74       		.byte	0x74
 5108 1382 00       		.sleb128 0
 5109 1383 48       		.byte	0x48
 5110 1384 25       		.byte	0x25
 5111 1385 00       		.byte	0
 5112 1386 11       		.uleb128 0x11
 5113 1387 64000000 		.4byte	.LVL314
 5114 138b 19160000 		.4byte	0x1619
 5115 138f 9C130000 		.4byte	0x139c
 5116 1393 12       		.uleb128 0x12
 5117 1394 01       		.uleb128 0x1
 5118 1395 50       		.byte	0x50
 5119 1396 04       		.uleb128 0x4
 5120 1397 74       		.byte	0x74
 5121 1398 00       		.sleb128 0
 5122 1399 40       		.byte	0x40
 5123 139a 25       		.byte	0x25
 5124 139b 00       		.byte	0
 5125 139c 11       		.uleb128 0x11
 5126 139d 6C000000 		.4byte	.LVL315
 5127 13a1 19160000 		.4byte	0x1619
 5128 13a5 B2130000 		.4byte	0x13b2
 5129 13a9 12       		.uleb128 0x12
 5130 13aa 01       		.uleb128 0x1
 5131 13ab 50       		.byte	0x50
 5132 13ac 04       		.uleb128 0x4
 5133 13ad 74       		.byte	0x74
 5134 13ae 00       		.sleb128 0
 5135 13af 38       		.byte	0x38
 5136 13b0 25       		.byte	0x25
 5137 13b1 00       		.byte	0
 5138 13b2 11       		.uleb128 0x11
 5139 13b3 72000000 		.4byte	.LVL316
 5140 13b7 19160000 		.4byte	0x1619
 5141 13bb C6130000 		.4byte	0x13c6
 5142 13bf 12       		.uleb128 0x12
 5143 13c0 01       		.uleb128 0x1
 5144 13c1 50       		.byte	0x50
 5145 13c2 02       		.uleb128 0x2
 5146 13c3 74       		.byte	0x74
 5147 13c4 00       		.sleb128 0
 5148 13c5 00       		.byte	0
 5149 13c6 11       		.uleb128 0x11
ARM GAS  C:\Users\luvsd\AppData\Local\Temp\cc7qBZw4.s 			page 102


 5150 13c7 78000000 		.4byte	.LVL317
 5151 13cb 19160000 		.4byte	0x1619
 5152 13cf D9130000 		.4byte	0x13d9
 5153 13d3 12       		.uleb128 0x12
 5154 13d4 01       		.uleb128 0x1
 5155 13d5 50       		.byte	0x50
 5156 13d6 01       		.uleb128 0x1
 5157 13d7 30       		.byte	0x30
 5158 13d8 00       		.byte	0
 5159 13d9 11       		.uleb128 0x11
 5160 13da 82000000 		.4byte	.LVL320
 5161 13de 19160000 		.4byte	0x1619
 5162 13e2 ED130000 		.4byte	0x13ed
 5163 13e6 12       		.uleb128 0x12
 5164 13e7 01       		.uleb128 0x1
 5165 13e8 50       		.byte	0x50
 5166 13e9 02       		.uleb128 0x2
 5167 13ea 09       		.byte	0x9
 5168 13eb A5       		.byte	0xa5
 5169 13ec 00       		.byte	0
 5170 13ed 13       		.uleb128 0x13
 5171 13ee 88000000 		.4byte	.LVL322
 5172 13f2 E4150000 		.4byte	0x15e4
 5173 13f6 13       		.uleb128 0x13
 5174 13f7 96000000 		.4byte	.LVL325
 5175 13fb CE150000 		.4byte	0x15ce
 5176 13ff 11       		.uleb128 0x11
 5177 1400 A0000000 		.4byte	.LVL326
 5178 1404 D9150000 		.4byte	0x15d9
 5179 1408 12140000 		.4byte	0x1412
 5180 140c 12       		.uleb128 0x12
 5181 140d 01       		.uleb128 0x1
 5182 140e 50       		.byte	0x50
 5183 140f 01       		.uleb128 0x1
 5184 1410 3A       		.byte	0x3a
 5185 1411 00       		.byte	0
 5186 1412 16       		.uleb128 0x16
 5187 1413 A6000000 		.4byte	.LVL327
 5188 1417 B8150000 		.4byte	0x15b8
 5189 141b 12       		.uleb128 0x12
 5190 141c 01       		.uleb128 0x1
 5191 141d 50       		.byte	0x50
 5192 141e 01       		.uleb128 0x1
 5193 141f 31       		.byte	0x31
 5194 1420 00       		.byte	0
 5195 1421 00       		.byte	0
 5196 1422 1E       		.uleb128 0x1e
 5197 1423 EE000000 		.4byte	.LASF98
 5198 1427 01       		.byte	0x1
 5199 1428 0F02     		.2byte	0x20f
 5200 142a 00000000 		.4byte	.LFB83
 5201 142e 78000000 		.4byte	.LFE83-.LFB83
 5202 1432 01       		.uleb128 0x1
 5203 1433 9C       		.byte	0x9c
 5204 1434 E0140000 		.4byte	0x14e0
 5205 1438 1A       		.uleb128 0x1a
 5206 1439 C0020000 		.4byte	.LASF76
ARM GAS  C:\Users\luvsd\AppData\Local\Temp\cc7qBZw4.s 			page 103


 5207 143d 01       		.byte	0x1
 5208 143e 0F02     		.2byte	0x20f
 5209 1440 AD0E0000 		.4byte	0xead
 5210 1444 4B070000 		.4byte	.LLST46
 5211 1448 1A       		.uleb128 0x1a
 5212 1449 B9040000 		.4byte	.LASF83
 5213 144d 01       		.byte	0x1
 5214 144e 0F02     		.2byte	0x20f
 5215 1450 B8000000 		.4byte	0xb8
 5216 1454 69070000 		.4byte	.LLST47
 5217 1458 1A       		.uleb128 0x1a
 5218 1459 6E000000 		.4byte	.LASF80
 5219 145d 01       		.byte	0x1
 5220 145e 0F02     		.2byte	0x20f
 5221 1460 B8000000 		.4byte	0xb8
 5222 1464 8A070000 		.4byte	.LLST48
 5223 1468 1A       		.uleb128 0x1a
 5224 1469 1F060000 		.4byte	.LASF99
 5225 146d 01       		.byte	0x1
 5226 146e 0F02     		.2byte	0x20f
 5227 1470 B8000000 		.4byte	0xb8
 5228 1474 B6070000 		.4byte	.LLST49
 5229 1478 1F       		.uleb128 0x1f
 5230 1479 9B060000 		.4byte	.LASF85
 5231 147d 01       		.byte	0x1
 5232 147e 1B02     		.2byte	0x21b
 5233 1480 B8000000 		.4byte	0xb8
 5234 1484 E2070000 		.4byte	.LLST50
 5235 1488 1F       		.uleb128 0x1f
 5236 1489 81060000 		.4byte	.LASF100
 5237 148d 01       		.byte	0x1
 5238 148e 1C02     		.2byte	0x21c
 5239 1490 AD000000 		.4byte	0xad
 5240 1494 F5070000 		.4byte	.LLST51
 5241 1498 1F       		.uleb128 0x1f
 5242 1499 DF040000 		.4byte	.LASF87
 5243 149d 01       		.byte	0x1
 5244 149e 1D02     		.2byte	0x21d
 5245 14a0 B8000000 		.4byte	0xb8
 5246 14a4 13080000 		.4byte	.LLST52
 5247 14a8 11       		.uleb128 0x11
 5248 14a9 32000000 		.4byte	.LVL340
 5249 14ad DD0B0000 		.4byte	0xbdd
 5250 14b1 BD140000 		.4byte	0x14bd
 5251 14b5 12       		.uleb128 0x12
 5252 14b6 01       		.uleb128 0x1
 5253 14b7 50       		.byte	0x50
 5254 14b8 03       		.uleb128 0x3
 5255 14b9 F3       		.byte	0xf3
 5256 14ba 01       		.uleb128 0x1
 5257 14bb 51       		.byte	0x51
 5258 14bc 00       		.byte	0
 5259 14bd 16       		.uleb128 0x16
 5260 14be 5A000000 		.4byte	.LVL345
 5261 14c2 D3120000 		.4byte	0x12d3
 5262 14c6 12       		.uleb128 0x12
 5263 14c7 01       		.uleb128 0x1
ARM GAS  C:\Users\luvsd\AppData\Local\Temp\cc7qBZw4.s 			page 104


 5264 14c8 50       		.byte	0x50
 5265 14c9 02       		.uleb128 0x2
 5266 14ca 77       		.byte	0x77
 5267 14cb 00       		.sleb128 0
 5268 14cc 12       		.uleb128 0x12
 5269 14cd 01       		.uleb128 0x1
 5270 14ce 51       		.byte	0x51
 5271 14cf 02       		.uleb128 0x2
 5272 14d0 76       		.byte	0x76
 5273 14d1 00       		.sleb128 0
 5274 14d2 12       		.uleb128 0x12
 5275 14d3 01       		.uleb128 0x1
 5276 14d4 52       		.byte	0x52
 5277 14d5 02       		.uleb128 0x2
 5278 14d6 75       		.byte	0x75
 5279 14d7 00       		.sleb128 0
 5280 14d8 12       		.uleb128 0x12
 5281 14d9 01       		.uleb128 0x1
 5282 14da 53       		.byte	0x53
 5283 14db 02       		.uleb128 0x2
 5284 14dc 74       		.byte	0x74
 5285 14dd 00       		.sleb128 0
 5286 14de 00       		.byte	0
 5287 14df 00       		.byte	0
 5288 14e0 1E       		.uleb128 0x1e
 5289 14e1 13000000 		.4byte	.LASF101
 5290 14e5 01       		.byte	0x1
 5291 14e6 2E02     		.2byte	0x22e
 5292 14e8 00000000 		.4byte	.LFB84
 5293 14ec 78000000 		.4byte	.LFE84-.LFB84
 5294 14f0 01       		.uleb128 0x1
 5295 14f1 9C       		.byte	0x9c
 5296 14f2 9E150000 		.4byte	0x159e
 5297 14f6 1A       		.uleb128 0x1a
 5298 14f7 C0020000 		.4byte	.LASF76
 5299 14fb 01       		.byte	0x1
 5300 14fc 2E02     		.2byte	0x22e
 5301 14fe AD0E0000 		.4byte	0xead
 5302 1502 32080000 		.4byte	.LLST53
 5303 1506 1A       		.uleb128 0x1a
 5304 1507 CD000000 		.4byte	.LASF89
 5305 150b 01       		.byte	0x1
 5306 150c 2E02     		.2byte	0x22e
 5307 150e B8000000 		.4byte	0xb8
 5308 1512 50080000 		.4byte	.LLST54
 5309 1516 1A       		.uleb128 0x1a
 5310 1517 6E000000 		.4byte	.LASF80
 5311 151b 01       		.byte	0x1
 5312 151c 2E02     		.2byte	0x22e
 5313 151e B8000000 		.4byte	0xb8
 5314 1522 71080000 		.4byte	.LLST55
 5315 1526 1A       		.uleb128 0x1a
 5316 1527 24000000 		.4byte	.LASF102
 5317 152b 01       		.byte	0x1
 5318 152c 2E02     		.2byte	0x22e
 5319 152e B8000000 		.4byte	0xb8
 5320 1532 9D080000 		.4byte	.LLST56
ARM GAS  C:\Users\luvsd\AppData\Local\Temp\cc7qBZw4.s 			page 105


 5321 1536 1F       		.uleb128 0x1f
 5322 1537 9B060000 		.4byte	.LASF85
 5323 153b 01       		.byte	0x1
 5324 153c 3602     		.2byte	0x236
 5325 153e B8000000 		.4byte	0xb8
 5326 1542 C9080000 		.4byte	.LLST57
 5327 1546 1F       		.uleb128 0x1f
 5328 1547 81060000 		.4byte	.LASF100
 5329 154b 01       		.byte	0x1
 5330 154c 3702     		.2byte	0x237
 5331 154e AD000000 		.4byte	0xad
 5332 1552 DC080000 		.4byte	.LLST58
 5333 1556 1F       		.uleb128 0x1f
 5334 1557 DF040000 		.4byte	.LASF87
 5335 155b 01       		.byte	0x1
 5336 155c 3802     		.2byte	0x238
 5337 155e B8000000 		.4byte	0xb8
 5338 1562 FA080000 		.4byte	.LLST59
 5339 1566 11       		.uleb128 0x11
 5340 1567 32000000 		.4byte	.LVL360
 5341 156b 080C0000 		.4byte	0xc08
 5342 156f 7B150000 		.4byte	0x157b
 5343 1573 12       		.uleb128 0x12
 5344 1574 01       		.uleb128 0x1
 5345 1575 50       		.byte	0x50
 5346 1576 03       		.uleb128 0x3
 5347 1577 F3       		.byte	0xf3
 5348 1578 01       		.uleb128 0x1
 5349 1579 51       		.byte	0x51
 5350 157a 00       		.byte	0
 5351 157b 16       		.uleb128 0x16
 5352 157c 5A000000 		.4byte	.LVL365
 5353 1580 D3120000 		.4byte	0x12d3
 5354 1584 12       		.uleb128 0x12
 5355 1585 01       		.uleb128 0x1
 5356 1586 50       		.byte	0x50
 5357 1587 02       		.uleb128 0x2
 5358 1588 77       		.byte	0x77
 5359 1589 00       		.sleb128 0
 5360 158a 12       		.uleb128 0x12
 5361 158b 01       		.uleb128 0x1
 5362 158c 51       		.byte	0x51
 5363 158d 02       		.uleb128 0x2
 5364 158e 76       		.byte	0x76
 5365 158f 00       		.sleb128 0
 5366 1590 12       		.uleb128 0x12
 5367 1591 01       		.uleb128 0x1
 5368 1592 52       		.byte	0x52
 5369 1593 02       		.uleb128 0x2
 5370 1594 75       		.byte	0x75
 5371 1595 00       		.sleb128 0
 5372 1596 12       		.uleb128 0x12
 5373 1597 01       		.uleb128 0x1
 5374 1598 53       		.byte	0x53
 5375 1599 02       		.uleb128 0x2
 5376 159a 74       		.byte	0x74
 5377 159b 00       		.sleb128 0
ARM GAS  C:\Users\luvsd\AppData\Local\Temp\cc7qBZw4.s 			page 106


 5378 159c 00       		.byte	0
 5379 159d 00       		.byte	0
 5380 159e 20       		.uleb128 0x20
 5381 159f 8E050000 		.4byte	.LASF117
 5382 15a3 01       		.byte	0x1
 5383 15a4 07       		.byte	0x7
 5384 15a5 FA010000 		.4byte	0x1fa
 5385 15a9 05       		.uleb128 0x5
 5386 15aa 03       		.byte	0x3
 5387 15ab 00000000 		.4byte	w25qxx
 5388 15af 21       		.uleb128 0x21
 5389 15b0 E7000000 		.4byte	.LASF109
 5390 15b4 E7000000 		.4byte	.LASF109
 5391 15b8 22       		.uleb128 0x22
 5392 15b9 3E030000 		.4byte	.LASF103
 5393 15bd 3E030000 		.4byte	.LASF103
 5394 15c1 06       		.byte	0x6
 5395 15c2 2F       		.byte	0x2f
 5396 15c3 22       		.uleb128 0x22
 5397 15c4 0C050000 		.4byte	.LASF104
 5398 15c8 0C050000 		.4byte	.LASF104
 5399 15cc 07       		.byte	0x7
 5400 15cd 67       		.byte	0x67
 5401 15ce 22       		.uleb128 0x22
 5402 15cf 50060000 		.4byte	.LASF105
 5403 15d3 50060000 		.4byte	.LASF105
 5404 15d7 07       		.byte	0x7
 5405 15d8 5C       		.byte	0x5c
 5406 15d9 22       		.uleb128 0x22
 5407 15da 50030000 		.4byte	.LASF106
 5408 15de 50030000 		.4byte	.LASF106
 5409 15e2 08       		.byte	0x8
 5410 15e3 ED       		.byte	0xed
 5411 15e4 22       		.uleb128 0x22
 5412 15e5 DC030000 		.4byte	.LASF107
 5413 15e9 DC030000 		.4byte	.LASF107
 5414 15ed 07       		.byte	0x7
 5415 15ee 60       		.byte	0x60
 5416 15ef 22       		.uleb128 0x22
 5417 15f0 EE050000 		.4byte	.LASF108
 5418 15f4 EE050000 		.4byte	.LASF108
 5419 15f8 07       		.byte	0x7
 5420 15f9 62       		.byte	0x62
 5421 15fa 21       		.uleb128 0x21
 5422 15fb 88020000 		.4byte	.LASF110
 5423 15ff 88020000 		.4byte	.LASF110
 5424 1603 22       		.uleb128 0x22
 5425 1604 68060000 		.4byte	.LASF111
 5426 1608 68060000 		.4byte	.LASF111
 5427 160c 07       		.byte	0x7
 5428 160d 64       		.byte	0x64
 5429 160e 22       		.uleb128 0x22
 5430 160f D1060000 		.4byte	.LASF112
 5431 1613 D1060000 		.4byte	.LASF112
 5432 1617 08       		.byte	0x8
 5433 1618 EC       		.byte	0xec
 5434 1619 22       		.uleb128 0x22
ARM GAS  C:\Users\luvsd\AppData\Local\Temp\cc7qBZw4.s 			page 107


 5435 161a 13020000 		.4byte	.LASF113
 5436 161e 13020000 		.4byte	.LASF113
 5437 1622 07       		.byte	0x7
 5438 1623 5E       		.byte	0x5e
 5439 1624 00       		.byte	0
 5440              		.section	.debug_abbrev,"",%progbits
 5441              	.Ldebug_abbrev0:
 5442 0000 01       		.uleb128 0x1
 5443 0001 11       		.uleb128 0x11
 5444 0002 01       		.byte	0x1
 5445 0003 25       		.uleb128 0x25
 5446 0004 0E       		.uleb128 0xe
 5447 0005 13       		.uleb128 0x13
 5448 0006 0B       		.uleb128 0xb
 5449 0007 03       		.uleb128 0x3
 5450 0008 0E       		.uleb128 0xe
 5451 0009 1B       		.uleb128 0x1b
 5452 000a 0E       		.uleb128 0xe
 5453 000b 55       		.uleb128 0x55
 5454 000c 17       		.uleb128 0x17
 5455 000d 11       		.uleb128 0x11
 5456 000e 01       		.uleb128 0x1
 5457 000f 10       		.uleb128 0x10
 5458 0010 17       		.uleb128 0x17
 5459 0011 00       		.byte	0
 5460 0012 00       		.byte	0
 5461 0013 02       		.uleb128 0x2
 5462 0014 24       		.uleb128 0x24
 5463 0015 00       		.byte	0
 5464 0016 0B       		.uleb128 0xb
 5465 0017 0B       		.uleb128 0xb
 5466 0018 3E       		.uleb128 0x3e
 5467 0019 0B       		.uleb128 0xb
 5468 001a 03       		.uleb128 0x3
 5469 001b 0E       		.uleb128 0xe
 5470 001c 00       		.byte	0
 5471 001d 00       		.byte	0
 5472 001e 03       		.uleb128 0x3
 5473 001f 16       		.uleb128 0x16
 5474 0020 00       		.byte	0
 5475 0021 03       		.uleb128 0x3
 5476 0022 0E       		.uleb128 0xe
 5477 0023 3A       		.uleb128 0x3a
 5478 0024 0B       		.uleb128 0xb
 5479 0025 3B       		.uleb128 0x3b
 5480 0026 0B       		.uleb128 0xb
 5481 0027 49       		.uleb128 0x49
 5482 0028 13       		.uleb128 0x13
 5483 0029 00       		.byte	0
 5484 002a 00       		.byte	0
 5485 002b 04       		.uleb128 0x4
 5486 002c 24       		.uleb128 0x24
 5487 002d 00       		.byte	0
 5488 002e 0B       		.uleb128 0xb
 5489 002f 0B       		.uleb128 0xb
 5490 0030 3E       		.uleb128 0x3e
 5491 0031 0B       		.uleb128 0xb
ARM GAS  C:\Users\luvsd\AppData\Local\Temp\cc7qBZw4.s 			page 108


 5492 0032 03       		.uleb128 0x3
 5493 0033 08       		.uleb128 0x8
 5494 0034 00       		.byte	0
 5495 0035 00       		.byte	0
 5496 0036 05       		.uleb128 0x5
 5497 0037 16       		.uleb128 0x16
 5498 0038 00       		.byte	0
 5499 0039 03       		.uleb128 0x3
 5500 003a 0E       		.uleb128 0xe
 5501 003b 3A       		.uleb128 0x3a
 5502 003c 0B       		.uleb128 0xb
 5503 003d 3B       		.uleb128 0x3b
 5504 003e 05       		.uleb128 0x5
 5505 003f 49       		.uleb128 0x49
 5506 0040 13       		.uleb128 0x13
 5507 0041 00       		.byte	0
 5508 0042 00       		.byte	0
 5509 0043 06       		.uleb128 0x6
 5510 0044 04       		.uleb128 0x4
 5511 0045 01       		.byte	0x1
 5512 0046 0B       		.uleb128 0xb
 5513 0047 0B       		.uleb128 0xb
 5514 0048 49       		.uleb128 0x49
 5515 0049 13       		.uleb128 0x13
 5516 004a 3A       		.uleb128 0x3a
 5517 004b 0B       		.uleb128 0xb
 5518 004c 3B       		.uleb128 0x3b
 5519 004d 0B       		.uleb128 0xb
 5520 004e 01       		.uleb128 0x1
 5521 004f 13       		.uleb128 0x13
 5522 0050 00       		.byte	0
 5523 0051 00       		.byte	0
 5524 0052 07       		.uleb128 0x7
 5525 0053 28       		.uleb128 0x28
 5526 0054 00       		.byte	0
 5527 0055 03       		.uleb128 0x3
 5528 0056 0E       		.uleb128 0xe
 5529 0057 1C       		.uleb128 0x1c
 5530 0058 0B       		.uleb128 0xb
 5531 0059 00       		.byte	0
 5532 005a 00       		.byte	0
 5533 005b 08       		.uleb128 0x8
 5534 005c 13       		.uleb128 0x13
 5535 005d 01       		.byte	0x1
 5536 005e 0B       		.uleb128 0xb
 5537 005f 0B       		.uleb128 0xb
 5538 0060 3A       		.uleb128 0x3a
 5539 0061 0B       		.uleb128 0xb
 5540 0062 3B       		.uleb128 0x3b
 5541 0063 0B       		.uleb128 0xb
 5542 0064 01       		.uleb128 0x1
 5543 0065 13       		.uleb128 0x13
 5544 0066 00       		.byte	0
 5545 0067 00       		.byte	0
 5546 0068 09       		.uleb128 0x9
 5547 0069 0D       		.uleb128 0xd
 5548 006a 00       		.byte	0
ARM GAS  C:\Users\luvsd\AppData\Local\Temp\cc7qBZw4.s 			page 109


 5549 006b 03       		.uleb128 0x3
 5550 006c 08       		.uleb128 0x8
 5551 006d 3A       		.uleb128 0x3a
 5552 006e 0B       		.uleb128 0xb
 5553 006f 3B       		.uleb128 0x3b
 5554 0070 0B       		.uleb128 0xb
 5555 0071 49       		.uleb128 0x49
 5556 0072 13       		.uleb128 0x13
 5557 0073 38       		.uleb128 0x38
 5558 0074 0B       		.uleb128 0xb
 5559 0075 00       		.byte	0
 5560 0076 00       		.byte	0
 5561 0077 0A       		.uleb128 0xa
 5562 0078 0D       		.uleb128 0xd
 5563 0079 00       		.byte	0
 5564 007a 03       		.uleb128 0x3
 5565 007b 0E       		.uleb128 0xe
 5566 007c 3A       		.uleb128 0x3a
 5567 007d 0B       		.uleb128 0xb
 5568 007e 3B       		.uleb128 0x3b
 5569 007f 0B       		.uleb128 0xb
 5570 0080 49       		.uleb128 0x49
 5571 0081 13       		.uleb128 0x13
 5572 0082 38       		.uleb128 0x38
 5573 0083 0B       		.uleb128 0xb
 5574 0084 00       		.byte	0
 5575 0085 00       		.byte	0
 5576 0086 0B       		.uleb128 0xb
 5577 0087 01       		.uleb128 0x1
 5578 0088 01       		.byte	0x1
 5579 0089 49       		.uleb128 0x49
 5580 008a 13       		.uleb128 0x13
 5581 008b 01       		.uleb128 0x1
 5582 008c 13       		.uleb128 0x13
 5583 008d 00       		.byte	0
 5584 008e 00       		.byte	0
 5585 008f 0C       		.uleb128 0xc
 5586 0090 21       		.uleb128 0x21
 5587 0091 00       		.byte	0
 5588 0092 49       		.uleb128 0x49
 5589 0093 13       		.uleb128 0x13
 5590 0094 2F       		.uleb128 0x2f
 5591 0095 0B       		.uleb128 0xb
 5592 0096 00       		.byte	0
 5593 0097 00       		.byte	0
 5594 0098 0D       		.uleb128 0xd
 5595 0099 2E       		.uleb128 0x2e
 5596 009a 01       		.byte	0x1
 5597 009b 3F       		.uleb128 0x3f
 5598 009c 19       		.uleb128 0x19
 5599 009d 03       		.uleb128 0x3
 5600 009e 0E       		.uleb128 0xe
 5601 009f 3A       		.uleb128 0x3a
 5602 00a0 0B       		.uleb128 0xb
 5603 00a1 3B       		.uleb128 0x3b
 5604 00a2 0B       		.uleb128 0xb
 5605 00a3 27       		.uleb128 0x27
ARM GAS  C:\Users\luvsd\AppData\Local\Temp\cc7qBZw4.s 			page 110


 5606 00a4 19       		.uleb128 0x19
 5607 00a5 49       		.uleb128 0x49
 5608 00a6 13       		.uleb128 0x13
 5609 00a7 11       		.uleb128 0x11
 5610 00a8 01       		.uleb128 0x1
 5611 00a9 12       		.uleb128 0x12
 5612 00aa 06       		.uleb128 0x6
 5613 00ab 40       		.uleb128 0x40
 5614 00ac 18       		.uleb128 0x18
 5615 00ad 9742     		.uleb128 0x2117
 5616 00af 19       		.uleb128 0x19
 5617 00b0 01       		.uleb128 0x1
 5618 00b1 13       		.uleb128 0x13
 5619 00b2 00       		.byte	0
 5620 00b3 00       		.byte	0
 5621 00b4 0E       		.uleb128 0xe
 5622 00b5 34       		.uleb128 0x34
 5623 00b6 00       		.byte	0
 5624 00b7 03       		.uleb128 0x3
 5625 00b8 0E       		.uleb128 0xe
 5626 00b9 3A       		.uleb128 0x3a
 5627 00ba 0B       		.uleb128 0xb
 5628 00bb 3B       		.uleb128 0x3b
 5629 00bc 0B       		.uleb128 0xb
 5630 00bd 49       		.uleb128 0x49
 5631 00be 13       		.uleb128 0x13
 5632 00bf 02       		.uleb128 0x2
 5633 00c0 17       		.uleb128 0x17
 5634 00c1 00       		.byte	0
 5635 00c2 00       		.byte	0
 5636 00c3 0F       		.uleb128 0xf
 5637 00c4 34       		.uleb128 0x34
 5638 00c5 00       		.byte	0
 5639 00c6 03       		.uleb128 0x3
 5640 00c7 08       		.uleb128 0x8
 5641 00c8 3A       		.uleb128 0x3a
 5642 00c9 0B       		.uleb128 0xb
 5643 00ca 3B       		.uleb128 0x3b
 5644 00cb 0B       		.uleb128 0xb
 5645 00cc 49       		.uleb128 0x49
 5646 00cd 13       		.uleb128 0x13
 5647 00ce 00       		.byte	0
 5648 00cf 00       		.byte	0
 5649 00d0 10       		.uleb128 0x10
 5650 00d1 34       		.uleb128 0x34
 5651 00d2 00       		.byte	0
 5652 00d3 03       		.uleb128 0x3
 5653 00d4 0E       		.uleb128 0xe
 5654 00d5 3A       		.uleb128 0x3a
 5655 00d6 0B       		.uleb128 0xb
 5656 00d7 3B       		.uleb128 0x3b
 5657 00d8 0B       		.uleb128 0xb
 5658 00d9 49       		.uleb128 0x49
 5659 00da 13       		.uleb128 0x13
 5660 00db 02       		.uleb128 0x2
 5661 00dc 18       		.uleb128 0x18
 5662 00dd 00       		.byte	0
ARM GAS  C:\Users\luvsd\AppData\Local\Temp\cc7qBZw4.s 			page 111


 5663 00de 00       		.byte	0
 5664 00df 11       		.uleb128 0x11
 5665 00e0 898201   		.uleb128 0x4109
 5666 00e3 01       		.byte	0x1
 5667 00e4 11       		.uleb128 0x11
 5668 00e5 01       		.uleb128 0x1
 5669 00e6 31       		.uleb128 0x31
 5670 00e7 13       		.uleb128 0x13
 5671 00e8 01       		.uleb128 0x1
 5672 00e9 13       		.uleb128 0x13
 5673 00ea 00       		.byte	0
 5674 00eb 00       		.byte	0
 5675 00ec 12       		.uleb128 0x12
 5676 00ed 8A8201   		.uleb128 0x410a
 5677 00f0 00       		.byte	0
 5678 00f1 02       		.uleb128 0x2
 5679 00f2 18       		.uleb128 0x18
 5680 00f3 9142     		.uleb128 0x2111
 5681 00f5 18       		.uleb128 0x18
 5682 00f6 00       		.byte	0
 5683 00f7 00       		.byte	0
 5684 00f8 13       		.uleb128 0x13
 5685 00f9 898201   		.uleb128 0x4109
 5686 00fc 00       		.byte	0
 5687 00fd 11       		.uleb128 0x11
 5688 00fe 01       		.uleb128 0x1
 5689 00ff 31       		.uleb128 0x31
 5690 0100 13       		.uleb128 0x13
 5691 0101 00       		.byte	0
 5692 0102 00       		.byte	0
 5693 0103 14       		.uleb128 0x14
 5694 0104 2E       		.uleb128 0x2e
 5695 0105 01       		.byte	0x1
 5696 0106 3F       		.uleb128 0x3f
 5697 0107 19       		.uleb128 0x19
 5698 0108 03       		.uleb128 0x3
 5699 0109 0E       		.uleb128 0xe
 5700 010a 3A       		.uleb128 0x3a
 5701 010b 0B       		.uleb128 0xb
 5702 010c 3B       		.uleb128 0x3b
 5703 010d 0B       		.uleb128 0xb
 5704 010e 27       		.uleb128 0x27
 5705 010f 19       		.uleb128 0x19
 5706 0110 11       		.uleb128 0x11
 5707 0111 01       		.uleb128 0x1
 5708 0112 12       		.uleb128 0x12
 5709 0113 06       		.uleb128 0x6
 5710 0114 40       		.uleb128 0x40
 5711 0115 18       		.uleb128 0x18
 5712 0116 9742     		.uleb128 0x2117
 5713 0118 19       		.uleb128 0x19
 5714 0119 01       		.uleb128 0x1
 5715 011a 13       		.uleb128 0x13
 5716 011b 00       		.byte	0
 5717 011c 00       		.byte	0
 5718 011d 15       		.uleb128 0x15
 5719 011e 34       		.uleb128 0x34
ARM GAS  C:\Users\luvsd\AppData\Local\Temp\cc7qBZw4.s 			page 112


 5720 011f 00       		.byte	0
 5721 0120 03       		.uleb128 0x3
 5722 0121 08       		.uleb128 0x8
 5723 0122 3A       		.uleb128 0x3a
 5724 0123 0B       		.uleb128 0xb
 5725 0124 3B       		.uleb128 0x3b
 5726 0125 0B       		.uleb128 0xb
 5727 0126 49       		.uleb128 0x49
 5728 0127 13       		.uleb128 0x13
 5729 0128 02       		.uleb128 0x2
 5730 0129 17       		.uleb128 0x17
 5731 012a 00       		.byte	0
 5732 012b 00       		.byte	0
 5733 012c 16       		.uleb128 0x16
 5734 012d 898201   		.uleb128 0x4109
 5735 0130 01       		.byte	0x1
 5736 0131 11       		.uleb128 0x11
 5737 0132 01       		.uleb128 0x1
 5738 0133 31       		.uleb128 0x31
 5739 0134 13       		.uleb128 0x13
 5740 0135 00       		.byte	0
 5741 0136 00       		.byte	0
 5742 0137 17       		.uleb128 0x17
 5743 0138 05       		.uleb128 0x5
 5744 0139 00       		.byte	0
 5745 013a 03       		.uleb128 0x3
 5746 013b 0E       		.uleb128 0xe
 5747 013c 3A       		.uleb128 0x3a
 5748 013d 0B       		.uleb128 0xb
 5749 013e 3B       		.uleb128 0x3b
 5750 013f 0B       		.uleb128 0xb
 5751 0140 49       		.uleb128 0x49
 5752 0141 13       		.uleb128 0x13
 5753 0142 02       		.uleb128 0x2
 5754 0143 17       		.uleb128 0x17
 5755 0144 00       		.byte	0
 5756 0145 00       		.byte	0
 5757 0146 18       		.uleb128 0x18
 5758 0147 34       		.uleb128 0x34
 5759 0148 00       		.byte	0
 5760 0149 03       		.uleb128 0x3
 5761 014a 0E       		.uleb128 0xe
 5762 014b 3A       		.uleb128 0x3a
 5763 014c 0B       		.uleb128 0xb
 5764 014d 3B       		.uleb128 0x3b
 5765 014e 0B       		.uleb128 0xb
 5766 014f 49       		.uleb128 0x49
 5767 0150 13       		.uleb128 0x13
 5768 0151 1C       		.uleb128 0x1c
 5769 0152 0B       		.uleb128 0xb
 5770 0153 00       		.byte	0
 5771 0154 00       		.byte	0
 5772 0155 19       		.uleb128 0x19
 5773 0156 2E       		.uleb128 0x2e
 5774 0157 01       		.byte	0x1
 5775 0158 3F       		.uleb128 0x3f
 5776 0159 19       		.uleb128 0x19
ARM GAS  C:\Users\luvsd\AppData\Local\Temp\cc7qBZw4.s 			page 113


 5777 015a 03       		.uleb128 0x3
 5778 015b 0E       		.uleb128 0xe
 5779 015c 3A       		.uleb128 0x3a
 5780 015d 0B       		.uleb128 0xb
 5781 015e 3B       		.uleb128 0x3b
 5782 015f 05       		.uleb128 0x5
 5783 0160 27       		.uleb128 0x27
 5784 0161 19       		.uleb128 0x19
 5785 0162 11       		.uleb128 0x11
 5786 0163 01       		.uleb128 0x1
 5787 0164 12       		.uleb128 0x12
 5788 0165 06       		.uleb128 0x6
 5789 0166 40       		.uleb128 0x40
 5790 0167 18       		.uleb128 0x18
 5791 0168 9742     		.uleb128 0x2117
 5792 016a 19       		.uleb128 0x19
 5793 016b 01       		.uleb128 0x1
 5794 016c 13       		.uleb128 0x13
 5795 016d 00       		.byte	0
 5796 016e 00       		.byte	0
 5797 016f 1A       		.uleb128 0x1a
 5798 0170 05       		.uleb128 0x5
 5799 0171 00       		.byte	0
 5800 0172 03       		.uleb128 0x3
 5801 0173 0E       		.uleb128 0xe
 5802 0174 3A       		.uleb128 0x3a
 5803 0175 0B       		.uleb128 0xb
 5804 0176 3B       		.uleb128 0x3b
 5805 0177 05       		.uleb128 0x5
 5806 0178 49       		.uleb128 0x49
 5807 0179 13       		.uleb128 0x13
 5808 017a 02       		.uleb128 0x2
 5809 017b 17       		.uleb128 0x17
 5810 017c 00       		.byte	0
 5811 017d 00       		.byte	0
 5812 017e 1B       		.uleb128 0x1b
 5813 017f 2E       		.uleb128 0x2e
 5814 0180 01       		.byte	0x1
 5815 0181 3F       		.uleb128 0x3f
 5816 0182 19       		.uleb128 0x19
 5817 0183 03       		.uleb128 0x3
 5818 0184 0E       		.uleb128 0xe
 5819 0185 3A       		.uleb128 0x3a
 5820 0186 0B       		.uleb128 0xb
 5821 0187 3B       		.uleb128 0x3b
 5822 0188 05       		.uleb128 0x5
 5823 0189 27       		.uleb128 0x27
 5824 018a 19       		.uleb128 0x19
 5825 018b 49       		.uleb128 0x49
 5826 018c 13       		.uleb128 0x13
 5827 018d 11       		.uleb128 0x11
 5828 018e 01       		.uleb128 0x1
 5829 018f 12       		.uleb128 0x12
 5830 0190 06       		.uleb128 0x6
 5831 0191 40       		.uleb128 0x40
 5832 0192 18       		.uleb128 0x18
 5833 0193 9642     		.uleb128 0x2116
ARM GAS  C:\Users\luvsd\AppData\Local\Temp\cc7qBZw4.s 			page 114


 5834 0195 19       		.uleb128 0x19
 5835 0196 01       		.uleb128 0x1
 5836 0197 13       		.uleb128 0x13
 5837 0198 00       		.byte	0
 5838 0199 00       		.byte	0
 5839 019a 1C       		.uleb128 0x1c
 5840 019b 34       		.uleb128 0x34
 5841 019c 00       		.byte	0
 5842 019d 03       		.uleb128 0x3
 5843 019e 08       		.uleb128 0x8
 5844 019f 3A       		.uleb128 0x3a
 5845 01a0 0B       		.uleb128 0xb
 5846 01a1 3B       		.uleb128 0x3b
 5847 01a2 05       		.uleb128 0x5
 5848 01a3 49       		.uleb128 0x49
 5849 01a4 13       		.uleb128 0x13
 5850 01a5 02       		.uleb128 0x2
 5851 01a6 17       		.uleb128 0x17
 5852 01a7 00       		.byte	0
 5853 01a8 00       		.byte	0
 5854 01a9 1D       		.uleb128 0x1d
 5855 01aa 0F       		.uleb128 0xf
 5856 01ab 00       		.byte	0
 5857 01ac 0B       		.uleb128 0xb
 5858 01ad 0B       		.uleb128 0xb
 5859 01ae 49       		.uleb128 0x49
 5860 01af 13       		.uleb128 0x13
 5861 01b0 00       		.byte	0
 5862 01b1 00       		.byte	0
 5863 01b2 1E       		.uleb128 0x1e
 5864 01b3 2E       		.uleb128 0x2e
 5865 01b4 01       		.byte	0x1
 5866 01b5 3F       		.uleb128 0x3f
 5867 01b6 19       		.uleb128 0x19
 5868 01b7 03       		.uleb128 0x3
 5869 01b8 0E       		.uleb128 0xe
 5870 01b9 3A       		.uleb128 0x3a
 5871 01ba 0B       		.uleb128 0xb
 5872 01bb 3B       		.uleb128 0x3b
 5873 01bc 05       		.uleb128 0x5
 5874 01bd 27       		.uleb128 0x27
 5875 01be 19       		.uleb128 0x19
 5876 01bf 11       		.uleb128 0x11
 5877 01c0 01       		.uleb128 0x1
 5878 01c1 12       		.uleb128 0x12
 5879 01c2 06       		.uleb128 0x6
 5880 01c3 40       		.uleb128 0x40
 5881 01c4 18       		.uleb128 0x18
 5882 01c5 9642     		.uleb128 0x2116
 5883 01c7 19       		.uleb128 0x19
 5884 01c8 01       		.uleb128 0x1
 5885 01c9 13       		.uleb128 0x13
 5886 01ca 00       		.byte	0
 5887 01cb 00       		.byte	0
 5888 01cc 1F       		.uleb128 0x1f
 5889 01cd 34       		.uleb128 0x34
 5890 01ce 00       		.byte	0
ARM GAS  C:\Users\luvsd\AppData\Local\Temp\cc7qBZw4.s 			page 115


 5891 01cf 03       		.uleb128 0x3
 5892 01d0 0E       		.uleb128 0xe
 5893 01d1 3A       		.uleb128 0x3a
 5894 01d2 0B       		.uleb128 0xb
 5895 01d3 3B       		.uleb128 0x3b
 5896 01d4 05       		.uleb128 0x5
 5897 01d5 49       		.uleb128 0x49
 5898 01d6 13       		.uleb128 0x13
 5899 01d7 02       		.uleb128 0x2
 5900 01d8 17       		.uleb128 0x17
 5901 01d9 00       		.byte	0
 5902 01da 00       		.byte	0
 5903 01db 20       		.uleb128 0x20
 5904 01dc 34       		.uleb128 0x34
 5905 01dd 00       		.byte	0
 5906 01de 03       		.uleb128 0x3
 5907 01df 0E       		.uleb128 0xe
 5908 01e0 3A       		.uleb128 0x3a
 5909 01e1 0B       		.uleb128 0xb
 5910 01e2 3B       		.uleb128 0x3b
 5911 01e3 0B       		.uleb128 0xb
 5912 01e4 49       		.uleb128 0x49
 5913 01e5 13       		.uleb128 0x13
 5914 01e6 3F       		.uleb128 0x3f
 5915 01e7 19       		.uleb128 0x19
 5916 01e8 02       		.uleb128 0x2
 5917 01e9 18       		.uleb128 0x18
 5918 01ea 00       		.byte	0
 5919 01eb 00       		.byte	0
 5920 01ec 21       		.uleb128 0x21
 5921 01ed 2E       		.uleb128 0x2e
 5922 01ee 00       		.byte	0
 5923 01ef 3F       		.uleb128 0x3f
 5924 01f0 19       		.uleb128 0x19
 5925 01f1 3C       		.uleb128 0x3c
 5926 01f2 19       		.uleb128 0x19
 5927 01f3 6E       		.uleb128 0x6e
 5928 01f4 0E       		.uleb128 0xe
 5929 01f5 03       		.uleb128 0x3
 5930 01f6 0E       		.uleb128 0xe
 5931 01f7 00       		.byte	0
 5932 01f8 00       		.byte	0
 5933 01f9 22       		.uleb128 0x22
 5934 01fa 2E       		.uleb128 0x2e
 5935 01fb 00       		.byte	0
 5936 01fc 3F       		.uleb128 0x3f
 5937 01fd 19       		.uleb128 0x19
 5938 01fe 3C       		.uleb128 0x3c
 5939 01ff 19       		.uleb128 0x19
 5940 0200 6E       		.uleb128 0x6e
 5941 0201 0E       		.uleb128 0xe
 5942 0202 03       		.uleb128 0x3
 5943 0203 0E       		.uleb128 0xe
 5944 0204 3A       		.uleb128 0x3a
 5945 0205 0B       		.uleb128 0xb
 5946 0206 3B       		.uleb128 0x3b
 5947 0207 0B       		.uleb128 0xb
ARM GAS  C:\Users\luvsd\AppData\Local\Temp\cc7qBZw4.s 			page 116


 5948 0208 00       		.byte	0
 5949 0209 00       		.byte	0
 5950 020a 00       		.byte	0
 5951              		.section	.debug_loc,"",%progbits
 5952              	.Ldebug_loc0:
 5953              	.LLST0:
 5954 0000 04000000 		.4byte	.LVL0
 5955 0004 34000000 		.4byte	.LVL7
 5956 0008 0200     		.2byte	0x2
 5957 000a 30       		.byte	0x30
 5958 000b 9F       		.byte	0x9f
 5959 000c 34000000 		.4byte	.LVL7
 5960 0010 38000000 		.4byte	.LVL8
 5961 0014 0100     		.2byte	0x1
 5962 0016 55       		.byte	0x55
 5963 0017 38000000 		.4byte	.LVL8
 5964 001b 42000000 		.4byte	.LVL10
 5965 001f 0100     		.2byte	0x1
 5966 0021 54       		.byte	0x54
 5967 0022 42000000 		.4byte	.LVL10
 5968 0026 5C000000 		.4byte	.LVL13
 5969 002a 0100     		.2byte	0x1
 5970 002c 55       		.byte	0x55
 5971 002d 00000000 		.4byte	0
 5972 0031 00000000 		.4byte	0
 5973              	.LLST1:
 5974 0035 04000000 		.4byte	.LVL14
 5975 0039 58000000 		.4byte	.LVL24
 5976 003d 0200     		.2byte	0x2
 5977 003f 30       		.byte	0x30
 5978 0040 9F       		.byte	0x9f
 5979 0041 58000000 		.4byte	.LVL24
 5980 0045 5C000000 		.4byte	.LVL25
 5981 0049 0100     		.2byte	0x1
 5982 004b 54       		.byte	0x54
 5983 004c 5C000000 		.4byte	.LVL25
 5984 0050 68000000 		.4byte	.LVL27
 5985 0054 0100     		.2byte	0x1
 5986 0056 55       		.byte	0x55
 5987 0057 68000000 		.4byte	.LVL27
 5988 005b 72000000 		.4byte	.LVL29
 5989 005f 0100     		.2byte	0x1
 5990 0061 54       		.byte	0x54
 5991 0062 00000000 		.4byte	0
 5992 0066 00000000 		.4byte	0
 5993              	.LLST2:
 5994 006a 00000000 		.4byte	.LVL46
 5995 006e 0E000000 		.4byte	.LVL48
 5996 0072 0100     		.2byte	0x1
 5997 0074 50       		.byte	0x50
 5998 0075 0E000000 		.4byte	.LVL48
 5999 0079 F0000000 		.4byte	.LFE64
 6000 007d 0400     		.2byte	0x4
 6001 007f F3       		.byte	0xf3
 6002 0080 01       		.uleb128 0x1
 6003 0081 50       		.byte	0x50
 6004 0082 9F       		.byte	0x9f
ARM GAS  C:\Users\luvsd\AppData\Local\Temp\cc7qBZw4.s 			page 117


 6005 0083 00000000 		.4byte	0
 6006 0087 00000000 		.4byte	0
 6007              	.LLST3:
 6008 008b 06000000 		.4byte	.LVL47
 6009 008f 34000000 		.4byte	.LVL54
 6010 0093 0200     		.2byte	0x2
 6011 0095 30       		.byte	0x30
 6012 0096 9F       		.byte	0x9f
 6013 0097 34000000 		.4byte	.LVL54
 6014 009b 38000000 		.4byte	.LVL55
 6015 009f 0100     		.2byte	0x1
 6016 00a1 55       		.byte	0x55
 6017 00a2 38000000 		.4byte	.LVL55
 6018 00a6 42000000 		.4byte	.LVL57
 6019 00aa 0100     		.2byte	0x1
 6020 00ac 54       		.byte	0x54
 6021 00ad 42000000 		.4byte	.LVL57
 6022 00b1 56000000 		.4byte	.LVL59
 6023 00b5 0100     		.2byte	0x1
 6024 00b7 55       		.byte	0x55
 6025 00b8 56000000 		.4byte	.LVL59
 6026 00bc 78000000 		.4byte	.LVL64
 6027 00c0 0200     		.2byte	0x2
 6028 00c2 30       		.byte	0x30
 6029 00c3 9F       		.byte	0x9f
 6030 00c4 78000000 		.4byte	.LVL64
 6031 00c8 7C000000 		.4byte	.LVL65
 6032 00cc 0100     		.2byte	0x1
 6033 00ce 55       		.byte	0x55
 6034 00cf 7C000000 		.4byte	.LVL65
 6035 00d3 86000000 		.4byte	.LVL67
 6036 00d7 0100     		.2byte	0x1
 6037 00d9 54       		.byte	0x54
 6038 00da 86000000 		.4byte	.LVL67
 6039 00de 9A000000 		.4byte	.LVL69
 6040 00e2 0100     		.2byte	0x1
 6041 00e4 55       		.byte	0x55
 6042 00e5 9A000000 		.4byte	.LVL69
 6043 00e9 B8000000 		.4byte	.LVL74
 6044 00ed 0200     		.2byte	0x2
 6045 00ef 30       		.byte	0x30
 6046 00f0 9F       		.byte	0x9f
 6047 00f1 B8000000 		.4byte	.LVL74
 6048 00f5 BC000000 		.4byte	.LVL75
 6049 00f9 0100     		.2byte	0x1
 6050 00fb 55       		.byte	0x55
 6051 00fc BC000000 		.4byte	.LVL75
 6052 0100 C6000000 		.4byte	.LVL77
 6053 0104 0100     		.2byte	0x1
 6054 0106 54       		.byte	0x54
 6055 0107 C6000000 		.4byte	.LVL77
 6056 010b EA000000 		.4byte	.LVL81
 6057 010f 0100     		.2byte	0x1
 6058 0111 55       		.byte	0x55
 6059 0112 00000000 		.4byte	0
 6060 0116 00000000 		.4byte	0
 6061              	.LLST4:
ARM GAS  C:\Users\luvsd\AppData\Local\Temp\cc7qBZw4.s 			page 118


 6062 011a 00000000 		.4byte	.LVL82
 6063 011e 08000000 		.4byte	.LVL84
 6064 0122 0100     		.2byte	0x1
 6065 0124 50       		.byte	0x50
 6066 0125 08000000 		.4byte	.LVL84
 6067 0129 64000000 		.4byte	.LFE65
 6068 012d 0400     		.2byte	0x4
 6069 012f F3       		.byte	0xf3
 6070 0130 01       		.uleb128 0x1
 6071 0131 50       		.byte	0x50
 6072 0132 9F       		.byte	0x9f
 6073 0133 00000000 		.4byte	0
 6074 0137 00000000 		.4byte	0
 6075              	.LLST5:
 6076 013b 00000000 		.4byte	.LVL82
 6077 013f 0B000000 		.4byte	.LVL85-1
 6078 0143 0100     		.2byte	0x1
 6079 0145 51       		.byte	0x51
 6080 0146 0B000000 		.4byte	.LVL85-1
 6081 014a 64000000 		.4byte	.LFE65
 6082 014e 0400     		.2byte	0x4
 6083 0150 F3       		.byte	0xf3
 6084 0151 01       		.uleb128 0x1
 6085 0152 51       		.byte	0x51
 6086 0153 9F       		.byte	0x9f
 6087 0154 00000000 		.4byte	0
 6088 0158 00000000 		.4byte	0
 6089              	.LLST6:
 6090 015c 14000000 		.4byte	.LVL106
 6091 0160 18000000 		.4byte	.LVL107
 6092 0164 0100     		.2byte	0x1
 6093 0166 50       		.byte	0x50
 6094 0167 00000000 		.4byte	0
 6095 016b 00000000 		.4byte	0
 6096              	.LLST7:
 6097 016f 00000000 		.4byte	.LVL120
 6098 0173 06000000 		.4byte	.LVL121
 6099 0177 0100     		.2byte	0x1
 6100 0179 50       		.byte	0x50
 6101 017a 06000000 		.4byte	.LVL121
 6102 017e 74000000 		.4byte	.LVL136
 6103 0182 0100     		.2byte	0x1
 6104 0184 54       		.byte	0x54
 6105 0185 00000000 		.4byte	0
 6106 0189 00000000 		.4byte	0
 6107              	.LLST8:
 6108 018d 00000000 		.4byte	.LVL137
 6109 0191 06000000 		.4byte	.LVL138
 6110 0195 0100     		.2byte	0x1
 6111 0197 50       		.byte	0x50
 6112 0198 06000000 		.4byte	.LVL138
 6113 019c 26000000 		.4byte	.LVL141
 6114 01a0 0100     		.2byte	0x1
 6115 01a2 54       		.byte	0x54
 6116 01a3 26000000 		.4byte	.LVL141
 6117 01a7 28000000 		.4byte	.LVL142
 6118 01ab 0400     		.2byte	0x4
ARM GAS  C:\Users\luvsd\AppData\Local\Temp\cc7qBZw4.s 			page 119


 6119 01ad F3       		.byte	0xf3
 6120 01ae 01       		.uleb128 0x1
 6121 01af 50       		.byte	0x50
 6122 01b0 9F       		.byte	0x9f
 6123 01b1 28000000 		.4byte	.LVL142
 6124 01b5 80000000 		.4byte	.LVL155
 6125 01b9 0100     		.2byte	0x1
 6126 01bb 54       		.byte	0x54
 6127 01bc 00000000 		.4byte	0
 6128 01c0 00000000 		.4byte	0
 6129              	.LLST9:
 6130 01c4 00000000 		.4byte	.LVL156
 6131 01c8 08000000 		.4byte	.LVL157
 6132 01cc 0100     		.2byte	0x1
 6133 01ce 50       		.byte	0x50
 6134 01cf 08000000 		.4byte	.LVL157
 6135 01d3 14000000 		.4byte	.LFE71
 6136 01d7 0400     		.2byte	0x4
 6137 01d9 F3       		.byte	0xf3
 6138 01da 01       		.uleb128 0x1
 6139 01db 50       		.byte	0x50
 6140 01dc 9F       		.byte	0x9f
 6141 01dd 00000000 		.4byte	0
 6142 01e1 00000000 		.4byte	0
 6143              	.LLST10:
 6144 01e5 00000000 		.4byte	.LVL159
 6145 01e9 08000000 		.4byte	.LVL160
 6146 01ed 0100     		.2byte	0x1
 6147 01ef 50       		.byte	0x50
 6148 01f0 08000000 		.4byte	.LVL160
 6149 01f4 14000000 		.4byte	.LFE72
 6150 01f8 0400     		.2byte	0x4
 6151 01fa F3       		.byte	0xf3
 6152 01fb 01       		.uleb128 0x1
 6153 01fc 50       		.byte	0x50
 6154 01fd 9F       		.byte	0x9f
 6155 01fe 00000000 		.4byte	0
 6156 0202 00000000 		.4byte	0
 6157              	.LLST11:
 6158 0206 00000000 		.4byte	.LVL162
 6159 020a 08000000 		.4byte	.LVL163
 6160 020e 0100     		.2byte	0x1
 6161 0210 50       		.byte	0x50
 6162 0211 08000000 		.4byte	.LVL163
 6163 0215 14000000 		.4byte	.LFE73
 6164 0219 0400     		.2byte	0x4
 6165 021b F3       		.byte	0xf3
 6166 021c 01       		.uleb128 0x1
 6167 021d 50       		.byte	0x50
 6168 021e 9F       		.byte	0x9f
 6169 021f 00000000 		.4byte	0
 6170 0223 00000000 		.4byte	0
 6171              	.LLST12:
 6172 0227 00000000 		.4byte	.LVL165
 6173 022b 08000000 		.4byte	.LVL166
 6174 022f 0100     		.2byte	0x1
 6175 0231 50       		.byte	0x50
ARM GAS  C:\Users\luvsd\AppData\Local\Temp\cc7qBZw4.s 			page 120


 6176 0232 08000000 		.4byte	.LVL166
 6177 0236 14000000 		.4byte	.LFE74
 6178 023a 0400     		.2byte	0x4
 6179 023c F3       		.byte	0xf3
 6180 023d 01       		.uleb128 0x1
 6181 023e 50       		.byte	0x50
 6182 023f 9F       		.byte	0x9f
 6183 0240 00000000 		.4byte	0
 6184 0244 00000000 		.4byte	0
 6185              	.LLST13:
 6186 0248 00000000 		.4byte	.LVL168
 6187 024c 08000000 		.4byte	.LVL169
 6188 0250 0100     		.2byte	0x1
 6189 0252 50       		.byte	0x50
 6190 0253 08000000 		.4byte	.LVL169
 6191 0257 14000000 		.4byte	.LFE75
 6192 025b 0400     		.2byte	0x4
 6193 025d F3       		.byte	0xf3
 6194 025e 01       		.uleb128 0x1
 6195 025f 50       		.byte	0x50
 6196 0260 9F       		.byte	0x9f
 6197 0261 00000000 		.4byte	0
 6198 0265 00000000 		.4byte	0
 6199              	.LLST14:
 6200 0269 00000000 		.4byte	.LVL171
 6201 026d 08000000 		.4byte	.LVL172
 6202 0271 0100     		.2byte	0x1
 6203 0273 50       		.byte	0x50
 6204 0274 08000000 		.4byte	.LVL172
 6205 0278 84000000 		.4byte	.LFE76
 6206 027c 0400     		.2byte	0x4
 6207 027e F3       		.byte	0xf3
 6208 027f 01       		.uleb128 0x1
 6209 0280 50       		.byte	0x50
 6210 0281 9F       		.byte	0x9f
 6211 0282 00000000 		.4byte	0
 6212 0286 00000000 		.4byte	0
 6213              	.LLST15:
 6214 028a 00000000 		.4byte	.LVL171
 6215 028e 08000000 		.4byte	.LVL172
 6216 0292 0100     		.2byte	0x1
 6217 0294 51       		.byte	0x51
 6218 0295 08000000 		.4byte	.LVL172
 6219 0299 7C000000 		.4byte	.LVL187
 6220 029d 0100     		.2byte	0x1
 6221 029f 55       		.byte	0x55
 6222 02a0 7C000000 		.4byte	.LVL187
 6223 02a4 84000000 		.4byte	.LFE76
 6224 02a8 0400     		.2byte	0x4
 6225 02aa F3       		.byte	0xf3
 6226 02ab 01       		.uleb128 0x1
 6227 02ac 51       		.byte	0x51
 6228 02ad 9F       		.byte	0x9f
 6229 02ae 00000000 		.4byte	0
 6230 02b2 00000000 		.4byte	0
 6231              	.LLST16:
 6232 02b6 00000000 		.4byte	.LVL188
ARM GAS  C:\Users\luvsd\AppData\Local\Temp\cc7qBZw4.s 			page 121


 6233 02ba 0C000000 		.4byte	.LVL189
 6234 02be 0100     		.2byte	0x1
 6235 02c0 50       		.byte	0x50
 6236 02c1 0C000000 		.4byte	.LVL189
 6237 02c5 7E000000 		.4byte	.LVL205
 6238 02c9 0100     		.2byte	0x1
 6239 02cb 55       		.byte	0x55
 6240 02cc 7E000000 		.4byte	.LVL205
 6241 02d0 88000000 		.4byte	.LVL208
 6242 02d4 0100     		.2byte	0x1
 6243 02d6 56       		.byte	0x56
 6244 02d7 88000000 		.4byte	.LVL208
 6245 02db B2000000 		.4byte	.LVL215
 6246 02df 0100     		.2byte	0x1
 6247 02e1 55       		.byte	0x55
 6248 02e2 00000000 		.4byte	0
 6249 02e6 00000000 		.4byte	0
 6250              	.LLST17:
 6251 02ea 00000000 		.4byte	.LVL188
 6252 02ee 0C000000 		.4byte	.LVL189
 6253 02f2 0100     		.2byte	0x1
 6254 02f4 51       		.byte	0x51
 6255 02f5 0C000000 		.4byte	.LVL189
 6256 02f9 54000000 		.4byte	.LVL197
 6257 02fd 0100     		.2byte	0x1
 6258 02ff 56       		.byte	0x56
 6259 0300 54000000 		.4byte	.LVL197
 6260 0304 56000000 		.4byte	.LVL198
 6261 0308 0400     		.2byte	0x4
 6262 030a F3       		.byte	0xf3
 6263 030b 01       		.uleb128 0x1
 6264 030c 51       		.byte	0x51
 6265 030d 9F       		.byte	0x9f
 6266 030e 56000000 		.4byte	.LVL198
 6267 0312 7A000000 		.4byte	.LVL203
 6268 0316 0100     		.2byte	0x1
 6269 0318 54       		.byte	0x54
 6270 0319 7A000000 		.4byte	.LVL203
 6271 031d 7C000000 		.4byte	.LVL204
 6272 0321 0700     		.2byte	0x7
 6273 0323 F3       		.byte	0xf3
 6274 0324 01       		.uleb128 0x1
 6275 0325 52       		.byte	0x52
 6276 0326 76       		.byte	0x76
 6277 0327 00       		.sleb128 0
 6278 0328 22       		.byte	0x22
 6279 0329 9F       		.byte	0x9f
 6280 032a 00000000 		.4byte	0
 6281 032e 00000000 		.4byte	0
 6282              	.LLST18:
 6283 0332 00000000 		.4byte	.LVL188
 6284 0336 0C000000 		.4byte	.LVL189
 6285 033a 0100     		.2byte	0x1
 6286 033c 52       		.byte	0x52
 6287 033d 0C000000 		.4byte	.LVL189
 6288 0341 56000000 		.4byte	.LVL198
 6289 0345 0100     		.2byte	0x1
ARM GAS  C:\Users\luvsd\AppData\Local\Temp\cc7qBZw4.s 			page 122


 6290 0347 54       		.byte	0x54
 6291 0348 56000000 		.4byte	.LVL198
 6292 034c B8000000 		.4byte	.LFE77
 6293 0350 0400     		.2byte	0x4
 6294 0352 F3       		.byte	0xf3
 6295 0353 01       		.uleb128 0x1
 6296 0354 52       		.byte	0x52
 6297 0355 9F       		.byte	0x9f
 6298 0356 00000000 		.4byte	0
 6299 035a 00000000 		.4byte	0
 6300              	.LLST19:
 6301 035e 00000000 		.4byte	.LVL188
 6302 0362 0C000000 		.4byte	.LVL189
 6303 0366 0100     		.2byte	0x1
 6304 0368 53       		.byte	0x53
 6305 0369 0C000000 		.4byte	.LVL189
 6306 036d B2000000 		.4byte	.LVL216
 6307 0371 0100     		.2byte	0x1
 6308 0373 57       		.byte	0x57
 6309 0374 00000000 		.4byte	0
 6310 0378 00000000 		.4byte	0
 6311              	.LLST20:
 6312 037c 78000000 		.4byte	.LVL202
 6313 0380 7C000000 		.4byte	.LVL204
 6314 0384 0200     		.2byte	0x2
 6315 0386 30       		.byte	0x30
 6316 0387 9F       		.byte	0x9f
 6317 0388 7C000000 		.4byte	.LVL204
 6318 038c B2000000 		.4byte	.LVL214
 6319 0390 0100     		.2byte	0x1
 6320 0392 54       		.byte	0x54
 6321 0393 00000000 		.4byte	0
 6322 0397 00000000 		.4byte	0
 6323              	.LLST21:
 6324 039b 00000000 		.4byte	.LVL217
 6325 039f 22000000 		.4byte	.LVL222
 6326 03a3 0100     		.2byte	0x1
 6327 03a5 50       		.byte	0x50
 6328 03a6 22000000 		.4byte	.LVL222
 6329 03aa 70000000 		.4byte	.LVL236
 6330 03ae 0100     		.2byte	0x1
 6331 03b0 57       		.byte	0x57
 6332 03b1 00000000 		.4byte	0
 6333 03b5 00000000 		.4byte	0
 6334              	.LLST22:
 6335 03b9 00000000 		.4byte	.LVL217
 6336 03bd 31000000 		.4byte	.LVL226-1
 6337 03c1 0100     		.2byte	0x1
 6338 03c3 51       		.byte	0x51
 6339 03c4 31000000 		.4byte	.LVL226-1
 6340 03c8 78000000 		.4byte	.LFE78
 6341 03cc 0400     		.2byte	0x4
 6342 03ce F3       		.byte	0xf3
 6343 03cf 01       		.uleb128 0x1
 6344 03d0 51       		.byte	0x51
 6345 03d1 9F       		.byte	0x9f
 6346 03d2 00000000 		.4byte	0
ARM GAS  C:\Users\luvsd\AppData\Local\Temp\cc7qBZw4.s 			page 123


 6347 03d6 00000000 		.4byte	0
 6348              	.LLST23:
 6349 03da 00000000 		.4byte	.LVL217
 6350 03de 0A000000 		.4byte	.LVL218
 6351 03e2 0100     		.2byte	0x1
 6352 03e4 52       		.byte	0x52
 6353 03e5 0A000000 		.4byte	.LVL218
 6354 03e9 4E000000 		.4byte	.LVL230
 6355 03ed 0100     		.2byte	0x1
 6356 03ef 55       		.byte	0x55
 6357 03f0 4E000000 		.4byte	.LVL230
 6358 03f4 78000000 		.4byte	.LFE78
 6359 03f8 0400     		.2byte	0x4
 6360 03fa F3       		.byte	0xf3
 6361 03fb 01       		.uleb128 0x1
 6362 03fc 52       		.byte	0x52
 6363 03fd 9F       		.byte	0x9f
 6364 03fe 00000000 		.4byte	0
 6365 0402 00000000 		.4byte	0
 6366              	.LLST24:
 6367 0406 00000000 		.4byte	.LVL217
 6368 040a 18000000 		.4byte	.LVL219
 6369 040e 0100     		.2byte	0x1
 6370 0410 53       		.byte	0x53
 6371 0411 18000000 		.4byte	.LVL219
 6372 0415 1A000000 		.4byte	.LVL220
 6373 0419 0400     		.2byte	0x4
 6374 041b F3       		.byte	0xf3
 6375 041c 01       		.uleb128 0x1
 6376 041d 53       		.byte	0x53
 6377 041e 9F       		.byte	0x9f
 6378 041f 1A000000 		.4byte	.LVL220
 6379 0423 31000000 		.4byte	.LVL226-1
 6380 0427 0100     		.2byte	0x1
 6381 0429 53       		.byte	0x53
 6382 042a 00000000 		.4byte	0
 6383 042e 00000000 		.4byte	0
 6384              	.LLST25:
 6385 0432 44000000 		.4byte	.LVL228
 6386 0436 6E000000 		.4byte	.LVL235
 6387 043a 0100     		.2byte	0x1
 6388 043c 56       		.byte	0x56
 6389 043d 00000000 		.4byte	0
 6390 0441 00000000 		.4byte	0
 6391              	.LLST26:
 6392 0445 28000000 		.4byte	.LVL223
 6393 0449 2A000000 		.4byte	.LVL224
 6394 044d 0100     		.2byte	0x1
 6395 044f 54       		.byte	0x54
 6396 0450 2C000000 		.4byte	.LVL225
 6397 0454 6E000000 		.4byte	.LVL235
 6398 0458 0100     		.2byte	0x1
 6399 045a 54       		.byte	0x54
 6400 045b 00000000 		.4byte	0
 6401 045f 00000000 		.4byte	0
 6402              	.LLST27:
 6403 0463 4E000000 		.4byte	.LVL230
ARM GAS  C:\Users\luvsd\AppData\Local\Temp\cc7qBZw4.s 			page 124


 6404 0467 68000000 		.4byte	.LVL234
 6405 046b 0100     		.2byte	0x1
 6406 046d 55       		.byte	0x55
 6407 046e 68000000 		.4byte	.LVL234
 6408 0472 6E000000 		.4byte	.LVL235
 6409 0476 0200     		.2byte	0x2
 6410 0478 30       		.byte	0x30
 6411 0479 9F       		.byte	0x9f
 6412 047a 00000000 		.4byte	0
 6413 047e 00000000 		.4byte	0
 6414              	.LLST28:
 6415 0482 00000000 		.4byte	.LVL237
 6416 0486 22000000 		.4byte	.LVL242
 6417 048a 0100     		.2byte	0x1
 6418 048c 50       		.byte	0x50
 6419 048d 22000000 		.4byte	.LVL242
 6420 0491 70000000 		.4byte	.LVL256
 6421 0495 0100     		.2byte	0x1
 6422 0497 57       		.byte	0x57
 6423 0498 00000000 		.4byte	0
 6424 049c 00000000 		.4byte	0
 6425              	.LLST29:
 6426 04a0 00000000 		.4byte	.LVL237
 6427 04a4 31000000 		.4byte	.LVL246-1
 6428 04a8 0100     		.2byte	0x1
 6429 04aa 51       		.byte	0x51
 6430 04ab 31000000 		.4byte	.LVL246-1
 6431 04af 78000000 		.4byte	.LFE79
 6432 04b3 0400     		.2byte	0x4
 6433 04b5 F3       		.byte	0xf3
 6434 04b6 01       		.uleb128 0x1
 6435 04b7 51       		.byte	0x51
 6436 04b8 9F       		.byte	0x9f
 6437 04b9 00000000 		.4byte	0
 6438 04bd 00000000 		.4byte	0
 6439              	.LLST30:
 6440 04c1 00000000 		.4byte	.LVL237
 6441 04c5 0A000000 		.4byte	.LVL238
 6442 04c9 0100     		.2byte	0x1
 6443 04cb 52       		.byte	0x52
 6444 04cc 0A000000 		.4byte	.LVL238
 6445 04d0 4E000000 		.4byte	.LVL250
 6446 04d4 0100     		.2byte	0x1
 6447 04d6 55       		.byte	0x55
 6448 04d7 4E000000 		.4byte	.LVL250
 6449 04db 78000000 		.4byte	.LFE79
 6450 04df 0400     		.2byte	0x4
 6451 04e1 F3       		.byte	0xf3
 6452 04e2 01       		.uleb128 0x1
 6453 04e3 52       		.byte	0x52
 6454 04e4 9F       		.byte	0x9f
 6455 04e5 00000000 		.4byte	0
 6456 04e9 00000000 		.4byte	0
 6457              	.LLST31:
 6458 04ed 00000000 		.4byte	.LVL237
 6459 04f1 18000000 		.4byte	.LVL239
 6460 04f5 0100     		.2byte	0x1
ARM GAS  C:\Users\luvsd\AppData\Local\Temp\cc7qBZw4.s 			page 125


 6461 04f7 53       		.byte	0x53
 6462 04f8 18000000 		.4byte	.LVL239
 6463 04fc 1A000000 		.4byte	.LVL240
 6464 0500 0400     		.2byte	0x4
 6465 0502 F3       		.byte	0xf3
 6466 0503 01       		.uleb128 0x1
 6467 0504 53       		.byte	0x53
 6468 0505 9F       		.byte	0x9f
 6469 0506 1A000000 		.4byte	.LVL240
 6470 050a 31000000 		.4byte	.LVL246-1
 6471 050e 0100     		.2byte	0x1
 6472 0510 53       		.byte	0x53
 6473 0511 00000000 		.4byte	0
 6474 0515 00000000 		.4byte	0
 6475              	.LLST32:
 6476 0519 44000000 		.4byte	.LVL248
 6477 051d 6E000000 		.4byte	.LVL255
 6478 0521 0100     		.2byte	0x1
 6479 0523 56       		.byte	0x56
 6480 0524 00000000 		.4byte	0
 6481 0528 00000000 		.4byte	0
 6482              	.LLST33:
 6483 052c 28000000 		.4byte	.LVL243
 6484 0530 2A000000 		.4byte	.LVL244
 6485 0534 0100     		.2byte	0x1
 6486 0536 54       		.byte	0x54
 6487 0537 2C000000 		.4byte	.LVL245
 6488 053b 6E000000 		.4byte	.LVL255
 6489 053f 0100     		.2byte	0x1
 6490 0541 54       		.byte	0x54
 6491 0542 00000000 		.4byte	0
 6492 0546 00000000 		.4byte	0
 6493              	.LLST34:
 6494 054a 4E000000 		.4byte	.LVL250
 6495 054e 68000000 		.4byte	.LVL254
 6496 0552 0100     		.2byte	0x1
 6497 0554 55       		.byte	0x55
 6498 0555 68000000 		.4byte	.LVL254
 6499 0559 6E000000 		.4byte	.LVL255
 6500 055d 0200     		.2byte	0x2
 6501 055f 30       		.byte	0x30
 6502 0560 9F       		.byte	0x9f
 6503 0561 00000000 		.4byte	0
 6504 0565 00000000 		.4byte	0
 6505              	.LLST35:
 6506 0569 00000000 		.4byte	.LVL257
 6507 056d 08000000 		.4byte	.LVL258
 6508 0571 0100     		.2byte	0x1
 6509 0573 50       		.byte	0x50
 6510 0574 08000000 		.4byte	.LVL258
 6511 0578 92000000 		.4byte	.LVL275
 6512 057c 0100     		.2byte	0x1
 6513 057e 54       		.byte	0x54
 6514 057f 92000000 		.4byte	.LVL275
 6515 0583 98000000 		.4byte	.LFE80
 6516 0587 0400     		.2byte	0x4
 6517 0589 F3       		.byte	0xf3
ARM GAS  C:\Users\luvsd\AppData\Local\Temp\cc7qBZw4.s 			page 126


 6518 058a 01       		.uleb128 0x1
 6519 058b 50       		.byte	0x50
 6520 058c 9F       		.byte	0x9f
 6521 058d 00000000 		.4byte	0
 6522 0591 00000000 		.4byte	0
 6523              	.LLST36:
 6524 0595 00000000 		.4byte	.LVL257
 6525 0599 08000000 		.4byte	.LVL258
 6526 059d 0100     		.2byte	0x1
 6527 059f 51       		.byte	0x51
 6528 05a0 08000000 		.4byte	.LVL258
 6529 05a4 92000000 		.4byte	.LVL276
 6530 05a8 0100     		.2byte	0x1
 6531 05aa 55       		.byte	0x55
 6532 05ab 92000000 		.4byte	.LVL276
 6533 05af 98000000 		.4byte	.LFE80
 6534 05b3 0400     		.2byte	0x4
 6535 05b5 F3       		.byte	0xf3
 6536 05b6 01       		.uleb128 0x1
 6537 05b7 51       		.byte	0x51
 6538 05b8 9F       		.byte	0x9f
 6539 05b9 00000000 		.4byte	0
 6540 05bd 00000000 		.4byte	0
 6541              	.LLST37:
 6542 05c1 00000000 		.4byte	.LVL277
 6543 05c5 0A000000 		.4byte	.LVL278
 6544 05c9 0100     		.2byte	0x1
 6545 05cb 50       		.byte	0x50
 6546 05cc 0A000000 		.4byte	.LVL278
 6547 05d0 7C000000 		.4byte	.LVL294
 6548 05d4 0100     		.2byte	0x1
 6549 05d6 55       		.byte	0x55
 6550 05d7 7C000000 		.4byte	.LVL294
 6551 05db 86000000 		.4byte	.LVL297
 6552 05df 0100     		.2byte	0x1
 6553 05e1 57       		.byte	0x57
 6554 05e2 86000000 		.4byte	.LVL297
 6555 05e6 9E000000 		.4byte	.LVL301
 6556 05ea 0100     		.2byte	0x1
 6557 05ec 55       		.byte	0x55
 6558 05ed 00000000 		.4byte	0
 6559 05f1 00000000 		.4byte	0
 6560              	.LLST38:
 6561 05f5 00000000 		.4byte	.LVL277
 6562 05f9 0A000000 		.4byte	.LVL278
 6563 05fd 0100     		.2byte	0x1
 6564 05ff 51       		.byte	0x51
 6565 0600 0A000000 		.4byte	.LVL278
 6566 0604 6A000000 		.4byte	.LVL290
 6567 0608 0100     		.2byte	0x1
 6568 060a 54       		.byte	0x54
 6569 060b 6A000000 		.4byte	.LVL290
 6570 060f A4000000 		.4byte	.LFE81
 6571 0613 0400     		.2byte	0x4
 6572 0615 F3       		.byte	0xf3
 6573 0616 01       		.uleb128 0x1
 6574 0617 51       		.byte	0x51
ARM GAS  C:\Users\luvsd\AppData\Local\Temp\cc7qBZw4.s 			page 127


 6575 0618 9F       		.byte	0x9f
 6576 0619 00000000 		.4byte	0
 6577 061d 00000000 		.4byte	0
 6578              	.LLST39:
 6579 0621 00000000 		.4byte	.LVL277
 6580 0625 0A000000 		.4byte	.LVL278
 6581 0629 0100     		.2byte	0x1
 6582 062b 52       		.byte	0x52
 6583 062c 0A000000 		.4byte	.LVL278
 6584 0630 9E000000 		.4byte	.LVL302
 6585 0634 0100     		.2byte	0x1
 6586 0636 56       		.byte	0x56
 6587 0637 9E000000 		.4byte	.LVL302
 6588 063b A4000000 		.4byte	.LFE81
 6589 063f 0400     		.2byte	0x4
 6590 0641 F3       		.byte	0xf3
 6591 0642 01       		.uleb128 0x1
 6592 0643 52       		.byte	0x52
 6593 0644 9F       		.byte	0x9f
 6594 0645 00000000 		.4byte	0
 6595 0649 00000000 		.4byte	0
 6596              	.LLST40:
 6597 064d 68000000 		.4byte	.LVL289
 6598 0651 6C000000 		.4byte	.LVL291
 6599 0655 0200     		.2byte	0x2
 6600 0657 30       		.byte	0x30
 6601 0658 9F       		.byte	0x9f
 6602 0659 6C000000 		.4byte	.LVL291
 6603 065d 9E000000 		.4byte	.LVL300
 6604 0661 0100     		.2byte	0x1
 6605 0663 54       		.byte	0x54
 6606 0664 00000000 		.4byte	0
 6607 0668 00000000 		.4byte	0
 6608              	.LLST41:
 6609 066c 00000000 		.4byte	.LVL303
 6610 0670 0C000000 		.4byte	.LVL304
 6611 0674 0100     		.2byte	0x1
 6612 0676 50       		.byte	0x50
 6613 0677 0C000000 		.4byte	.LVL304
 6614 067b 84000000 		.4byte	.LVL321
 6615 067f 0100     		.2byte	0x1
 6616 0681 55       		.byte	0x55
 6617 0682 84000000 		.4byte	.LVL321
 6618 0686 8E000000 		.4byte	.LVL324
 6619 068a 0100     		.2byte	0x1
 6620 068c 56       		.byte	0x56
 6621 068d 8E000000 		.4byte	.LVL324
 6622 0691 AE000000 		.4byte	.LVL329
 6623 0695 0100     		.2byte	0x1
 6624 0697 55       		.byte	0x55
 6625 0698 00000000 		.4byte	0
 6626 069c 00000000 		.4byte	0
 6627              	.LLST42:
 6628 06a0 00000000 		.4byte	.LVL303
 6629 06a4 0C000000 		.4byte	.LVL304
 6630 06a8 0100     		.2byte	0x1
 6631 06aa 51       		.byte	0x51
ARM GAS  C:\Users\luvsd\AppData\Local\Temp\cc7qBZw4.s 			page 128


 6632 06ab 0C000000 		.4byte	.LVL304
 6633 06af 42000000 		.4byte	.LVL310
 6634 06b3 0100     		.2byte	0x1
 6635 06b5 56       		.byte	0x56
 6636 06b6 42000000 		.4byte	.LVL310
 6637 06ba 7A000000 		.4byte	.LVL318
 6638 06be 0100     		.2byte	0x1
 6639 06c0 54       		.byte	0x54
 6640 06c1 00000000 		.4byte	0
 6641 06c5 00000000 		.4byte	0
 6642              	.LLST43:
 6643 06c9 00000000 		.4byte	.LVL303
 6644 06cd 0C000000 		.4byte	.LVL304
 6645 06d1 0100     		.2byte	0x1
 6646 06d3 52       		.byte	0x52
 6647 06d4 0C000000 		.4byte	.LVL304
 6648 06d8 42000000 		.4byte	.LVL310
 6649 06dc 0100     		.2byte	0x1
 6650 06de 54       		.byte	0x54
 6651 06df 42000000 		.4byte	.LVL310
 6652 06e3 B4000000 		.4byte	.LFE82
 6653 06e7 0400     		.2byte	0x4
 6654 06e9 F3       		.byte	0xf3
 6655 06ea 01       		.uleb128 0x1
 6656 06eb 52       		.byte	0x52
 6657 06ec 9F       		.byte	0x9f
 6658 06ed 00000000 		.4byte	0
 6659 06f1 00000000 		.4byte	0
 6660              	.LLST44:
 6661 06f5 00000000 		.4byte	.LVL303
 6662 06f9 0C000000 		.4byte	.LVL304
 6663 06fd 0100     		.2byte	0x1
 6664 06ff 53       		.byte	0x53
 6665 0700 0C000000 		.4byte	.LVL304
 6666 0704 32000000 		.4byte	.LVL306
 6667 0708 0100     		.2byte	0x1
 6668 070a 57       		.byte	0x57
 6669 070b 32000000 		.4byte	.LVL306
 6670 070f 34000000 		.4byte	.LVL307
 6671 0713 0400     		.2byte	0x4
 6672 0715 F3       		.byte	0xf3
 6673 0716 01       		.uleb128 0x1
 6674 0717 53       		.byte	0x53
 6675 0718 9F       		.byte	0x9f
 6676 0719 34000000 		.4byte	.LVL307
 6677 071d AE000000 		.4byte	.LVL330
 6678 0721 0100     		.2byte	0x1
 6679 0723 57       		.byte	0x57
 6680 0724 00000000 		.4byte	0
 6681 0728 00000000 		.4byte	0
 6682              	.LLST45:
 6683 072c 78000000 		.4byte	.LVL317
 6684 0730 7C000000 		.4byte	.LVL319
 6685 0734 0200     		.2byte	0x2
 6686 0736 30       		.byte	0x30
 6687 0737 9F       		.byte	0x9f
 6688 0738 7C000000 		.4byte	.LVL319
ARM GAS  C:\Users\luvsd\AppData\Local\Temp\cc7qBZw4.s 			page 129


 6689 073c AE000000 		.4byte	.LVL328
 6690 0740 0100     		.2byte	0x1
 6691 0742 54       		.byte	0x54
 6692 0743 00000000 		.4byte	0
 6693 0747 00000000 		.4byte	0
 6694              	.LLST46:
 6695 074b 00000000 		.4byte	.LVL331
 6696 074f 22000000 		.4byte	.LVL336
 6697 0753 0100     		.2byte	0x1
 6698 0755 50       		.byte	0x50
 6699 0756 22000000 		.4byte	.LVL336
 6700 075a 70000000 		.4byte	.LVL350
 6701 075e 0100     		.2byte	0x1
 6702 0760 57       		.byte	0x57
 6703 0761 00000000 		.4byte	0
 6704 0765 00000000 		.4byte	0
 6705              	.LLST47:
 6706 0769 00000000 		.4byte	.LVL331
 6707 076d 31000000 		.4byte	.LVL340-1
 6708 0771 0100     		.2byte	0x1
 6709 0773 51       		.byte	0x51
 6710 0774 31000000 		.4byte	.LVL340-1
 6711 0778 78000000 		.4byte	.LFE83
 6712 077c 0400     		.2byte	0x4
 6713 077e F3       		.byte	0xf3
 6714 077f 01       		.uleb128 0x1
 6715 0780 51       		.byte	0x51
 6716 0781 9F       		.byte	0x9f
 6717 0782 00000000 		.4byte	0
 6718 0786 00000000 		.4byte	0
 6719              	.LLST48:
 6720 078a 00000000 		.4byte	.LVL331
 6721 078e 0A000000 		.4byte	.LVL332
 6722 0792 0100     		.2byte	0x1
 6723 0794 52       		.byte	0x52
 6724 0795 0A000000 		.4byte	.LVL332
 6725 0799 4E000000 		.4byte	.LVL344
 6726 079d 0100     		.2byte	0x1
 6727 079f 55       		.byte	0x55
 6728 07a0 4E000000 		.4byte	.LVL344
 6729 07a4 78000000 		.4byte	.LFE83
 6730 07a8 0400     		.2byte	0x4
 6731 07aa F3       		.byte	0xf3
 6732 07ab 01       		.uleb128 0x1
 6733 07ac 52       		.byte	0x52
 6734 07ad 9F       		.byte	0x9f
 6735 07ae 00000000 		.4byte	0
 6736 07b2 00000000 		.4byte	0
 6737              	.LLST49:
 6738 07b6 00000000 		.4byte	.LVL331
 6739 07ba 18000000 		.4byte	.LVL333
 6740 07be 0100     		.2byte	0x1
 6741 07c0 53       		.byte	0x53
 6742 07c1 18000000 		.4byte	.LVL333
 6743 07c5 1A000000 		.4byte	.LVL334
 6744 07c9 0400     		.2byte	0x4
 6745 07cb F3       		.byte	0xf3
ARM GAS  C:\Users\luvsd\AppData\Local\Temp\cc7qBZw4.s 			page 130


 6746 07cc 01       		.uleb128 0x1
 6747 07cd 53       		.byte	0x53
 6748 07ce 9F       		.byte	0x9f
 6749 07cf 1A000000 		.4byte	.LVL334
 6750 07d3 31000000 		.4byte	.LVL340-1
 6751 07d7 0100     		.2byte	0x1
 6752 07d9 53       		.byte	0x53
 6753 07da 00000000 		.4byte	0
 6754 07de 00000000 		.4byte	0
 6755              	.LLST50:
 6756 07e2 44000000 		.4byte	.LVL342
 6757 07e6 6E000000 		.4byte	.LVL349
 6758 07ea 0100     		.2byte	0x1
 6759 07ec 56       		.byte	0x56
 6760 07ed 00000000 		.4byte	0
 6761 07f1 00000000 		.4byte	0
 6762              	.LLST51:
 6763 07f5 28000000 		.4byte	.LVL337
 6764 07f9 2A000000 		.4byte	.LVL338
 6765 07fd 0100     		.2byte	0x1
 6766 07ff 54       		.byte	0x54
 6767 0800 2C000000 		.4byte	.LVL339
 6768 0804 6E000000 		.4byte	.LVL349
 6769 0808 0100     		.2byte	0x1
 6770 080a 54       		.byte	0x54
 6771 080b 00000000 		.4byte	0
 6772 080f 00000000 		.4byte	0
 6773              	.LLST52:
 6774 0813 4E000000 		.4byte	.LVL344
 6775 0817 68000000 		.4byte	.LVL348
 6776 081b 0100     		.2byte	0x1
 6777 081d 55       		.byte	0x55
 6778 081e 68000000 		.4byte	.LVL348
 6779 0822 6E000000 		.4byte	.LVL349
 6780 0826 0200     		.2byte	0x2
 6781 0828 30       		.byte	0x30
 6782 0829 9F       		.byte	0x9f
 6783 082a 00000000 		.4byte	0
 6784 082e 00000000 		.4byte	0
 6785              	.LLST53:
 6786 0832 00000000 		.4byte	.LVL351
 6787 0836 22000000 		.4byte	.LVL356
 6788 083a 0100     		.2byte	0x1
 6789 083c 50       		.byte	0x50
 6790 083d 22000000 		.4byte	.LVL356
 6791 0841 70000000 		.4byte	.LVL370
 6792 0845 0100     		.2byte	0x1
 6793 0847 57       		.byte	0x57
 6794 0848 00000000 		.4byte	0
 6795 084c 00000000 		.4byte	0
 6796              	.LLST54:
 6797 0850 00000000 		.4byte	.LVL351
 6798 0854 31000000 		.4byte	.LVL360-1
 6799 0858 0100     		.2byte	0x1
 6800 085a 51       		.byte	0x51
 6801 085b 31000000 		.4byte	.LVL360-1
 6802 085f 78000000 		.4byte	.LFE84
ARM GAS  C:\Users\luvsd\AppData\Local\Temp\cc7qBZw4.s 			page 131


 6803 0863 0400     		.2byte	0x4
 6804 0865 F3       		.byte	0xf3
 6805 0866 01       		.uleb128 0x1
 6806 0867 51       		.byte	0x51
 6807 0868 9F       		.byte	0x9f
 6808 0869 00000000 		.4byte	0
 6809 086d 00000000 		.4byte	0
 6810              	.LLST55:
 6811 0871 00000000 		.4byte	.LVL351
 6812 0875 0A000000 		.4byte	.LVL352
 6813 0879 0100     		.2byte	0x1
 6814 087b 52       		.byte	0x52
 6815 087c 0A000000 		.4byte	.LVL352
 6816 0880 4E000000 		.4byte	.LVL364
 6817 0884 0100     		.2byte	0x1
 6818 0886 55       		.byte	0x55
 6819 0887 4E000000 		.4byte	.LVL364
 6820 088b 78000000 		.4byte	.LFE84
 6821 088f 0400     		.2byte	0x4
 6822 0891 F3       		.byte	0xf3
 6823 0892 01       		.uleb128 0x1
 6824 0893 52       		.byte	0x52
 6825 0894 9F       		.byte	0x9f
 6826 0895 00000000 		.4byte	0
 6827 0899 00000000 		.4byte	0
 6828              	.LLST56:
 6829 089d 00000000 		.4byte	.LVL351
 6830 08a1 18000000 		.4byte	.LVL353
 6831 08a5 0100     		.2byte	0x1
 6832 08a7 53       		.byte	0x53
 6833 08a8 18000000 		.4byte	.LVL353
 6834 08ac 1A000000 		.4byte	.LVL354
 6835 08b0 0400     		.2byte	0x4
 6836 08b2 F3       		.byte	0xf3
 6837 08b3 01       		.uleb128 0x1
 6838 08b4 53       		.byte	0x53
 6839 08b5 9F       		.byte	0x9f
 6840 08b6 1A000000 		.4byte	.LVL354
 6841 08ba 31000000 		.4byte	.LVL360-1
 6842 08be 0100     		.2byte	0x1
 6843 08c0 53       		.byte	0x53
 6844 08c1 00000000 		.4byte	0
 6845 08c5 00000000 		.4byte	0
 6846              	.LLST57:
 6847 08c9 44000000 		.4byte	.LVL362
 6848 08cd 6E000000 		.4byte	.LVL369
 6849 08d1 0100     		.2byte	0x1
 6850 08d3 56       		.byte	0x56
 6851 08d4 00000000 		.4byte	0
 6852 08d8 00000000 		.4byte	0
 6853              	.LLST58:
 6854 08dc 28000000 		.4byte	.LVL357
 6855 08e0 2A000000 		.4byte	.LVL358
 6856 08e4 0100     		.2byte	0x1
 6857 08e6 54       		.byte	0x54
 6858 08e7 2C000000 		.4byte	.LVL359
 6859 08eb 6E000000 		.4byte	.LVL369
ARM GAS  C:\Users\luvsd\AppData\Local\Temp\cc7qBZw4.s 			page 132


 6860 08ef 0100     		.2byte	0x1
 6861 08f1 54       		.byte	0x54
 6862 08f2 00000000 		.4byte	0
 6863 08f6 00000000 		.4byte	0
 6864              	.LLST59:
 6865 08fa 4E000000 		.4byte	.LVL364
 6866 08fe 68000000 		.4byte	.LVL368
 6867 0902 0100     		.2byte	0x1
 6868 0904 55       		.byte	0x55
 6869 0905 68000000 		.4byte	.LVL368
 6870 0909 6E000000 		.4byte	.LVL369
 6871 090d 0200     		.2byte	0x2
 6872 090f 30       		.byte	0x30
 6873 0910 9F       		.byte	0x9f
 6874 0911 00000000 		.4byte	0
 6875 0915 00000000 		.4byte	0
 6876              		.section	.debug_aranges,"",%progbits
 6877 0000 DC000000 		.4byte	0xdc
 6878 0004 0200     		.2byte	0x2
 6879 0006 00000000 		.4byte	.Ldebug_info0
 6880 000a 04       		.byte	0x4
 6881 000b 00       		.byte	0
 6882 000c 0000     		.2byte	0
 6883 000e 0000     		.2byte	0
 6884 0010 00000000 		.4byte	.LFB60
 6885 0014 64000000 		.4byte	.LFE60-.LFB60
 6886 0018 00000000 		.4byte	.LFB61
 6887 001c 78000000 		.4byte	.LFE61-.LFB61
 6888 0020 00000000 		.4byte	.LFB62
 6889 0024 34000000 		.4byte	.LFE62-.LFB62
 6890 0028 00000000 		.4byte	.LFB63
 6891 002c 34000000 		.4byte	.LFE63-.LFB63
 6892 0030 00000000 		.4byte	.LFB64
 6893 0034 F0000000 		.4byte	.LFE64-.LFB64
 6894 0038 00000000 		.4byte	.LFB65
 6895 003c 64000000 		.4byte	.LFE65-.LFB65
 6896 0040 00000000 		.4byte	.LFB66
 6897 0044 54000000 		.4byte	.LFE66-.LFB66
 6898 0048 00000000 		.4byte	.LFB67
 6899 004c FC000000 		.4byte	.LFE67-.LFB67
 6900 0050 00000000 		.4byte	.LFB68
 6901 0054 50000000 		.4byte	.LFE68-.LFB68
 6902 0058 00000000 		.4byte	.LFB69
 6903 005c 7C000000 		.4byte	.LFE69-.LFB69
 6904 0060 00000000 		.4byte	.LFB70
 6905 0064 88000000 		.4byte	.LFE70-.LFB70
 6906 0068 00000000 		.4byte	.LFB71
 6907 006c 14000000 		.4byte	.LFE71-.LFB71
 6908 0070 00000000 		.4byte	.LFB72
 6909 0074 14000000 		.4byte	.LFE72-.LFB72
 6910 0078 00000000 		.4byte	.LFB73
 6911 007c 14000000 		.4byte	.LFE73-.LFB73
 6912 0080 00000000 		.4byte	.LFB74
 6913 0084 14000000 		.4byte	.LFE74-.LFB74
 6914 0088 00000000 		.4byte	.LFB75
 6915 008c 14000000 		.4byte	.LFE75-.LFB75
 6916 0090 00000000 		.4byte	.LFB76
ARM GAS  C:\Users\luvsd\AppData\Local\Temp\cc7qBZw4.s 			page 133


 6917 0094 84000000 		.4byte	.LFE76-.LFB76
 6918 0098 00000000 		.4byte	.LFB77
 6919 009c B8000000 		.4byte	.LFE77-.LFB77
 6920 00a0 00000000 		.4byte	.LFB78
 6921 00a4 78000000 		.4byte	.LFE78-.LFB78
 6922 00a8 00000000 		.4byte	.LFB79
 6923 00ac 78000000 		.4byte	.LFE79-.LFB79
 6924 00b0 00000000 		.4byte	.LFB80
 6925 00b4 98000000 		.4byte	.LFE80-.LFB80
 6926 00b8 00000000 		.4byte	.LFB81
 6927 00bc A4000000 		.4byte	.LFE81-.LFB81
 6928 00c0 00000000 		.4byte	.LFB82
 6929 00c4 B4000000 		.4byte	.LFE82-.LFB82
 6930 00c8 00000000 		.4byte	.LFB83
 6931 00cc 78000000 		.4byte	.LFE83-.LFB83
 6932 00d0 00000000 		.4byte	.LFB84
 6933 00d4 78000000 		.4byte	.LFE84-.LFB84
 6934 00d8 00000000 		.4byte	0
 6935 00dc 00000000 		.4byte	0
 6936              		.section	.debug_ranges,"",%progbits
 6937              	.Ldebug_ranges0:
 6938 0000 00000000 		.4byte	.LFB60
 6939 0004 64000000 		.4byte	.LFE60
 6940 0008 00000000 		.4byte	.LFB61
 6941 000c 78000000 		.4byte	.LFE61
 6942 0010 00000000 		.4byte	.LFB62
 6943 0014 34000000 		.4byte	.LFE62
 6944 0018 00000000 		.4byte	.LFB63
 6945 001c 34000000 		.4byte	.LFE63
 6946 0020 00000000 		.4byte	.LFB64
 6947 0024 F0000000 		.4byte	.LFE64
 6948 0028 00000000 		.4byte	.LFB65
 6949 002c 64000000 		.4byte	.LFE65
 6950 0030 00000000 		.4byte	.LFB66
 6951 0034 54000000 		.4byte	.LFE66
 6952 0038 00000000 		.4byte	.LFB67
 6953 003c FC000000 		.4byte	.LFE67
 6954 0040 00000000 		.4byte	.LFB68
 6955 0044 50000000 		.4byte	.LFE68
 6956 0048 00000000 		.4byte	.LFB69
 6957 004c 7C000000 		.4byte	.LFE69
 6958 0050 00000000 		.4byte	.LFB70
 6959 0054 88000000 		.4byte	.LFE70
 6960 0058 00000000 		.4byte	.LFB71
 6961 005c 14000000 		.4byte	.LFE71
 6962 0060 00000000 		.4byte	.LFB72
 6963 0064 14000000 		.4byte	.LFE72
 6964 0068 00000000 		.4byte	.LFB73
 6965 006c 14000000 		.4byte	.LFE73
 6966 0070 00000000 		.4byte	.LFB74
 6967 0074 14000000 		.4byte	.LFE74
 6968 0078 00000000 		.4byte	.LFB75
 6969 007c 14000000 		.4byte	.LFE75
 6970 0080 00000000 		.4byte	.LFB76
 6971 0084 84000000 		.4byte	.LFE76
 6972 0088 00000000 		.4byte	.LFB77
 6973 008c B8000000 		.4byte	.LFE77
ARM GAS  C:\Users\luvsd\AppData\Local\Temp\cc7qBZw4.s 			page 134


 6974 0090 00000000 		.4byte	.LFB78
 6975 0094 78000000 		.4byte	.LFE78
 6976 0098 00000000 		.4byte	.LFB79
 6977 009c 78000000 		.4byte	.LFE79
 6978 00a0 00000000 		.4byte	.LFB80
 6979 00a4 98000000 		.4byte	.LFE80
 6980 00a8 00000000 		.4byte	.LFB81
 6981 00ac A4000000 		.4byte	.LFE81
 6982 00b0 00000000 		.4byte	.LFB82
 6983 00b4 B4000000 		.4byte	.LFE82
 6984 00b8 00000000 		.4byte	.LFB83
 6985 00bc 78000000 		.4byte	.LFE83
 6986 00c0 00000000 		.4byte	.LFB84
 6987 00c4 78000000 		.4byte	.LFE84
 6988 00c8 00000000 		.4byte	0
 6989 00cc 00000000 		.4byte	0
 6990              		.section	.debug_line,"",%progbits
 6991              	.Ldebug_line0:
 6992 0000 CD050000 		.section	.debug_str,"MS",%progbits,1
 6992      02007C01 
 6992      00000201 
 6992      FB0E0D00 
 6992      01010101 
 6993              	.LASF46:
 6994 0000 77323571 		.ascii	"w25qxx_t\000"
 6994      78785F74 
 6994      00
 6995              	.LASF39:
 6996 0009 426C6F63 		.ascii	"BlockSize\000"
 6996      6B53697A 
 6996      6500
 6997              	.LASF101:
 6998 0013 57323571 		.ascii	"W25qxx_ReadBlock\000"
 6998      78785F52 
 6998      65616442 
 6998      6C6F636B 
 6998      00
 6999              	.LASF102:
 7000 0024 4E756D42 		.ascii	"NumByteToRead_up_to_BlockSize\000"
 7000      79746554 
 7000      6F526561 
 7000      645F7570 
 7000      5F746F5F 
 7001              	.LASF86:
 7002 0042 42797465 		.ascii	"BytesToWrite\000"
 7002      73546F57 
 7002      72697465 
 7002      00
 7003              	.LASF67:
 7004 004f 57323571 		.ascii	"W25qxx_PageToSector\000"
 7004      78785F50 
 7004      61676554 
 7004      6F536563 
 7004      746F7200 
 7005              	.LASF64:
 7006 0063 53656374 		.ascii	"SectorAddr\000"
 7006      6F724164 
ARM GAS  C:\Users\luvsd\AppData\Local\Temp\cc7qBZw4.s 			page 135


 7006      647200
 7007              	.LASF80:
 7008 006e 4F666673 		.ascii	"OffsetInByte\000"
 7008      6574496E 
 7008      42797465 
 7008      00
 7009              	.LASF78:
 7010 007b 57323571 		.ascii	"W25qxx_WritePage\000"
 7010      78785F57 
 7010      72697465 
 7010      50616765 
 7010      00
 7011              	.LASF2:
 7012 008c 73686F72 		.ascii	"short int\000"
 7012      7420696E 
 7012      7400
 7013              	.LASF66:
 7014 0096 426C6F63 		.ascii	"BlockAddr\000"
 7014      6B416464 
 7014      7200
 7015              	.LASF22:
 7016 00a0 73697A65 		.ascii	"sizetype\000"
 7016      74797065 
 7016      00
 7017              	.LASF63:
 7018 00a9 57323571 		.ascii	"W25qxx_EraseSector\000"
 7018      78785F45 
 7018      72617365 
 7018      53656374 
 7018      6F7200
 7019              	.LASF75:
 7020 00bc 57323571 		.ascii	"W25qxx_WriteByte\000"
 7020      78785F57 
 7020      72697465 
 7020      42797465 
 7020      00
 7021              	.LASF89:
 7022 00cd 426C6F63 		.ascii	"Block_Address\000"
 7022      6B5F4164 
 7022      64726573 
 7022      7300
 7023              	.LASF21:
 7024 00db 6C6F6E67 		.ascii	"long double\000"
 7024      20646F75 
 7024      626C6500 
 7025              	.LASF109:
 7026 00e7 6D656D63 		.ascii	"memcpy\000"
 7026      707900
 7027              	.LASF98:
 7028 00ee 57323571 		.ascii	"W25qxx_ReadSector\000"
 7028      78785F52 
 7028      65616453 
 7028      6563746F 
 7028      7200
 7029              	.LASF4:
 7030 0100 5F5F7569 		.ascii	"__uint16_t\000"
 7030      6E743136 
ARM GAS  C:\Users\luvsd\AppData\Local\Temp\cc7qBZw4.s 			page 136


 7030      5F7400
 7031              	.LASF19:
 7032 010b 646F7562 		.ascii	"double\000"
 7032      6C6500
 7033              	.LASF25:
 7034 0112 57323551 		.ascii	"W25Q40\000"
 7034      343000
 7035              	.LASF53:
 7036 0119 57323571 		.ascii	"W25qxx_ReadID\000"
 7036      78785F52 
 7036      65616449 
 7036      4400
 7037              	.LASF90:
 7038 0127 4E756D42 		.ascii	"NumByteToWrite_up_to_BlockSize\000"
 7038      79746554 
 7038      6F577269 
 7038      74655F75 
 7038      705F746F 
 7039              	.LASF44:
 7040 0146 53746174 		.ascii	"StatusRegister3\000"
 7040      75735265 
 7040      67697374 
 7040      65723300 
 7041              	.LASF114:
 7042 0156 474E5520 		.ascii	"GNU C11 5.4.1 20160609 (release) [ARM/embedded-5-br"
 7042      43313120 
 7042      352E342E 
 7042      31203230 
 7042      31363036 
 7043 0189 616E6368 		.ascii	"anch revision 237715] -mcpu=cortex-m0 -mthumb -g -O"
 7043      20726576 
 7043      6973696F 
 7043      6E203233 
 7043      37373135 
 7044 01bc 67202D66 		.ascii	"g -ffunction-sections -ffat-lto-objects\000"
 7044      66756E63 
 7044      74696F6E 
 7044      2D736563 
 7044      74696F6E 
 7045              	.LASF81:
 7046 01e4 4E756D42 		.ascii	"NumByteToWrite_up_to_PageSize\000"
 7046      79746554 
 7046      6F577269 
 7046      74655F75 
 7046      705F746F 
 7047              	.LASF13:
 7048 0202 75696E74 		.ascii	"uint8_t\000"
 7048      385F7400 
 7049              	.LASF35:
 7050 020a 50616765 		.ascii	"PageSize\000"
 7050      53697A65 
 7050      00
 7051              	.LASF113:
 7052 0213 5350494D 		.ascii	"SPIM_FLASH_WriteTxData\000"
 7052      5F464C41 
 7052      53485F57 
 7052      72697465 
ARM GAS  C:\Users\luvsd\AppData\Local\Temp\cc7qBZw4.s 			page 137


 7052      54784461 
 7053              	.LASF47:
 7054 022a 72656164 		.ascii	"readDataNO\000"
 7054      44617461 
 7054      4E4F00
 7055              	.LASF26:
 7056 0235 57323551 		.ascii	"W25Q80\000"
 7056      383000
 7057              	.LASF51:
 7058 023c 57323571 		.ascii	"W25qxx_WriteEnable\000"
 7058      78785F57 
 7058      72697465 
 7058      456E6162 
 7058      6C6500
 7059              	.LASF48:
 7060 024f 54656D70 		.ascii	"Temp\000"
 7060      00
 7061              	.LASF18:
 7062 0254 666C6F61 		.ascii	"float\000"
 7062      7400
 7063              	.LASF84:
 7064 025a 4E756D42 		.ascii	"NumByteToWrite_up_to_SectorSize\000"
 7064      79746554 
 7064      6F577269 
 7064      74655F75 
 7064      705F746F 
 7065              	.LASF10:
 7066 027a 6C6F6E67 		.ascii	"long long int\000"
 7066      206C6F6E 
 7066      6720696E 
 7066      7400
 7067              	.LASF110:
 7068 0288 6D656D73 		.ascii	"memset\000"
 7068      657400
 7069              	.LASF60:
 7070 028f 57323571 		.ascii	"W25qxx_Init\000"
 7070      78785F49 
 7070      6E697400 
 7071              	.LASF93:
 7072 029b 57323571 		.ascii	"W25qxx_ReadBytes\000"
 7072      78785F52 
 7072      65616442 
 7072      79746573 
 7072      00
 7073              	.LASF45:
 7074 02ac 4C6F636B 		.ascii	"Lock\000"
 7074      00
 7075              	.LASF32:
 7076 02b1 57323551 		.ascii	"W25Q512\000"
 7076      35313200 
 7077              	.LASF23:
 7078 02b9 57323551 		.ascii	"W25Q10\000"
 7078      313000
 7079              	.LASF76:
 7080 02c0 70427566 		.ascii	"pBuffer\000"
 7080      66657200 
 7081              	.LASF57:
ARM GAS  C:\Users\luvsd\AppData\Local\Temp\cc7qBZw4.s 			page 138


 7082 02c8 53656C65 		.ascii	"SelectStatusRegister_1_2_3\000"
 7082      63745374 
 7082      61747573 
 7082      52656769 
 7082      73746572 
 7083              	.LASF27:
 7084 02e3 57323551 		.ascii	"W25Q16\000"
 7084      313600
 7085              	.LASF65:
 7086 02ea 57323571 		.ascii	"W25qxx_EraseBlock\000"
 7086      78785F45 
 7086      72617365 
 7086      426C6F63 
 7086      6B00
 7087              	.LASF1:
 7088 02fc 756E7369 		.ascii	"unsigned char\000"
 7088      676E6564 
 7088      20636861 
 7088      7200
 7089              	.LASF68:
 7090 030a 50616765 		.ascii	"PageAddress\000"
 7090      41646472 
 7090      65737300 
 7091              	.LASF56:
 7092 0316 57323571 		.ascii	"W25qxx_WriteStatusRegister\000"
 7092      78785F57 
 7092      72697465 
 7092      53746174 
 7092      75735265 
 7093              	.LASF79:
 7094 0331 50616765 		.ascii	"Page_Address\000"
 7094      5F416464 
 7094      72657373 
 7094      00
 7095              	.LASF103:
 7096 033e 4374726C 		.ascii	"Ctrl_MEM_SS_Write\000"
 7096      5F4D454D 
 7096      5F53535F 
 7096      57726974 
 7096      6500
 7097              	.LASF106:
 7098 0350 43794465 		.ascii	"CyDelayUs\000"
 7098      6C617955 
 7098      7300
 7099              	.LASF50:
 7100 035a 57323571 		.ascii	"W25qxx_ReadUniqID\000"
 7100      78785F52 
 7100      65616455 
 7100      6E697149 
 7100      4400
 7101              	.LASF62:
 7102 036c 57323571 		.ascii	"W25qxx_EraseChip\000"
 7102      78785F45 
 7102      72617365 
 7102      43686970 
 7102      00
 7103              	.LASF37:
ARM GAS  C:\Users\luvsd\AppData\Local\Temp\cc7qBZw4.s 			page 139


 7104 037d 53656374 		.ascii	"SectorSize\000"
 7104      6F725369 
 7104      7A6500
 7105              	.LASF82:
 7106 0388 57323571 		.ascii	"W25qxx_WriteSector\000"
 7106      78785F57 
 7106      72697465 
 7106      53656374 
 7106      6F7200
 7107              	.LASF0:
 7108 039b 7369676E 		.ascii	"signed char\000"
 7108      65642063 
 7108      68617200 
 7109              	.LASF15:
 7110 03a7 696E7433 		.ascii	"int32_t\000"
 7110      325F7400 
 7111              	.LASF11:
 7112 03af 6C6F6E67 		.ascii	"long long unsigned int\000"
 7112      206C6F6E 
 7112      6720756E 
 7112      7369676E 
 7112      65642069 
 7113              	.LASF16:
 7114 03c6 75696E74 		.ascii	"uint32_t\000"
 7114      33325F74 
 7114      00
 7115              	.LASF12:
 7116 03cf 756E7369 		.ascii	"unsigned int\000"
 7116      676E6564 
 7116      20696E74 
 7116      00
 7117              	.LASF107:
 7118 03dc 5350494D 		.ascii	"SPIM_FLASH_ReadRxData\000"
 7118      5F464C41 
 7118      53485F52 
 7118      65616452 
 7118      78446174 
 7119              	.LASF116:
 7120 03f2 433A5C53 		.ascii	"C:\\SUNTECH\\PSoC\\KVC_Reset\\Trim_Reset_2025.12.29"
 7120      554E5445 
 7120      43485C50 
 7120      536F435C 
 7120      4B56435F 
 7121 0421 5C547269 		.ascii	"\\Trim_count\\Project\\Design.cydsn\000"
 7121      6D5F636F 
 7121      756E745C 
 7121      50726F6A 
 7121      6563745C 
 7122              	.LASF3:
 7123 0442 5F5F7569 		.ascii	"__uint8_t\000"
 7123      6E74385F 
 7123      7400
 7124              	.LASF36:
 7125 044c 50616765 		.ascii	"PageCount\000"
 7125      436F756E 
 7125      7400
 7126              	.LASF73:
ARM GAS  C:\Users\luvsd\AppData\Local\Temp\cc7qBZw4.s 			page 140


 7127 0456 57323571 		.ascii	"W25qxx_BlockToPage\000"
 7127      78785F42 
 7127      6C6F636B 
 7127      546F5061 
 7127      676500
 7128              	.LASF41:
 7129 0469 43617061 		.ascii	"CapacityInKiloByte\000"
 7129      63697479 
 7129      496E4B69 
 7129      6C6F4279 
 7129      746500
 7130              	.LASF58:
 7131 047c 44617461 		.ascii	"Data\000"
 7131      00
 7132              	.LASF71:
 7133 0481 53656374 		.ascii	"SectorAddress\000"
 7133      6F724164 
 7133      64726573 
 7133      7300
 7134              	.LASF91:
 7135 048f 57323571 		.ascii	"W25qxx_ReadByte\000"
 7135      78785F52 
 7135      65616442 
 7135      79746500 
 7136              	.LASF69:
 7137 049f 57323571 		.ascii	"W25qxx_PageToBlock\000"
 7137      78785F50 
 7137      61676554 
 7137      6F426C6F 
 7137      636B00
 7138              	.LASF55:
 7139 04b2 73746174 		.ascii	"status\000"
 7139      757300
 7140              	.LASF83:
 7141 04b9 53656374 		.ascii	"Sector_Address\000"
 7141      6F725F41 
 7141      64647265 
 7141      737300
 7142              	.LASF20:
 7143 04c8 63686172 		.ascii	"char\000"
 7143      00
 7144              	.LASF14:
 7145 04cd 75696E74 		.ascii	"uint16_t\000"
 7145      31365F74 
 7145      00
 7146              	.LASF7:
 7147 04d6 6C6F6E67 		.ascii	"long int\000"
 7147      20696E74 
 7147      00
 7148              	.LASF87:
 7149 04df 4C6F6361 		.ascii	"LocalOffset\000"
 7149      6C4F6666 
 7149      73657400 
 7150              	.LASF95:
 7151 04eb 4E756D42 		.ascii	"NumByteToRead\000"
 7151      79746554 
 7151      6F526561 
ARM GAS  C:\Users\luvsd\AppData\Local\Temp\cc7qBZw4.s 			page 141


 7151      6400
 7152              	.LASF38:
 7153 04f9 53656374 		.ascii	"SectorCount\000"
 7153      6F72436F 
 7153      756E7400 
 7154              	.LASF24:
 7155 0505 57323551 		.ascii	"W25Q20\000"
 7155      323000
 7156              	.LASF104:
 7157 050c 5350494D 		.ascii	"SPIM_FLASH_PutArray\000"
 7157      5F464C41 
 7157      53485F50 
 7157      75744172 
 7157      72617900 
 7158              	.LASF28:
 7159 0520 57323551 		.ascii	"W25Q32\000"
 7159      333200
 7160              	.LASF115:
 7161 0527 6C69625C 		.ascii	"lib\\w25qxx.c\000"
 7161      77323571 
 7161      78782E63 
 7161      00
 7162              	.LASF61:
 7163 0534 5F426F6F 		.ascii	"_Bool\000"
 7163      6C00
 7164              	.LASF59:
 7165 053a 57323571 		.ascii	"W25qxx_WaitForWriteEnd\000"
 7165      78785F57 
 7165      61697446 
 7165      6F725772 
 7165      69746545 
 7166              	.LASF97:
 7167 0551 4E756D42 		.ascii	"NumByteToRead_up_to_PageSize\000"
 7167      79746554 
 7167      6F526561 
 7167      645F7570 
 7167      5F746F5F 
 7168              	.LASF92:
 7169 056e 42797465 		.ascii	"Bytes_Address\000"
 7169      735F4164 
 7169      64726573 
 7169      7300
 7170              	.LASF74:
 7171 057c 426C6F63 		.ascii	"BlockAddress\000"
 7171      6B416464 
 7171      72657373 
 7171      00
 7172              	.LASF49:
 7173 0589 64617461 		.ascii	"data\000"
 7173      00
 7174              	.LASF117:
 7175 058e 77323571 		.ascii	"w25qxx\000"
 7175      787800
 7176              	.LASF5:
 7177 0595 73686F72 		.ascii	"short unsigned int\000"
 7177      7420756E 
 7177      7369676E 
ARM GAS  C:\Users\luvsd\AppData\Local\Temp\cc7qBZw4.s 			page 142


 7177      65642069 
 7177      6E7400
 7178              	.LASF34:
 7179 05a8 556E6971 		.ascii	"UniqID\000"
 7179      494400
 7180              	.LASF72:
 7181 05af 57323571 		.ascii	"W25qxx_SectorToPage\000"
 7181      78785F53 
 7181      6563746F 
 7181      72546F50 
 7181      61676500 
 7182              	.LASF29:
 7183 05c3 57323551 		.ascii	"W25Q64\000"
 7183      363400
 7184              	.LASF9:
 7185 05ca 6C6F6E67 		.ascii	"long unsigned int\000"
 7185      20756E73 
 7185      69676E65 
 7185      6420696E 
 7185      7400
 7186              	.LASF77:
 7187 05dc 57726974 		.ascii	"WriteAddr_inBytes\000"
 7187      65416464 
 7187      725F696E 
 7187      42797465 
 7187      7300
 7188              	.LASF108:
 7189 05ee 5350494D 		.ascii	"SPIM_FLASH_GetRxBufferSize\000"
 7189      5F464C41 
 7189      53485F47 
 7189      65745278 
 7189      42756666 
 7190              	.LASF8:
 7191 0609 5F5F7569 		.ascii	"__uint32_t\000"
 7191      6E743332 
 7191      5F7400
 7192              	.LASF40:
 7193 0614 426C6F63 		.ascii	"BlockCount\000"
 7193      6B436F75 
 7193      6E7400
 7194              	.LASF99:
 7195 061f 4E756D42 		.ascii	"NumByteToRead_up_to_SectorSize\000"
 7195      79746554 
 7195      6F526561 
 7195      645F7570 
 7195      5F746F5F 
 7196              	.LASF31:
 7197 063e 57323551 		.ascii	"W25Q256\000"
 7197      32353600 
 7198              	.LASF6:
 7199 0646 5F5F696E 		.ascii	"__int32_t\000"
 7199      7433325F 
 7199      7400
 7200              	.LASF105:
 7201 0650 5350494D 		.ascii	"SPIM_FLASH_ReadTxStatus\000"
 7201      5F464C41 
 7201      53485F52 
ARM GAS  C:\Users\luvsd\AppData\Local\Temp\cc7qBZw4.s 			page 143


 7201      65616454 
 7201      78537461 
 7202              	.LASF111:
 7203 0668 5350494D 		.ascii	"SPIM_FLASH_ClearRxBuffer\000"
 7203      5F464C41 
 7203      53485F43 
 7203      6C656172 
 7203      52784275 
 7204              	.LASF100:
 7205 0681 42797465 		.ascii	"BytesToRead\000"
 7205      73546F52 
 7205      65616400 
 7206              	.LASF30:
 7207 068d 57323551 		.ascii	"W25Q128\000"
 7207      31323800 
 7208              	.LASF17:
 7209 0695 75696E74 		.ascii	"uint8\000"
 7209      3800
 7210              	.LASF85:
 7211 069b 53746172 		.ascii	"StartPage\000"
 7211      74506167 
 7211      6500
 7212              	.LASF33:
 7213 06a5 57323551 		.ascii	"W25QXX_ID_t\000"
 7213      58585F49 
 7213      445F7400 
 7214              	.LASF42:
 7215 06b1 53746174 		.ascii	"StatusRegister1\000"
 7215      75735265 
 7215      67697374 
 7215      65723100 
 7216              	.LASF43:
 7217 06c1 53746174 		.ascii	"StatusRegister2\000"
 7217      75735265 
 7217      67697374 
 7217      65723200 
 7218              	.LASF112:
 7219 06d1 43794465 		.ascii	"CyDelay\000"
 7219      6C617900 
 7220              	.LASF70:
 7221 06d9 57323571 		.ascii	"W25qxx_SectorToBlock\000"
 7221      78785F53 
 7221      6563746F 
 7221      72546F42 
 7221      6C6F636B 
 7222              	.LASF54:
 7223 06ee 57323571 		.ascii	"W25qxx_ReadStatusRegister\000"
 7223      78785F52 
 7223      65616453 
 7223      74617475 
 7223      73526567 
 7224              	.LASF88:
 7225 0708 57323571 		.ascii	"W25qxx_WriteBlock\000"
 7225      78785F57 
 7225      72697465 
 7225      426C6F63 
 7225      6B00
ARM GAS  C:\Users\luvsd\AppData\Local\Temp\cc7qBZw4.s 			page 144


 7226              	.LASF52:
 7227 071a 57323571 		.ascii	"W25qxx_WriteDisable\000"
 7227      78785F57 
 7227      72697465 
 7227      44697361 
 7227      626C6500 
 7228              	.LASF94:
 7229 072e 52656164 		.ascii	"ReadAddr\000"
 7229      41646472 
 7229      00
 7230              	.LASF96:
 7231 0737 57323571 		.ascii	"W25qxx_ReadPage\000"
 7231      78785F52 
 7231      65616450 
 7231      61676500 
 7232              		.ident	"GCC: (GNU Tools for ARM Embedded Processors) 5.4.1 20160609 (release) [ARM/embedded-5-bran
