ARM GAS  C:\Users\luvsd\AppData\Local\Temp\ccS26oY7.s 			page 1


   1              		.syntax unified
   2              		.cpu cortex-m0
   3              		.fpu softvfp
   4              		.eabi_attribute 20, 1
   5              		.eabi_attribute 21, 1
   6              		.eabi_attribute 23, 3
   7              		.eabi_attribute 24, 1
   8              		.eabi_attribute 25, 1
   9              		.eabi_attribute 26, 1
  10              		.eabi_attribute 30, 1
  11              		.eabi_attribute 34, 0
  12              		.eabi_attribute 18, 4
  13              		.thumb
  14              		.syntax unified
  15              		.file	"widget.c"
  16              		.text
  17              	.Ltext0:
  18              		.cfi_sections	.debug_frame
  19              		.section	.text.initWidget,"ax",%progbits
  20              		.align	2
  21              		.global	initWidget
  22              		.code	16
  23              		.thumb_func
  24              		.type	initWidget, %function
  25              	initWidget:
  26              	.LFB61:
  27              		.file 1 "lib\\widget.c"
   1:lib/widget.c  **** /* ========================================
   2:lib/widget.c  ****  *
   3:lib/widget.c  ****  * Copyright Suntech, 2023.02.01
   4:lib/widget.c  ****  * All Rights Reserved
   5:lib/widget.c  ****  * UNPUBLISHED, LICENSED SOFTWARE.
   6:lib/widget.c  ****  *
   7:lib/widget.c  ****  * CONFIDENTIAL AND PROPRIETARY INFORMATION
   8:lib/widget.c  ****  * WHICH IS THE PROPERTY OF your company.
   9:lib/widget.c  ****  *
  10:lib/widget.c  ****  * ========================================
  11:lib/widget.c  **** */
  12:lib/widget.c  **** #include "widget.h"
  13:lib/widget.c  **** #include "menuDesign.h"
  14:lib/widget.c  **** #include "image.h"
  15:lib/widget.c  **** #include "externalFlash.h"
  16:lib/widget.c  **** #include "UI.h"
  17:lib/widget.c  **** #include "LEDControl.h"
  18:lib/widget.c  **** 
  19:lib/widget.c  **** BUTTON g_btnBottom[2];
  20:lib/widget.c  **** 
  21:lib/widget.c  **** IMAGE g_imageUpArrow =
  22:lib/widget.c  **** {
  23:lib/widget.c  ****     .image = image_arrow_up,
  24:lib/widget.c  ****     .width = 32,
  25:lib/widget.c  ****     .height=32,
  26:lib/widget.c  **** };
  27:lib/widget.c  **** 
  28:lib/widget.c  **** IMAGE g_imageDownArrow =
  29:lib/widget.c  **** {
  30:lib/widget.c  ****     .image = image_arrow_down,
ARM GAS  C:\Users\luvsd\AppData\Local\Temp\ccS26oY7.s 			page 2


  31:lib/widget.c  ****     .width = 32,
  32:lib/widget.c  ****     .height=32,
  33:lib/widget.c  **** };
  34:lib/widget.c  **** 
  35:lib/widget.c  **** BUTTON      g_TitleBar;
  36:lib/widget.c  **** LIST_MENU   g_ListMenu;
  37:lib/widget.c  **** 
  38:lib/widget.c  **** IMAGE g_DownArrowImage;
  39:lib/widget.c  **** void initWidget()
  40:lib/widget.c  **** {
  28              		.loc 1 40 0
  29              		.cfi_startproc
  30              		@ args = 0, pretend = 0, frame = 0
  31              		@ frame_needed = 0, uses_anonymous_args = 0
  32 0000 10B5     		push	{r4, lr}
  33              		.cfi_def_cfa_offset 8
  34              		.cfi_offset 4, -8
  35              		.cfi_offset 14, -4
  41:lib/widget.c  ****     // title Bar - 전체 화면 너비 사용 /////////////////////////////////////
  42:lib/widget.c  ****     g_TitleBar.rect.right  = g_SCREEN_WIDTH - 1;  // WiFi 영역 제거, 전체 너비 사용
  36              		.loc 1 42 0
  37 0002 0A4C     		ldr	r4, .L2
  38 0004 0A4B     		ldr	r3, .L2+4
  39 0006 1B88     		ldrh	r3, [r3]
  40 0008 013B     		subs	r3, r3, #1
  41 000a E380     		strh	r3, [r4, #6]
  43:lib/widget.c  ****     g_TitleBar.rect.left   = 0;
  42              		.loc 1 43 0
  43 000c 0023     		movs	r3, #0
  44 000e A380     		strh	r3, [r4, #4]
  44:lib/widget.c  ****     g_TitleBar.rect.top    = 0;
  45              		.loc 1 44 0
  46 0010 2381     		strh	r3, [r4, #8]
  45:lib/widget.c  ****     g_TitleBar.rect.bottom = DEFAULT_TOP_TITLE_HEIGHT-2;
  47              		.loc 1 45 0
  48 0012 2633     		adds	r3, r3, #38
  49 0014 6381     		strh	r3, [r4, #10]
  46:lib/widget.c  **** 
  47:lib/widget.c  ****     SetButtonStyleColor(&g_TitleBar,BUTTON_STYLE_WHITE);
  50              		.loc 1 47 0
  51 0016 0521     		movs	r1, #5
  52 0018 2000     		movs	r0, r4
  53 001a FFF7FEFF 		bl	SetButtonStyleColor
  54              	.LVL0:
  48:lib/widget.c  ****     SetButtonText(&g_TitleBar,"Trim Reset");
  55              		.loc 1 48 0
  56 001e 0549     		ldr	r1, .L2+8
  57 0020 2000     		movs	r0, r4
  58 0022 FFF7FEFF 		bl	SetButtonText
  59              	.LVL1:
  49:lib/widget.c  **** 
  50:lib/widget.c  ****     initMenuDesign();
  60              		.loc 1 50 0
  61 0026 FFF7FEFF 		bl	initMenuDesign
  62              	.LVL2:
  51:lib/widget.c  **** }
  63              		.loc 1 51 0
ARM GAS  C:\Users\luvsd\AppData\Local\Temp\ccS26oY7.s 			page 3


  64              		@ sp needed
  65 002a 10BD     		pop	{r4, pc}
  66              	.L3:
  67              		.align	2
  68              	.L2:
  69 002c 00000000 		.word	g_TitleBar
  70 0030 00000000 		.word	g_SCREEN_WIDTH
  71 0034 00000000 		.word	.LC2
  72              		.cfi_endproc
  73              	.LFE61:
  74              		.size	initWidget, .-initWidget
  75              		.section	.text.SetDrawBottomButtons,"ax",%progbits
  76              		.align	2
  77              		.global	SetDrawBottomButtons
  78              		.code	16
  79              		.thumb_func
  80              		.type	SetDrawBottomButtons, %function
  81              	SetDrawBottomButtons:
  82              	.LFB62:
  52:lib/widget.c  **** 
  53:lib/widget.c  **** void SetDrawBottomButtons(char *leftText, char *rightText, uint16 styleLeft, uint16 styleRight)
  54:lib/widget.c  **** {
  83              		.loc 1 54 0
  84              		.cfi_startproc
  85              		@ args = 0, pretend = 0, frame = 16
  86              		@ frame_needed = 0, uses_anonymous_args = 0
  87              	.LVL3:
  88 0000 F0B5     		push	{r4, r5, r6, r7, lr}
  89              		.cfi_def_cfa_offset 20
  90              		.cfi_offset 4, -20
  91              		.cfi_offset 5, -16
  92              		.cfi_offset 6, -12
  93              		.cfi_offset 7, -8
  94              		.cfi_offset 14, -4
  95 0002 87B0     		sub	sp, sp, #28
  96              		.cfi_def_cfa_offset 48
  97 0004 0390     		str	r0, [sp, #12]
  98 0006 0491     		str	r1, [sp, #16]
  99 0008 1500     		movs	r5, r2
 100 000a 0593     		str	r3, [sp, #20]
 101              	.LVL4:
  55:lib/widget.c  ****     BUTTON *leftButton  = &g_btnBottom[0];
  56:lib/widget.c  ****     BUTTON *rightButton = &g_btnBottom[1];
  57:lib/widget.c  ****     
  58:lib/widget.c  ****     SetDefaultButtonStyle(leftButton);
 102              		.loc 1 58 0
 103 000c 1F4C     		ldr	r4, .L9
 104 000e 2000     		movs	r0, r4
 105              	.LVL5:
 106 0010 FFF7FEFF 		bl	SetDefaultButtonStyle
 107              	.LVL6:
  59:lib/widget.c  ****     SetButtonStyleColor(leftButton,  styleLeft);    
 108              		.loc 1 59 0
 109 0014 2900     		movs	r1, r5
 110 0016 2000     		movs	r0, r4
 111 0018 FFF7FEFF 		bl	SetButtonStyleColor
 112              	.LVL7:
ARM GAS  C:\Users\luvsd\AppData\Local\Temp\ccS26oY7.s 			page 4


  60:lib/widget.c  ****     SetButtonSize(leftButton, 0,g_DEFAULT_BUTTON_HEIGHT,BUTTON_X_1_2,BUTTON_Y_BOTTOM,FALSE);
 113              		.loc 1 60 0
 114 001c 1C4D     		ldr	r5, .L9+4
 115 001e 2A88     		ldrh	r2, [r5]
 116 0020 0026     		movs	r6, #0
 117 0022 0196     		str	r6, [sp, #4]
 118 0024 1427     		movs	r7, #20
 119 0026 0097     		str	r7, [sp]
 120 0028 0223     		movs	r3, #2
 121 002a 0021     		movs	r1, #0
 122 002c 2000     		movs	r0, r4
 123 002e FFF7FEFF 		bl	SetButtonSize
 124              	.LVL8:
  61:lib/widget.c  **** 
  62:lib/widget.c  ****     SetDefaultButtonStyle(rightButton);
 125              		.loc 1 62 0
 126 0032 4034     		adds	r4, r4, #64
 127 0034 2000     		movs	r0, r4
 128 0036 FFF7FEFF 		bl	SetDefaultButtonStyle
 129              	.LVL9:
  63:lib/widget.c  ****     SetButtonStyleColor(rightButton, styleRight);
 130              		.loc 1 63 0
 131 003a 0599     		ldr	r1, [sp, #20]
 132 003c 2000     		movs	r0, r4
 133 003e FFF7FEFF 		bl	SetButtonStyleColor
 134              	.LVL10:
  64:lib/widget.c  ****     SetButtonSize(rightButton,0,g_DEFAULT_BUTTON_HEIGHT,BUTTON_X_2_2,BUTTON_Y_BOTTOM,FALSE);       
 135              		.loc 1 64 0
 136 0042 2A88     		ldrh	r2, [r5]
 137 0044 0196     		str	r6, [sp, #4]
 138 0046 0097     		str	r7, [sp]
 139 0048 0323     		movs	r3, #3
 140 004a 0021     		movs	r1, #0
 141 004c 2000     		movs	r0, r4
 142 004e FFF7FEFF 		bl	SetButtonSize
 143              	.LVL11:
  65:lib/widget.c  ****  
  66:lib/widget.c  ****     // Bottom left Button       
  67:lib/widget.c  ****     if(leftText != NULL)
 144              		.loc 1 67 0
 145 0052 039B     		ldr	r3, [sp, #12]
 146 0054 002B     		cmp	r3, #0
 147 0056 04D0     		beq	.L5
  68:lib/widget.c  ****     {
  69:lib/widget.c  ****         SetButtonText(leftButton, leftText);
 148              		.loc 1 69 0
 149 0058 1900     		movs	r1, r3
 150 005a 0C48     		ldr	r0, .L9
 151 005c FFF7FEFF 		bl	SetButtonText
 152              	.LVL12:
 153 0060 02E0     		b	.L6
 154              	.L5:
  70:lib/widget.c  ****     } else {
  71:lib/widget.c  ****         SetHiddenButtonStyle(leftButton);
 155              		.loc 1 71 0
 156 0062 0A48     		ldr	r0, .L9
 157 0064 FFF7FEFF 		bl	SetHiddenButtonStyle
ARM GAS  C:\Users\luvsd\AppData\Local\Temp\ccS26oY7.s 			page 5


 158              	.LVL13:
 159              	.L6:
  72:lib/widget.c  ****     }
  73:lib/widget.c  ****     
  74:lib/widget.c  ****     // Bottom Right Button        
  75:lib/widget.c  ****     if(rightText != NULL)
 160              		.loc 1 75 0
 161 0068 049B     		ldr	r3, [sp, #16]
 162 006a 002B     		cmp	r3, #0
 163 006c 04D0     		beq	.L7
  76:lib/widget.c  ****     {
  77:lib/widget.c  ****         SetButtonText(rightButton, rightText);
 164              		.loc 1 77 0
 165 006e 1900     		movs	r1, r3
 166 0070 0848     		ldr	r0, .L9+8
 167              	.LVL14:
 168 0072 FFF7FEFF 		bl	SetButtonText
 169              	.LVL15:
 170 0076 02E0     		b	.L8
 171              	.L7:
  78:lib/widget.c  ****     } else {
  79:lib/widget.c  ****         SetHiddenButtonStyle(rightButton);
 172              		.loc 1 79 0
 173 0078 0648     		ldr	r0, .L9+8
 174              	.LVL16:
 175 007a FFF7FEFF 		bl	SetHiddenButtonStyle
 176              	.LVL17:
 177              	.L8:
  80:lib/widget.c  ****     }
  81:lib/widget.c  ****     
  82:lib/widget.c  ****     DrawButtons(g_btnBottom,2);    
 178              		.loc 1 82 0
 179 007e 0221     		movs	r1, #2
 180 0080 0248     		ldr	r0, .L9
 181 0082 FFF7FEFF 		bl	DrawButtons
 182              	.LVL18:
  83:lib/widget.c  **** }
 183              		.loc 1 83 0
 184 0086 07B0     		add	sp, sp, #28
 185              		@ sp needed
 186 0088 F0BD     		pop	{r4, r5, r6, r7, pc}
 187              	.L10:
 188 008a C046     		.align	2
 189              	.L9:
 190 008c 00000000 		.word	g_btnBottom
 191 0090 00000000 		.word	g_DEFAULT_BUTTON_HEIGHT
 192 0094 40000000 		.word	g_btnBottom+64
 193              		.cfi_endproc
 194              	.LFE62:
 195              		.size	SetDrawBottomButtons, .-SetDrawBottomButtons
 196              		.section	.text.DrawTitleButton,"ax",%progbits
 197              		.align	2
 198              		.global	DrawTitleButton
 199              		.code	16
 200              		.thumb_func
 201              		.type	DrawTitleButton, %function
 202              	DrawTitleButton:
ARM GAS  C:\Users\luvsd\AppData\Local\Temp\ccS26oY7.s 			page 6


 203              	.LFB63:
  84:lib/widget.c  **** 
  85:lib/widget.c  **** uint16 DrawTitleButton(char *title, uint8 withScroll)
  86:lib/widget.c  **** {    
 204              		.loc 1 86 0
 205              		.cfi_startproc
 206              		@ args = 0, pretend = 0, frame = 64
 207              		@ frame_needed = 0, uses_anonymous_args = 0
 208              	.LVL19:
 209 0000 70B5     		push	{r4, r5, r6, lr}
 210              		.cfi_def_cfa_offset 16
 211              		.cfi_offset 4, -16
 212              		.cfi_offset 5, -12
 213              		.cfi_offset 6, -8
 214              		.cfi_offset 14, -4
 215 0002 92B0     		sub	sp, sp, #72
 216              		.cfi_def_cfa_offset 88
 217 0004 0500     		movs	r5, r0
 218 0006 0E00     		movs	r6, r1
  87:lib/widget.c  ****     // Title Button  
  88:lib/widget.c  ****     if(title != NULL)
 219              		.loc 1 88 0
 220 0008 0028     		cmp	r0, #0
 221 000a 1ED0     		beq	.L13
 222              	.LBB2:
  89:lib/widget.c  ****     {
  90:lib/widget.c  ****         BUTTON btn;
  91:lib/widget.c  ****         SetDefaultButtonStyle(&btn);        
 223              		.loc 1 91 0
 224 000c 02AC     		add	r4, sp, #8
 225 000e 2000     		movs	r0, r4
 226              	.LVL20:
 227 0010 FFF7FEFF 		bl	SetDefaultButtonStyle
 228              	.LVL21:
  92:lib/widget.c  ****         SetButtonSize(&btn,0,g_DEFAULT_BUTTON_HEIGHT-1,BUTTON_X_FULL,BUTTON_Y_FIRST,withScroll);
 229              		.loc 1 92 0
 230 0014 0E4B     		ldr	r3, .L14
 231 0016 1A88     		ldrh	r2, [r3]
 232 0018 013A     		subs	r2, r2, #1
 233 001a 92B2     		uxth	r2, r2
 234 001c 0196     		str	r6, [sp, #4]
 235 001e 0D23     		movs	r3, #13
 236 0020 0093     		str	r3, [sp]
 237 0022 0C3B     		subs	r3, r3, #12
 238 0024 0021     		movs	r1, #0
 239 0026 2000     		movs	r0, r4
 240 0028 FFF7FEFF 		bl	SetButtonSize
 241              	.LVL22:
  93:lib/widget.c  ****         SetButtonStyleColor(&btn,BUTTON_STYLE_R_RED);        
 242              		.loc 1 93 0
 243 002c 0E21     		movs	r1, #14
 244 002e 2000     		movs	r0, r4
 245 0030 FFF7FEFF 		bl	SetButtonStyleColor
 246              	.LVL23:
  94:lib/widget.c  ****         SetButtonText(&btn, title);        
 247              		.loc 1 94 0
 248 0034 2900     		movs	r1, r5
ARM GAS  C:\Users\luvsd\AppData\Local\Temp\ccS26oY7.s 			page 7


 249 0036 2000     		movs	r0, r4
 250 0038 FFF7FEFF 		bl	SetButtonText
 251              	.LVL24:
  95:lib/widget.c  ****         DrawButton(&btn);
 252              		.loc 1 95 0
 253 003c 2000     		movs	r0, r4
 254 003e FFF7FEFF 		bl	DrawButton
 255              	.LVL25:
  96:lib/widget.c  ****         
  97:lib/widget.c  ****         return btn.rect.bottom + 1;
 256              		.loc 1 97 0
 257 0042 6089     		ldrh	r0, [r4, #10]
 258 0044 0130     		adds	r0, r0, #1
 259 0046 80B2     		uxth	r0, r0
 260 0048 00E0     		b	.L12
 261              	.LVL26:
 262              	.L13:
 263              	.LBE2:
  98:lib/widget.c  ****     }
  99:lib/widget.c  ****     return 0;
 264              		.loc 1 99 0
 265 004a 0020     		movs	r0, #0
 266              	.LVL27:
 267              	.L12:
 100:lib/widget.c  **** }
 268              		.loc 1 100 0 discriminator 1
 269 004c 12B0     		add	sp, sp, #72
 270              		@ sp needed
 271              	.LVL28:
 272 004e 70BD     		pop	{r4, r5, r6, pc}
 273              	.L15:
 274              		.align	2
 275              	.L14:
 276 0050 00000000 		.word	g_DEFAULT_BUTTON_HEIGHT
 277              		.cfi_endproc
 278              	.LFE63:
 279              		.size	DrawTitleButton, .-DrawTitleButton
 280              		.section	.text.getMaxNoOfItemInListButton,"ax",%progbits
 281              		.align	2
 282              		.global	getMaxNoOfItemInListButton
 283              		.code	16
 284              		.thumb_func
 285              		.type	getMaxNoOfItemInListButton, %function
 286              	getMaxNoOfItemInListButton:
 287              	.LFB64:
 101:lib/widget.c  **** 
 102:lib/widget.c  **** // 리스트 버턴에 넣을 수 있는 버턴의 개수
 103:lib/widget.c  **** uint16 getMaxNoOfItemInListButton()
 104:lib/widget.c  **** {
 288              		.loc 1 104 0
 289              		.cfi_startproc
 290              		@ args = 0, pretend = 0, frame = 0
 291              		@ frame_needed = 0, uses_anonymous_args = 0
 292 0000 10B5     		push	{r4, lr}
 293              		.cfi_def_cfa_offset 8
 294              		.cfi_offset 4, -8
 295              		.cfi_offset 14, -4
ARM GAS  C:\Users\luvsd\AppData\Local\Temp\ccS26oY7.s 			page 8


 105:lib/widget.c  ****     return (getMiscConfig()->bDisplayDir == DISPLAY_DIRECTION_PORTRAIT) ? 5 : 4; 
 296              		.loc 1 105 0
 297 0002 FFF7FEFF 		bl	getMiscConfig
 298              	.LVL29:
 299 0006 0388     		ldrh	r3, [r0]
 300 0008 002B     		cmp	r3, #0
 301 000a 01D1     		bne	.L18
 302 000c 0520     		movs	r0, #5
 303 000e 00E0     		b	.L17
 304              	.L18:
 305 0010 0420     		movs	r0, #4
 306              	.L17:
 106:lib/widget.c  **** }
 307              		.loc 1 106 0 discriminator 4
 308              		@ sp needed
 309 0012 10BD     		pop	{r4, pc}
 310              		.cfi_endproc
 311              	.LFE64:
 312              		.size	getMaxNoOfItemInListButton, .-getMaxNoOfItemInListButton
 313              		.section	.text.isExistScroll,"ax",%progbits
 314              		.align	2
 315              		.global	isExistScroll
 316              		.code	16
 317              		.thumb_func
 318              		.type	isExistScroll, %function
 319              	isExistScroll:
 320              	.LFB65:
 107:lib/widget.c  **** 
 108:lib/widget.c  **** uint8 isExistScroll(LIST_MENU *menu)
 109:lib/widget.c  **** {
 321              		.loc 1 109 0
 322              		.cfi_startproc
 323              		@ args = 0, pretend = 0, frame = 0
 324              		@ frame_needed = 0, uses_anonymous_args = 0
 325              		@ link register save eliminated.
 326              	.LVL30:
 110:lib/widget.c  ****     return (menu->noOfDisplayButton < menu->sizeOfList) ? TRUE : FALSE;
 327              		.loc 1 110 0
 328 0000 B923     		movs	r3, #185
 329 0002 9B00     		lsls	r3, r3, #2
 330 0004 C25A     		ldrh	r2, [r0, r3]
 331 0006 044B     		ldr	r3, .L22
 332 0008 C35A     		ldrh	r3, [r0, r3]
 333 000a 9A42     		cmp	r2, r3
 334 000c 01D2     		bcs	.L21
 335 000e 0120     		movs	r0, #1
 336              	.LVL31:
 337 0010 00E0     		b	.L20
 338              	.LVL32:
 339              	.L21:
 340 0012 0020     		movs	r0, #0
 341              	.LVL33:
 342              	.L20:
 111:lib/widget.c  **** }
 343              		.loc 1 111 0 discriminator 4
 344              		@ sp needed
 345 0014 7047     		bx	lr
ARM GAS  C:\Users\luvsd\AppData\Local\Temp\ccS26oY7.s 			page 9


 346              	.L23:
 347 0016 C046     		.align	2
 348              	.L22:
 349 0018 E6020000 		.word	742
 350              		.cfi_endproc
 351              	.LFE65:
 352              		.size	isExistScroll, .-isExistScroll
 353              		.global	__aeabi_idiv
 354              		.section	.text.getIndexOfClickedListMenu,"ax",%progbits
 355              		.align	2
 356              		.global	getIndexOfClickedListMenu
 357              		.code	16
 358              		.thumb_func
 359              		.type	getIndexOfClickedListMenu, %function
 360              	getIndexOfClickedListMenu:
 361              	.LFB69:
 112:lib/widget.c  **** 
 113:lib/widget.c  **** ///////////////////////////////////////////////////////////////////////////////////////////////////
 114:lib/widget.c  **** void SetDrawListButtons(LIST_MENU *menu, char *title, char *textArray[], uint16 sizeOfList)
 115:lib/widget.c  **** ///////////////////////////////////////////////////////////////////////////////////////////////////
 116:lib/widget.c  **** /*
 117:lib/widget.c  ****     indexSelect: selected index, if no used 0xFFFF
 118:lib/widget.c  **** */
 119:lib/widget.c  **** {
 120:lib/widget.c  ****     RECT bodyRect = GetBodyArea();
 121:lib/widget.c  ****     uint16 yPos = bodyRect.top;
 122:lib/widget.c  ****     uint16 yPosTitle;
 123:lib/widget.c  ****  
 124:lib/widget.c  ****     menu->noOfDisplayButton = getMaxNoOfItemInListButton();
 125:lib/widget.c  **** 
 126:lib/widget.c  ****     if(title != NULL) menu->noOfDisplayButton--;
 127:lib/widget.c  ****    
 128:lib/widget.c  ****     menu->sizeOfList = sizeOfList;
 129:lib/widget.c  ****     strcpy(menu->title,title);
 130:lib/widget.c  ****   //  menu->listText = textArray;
 131:lib/widget.c  ****     
 132:lib/widget.c  ****     uint8 withScroll = isExistScroll(menu);
 133:lib/widget.c  ****     
 134:lib/widget.c  ****     if((yPosTitle = DrawTitleButton(title,withScroll)) > 0) yPos = yPosTitle;
 135:lib/widget.c  ****       
 136:lib/widget.c  ****     if(textArray != NULL)
 137:lib/widget.c  ****         for(int i=0; i < menu->noOfDisplayButton; i++)
 138:lib/widget.c  ****         {                        
 139:lib/widget.c  ****             BUTTON *btn = &menu->btns[i];
 140:lib/widget.c  ****             SetDefaultButtonStyle(btn);     
 141:lib/widget.c  ****             SetButtonStyleColor(btn, BUTTON_STYLE_LIST);        
 142:lib/widget.c  ****             SetButtonSize      (btn, yPos, g_DEFAULT_BUTTON_HEIGHT, BUTTON_X_FULL, BUTTON_Y,withScr
 143:lib/widget.c  ****             btn->align = TEXT_ALIGN_LEFT;
 144:lib/widget.c  ****             
 145:lib/widget.c  ****             uint16 textIdx = menu->noOfDisplayButton * menu->curPage + i;
 146:lib/widget.c  ****             if(textIdx >= menu->sizeOfList) break;
 147:lib/widget.c  ****          
 148:lib/widget.c  ****             strcpy(menu->listText[textIdx],textArray[textIdx]);
 149:lib/widget.c  ****             strcpy(btn->text,textArray[textIdx]);        
 150:lib/widget.c  ****             yPos += g_DEFAULT_BUTTON_HEIGHT;
 151:lib/widget.c  ****            // DrawButton(btn);
 152:lib/widget.c  ****         }
ARM GAS  C:\Users\luvsd\AppData\Local\Temp\ccS26oY7.s 			page 10


 153:lib/widget.c  ****     else
 154:lib/widget.c  ****         {
 155:lib/widget.c  ****             EraseBlankArea(yPos, FALSE);
 156:lib/widget.c  ****         }
 157:lib/widget.c  **** 
 158:lib/widget.c  ****     if(withScroll) SetDrawScrollButton(menu);     
 159:lib/widget.c  **** }
 160:lib/widget.c  **** 
 161:lib/widget.c  **** void SetDrawNodeListButtons(MENUNODE *parent, LIST_MENU *menu)
 162:lib/widget.c  **** {
 163:lib/widget.c  ****     RECT bodyRect = GetBodyArea();
 164:lib/widget.c  ****     uint16 yPos = bodyRect.top;
 165:lib/widget.c  ****     uint16 yPosTitle;
 166:lib/widget.c  ****  
 167:lib/widget.c  ****     menu->noOfDisplayButton = getMaxNoOfItemInListButton() -1;
 168:lib/widget.c  ****    
 169:lib/widget.c  ****     menu->sizeOfList = getNoOfChild(parent);
 170:lib/widget.c  ****     strcpy(menu->title,parent->nodeName);
 171:lib/widget.c  ****     
 172:lib/widget.c  ****     uint8 withScroll = isExistScroll(menu);
 173:lib/widget.c  ****     
 174:lib/widget.c  ****     if((yPosTitle = DrawTitleButton(menu->title,withScroll)) > 0) yPos = yPosTitle;
 175:lib/widget.c  ****       
 176:lib/widget.c  ****     if(parent->firstChild != NULL)
 177:lib/widget.c  ****     {
 178:lib/widget.c  ****         for(int i=0; i < menu->sizeOfList; i++)
 179:lib/widget.c  ****         {  
 180:lib/widget.c  ****             strcpy(menu->listText[i],getNthChild(parent,i)->nodeName);              
 181:lib/widget.c  ****         }
 182:lib/widget.c  ****         
 183:lib/widget.c  ****         for(int i=0; i < menu->noOfDisplayButton; i++)
 184:lib/widget.c  ****         {                        
 185:lib/widget.c  ****             BUTTON *btn = &menu->btns[i];
 186:lib/widget.c  ****             SetDefaultButtonStyle(btn);     
 187:lib/widget.c  ****             SetButtonStyleColor(btn, BUTTON_STYLE_LIST);        
 188:lib/widget.c  ****             SetButtonSize      (btn, yPos, g_DEFAULT_BUTTON_HEIGHT, BUTTON_X_FULL, BUTTON_Y,withScr
 189:lib/widget.c  ****             btn->align = TEXT_ALIGN_LEFT;
 190:lib/widget.c  ****             
 191:lib/widget.c  ****             uint16 textIdx = menu->noOfDisplayButton * menu->curPage + i;
 192:lib/widget.c  ****             if(textIdx >= menu->sizeOfList) break;
 193:lib/widget.c  ****             
 194:lib/widget.c  ****             strcpy(btn->text,menu->listText[textIdx]);        
 195:lib/widget.c  ****             yPos += g_DEFAULT_BUTTON_HEIGHT;
 196:lib/widget.c  ****         }
 197:lib/widget.c  ****     }
 198:lib/widget.c  ****     else
 199:lib/widget.c  ****         {
 200:lib/widget.c  ****             EraseBlankArea(yPos, FALSE);
 201:lib/widget.c  ****         }
 202:lib/widget.c  **** 
 203:lib/widget.c  ****     if(withScroll) SetDrawScrollButton(menu);       
 204:lib/widget.c  **** }
 205:lib/widget.c  **** //
 206:lib/widget.c  **** //void SetDrawNodeListButtons2(MENUNODE *parent, LIST_MENU *menu)
 207:lib/widget.c  **** //{
 208:lib/widget.c  **** //    RECT bodyRect = GetBodyArea();
 209:lib/widget.c  **** //    uint16 yPos = bodyRect.top;
ARM GAS  C:\Users\luvsd\AppData\Local\Temp\ccS26oY7.s 			page 11


 210:lib/widget.c  **** //    uint16 yPosTitle;
 211:lib/widget.c  **** // 
 212:lib/widget.c  **** //    menu->noOfDisplayButton = getMaxNoOfItemInListButton() -1;
 213:lib/widget.c  **** //   
 214:lib/widget.c  **** //    menu->sizeOfList = getNoOfChild(parent);
 215:lib/widget.c  **** //    strcpy(menu->title,parent->nodeName);
 216:lib/widget.c  **** //    
 217:lib/widget.c  **** //    uint8 withScroll = isExistScroll(menu);
 218:lib/widget.c  **** //    
 219:lib/widget.c  **** //    if((yPosTitle = DrawTitleButton(menu->title,withScroll)) > 0) yPos = yPosTitle;
 220:lib/widget.c  **** //      
 221:lib/widget.c  **** //    if(parent->firstChild != NULL)
 222:lib/widget.c  **** //        for(int i=0; i < menu->noOfDisplayButton; i++)
 223:lib/widget.c  **** //        {                        
 224:lib/widget.c  **** //            BUTTON *btn = &menu->btns[i];
 225:lib/widget.c  **** //            SetDefaultButtonStyle(btn);     
 226:lib/widget.c  **** //            SetButtonStyleColor(btn, BUTTON_STYLE_LIST);        
 227:lib/widget.c  **** //            SetButtonSize      (btn, yPos, g_DEFAULT_BUTTON_HEIGHT, BUTTON_X_FULL, BUTTON_Y,withS
 228:lib/widget.c  **** //            btn->align = TEXT_ALIGN_LEFT;
 229:lib/widget.c  **** //            
 230:lib/widget.c  **** //            uint16 textIdx = menu->noOfDisplayButton * menu->curPage + i;
 231:lib/widget.c  **** //            if(textIdx >= menu->sizeOfList) break;
 232:lib/widget.c  **** //            
 233:lib/widget.c  **** //            MENUNODE *child = getNthChild(parent,textIdx);
 234:lib/widget.c  **** //            strcpy(menu->listText[textIdx],child->nodeName);
 235:lib/widget.c  **** //            strcpy(btn->text,menu->listText[textIdx]);        
 236:lib/widget.c  **** //            yPos += g_DEFAULT_BUTTON_HEIGHT;
 237:lib/widget.c  **** //        }
 238:lib/widget.c  **** //    else
 239:lib/widget.c  **** //        {
 240:lib/widget.c  **** //            EraseBlankArea(yPos, FALSE);
 241:lib/widget.c  **** //        }
 242:lib/widget.c  **** //
 243:lib/widget.c  **** //    if(withScroll) SetDrawScrollButton(menu);       
 244:lib/widget.c  **** //}
 245:lib/widget.c  **** void UpdateDrawListButtons(LIST_MENU *menu, uint16 indexSelect)
 246:lib/widget.c  **** {
 247:lib/widget.c  ****     uint16 yPos;    
 248:lib/widget.c  ****         
 249:lib/widget.c  ****     for(int i=0; i < menu->noOfDisplayButton; i++)
 250:lib/widget.c  ****     {                        
 251:lib/widget.c  ****         int j = i+menu->curPage*menu->noOfDisplayButton;
 252:lib/widget.c  ****         if(j >= menu->sizeOfList) break;
 253:lib/widget.c  ****         
 254:lib/widget.c  ****         BUTTON *btn = &menu->btns[i];
 255:lib/widget.c  ****         
 256:lib/widget.c  ****         if(indexSelect != NO_SELECT)
 257:lib/widget.c  ****         {
 258:lib/widget.c  ****             char buff[30];
 259:lib/widget.c  ****             sprintf(buff,"%c%s",(indexSelect==j) ? '>' : ' ',menu->listText[j]);
 260:lib/widget.c  ****             strcpy(btn->text,buff);              
 261:lib/widget.c  ****         } else {
 262:lib/widget.c  ****             SetButtonText(btn,menu->listText[j]);              
 263:lib/widget.c  ****         }
 264:lib/widget.c  **** 
 265:lib/widget.c  ****         DrawButton(btn);
 266:lib/widget.c  ****         yPos = btn->rect.bottom + 1;
ARM GAS  C:\Users\luvsd\AppData\Local\Temp\ccS26oY7.s 			page 12


 267:lib/widget.c  ****     }
 268:lib/widget.c  ****     
 269:lib/widget.c  ****     EraseBlankArea(yPos, isExistScroll(menu));
 270:lib/widget.c  **** }
 271:lib/widget.c  **** 
 272:lib/widget.c  **** uint16 getIndexOfClickedListMenu(TOUCH *tc, LIST_MENU *menu)
 273:lib/widget.c  **** {
 362              		.loc 1 273 0
 363              		.cfi_startproc
 364              		@ args = 0, pretend = 0, frame = 0
 365              		@ frame_needed = 0, uses_anonymous_args = 0
 366              	.LVL34:
 367 0000 F8B5     		push	{r3, r4, r5, r6, r7, lr}
 368              		.cfi_def_cfa_offset 24
 369              		.cfi_offset 3, -24
 370              		.cfi_offset 4, -20
 371              		.cfi_offset 5, -16
 372              		.cfi_offset 6, -12
 373              		.cfi_offset 7, -8
 374              		.cfi_offset 14, -4
 375 0002 4F46     		mov	r7, r9
 376 0004 4646     		mov	r6, r8
 377 0006 C0B4     		push	{r6, r7}
 378              		.cfi_def_cfa_offset 32
 379              		.cfi_offset 8, -32
 380              		.cfi_offset 9, -28
 381 0008 0500     		movs	r5, r0
 382 000a 0F00     		movs	r7, r1
 274:lib/widget.c  ****     int8 bIsFirstPage = (menu->curPage == 0 ) ? TRUE : FALSE;
 383              		.loc 1 274 0
 384 000c DA23     		movs	r3, #218
 385 000e 9B00     		lsls	r3, r3, #2
 386 0010 CC5A     		ldrh	r4, [r1, r3]
 387 0012 002C     		cmp	r4, #0
 388 0014 02D1     		bne	.L33
 389 0016 0123     		movs	r3, #1
 390 0018 9846     		mov	r8, r3
 391 001a 01E0     		b	.L25
 392              	.L33:
 393 001c 0023     		movs	r3, #0
 394 001e 9846     		mov	r8, r3
 395              	.L25:
 396              	.LVL35:
 275:lib/widget.c  ****     int8 bIsLastPage  = (menu->curPage == (menu->sizeOfList-1) / menu->noOfDisplayButton) ? TRUE : 
 397              		.loc 1 275 0 discriminator 4
 398 0020 254B     		ldr	r3, .L38
 399 0022 F85A     		ldrh	r0, [r7, r3]
 400              	.LVL36:
 401 0024 0138     		subs	r0, r0, #1
 402 0026 023B     		subs	r3, r3, #2
 403 0028 F95A     		ldrh	r1, [r7, r3]
 404              	.LVL37:
 405 002a FFF7FEFF 		bl	__aeabi_idiv
 406              	.LVL38:
 407 002e 8442     		cmp	r4, r0
 408 0030 02D1     		bne	.L34
 409              		.loc 1 275 0 is_stmt 0
ARM GAS  C:\Users\luvsd\AppData\Local\Temp\ccS26oY7.s 			page 13


 410 0032 0123     		movs	r3, #1
 411 0034 9946     		mov	r9, r3
 412 0036 01E0     		b	.L26
 413              	.L34:
 414 0038 0023     		movs	r3, #0
 415 003a 9946     		mov	r9, r3
 416              	.L26:
 417              	.LVL39:
 418              	.LBB3:
 276:lib/widget.c  ****         
 277:lib/widget.c  ****     for(int i=0; i < menu->noOfDisplayButton; i++)
 419              		.loc 1 277 0 is_stmt 1 discriminator 4
 420 003c 0026     		movs	r6, #0
 421 003e 15E0     		b	.L27
 422              	.LVL40:
 423              	.L31:
 424              	.LBB4:
 278:lib/widget.c  ****     {
 279:lib/widget.c  ****         int j = i + menu->curPage * menu->noOfDisplayButton;
 425              		.loc 1 279 0
 426 0040 DA23     		movs	r3, #218
 427 0042 9B00     		lsls	r3, r3, #2
 428 0044 F85A     		ldrh	r0, [r7, r3]
 429 0046 4443     		muls	r4, r0
 430 0048 3419     		adds	r4, r6, r4
 431              	.LVL41:
 280:lib/widget.c  ****         
 281:lib/widget.c  ****         if(j >= menu->sizeOfList) break;
 432              		.loc 1 281 0
 433 004a 1B4B     		ldr	r3, .L38
 434 004c FB5A     		ldrh	r3, [r7, r3]
 435 004e 9C42     		cmp	r4, r3
 436 0050 11DA     		bge	.L28
 282:lib/widget.c  ****         
 283:lib/widget.c  ****         if(getClickedButton(tc,  &menu->btns[i]) == TRUE)
 437              		.loc 1 283 0
 438 0052 B101     		lsls	r1, r6, #6
 439 0054 A131     		adds	r1, r1, #161
 440 0056 FF31     		adds	r1, r1, #255
 441 0058 7918     		adds	r1, r7, r1
 442 005a 0431     		adds	r1, r1, #4
 443 005c 2800     		movs	r0, r5
 444 005e FFF7FEFF 		bl	getClickedButton
 445              	.LVL42:
 446 0062 0128     		cmp	r0, #1
 447 0064 01D1     		bne	.L29
 284:lib/widget.c  ****         {
 285:lib/widget.c  ****             return j;
 448              		.loc 1 285 0
 449 0066 A0B2     		uxth	r0, r4
 450 0068 22E0     		b	.L30
 451              	.L29:
 452              	.LBE4:
 277:lib/widget.c  ****     {
 453              		.loc 1 277 0 discriminator 2
 454 006a 0136     		adds	r6, r6, #1
 455              	.LVL43:
ARM GAS  C:\Users\luvsd\AppData\Local\Temp\ccS26oY7.s 			page 14


 456              	.L27:
 277:lib/widget.c  ****     {
 457              		.loc 1 277 0 is_stmt 0 discriminator 1
 458 006c B923     		movs	r3, #185
 459 006e 9B00     		lsls	r3, r3, #2
 460 0070 FC5A     		ldrh	r4, [r7, r3]
 461 0072 A642     		cmp	r6, r4
 462 0074 E4DB     		blt	.L31
 463              	.L28:
 464              	.LBE3:
 286:lib/widget.c  ****         }
 287:lib/widget.c  ****     }
 288:lib/widget.c  ****      
 289:lib/widget.c  ****     if(! bIsFirstPage) // 처음 페이지가 아니면 앞으로 이동 할 수 있음
 465              		.loc 1 289 0 is_stmt 1
 466 0076 4346     		mov	r3, r8
 467 0078 002B     		cmp	r3, #0
 468 007a 07D1     		bne	.L32
 290:lib/widget.c  ****     {
 291:lib/widget.c  ****         if(getClickedButton(tc,  &menu->upScroll) == TRUE) return IDX_SCROLL_UP;
 469              		.loc 1 291 0
 470 007c BA23     		movs	r3, #186
 471 007e 9B00     		lsls	r3, r3, #2
 472 0080 F918     		adds	r1, r7, r3
 473 0082 2800     		movs	r0, r5
 474 0084 FFF7FEFF 		bl	getClickedButton
 475              	.LVL44:
 476 0088 0128     		cmp	r0, #1
 477 008a 0CD0     		beq	.L35
 478              	.L32:
 292:lib/widget.c  ****     }
 293:lib/widget.c  ****     
 294:lib/widget.c  ****     if(!bIsLastPage) // 마지막 페이지가 아니면 뒤로 이동 할 수 있음
 479              		.loc 1 294 0
 480 008c 4B46     		mov	r3, r9
 481 008e 002B     		cmp	r3, #0
 482 0090 0BD1     		bne	.L36
 295:lib/widget.c  ****     {
 296:lib/widget.c  ****         if(getClickedButton(tc,  &menu->downScroll) == TRUE) return IDX_SCROLL_DOWN;        
 483              		.loc 1 296 0
 484 0092 CA23     		movs	r3, #202
 485 0094 9B00     		lsls	r3, r3, #2
 486 0096 F918     		adds	r1, r7, r3
 487 0098 2800     		movs	r0, r5
 488 009a FFF7FEFF 		bl	getClickedButton
 489              	.LVL45:
 490 009e 0128     		cmp	r0, #1
 491 00a0 05D1     		bne	.L37
 492 00a2 0630     		adds	r0, r0, #6
 493 00a4 04E0     		b	.L30
 494              	.L35:
 291:lib/widget.c  ****     }
 495              		.loc 1 291 0
 496 00a6 0620     		movs	r0, #6
 497 00a8 02E0     		b	.L30
 498              	.L36:
 297:lib/widget.c  ****     }
ARM GAS  C:\Users\luvsd\AppData\Local\Temp\ccS26oY7.s 			page 15


 298:lib/widget.c  ****         
 299:lib/widget.c  ****     return NO_CLICK;
 499              		.loc 1 299 0
 500 00aa FF20     		movs	r0, #255
 501 00ac 00E0     		b	.L30
 502              	.L37:
 503 00ae FF20     		movs	r0, #255
 504              	.L30:
 300:lib/widget.c  **** }
 505              		.loc 1 300 0
 506              		@ sp needed
 507              	.LVL46:
 508              	.LVL47:
 509              	.LVL48:
 510              	.LVL49:
 511              	.LVL50:
 512 00b0 0CBC     		pop	{r2, r3}
 513 00b2 9046     		mov	r8, r2
 514 00b4 9946     		mov	r9, r3
 515 00b6 F8BD     		pop	{r3, r4, r5, r6, r7, pc}
 516              	.L39:
 517              		.align	2
 518              	.L38:
 519 00b8 E6020000 		.word	742
 520              		.cfi_endproc
 521              	.LFE69:
 522              		.size	getIndexOfClickedListMenu, .-getIndexOfClickedListMenu
 523              		.global	__aeabi_i2d
 524              		.global	__aeabi_dmul
 525              		.global	__aeabi_d2uiz
 526              		.global	__aeabi_dadd
 527              		.section	.text.SetDrawScrollButton,"ax",%progbits
 528              		.align	2
 529              		.global	SetDrawScrollButton
 530              		.code	16
 531              		.thumb_func
 532              		.type	SetDrawScrollButton, %function
 533              	SetDrawScrollButton:
 534              	.LFB71:
 301:lib/widget.c  **** 
 302:lib/widget.c  **** /////////////////////////////////////////////////////////////////////////////////////////////////
 303:lib/widget.c  **** int doListMenu(void *this, uint8 reflash) ///////////////////////////////////////////////////////
 304:lib/widget.c  **** /////////////////////////////////////////////////////////////////////////////////////////////////
 305:lib/widget.c  **** {    
 306:lib/widget.c  ****     MENUNODE *thisMenu = (MENUNODE *) this;     
 307:lib/widget.c  ****     static uint16 noOfList;
 308:lib/widget.c  ****     switch(reflash)
 309:lib/widget.c  ****     {
 310:lib/widget.c  ****         case TRUE: // 화면이 바뀔때 실행
 311:lib/widget.c  ****             {
 312:lib/widget.c  ****                 noOfList = getNoOfChild(thisMenu);
 313:lib/widget.c  ****                 g_ListMenu.curPage = 0;
 314:lib/widget.c  ****                 SetDrawNodeListButtons(thisMenu, &g_ListMenu);
 315:lib/widget.c  ****                 UpdateDrawListButtons(&g_ListMenu,NO_SELECT);
 316:lib/widget.c  ****                 SetDrawBottomButtons("QUIT", NULL, BUTTON_STYLE_R_GREEN, BUTTON_STYLE_R_BLUE); 
 317:lib/widget.c  ****             }
 318:lib/widget.c  ****             break;  
ARM GAS  C:\Users\luvsd\AppData\Local\Temp\ccS26oY7.s 			page 16


 319:lib/widget.c  ****         
 320:lib/widget.c  ****         case FALSE: // Cliking Check
 321:lib/widget.c  ****             {
 322:lib/widget.c  ****                 TOUCH tc = GetTouch();
 323:lib/widget.c  ****                 if(tc.isClick == FALSE) break;
 324:lib/widget.c  ****                 
 325:lib/widget.c  ****                 uint16 idx = getIndexOfClickedListMenu(&tc, &g_ListMenu);
 326:lib/widget.c  ****                 
 327:lib/widget.c  ****                 switch(idx)
 328:lib/widget.c  ****                 {
 329:lib/widget.c  ****                     case IDX_SCROLL_UP:   g_ListMenu.curPage--;
 330:lib/widget.c  ****                           UpdateDrawListButtons(&g_ListMenu,NO_SELECT);
 331:lib/widget.c  ****                         break;
 332:lib/widget.c  ****                     case IDX_SCROLL_DOWN: g_ListMenu.curPage++;
 333:lib/widget.c  ****                           UpdateDrawListButtons(&g_ListMenu,NO_SELECT);                   
 334:lib/widget.c  ****                         break;
 335:lib/widget.c  ****                     case NO_CLICK :
 336:lib/widget.c  ****                         {
 337:lib/widget.c  ****                             switch(getIndexOfClickedButton(&tc,g_btnBottom,2))
 338:lib/widget.c  ****                             {
 339:lib/widget.c  ****                                 case BOTTOM_LEFT:  return MENU_RETURN_PARENT;
 340:lib/widget.c  ****                             //  case BOTTOM_RIGHT: return 1;                            
 341:lib/widget.c  ****                             }
 342:lib/widget.c  ****                             break;
 343:lib/widget.c  ****                         }
 344:lib/widget.c  ****                     default: 
 345:lib/widget.c  ****                         if(idx < noOfList) return idx;
 346:lib/widget.c  ****                 }                
 347:lib/widget.c  ****             }
 348:lib/widget.c  ****             break;
 349:lib/widget.c  ****     }
 350:lib/widget.c  ****     return MENU_RETURN_THIS;    
 351:lib/widget.c  **** }
 352:lib/widget.c  **** 
 353:lib/widget.c  **** 
 354:lib/widget.c  **** void SetDrawScrollButton(LIST_MENU *menu)
 355:lib/widget.c  **** {
 535              		.loc 1 355 0
 536              		.cfi_startproc
 537              		@ args = 0, pretend = 0, frame = 24
 538              		@ frame_needed = 0, uses_anonymous_args = 0
 539              	.LVL51:
 540 0000 F0B5     		push	{r4, r5, r6, r7, lr}
 541              		.cfi_def_cfa_offset 20
 542              		.cfi_offset 4, -20
 543              		.cfi_offset 5, -16
 544              		.cfi_offset 6, -12
 545              		.cfi_offset 7, -8
 546              		.cfi_offset 14, -4
 547 0002 87B0     		sub	sp, sp, #28
 548              		.cfi_def_cfa_offset 48
 549 0004 0400     		movs	r4, r0
 356:lib/widget.c  ****     RECT r = GetBodyArea();
 550              		.loc 1 356 0
 551 0006 04A8     		add	r0, sp, #16
 552              	.LVL52:
 553 0008 FFF7FEFF 		bl	GetBodyArea
ARM GAS  C:\Users\luvsd\AppData\Local\Temp\ccS26oY7.s 			page 17


 554              	.LVL53:
 357:lib/widget.c  ****    
 358:lib/widget.c  ****     menu->upScroll.rect.left     = g_SCREEN_WIDTH - 40;
 555              		.loc 1 358 0
 556 000c 284D     		ldr	r5, .L41
 557 000e 2B88     		ldrh	r3, [r5]
 558 0010 1900     		movs	r1, r3
 559 0012 2839     		subs	r1, r1, #40
 560 0014 BB22     		movs	r2, #187
 561 0016 9200     		lsls	r2, r2, #2
 562 0018 A152     		strh	r1, [r4, r2]
 359:lib/widget.c  ****     menu->upScroll.rect.right    = g_SCREEN_WIDTH -  1;    
 563              		.loc 1 359 0
 564 001a 013B     		subs	r3, r3, #1
 565 001c 254A     		ldr	r2, .L41+4
 566 001e A352     		strh	r3, [r4, r2]
 360:lib/widget.c  ****     menu->upScroll.rect.top      = r.top;  
 567              		.loc 1 360 0
 568 0020 04AB     		add	r3, sp, #16
 569 0022 9888     		ldrh	r0, [r3, #4]
 570 0024 BC23     		movs	r3, #188
 571 0026 9B00     		lsls	r3, r3, #2
 572 0028 E052     		strh	r0, [r4, r3]
 361:lib/widget.c  ****     menu->upScroll.rect.bottom   = (r.top + r.bottom)*.5;
 573              		.loc 1 361 0
 574 002a 04AB     		add	r3, sp, #16
 575 002c DE88     		ldrh	r6, [r3, #6]
 576 002e 8019     		adds	r0, r0, r6
 577 0030 FFF7FEFF 		bl	__aeabi_i2d
 578              	.LVL54:
 579 0034 0022     		movs	r2, #0
 580 0036 204B     		ldr	r3, .L41+8
 581 0038 FFF7FEFF 		bl	__aeabi_dmul
 582              	.LVL55:
 583 003c 0290     		str	r0, [sp, #8]
 584 003e 0391     		str	r1, [sp, #12]
 585 0040 FFF7FEFF 		bl	__aeabi_d2uiz
 586              	.LVL56:
 587 0044 1D4B     		ldr	r3, .L41+12
 588 0046 E052     		strh	r0, [r4, r3]
 362:lib/widget.c  ****     SetDefaultButtonStyle(&menu->upScroll);
 589              		.loc 1 362 0
 590 0048 0A3B     		subs	r3, r3, #10
 591 004a 9C46     		mov	ip, r3
 592 004c A444     		add	ip, ip, r4
 593 004e 6346     		mov	r3, ip
 594 0050 0193     		str	r3, [sp, #4]
 595 0052 6046     		mov	r0, ip
 596 0054 FFF7FEFF 		bl	SetDefaultButtonStyle
 597              	.LVL57:
 363:lib/widget.c  ****     menu->upScroll.image = &g_imageUpArrow;  
 598              		.loc 1 363 0
 599 0058 194F     		ldr	r7, .L41+16
 600 005a BA23     		movs	r3, #186
 601 005c 9B00     		lsls	r3, r3, #2
 602 005e E750     		str	r7, [r4, r3]
 364:lib/widget.c  **** 
ARM GAS  C:\Users\luvsd\AppData\Local\Temp\ccS26oY7.s 			page 18


 365:lib/widget.c  ****     menu->downScroll.rect.left     = g_SCREEN_WIDTH - 40;
 603              		.loc 1 365 0
 604 0060 2B88     		ldrh	r3, [r5]
 605 0062 1900     		movs	r1, r3
 606 0064 2839     		subs	r1, r1, #40
 607 0066 CB22     		movs	r2, #203
 608 0068 9200     		lsls	r2, r2, #2
 609 006a A152     		strh	r1, [r4, r2]
 366:lib/widget.c  ****     menu->downScroll.rect.right    = g_SCREEN_WIDTH -  1;    
 610              		.loc 1 366 0
 611 006c 013B     		subs	r3, r3, #1
 612 006e 154A     		ldr	r2, .L41+20
 613 0070 A352     		strh	r3, [r4, r2]
 367:lib/widget.c  ****     menu->downScroll.rect.top      = (r.top + r.bottom)*.5 + 1;
 614              		.loc 1 367 0
 615 0072 0022     		movs	r2, #0
 616 0074 144B     		ldr	r3, .L41+24
 617 0076 0298     		ldr	r0, [sp, #8]
 618 0078 0399     		ldr	r1, [sp, #12]
 619 007a FFF7FEFF 		bl	__aeabi_dadd
 620              	.LVL58:
 621 007e FFF7FEFF 		bl	__aeabi_d2uiz
 622              	.LVL59:
 623 0082 CC23     		movs	r3, #204
 624 0084 9B00     		lsls	r3, r3, #2
 625 0086 E052     		strh	r0, [r4, r3]
 368:lib/widget.c  ****     menu->downScroll.rect.bottom   = r.bottom;
 626              		.loc 1 368 0
 627 0088 104B     		ldr	r3, .L41+28
 628 008a E652     		strh	r6, [r4, r3]
 369:lib/widget.c  ****     SetDefaultButtonStyle(&menu->downScroll);
 629              		.loc 1 369 0
 630 008c CA22     		movs	r2, #202
 631 008e 9200     		lsls	r2, r2, #2
 632 0090 A618     		adds	r6, r4, r2
 633 0092 3000     		movs	r0, r6
 634 0094 FFF7FEFF 		bl	SetDefaultButtonStyle
 635              	.LVL60:
 370:lib/widget.c  ****     menu->downScroll.image = &g_imageDownArrow;  
 636              		.loc 1 370 0
 637 0098 0837     		adds	r7, r7, #8
 638 009a CA22     		movs	r2, #202
 639 009c 9200     		lsls	r2, r2, #2
 640 009e A750     		str	r7, [r4, r2]
 371:lib/widget.c  ****     
 372:lib/widget.c  ****     DrawButton(&menu->upScroll);
 641              		.loc 1 372 0
 642 00a0 0198     		ldr	r0, [sp, #4]
 643 00a2 FFF7FEFF 		bl	DrawButton
 644              	.LVL61:
 373:lib/widget.c  ****     DrawButton(&menu->downScroll);   
 645              		.loc 1 373 0
 646 00a6 3000     		movs	r0, r6
 647 00a8 FFF7FEFF 		bl	DrawButton
 648              	.LVL62:
 374:lib/widget.c  ****     
 375:lib/widget.c  **** }
ARM GAS  C:\Users\luvsd\AppData\Local\Temp\ccS26oY7.s 			page 19


 649              		.loc 1 375 0
 650 00ac 07B0     		add	sp, sp, #28
 651              		@ sp needed
 652              	.LVL63:
 653              	.LVL64:
 654 00ae F0BD     		pop	{r4, r5, r6, r7, pc}
 655              	.L42:
 656              		.align	2
 657              	.L41:
 658 00b0 00000000 		.word	g_SCREEN_WIDTH
 659 00b4 EE020000 		.word	750
 660 00b8 0000E03F 		.word	1071644672
 661 00bc F2020000 		.word	754
 662 00c0 00000000 		.word	.LANCHOR0
 663 00c4 2E030000 		.word	814
 664 00c8 0000F03F 		.word	1072693248
 665 00cc 32030000 		.word	818
 666              		.cfi_endproc
 667              	.LFE71:
 668              		.size	SetDrawScrollButton, .-SetDrawScrollButton
 669              		.section	.text.EraseBlankArea,"ax",%progbits
 670              		.align	2
 671              		.global	EraseBlankArea
 672              		.code	16
 673              		.thumb_func
 674              		.type	EraseBlankArea, %function
 675              	EraseBlankArea:
 676              	.LFB74:
 376:lib/widget.c  **** 
 377:lib/widget.c  **** void DrawUpDownMenu(UP_DOWN_MENU *menu, char *title, char *remark, const char *fmt, ...)
 378:lib/widget.c  **** {
 379:lib/widget.c  ****     va_list ap;
 380:lib/widget.c  ****     char buff[20];
 381:lib/widget.c  ****     va_start(ap, fmt);
 382:lib/widget.c  ****     vsprintf(buff, fmt, ap);
 383:lib/widget.c  ****     va_end(ap);
 384:lib/widget.c  ****             
 385:lib/widget.c  ****     SetDefaultButtonStyleArray(menu->btn,2);
 386:lib/widget.c  ****     SetDefaultButtonStyle(&menu->btnMessage);
 387:lib/widget.c  ****     
 388:lib/widget.c  ****     uint16 yPos = DrawTitleButton(title,FALSE);
 389:lib/widget.c  ****     EraseBlankArea(yPos,FALSE);
 390:lib/widget.c  ****     
 391:lib/widget.c  ****     BUTTON *leftBtn = &menu->btn[0];
 392:lib/widget.c  ****     BUTTON *rightBtn = &menu->btn[1];
 393:lib/widget.c  **** 
 394:lib/widget.c  ****     SetButtonSize(leftBtn, 0,g_DEFAULT_BUTTON_HEIGHT,BUTTON_X_1_2,BUTTON_Y_HALF,FALSE);
 395:lib/widget.c  ****     SetButtonSize(rightBtn,0,g_DEFAULT_BUTTON_HEIGHT,BUTTON_X_2_2,BUTTON_Y_HALF,FALSE); 
 396:lib/widget.c  ****             
 397:lib/widget.c  ****     SetButtonText(&menu->btnMessage,buff);
 398:lib/widget.c  ****     DrawButton(&menu->btnMessage);
 399:lib/widget.c  ****     
 400:lib/widget.c  ****     BUTTON remarkBtn;
 401:lib/widget.c  ****     SetDefaultButtonStyle(&remarkBtn);
 402:lib/widget.c  ****     SetButtonStyleColor(&remarkBtn,BUTTON_STYLE_WHITE);
 403:lib/widget.c  ****     SetButtonSize(&remarkBtn,menu->btnMessage.rect.bottom+2,g_DEFAULT_BUTTON_HEIGHT,BUTTON_X_FULL,B
 404:lib/widget.c  **** 
ARM GAS  C:\Users\luvsd\AppData\Local\Temp\ccS26oY7.s 			page 20


 405:lib/widget.c  ****     SetButtonText(&remarkBtn,remark);
 406:lib/widget.c  ****     DrawButton(&remarkBtn);
 407:lib/widget.c  **** }
 408:lib/widget.c  **** 
 409:lib/widget.c  **** void SetDrawMonitoringMenu(MONITORING_MENU *menu, const char *title, ...)
 410:lib/widget.c  **** {
 411:lib/widget.c  ****     va_list ap;
 412:lib/widget.c  ****     char buff[20];
 413:lib/widget.c  ****     va_start(ap, title);
 414:lib/widget.c  ****     vsprintf(buff, title, ap);
 415:lib/widget.c  ****     va_end(ap);
 416:lib/widget.c  ****     
 417:lib/widget.c  ****     SetDefaultButtonStyleArray(menu->btn,7);
 418:lib/widget.c  ****     
 419:lib/widget.c  ****     BUTTON *btn;
 420:lib/widget.c  ****     
 421:lib/widget.c  ****     // title
 422:lib/widget.c  ****     btn = &menu->btn[0];
 423:lib/widget.c  ****     SetButtonSize(btn,0,g_DEFAULT_BUTTON_HEIGHT-3,BUTTON_X_FULL,BUTTON_Y_FIRST,FALSE);
 424:lib/widget.c  ****     SetButtonStyleColor(btn,BUTTON_STYLE_ORANGE);        
 425:lib/widget.c  ****     SetButtonText(btn, buff);
 426:lib/widget.c  ****     DrawButton(btn);
 427:lib/widget.c  ****     
 428:lib/widget.c  ****     EraseBlankArea(btn->rect.bottom+1,FALSE);    
 429:lib/widget.c  ****     
 430:lib/widget.c  ****     // first 
 431:lib/widget.c  ****     btn = &menu->btn[1];
 432:lib/widget.c  ****     SetButtonSize(btn,0,g_DEFAULT_BUTTON_HEIGHT, BUTTON_X_1_2, BUTTON_Y_2_4,FALSE);
 433:lib/widget.c  ****     SetButtonStyleColor(btn,BUTTON_STYLE_WHITE);
 434:lib/widget.c  ****     btn->align = TEXT_ALIGN_LEFT;
 435:lib/widget.c  ****     //SetButtonText(btn,first);    
 436:lib/widget.c  ****     //DrawButton(btn);
 437:lib/widget.c  ****     
 438:lib/widget.c  ****     // first value    
 439:lib/widget.c  ****     btn = &menu->btn[2];
 440:lib/widget.c  ****     SetButtonSize(btn,0,g_DEFAULT_BUTTON_HEIGHT, BUTTON_X_2_2, BUTTON_Y_2_4,FALSE);
 441:lib/widget.c  ****     SetButtonStyleColor(btn,BUTTON_STYLE_YELLOW);
 442:lib/widget.c  ****     btn->align = TEXT_ALIGN_RIGHT;
 443:lib/widget.c  ****    // SetButtonText(btn,"9999");    
 444:lib/widget.c  ****    // DrawButton(btn);
 445:lib/widget.c  ****     
 446:lib/widget.c  ****     // second 
 447:lib/widget.c  ****     btn = &menu->btn[3];
 448:lib/widget.c  ****     SetButtonSize(btn,0,g_DEFAULT_BUTTON_HEIGHT, BUTTON_X_1_2, BUTTON_Y_3_4,FALSE);
 449:lib/widget.c  ****     SetButtonStyleColor(btn,BUTTON_STYLE_WHITE);
 450:lib/widget.c  ****     btn->align = TEXT_ALIGN_LEFT;
 451:lib/widget.c  ****     //SetButtonText(btn,second);    
 452:lib/widget.c  ****     //DrawButton(btn);
 453:lib/widget.c  ****     
 454:lib/widget.c  ****     // second value    
 455:lib/widget.c  ****     btn = &menu->btn[4];
 456:lib/widget.c  ****     SetButtonSize(btn,0,g_DEFAULT_BUTTON_HEIGHT, BUTTON_X_2_2, BUTTON_Y_3_4,FALSE);
 457:lib/widget.c  ****     SetButtonStyleColor(btn,BUTTON_STYLE_YELLOW);
 458:lib/widget.c  ****     btn->align = TEXT_ALIGN_RIGHT;
 459:lib/widget.c  ****   //  SetButtonText(btn,"9999");    
 460:lib/widget.c  ****   //  DrawButton(btn);
 461:lib/widget.c  ****     
ARM GAS  C:\Users\luvsd\AppData\Local\Temp\ccS26oY7.s 			page 21


 462:lib/widget.c  ****     // third 
 463:lib/widget.c  ****     btn = &menu->btn[5];
 464:lib/widget.c  ****     SetButtonSize(btn,0,g_DEFAULT_BUTTON_HEIGHT, BUTTON_X_1_2, BUTTON_Y_4_4,FALSE);
 465:lib/widget.c  ****     SetButtonStyleColor(btn,BUTTON_STYLE_WHITE);
 466:lib/widget.c  ****     btn->align = TEXT_ALIGN_LEFT;
 467:lib/widget.c  ****     //SetButtonText(btn,third);    
 468:lib/widget.c  ****     //DrawButton(btn);
 469:lib/widget.c  ****     
 470:lib/widget.c  ****     // third value    
 471:lib/widget.c  ****     btn = &menu->btn[6];
 472:lib/widget.c  ****     SetButtonSize(btn,0,g_DEFAULT_BUTTON_HEIGHT, BUTTON_X_2_2, BUTTON_Y_4_4,FALSE);
 473:lib/widget.c  ****     SetButtonStyleColor(btn,BUTTON_STYLE_YELLOW);
 474:lib/widget.c  ****     btn->align = TEXT_ALIGN_RIGHT;
 475:lib/widget.c  ****  //   SetButtonText(btn,"999.9");    
 476:lib/widget.c  ****   //  DrawButton(btn);    
 477:lib/widget.c  **** }
 478:lib/widget.c  **** 
 479:lib/widget.c  **** void EraseBlankArea(uint16 y,uint8 withScroll)
 480:lib/widget.c  **** {
 677              		.loc 1 480 0
 678              		.cfi_startproc
 679              		@ args = 0, pretend = 0, frame = 16
 680              		@ frame_needed = 0, uses_anonymous_args = 0
 681              	.LVL65:
 682 0000 10B5     		push	{r4, lr}
 683              		.cfi_def_cfa_offset 8
 684              		.cfi_offset 4, -8
 685              		.cfi_offset 14, -4
 686 0002 84B0     		sub	sp, sp, #16
 687              		.cfi_def_cfa_offset 24
 481:lib/widget.c  ****     uint16 width = g_SCREEN_WIDTH;
 688              		.loc 1 481 0
 689 0004 0E4B     		ldr	r3, .L46
 690 0006 1B88     		ldrh	r3, [r3]
 691              	.LVL66:
 482:lib/widget.c  ****     
 483:lib/widget.c  ****     if(withScroll == TRUE) width -= 40;
 692              		.loc 1 483 0
 693 0008 0129     		cmp	r1, #1
 694 000a 01D1     		bne	.L44
 695              		.loc 1 483 0 is_stmt 0 discriminator 1
 696 000c 283B     		subs	r3, r3, #40
 697              	.LVL67:
 698 000e 9BB2     		uxth	r3, r3
 699              	.LVL68:
 700              	.L44:
 484:lib/widget.c  ****     
 485:lib/widget.c  ****     RECT blank;
 486:lib/widget.c  ****     blank.left = 0;
 701              		.loc 1 486 0 is_stmt 1
 702 0010 0022     		movs	r2, #0
 703 0012 6946     		mov	r1, sp
 704              	.LVL69:
 705 0014 0A80     		strh	r2, [r1]
 487:lib/widget.c  ****     blank.right = width-1;
 706              		.loc 1 487 0
 707 0016 013B     		subs	r3, r3, #1
ARM GAS  C:\Users\luvsd\AppData\Local\Temp\ccS26oY7.s 			page 22


 708              	.LVL70:
 709 0018 4B80     		strh	r3, [r1, #2]
 488:lib/widget.c  ****     blank.top = y;
 710              		.loc 1 488 0
 711 001a 8880     		strh	r0, [r1, #4]
 489:lib/widget.c  ****     blank.bottom = GetBodyArea().bottom;
 712              		.loc 1 489 0
 713 001c 02AC     		add	r4, sp, #8
 714 001e 2000     		movs	r0, r4
 715              	.LVL71:
 716 0020 FFF7FEFF 		bl	GetBodyArea
 717              	.LVL72:
 718 0024 E388     		ldrh	r3, [r4, #6]
 719 0026 6A46     		mov	r2, sp
 720 0028 D380     		strh	r3, [r2, #6]
 490:lib/widget.c  ****     
 491:lib/widget.c  ****     if(blank.bottom-blank.top > 1) FillRect(&blank,BLACK);        
 721              		.loc 1 491 0
 722 002a 9288     		ldrh	r2, [r2, #4]
 723 002c 9B1A     		subs	r3, r3, r2
 724 002e 012B     		cmp	r3, #1
 725 0030 03DD     		ble	.L43
 726              		.loc 1 491 0 is_stmt 0 discriminator 1
 727 0032 0021     		movs	r1, #0
 728 0034 6846     		mov	r0, sp
 729 0036 FFF7FEFF 		bl	FillRect
 730              	.LVL73:
 731              	.L43:
 492:lib/widget.c  **** }
 732              		.loc 1 492 0 is_stmt 1
 733 003a 04B0     		add	sp, sp, #16
 734              		@ sp needed
 735 003c 10BD     		pop	{r4, pc}
 736              	.L47:
 737 003e C046     		.align	2
 738              	.L46:
 739 0040 00000000 		.word	g_SCREEN_WIDTH
 740              		.cfi_endproc
 741              	.LFE74:
 742              		.size	EraseBlankArea, .-EraseBlankArea
 743              		.section	.text.SetDrawListButtons,"ax",%progbits
 744              		.align	2
 745              		.global	SetDrawListButtons
 746              		.code	16
 747              		.thumb_func
 748              		.type	SetDrawListButtons, %function
 749              	SetDrawListButtons:
 750              	.LFB66:
 119:lib/widget.c  ****     RECT bodyRect = GetBodyArea();
 751              		.loc 1 119 0
 752              		.cfi_startproc
 753              		@ args = 0, pretend = 0, frame = 8
 754              		@ frame_needed = 0, uses_anonymous_args = 0
 755              	.LVL74:
 756 0000 F0B5     		push	{r4, r5, r6, r7, lr}
 757              		.cfi_def_cfa_offset 20
 758              		.cfi_offset 4, -20
ARM GAS  C:\Users\luvsd\AppData\Local\Temp\ccS26oY7.s 			page 23


 759              		.cfi_offset 5, -16
 760              		.cfi_offset 6, -12
 761              		.cfi_offset 7, -8
 762              		.cfi_offset 14, -4
 763 0002 5746     		mov	r7, r10
 764 0004 4E46     		mov	r6, r9
 765 0006 4546     		mov	r5, r8
 766 0008 E0B4     		push	{r5, r6, r7}
 767              		.cfi_def_cfa_offset 32
 768              		.cfi_offset 8, -32
 769              		.cfi_offset 9, -28
 770              		.cfi_offset 10, -24
 771 000a 84B0     		sub	sp, sp, #16
 772              		.cfi_def_cfa_offset 48
 773 000c 0400     		movs	r4, r0
 774 000e 0D00     		movs	r5, r1
 775 0010 9146     		mov	r9, r2
 776 0012 1F00     		movs	r7, r3
 120:lib/widget.c  ****     uint16 yPos = bodyRect.top;
 777              		.loc 1 120 0
 778 0014 02AE     		add	r6, sp, #8
 779 0016 3000     		movs	r0, r6
 780              	.LVL75:
 781 0018 FFF7FEFF 		bl	GetBodyArea
 782              	.LVL76:
 121:lib/widget.c  ****     uint16 yPosTitle;
 783              		.loc 1 121 0
 784 001c B688     		ldrh	r6, [r6, #4]
 785              	.LVL77:
 124:lib/widget.c  **** 
 786              		.loc 1 124 0
 787 001e FFF7FEFF 		bl	getMaxNoOfItemInListButton
 788              	.LVL78:
 789 0022 B923     		movs	r3, #185
 790 0024 9B00     		lsls	r3, r3, #2
 791 0026 E052     		strh	r0, [r4, r3]
 126:lib/widget.c  ****    
 792              		.loc 1 126 0
 793 0028 002D     		cmp	r5, #0
 794 002a 01D0     		beq	.L49
 126:lib/widget.c  ****    
 795              		.loc 1 126 0 is_stmt 0 discriminator 1
 796 002c 0138     		subs	r0, r0, #1
 797 002e E052     		strh	r0, [r4, r3]
 798              	.L49:
 128:lib/widget.c  ****     strcpy(menu->title,title);
 799              		.loc 1 128 0 is_stmt 1
 800 0030 374B     		ldr	r3, .L58
 801 0032 E752     		strh	r7, [r4, r3]
 129:lib/widget.c  ****   //  menu->listText = textArray;
 802              		.loc 1 129 0
 803 0034 2900     		movs	r1, r5
 804 0036 2000     		movs	r0, r4
 805 0038 FFF7FEFF 		bl	strcpy
 806              	.LVL79:
 132:lib/widget.c  ****     
 807              		.loc 1 132 0
ARM GAS  C:\Users\luvsd\AppData\Local\Temp\ccS26oY7.s 			page 24


 808 003c 2000     		movs	r0, r4
 809 003e FFF7FEFF 		bl	isExistScroll
 810              	.LVL80:
 811 0042 0100     		movs	r1, r0
 812 0044 8046     		mov	r8, r0
 813              	.LVL81:
 134:lib/widget.c  ****       
 814              		.loc 1 134 0
 815 0046 2800     		movs	r0, r5
 816 0048 FFF7FEFF 		bl	DrawTitleButton
 817              	.LVL82:
 818 004c 071E     		subs	r7, r0, #0
 819              	.LVL83:
 820 004e 00D1     		bne	.L50
 121:lib/widget.c  ****     uint16 yPosTitle;
 821              		.loc 1 121 0
 822 0050 3700     		movs	r7, r6
 823              	.L50:
 824              	.LVL84:
 136:lib/widget.c  ****         for(int i=0; i < menu->noOfDisplayButton; i++)
 825              		.loc 1 136 0
 826 0052 4B46     		mov	r3, r9
 827 0054 002B     		cmp	r3, #0
 828 0056 43D1     		bne	.L56
 829              	.LVL85:
 830 0058 49E0     		b	.L57
 831              	.LVL86:
 832              	.L54:
 833              	.LBB5:
 834              	.LBB6:
 139:lib/widget.c  ****             SetDefaultButtonStyle(btn);     
 835              		.loc 1 139 0
 836 005a B301     		lsls	r3, r6, #6
 837 005c 9A46     		mov	r10, r3
 838 005e 1D00     		movs	r5, r3
 839 0060 A135     		adds	r5, r5, #161
 840 0062 FF35     		adds	r5, r5, #255
 841 0064 6519     		adds	r5, r4, r5
 842 0066 0435     		adds	r5, r5, #4
 843              	.LVL87:
 140:lib/widget.c  ****             SetButtonStyleColor(btn, BUTTON_STYLE_LIST);        
 844              		.loc 1 140 0
 845 0068 2800     		movs	r0, r5
 846 006a FFF7FEFF 		bl	SetDefaultButtonStyle
 847              	.LVL88:
 141:lib/widget.c  ****             SetButtonSize      (btn, yPos, g_DEFAULT_BUTTON_HEIGHT, BUTTON_X_FULL, BUTTON_Y,withScr
 848              		.loc 1 141 0
 849 006e 0021     		movs	r1, #0
 850 0070 2800     		movs	r0, r5
 851 0072 FFF7FEFF 		bl	SetButtonStyleColor
 852              	.LVL89:
 142:lib/widget.c  ****             btn->align = TEXT_ALIGN_LEFT;
 853              		.loc 1 142 0
 854 0076 274B     		ldr	r3, .L58+4
 855 0078 1A88     		ldrh	r2, [r3]
 856 007a 4346     		mov	r3, r8
 857 007c 0193     		str	r3, [sp, #4]
ARM GAS  C:\Users\luvsd\AppData\Local\Temp\ccS26oY7.s 			page 25


 858 007e 0B23     		movs	r3, #11
 859 0080 0093     		str	r3, [sp]
 860 0082 0A3B     		subs	r3, r3, #10
 861 0084 3900     		movs	r1, r7
 862 0086 2800     		movs	r0, r5
 863 0088 FFF7FEFF 		bl	SetButtonSize
 864              	.LVL90:
 143:lib/widget.c  ****             
 865              		.loc 1 143 0
 866 008c 5346     		mov	r3, r10
 867 008e E318     		adds	r3, r4, r3
 868 0090 DF33     		adds	r3, r3, #223
 869 0092 FF33     		adds	r3, r3, #255
 870 0094 0122     		movs	r2, #1
 871 0096 1A70     		strb	r2, [r3]
 145:lib/widget.c  ****             if(textIdx >= menu->sizeOfList) break;
 872              		.loc 1 145 0
 873 0098 B923     		movs	r3, #185
 874 009a 9B00     		lsls	r3, r3, #2
 875 009c E25A     		ldrh	r2, [r4, r3]
 876 009e 8433     		adds	r3, r3, #132
 877 00a0 E35A     		ldrh	r3, [r4, r3]
 878 00a2 5343     		muls	r3, r2
 879 00a4 9B19     		adds	r3, r3, r6
 880 00a6 9BB2     		uxth	r3, r3
 881              	.LVL91:
 146:lib/widget.c  ****          
 882              		.loc 1 146 0
 883 00a8 194A     		ldr	r2, .L58
 884 00aa A25A     		ldrh	r2, [r4, r2]
 885 00ac 9342     		cmp	r3, r2
 886 00ae 22D2     		bcs	.L53
 148:lib/widget.c  ****             strcpy(btn->text,textArray[textIdx]);        
 887              		.loc 1 148 0 discriminator 2
 888 00b0 9D00     		lsls	r5, r3, #2
 889              	.LVL92:
 890 00b2 EB18     		adds	r3, r5, r3
 891              	.LVL93:
 892 00b4 9800     		lsls	r0, r3, #2
 893 00b6 1030     		adds	r0, r0, #16
 894 00b8 2018     		adds	r0, r4, r0
 895 00ba 0430     		adds	r0, r0, #4
 896 00bc 4D44     		add	r5, r5, r9
 897 00be 2968     		ldr	r1, [r5]
 898 00c0 FFF7FEFF 		bl	strcpy
 899              	.LVL94:
 149:lib/widget.c  ****             yPos += g_DEFAULT_BUTTON_HEIGHT;
 900              		.loc 1 149 0 discriminator 2
 901 00c4 5046     		mov	r0, r10
 902 00c6 A930     		adds	r0, r0, #169
 903 00c8 FF30     		adds	r0, r0, #255
 904 00ca 2018     		adds	r0, r4, r0
 905 00cc 0830     		adds	r0, r0, #8
 906 00ce 2968     		ldr	r1, [r5]
 907 00d0 FFF7FEFF 		bl	strcpy
 908              	.LVL95:
 150:lib/widget.c  ****            // DrawButton(btn);
ARM GAS  C:\Users\luvsd\AppData\Local\Temp\ccS26oY7.s 			page 26


 909              		.loc 1 150 0 discriminator 2
 910 00d4 0F4B     		ldr	r3, .L58+4
 911 00d6 1888     		ldrh	r0, [r3]
 912 00d8 3F18     		adds	r7, r7, r0
 913              	.LVL96:
 914 00da BFB2     		uxth	r7, r7
 915              	.LVL97:
 916              	.LBE6:
 137:lib/widget.c  ****         {                        
 917              		.loc 1 137 0 discriminator 2
 918 00dc 0136     		adds	r6, r6, #1
 919              	.LVL98:
 920 00de 00E0     		b	.L51
 921              	.LVL99:
 922              	.L56:
 923              	.LBE5:
 924 00e0 0026     		movs	r6, #0
 925              	.LVL100:
 926              	.L51:
 927              	.LBB7:
 137:lib/widget.c  ****         {                        
 928              		.loc 1 137 0 is_stmt 0 discriminator 1
 929 00e2 B923     		movs	r3, #185
 930 00e4 9B00     		lsls	r3, r3, #2
 931 00e6 E35A     		ldrh	r3, [r4, r3]
 932 00e8 9E42     		cmp	r6, r3
 933 00ea B6DB     		blt	.L54
 934 00ec 03E0     		b	.L53
 935              	.LVL101:
 936              	.L57:
 937              	.LBE7:
 155:lib/widget.c  ****         }
 938              		.loc 1 155 0 is_stmt 1
 939 00ee 0021     		movs	r1, #0
 940 00f0 3800     		movs	r0, r7
 941              	.LVL102:
 942 00f2 FFF7FEFF 		bl	EraseBlankArea
 943              	.LVL103:
 944              	.L53:
 158:lib/widget.c  **** }
 945              		.loc 1 158 0
 946 00f6 4346     		mov	r3, r8
 947 00f8 002B     		cmp	r3, #0
 948 00fa 02D0     		beq	.L48
 158:lib/widget.c  **** }
 949              		.loc 1 158 0 is_stmt 0 discriminator 1
 950 00fc 2000     		movs	r0, r4
 951 00fe FFF7FEFF 		bl	SetDrawScrollButton
 952              	.LVL104:
 953              	.L48:
 159:lib/widget.c  **** 
 954              		.loc 1 159 0 is_stmt 1
 955 0102 04B0     		add	sp, sp, #16
 956              		@ sp needed
 957              	.LVL105:
 958              	.LVL106:
 959              	.LVL107:
ARM GAS  C:\Users\luvsd\AppData\Local\Temp\ccS26oY7.s 			page 27


 960 0104 1CBC     		pop	{r2, r3, r4}
 961 0106 9046     		mov	r8, r2
 962 0108 9946     		mov	r9, r3
 963 010a A246     		mov	r10, r4
 964 010c F0BD     		pop	{r4, r5, r6, r7, pc}
 965              	.L59:
 966 010e C046     		.align	2
 967              	.L58:
 968 0110 E6020000 		.word	742
 969 0114 00000000 		.word	g_DEFAULT_BUTTON_HEIGHT
 970              		.cfi_endproc
 971              	.LFE66:
 972              		.size	SetDrawListButtons, .-SetDrawListButtons
 973              		.section	.text.SetDrawNodeListButtons,"ax",%progbits
 974              		.align	2
 975              		.global	SetDrawNodeListButtons
 976              		.code	16
 977              		.thumb_func
 978              		.type	SetDrawNodeListButtons, %function
 979              	SetDrawNodeListButtons:
 980              	.LFB67:
 162:lib/widget.c  ****     RECT bodyRect = GetBodyArea();
 981              		.loc 1 162 0
 982              		.cfi_startproc
 983              		@ args = 0, pretend = 0, frame = 16
 984              		@ frame_needed = 0, uses_anonymous_args = 0
 985              	.LVL108:
 986 0000 F0B5     		push	{r4, r5, r6, r7, lr}
 987              		.cfi_def_cfa_offset 20
 988              		.cfi_offset 4, -20
 989              		.cfi_offset 5, -16
 990              		.cfi_offset 6, -12
 991              		.cfi_offset 7, -8
 992              		.cfi_offset 14, -4
 993 0002 4F46     		mov	r7, r9
 994 0004 4646     		mov	r6, r8
 995 0006 C0B4     		push	{r6, r7}
 996              		.cfi_def_cfa_offset 28
 997              		.cfi_offset 8, -28
 998              		.cfi_offset 9, -24
 999 0008 87B0     		sub	sp, sp, #28
 1000              		.cfi_def_cfa_offset 56
 1001 000a 0500     		movs	r5, r0
 1002 000c 0290     		str	r0, [sp, #8]
 1003 000e 0C00     		movs	r4, r1
 163:lib/widget.c  ****     uint16 yPos = bodyRect.top;
 1004              		.loc 1 163 0
 1005 0010 04AE     		add	r6, sp, #16
 1006 0012 3000     		movs	r0, r6
 1007              	.LVL109:
 1008 0014 FFF7FEFF 		bl	GetBodyArea
 1009              	.LVL110:
 164:lib/widget.c  ****     uint16 yPosTitle;
 1010              		.loc 1 164 0
 1011 0018 B688     		ldrh	r6, [r6, #4]
 1012              	.LVL111:
 167:lib/widget.c  ****    
ARM GAS  C:\Users\luvsd\AppData\Local\Temp\ccS26oY7.s 			page 28


 1013              		.loc 1 167 0
 1014 001a FFF7FEFF 		bl	getMaxNoOfItemInListButton
 1015              	.LVL112:
 1016 001e 0138     		subs	r0, r0, #1
 1017 0020 B923     		movs	r3, #185
 1018 0022 9B00     		lsls	r3, r3, #2
 1019 0024 E052     		strh	r0, [r4, r3]
 169:lib/widget.c  ****     strcpy(menu->title,parent->nodeName);
 1020              		.loc 1 169 0
 1021 0026 2800     		movs	r0, r5
 1022 0028 FFF7FEFF 		bl	getNoOfChild
 1023              	.LVL113:
 1024 002c 404B     		ldr	r3, .L71
 1025 002e E052     		strh	r0, [r4, r3]
 170:lib/widget.c  ****     
 1026              		.loc 1 170 0
 1027 0030 2900     		movs	r1, r5
 1028 0032 1031     		adds	r1, r1, #16
 1029 0034 2000     		movs	r0, r4
 1030 0036 FFF7FEFF 		bl	strcpy
 1031              	.LVL114:
 172:lib/widget.c  ****     
 1032              		.loc 1 172 0
 1033 003a 2000     		movs	r0, r4
 1034 003c FFF7FEFF 		bl	isExistScroll
 1035              	.LVL115:
 1036 0040 0100     		movs	r1, r0
 1037 0042 8046     		mov	r8, r0
 1038              	.LVL116:
 174:lib/widget.c  ****       
 1039              		.loc 1 174 0
 1040 0044 2000     		movs	r0, r4
 1041 0046 FFF7FEFF 		bl	DrawTitleButton
 1042              	.LVL117:
 1043 004a 071E     		subs	r7, r0, #0
 1044              	.LVL118:
 1045 004c 00D1     		bne	.L61
 164:lib/widget.c  ****     uint16 yPosTitle;
 1046              		.loc 1 164 0
 1047 004e 3700     		movs	r7, r6
 1048              	.L61:
 1049              	.LVL119:
 176:lib/widget.c  ****     {
 1050              		.loc 1 176 0
 1051 0050 029B     		ldr	r3, [sp, #8]
 1052 0052 5B68     		ldr	r3, [r3, #4]
 1053 0054 0393     		str	r3, [sp, #12]
 1054 0056 002B     		cmp	r3, #0
 1055 0058 11D1     		bne	.L69
 1056 005a 5AE0     		b	.L70
 1057              	.LVL120:
 1058              	.L64:
 1059              	.LBB8:
 180:lib/widget.c  ****         }
 1060              		.loc 1 180 0 discriminator 3
 1061 005c AB00     		lsls	r3, r5, #2
 1062 005e 5B19     		adds	r3, r3, r5
ARM GAS  C:\Users\luvsd\AppData\Local\Temp\ccS26oY7.s 			page 29


 1063 0060 9800     		lsls	r0, r3, #2
 1064 0062 1030     		adds	r0, r0, #16
 1065 0064 2018     		adds	r0, r4, r0
 1066 0066 061D     		adds	r6, r0, #4
 1067 0068 2900     		movs	r1, r5
 1068 006a 0298     		ldr	r0, [sp, #8]
 1069 006c FFF7FEFF 		bl	getNthChild
 1070              	.LVL121:
 1071 0070 0100     		movs	r1, r0
 1072 0072 1031     		adds	r1, r1, #16
 1073 0074 3000     		movs	r0, r6
 1074 0076 FFF7FEFF 		bl	strcpy
 1075              	.LVL122:
 178:lib/widget.c  ****         {  
 1076              		.loc 1 178 0 discriminator 3
 1077 007a 0135     		adds	r5, r5, #1
 1078              	.LVL123:
 1079 007c 00E0     		b	.L62
 1080              	.LVL124:
 1081              	.L69:
 1082              	.LBE8:
 1083 007e 0025     		movs	r5, #0
 1084              	.LVL125:
 1085              	.L62:
 1086              	.LBB9:
 178:lib/widget.c  ****         {  
 1087              		.loc 1 178 0 is_stmt 0 discriminator 1
 1088 0080 2B4B     		ldr	r3, .L71
 1089 0082 E35A     		ldrh	r3, [r4, r3]
 1090 0084 9D42     		cmp	r5, r3
 1091 0086 E9DB     		blt	.L64
 1092 0088 0026     		movs	r6, #0
 1093 008a 3CE0     		b	.L65
 1094              	.LVL126:
 1095              	.L67:
 1096              	.LBE9:
 1097              	.LBB10:
 1098              	.LBB11:
 185:lib/widget.c  ****             SetDefaultButtonStyle(btn);     
 1099              		.loc 1 185 0 is_stmt 1
 1100 008c B301     		lsls	r3, r6, #6
 1101 008e 9946     		mov	r9, r3
 1102 0090 1D00     		movs	r5, r3
 1103 0092 A135     		adds	r5, r5, #161
 1104 0094 FF35     		adds	r5, r5, #255
 1105 0096 6519     		adds	r5, r4, r5
 1106 0098 0435     		adds	r5, r5, #4
 1107              	.LVL127:
 186:lib/widget.c  ****             SetButtonStyleColor(btn, BUTTON_STYLE_LIST);        
 1108              		.loc 1 186 0
 1109 009a 2800     		movs	r0, r5
 1110 009c FFF7FEFF 		bl	SetDefaultButtonStyle
 1111              	.LVL128:
 187:lib/widget.c  ****             SetButtonSize      (btn, yPos, g_DEFAULT_BUTTON_HEIGHT, BUTTON_X_FULL, BUTTON_Y,withScr
 1112              		.loc 1 187 0
 1113 00a0 0021     		movs	r1, #0
 1114 00a2 2800     		movs	r0, r5
ARM GAS  C:\Users\luvsd\AppData\Local\Temp\ccS26oY7.s 			page 30


 1115 00a4 FFF7FEFF 		bl	SetButtonStyleColor
 1116              	.LVL129:
 188:lib/widget.c  ****             btn->align = TEXT_ALIGN_LEFT;
 1117              		.loc 1 188 0
 1118 00a8 224B     		ldr	r3, .L71+4
 1119 00aa 1A88     		ldrh	r2, [r3]
 1120 00ac 4346     		mov	r3, r8
 1121 00ae 0193     		str	r3, [sp, #4]
 1122 00b0 0B23     		movs	r3, #11
 1123 00b2 0093     		str	r3, [sp]
 1124 00b4 0A3B     		subs	r3, r3, #10
 1125 00b6 3900     		movs	r1, r7
 1126 00b8 2800     		movs	r0, r5
 1127 00ba FFF7FEFF 		bl	SetButtonSize
 1128              	.LVL130:
 189:lib/widget.c  ****             
 1129              		.loc 1 189 0
 1130 00be 4B46     		mov	r3, r9
 1131 00c0 E318     		adds	r3, r4, r3
 1132 00c2 DF33     		adds	r3, r3, #223
 1133 00c4 FF33     		adds	r3, r3, #255
 1134 00c6 0122     		movs	r2, #1
 1135 00c8 1A70     		strb	r2, [r3]
 191:lib/widget.c  ****             if(textIdx >= menu->sizeOfList) break;
 1136              		.loc 1 191 0
 1137 00ca B923     		movs	r3, #185
 1138 00cc 9B00     		lsls	r3, r3, #2
 1139 00ce E25A     		ldrh	r2, [r4, r3]
 1140 00d0 8433     		adds	r3, r3, #132
 1141 00d2 E35A     		ldrh	r3, [r4, r3]
 1142 00d4 5343     		muls	r3, r2
 1143 00d6 9B19     		adds	r3, r3, r6
 1144 00d8 9BB2     		uxth	r3, r3
 1145              	.LVL131:
 192:lib/widget.c  ****             
 1146              		.loc 1 192 0
 1147 00da 154A     		ldr	r2, .L71
 1148 00dc A25A     		ldrh	r2, [r4, r2]
 1149 00de 9342     		cmp	r3, r2
 1150 00e0 1BD2     		bcs	.L66
 194:lib/widget.c  ****             yPos += g_DEFAULT_BUTTON_HEIGHT;
 1151              		.loc 1 194 0 discriminator 2
 1152 00e2 4846     		mov	r0, r9
 1153 00e4 A930     		adds	r0, r0, #169
 1154 00e6 FF30     		adds	r0, r0, #255
 1155 00e8 2018     		adds	r0, r4, r0
 1156 00ea 0830     		adds	r0, r0, #8
 1157 00ec 9A00     		lsls	r2, r3, #2
 1158 00ee D318     		adds	r3, r2, r3
 1159              	.LVL132:
 1160 00f0 9900     		lsls	r1, r3, #2
 1161 00f2 1031     		adds	r1, r1, #16
 1162 00f4 6118     		adds	r1, r4, r1
 1163 00f6 0431     		adds	r1, r1, #4
 1164 00f8 FFF7FEFF 		bl	strcpy
 1165              	.LVL133:
 195:lib/widget.c  ****         }
ARM GAS  C:\Users\luvsd\AppData\Local\Temp\ccS26oY7.s 			page 31


 1166              		.loc 1 195 0 discriminator 2
 1167 00fc 0D4B     		ldr	r3, .L71+4
 1168 00fe 1888     		ldrh	r0, [r3]
 1169 0100 3F18     		adds	r7, r7, r0
 1170              	.LVL134:
 1171 0102 BFB2     		uxth	r7, r7
 1172              	.LVL135:
 1173              	.LBE11:
 183:lib/widget.c  ****         {                        
 1174              		.loc 1 183 0 discriminator 2
 1175 0104 0136     		adds	r6, r6, #1
 1176              	.LVL136:
 1177              	.L65:
 183:lib/widget.c  ****         {                        
 1178              		.loc 1 183 0 is_stmt 0 discriminator 1
 1179 0106 B923     		movs	r3, #185
 1180 0108 9B00     		lsls	r3, r3, #2
 1181 010a E35A     		ldrh	r3, [r4, r3]
 1182 010c 9E42     		cmp	r6, r3
 1183 010e BDDB     		blt	.L67
 1184 0110 03E0     		b	.L66
 1185              	.LVL137:
 1186              	.L70:
 1187              	.LBE10:
 200:lib/widget.c  ****         }
 1188              		.loc 1 200 0 is_stmt 1
 1189 0112 0021     		movs	r1, #0
 1190 0114 3800     		movs	r0, r7
 1191              	.LVL138:
 1192 0116 FFF7FEFF 		bl	EraseBlankArea
 1193              	.LVL139:
 1194              	.L66:
 203:lib/widget.c  **** }
 1195              		.loc 1 203 0
 1196 011a 4346     		mov	r3, r8
 1197 011c 002B     		cmp	r3, #0
 1198 011e 02D0     		beq	.L60
 203:lib/widget.c  **** }
 1199              		.loc 1 203 0 is_stmt 0 discriminator 1
 1200 0120 2000     		movs	r0, r4
 1201 0122 FFF7FEFF 		bl	SetDrawScrollButton
 1202              	.LVL140:
 1203              	.L60:
 204:lib/widget.c  **** //
 1204              		.loc 1 204 0 is_stmt 1
 1205 0126 07B0     		add	sp, sp, #28
 1206              		@ sp needed
 1207              	.LVL141:
 1208              	.LVL142:
 1209 0128 0CBC     		pop	{r2, r3}
 1210 012a 9046     		mov	r8, r2
 1211 012c 9946     		mov	r9, r3
 1212 012e F0BD     		pop	{r4, r5, r6, r7, pc}
 1213              	.L72:
 1214              		.align	2
 1215              	.L71:
 1216 0130 E6020000 		.word	742
ARM GAS  C:\Users\luvsd\AppData\Local\Temp\ccS26oY7.s 			page 32


 1217 0134 00000000 		.word	g_DEFAULT_BUTTON_HEIGHT
 1218              		.cfi_endproc
 1219              	.LFE67:
 1220              		.size	SetDrawNodeListButtons, .-SetDrawNodeListButtons
 1221              		.section	.text.UpdateDrawListButtons,"ax",%progbits
 1222              		.align	2
 1223              		.global	UpdateDrawListButtons
 1224              		.code	16
 1225              		.thumb_func
 1226              		.type	UpdateDrawListButtons, %function
 1227              	UpdateDrawListButtons:
 1228              	.LFB68:
 246:lib/widget.c  ****     uint16 yPos;    
 1229              		.loc 1 246 0
 1230              		.cfi_startproc
 1231              		@ args = 0, pretend = 0, frame = 32
 1232              		@ frame_needed = 0, uses_anonymous_args = 0
 1233              	.LVL143:
 1234 0000 F0B5     		push	{r4, r5, r6, r7, lr}
 1235              		.cfi_def_cfa_offset 20
 1236              		.cfi_offset 4, -20
 1237              		.cfi_offset 5, -16
 1238              		.cfi_offset 6, -12
 1239              		.cfi_offset 7, -8
 1240              		.cfi_offset 14, -4
 1241 0002 89B0     		sub	sp, sp, #36
 1242              		.cfi_def_cfa_offset 56
 1243 0004 0500     		movs	r5, r0
 1244 0006 0F00     		movs	r7, r1
 1245              	.LVL144:
 1246              	.LBB12:
 249:lib/widget.c  ****     {                        
 1247              		.loc 1 249 0
 1248 0008 0026     		movs	r6, #0
 1249 000a 3DE0     		b	.L74
 1250              	.LVL145:
 1251              	.L79:
 1252              	.LBB13:
 251:lib/widget.c  ****         if(j >= menu->sizeOfList) break;
 1253              		.loc 1 251 0
 1254 000c DA22     		movs	r2, #218
 1255 000e 9200     		lsls	r2, r2, #2
 1256 0010 AA5A     		ldrh	r2, [r5, r2]
 1257 0012 5343     		muls	r3, r2
 1258 0014 F318     		adds	r3, r6, r3
 1259              	.LVL146:
 252:lib/widget.c  ****         
 1260              		.loc 1 252 0
 1261 0016 234A     		ldr	r2, .L81
 1262 0018 AA5A     		ldrh	r2, [r5, r2]
 1263 001a 9342     		cmp	r3, r2
 1264 001c 39DA     		bge	.L75
 254:lib/widget.c  ****         
 1265              		.loc 1 254 0
 1266 001e B401     		lsls	r4, r6, #6
 1267              	.LVL147:
 1268 0020 A134     		adds	r4, r4, #161
ARM GAS  C:\Users\luvsd\AppData\Local\Temp\ccS26oY7.s 			page 33


 1269 0022 FF34     		adds	r4, r4, #255
 1270 0024 2C19     		adds	r4, r5, r4
 1271 0026 0434     		adds	r4, r4, #4
 1272              	.LVL148:
 256:lib/widget.c  ****         {
 1273              		.loc 1 256 0
 1274 0028 1F4A     		ldr	r2, .L81+4
 1275 002a 9742     		cmp	r7, r2
 1276 002c 18D0     		beq	.L76
 1277              	.LBB14:
 259:lib/widget.c  ****             strcpy(btn->text,buff);              
 1278              		.loc 1 259 0
 1279 002e BB42     		cmp	r3, r7
 1280 0030 01D1     		bne	.L80
 1281 0032 3E22     		movs	r2, #62
 1282 0034 00E0     		b	.L77
 1283              	.L80:
 1284 0036 2022     		movs	r2, #32
 1285              	.L77:
 259:lib/widget.c  ****             strcpy(btn->text,buff);              
 1286              		.loc 1 259 0 is_stmt 0 discriminator 4
 1287 0038 9900     		lsls	r1, r3, #2
 1288 003a CB18     		adds	r3, r1, r3
 1289              	.LVL149:
 1290 003c 9900     		lsls	r1, r3, #2
 1291 003e 0B00     		movs	r3, r1
 1292 0040 1033     		adds	r3, r3, #16
 1293 0042 E918     		adds	r1, r5, r3
 1294 0044 0B1D     		adds	r3, r1, #4
 1295 0046 1949     		ldr	r1, .L81+8
 1296 0048 6846     		mov	r0, sp
 1297 004a FFF7FEFF 		bl	sprintf
 1298              	.LVL150:
 260:lib/widget.c  ****         } else {
 1299              		.loc 1 260 0 is_stmt 1 discriminator 4
 1300 004e B001     		lsls	r0, r6, #6
 1301 0050 A930     		adds	r0, r0, #169
 1302 0052 FF30     		adds	r0, r0, #255
 1303 0054 2818     		adds	r0, r5, r0
 1304 0056 0830     		adds	r0, r0, #8
 1305 0058 6946     		mov	r1, sp
 1306 005a FFF7FEFF 		bl	strcpy
 1307              	.LVL151:
 1308              	.LBE14:
 1309 005e 08E0     		b	.L78
 1310              	.LVL152:
 1311              	.L76:
 262:lib/widget.c  ****         }
 1312              		.loc 1 262 0
 1313 0060 9A00     		lsls	r2, r3, #2
 1314 0062 D318     		adds	r3, r2, r3
 1315              	.LVL153:
 1316 0064 9A00     		lsls	r2, r3, #2
 1317 0066 1032     		adds	r2, r2, #16
 1318 0068 AA18     		adds	r2, r5, r2
 1319 006a 111D     		adds	r1, r2, #4
 1320 006c 2000     		movs	r0, r4
ARM GAS  C:\Users\luvsd\AppData\Local\Temp\ccS26oY7.s 			page 34


 1321 006e FFF7FEFF 		bl	SetButtonText
 1322              	.LVL154:
 1323              	.L78:
 265:lib/widget.c  ****         yPos = btn->rect.bottom + 1;
 1324              		.loc 1 265 0 discriminator 2
 1325 0072 2000     		movs	r0, r4
 1326 0074 FFF7FEFF 		bl	DrawButton
 1327              	.LVL155:
 266:lib/widget.c  ****     }
 1328              		.loc 1 266 0 discriminator 2
 1329 0078 B301     		lsls	r3, r6, #6
 1330 007a EB18     		adds	r3, r5, r3
 1331 007c AF33     		adds	r3, r3, #175
 1332 007e FF33     		adds	r3, r3, #255
 1333 0080 1888     		ldrh	r0, [r3]
 1334 0082 0130     		adds	r0, r0, #1
 1335 0084 84B2     		uxth	r4, r0
 1336              	.LVL156:
 1337              	.LBE13:
 249:lib/widget.c  ****     {                        
 1338              		.loc 1 249 0 discriminator 2
 1339 0086 0136     		adds	r6, r6, #1
 1340              	.LVL157:
 1341              	.L74:
 249:lib/widget.c  ****     {                        
 1342              		.loc 1 249 0 is_stmt 0 discriminator 1
 1343 0088 B923     		movs	r3, #185
 1344 008a 9B00     		lsls	r3, r3, #2
 1345 008c EB5A     		ldrh	r3, [r5, r3]
 1346 008e 9E42     		cmp	r6, r3
 1347 0090 BCDB     		blt	.L79
 1348              	.L75:
 1349              	.LBE12:
 269:lib/widget.c  **** }
 1350              		.loc 1 269 0 is_stmt 1
 1351 0092 2800     		movs	r0, r5
 1352 0094 FFF7FEFF 		bl	isExistScroll
 1353              	.LVL158:
 1354 0098 0100     		movs	r1, r0
 1355 009a 2000     		movs	r0, r4
 1356 009c FFF7FEFF 		bl	EraseBlankArea
 1357              	.LVL159:
 270:lib/widget.c  **** 
 1358              		.loc 1 270 0
 1359 00a0 09B0     		add	sp, sp, #36
 1360              		@ sp needed
 1361              	.LVL160:
 1362              	.LVL161:
 1363              	.LVL162:
 1364 00a2 F0BD     		pop	{r4, r5, r6, r7, pc}
 1365              	.L82:
 1366              		.align	2
 1367              	.L81:
 1368 00a4 E6020000 		.word	742
 1369 00a8 FFFF0000 		.word	65535
 1370 00ac 0C000000 		.word	.LC14
 1371              		.cfi_endproc
ARM GAS  C:\Users\luvsd\AppData\Local\Temp\ccS26oY7.s 			page 35


 1372              	.LFE68:
 1373              		.size	UpdateDrawListButtons, .-UpdateDrawListButtons
 1374              		.section	.text.doListMenu,"ax",%progbits
 1375              		.align	2
 1376              		.global	doListMenu
 1377              		.code	16
 1378              		.thumb_func
 1379              		.type	doListMenu, %function
 1380              	doListMenu:
 1381              	.LFB70:
 305:lib/widget.c  ****     MENUNODE *thisMenu = (MENUNODE *) this;     
 1382              		.loc 1 305 0
 1383              		.cfi_startproc
 1384              		@ args = 0, pretend = 0, frame = 8
 1385              		@ frame_needed = 0, uses_anonymous_args = 0
 1386              	.LVL163:
 1387 0000 30B5     		push	{r4, r5, lr}
 1388              		.cfi_def_cfa_offset 12
 1389              		.cfi_offset 4, -12
 1390              		.cfi_offset 5, -8
 1391              		.cfi_offset 14, -4
 1392 0002 83B0     		sub	sp, sp, #12
 1393              		.cfi_def_cfa_offset 24
 1394 0004 0400     		movs	r4, r0
 1395              	.LVL164:
 308:lib/widget.c  ****     {
 1396              		.loc 1 308 0
 1397 0006 0029     		cmp	r1, #0
 1398 0008 1AD0     		beq	.L85
 1399 000a 0129     		cmp	r1, #1
 1400 000c 50D1     		bne	.L96
 312:lib/widget.c  ****                 g_ListMenu.curPage = 0;
 1401              		.loc 1 312 0
 1402 000e FFF7FEFF 		bl	getNoOfChild
 1403              	.LVL165:
 1404 0012 294B     		ldr	r3, .L98
 1405 0014 1880     		strh	r0, [r3]
 313:lib/widget.c  ****                 SetDrawNodeListButtons(thisMenu, &g_ListMenu);
 1406              		.loc 1 313 0
 1407 0016 294D     		ldr	r5, .L98+4
 1408 0018 0022     		movs	r2, #0
 1409 001a DA23     		movs	r3, #218
 1410 001c 9B00     		lsls	r3, r3, #2
 1411 001e EA52     		strh	r2, [r5, r3]
 314:lib/widget.c  ****                 UpdateDrawListButtons(&g_ListMenu,NO_SELECT);
 1412              		.loc 1 314 0
 1413 0020 2900     		movs	r1, r5
 1414 0022 2000     		movs	r0, r4
 1415 0024 FFF7FEFF 		bl	SetDrawNodeListButtons
 1416              	.LVL166:
 315:lib/widget.c  ****                 SetDrawBottomButtons("QUIT", NULL, BUTTON_STYLE_R_GREEN, BUTTON_STYLE_R_BLUE); 
 1417              		.loc 1 315 0
 1418 0028 2549     		ldr	r1, .L98+8
 1419 002a 2800     		movs	r0, r5
 1420 002c FFF7FEFF 		bl	UpdateDrawListButtons
 1421              	.LVL167:
 316:lib/widget.c  ****             }
ARM GAS  C:\Users\luvsd\AppData\Local\Temp\ccS26oY7.s 			page 36


 1422              		.loc 1 316 0
 1423 0030 1223     		movs	r3, #18
 1424 0032 1122     		movs	r2, #17
 1425 0034 0021     		movs	r1, #0
 1426 0036 2348     		ldr	r0, .L98+12
 1427 0038 FFF7FEFF 		bl	SetDrawBottomButtons
 1428              	.LVL168:
 350:lib/widget.c  **** }
 1429              		.loc 1 350 0
 1430 003c 2248     		ldr	r0, .L98+16
 318:lib/widget.c  ****         
 1431              		.loc 1 318 0
 1432 003e 38E0     		b	.L84
 1433              	.LVL169:
 1434              	.L85:
 1435              	.LBB15:
 322:lib/widget.c  ****                 if(tc.isClick == FALSE) break;
 1436              		.loc 1 322 0
 1437 0040 6846     		mov	r0, sp
 1438              	.LVL170:
 1439 0042 FFF7FEFF 		bl	GetTouch
 1440              	.LVL171:
 323:lib/widget.c  ****                 
 1441              		.loc 1 323 0
 1442 0046 6B46     		mov	r3, sp
 1443 0048 1B88     		ldrh	r3, [r3]
 1444 004a 002B     		cmp	r3, #0
 1445 004c 2BD0     		beq	.L87
 325:lib/widget.c  ****                 
 1446              		.loc 1 325 0
 1447 004e 1B49     		ldr	r1, .L98+4
 1448 0050 6846     		mov	r0, sp
 1449 0052 FFF7FEFF 		bl	getIndexOfClickedListMenu
 1450              	.LVL172:
 327:lib/widget.c  ****                 {
 1451              		.loc 1 327 0
 1452 0056 0728     		cmp	r0, #7
 1453 0058 0DD0     		beq	.L89
 1454 005a FF28     		cmp	r0, #255
 1455 005c 15D0     		beq	.L90
 1456 005e 0628     		cmp	r0, #6
 1457 0060 1BD1     		bne	.L97
 329:lib/widget.c  ****                           UpdateDrawListButtons(&g_ListMenu,NO_SELECT);
 1458              		.loc 1 329 0
 1459 0062 1648     		ldr	r0, .L98+4
 1460              	.LVL173:
 1461 0064 DA22     		movs	r2, #218
 1462 0066 9200     		lsls	r2, r2, #2
 1463 0068 835A     		ldrh	r3, [r0, r2]
 1464 006a 013B     		subs	r3, r3, #1
 1465 006c 8352     		strh	r3, [r0, r2]
 330:lib/widget.c  ****                         break;
 1466              		.loc 1 330 0
 1467 006e 1449     		ldr	r1, .L98+8
 1468 0070 FFF7FEFF 		bl	UpdateDrawListButtons
 1469              	.LVL174:
 331:lib/widget.c  ****                     case IDX_SCROLL_DOWN: g_ListMenu.curPage++;
ARM GAS  C:\Users\luvsd\AppData\Local\Temp\ccS26oY7.s 			page 37


 1470              		.loc 1 331 0
 1471 0074 15E0     		b	.L92
 1472              	.LVL175:
 1473              	.L89:
 332:lib/widget.c  ****                           UpdateDrawListButtons(&g_ListMenu,NO_SELECT);                   
 1474              		.loc 1 332 0
 1475 0076 1148     		ldr	r0, .L98+4
 1476              	.LVL176:
 1477 0078 DA22     		movs	r2, #218
 1478 007a 9200     		lsls	r2, r2, #2
 1479 007c 835A     		ldrh	r3, [r0, r2]
 1480 007e 0133     		adds	r3, r3, #1
 1481 0080 8352     		strh	r3, [r0, r2]
 333:lib/widget.c  ****                         break;
 1482              		.loc 1 333 0
 1483 0082 0F49     		ldr	r1, .L98+8
 1484 0084 FFF7FEFF 		bl	UpdateDrawListButtons
 1485              	.LVL177:
 334:lib/widget.c  ****                     case NO_CLICK :
 1486              		.loc 1 334 0
 1487 0088 0BE0     		b	.L92
 1488              	.LVL178:
 1489              	.L90:
 337:lib/widget.c  ****                             {
 1490              		.loc 1 337 0
 1491 008a 0222     		movs	r2, #2
 1492 008c 0F49     		ldr	r1, .L98+20
 1493 008e 6846     		mov	r0, sp
 1494              	.LVL179:
 1495 0090 FFF7FEFF 		bl	getIndexOfClickedButton
 1496              	.LVL180:
 1497 0094 0028     		cmp	r0, #0
 1498 0096 08D0     		beq	.L95
 1499 0098 03E0     		b	.L92
 1500              	.LVL181:
 1501              	.L97:
 345:lib/widget.c  ****                 }                
 1502              		.loc 1 345 0
 1503 009a 074A     		ldr	r2, .L98
 1504 009c 1288     		ldrh	r2, [r2]
 1505 009e 9042     		cmp	r0, r2
 1506 00a0 07D3     		bcc	.L84
 1507              	.LVL182:
 1508              	.L92:
 1509              	.LBE15:
 350:lib/widget.c  **** }
 1510              		.loc 1 350 0 discriminator 1
 1511 00a2 0948     		ldr	r0, .L98+16
 348:lib/widget.c  ****     }
 1512              		.loc 1 348 0 discriminator 1
 1513 00a4 05E0     		b	.L84
 1514              	.L87:
 350:lib/widget.c  **** }
 1515              		.loc 1 350 0
 1516 00a6 0848     		ldr	r0, .L98+16
 1517 00a8 03E0     		b	.L84
 1518              	.L95:
ARM GAS  C:\Users\luvsd\AppData\Local\Temp\ccS26oY7.s 			page 38


 1519              	.LBB16:
 339:lib/widget.c  ****                             //  case BOTTOM_RIGHT: return 1;                            
 1520              		.loc 1 339 0
 1521 00aa 8020     		movs	r0, #128
 1522 00ac 0006     		lsls	r0, r0, #24
 1523 00ae 00E0     		b	.L84
 1524              	.LVL183:
 1525              	.L96:
 1526              	.LBE16:
 350:lib/widget.c  **** }
 1527              		.loc 1 350 0
 1528 00b0 0548     		ldr	r0, .L98+16
 1529              	.LVL184:
 1530              	.L84:
 351:lib/widget.c  **** 
 1531              		.loc 1 351 0
 1532 00b2 03B0     		add	sp, sp, #12
 1533              		@ sp needed
 1534              	.LVL185:
 1535 00b4 30BD     		pop	{r4, r5, pc}
 1536              	.L99:
 1537 00b6 C046     		.align	2
 1538              	.L98:
 1539 00b8 00000000 		.word	.LANCHOR1
 1540 00bc 00000000 		.word	g_ListMenu
 1541 00c0 FFFF0000 		.word	65535
 1542 00c4 14000000 		.word	.LC18
 1543 00c8 01000080 		.word	-2147483647
 1544 00cc 00000000 		.word	g_btnBottom
 1545              		.cfi_endproc
 1546              	.LFE70:
 1547              		.size	doListMenu, .-doListMenu
 1548              		.section	.text.DrawUpDownMenu,"ax",%progbits
 1549              		.align	2
 1550              		.global	DrawUpDownMenu
 1551              		.code	16
 1552              		.thumb_func
 1553              		.type	DrawUpDownMenu, %function
 1554              	DrawUpDownMenu:
 1555              	.LFB72:
 378:lib/widget.c  ****     va_list ap;
 1556              		.loc 1 378 0
 1557              		.cfi_startproc
 1558              		@ args = 4, pretend = 4, frame = 104
 1559              		@ frame_needed = 0, uses_anonymous_args = 1
 1560              	.LVL186:
 1561 0000 08B4     		push	{r3}
 1562              		.cfi_def_cfa_offset 4
 1563 0002 F0B5     		push	{r4, r5, r6, r7, lr}
 1564              		.cfi_def_cfa_offset 24
 1565              		.cfi_offset 4, -24
 1566              		.cfi_offset 5, -20
 1567              		.cfi_offset 6, -16
 1568              		.cfi_offset 7, -12
 1569              		.cfi_offset 14, -8
 1570 0004 5F46     		mov	r7, fp
 1571 0006 80B4     		push	{r7}
ARM GAS  C:\Users\luvsd\AppData\Local\Temp\ccS26oY7.s 			page 39


 1572              		.cfi_def_cfa_offset 28
 1573              		.cfi_offset 11, -28
 1574 0008 9DB0     		sub	sp, sp, #116
 1575              		.cfi_def_cfa_offset 144
 1576 000a 0600     		movs	r6, r0
 1577 000c 0F00     		movs	r7, r1
 1578 000e 0592     		str	r2, [sp, #20]
 1579 0010 23AA     		add	r2, sp, #140
 1580              	.LVL187:
 1581 0012 02CA     		ldmia	r2!, {r1}
 1582              	.LVL188:
 381:lib/widget.c  ****     vsprintf(buff, fmt, ap);
 1583              		.loc 1 381 0
 1584 0014 1B92     		str	r2, [sp, #108]
 382:lib/widget.c  ****     va_end(ap);
 1585              		.loc 1 382 0
 1586 0016 16A8     		add	r0, sp, #88
 1587              	.LVL189:
 1588 0018 FFF7FEFF 		bl	vsprintf
 1589              	.LVL190:
 385:lib/widget.c  ****     SetDefaultButtonStyle(&menu->btnMessage);
 1590              		.loc 1 385 0
 1591 001c 3C23     		movs	r3, #60
 1592 001e 9C46     		mov	ip, r3
 1593 0020 B444     		add	ip, ip, r6
 1594 0022 6346     		mov	r3, ip
 1595 0024 0221     		movs	r1, #2
 1596 0026 0393     		str	r3, [sp, #12]
 1597 0028 6046     		mov	r0, ip
 1598 002a FFF7FEFF 		bl	SetDefaultButtonStyleArray
 1599              	.LVL191:
 386:lib/widget.c  ****     
 1600              		.loc 1 386 0
 1601 002e BC24     		movs	r4, #188
 1602 0030 A446     		mov	ip, r4
 1603 0032 B444     		add	ip, ip, r6
 1604 0034 6346     		mov	r3, ip
 1605 0036 0493     		str	r3, [sp, #16]
 1606 0038 6046     		mov	r0, ip
 1607 003a FFF7FEFF 		bl	SetDefaultButtonStyle
 1608              	.LVL192:
 388:lib/widget.c  ****     EraseBlankArea(yPos,FALSE);
 1609              		.loc 1 388 0
 1610 003e 0021     		movs	r1, #0
 1611 0040 3800     		movs	r0, r7
 1612 0042 FFF7FEFF 		bl	DrawTitleButton
 1613              	.LVL193:
 389:lib/widget.c  ****     
 1614              		.loc 1 389 0
 1615 0046 0021     		movs	r1, #0
 1616 0048 FFF7FEFF 		bl	EraseBlankArea
 1617              	.LVL194:
 392:lib/widget.c  **** 
 1618              		.loc 1 392 0
 1619 004c 403C     		subs	r4, r4, #64
 1620 004e A346     		mov	fp, r4
 1621 0050 B344     		add	fp, fp, r6
ARM GAS  C:\Users\luvsd\AppData\Local\Temp\ccS26oY7.s 			page 40


 1622              	.LVL195:
 394:lib/widget.c  ****     SetButtonSize(rightBtn,0,g_DEFAULT_BUTTON_HEIGHT,BUTTON_X_2_2,BUTTON_Y_HALF,FALSE); 
 1623              		.loc 1 394 0
 1624 0052 1E4C     		ldr	r4, .L101
 1625 0054 2288     		ldrh	r2, [r4]
 1626 0056 0027     		movs	r7, #0
 1627              	.LVL196:
 1628 0058 0197     		str	r7, [sp, #4]
 1629 005a 0E25     		movs	r5, #14
 1630 005c 0095     		str	r5, [sp]
 1631 005e 0223     		movs	r3, #2
 1632 0060 0021     		movs	r1, #0
 1633 0062 0398     		ldr	r0, [sp, #12]
 1634 0064 FFF7FEFF 		bl	SetButtonSize
 1635              	.LVL197:
 395:lib/widget.c  ****             
 1636              		.loc 1 395 0
 1637 0068 2288     		ldrh	r2, [r4]
 1638 006a 0197     		str	r7, [sp, #4]
 1639 006c 0095     		str	r5, [sp]
 1640 006e 0323     		movs	r3, #3
 1641 0070 0021     		movs	r1, #0
 1642 0072 5846     		mov	r0, fp
 1643 0074 FFF7FEFF 		bl	SetButtonSize
 1644              	.LVL198:
 397:lib/widget.c  ****     DrawButton(&menu->btnMessage);
 1645              		.loc 1 397 0
 1646 0078 16A9     		add	r1, sp, #88
 1647 007a 049D     		ldr	r5, [sp, #16]
 1648 007c 2800     		movs	r0, r5
 1649 007e FFF7FEFF 		bl	SetButtonText
 1650              	.LVL199:
 398:lib/widget.c  ****     
 1651              		.loc 1 398 0
 1652 0082 2800     		movs	r0, r5
 1653 0084 FFF7FEFF 		bl	DrawButton
 1654              	.LVL200:
 401:lib/widget.c  ****     SetButtonStyleColor(&remarkBtn,BUTTON_STYLE_WHITE);
 1655              		.loc 1 401 0
 1656 0088 06A8     		add	r0, sp, #24
 1657 008a FFF7FEFF 		bl	SetDefaultButtonStyle
 1658              	.LVL201:
 402:lib/widget.c  ****     SetButtonSize(&remarkBtn,menu->btnMessage.rect.bottom+2,g_DEFAULT_BUTTON_HEIGHT,BUTTON_X_FULL,B
 1659              		.loc 1 402 0
 1660 008e 0521     		movs	r1, #5
 1661 0090 06A8     		add	r0, sp, #24
 1662 0092 FFF7FEFF 		bl	SetButtonStyleColor
 1663              	.LVL202:
 403:lib/widget.c  **** 
 1664              		.loc 1 403 0
 1665 0096 C623     		movs	r3, #198
 1666 0098 F15A     		ldrh	r1, [r6, r3]
 1667 009a 2288     		ldrh	r2, [r4]
 1668 009c 0231     		adds	r1, r1, #2
 1669 009e 89B2     		uxth	r1, r1
 1670 00a0 0197     		str	r7, [sp, #4]
 1671 00a2 BB3B     		subs	r3, r3, #187
ARM GAS  C:\Users\luvsd\AppData\Local\Temp\ccS26oY7.s 			page 41


 1672 00a4 0093     		str	r3, [sp]
 1673 00a6 0A3B     		subs	r3, r3, #10
 1674 00a8 06A8     		add	r0, sp, #24
 1675 00aa FFF7FEFF 		bl	SetButtonSize
 1676              	.LVL203:
 405:lib/widget.c  ****     DrawButton(&remarkBtn);
 1677              		.loc 1 405 0
 1678 00ae 0599     		ldr	r1, [sp, #20]
 1679 00b0 06A8     		add	r0, sp, #24
 1680 00b2 FFF7FEFF 		bl	SetButtonText
 1681              	.LVL204:
 406:lib/widget.c  **** }
 1682              		.loc 1 406 0
 1683 00b6 06A8     		add	r0, sp, #24
 1684 00b8 FFF7FEFF 		bl	DrawButton
 1685              	.LVL205:
 407:lib/widget.c  **** 
 1686              		.loc 1 407 0
 1687 00bc 1DB0     		add	sp, sp, #116
 1688              		@ sp needed
 1689              	.LVL206:
 1690              	.LVL207:
 1691 00be 04BC     		pop	{r2}
 1692 00c0 9346     		mov	fp, r2
 1693 00c2 F0BC     		pop	{r4, r5, r6, r7}
 1694 00c4 08BC     		pop	{r3}
 1695 00c6 01B0     		add	sp, sp, #4
 1696 00c8 1847     		bx	r3
 1697              	.L102:
 1698 00ca C046     		.align	2
 1699              	.L101:
 1700 00cc 00000000 		.word	g_DEFAULT_BUTTON_HEIGHT
 1701              		.cfi_endproc
 1702              	.LFE72:
 1703              		.size	DrawUpDownMenu, .-DrawUpDownMenu
 1704              		.section	.text.SetDrawMonitoringMenu,"ax",%progbits
 1705              		.align	2
 1706              		.global	SetDrawMonitoringMenu
 1707              		.code	16
 1708              		.thumb_func
 1709              		.type	SetDrawMonitoringMenu, %function
 1710              	SetDrawMonitoringMenu:
 1711              	.LFB73:
 410:lib/widget.c  ****     va_list ap;
 1712              		.loc 1 410 0
 1713              		.cfi_startproc
 1714              		@ args = 4, pretend = 12, frame = 24
 1715              		@ frame_needed = 0, uses_anonymous_args = 1
 1716              	.LVL208:
 1717 0000 0EB4     		push	{r1, r2, r3}
 1718              		.cfi_def_cfa_offset 12
 1719 0002 F0B5     		push	{r4, r5, r6, r7, lr}
 1720              		.cfi_def_cfa_offset 32
 1721              		.cfi_offset 4, -32
 1722              		.cfi_offset 5, -28
 1723              		.cfi_offset 6, -24
 1724              		.cfi_offset 7, -20
ARM GAS  C:\Users\luvsd\AppData\Local\Temp\ccS26oY7.s 			page 42


 1725              		.cfi_offset 14, -16
 1726 0004 5746     		mov	r7, r10
 1727 0006 4E46     		mov	r6, r9
 1728 0008 4546     		mov	r5, r8
 1729 000a E0B4     		push	{r5, r6, r7}
 1730              		.cfi_def_cfa_offset 44
 1731              		.cfi_offset 8, -44
 1732              		.cfi_offset 9, -40
 1733              		.cfi_offset 10, -36
 1734 000c 89B0     		sub	sp, sp, #36
 1735              		.cfi_def_cfa_offset 80
 1736 000e 0400     		movs	r4, r0
 1737 0010 11AA     		add	r2, sp, #68
 1738 0012 02CA     		ldmia	r2!, {r1}
 413:lib/widget.c  ****     vsprintf(buff, title, ap);
 1739              		.loc 1 413 0
 1740 0014 0792     		str	r2, [sp, #28]
 414:lib/widget.c  ****     va_end(ap);
 1741              		.loc 1 414 0
 1742 0016 02A8     		add	r0, sp, #8
 1743              	.LVL209:
 1744 0018 FFF7FEFF 		bl	vsprintf
 1745              	.LVL210:
 417:lib/widget.c  ****     
 1746              		.loc 1 417 0
 1747 001c 0721     		movs	r1, #7
 1748 001e 2000     		movs	r0, r4
 1749 0020 FFF7FEFF 		bl	SetDefaultButtonStyleArray
 1750              	.LVL211:
 423:lib/widget.c  ****     SetButtonStyleColor(btn,BUTTON_STYLE_ORANGE);        
 1751              		.loc 1 423 0
 1752 0024 4D4E     		ldr	r6, .L104
 1753 0026 3288     		ldrh	r2, [r6]
 1754 0028 033A     		subs	r2, r2, #3
 1755 002a 92B2     		uxth	r2, r2
 1756 002c 0025     		movs	r5, #0
 1757 002e 0195     		str	r5, [sp, #4]
 1758 0030 0D23     		movs	r3, #13
 1759 0032 0093     		str	r3, [sp]
 1760 0034 0C3B     		subs	r3, r3, #12
 1761 0036 0021     		movs	r1, #0
 1762 0038 2000     		movs	r0, r4
 1763 003a FFF7FEFF 		bl	SetButtonSize
 1764              	.LVL212:
 424:lib/widget.c  ****     SetButtonText(btn, buff);
 1765              		.loc 1 424 0
 1766 003e 0721     		movs	r1, #7
 1767 0040 2000     		movs	r0, r4
 1768 0042 FFF7FEFF 		bl	SetButtonStyleColor
 1769              	.LVL213:
 425:lib/widget.c  ****     DrawButton(btn);
 1770              		.loc 1 425 0
 1771 0046 02A9     		add	r1, sp, #8
 1772 0048 2000     		movs	r0, r4
 1773 004a FFF7FEFF 		bl	SetButtonText
 1774              	.LVL214:
 426:lib/widget.c  ****     
ARM GAS  C:\Users\luvsd\AppData\Local\Temp\ccS26oY7.s 			page 43


 1775              		.loc 1 426 0
 1776 004e 2000     		movs	r0, r4
 1777 0050 FFF7FEFF 		bl	DrawButton
 1778              	.LVL215:
 428:lib/widget.c  ****     
 1779              		.loc 1 428 0
 1780 0054 6089     		ldrh	r0, [r4, #10]
 1781 0056 0130     		adds	r0, r0, #1
 1782 0058 80B2     		uxth	r0, r0
 1783 005a 0021     		movs	r1, #0
 1784 005c FFF7FEFF 		bl	EraseBlankArea
 1785              	.LVL216:
 431:lib/widget.c  ****     SetButtonSize(btn,0,g_DEFAULT_BUTTON_HEIGHT, BUTTON_X_1_2, BUTTON_Y_2_4,FALSE);
 1786              		.loc 1 431 0
 1787 0060 2700     		movs	r7, r4
 1788 0062 4037     		adds	r7, r7, #64
 1789              	.LVL217:
 432:lib/widget.c  ****     SetButtonStyleColor(btn,BUTTON_STYLE_WHITE);
 1790              		.loc 1 432 0
 1791 0064 3288     		ldrh	r2, [r6]
 1792 0066 0195     		str	r5, [sp, #4]
 1793 0068 1123     		movs	r3, #17
 1794 006a 9946     		mov	r9, r3
 1795 006c 0093     		str	r3, [sp]
 1796 006e 0F3B     		subs	r3, r3, #15
 1797 0070 0021     		movs	r1, #0
 1798 0072 3800     		movs	r0, r7
 1799 0074 FFF7FEFF 		bl	SetButtonSize
 1800              	.LVL218:
 433:lib/widget.c  ****     btn->align = TEXT_ALIGN_LEFT;
 1801              		.loc 1 433 0
 1802 0078 0521     		movs	r1, #5
 1803 007a 3800     		movs	r0, r7
 1804 007c FFF7FEFF 		bl	SetButtonStyleColor
 1805              	.LVL219:
 434:lib/widget.c  ****     //SetButtonText(btn,first);    
 1806              		.loc 1 434 0
 1807 0080 2300     		movs	r3, r4
 1808 0082 7A33     		adds	r3, r3, #122
 1809 0084 0122     		movs	r2, #1
 1810 0086 9046     		mov	r8, r2
 1811 0088 1A70     		strb	r2, [r3]
 439:lib/widget.c  ****     SetButtonSize(btn,0,g_DEFAULT_BUTTON_HEIGHT, BUTTON_X_2_2, BUTTON_Y_2_4,FALSE);
 1812              		.loc 1 439 0
 1813 008a 4037     		adds	r7, r7, #64
 1814              	.LVL220:
 440:lib/widget.c  ****     SetButtonStyleColor(btn,BUTTON_STYLE_YELLOW);
 1815              		.loc 1 440 0
 1816 008c 3288     		ldrh	r2, [r6]
 1817 008e 0195     		str	r5, [sp, #4]
 1818 0090 4B46     		mov	r3, r9
 1819 0092 0093     		str	r3, [sp]
 1820 0094 0E3B     		subs	r3, r3, #14
 1821 0096 0021     		movs	r1, #0
 1822 0098 3800     		movs	r0, r7
 1823 009a FFF7FEFF 		bl	SetButtonSize
 1824              	.LVL221:
ARM GAS  C:\Users\luvsd\AppData\Local\Temp\ccS26oY7.s 			page 44


 441:lib/widget.c  ****     btn->align = TEXT_ALIGN_RIGHT;
 1825              		.loc 1 441 0
 1826 009e 0821     		movs	r1, #8
 1827 00a0 3800     		movs	r0, r7
 1828 00a2 FFF7FEFF 		bl	SetButtonStyleColor
 1829              	.LVL222:
 442:lib/widget.c  ****    // SetButtonText(btn,"9999");    
 1830              		.loc 1 442 0
 1831 00a6 2300     		movs	r3, r4
 1832 00a8 BA33     		adds	r3, r3, #186
 1833 00aa 0222     		movs	r2, #2
 1834 00ac 9146     		mov	r9, r2
 1835 00ae 1A70     		strb	r2, [r3]
 447:lib/widget.c  ****     SetButtonSize(btn,0,g_DEFAULT_BUTTON_HEIGHT, BUTTON_X_1_2, BUTTON_Y_3_4,FALSE);
 1836              		.loc 1 447 0
 1837 00b0 4037     		adds	r7, r7, #64
 1838              	.LVL223:
 448:lib/widget.c  ****     SetButtonStyleColor(btn,BUTTON_STYLE_WHITE);
 1839              		.loc 1 448 0
 1840 00b2 3288     		ldrh	r2, [r6]
 1841 00b4 0195     		str	r5, [sp, #4]
 1842 00b6 1223     		movs	r3, #18
 1843 00b8 9A46     		mov	r10, r3
 1844 00ba 0093     		str	r3, [sp]
 1845 00bc 103B     		subs	r3, r3, #16
 1846 00be 0021     		movs	r1, #0
 1847 00c0 3800     		movs	r0, r7
 1848 00c2 FFF7FEFF 		bl	SetButtonSize
 1849              	.LVL224:
 449:lib/widget.c  ****     btn->align = TEXT_ALIGN_LEFT;
 1850              		.loc 1 449 0
 1851 00c6 0521     		movs	r1, #5
 1852 00c8 3800     		movs	r0, r7
 1853 00ca FFF7FEFF 		bl	SetButtonStyleColor
 1854              	.LVL225:
 450:lib/widget.c  ****     //SetButtonText(btn,second);    
 1855              		.loc 1 450 0
 1856 00ce 2300     		movs	r3, r4
 1857 00d0 FA33     		adds	r3, r3, #250
 1858 00d2 4246     		mov	r2, r8
 1859 00d4 1A70     		strb	r2, [r3]
 455:lib/widget.c  ****     SetButtonSize(btn,0,g_DEFAULT_BUTTON_HEIGHT, BUTTON_X_2_2, BUTTON_Y_3_4,FALSE);
 1860              		.loc 1 455 0
 1861 00d6 671C     		adds	r7, r4, #1
 1862              	.LVL226:
 1863 00d8 FF37     		adds	r7, r7, #255
 1864              	.LVL227:
 456:lib/widget.c  ****     SetButtonStyleColor(btn,BUTTON_STYLE_YELLOW);
 1865              		.loc 1 456 0
 1866 00da 3288     		ldrh	r2, [r6]
 1867 00dc 0195     		str	r5, [sp, #4]
 1868 00de 5346     		mov	r3, r10
 1869 00e0 0093     		str	r3, [sp]
 1870 00e2 0F3B     		subs	r3, r3, #15
 1871 00e4 0021     		movs	r1, #0
 1872 00e6 3800     		movs	r0, r7
 1873 00e8 FFF7FEFF 		bl	SetButtonSize
ARM GAS  C:\Users\luvsd\AppData\Local\Temp\ccS26oY7.s 			page 45


 1874              	.LVL228:
 457:lib/widget.c  ****     btn->align = TEXT_ALIGN_RIGHT;
 1875              		.loc 1 457 0
 1876 00ec 0821     		movs	r1, #8
 1877 00ee 3800     		movs	r0, r7
 1878 00f0 FFF7FEFF 		bl	SetButtonStyleColor
 1879              	.LVL229:
 458:lib/widget.c  ****   //  SetButtonText(btn,"9999");    
 1880              		.loc 1 458 0
 1881 00f4 2300     		movs	r3, r4
 1882 00f6 3B33     		adds	r3, r3, #59
 1883 00f8 FF33     		adds	r3, r3, #255
 1884 00fa 4A46     		mov	r2, r9
 1885 00fc 1A70     		strb	r2, [r3]
 463:lib/widget.c  ****     SetButtonSize(btn,0,g_DEFAULT_BUTTON_HEIGHT, BUTTON_X_1_2, BUTTON_Y_4_4,FALSE);
 1886              		.loc 1 463 0
 1887 00fe 4037     		adds	r7, r7, #64
 1888              	.LVL230:
 464:lib/widget.c  ****     SetButtonStyleColor(btn,BUTTON_STYLE_WHITE);
 1889              		.loc 1 464 0
 1890 0100 3288     		ldrh	r2, [r6]
 1891 0102 0195     		str	r5, [sp, #4]
 1892 0104 1323     		movs	r3, #19
 1893 0106 9A46     		mov	r10, r3
 1894 0108 0093     		str	r3, [sp]
 1895 010a 113B     		subs	r3, r3, #17
 1896 010c 0021     		movs	r1, #0
 1897 010e 3800     		movs	r0, r7
 1898 0110 FFF7FEFF 		bl	SetButtonSize
 1899              	.LVL231:
 465:lib/widget.c  ****     btn->align = TEXT_ALIGN_LEFT;
 1900              		.loc 1 465 0
 1901 0114 0521     		movs	r1, #5
 1902 0116 3800     		movs	r0, r7
 1903 0118 FFF7FEFF 		bl	SetButtonStyleColor
 1904              	.LVL232:
 466:lib/widget.c  ****     //SetButtonText(btn,third);    
 1905              		.loc 1 466 0
 1906 011c 2300     		movs	r3, r4
 1907 011e 7B33     		adds	r3, r3, #123
 1908 0120 FF33     		adds	r3, r3, #255
 1909 0122 4246     		mov	r2, r8
 1910 0124 1A70     		strb	r2, [r3]
 471:lib/widget.c  ****     SetButtonSize(btn,0,g_DEFAULT_BUTTON_HEIGHT, BUTTON_X_2_2, BUTTON_Y_4_4,FALSE);
 1911              		.loc 1 471 0
 1912 0126 4037     		adds	r7, r7, #64
 1913              	.LVL233:
 472:lib/widget.c  ****     SetButtonStyleColor(btn,BUTTON_STYLE_YELLOW);
 1914              		.loc 1 472 0
 1915 0128 3288     		ldrh	r2, [r6]
 1916 012a 0195     		str	r5, [sp, #4]
 1917 012c 5346     		mov	r3, r10
 1918 012e 0093     		str	r3, [sp]
 1919 0130 103B     		subs	r3, r3, #16
 1920 0132 0021     		movs	r1, #0
 1921 0134 3800     		movs	r0, r7
 1922 0136 FFF7FEFF 		bl	SetButtonSize
ARM GAS  C:\Users\luvsd\AppData\Local\Temp\ccS26oY7.s 			page 46


 1923              	.LVL234:
 473:lib/widget.c  ****     btn->align = TEXT_ALIGN_RIGHT;
 1924              		.loc 1 473 0
 1925 013a 0821     		movs	r1, #8
 1926 013c 3800     		movs	r0, r7
 1927 013e FFF7FEFF 		bl	SetButtonStyleColor
 1928              	.LVL235:
 474:lib/widget.c  ****  //   SetButtonText(btn,"999.9");    
 1929              		.loc 1 474 0
 1930 0142 BB34     		adds	r4, r4, #187
 1931              	.LVL236:
 1932 0144 FF34     		adds	r4, r4, #255
 1933              	.LVL237:
 1934 0146 4B46     		mov	r3, r9
 1935 0148 2370     		strb	r3, [r4]
 477:lib/widget.c  **** 
 1936              		.loc 1 477 0
 1937 014a 09B0     		add	sp, sp, #36
 1938              		@ sp needed
 1939              	.LVL238:
 1940              	.LVL239:
 1941 014c 1CBC     		pop	{r2, r3, r4}
 1942 014e 9046     		mov	r8, r2
 1943 0150 9946     		mov	r9, r3
 1944 0152 A246     		mov	r10, r4
 1945 0154 F0BC     		pop	{r4, r5, r6, r7}
 1946 0156 08BC     		pop	{r3}
 1947 0158 03B0     		add	sp, sp, #12
 1948 015a 1847     		bx	r3
 1949              	.L105:
 1950              		.align	2
 1951              	.L104:
 1952 015c 00000000 		.word	g_DEFAULT_BUTTON_HEIGHT
 1953              		.cfi_endproc
 1954              	.LFE73:
 1955              		.size	SetDrawMonitoringMenu, .-SetDrawMonitoringMenu
 1956              		.section	.text.EraseBlankAreaWithoutHeader,"ax",%progbits
 1957              		.align	2
 1958              		.global	EraseBlankAreaWithoutHeader
 1959              		.code	16
 1960              		.thumb_func
 1961              		.type	EraseBlankAreaWithoutHeader, %function
 1962              	EraseBlankAreaWithoutHeader:
 1963              	.LFB75:
 493:lib/widget.c  **** 
 494:lib/widget.c  **** void EraseBlankAreaWithoutHeader()
 495:lib/widget.c  **** {
 1964              		.loc 1 495 0
 1965              		.cfi_startproc
 1966              		@ args = 0, pretend = 0, frame = 16
 1967              		@ frame_needed = 0, uses_anonymous_args = 0
 1968 0000 10B5     		push	{r4, lr}
 1969              		.cfi_def_cfa_offset 8
 1970              		.cfi_offset 4, -8
 1971              		.cfi_offset 14, -4
 1972 0002 84B0     		sub	sp, sp, #16
 1973              		.cfi_def_cfa_offset 24
ARM GAS  C:\Users\luvsd\AppData\Local\Temp\ccS26oY7.s 			page 47


 496:lib/widget.c  ****     RECT blank;
 497:lib/widget.c  ****     blank.left = 0;
 1974              		.loc 1 497 0
 1975 0004 0023     		movs	r3, #0
 1976 0006 6A46     		mov	r2, sp
 1977 0008 1380     		strh	r3, [r2]
 498:lib/widget.c  ****     blank.right = g_SCREEN_WIDTH-1;
 1978              		.loc 1 498 0
 1979 000a 0A4B     		ldr	r3, .L107
 1980 000c 1B88     		ldrh	r3, [r3]
 1981 000e 013B     		subs	r3, r3, #1
 1982 0010 5380     		strh	r3, [r2, #2]
 499:lib/widget.c  ****     blank.top = GetBodyArea().top;;
 1983              		.loc 1 499 0
 1984 0012 02AC     		add	r4, sp, #8
 1985 0014 2000     		movs	r0, r4
 1986 0016 FFF7FEFF 		bl	GetBodyArea
 1987              	.LVL240:
 1988 001a A388     		ldrh	r3, [r4, #4]
 1989 001c 6A46     		mov	r2, sp
 1990 001e 9380     		strh	r3, [r2, #4]
 500:lib/widget.c  ****     blank.bottom = g_SCREEN_HEIGHT-1;
 1991              		.loc 1 500 0
 1992 0020 054B     		ldr	r3, .L107+4
 1993 0022 1B88     		ldrh	r3, [r3]
 1994 0024 013B     		subs	r3, r3, #1
 1995 0026 D380     		strh	r3, [r2, #6]
 501:lib/widget.c  ****     
 502:lib/widget.c  ****     FillRect(&blank,BLACK);     
 1996              		.loc 1 502 0
 1997 0028 0021     		movs	r1, #0
 1998 002a 6846     		mov	r0, sp
 1999 002c FFF7FEFF 		bl	FillRect
 2000              	.LVL241:
 503:lib/widget.c  **** }
 2001              		.loc 1 503 0
 2002 0030 04B0     		add	sp, sp, #16
 2003              		@ sp needed
 2004 0032 10BD     		pop	{r4, pc}
 2005              	.L108:
 2006              		.align	2
 2007              	.L107:
 2008 0034 00000000 		.word	g_SCREEN_WIDTH
 2009 0038 00000000 		.word	g_SCREEN_HEIGHT
 2010              		.cfi_endproc
 2011              	.LFE75:
 2012              		.size	EraseBlankAreaWithoutHeader, .-EraseBlankAreaWithoutHeader
 2013              		.section	.text.SetDrawUpDownTwoMenu,"ax",%progbits
 2014              		.align	2
 2015              		.global	SetDrawUpDownTwoMenu
 2016              		.code	16
 2017              		.thumb_func
 2018              		.type	SetDrawUpDownTwoMenu, %function
 2019              	SetDrawUpDownTwoMenu:
 2020              	.LFB76:
 504:lib/widget.c  ****  
 505:lib/widget.c  **** void SetDrawUpDownTwoMenu(UP_DOWN_TWO_MENU *menu, char *first, char *second, const char *title, ...
ARM GAS  C:\Users\luvsd\AppData\Local\Temp\ccS26oY7.s 			page 48


 506:lib/widget.c  **** {
 2021              		.loc 1 506 0
 2022              		.cfi_startproc
 2023              		@ args = 4, pretend = 4, frame = 24
 2024              		@ frame_needed = 0, uses_anonymous_args = 1
 2025              	.LVL242:
 2026 0000 08B4     		push	{r3}
 2027              		.cfi_def_cfa_offset 4
 2028 0002 F0B5     		push	{r4, r5, r6, r7, lr}
 2029              		.cfi_def_cfa_offset 24
 2030              		.cfi_offset 4, -24
 2031              		.cfi_offset 5, -20
 2032              		.cfi_offset 6, -16
 2033              		.cfi_offset 7, -12
 2034              		.cfi_offset 14, -8
 2035 0004 88B0     		sub	sp, sp, #32
 2036              		.cfi_def_cfa_offset 56
 2037 0006 0400     		movs	r4, r0
 2038 0008 0E00     		movs	r6, r1
 2039 000a 1500     		movs	r5, r2
 2040 000c 0DAA     		add	r2, sp, #52
 2041              	.LVL243:
 2042 000e 02CA     		ldmia	r2!, {r1}
 2043              	.LVL244:
 507:lib/widget.c  ****     va_list ap;
 508:lib/widget.c  ****     char buff[20];
 509:lib/widget.c  ****     va_start(ap, title);
 2044              		.loc 1 509 0
 2045 0010 0792     		str	r2, [sp, #28]
 510:lib/widget.c  ****     vsprintf(buff, title, ap);
 2046              		.loc 1 510 0
 2047 0012 02A8     		add	r0, sp, #8
 2048              	.LVL245:
 2049 0014 FFF7FEFF 		bl	vsprintf
 2050              	.LVL246:
 511:lib/widget.c  ****     va_end(ap);
 512:lib/widget.c  ****     
 513:lib/widget.c  ****     SetDefaultButtonStyleArray(menu->btn,7);
 2051              		.loc 1 513 0
 2052 0018 0721     		movs	r1, #7
 2053 001a 2000     		movs	r0, r4
 2054 001c FFF7FEFF 		bl	SetDefaultButtonStyleArray
 2055              	.LVL247:
 514:lib/widget.c  ****     
 515:lib/widget.c  ****     BUTTON *btn;
 516:lib/widget.c  ****     
 517:lib/widget.c  ****     // title
 518:lib/widget.c  ****     btn = &menu->btn[UPDOWNTWO_TITLE];
 519:lib/widget.c  ****     SetButtonSize(btn,0,g_DEFAULT_BUTTON_HEIGHT,BUTTON_X_FULL,BUTTON_Y_FIRST,FALSE);
 2056              		.loc 1 519 0
 2057 0020 994B     		ldr	r3, .L122
 2058 0022 1A88     		ldrh	r2, [r3]
 2059 0024 0023     		movs	r3, #0
 2060 0026 0193     		str	r3, [sp, #4]
 2061 0028 0D33     		adds	r3, r3, #13
 2062 002a 0093     		str	r3, [sp]
 2063 002c 0C3B     		subs	r3, r3, #12
ARM GAS  C:\Users\luvsd\AppData\Local\Temp\ccS26oY7.s 			page 49


 2064 002e 0021     		movs	r1, #0
 2065 0030 2000     		movs	r0, r4
 2066 0032 FFF7FEFF 		bl	SetButtonSize
 2067              	.LVL248:
 520:lib/widget.c  ****     SetButtonStyleColor(btn,BUTTON_STYLE_ORANGE);        
 2068              		.loc 1 520 0
 2069 0036 0721     		movs	r1, #7
 2070 0038 2000     		movs	r0, r4
 2071 003a FFF7FEFF 		bl	SetButtonStyleColor
 2072              	.LVL249:
 521:lib/widget.c  ****     SetButtonText(btn, buff);
 2073              		.loc 1 521 0
 2074 003e 02A9     		add	r1, sp, #8
 2075 0040 2000     		movs	r0, r4
 2076 0042 FFF7FEFF 		bl	SetButtonText
 2077              	.LVL250:
 522:lib/widget.c  ****     DrawButton(btn);
 2078              		.loc 1 522 0
 2079 0046 2000     		movs	r0, r4
 2080 0048 FFF7FEFF 		bl	DrawButton
 2081              	.LVL251:
 523:lib/widget.c  ****     
 524:lib/widget.c  ****     EraseBlankArea(btn->rect.bottom+1,FALSE);    
 2082              		.loc 1 524 0
 2083 004c 6089     		ldrh	r0, [r4, #10]
 2084 004e 0130     		adds	r0, r0, #1
 2085 0050 80B2     		uxth	r0, r0
 2086 0052 0021     		movs	r1, #0
 2087 0054 FFF7FEFF 		bl	EraseBlankArea
 2088              	.LVL252:
 525:lib/widget.c  ****     
 526:lib/widget.c  ****     // first 
 527:lib/widget.c  ****     btn = &menu->btn[UPDOWNTWO_FIRST_TEXT];
 2089              		.loc 1 527 0
 2090 0058 2700     		movs	r7, r4
 2091 005a 4037     		adds	r7, r7, #64
 2092              	.LVL253:
 528:lib/widget.c  ****     if(getMiscConfig()->bDisplayDir == DISPLAY_DIRECTION_PORTRAIT)
 2093              		.loc 1 528 0
 2094 005c FFF7FEFF 		bl	getMiscConfig
 2095              	.LVL254:
 2096 0060 0388     		ldrh	r3, [r0]
 2097 0062 002B     		cmp	r3, #0
 2098 0064 0DD1     		bne	.L110
 529:lib/widget.c  ****         SetButtonSize(btn,0,g_DEFAULT_BUTTON_HEIGHT+12, BUTTON_X_1_2, BUTTON_Y_2_4,FALSE);
 2099              		.loc 1 529 0
 2100 0066 884B     		ldr	r3, .L122
 2101 0068 1A88     		ldrh	r2, [r3]
 2102 006a 0C32     		adds	r2, r2, #12
 2103 006c 92B2     		uxth	r2, r2
 2104 006e 0023     		movs	r3, #0
 2105 0070 0193     		str	r3, [sp, #4]
 2106 0072 1133     		adds	r3, r3, #17
 2107 0074 0093     		str	r3, [sp]
 2108 0076 0F3B     		subs	r3, r3, #15
 2109 0078 0021     		movs	r1, #0
 2110 007a 3800     		movs	r0, r7
ARM GAS  C:\Users\luvsd\AppData\Local\Temp\ccS26oY7.s 			page 50


 2111 007c FFF7FEFF 		bl	SetButtonSize
 2112              	.LVL255:
 2113 0080 0CE0     		b	.L111
 2114              	.L110:
 530:lib/widget.c  ****     else
 531:lib/widget.c  ****         SetButtonSize(btn,0,g_DEFAULT_BUTTON_HEIGHT+12, BUTTON_X_1_3, BUTTON_Y_2_3,FALSE);
 2115              		.loc 1 531 0
 2116 0082 814B     		ldr	r3, .L122
 2117 0084 1A88     		ldrh	r2, [r3]
 2118 0086 0C32     		adds	r2, r2, #12
 2119 0088 92B2     		uxth	r2, r2
 2120 008a 0023     		movs	r3, #0
 2121 008c 0193     		str	r3, [sp, #4]
 2122 008e 0F33     		adds	r3, r3, #15
 2123 0090 0093     		str	r3, [sp]
 2124 0092 0B3B     		subs	r3, r3, #11
 2125 0094 0021     		movs	r1, #0
 2126 0096 3800     		movs	r0, r7
 2127 0098 FFF7FEFF 		bl	SetButtonSize
 2128              	.LVL256:
 2129              	.L111:
 532:lib/widget.c  ****         
 533:lib/widget.c  ****     SetButtonStyleColor(btn,BUTTON_STYLE_WHITE);
 2130              		.loc 1 533 0
 2131 009c 0521     		movs	r1, #5
 2132 009e 3800     		movs	r0, r7
 2133 00a0 FFF7FEFF 		bl	SetButtonStyleColor
 2134              	.LVL257:
 534:lib/widget.c  ****     SetButtonText(btn,first);    
 2135              		.loc 1 534 0
 2136 00a4 3100     		movs	r1, r6
 2137 00a6 3800     		movs	r0, r7
 2138 00a8 FFF7FEFF 		bl	SetButtonText
 2139              	.LVL258:
 535:lib/widget.c  ****     //DrawButton(btn);
 536:lib/widget.c  ****     
 537:lib/widget.c  ****     // Second 
 538:lib/widget.c  ****     btn = &menu->btn[UPDOWNTWO_SECOND_TEXT];
 2140              		.loc 1 538 0
 2141 00ac 2600     		movs	r6, r4
 2142              	.LVL259:
 2143 00ae 8036     		adds	r6, r6, #128
 2144              	.LVL260:
 539:lib/widget.c  ****     
 540:lib/widget.c  ****     if(getMiscConfig()->bDisplayDir == DISPLAY_DIRECTION_PORTRAIT)
 2145              		.loc 1 540 0
 2146 00b0 FFF7FEFF 		bl	getMiscConfig
 2147              	.LVL261:
 2148 00b4 0388     		ldrh	r3, [r0]
 2149 00b6 002B     		cmp	r3, #0
 2150 00b8 0DD1     		bne	.L112
 541:lib/widget.c  ****         SetButtonSize(btn,0,g_DEFAULT_BUTTON_HEIGHT+12, BUTTON_X_2_2, BUTTON_Y_2_4,FALSE);
 2151              		.loc 1 541 0
 2152 00ba 734B     		ldr	r3, .L122
 2153 00bc 1A88     		ldrh	r2, [r3]
 2154 00be 0C32     		adds	r2, r2, #12
 2155 00c0 92B2     		uxth	r2, r2
ARM GAS  C:\Users\luvsd\AppData\Local\Temp\ccS26oY7.s 			page 51


 2156 00c2 0023     		movs	r3, #0
 2157 00c4 0193     		str	r3, [sp, #4]
 2158 00c6 1133     		adds	r3, r3, #17
 2159 00c8 0093     		str	r3, [sp]
 2160 00ca 0E3B     		subs	r3, r3, #14
 2161 00cc 0021     		movs	r1, #0
 2162 00ce 3000     		movs	r0, r6
 2163 00d0 FFF7FEFF 		bl	SetButtonSize
 2164              	.LVL262:
 2165 00d4 0CE0     		b	.L113
 2166              	.L112:
 542:lib/widget.c  ****     else
 543:lib/widget.c  ****         SetButtonSize(btn,0,g_DEFAULT_BUTTON_HEIGHT+12, BUTTON_X_2_3, BUTTON_Y_2_3,FALSE);
 2167              		.loc 1 543 0
 2168 00d6 6C4B     		ldr	r3, .L122
 2169 00d8 1A88     		ldrh	r2, [r3]
 2170 00da 0C32     		adds	r2, r2, #12
 2171 00dc 92B2     		uxth	r2, r2
 2172 00de 0023     		movs	r3, #0
 2173 00e0 0193     		str	r3, [sp, #4]
 2174 00e2 0F33     		adds	r3, r3, #15
 2175 00e4 0093     		str	r3, [sp]
 2176 00e6 0A3B     		subs	r3, r3, #10
 2177 00e8 0021     		movs	r1, #0
 2178 00ea 3000     		movs	r0, r6
 2179 00ec FFF7FEFF 		bl	SetButtonSize
 2180              	.LVL263:
 2181              	.L113:
 544:lib/widget.c  ****     SetButtonStyleColor(btn,BUTTON_STYLE_DARKGREY);
 2182              		.loc 1 544 0
 2183 00f0 0C21     		movs	r1, #12
 2184 00f2 3000     		movs	r0, r6
 2185 00f4 FFF7FEFF 		bl	SetButtonStyleColor
 2186              	.LVL264:
 545:lib/widget.c  ****     SetButtonText(btn,second);    
 2187              		.loc 1 545 0
 2188 00f8 2900     		movs	r1, r5
 2189 00fa 3000     		movs	r0, r6
 2190 00fc FFF7FEFF 		bl	SetButtonText
 2191              	.LVL265:
 546:lib/widget.c  ****     //DrawButton(btn);
 547:lib/widget.c  ****     
 548:lib/widget.c  ****     // first value
 549:lib/widget.c  ****     btn = &menu->btn[UPDOWNTWO_FIRST_VALUE];
 2192              		.loc 1 549 0
 2193 0100 2500     		movs	r5, r4
 2194              	.LVL266:
 2195 0102 C035     		adds	r5, r5, #192
 2196              	.LVL267:
 550:lib/widget.c  ****     
 551:lib/widget.c  ****     if(getMiscConfig()->bDisplayDir == DISPLAY_DIRECTION_PORTRAIT)
 2197              		.loc 1 551 0
 2198 0104 FFF7FEFF 		bl	getMiscConfig
 2199              	.LVL268:
 2200 0108 0388     		ldrh	r3, [r0]
 2201 010a 002B     		cmp	r3, #0
 2202 010c 0BD1     		bne	.L114
ARM GAS  C:\Users\luvsd\AppData\Local\Temp\ccS26oY7.s 			page 52


 552:lib/widget.c  ****         SetButtonSize(btn,0,g_DEFAULT_BUTTON_HEIGHT, BUTTON_X_1_2, BUTTON_Y_3_4,FALSE);
 2203              		.loc 1 552 0
 2204 010e 5E4B     		ldr	r3, .L122
 2205 0110 1A88     		ldrh	r2, [r3]
 2206 0112 0023     		movs	r3, #0
 2207 0114 0193     		str	r3, [sp, #4]
 2208 0116 1233     		adds	r3, r3, #18
 2209 0118 0093     		str	r3, [sp]
 2210 011a 103B     		subs	r3, r3, #16
 2211 011c 0021     		movs	r1, #0
 2212 011e 2800     		movs	r0, r5
 2213 0120 FFF7FEFF 		bl	SetButtonSize
 2214              	.LVL269:
 2215 0124 0AE0     		b	.L115
 2216              	.L114:
 553:lib/widget.c  ****     else
 554:lib/widget.c  ****         SetButtonSize(btn,0,g_DEFAULT_BUTTON_HEIGHT, BUTTON_X_1_3, BUTTON_Y_3_3,FALSE);
 2217              		.loc 1 554 0
 2218 0126 584B     		ldr	r3, .L122
 2219 0128 1A88     		ldrh	r2, [r3]
 2220 012a 0023     		movs	r3, #0
 2221 012c 0193     		str	r3, [sp, #4]
 2222 012e 1033     		adds	r3, r3, #16
 2223 0130 0093     		str	r3, [sp]
 2224 0132 0C3B     		subs	r3, r3, #12
 2225 0134 0021     		movs	r1, #0
 2226 0136 2800     		movs	r0, r5
 2227 0138 FFF7FEFF 		bl	SetButtonSize
 2228              	.LVL270:
 2229              	.L115:
 555:lib/widget.c  ****     SetButtonStyleColor(btn,BUTTON_STYLE_YELLOW);
 2230              		.loc 1 555 0
 2231 013c 0821     		movs	r1, #8
 2232 013e 2800     		movs	r0, r5
 2233 0140 FFF7FEFF 		bl	SetButtonStyleColor
 2234              	.LVL271:
 556:lib/widget.c  ****     SetButtonText(btn,"2");    
 2235              		.loc 1 556 0
 2236 0144 5149     		ldr	r1, .L122+4
 2237 0146 2800     		movs	r0, r5
 2238 0148 FFF7FEFF 		bl	SetButtonText
 2239              	.LVL272:
 557:lib/widget.c  ****     //DrawButton(btn);
 558:lib/widget.c  ****     
 559:lib/widget.c  ****     // Second value
 560:lib/widget.c  ****     btn = &menu->btn[UPDOWNTWO_SECOND_VALUE];
 2240              		.loc 1 560 0
 2241 014c 651C     		adds	r5, r4, #1
 2242              	.LVL273:
 2243 014e FF35     		adds	r5, r5, #255
 2244              	.LVL274:
 561:lib/widget.c  ****     
 562:lib/widget.c  ****     if(getMiscConfig()->bDisplayDir == DISPLAY_DIRECTION_PORTRAIT)
 2245              		.loc 1 562 0
 2246 0150 FFF7FEFF 		bl	getMiscConfig
 2247              	.LVL275:
 2248 0154 0388     		ldrh	r3, [r0]
ARM GAS  C:\Users\luvsd\AppData\Local\Temp\ccS26oY7.s 			page 53


 2249 0156 002B     		cmp	r3, #0
 2250 0158 0BD1     		bne	.L116
 563:lib/widget.c  ****         SetButtonSize(btn,0,g_DEFAULT_BUTTON_HEIGHT, BUTTON_X_2_2, BUTTON_Y_3_4,FALSE);
 2251              		.loc 1 563 0
 2252 015a 4B4B     		ldr	r3, .L122
 2253 015c 1A88     		ldrh	r2, [r3]
 2254 015e 0023     		movs	r3, #0
 2255 0160 0193     		str	r3, [sp, #4]
 2256 0162 1233     		adds	r3, r3, #18
 2257 0164 0093     		str	r3, [sp]
 2258 0166 0F3B     		subs	r3, r3, #15
 2259 0168 0021     		movs	r1, #0
 2260 016a 2800     		movs	r0, r5
 2261 016c FFF7FEFF 		bl	SetButtonSize
 2262              	.LVL276:
 2263 0170 0AE0     		b	.L117
 2264              	.L116:
 564:lib/widget.c  ****     else
 565:lib/widget.c  ****         SetButtonSize(btn,0,g_DEFAULT_BUTTON_HEIGHT, BUTTON_X_2_3, BUTTON_Y_3_3,FALSE);
 2265              		.loc 1 565 0
 2266 0172 454B     		ldr	r3, .L122
 2267 0174 1A88     		ldrh	r2, [r3]
 2268 0176 0023     		movs	r3, #0
 2269 0178 0193     		str	r3, [sp, #4]
 2270 017a 1033     		adds	r3, r3, #16
 2271 017c 0093     		str	r3, [sp]
 2272 017e 0B3B     		subs	r3, r3, #11
 2273 0180 0021     		movs	r1, #0
 2274 0182 2800     		movs	r0, r5
 2275 0184 FFF7FEFF 		bl	SetButtonSize
 2276              	.LVL277:
 2277              	.L117:
 566:lib/widget.c  ****     SetButtonStyleColor(btn,BUTTON_STYLE_DARKGREY);
 2278              		.loc 1 566 0
 2279 0188 0C21     		movs	r1, #12
 2280 018a 2800     		movs	r0, r5
 2281 018c FFF7FEFF 		bl	SetButtonStyleColor
 2282              	.LVL278:
 567:lib/widget.c  ****     SetButtonText(btn,"2.5");    
 2283              		.loc 1 567 0
 2284 0190 3F49     		ldr	r1, .L122+8
 2285 0192 2800     		movs	r0, r5
 2286 0194 FFF7FEFF 		bl	SetButtonText
 2287              	.LVL279:
 568:lib/widget.c  ****     //DrawButton(btn);
 569:lib/widget.c  ****     
 570:lib/widget.c  ****     // Up
 571:lib/widget.c  ****     btn = &menu->btn[UPDOWNTWO_UP_BUTTON];
 2288              		.loc 1 571 0
 2289 0198 2500     		movs	r5, r4
 2290              	.LVL280:
 2291 019a 4135     		adds	r5, r5, #65
 2292 019c FF35     		adds	r5, r5, #255
 2293              	.LVL281:
 572:lib/widget.c  ****     
 573:lib/widget.c  ****     if(getMiscConfig()->bDisplayDir == DISPLAY_DIRECTION_PORTRAIT)
 2294              		.loc 1 573 0
ARM GAS  C:\Users\luvsd\AppData\Local\Temp\ccS26oY7.s 			page 54


 2295 019e FFF7FEFF 		bl	getMiscConfig
 2296              	.LVL282:
 2297 01a2 0388     		ldrh	r3, [r0]
 2298 01a4 002B     		cmp	r3, #0
 2299 01a6 0BD1     		bne	.L118
 574:lib/widget.c  ****         SetButtonSize(btn,0,g_DEFAULT_BUTTON_HEIGHT, BUTTON_X_1_2, BUTTON_Y_4_4,FALSE);
 2300              		.loc 1 574 0
 2301 01a8 374B     		ldr	r3, .L122
 2302 01aa 1A88     		ldrh	r2, [r3]
 2303 01ac 0023     		movs	r3, #0
 2304 01ae 0193     		str	r3, [sp, #4]
 2305 01b0 1333     		adds	r3, r3, #19
 2306 01b2 0093     		str	r3, [sp]
 2307 01b4 113B     		subs	r3, r3, #17
 2308 01b6 0021     		movs	r1, #0
 2309 01b8 2800     		movs	r0, r5
 2310 01ba FFF7FEFF 		bl	SetButtonSize
 2311              	.LVL283:
 2312 01be 0AE0     		b	.L119
 2313              	.L118:
 575:lib/widget.c  ****     else
 576:lib/widget.c  ****         SetButtonSize(btn,0,g_DEFAULT_BUTTON_HEIGHT, BUTTON_X_3_3, BUTTON_Y_2_3,FALSE);
 2314              		.loc 1 576 0
 2315 01c0 314B     		ldr	r3, .L122
 2316 01c2 1A88     		ldrh	r2, [r3]
 2317 01c4 0023     		movs	r3, #0
 2318 01c6 0193     		str	r3, [sp, #4]
 2319 01c8 0F33     		adds	r3, r3, #15
 2320 01ca 0093     		str	r3, [sp]
 2321 01cc 093B     		subs	r3, r3, #9
 2322 01ce 0021     		movs	r1, #0
 2323 01d0 2800     		movs	r0, r5
 2324 01d2 FFF7FEFF 		bl	SetButtonSize
 2325              	.LVL284:
 2326              	.L119:
 577:lib/widget.c  ****     RectangleSizeShrink(&btn->rect,+10,-10,-2,+2);
 2327              		.loc 1 577 0
 2328 01d6 2000     		movs	r0, r4
 2329 01d8 4530     		adds	r0, r0, #69
 2330 01da FF30     		adds	r0, r0, #255
 2331 01dc 0223     		movs	r3, #2
 2332 01de 0093     		str	r3, [sp]
 2333 01e0 043B     		subs	r3, r3, #4
 2334 01e2 0A22     		movs	r2, #10
 2335 01e4 5242     		rsbs	r2, r2, #0
 2336 01e6 0A21     		movs	r1, #10
 2337 01e8 FFF7FEFF 		bl	RectangleSizeShrink
 2338              	.LVL285:
 578:lib/widget.c  ****     SetButtonStyleColor(btn,BUTTON_STYLE_R_BLUE);
 2339              		.loc 1 578 0
 2340 01ec 1221     		movs	r1, #18
 2341 01ee 2800     		movs	r0, r5
 2342 01f0 FFF7FEFF 		bl	SetButtonStyleColor
 2343              	.LVL286:
 579:lib/widget.c  ****     SetButtonText(btn,"");    
 2344              		.loc 1 579 0
 2345 01f4 2749     		ldr	r1, .L122+12
ARM GAS  C:\Users\luvsd\AppData\Local\Temp\ccS26oY7.s 			page 55


 2346 01f6 2800     		movs	r0, r5
 2347 01f8 FFF7FEFF 		bl	SetButtonText
 2348              	.LVL287:
 580:lib/widget.c  ****     btn->image = &g_imageUpArrow;  
 2349              		.loc 1 580 0
 2350 01fc 264A     		ldr	r2, .L122+16
 2351 01fe A023     		movs	r3, #160
 2352 0200 5B00     		lsls	r3, r3, #1
 2353 0202 E250     		str	r2, [r4, r3]
 581:lib/widget.c  ****     DrawButton(btn);
 2354              		.loc 1 581 0
 2355 0204 2800     		movs	r0, r5
 2356 0206 FFF7FEFF 		bl	DrawButton
 2357              	.LVL288:
 582:lib/widget.c  ****     
 583:lib/widget.c  ****     // Down
 584:lib/widget.c  ****     btn = &menu->btn[UPDOWNTWO_DOWN_BUTTON];
 2358              		.loc 1 584 0
 2359 020a 2500     		movs	r5, r4
 2360              	.LVL289:
 2361 020c 8135     		adds	r5, r5, #129
 2362 020e FF35     		adds	r5, r5, #255
 2363              	.LVL290:
 585:lib/widget.c  ****     
 586:lib/widget.c  ****     if(getMiscConfig()->bDisplayDir == DISPLAY_DIRECTION_PORTRAIT)
 2364              		.loc 1 586 0
 2365 0210 FFF7FEFF 		bl	getMiscConfig
 2366              	.LVL291:
 2367 0214 0388     		ldrh	r3, [r0]
 2368 0216 002B     		cmp	r3, #0
 2369 0218 0BD1     		bne	.L120
 587:lib/widget.c  ****         SetButtonSize(btn,0,g_DEFAULT_BUTTON_HEIGHT, BUTTON_X_2_2, BUTTON_Y_4_4,FALSE);
 2370              		.loc 1 587 0
 2371 021a 1B4B     		ldr	r3, .L122
 2372 021c 1A88     		ldrh	r2, [r3]
 2373 021e 0023     		movs	r3, #0
 2374 0220 0193     		str	r3, [sp, #4]
 2375 0222 1333     		adds	r3, r3, #19
 2376 0224 0093     		str	r3, [sp]
 2377 0226 103B     		subs	r3, r3, #16
 2378 0228 0021     		movs	r1, #0
 2379 022a 2800     		movs	r0, r5
 2380 022c FFF7FEFF 		bl	SetButtonSize
 2381              	.LVL292:
 2382 0230 0AE0     		b	.L121
 2383              	.L120:
 588:lib/widget.c  ****     else
 589:lib/widget.c  ****         SetButtonSize(btn,0,g_DEFAULT_BUTTON_HEIGHT, BUTTON_X_3_3, BUTTON_Y_3_3,FALSE);
 2384              		.loc 1 589 0
 2385 0232 154B     		ldr	r3, .L122
 2386 0234 1A88     		ldrh	r2, [r3]
 2387 0236 0023     		movs	r3, #0
 2388 0238 0193     		str	r3, [sp, #4]
 2389 023a 1033     		adds	r3, r3, #16
 2390 023c 0093     		str	r3, [sp]
 2391 023e 0A3B     		subs	r3, r3, #10
 2392 0240 0021     		movs	r1, #0
ARM GAS  C:\Users\luvsd\AppData\Local\Temp\ccS26oY7.s 			page 56


 2393 0242 2800     		movs	r0, r5
 2394 0244 FFF7FEFF 		bl	SetButtonSize
 2395              	.LVL293:
 2396              	.L121:
 590:lib/widget.c  ****     RectangleSizeShrink(&btn->rect,+10,-10,-2,+2);    
 2397              		.loc 1 590 0
 2398 0248 2000     		movs	r0, r4
 2399 024a 8530     		adds	r0, r0, #133
 2400 024c FF30     		adds	r0, r0, #255
 2401 024e 0223     		movs	r3, #2
 2402 0250 0093     		str	r3, [sp]
 2403 0252 043B     		subs	r3, r3, #4
 2404 0254 0A22     		movs	r2, #10
 2405 0256 5242     		rsbs	r2, r2, #0
 2406 0258 0A21     		movs	r1, #10
 2407 025a FFF7FEFF 		bl	RectangleSizeShrink
 2408              	.LVL294:
 591:lib/widget.c  ****     SetButtonStyleColor(btn,BUTTON_STYLE_R_RED);
 2409              		.loc 1 591 0
 2410 025e 0E21     		movs	r1, #14
 2411 0260 2800     		movs	r0, r5
 2412 0262 FFF7FEFF 		bl	SetButtonStyleColor
 2413              	.LVL295:
 592:lib/widget.c  ****     btn->image = &g_imageDownArrow;    
 2414              		.loc 1 592 0
 2415 0266 0C4B     		ldr	r3, .L122+16
 2416 0268 0833     		adds	r3, r3, #8
 2417 026a C022     		movs	r2, #192
 2418 026c 5200     		lsls	r2, r2, #1
 2419 026e A350     		str	r3, [r4, r2]
 593:lib/widget.c  ****     SetButtonText(btn,"");    
 2420              		.loc 1 593 0
 2421 0270 0849     		ldr	r1, .L122+12
 2422 0272 2800     		movs	r0, r5
 2423 0274 FFF7FEFF 		bl	SetButtonText
 2424              	.LVL296:
 594:lib/widget.c  ****     DrawButton(btn);      
 2425              		.loc 1 594 0
 2426 0278 2800     		movs	r0, r5
 2427 027a FFF7FEFF 		bl	DrawButton
 2428              	.LVL297:
 595:lib/widget.c  **** }
 2429              		.loc 1 595 0
 2430 027e 08B0     		add	sp, sp, #32
 2431              		@ sp needed
 2432              	.LVL298:
 2433              	.LVL299:
 2434              	.LVL300:
 2435              	.LVL301:
 2436 0280 F0BC     		pop	{r4, r5, r6, r7}
 2437 0282 08BC     		pop	{r3}
 2438 0284 01B0     		add	sp, sp, #4
 2439 0286 1847     		bx	r3
 2440              	.L123:
 2441              		.align	2
 2442              	.L122:
 2443 0288 00000000 		.word	g_DEFAULT_BUTTON_HEIGHT
ARM GAS  C:\Users\luvsd\AppData\Local\Temp\ccS26oY7.s 			page 57


 2444 028c 1C000000 		.word	.LC26
 2445 0290 20000000 		.word	.LC28
 2446 0294 24000000 		.word	.LC30
 2447 0298 00000000 		.word	.LANCHOR0
 2448              		.cfi_endproc
 2449              	.LFE76:
 2450              		.size	SetDrawUpDownTwoMenu, .-SetDrawUpDownTwoMenu
 2451              		.section	.text.SetDrawUpDownOneMenu,"ax",%progbits
 2452              		.align	2
 2453              		.global	SetDrawUpDownOneMenu
 2454              		.code	16
 2455              		.thumb_func
 2456              		.type	SetDrawUpDownOneMenu, %function
 2457              	SetDrawUpDownOneMenu:
 2458              	.LFB77:
 596:lib/widget.c  **** /*
 597:lib/widget.c  **** void SetDrawUpDownOneMenu(UP_DOWN_ONE_MENU *menu, char *first, const char *title, ...)
 598:lib/widget.c  **** {
 599:lib/widget.c  ****     va_list ap;
 600:lib/widget.c  ****     char buff[20];
 601:lib/widget.c  ****     va_start(ap, title);
 602:lib/widget.c  ****     vsprintf(buff, title, ap);
 603:lib/widget.c  ****     va_end(ap);
 604:lib/widget.c  ****     
 605:lib/widget.c  ****     SetDefaultButtonStyleArray(menu->btn,8);
 606:lib/widget.c  ****     
 607:lib/widget.c  ****     BUTTON *btn;
 608:lib/widget.c  ****     
 609:lib/widget.c  ****     // title
 610:lib/widget.c  ****     btn = &menu->btn[0];
 611:lib/widget.c  ****     SetButtonSize(btn,0,g_DEFAULT_BUTTON_HEIGHT,BUTTON_X_FULL,BUTTON_Y_FIRST,FALSE);
 612:lib/widget.c  ****     SetButtonStyleColor(btn,BUTTON_STYLE_ORANGE);        
 613:lib/widget.c  ****     SetButtonText(btn, buff);
 614:lib/widget.c  ****     DrawButton(btn);
 615:lib/widget.c  ****     
 616:lib/widget.c  ****     EraseBlankArea(btn->rect.bottom+1,FALSE);  
 617:lib/widget.c  ****     
 618:lib/widget.c  ****     // text
 619:lib/widget.c  ****     btn = &menu->btn[1];
 620:lib/widget.c  ****     if(getMiscConfig()->bDisplayDir == DISPLAY_DIRECTION_PORTRAIT)
 621:lib/widget.c  ****         SetButtonSize(btn,0,g_DEFAULT_BUTTON_HEIGHT, BUTTON_X_1_2, BUTTON_Y_2_4,FALSE);
 622:lib/widget.c  ****     else
 623:lib/widget.c  ****         SetButtonSize(btn,0,g_DEFAULT_BUTTON_HEIGHT, BUTTON_X_1_3, BUTTON_Y_2_3,FALSE);  
 624:lib/widget.c  **** 
 625:lib/widget.c  ****     SetButtonStyleColor(btn,BUTTON_STYLE_WHITE);        
 626:lib/widget.c  ****     SetButtonText(btn, first);
 627:lib/widget.c  ****     btn->align = TEXT_ALIGN_LEFT;    
 628:lib/widget.c  ****     DrawButton(btn);
 629:lib/widget.c  ****     
 630:lib/widget.c  ****     // value
 631:lib/widget.c  ****     btn = &menu->btn[2];
 632:lib/widget.c  ****     if(getMiscConfig()->bDisplayDir == DISPLAY_DIRECTION_PORTRAIT)
 633:lib/widget.c  ****         SetButtonSize(btn,0,g_DEFAULT_BUTTON_HEIGHT, BUTTON_X_2_2, BUTTON_Y_2_4,FALSE);
 634:lib/widget.c  ****     else
 635:lib/widget.c  ****         SetButtonSize(btn,0,g_DEFAULT_BUTTON_HEIGHT, BUTTON_X_2_3, BUTTON_Y_2_3,FALSE);
 636:lib/widget.c  ****     SetButtonStyleColor(btn,BUTTON_STYLE_YELLOW);     
 637:lib/widget.c  ****   //  SetButtonText(btn, "9999");
ARM GAS  C:\Users\luvsd\AppData\Local\Temp\ccS26oY7.s 			page 58


 638:lib/widget.c  ****     btn->align = TEXT_ALIGN_RIGHT;
 639:lib/widget.c  ****     //DrawButton(btn);
 640:lib/widget.c  ****     
 641:lib/widget.c  ****     // Up
 642:lib/widget.c  ****     btn = &menu->btn[3];
 643:lib/widget.c  ****     
 644:lib/widget.c  ****     if(getMiscConfig()->bDisplayDir == DISPLAY_DIRECTION_PORTRAIT)
 645:lib/widget.c  ****         SetButtonSize(btn,0,g_DEFAULT_BUTTON_HEIGHT, BUTTON_X_1_2, BUTTON_Y_3_4,FALSE);
 646:lib/widget.c  ****     else
 647:lib/widget.c  ****         SetButtonSize(btn,0,g_DEFAULT_BUTTON_HEIGHT, BUTTON_X_4_4, BUTTON_Y_2_3,FALSE); 
 648:lib/widget.c  ****     RectangleSizeShrink(&btn->rect,+10,-10,-2,+2);
 649:lib/widget.c  ****     SetButtonStyleColor(btn,BUTTON_STYLE_R_BLUE);
 650:lib/widget.c  ****     SetButtonText(btn,"");    
 651:lib/widget.c  ****     btn->image = &g_imageUpArrow;  
 652:lib/widget.c  ****     DrawButton(btn);
 653:lib/widget.c  ****     
 654:lib/widget.c  ****     // Down
 655:lib/widget.c  ****     btn = &menu->btn[4];
 656:lib/widget.c  ****     
 657:lib/widget.c  ****     if(getMiscConfig()->bDisplayDir == DISPLAY_DIRECTION_PORTRAIT)
 658:lib/widget.c  ****         SetButtonSize(btn,0,g_DEFAULT_BUTTON_HEIGHT, BUTTON_X_2_2, BUTTON_Y_3_4,FALSE);
 659:lib/widget.c  ****     else
 660:lib/widget.c  ****         SetButtonSize(btn,0,g_DEFAULT_BUTTON_HEIGHT, BUTTON_X_4_4, BUTTON_Y_3_3,FALSE);
 661:lib/widget.c  ****     RectangleSizeShrink(&btn->rect,+10,-10,-2,+2);    
 662:lib/widget.c  ****     SetButtonStyleColor(btn,BUTTON_STYLE_R_RED);
 663:lib/widget.c  ****     btn->image = &g_imageDownArrow;    
 664:lib/widget.c  ****     SetButtonText(btn,"");    
 665:lib/widget.c  ****     DrawButton(btn);
 666:lib/widget.c  ****     
 667:lib/widget.c  ****     // Incre 1
 668:lib/widget.c  ****     btn = &menu->btn[5];
 669:lib/widget.c  ****     
 670:lib/widget.c  ****     if(getMiscConfig()->bDisplayDir == DISPLAY_DIRECTION_PORTRAIT)
 671:lib/widget.c  ****         SetButtonSize(btn,0,g_DEFAULT_BUTTON_HEIGHT, BUTTON_X_1_3, BUTTON_Y_4_4,FALSE);
 672:lib/widget.c  ****     else
 673:lib/widget.c  ****         SetButtonSize(btn,0,g_DEFAULT_BUTTON_HEIGHT, BUTTON_X_1_4, BUTTON_Y_3_3,FALSE);
 674:lib/widget.c  ****         
 675:lib/widget.c  ****     RectangleSizeShrink(&btn->rect,+10,-10,0,0);
 676:lib/widget.c  ****     SetButtonStyleColor(btn,BUTTON_STYLE_WHITE);
 677:lib/widget.c  ****     SetButtonText(btn,"%d", menu->inc[0]);
 678:lib/widget.c  ****     btn->outlineColor = DARKGREY;
 679:lib/widget.c  ****     //DrawButton(btn);
 680:lib/widget.c  ****     
 681:lib/widget.c  ****     // Incre 2
 682:lib/widget.c  ****     btn = &menu->btn[6];
 683:lib/widget.c  ****     
 684:lib/widget.c  ****     if(getMiscConfig()->bDisplayDir == DISPLAY_DIRECTION_PORTRAIT)
 685:lib/widget.c  ****         SetButtonSize(btn,0,g_DEFAULT_BUTTON_HEIGHT, BUTTON_X_2_3, BUTTON_Y_4_4,FALSE);
 686:lib/widget.c  ****     else
 687:lib/widget.c  ****         SetButtonSize(btn,0,g_DEFAULT_BUTTON_HEIGHT, BUTTON_X_2_4, BUTTON_Y_3_3,FALSE);
 688:lib/widget.c  ****         
 689:lib/widget.c  ****     RectangleSizeShrink(&btn->rect,+10,-10,0,0);
 690:lib/widget.c  ****     SetButtonStyleColor(btn,BUTTON_STYLE_WHITE);
 691:lib/widget.c  ****     SetButtonText(btn,"%d", menu->inc[1]); 
 692:lib/widget.c  ****     btn->outlineColor = DARKGREY;
 693:lib/widget.c  ****     //DrawButton(btn);
 694:lib/widget.c  ****     
ARM GAS  C:\Users\luvsd\AppData\Local\Temp\ccS26oY7.s 			page 59


 695:lib/widget.c  ****     // Incre 3
 696:lib/widget.c  ****     btn = &menu->btn[7];
 697:lib/widget.c  ****     
 698:lib/widget.c  ****     if(getMiscConfig()->bDisplayDir == DISPLAY_DIRECTION_PORTRAIT)
 699:lib/widget.c  ****         SetButtonSize(btn,0,g_DEFAULT_BUTTON_HEIGHT, BUTTON_X_3_3, BUTTON_Y_4_4,FALSE);
 700:lib/widget.c  ****     else
 701:lib/widget.c  ****         SetButtonSize(btn,0,g_DEFAULT_BUTTON_HEIGHT, BUTTON_X_3_4, BUTTON_Y_3_3,FALSE);
 702:lib/widget.c  ****         
 703:lib/widget.c  ****     RectangleSizeShrink(&btn->rect,+10,-10,0,0);
 704:lib/widget.c  ****     SetButtonStyleColor(btn,BUTTON_STYLE_WHITE);
 705:lib/widget.c  ****     SetButtonText(btn,"%d", menu->inc[2]);
 706:lib/widget.c  ****     btn->outlineColor = DARKGREY;
 707:lib/widget.c  ****    // DrawButton(btn);
 708:lib/widget.c  **** }
 709:lib/widget.c  **** */
 710:lib/widget.c  **** 
 711:lib/widget.c  **** // increase 숫자가 2만 있는 것
 712:lib/widget.c  **** void SetDrawUpDownOneMenu(UP_DOWN_ONE_MENU *menu, char *first, const char *title, ...)
 713:lib/widget.c  **** {
 2459              		.loc 1 713 0
 2460              		.cfi_startproc
 2461              		@ args = 4, pretend = 8, frame = 24
 2462              		@ frame_needed = 0, uses_anonymous_args = 1
 2463              	.LVL302:
 2464 0000 0CB4     		push	{r2, r3}
 2465              		.cfi_def_cfa_offset 8
 2466 0002 70B5     		push	{r4, r5, r6, lr}
 2467              		.cfi_def_cfa_offset 24
 2468              		.cfi_offset 4, -24
 2469              		.cfi_offset 5, -20
 2470              		.cfi_offset 6, -16
 2471              		.cfi_offset 14, -12
 2472 0004 88B0     		sub	sp, sp, #32
 2473              		.cfi_def_cfa_offset 56
 2474 0006 0400     		movs	r4, r0
 2475 0008 0D00     		movs	r5, r1
 2476 000a 0CAA     		add	r2, sp, #48
 2477 000c 02CA     		ldmia	r2!, {r1}
 2478              	.LVL303:
 714:lib/widget.c  ****     va_list ap;
 715:lib/widget.c  ****     char buff[20];
 716:lib/widget.c  ****     va_start(ap, title);
 2479              		.loc 1 716 0
 2480 000e 0792     		str	r2, [sp, #28]
 717:lib/widget.c  ****     vsprintf(buff, title, ap);
 2481              		.loc 1 717 0
 2482 0010 02A8     		add	r0, sp, #8
 2483              	.LVL304:
 2484 0012 FFF7FEFF 		bl	vsprintf
 2485              	.LVL305:
 718:lib/widget.c  ****     va_end(ap);
 719:lib/widget.c  ****     
 720:lib/widget.c  ****     SetDefaultButtonStyleArray(menu->btn,8);
 2486              		.loc 1 720 0
 2487 0016 0821     		movs	r1, #8
 2488 0018 2000     		movs	r0, r4
 2489 001a FFF7FEFF 		bl	SetDefaultButtonStyleArray
ARM GAS  C:\Users\luvsd\AppData\Local\Temp\ccS26oY7.s 			page 60


 2490              	.LVL306:
 721:lib/widget.c  ****     
 722:lib/widget.c  ****     BUTTON *btn;
 723:lib/widget.c  ****     
 724:lib/widget.c  ****     // title
 725:lib/widget.c  ****     btn = &menu->btn[0];
 726:lib/widget.c  ****     SetButtonSize(btn,0,g_DEFAULT_BUTTON_HEIGHT,BUTTON_X_FULL,BUTTON_Y_FIRST,FALSE);
 2491              		.loc 1 726 0
 2492 001e D24B     		ldr	r3, .L146
 2493 0020 1A88     		ldrh	r2, [r3]
 2494 0022 0023     		movs	r3, #0
 2495 0024 0193     		str	r3, [sp, #4]
 2496 0026 0D33     		adds	r3, r3, #13
 2497 0028 0093     		str	r3, [sp]
 2498 002a 0C3B     		subs	r3, r3, #12
 2499 002c 0021     		movs	r1, #0
 2500 002e 2000     		movs	r0, r4
 2501 0030 FFF7FEFF 		bl	SetButtonSize
 2502              	.LVL307:
 727:lib/widget.c  ****     SetButtonStyleColor(btn,BUTTON_STYLE_ORANGE);        
 2503              		.loc 1 727 0
 2504 0034 0721     		movs	r1, #7
 2505 0036 2000     		movs	r0, r4
 2506 0038 FFF7FEFF 		bl	SetButtonStyleColor
 2507              	.LVL308:
 728:lib/widget.c  ****     SetButtonText(btn, buff);
 2508              		.loc 1 728 0
 2509 003c 02A9     		add	r1, sp, #8
 2510 003e 2000     		movs	r0, r4
 2511 0040 FFF7FEFF 		bl	SetButtonText
 2512              	.LVL309:
 729:lib/widget.c  ****     DrawButton(btn);
 2513              		.loc 1 729 0
 2514 0044 2000     		movs	r0, r4
 2515 0046 FFF7FEFF 		bl	DrawButton
 2516              	.LVL310:
 730:lib/widget.c  ****     
 731:lib/widget.c  ****     EraseBlankArea(btn->rect.bottom+1,FALSE);  
 2517              		.loc 1 731 0
 2518 004a 6089     		ldrh	r0, [r4, #10]
 2519 004c 0130     		adds	r0, r0, #1
 2520 004e 80B2     		uxth	r0, r0
 2521 0050 0021     		movs	r1, #0
 2522 0052 FFF7FEFF 		bl	EraseBlankArea
 2523              	.LVL311:
 732:lib/widget.c  ****     
 733:lib/widget.c  ****     // text
 734:lib/widget.c  ****     btn = &menu->btn[1];
 2524              		.loc 1 734 0
 2525 0056 2600     		movs	r6, r4
 2526 0058 4036     		adds	r6, r6, #64
 2527              	.LVL312:
 735:lib/widget.c  ****     if(getMiscConfig()->bDisplayDir == DISPLAY_DIRECTION_PORTRAIT)
 2528              		.loc 1 735 0
 2529 005a FFF7FEFF 		bl	getMiscConfig
 2530              	.LVL313:
 2531 005e 0388     		ldrh	r3, [r0]
ARM GAS  C:\Users\luvsd\AppData\Local\Temp\ccS26oY7.s 			page 61


 2532 0060 002B     		cmp	r3, #0
 2533 0062 0BD1     		bne	.L125
 736:lib/widget.c  ****         SetButtonSize(btn,0,g_DEFAULT_BUTTON_HEIGHT, BUTTON_X_1_2, BUTTON_Y_2_4,FALSE);
 2534              		.loc 1 736 0
 2535 0064 C04B     		ldr	r3, .L146
 2536 0066 1A88     		ldrh	r2, [r3]
 2537 0068 0023     		movs	r3, #0
 2538 006a 0193     		str	r3, [sp, #4]
 2539 006c 1133     		adds	r3, r3, #17
 2540 006e 0093     		str	r3, [sp]
 2541 0070 0F3B     		subs	r3, r3, #15
 2542 0072 0021     		movs	r1, #0
 2543 0074 3000     		movs	r0, r6
 2544 0076 FFF7FEFF 		bl	SetButtonSize
 2545              	.LVL314:
 2546 007a 0AE0     		b	.L126
 2547              	.L125:
 737:lib/widget.c  ****     else
 738:lib/widget.c  ****         SetButtonSize(btn,0,g_DEFAULT_BUTTON_HEIGHT, BUTTON_X_1_3, BUTTON_Y_2_3,FALSE);  
 2548              		.loc 1 738 0
 2549 007c BA4B     		ldr	r3, .L146
 2550 007e 1A88     		ldrh	r2, [r3]
 2551 0080 0023     		movs	r3, #0
 2552 0082 0193     		str	r3, [sp, #4]
 2553 0084 0F33     		adds	r3, r3, #15
 2554 0086 0093     		str	r3, [sp]
 2555 0088 0B3B     		subs	r3, r3, #11
 2556 008a 0021     		movs	r1, #0
 2557 008c 3000     		movs	r0, r6
 2558 008e FFF7FEFF 		bl	SetButtonSize
 2559              	.LVL315:
 2560              	.L126:
 739:lib/widget.c  **** 
 740:lib/widget.c  ****     SetButtonStyleColor(btn,BUTTON_STYLE_WHITE);        
 2561              		.loc 1 740 0
 2562 0092 0521     		movs	r1, #5
 2563 0094 3000     		movs	r0, r6
 2564 0096 FFF7FEFF 		bl	SetButtonStyleColor
 2565              	.LVL316:
 741:lib/widget.c  ****     SetButtonText(btn, first);
 2566              		.loc 1 741 0
 2567 009a 2900     		movs	r1, r5
 2568 009c 3000     		movs	r0, r6
 2569 009e FFF7FEFF 		bl	SetButtonText
 2570              	.LVL317:
 742:lib/widget.c  ****     btn->align = TEXT_ALIGN_LEFT;    
 2571              		.loc 1 742 0
 2572 00a2 0122     		movs	r2, #1
 2573 00a4 2300     		movs	r3, r4
 2574 00a6 7A33     		adds	r3, r3, #122
 2575 00a8 1A70     		strb	r2, [r3]
 743:lib/widget.c  ****     DrawButton(btn);
 2576              		.loc 1 743 0
 2577 00aa 3000     		movs	r0, r6
 2578 00ac FFF7FEFF 		bl	DrawButton
 2579              	.LVL318:
 744:lib/widget.c  ****     
ARM GAS  C:\Users\luvsd\AppData\Local\Temp\ccS26oY7.s 			page 62


 745:lib/widget.c  ****     // value
 746:lib/widget.c  ****     btn = &menu->btn[2];
 2580              		.loc 1 746 0
 2581 00b0 2500     		movs	r5, r4
 2582              	.LVL319:
 2583 00b2 8035     		adds	r5, r5, #128
 2584              	.LVL320:
 747:lib/widget.c  ****     if(getMiscConfig()->bDisplayDir == DISPLAY_DIRECTION_PORTRAIT)
 2585              		.loc 1 747 0
 2586 00b4 FFF7FEFF 		bl	getMiscConfig
 2587              	.LVL321:
 2588 00b8 0388     		ldrh	r3, [r0]
 2589 00ba 002B     		cmp	r3, #0
 2590 00bc 0BD1     		bne	.L127
 748:lib/widget.c  ****         SetButtonSize(btn,0,g_DEFAULT_BUTTON_HEIGHT, BUTTON_X_2_2, BUTTON_Y_2_4,FALSE);
 2591              		.loc 1 748 0
 2592 00be AA4B     		ldr	r3, .L146
 2593 00c0 1A88     		ldrh	r2, [r3]
 2594 00c2 0023     		movs	r3, #0
 2595 00c4 0193     		str	r3, [sp, #4]
 2596 00c6 1133     		adds	r3, r3, #17
 2597 00c8 0093     		str	r3, [sp]
 2598 00ca 0E3B     		subs	r3, r3, #14
 2599 00cc 0021     		movs	r1, #0
 2600 00ce 2800     		movs	r0, r5
 2601 00d0 FFF7FEFF 		bl	SetButtonSize
 2602              	.LVL322:
 2603 00d4 0AE0     		b	.L128
 2604              	.L127:
 749:lib/widget.c  ****     else
 750:lib/widget.c  ****         SetButtonSize(btn,0,g_DEFAULT_BUTTON_HEIGHT, BUTTON_X_2_3, BUTTON_Y_2_3,FALSE);
 2605              		.loc 1 750 0
 2606 00d6 A44B     		ldr	r3, .L146
 2607 00d8 1A88     		ldrh	r2, [r3]
 2608 00da 0023     		movs	r3, #0
 2609 00dc 0193     		str	r3, [sp, #4]
 2610 00de 0F33     		adds	r3, r3, #15
 2611 00e0 0093     		str	r3, [sp]
 2612 00e2 0A3B     		subs	r3, r3, #10
 2613 00e4 0021     		movs	r1, #0
 2614 00e6 2800     		movs	r0, r5
 2615 00e8 FFF7FEFF 		bl	SetButtonSize
 2616              	.LVL323:
 2617              	.L128:
 751:lib/widget.c  ****     SetButtonStyleColor(btn,BUTTON_STYLE_YELLOW);     
 2618              		.loc 1 751 0
 2619 00ec 0821     		movs	r1, #8
 2620 00ee 2800     		movs	r0, r5
 2621 00f0 FFF7FEFF 		bl	SetButtonStyleColor
 2622              	.LVL324:
 752:lib/widget.c  ****   //  SetButtonText(btn, "9999");
 753:lib/widget.c  ****     btn->align = TEXT_ALIGN_RIGHT;
 2623              		.loc 1 753 0
 2624 00f4 0222     		movs	r2, #2
 2625 00f6 2300     		movs	r3, r4
 2626 00f8 BA33     		adds	r3, r3, #186
 2627 00fa 1A70     		strb	r2, [r3]
ARM GAS  C:\Users\luvsd\AppData\Local\Temp\ccS26oY7.s 			page 63


 754:lib/widget.c  ****     //DrawButton(btn);
 755:lib/widget.c  ****     
 756:lib/widget.c  ****     // Up
 757:lib/widget.c  ****     btn = &menu->btn[3];
 2628              		.loc 1 757 0
 2629 00fc 2500     		movs	r5, r4
 2630              	.LVL325:
 2631 00fe C035     		adds	r5, r5, #192
 2632              	.LVL326:
 758:lib/widget.c  ****     
 759:lib/widget.c  ****     if(getMiscConfig()->bDisplayDir == DISPLAY_DIRECTION_PORTRAIT)
 2633              		.loc 1 759 0
 2634 0100 FFF7FEFF 		bl	getMiscConfig
 2635              	.LVL327:
 2636 0104 0388     		ldrh	r3, [r0]
 2637 0106 002B     		cmp	r3, #0
 2638 0108 0BD1     		bne	.L129
 760:lib/widget.c  ****         SetButtonSize(btn,0,g_DEFAULT_BUTTON_HEIGHT, BUTTON_X_1_2, BUTTON_Y_3_4,FALSE);
 2639              		.loc 1 760 0
 2640 010a 974B     		ldr	r3, .L146
 2641 010c 1A88     		ldrh	r2, [r3]
 2642 010e 0023     		movs	r3, #0
 2643 0110 0193     		str	r3, [sp, #4]
 2644 0112 1233     		adds	r3, r3, #18
 2645 0114 0093     		str	r3, [sp]
 2646 0116 103B     		subs	r3, r3, #16
 2647 0118 0021     		movs	r1, #0
 2648 011a 2800     		movs	r0, r5
 2649 011c FFF7FEFF 		bl	SetButtonSize
 2650              	.LVL328:
 2651 0120 0AE0     		b	.L130
 2652              	.L129:
 761:lib/widget.c  ****     else
 762:lib/widget.c  ****         SetButtonSize(btn,0,g_DEFAULT_BUTTON_HEIGHT, BUTTON_X_4_4, BUTTON_Y_2_3,FALSE); 
 2653              		.loc 1 762 0
 2654 0122 914B     		ldr	r3, .L146
 2655 0124 1A88     		ldrh	r2, [r3]
 2656 0126 0023     		movs	r3, #0
 2657 0128 0193     		str	r3, [sp, #4]
 2658 012a 0F33     		adds	r3, r3, #15
 2659 012c 0093     		str	r3, [sp]
 2660 012e 053B     		subs	r3, r3, #5
 2661 0130 0021     		movs	r1, #0
 2662 0132 2800     		movs	r0, r5
 2663 0134 FFF7FEFF 		bl	SetButtonSize
 2664              	.LVL329:
 2665              	.L130:
 763:lib/widget.c  ****     RectangleSizeShrink(&btn->rect,+10,-10,-2,+2);
 2666              		.loc 1 763 0
 2667 0138 2000     		movs	r0, r4
 2668 013a C430     		adds	r0, r0, #196
 2669 013c 0223     		movs	r3, #2
 2670 013e 0093     		str	r3, [sp]
 2671 0140 043B     		subs	r3, r3, #4
 2672 0142 0A22     		movs	r2, #10
 2673 0144 5242     		rsbs	r2, r2, #0
 2674 0146 0A21     		movs	r1, #10
ARM GAS  C:\Users\luvsd\AppData\Local\Temp\ccS26oY7.s 			page 64


 2675 0148 FFF7FEFF 		bl	RectangleSizeShrink
 2676              	.LVL330:
 764:lib/widget.c  ****     SetButtonStyleColor(btn,BUTTON_STYLE_R_BLUE);
 2677              		.loc 1 764 0
 2678 014c 1221     		movs	r1, #18
 2679 014e 2800     		movs	r0, r5
 2680 0150 FFF7FEFF 		bl	SetButtonStyleColor
 2681              	.LVL331:
 765:lib/widget.c  ****     SetButtonText(btn,"");    
 2682              		.loc 1 765 0
 2683 0154 8549     		ldr	r1, .L146+4
 2684 0156 2800     		movs	r0, r5
 2685 0158 FFF7FEFF 		bl	SetButtonText
 2686              	.LVL332:
 766:lib/widget.c  ****     btn->image = &g_imageUpArrow;  
 2687              		.loc 1 766 0
 2688 015c 844A     		ldr	r2, .L146+8
 2689 015e C023     		movs	r3, #192
 2690 0160 E250     		str	r2, [r4, r3]
 767:lib/widget.c  ****     DrawButton(btn);
 2691              		.loc 1 767 0
 2692 0162 2800     		movs	r0, r5
 2693 0164 FFF7FEFF 		bl	DrawButton
 2694              	.LVL333:
 768:lib/widget.c  ****     
 769:lib/widget.c  ****     // Down
 770:lib/widget.c  ****     btn = &menu->btn[4];
 2695              		.loc 1 770 0
 2696 0168 651C     		adds	r5, r4, #1
 2697              	.LVL334:
 2698 016a FF35     		adds	r5, r5, #255
 2699              	.LVL335:
 771:lib/widget.c  ****     
 772:lib/widget.c  ****     if(getMiscConfig()->bDisplayDir == DISPLAY_DIRECTION_PORTRAIT)
 2700              		.loc 1 772 0
 2701 016c FFF7FEFF 		bl	getMiscConfig
 2702              	.LVL336:
 2703 0170 0388     		ldrh	r3, [r0]
 2704 0172 002B     		cmp	r3, #0
 2705 0174 0BD1     		bne	.L131
 773:lib/widget.c  ****         SetButtonSize(btn,0,g_DEFAULT_BUTTON_HEIGHT, BUTTON_X_2_2, BUTTON_Y_3_4,FALSE);
 2706              		.loc 1 773 0
 2707 0176 7C4B     		ldr	r3, .L146
 2708 0178 1A88     		ldrh	r2, [r3]
 2709 017a 0023     		movs	r3, #0
 2710 017c 0193     		str	r3, [sp, #4]
 2711 017e 1233     		adds	r3, r3, #18
 2712 0180 0093     		str	r3, [sp]
 2713 0182 0F3B     		subs	r3, r3, #15
 2714 0184 0021     		movs	r1, #0
 2715 0186 2800     		movs	r0, r5
 2716 0188 FFF7FEFF 		bl	SetButtonSize
 2717              	.LVL337:
 2718 018c 0AE0     		b	.L132
 2719              	.L131:
 774:lib/widget.c  ****     else
 775:lib/widget.c  ****         SetButtonSize(btn,0,g_DEFAULT_BUTTON_HEIGHT, BUTTON_X_4_4, BUTTON_Y_3_3,FALSE);
ARM GAS  C:\Users\luvsd\AppData\Local\Temp\ccS26oY7.s 			page 65


 2720              		.loc 1 775 0
 2721 018e 764B     		ldr	r3, .L146
 2722 0190 1A88     		ldrh	r2, [r3]
 2723 0192 0023     		movs	r3, #0
 2724 0194 0193     		str	r3, [sp, #4]
 2725 0196 1033     		adds	r3, r3, #16
 2726 0198 0093     		str	r3, [sp]
 2727 019a 063B     		subs	r3, r3, #6
 2728 019c 0021     		movs	r1, #0
 2729 019e 2800     		movs	r0, r5
 2730 01a0 FFF7FEFF 		bl	SetButtonSize
 2731              	.LVL338:
 2732              	.L132:
 776:lib/widget.c  ****     RectangleSizeShrink(&btn->rect,+10,-10,-2,+2);    
 2733              		.loc 1 776 0
 2734 01a4 601D     		adds	r0, r4, #5
 2735 01a6 FF30     		adds	r0, r0, #255
 2736 01a8 0223     		movs	r3, #2
 2737 01aa 0093     		str	r3, [sp]
 2738 01ac 043B     		subs	r3, r3, #4
 2739 01ae 0A22     		movs	r2, #10
 2740 01b0 5242     		rsbs	r2, r2, #0
 2741 01b2 0A21     		movs	r1, #10
 2742 01b4 FFF7FEFF 		bl	RectangleSizeShrink
 2743              	.LVL339:
 777:lib/widget.c  ****     SetButtonStyleColor(btn,BUTTON_STYLE_R_RED);
 2744              		.loc 1 777 0
 2745 01b8 0E21     		movs	r1, #14
 2746 01ba 2800     		movs	r0, r5
 2747 01bc FFF7FEFF 		bl	SetButtonStyleColor
 2748              	.LVL340:
 778:lib/widget.c  ****     btn->image = &g_imageDownArrow;    
 2749              		.loc 1 778 0
 2750 01c0 6B4B     		ldr	r3, .L146+8
 2751 01c2 0833     		adds	r3, r3, #8
 2752 01c4 8022     		movs	r2, #128
 2753 01c6 5200     		lsls	r2, r2, #1
 2754 01c8 A350     		str	r3, [r4, r2]
 779:lib/widget.c  ****     SetButtonText(btn,"");    
 2755              		.loc 1 779 0
 2756 01ca 6849     		ldr	r1, .L146+4
 2757 01cc 2800     		movs	r0, r5
 2758 01ce FFF7FEFF 		bl	SetButtonText
 2759              	.LVL341:
 780:lib/widget.c  ****     DrawButton(btn);
 2760              		.loc 1 780 0
 2761 01d2 2800     		movs	r0, r5
 2762 01d4 FFF7FEFF 		bl	DrawButton
 2763              	.LVL342:
 781:lib/widget.c  ****     
 782:lib/widget.c  ****     // Incre 1
 783:lib/widget.c  ****     btn = &menu->btn[5];
 2764              		.loc 1 783 0
 2765 01d8 2500     		movs	r5, r4
 2766              	.LVL343:
 2767 01da 4135     		adds	r5, r5, #65
 2768 01dc FF35     		adds	r5, r5, #255
ARM GAS  C:\Users\luvsd\AppData\Local\Temp\ccS26oY7.s 			page 66


 2769              	.LVL344:
 784:lib/widget.c  ****     
 785:lib/widget.c  ****     if(getMiscConfig()->bDisplayDir == DISPLAY_DIRECTION_PORTRAIT)
 2770              		.loc 1 785 0
 2771 01de FFF7FEFF 		bl	getMiscConfig
 2772              	.LVL345:
 2773 01e2 0388     		ldrh	r3, [r0]
 2774 01e4 002B     		cmp	r3, #0
 2775 01e6 0BD1     		bne	.L133
 786:lib/widget.c  ****         SetButtonSize(btn,0,g_DEFAULT_BUTTON_HEIGHT, BUTTON_X_1_3, BUTTON_Y_4_4,FALSE);
 2776              		.loc 1 786 0
 2777 01e8 5F4B     		ldr	r3, .L146
 2778 01ea 1A88     		ldrh	r2, [r3]
 2779 01ec 0023     		movs	r3, #0
 2780 01ee 0193     		str	r3, [sp, #4]
 2781 01f0 1333     		adds	r3, r3, #19
 2782 01f2 0093     		str	r3, [sp]
 2783 01f4 0F3B     		subs	r3, r3, #15
 2784 01f6 0021     		movs	r1, #0
 2785 01f8 2800     		movs	r0, r5
 2786 01fa FFF7FEFF 		bl	SetButtonSize
 2787              	.LVL346:
 2788 01fe 0AE0     		b	.L134
 2789              	.L133:
 787:lib/widget.c  ****     else
 788:lib/widget.c  ****         SetButtonSize(btn,0,g_DEFAULT_BUTTON_HEIGHT, BUTTON_X_1_4, BUTTON_Y_3_3,FALSE);
 2790              		.loc 1 788 0
 2791 0200 594B     		ldr	r3, .L146
 2792 0202 1A88     		ldrh	r2, [r3]
 2793 0204 0023     		movs	r3, #0
 2794 0206 0193     		str	r3, [sp, #4]
 2795 0208 1033     		adds	r3, r3, #16
 2796 020a 0093     		str	r3, [sp]
 2797 020c 093B     		subs	r3, r3, #9
 2798 020e 0021     		movs	r1, #0
 2799 0210 2800     		movs	r0, r5
 2800 0212 FFF7FEFF 		bl	SetButtonSize
 2801              	.LVL347:
 2802              	.L134:
 789:lib/widget.c  ****         
 790:lib/widget.c  ****     RectangleSizeShrink(&btn->rect,+10,-10,0,0);
 2803              		.loc 1 790 0
 2804 0216 2600     		movs	r6, r4
 2805 0218 4536     		adds	r6, r6, #69
 2806 021a FF36     		adds	r6, r6, #255
 2807 021c 0023     		movs	r3, #0
 2808 021e 0093     		str	r3, [sp]
 2809 0220 0A22     		movs	r2, #10
 2810 0222 5242     		rsbs	r2, r2, #0
 2811 0224 0A21     		movs	r1, #10
 2812 0226 3000     		movs	r0, r6
 2813 0228 FFF7FEFF 		bl	RectangleSizeShrink
 2814              	.LVL348:
 791:lib/widget.c  ****     
 792:lib/widget.c  ****     if(menu->inc[2] == 0) RectangleSizeShrink(&btn->rect,0, 20,0,0);   
 2815              		.loc 1 792 0
 2816 022c 8123     		movs	r3, #129
ARM GAS  C:\Users\luvsd\AppData\Local\Temp\ccS26oY7.s 			page 67


 2817 022e 9B00     		lsls	r3, r3, #2
 2818 0230 E35A     		ldrh	r3, [r4, r3]
 2819 0232 002B     		cmp	r3, #0
 2820 0234 05D1     		bne	.L135
 2821              		.loc 1 792 0 is_stmt 0 discriminator 1
 2822 0236 0093     		str	r3, [sp]
 2823 0238 1422     		movs	r2, #20
 2824 023a 0021     		movs	r1, #0
 2825 023c 3000     		movs	r0, r6
 2826 023e FFF7FEFF 		bl	RectangleSizeShrink
 2827              	.LVL349:
 2828              	.L135:
 793:lib/widget.c  ****     SetButtonStyleColor(btn,BUTTON_STYLE_WHITE);
 2829              		.loc 1 793 0 is_stmt 1
 2830 0242 0521     		movs	r1, #5
 2831 0244 2800     		movs	r0, r5
 2832 0246 FFF7FEFF 		bl	SetButtonStyleColor
 2833              	.LVL350:
 794:lib/widget.c  ****     SetButtonText(btn,"%d", menu->inc[0]);
 2834              		.loc 1 794 0
 2835 024a 8023     		movs	r3, #128
 2836 024c 9B00     		lsls	r3, r3, #2
 2837 024e E25A     		ldrh	r2, [r4, r3]
 2838 0250 4849     		ldr	r1, .L146+12
 2839 0252 2800     		movs	r0, r5
 2840 0254 FFF7FEFF 		bl	SetButtonText
 2841              	.LVL351:
 795:lib/widget.c  ****     btn->outlineColor = DARKGREY;
 2842              		.loc 1 795 0
 2843 0258 2300     		movs	r3, r4
 2844 025a 4133     		adds	r3, r3, #65
 2845 025c FF33     		adds	r3, r3, #255
 2846 025e 464A     		ldr	r2, .L146+16
 2847 0260 9A86     		strh	r2, [r3, #52]
 796:lib/widget.c  ****     //DrawButton(btn);
 797:lib/widget.c  ****     
 798:lib/widget.c  ****     // Incre 2
 799:lib/widget.c  ****     btn = &menu->btn[6];
 2848              		.loc 1 799 0
 2849 0262 2500     		movs	r5, r4
 2850              	.LVL352:
 2851 0264 8135     		adds	r5, r5, #129
 2852 0266 FF35     		adds	r5, r5, #255
 2853              	.LVL353:
 800:lib/widget.c  ****     
 801:lib/widget.c  ****     if(menu->inc[2] != 0)
 2854              		.loc 1 801 0
 2855 0268 8123     		movs	r3, #129
 2856 026a 9B00     		lsls	r3, r3, #2
 2857 026c E35A     		ldrh	r3, [r4, r3]
 2858 026e 002B     		cmp	r3, #0
 2859 0270 26D0     		beq	.L136
 802:lib/widget.c  ****     {    
 803:lib/widget.c  ****         if(getMiscConfig()->bDisplayDir == DISPLAY_DIRECTION_PORTRAIT)
 2860              		.loc 1 803 0
 2861 0272 FFF7FEFF 		bl	getMiscConfig
 2862              	.LVL354:
ARM GAS  C:\Users\luvsd\AppData\Local\Temp\ccS26oY7.s 			page 68


 2863 0276 0388     		ldrh	r3, [r0]
 2864 0278 002B     		cmp	r3, #0
 2865 027a 0BD1     		bne	.L137
 804:lib/widget.c  ****             SetButtonSize(btn,0,g_DEFAULT_BUTTON_HEIGHT, BUTTON_X_2_3, BUTTON_Y_4_4,FALSE);
 2866              		.loc 1 804 0
 2867 027c 3A4B     		ldr	r3, .L146
 2868 027e 1A88     		ldrh	r2, [r3]
 2869 0280 0023     		movs	r3, #0
 2870 0282 0193     		str	r3, [sp, #4]
 2871 0284 1333     		adds	r3, r3, #19
 2872 0286 0093     		str	r3, [sp]
 2873 0288 0E3B     		subs	r3, r3, #14
 2874 028a 0021     		movs	r1, #0
 2875 028c 2800     		movs	r0, r5
 2876 028e FFF7FEFF 		bl	SetButtonSize
 2877              	.LVL355:
 2878 0292 0AE0     		b	.L138
 2879              	.L137:
 805:lib/widget.c  ****         else
 806:lib/widget.c  ****             SetButtonSize(btn,0,g_DEFAULT_BUTTON_HEIGHT, BUTTON_X_2_4, BUTTON_Y_3_3,FALSE);
 2880              		.loc 1 806 0
 2881 0294 344B     		ldr	r3, .L146
 2882 0296 1A88     		ldrh	r2, [r3]
 2883 0298 0023     		movs	r3, #0
 2884 029a 0193     		str	r3, [sp, #4]
 2885 029c 1033     		adds	r3, r3, #16
 2886 029e 0093     		str	r3, [sp]
 2887 02a0 083B     		subs	r3, r3, #8
 2888 02a2 0021     		movs	r1, #0
 2889 02a4 2800     		movs	r0, r5
 2890 02a6 FFF7FEFF 		bl	SetButtonSize
 2891              	.LVL356:
 2892              	.L138:
 807:lib/widget.c  ****             
 808:lib/widget.c  ****         RectangleSizeShrink(&btn->rect,+10,-10,0,0);            
 2893              		.loc 1 808 0
 2894 02aa 2000     		movs	r0, r4
 2895 02ac 8530     		adds	r0, r0, #133
 2896 02ae FF30     		adds	r0, r0, #255
 2897 02b0 0023     		movs	r3, #0
 2898 02b2 0093     		str	r3, [sp]
 2899 02b4 0A22     		movs	r2, #10
 2900 02b6 5242     		rsbs	r2, r2, #0
 2901 02b8 0A21     		movs	r1, #10
 2902 02ba FFF7FEFF 		bl	RectangleSizeShrink
 2903              	.LVL357:
 2904 02be 25E0     		b	.L139
 2905              	.L136:
 809:lib/widget.c  ****     }
 810:lib/widget.c  ****     else
 811:lib/widget.c  ****     {
 812:lib/widget.c  ****         if(getMiscConfig()->bDisplayDir == DISPLAY_DIRECTION_PORTRAIT)
 2906              		.loc 1 812 0
 2907 02c0 FFF7FEFF 		bl	getMiscConfig
 2908              	.LVL358:
 2909 02c4 0388     		ldrh	r3, [r0]
 2910 02c6 002B     		cmp	r3, #0
ARM GAS  C:\Users\luvsd\AppData\Local\Temp\ccS26oY7.s 			page 69


 2911 02c8 0BD1     		bne	.L140
 813:lib/widget.c  ****             SetButtonSize(btn,0,g_DEFAULT_BUTTON_HEIGHT, BUTTON_X_3_3, BUTTON_Y_4_4,FALSE);
 2912              		.loc 1 813 0
 2913 02ca 274B     		ldr	r3, .L146
 2914 02cc 1A88     		ldrh	r2, [r3]
 2915 02ce 0023     		movs	r3, #0
 2916 02d0 0193     		str	r3, [sp, #4]
 2917 02d2 1333     		adds	r3, r3, #19
 2918 02d4 0093     		str	r3, [sp]
 2919 02d6 0D3B     		subs	r3, r3, #13
 2920 02d8 0021     		movs	r1, #0
 2921 02da 2800     		movs	r0, r5
 2922 02dc FFF7FEFF 		bl	SetButtonSize
 2923              	.LVL359:
 2924 02e0 0AE0     		b	.L141
 2925              	.L140:
 814:lib/widget.c  ****         else
 815:lib/widget.c  ****             SetButtonSize(btn,0,g_DEFAULT_BUTTON_HEIGHT, BUTTON_X_3_4, BUTTON_Y_3_3,FALSE);  
 2926              		.loc 1 815 0
 2927 02e2 214B     		ldr	r3, .L146
 2928 02e4 1A88     		ldrh	r2, [r3]
 2929 02e6 0023     		movs	r3, #0
 2930 02e8 0193     		str	r3, [sp, #4]
 2931 02ea 1033     		adds	r3, r3, #16
 2932 02ec 0093     		str	r3, [sp]
 2933 02ee 073B     		subs	r3, r3, #7
 2934 02f0 0021     		movs	r1, #0
 2935 02f2 2800     		movs	r0, r5
 2936 02f4 FFF7FEFF 		bl	SetButtonSize
 2937              	.LVL360:
 2938              	.L141:
 816:lib/widget.c  ****             
 817:lib/widget.c  ****         RectangleSizeShrink(&btn->rect,-10,-10,0,0);            
 2939              		.loc 1 817 0
 2940 02f8 0A21     		movs	r1, #10
 2941 02fa 4942     		rsbs	r1, r1, #0
 2942 02fc 2000     		movs	r0, r4
 2943 02fe 8530     		adds	r0, r0, #133
 2944 0300 FF30     		adds	r0, r0, #255
 2945 0302 0023     		movs	r3, #0
 2946 0304 0093     		str	r3, [sp]
 2947 0306 0A00     		movs	r2, r1
 2948 0308 FFF7FEFF 		bl	RectangleSizeShrink
 2949              	.LVL361:
 2950              	.L139:
 818:lib/widget.c  ****     }
 819:lib/widget.c  **** 
 820:lib/widget.c  ****     SetButtonStyleColor(btn,BUTTON_STYLE_WHITE);
 2951              		.loc 1 820 0
 2952 030c 0521     		movs	r1, #5
 2953 030e 2800     		movs	r0, r5
 2954 0310 FFF7FEFF 		bl	SetButtonStyleColor
 2955              	.LVL362:
 821:lib/widget.c  ****     SetButtonText(btn,"%d", menu->inc[1]); 
 2956              		.loc 1 821 0
 2957 0314 194B     		ldr	r3, .L146+20
 2958 0316 E25A     		ldrh	r2, [r4, r3]
ARM GAS  C:\Users\luvsd\AppData\Local\Temp\ccS26oY7.s 			page 70


 2959 0318 1649     		ldr	r1, .L146+12
 2960 031a 2800     		movs	r0, r5
 2961 031c FFF7FEFF 		bl	SetButtonText
 2962              	.LVL363:
 822:lib/widget.c  ****     btn->outlineColor = DARKGREY;
 2963              		.loc 1 822 0
 2964 0320 2300     		movs	r3, r4
 2965 0322 8133     		adds	r3, r3, #129
 2966 0324 FF33     		adds	r3, r3, #255
 2967 0326 144A     		ldr	r2, .L146+16
 2968 0328 9A86     		strh	r2, [r3, #52]
 823:lib/widget.c  ****     //DrawButton(btn);
 824:lib/widget.c  ****     
 825:lib/widget.c  ****     // Incre 3
 826:lib/widget.c  ****     btn = &menu->btn[7];
 2969              		.loc 1 826 0
 2970 032a 2500     		movs	r5, r4
 2971              	.LVL364:
 2972 032c C135     		adds	r5, r5, #193
 2973 032e FF35     		adds	r5, r5, #255
 2974              	.LVL365:
 827:lib/widget.c  ****     if(menu->inc[2] != 0)
 2975              		.loc 1 827 0
 2976 0330 8123     		movs	r3, #129
 2977 0332 9B00     		lsls	r3, r3, #2
 2978 0334 E35A     		ldrh	r3, [r4, r3]
 2979 0336 002B     		cmp	r3, #0
 2980 0338 47D0     		beq	.L142
 828:lib/widget.c  ****     {
 829:lib/widget.c  ****         btn->ghost = FALSE;
 2981              		.loc 1 829 0
 2982 033a 0022     		movs	r2, #0
 2983 033c 2300     		movs	r3, r4
 2984 033e FE33     		adds	r3, r3, #254
 2985 0340 FF33     		adds	r3, r3, #255
 2986 0342 1A70     		strb	r2, [r3]
 830:lib/widget.c  ****         
 831:lib/widget.c  ****         if(getMiscConfig()->bDisplayDir == DISPLAY_DIRECTION_PORTRAIT)
 2987              		.loc 1 831 0
 2988 0344 FFF7FEFF 		bl	getMiscConfig
 2989              	.LVL366:
 2990 0348 0388     		ldrh	r3, [r0]
 2991 034a 002B     		cmp	r3, #0
 2992 034c 18D1     		bne	.L143
 832:lib/widget.c  ****             SetButtonSize(btn,0,g_DEFAULT_BUTTON_HEIGHT, BUTTON_X_3_3, BUTTON_Y_4_4,FALSE);
 2993              		.loc 1 832 0
 2994 034e 064B     		ldr	r3, .L146
 2995 0350 1A88     		ldrh	r2, [r3]
 2996 0352 0023     		movs	r3, #0
 2997 0354 0193     		str	r3, [sp, #4]
 2998 0356 1333     		adds	r3, r3, #19
 2999 0358 0093     		str	r3, [sp]
 3000 035a 0D3B     		subs	r3, r3, #13
 3001 035c 0021     		movs	r1, #0
 3002 035e 2800     		movs	r0, r5
 3003 0360 FFF7FEFF 		bl	SetButtonSize
 3004              	.LVL367:
ARM GAS  C:\Users\luvsd\AppData\Local\Temp\ccS26oY7.s 			page 71


 3005 0364 17E0     		b	.L144
 3006              	.L147:
 3007 0366 C046     		.align	2
 3008              	.L146:
 3009 0368 00000000 		.word	g_DEFAULT_BUTTON_HEIGHT
 3010 036c 24000000 		.word	.LC30
 3011 0370 00000000 		.word	.LANCHOR0
 3012 0374 28000000 		.word	.LC37
 3013 0378 EF7B0000 		.word	31727
 3014 037c 02020000 		.word	514
 3015              	.L143:
 833:lib/widget.c  ****         else
 834:lib/widget.c  ****             SetButtonSize(btn,0,g_DEFAULT_BUTTON_HEIGHT, BUTTON_X_3_4, BUTTON_Y_3_3,FALSE);
 3016              		.loc 1 834 0
 3017 0380 164B     		ldr	r3, .L148
 3018 0382 1A88     		ldrh	r2, [r3]
 3019 0384 0023     		movs	r3, #0
 3020 0386 0193     		str	r3, [sp, #4]
 3021 0388 1033     		adds	r3, r3, #16
 3022 038a 0093     		str	r3, [sp]
 3023 038c 073B     		subs	r3, r3, #7
 3024 038e 0021     		movs	r1, #0
 3025 0390 2800     		movs	r0, r5
 3026 0392 FFF7FEFF 		bl	SetButtonSize
 3027              	.LVL368:
 3028              	.L144:
 835:lib/widget.c  ****             
 836:lib/widget.c  ****         RectangleSizeShrink(&btn->rect,+10,-10,0,0);
 3029              		.loc 1 836 0
 3030 0396 2000     		movs	r0, r4
 3031 0398 C530     		adds	r0, r0, #197
 3032 039a FF30     		adds	r0, r0, #255
 3033 039c 0023     		movs	r3, #0
 3034 039e 0093     		str	r3, [sp]
 3035 03a0 0A22     		movs	r2, #10
 3036 03a2 5242     		rsbs	r2, r2, #0
 3037 03a4 0A21     		movs	r1, #10
 3038 03a6 FFF7FEFF 		bl	RectangleSizeShrink
 3039              	.LVL369:
 837:lib/widget.c  ****         SetButtonStyleColor(btn,BUTTON_STYLE_WHITE);
 3040              		.loc 1 837 0
 3041 03aa 0521     		movs	r1, #5
 3042 03ac 2800     		movs	r0, r5
 3043 03ae FFF7FEFF 		bl	SetButtonStyleColor
 3044              	.LVL370:
 838:lib/widget.c  ****         SetButtonText(btn,"%d", menu->inc[2]);
 3045              		.loc 1 838 0
 3046 03b2 8123     		movs	r3, #129
 3047 03b4 9B00     		lsls	r3, r3, #2
 3048 03b6 E25A     		ldrh	r2, [r4, r3]
 3049 03b8 0949     		ldr	r1, .L148+4
 3050 03ba 2800     		movs	r0, r5
 3051 03bc FFF7FEFF 		bl	SetButtonText
 3052              	.LVL371:
 839:lib/widget.c  ****         btn->outlineColor = DARKGREY;
 3053              		.loc 1 839 0
 3054 03c0 C134     		adds	r4, r4, #193
ARM GAS  C:\Users\luvsd\AppData\Local\Temp\ccS26oY7.s 			page 72


 3055              	.LVL372:
 3056 03c2 FF34     		adds	r4, r4, #255
 3057 03c4 074B     		ldr	r3, .L148+8
 3058 03c6 A386     		strh	r3, [r4, #52]
 3059 03c8 03E0     		b	.L124
 3060              	.LVL373:
 3061              	.L142:
 840:lib/widget.c  ****     }
 841:lib/widget.c  ****     else
 842:lib/widget.c  ****     {    
 843:lib/widget.c  ****         btn->ghost = TRUE;
 3062              		.loc 1 843 0
 3063 03ca FE34     		adds	r4, r4, #254
 3064              	.LVL374:
 3065 03cc FF34     		adds	r4, r4, #255
 3066 03ce 0123     		movs	r3, #1
 3067 03d0 2370     		strb	r3, [r4]
 3068              	.L124:
 844:lib/widget.c  ****     }        
 845:lib/widget.c  ****     //DrawButton(btn);
 846:lib/widget.c  **** }
 3069              		.loc 1 846 0
 3070 03d2 08B0     		add	sp, sp, #32
 3071              		@ sp needed
 3072              	.LVL375:
 3073              	.LVL376:
 3074 03d4 70BC     		pop	{r4, r5, r6}
 3075 03d6 08BC     		pop	{r3}
 3076 03d8 02B0     		add	sp, sp, #8
 3077 03da 1847     		bx	r3
 3078              	.L149:
 3079              		.align	2
 3080              	.L148:
 3081 03dc 00000000 		.word	g_DEFAULT_BUTTON_HEIGHT
 3082 03e0 28000000 		.word	.LC37
 3083 03e4 EF7B0000 		.word	31727
 3084              		.cfi_endproc
 3085              	.LFE77:
 3086              		.size	SetDrawUpDownOneMenu, .-SetDrawUpDownOneMenu
 3087              		.section	.text.SetDrawYesNoButtons,"ax",%progbits
 3088              		.align	2
 3089              		.global	SetDrawYesNoButtons
 3090              		.code	16
 3091              		.thumb_func
 3092              		.type	SetDrawYesNoButtons, %function
 3093              	SetDrawYesNoButtons:
 3094              	.LFB78:
 847:lib/widget.c  **** 
 848:lib/widget.c  **** 
 849:lib/widget.c  **** void SetDrawYesNoButtons(YES_NO_MENU *menu, const char *message, ...)
 850:lib/widget.c  **** {
 3095              		.loc 1 850 0
 3096              		.cfi_startproc
 3097              		@ args = 4, pretend = 12, frame = 88
 3098              		@ frame_needed = 0, uses_anonymous_args = 1
 3099              	.LVL377:
 3100 0000 0EB4     		push	{r1, r2, r3}
ARM GAS  C:\Users\luvsd\AppData\Local\Temp\ccS26oY7.s 			page 73


 3101              		.cfi_def_cfa_offset 12
 3102 0002 30B5     		push	{r4, r5, lr}
 3103              		.cfi_def_cfa_offset 24
 3104              		.cfi_offset 4, -24
 3105              		.cfi_offset 5, -20
 3106              		.cfi_offset 14, -16
 3107 0004 98B0     		sub	sp, sp, #96
 3108              		.cfi_def_cfa_offset 120
 3109 0006 0500     		movs	r5, r0
 3110 0008 1BAA     		add	r2, sp, #108
 3111 000a 10CA     		ldmia	r2!, {r4}
 851:lib/widget.c  ****     va_list ap;
 852:lib/widget.c  ****     char buff[20];
 853:lib/widget.c  ****     va_start(ap, message);
 3112              		.loc 1 853 0
 3113 000c 1792     		str	r2, [sp, #92]
 854:lib/widget.c  ****     vsprintf(buff, message, ap);
 3114              		.loc 1 854 0
 3115 000e 2100     		movs	r1, r4
 3116 0010 12A8     		add	r0, sp, #72
 3117              	.LVL378:
 3118 0012 FFF7FEFF 		bl	vsprintf
 3119              	.LVL379:
 855:lib/widget.c  ****     va_end(ap);
 856:lib/widget.c  ****     
 857:lib/widget.c  ****     uint16 ypos = DrawTitleButton(menu->title,FALSE);      
 3120              		.loc 1 857 0
 3121 0016 0021     		movs	r1, #0
 3122 0018 2800     		movs	r0, r5
 3123 001a FFF7FEFF 		bl	DrawTitleButton
 3124              	.LVL380:
 858:lib/widget.c  ****     EraseBlankArea(ypos, FALSE);
 3125              		.loc 1 858 0
 3126 001e 0021     		movs	r1, #0
 3127 0020 FFF7FEFF 		bl	EraseBlankArea
 3128              	.LVL381:
 859:lib/widget.c  ****     
 860:lib/widget.c  ****     BUTTON button;
 861:lib/widget.c  ****     SetButtonSize(&button,0,g_DEFAULT_BUTTON_HEIGHT, BUTTON_X_FULL, BUTTON_Y_3_4,FALSE);
 3129              		.loc 1 861 0
 3130 0024 0D4B     		ldr	r3, .L151
 3131 0026 1A88     		ldrh	r2, [r3]
 3132 0028 0023     		movs	r3, #0
 3133 002a 0193     		str	r3, [sp, #4]
 3134 002c 1233     		adds	r3, r3, #18
 3135 002e 0093     		str	r3, [sp]
 3136 0030 113B     		subs	r3, r3, #17
 3137 0032 0021     		movs	r1, #0
 3138 0034 02A8     		add	r0, sp, #8
 3139 0036 FFF7FEFF 		bl	SetButtonSize
 3140              	.LVL382:
 862:lib/widget.c  ****     SetButtonStyleColor(&button,BUTTON_STYLE_TEXT);
 3141              		.loc 1 862 0
 3142 003a 0421     		movs	r1, #4
 3143 003c 02A8     		add	r0, sp, #8
 3144 003e FFF7FEFF 		bl	SetButtonStyleColor
 3145              	.LVL383:
ARM GAS  C:\Users\luvsd\AppData\Local\Temp\ccS26oY7.s 			page 74


 863:lib/widget.c  ****     SetButtonText(&button,message);
 3146              		.loc 1 863 0
 3147 0042 2100     		movs	r1, r4
 3148 0044 02A8     		add	r0, sp, #8
 3149 0046 FFF7FEFF 		bl	SetButtonText
 3150              	.LVL384:
 864:lib/widget.c  ****     
 865:lib/widget.c  ****     DrawButton(&button);
 3151              		.loc 1 865 0
 3152 004a 02A8     		add	r0, sp, #8
 3153 004c FFF7FEFF 		bl	DrawButton
 3154              	.LVL385:
 866:lib/widget.c  **** }
 3155              		.loc 1 866 0
 3156 0050 18B0     		add	sp, sp, #96
 3157              		@ sp needed
 3158              	.LVL386:
 3159 0052 30BC     		pop	{r4, r5}
 3160 0054 08BC     		pop	{r3}
 3161 0056 03B0     		add	sp, sp, #12
 3162 0058 1847     		bx	r3
 3163              	.L152:
 3164 005a C046     		.align	2
 3165              	.L151:
 3166 005c 00000000 		.word	g_DEFAULT_BUTTON_HEIGHT
 3167              		.cfi_endproc
 3168              	.LFE78:
 3169              		.size	SetDrawYesNoButtons, .-SetDrawYesNoButtons
 3170              		.section	.text.ShowMessage,"ax",%progbits
 3171              		.align	2
 3172              		.global	ShowMessage
 3173              		.code	16
 3174              		.thumb_func
 3175              		.type	ShowMessage, %function
 3176              	ShowMessage:
 3177              	.LFB79:
 867:lib/widget.c  **** 
 868:lib/widget.c  **** void ShowMessage(const char *msg, ...)
 869:lib/widget.c  **** {
 3178              		.loc 1 869 0
 3179              		.cfi_startproc
 3180              		@ args = 4, pretend = 16, frame = 136
 3181              		@ frame_needed = 0, uses_anonymous_args = 1
 3182              	.LVL387:
 3183 0000 0FB4     		push	{r0, r1, r2, r3}
 3184              		.cfi_def_cfa_offset 16
 3185 0002 30B5     		push	{r4, r5, lr}
 3186              		.cfi_def_cfa_offset 28
 3187              		.cfi_offset 4, -28
 3188              		.cfi_offset 5, -24
 3189              		.cfi_offset 14, -20
 3190 0004 A5B0     		sub	sp, sp, #148
 3191              		.cfi_def_cfa_offset 176
 3192 0006 28AA     		add	r2, sp, #160
 3193 0008 02CA     		ldmia	r2!, {r1}
 870:lib/widget.c  ****     va_list ap;
 871:lib/widget.c  ****     char buff[64];  // 버퍼 크기 증가: 20 → 64
ARM GAS  C:\Users\luvsd\AppData\Local\Temp\ccS26oY7.s 			page 75


 872:lib/widget.c  ****     va_start(ap, msg);
 3194              		.loc 1 872 0
 3195 000a 2392     		str	r2, [sp, #140]
 873:lib/widget.c  ****     vsprintf(buff, msg, ap);
 3196              		.loc 1 873 0
 3197 000c 13A8     		add	r0, sp, #76
 3198 000e FFF7FEFF 		bl	vsprintf
 3199              	.LVL388:
 874:lib/widget.c  ****     va_end(ap);
 875:lib/widget.c  **** 
 876:lib/widget.c  ****     BUTTON btn;
 877:lib/widget.c  ****     SetDefaultButtonStyle(&btn);
 3200              		.loc 1 877 0
 3201 0012 03AC     		add	r4, sp, #12
 3202 0014 2000     		movs	r0, r4
 3203 0016 FFF7FEFF 		bl	SetDefaultButtonStyle
 3204              	.LVL389:
 878:lib/widget.c  ****     SetButtonSize(&btn,0,g_DEFAULT_BUTTON_HEIGHT*2, BUTTON_X_FULL, BUTTON_Y_2_3,FALSE);
 3205              		.loc 1 878 0
 3206 001a 144B     		ldr	r3, .L154
 3207 001c 1A88     		ldrh	r2, [r3]
 3208 001e 5200     		lsls	r2, r2, #1
 3209 0020 92B2     		uxth	r2, r2
 3210 0022 0025     		movs	r5, #0
 3211 0024 0195     		str	r5, [sp, #4]
 3212 0026 0F23     		movs	r3, #15
 3213 0028 0093     		str	r3, [sp]
 3214 002a 0E3B     		subs	r3, r3, #14
 3215 002c 0021     		movs	r1, #0
 3216 002e 2000     		movs	r0, r4
 3217 0030 FFF7FEFF 		bl	SetButtonSize
 3218              	.LVL390:
 879:lib/widget.c  ****     RectangleSizeShrink(&btn.rect,+10,-10,0,0);
 3219              		.loc 1 879 0
 3220 0034 0095     		str	r5, [sp]
 3221 0036 0023     		movs	r3, #0
 3222 0038 0A22     		movs	r2, #10
 3223 003a 5242     		rsbs	r2, r2, #0
 3224 003c 0A21     		movs	r1, #10
 3225 003e 04A8     		add	r0, sp, #16
 3226 0040 FFF7FEFF 		bl	RectangleSizeShrink
 3227              	.LVL391:
 880:lib/widget.c  ****     SetButtonStyleColor(&btn,BUTTON_STYLE_WHITE);
 3228              		.loc 1 880 0
 3229 0044 0521     		movs	r1, #5
 3230 0046 2000     		movs	r0, r4
 3231 0048 FFF7FEFF 		bl	SetButtonStyleColor
 3232              	.LVL392:
 881:lib/widget.c  ****     SetButtonText(&btn,buff);
 3233              		.loc 1 881 0
 3234 004c 13A9     		add	r1, sp, #76
 3235 004e 2000     		movs	r0, r4
 3236 0050 FFF7FEFF 		bl	SetButtonText
 3237              	.LVL393:
 882:lib/widget.c  ****     btn.outlineColor = WHITE;
 3238              		.loc 1 882 0
 3239 0054 0123     		movs	r3, #1
ARM GAS  C:\Users\luvsd\AppData\Local\Temp\ccS26oY7.s 			page 76


 3240 0056 5B42     		rsbs	r3, r3, #0
 3241 0058 A386     		strh	r3, [r4, #52]
 883:lib/widget.c  **** 
 884:lib/widget.c  ****     DrawButton(&btn);
 3242              		.loc 1 884 0
 3243 005a 2000     		movs	r0, r4
 3244 005c FFF7FEFF 		bl	DrawButton
 3245              	.LVL394:
 885:lib/widget.c  **** }
 3246              		.loc 1 885 0
 3247 0060 25B0     		add	sp, sp, #148
 3248              		@ sp needed
 3249 0062 30BC     		pop	{r4, r5}
 3250 0064 08BC     		pop	{r3}
 3251 0066 04B0     		add	sp, sp, #16
 3252 0068 1847     		bx	r3
 3253              	.L155:
 3254 006a C046     		.align	2
 3255              	.L154:
 3256 006c 00000000 		.word	g_DEFAULT_BUTTON_HEIGHT
 3257              		.cfi_endproc
 3258              	.LFE79:
 3259              		.size	ShowMessage, .-ShowMessage
 3260              		.section	.text.ShowWaitMessage,"ax",%progbits
 3261              		.align	2
 3262              		.global	ShowWaitMessage
 3263              		.code	16
 3264              		.thumb_func
 3265              		.type	ShowWaitMessage, %function
 3266              	ShowWaitMessage:
 3267              	.LFB80:
 886:lib/widget.c  **** 
 887:lib/widget.c  **** void ShowWaitMessage()
 888:lib/widget.c  **** {
 3268              		.loc 1 888 0
 3269              		.cfi_startproc
 3270              		@ args = 0, pretend = 0, frame = 0
 3271              		@ frame_needed = 0, uses_anonymous_args = 0
 3272 0000 10B5     		push	{r4, lr}
 3273              		.cfi_def_cfa_offset 8
 3274              		.cfi_offset 4, -8
 3275              		.cfi_offset 14, -4
 889:lib/widget.c  ****    ShowMessage("Waiting...");
 3276              		.loc 1 889 0
 3277 0002 0248     		ldr	r0, .L157
 3278 0004 FFF7FEFF 		bl	ShowMessage
 3279              	.LVL395:
 890:lib/widget.c  **** }
 3280              		.loc 1 890 0
 3281              		@ sp needed
 3282 0008 10BD     		pop	{r4, pc}
 3283              	.L158:
 3284 000a C046     		.align	2
 3285              	.L157:
 3286 000c 2C000000 		.word	.LC42
 3287              		.cfi_endproc
 3288              	.LFE80:
ARM GAS  C:\Users\luvsd\AppData\Local\Temp\ccS26oY7.s 			page 77


 3289              		.size	ShowWaitMessage, .-ShowWaitMessage
 3290              		.section	.text.SetTitleBarText,"ax",%progbits
 3291              		.align	2
 3292              		.global	SetTitleBarText
 3293              		.code	16
 3294              		.thumb_func
 3295              		.type	SetTitleBarText, %function
 3296              	SetTitleBarText:
 3297              	.LFB81:
 891:lib/widget.c  **** 
 892:lib/widget.c  **** void SetTitleBarText(char *str)
 893:lib/widget.c  **** {
 3298              		.loc 1 893 0
 3299              		.cfi_startproc
 3300              		@ args = 0, pretend = 0, frame = 0
 3301              		@ frame_needed = 0, uses_anonymous_args = 0
 3302              	.LVL396:
 3303 0000 10B5     		push	{r4, lr}
 3304              		.cfi_def_cfa_offset 8
 3305              		.cfi_offset 4, -8
 3306              		.cfi_offset 14, -4
 3307 0002 0100     		movs	r1, r0
 894:lib/widget.c  ****     SetButtonText(&g_TitleBar,str);
 3308              		.loc 1 894 0
 3309 0004 0148     		ldr	r0, .L160
 3310              	.LVL397:
 3311 0006 FFF7FEFF 		bl	SetButtonText
 3312              	.LVL398:
 895:lib/widget.c  **** }
 3313              		.loc 1 895 0
 3314              		@ sp needed
 3315 000a 10BD     		pop	{r4, pc}
 3316              	.L161:
 3317              		.align	2
 3318              	.L160:
 3319 000c 00000000 		.word	g_TitleBar
 3320              		.cfi_endproc
 3321              	.LFE81:
 3322              		.size	SetTitleBarText, .-SetTitleBarText
 3323              		.section	.text.DrawTitle,"ax",%progbits
 3324              		.align	2
 3325              		.global	DrawTitle
 3326              		.code	16
 3327              		.thumb_func
 3328              		.type	DrawTitle, %function
 3329              	DrawTitle:
 3330              	.LFB82:
 896:lib/widget.c  **** 
 897:lib/widget.c  **** void DrawTitle()
 898:lib/widget.c  **** {
 3331              		.loc 1 898 0
 3332              		.cfi_startproc
 3333              		@ args = 0, pretend = 0, frame = 0
 3334              		@ frame_needed = 0, uses_anonymous_args = 0
 3335 0000 10B5     		push	{r4, lr}
 3336              		.cfi_def_cfa_offset 8
 3337              		.cfi_offset 4, -8
ARM GAS  C:\Users\luvsd\AppData\Local\Temp\ccS26oY7.s 			page 78


 3338              		.cfi_offset 14, -4
 899:lib/widget.c  ****     DrawButton(&g_TitleBar);    
 3339              		.loc 1 899 0
 3340 0002 0248     		ldr	r0, .L163
 3341 0004 FFF7FEFF 		bl	DrawButton
 3342              	.LVL399:
 900:lib/widget.c  **** }
 3343              		.loc 1 900 0
 3344              		@ sp needed
 3345 0008 10BD     		pop	{r4, pc}
 3346              	.L164:
 3347 000a C046     		.align	2
 3348              	.L163:
 3349 000c 00000000 		.word	g_TitleBar
 3350              		.cfi_endproc
 3351              	.LFE82:
 3352              		.size	DrawTitle, .-DrawTitle
 3353              		.section	.text.DrawHeader,"ax",%progbits
 3354              		.align	2
 3355              		.global	DrawHeader
 3356              		.code	16
 3357              		.thumb_func
 3358              		.type	DrawHeader, %function
 3359              	DrawHeader:
 3360              	.LFB83:
 901:lib/widget.c  **** 
 902:lib/widget.c  **** void DrawHeader()
 903:lib/widget.c  **** {
 3361              		.loc 1 903 0
 3362              		.cfi_startproc
 3363              		@ args = 0, pretend = 0, frame = 0
 3364              		@ frame_needed = 0, uses_anonymous_args = 0
 3365 0000 10B5     		push	{r4, lr}
 3366              		.cfi_def_cfa_offset 8
 3367              		.cfi_offset 4, -8
 3368              		.cfi_offset 14, -4
 904:lib/widget.c  ****     // DrawWifi();  // WiFi 기능 비활성화
 905:lib/widget.c  **** 
 906:lib/widget.c  ****     DrawTitle();
 3369              		.loc 1 906 0
 3370 0002 FFF7FEFF 		bl	DrawTitle
 3371              	.LVL400:
 907:lib/widget.c  **** 
 908:lib/widget.c  ****     // split line
 909:lib/widget.c  ****     DrawHorizontalLine(0,g_SCREEN_WIDTH-1,DEFAULT_TOP_TITLE_HEIGHT-1,WHITE);
 3372              		.loc 1 909 0
 3373 0006 054B     		ldr	r3, .L166
 3374 0008 1988     		ldrh	r1, [r3]
 3375 000a 0139     		subs	r1, r1, #1
 3376 000c 89B2     		uxth	r1, r1
 3377 000e 044B     		ldr	r3, .L166+4
 3378 0010 2722     		movs	r2, #39
 3379 0012 0020     		movs	r0, #0
 3380 0014 FFF7FEFF 		bl	DrawHorizontalLine
 3381              	.LVL401:
 910:lib/widget.c  **** }
 3382              		.loc 1 910 0
ARM GAS  C:\Users\luvsd\AppData\Local\Temp\ccS26oY7.s 			page 79


 3383              		@ sp needed
 3384 0018 10BD     		pop	{r4, pc}
 3385              	.L167:
 3386 001a C046     		.align	2
 3387              	.L166:
 3388 001c 00000000 		.word	g_SCREEN_WIDTH
 3389 0020 FFFF0000 		.word	65535
 3390              		.cfi_endproc
 3391              	.LFE83:
 3392              		.size	DrawHeader, .-DrawHeader
 3393              		.comm	g_DownArrowImage,8,4
 3394              		.comm	g_ListMenu,876,4
 3395              		.comm	g_TitleBar,64,4
 3396              		.global	g_imageDownArrow
 3397              		.global	g_imageUpArrow
 3398              		.comm	g_btnBottom,128,4
 3399              		.comm	Param,6,4
 3400              		.data
 3401              		.align	2
 3402              		.set	.LANCHOR0,. + 0
 3403              		.type	g_imageUpArrow, %object
 3404              		.size	g_imageUpArrow, 8
 3405              	g_imageUpArrow:
 3406 0000 10080000 		.word	image_arrow_up
 3407 0004 2000     		.short	32
 3408 0006 2000     		.short	32
 3409              		.type	g_imageDownArrow, %object
 3410              		.size	g_imageDownArrow, 8
 3411              	g_imageDownArrow:
 3412 0008 10000000 		.word	image_arrow_down
 3413 000c 2000     		.short	32
 3414 000e 2000     		.short	32
 3415              		.type	image_arrow_down, %object
 3416              		.size	image_arrow_down, 2048
 3417              	image_arrow_down:
 3418 0010 0000     		.short	0
 3419 0012 0000     		.short	0
 3420 0014 0000     		.short	0
 3421 0016 0000     		.short	0
 3422 0018 0000     		.short	0
 3423 001a 0000     		.short	0
 3424 001c 0000     		.short	0
 3425 001e 0000     		.short	0
 3426 0020 0000     		.short	0
 3427 0022 0000     		.short	0
 3428 0024 0000     		.short	0
 3429 0026 0000     		.short	0
 3430 0028 0000     		.short	0
 3431 002a 0000     		.short	0
 3432 002c A631     		.short	12710
 3433 002e 59CE     		.short	-12711
 3434 0030 59CE     		.short	-12711
 3435 0032 C739     		.short	14791
 3436 0034 0000     		.short	0
 3437 0036 0000     		.short	0
 3438 0038 0000     		.short	0
 3439 003a 0000     		.short	0
ARM GAS  C:\Users\luvsd\AppData\Local\Temp\ccS26oY7.s 			page 80


 3440 003c 0000     		.short	0
 3441 003e 0000     		.short	0
 3442 0040 0000     		.short	0
 3443 0042 0000     		.short	0
 3444 0044 0000     		.short	0
 3445 0046 0000     		.short	0
 3446 0048 0000     		.short	0
 3447 004a 0000     		.short	0
 3448 004c 0000     		.short	0
 3449 004e 0000     		.short	0
 3450 0050 0000     		.short	0
 3451 0052 0000     		.short	0
 3452 0054 0000     		.short	0
 3453 0056 0000     		.short	0
 3454 0058 0000     		.short	0
 3455 005a 0000     		.short	0
 3456 005c 0000     		.short	0
 3457 005e 0000     		.short	0
 3458 0060 0000     		.short	0
 3459 0062 0000     		.short	0
 3460 0064 0000     		.short	0
 3461 0066 0000     		.short	0
 3462 0068 0000     		.short	0
 3463 006a 0000     		.short	0
 3464 006c D7BD     		.short	-16937
 3465 006e FFFF     		.short	-1
 3466 0070 FFFF     		.short	-1
 3467 0072 18C6     		.short	-14824
 3468 0074 0000     		.short	0
 3469 0076 0000     		.short	0
 3470 0078 0000     		.short	0
 3471 007a 0000     		.short	0
 3472 007c 0000     		.short	0
 3473 007e 0000     		.short	0
 3474 0080 0000     		.short	0
 3475 0082 0000     		.short	0
 3476 0084 0000     		.short	0
 3477 0086 0000     		.short	0
 3478 0088 0000     		.short	0
 3479 008a 0000     		.short	0
 3480 008c 0000     		.short	0
 3481 008e 0000     		.short	0
 3482 0090 0000     		.short	0
 3483 0092 0000     		.short	0
 3484 0094 0000     		.short	0
 3485 0096 0000     		.short	0
 3486 0098 0000     		.short	0
 3487 009a 0000     		.short	0
 3488 009c 0000     		.short	0
 3489 009e 0000     		.short	0
 3490 00a0 0000     		.short	0
 3491 00a2 0000     		.short	0
 3492 00a4 0000     		.short	0
 3493 00a6 0000     		.short	0
 3494 00a8 0000     		.short	0
 3495 00aa 0000     		.short	0
 3496 00ac 5DEF     		.short	-4259
ARM GAS  C:\Users\luvsd\AppData\Local\Temp\ccS26oY7.s 			page 81


 3497 00ae FFFF     		.short	-1
 3498 00b0 FFFF     		.short	-1
 3499 00b2 9EF7     		.short	-2146
 3500 00b4 0000     		.short	0
 3501 00b6 0000     		.short	0
 3502 00b8 0000     		.short	0
 3503 00ba 0000     		.short	0
 3504 00bc 0000     		.short	0
 3505 00be 0000     		.short	0
 3506 00c0 0000     		.short	0
 3507 00c2 0000     		.short	0
 3508 00c4 0000     		.short	0
 3509 00c6 0000     		.short	0
 3510 00c8 0000     		.short	0
 3511 00ca 0000     		.short	0
 3512 00cc 0000     		.short	0
 3513 00ce 0000     		.short	0
 3514 00d0 0000     		.short	0
 3515 00d2 0000     		.short	0
 3516 00d4 0000     		.short	0
 3517 00d6 0000     		.short	0
 3518 00d8 0000     		.short	0
 3519 00da 0000     		.short	0
 3520 00dc 0000     		.short	0
 3521 00de 0000     		.short	0
 3522 00e0 0000     		.short	0
 3523 00e2 0000     		.short	0
 3524 00e4 0000     		.short	0
 3525 00e6 0000     		.short	0
 3526 00e8 0000     		.short	0
 3527 00ea 0000     		.short	0
 3528 00ec 5DEF     		.short	-4259
 3529 00ee FFFF     		.short	-1
 3530 00f0 FFFF     		.short	-1
 3531 00f2 9EF7     		.short	-2146
 3532 00f4 0000     		.short	0
 3533 00f6 0000     		.short	0
 3534 00f8 0000     		.short	0
 3535 00fa 0000     		.short	0
 3536 00fc 0000     		.short	0
 3537 00fe 0000     		.short	0
 3538 0100 0000     		.short	0
 3539 0102 0000     		.short	0
 3540 0104 0000     		.short	0
 3541 0106 0000     		.short	0
 3542 0108 0000     		.short	0
 3543 010a 0000     		.short	0
 3544 010c 0000     		.short	0
 3545 010e 0000     		.short	0
 3546 0110 0000     		.short	0
 3547 0112 0000     		.short	0
 3548 0114 0000     		.short	0
 3549 0116 0000     		.short	0
 3550 0118 0000     		.short	0
 3551 011a 0000     		.short	0
 3552 011c 0000     		.short	0
 3553 011e 0000     		.short	0
ARM GAS  C:\Users\luvsd\AppData\Local\Temp\ccS26oY7.s 			page 82


 3554 0120 0000     		.short	0
 3555 0122 0000     		.short	0
 3556 0124 0000     		.short	0
 3557 0126 0000     		.short	0
 3558 0128 0000     		.short	0
 3559 012a 0000     		.short	0
 3560 012c 5DEF     		.short	-4259
 3561 012e FFFF     		.short	-1
 3562 0130 FFFF     		.short	-1
 3563 0132 9EF7     		.short	-2146
 3564 0134 0000     		.short	0
 3565 0136 0000     		.short	0
 3566 0138 0000     		.short	0
 3567 013a 0000     		.short	0
 3568 013c 0000     		.short	0
 3569 013e 0000     		.short	0
 3570 0140 0000     		.short	0
 3571 0142 0000     		.short	0
 3572 0144 0000     		.short	0
 3573 0146 0000     		.short	0
 3574 0148 0000     		.short	0
 3575 014a 0000     		.short	0
 3576 014c 0000     		.short	0
 3577 014e 0000     		.short	0
 3578 0150 0000     		.short	0
 3579 0152 0000     		.short	0
 3580 0154 0000     		.short	0
 3581 0156 0000     		.short	0
 3582 0158 0000     		.short	0
 3583 015a 0000     		.short	0
 3584 015c 0000     		.short	0
 3585 015e 0000     		.short	0
 3586 0160 0000     		.short	0
 3587 0162 0000     		.short	0
 3588 0164 0000     		.short	0
 3589 0166 0000     		.short	0
 3590 0168 0000     		.short	0
 3591 016a 0000     		.short	0
 3592 016c 5DEF     		.short	-4259
 3593 016e FFFF     		.short	-1
 3594 0170 FFFF     		.short	-1
 3595 0172 9EF7     		.short	-2146
 3596 0174 0000     		.short	0
 3597 0176 0000     		.short	0
 3598 0178 0000     		.short	0
 3599 017a 0000     		.short	0
 3600 017c 0000     		.short	0
 3601 017e 0000     		.short	0
 3602 0180 0000     		.short	0
 3603 0182 0000     		.short	0
 3604 0184 0000     		.short	0
 3605 0186 0000     		.short	0
 3606 0188 0000     		.short	0
 3607 018a 0000     		.short	0
 3608 018c 0000     		.short	0
 3609 018e 0000     		.short	0
 3610 0190 0000     		.short	0
ARM GAS  C:\Users\luvsd\AppData\Local\Temp\ccS26oY7.s 			page 83


 3611 0192 0000     		.short	0
 3612 0194 0000     		.short	0
 3613 0196 0000     		.short	0
 3614 0198 0000     		.short	0
 3615 019a 0000     		.short	0
 3616 019c 0000     		.short	0
 3617 019e 0000     		.short	0
 3618 01a0 0000     		.short	0
 3619 01a2 0000     		.short	0
 3620 01a4 0000     		.short	0
 3621 01a6 0000     		.short	0
 3622 01a8 0000     		.short	0
 3623 01aa 0000     		.short	0
 3624 01ac 5DEF     		.short	-4259
 3625 01ae FFFF     		.short	-1
 3626 01b0 FFFF     		.short	-1
 3627 01b2 9EF7     		.short	-2146
 3628 01b4 0000     		.short	0
 3629 01b6 0000     		.short	0
 3630 01b8 0000     		.short	0
 3631 01ba 0000     		.short	0
 3632 01bc 0000     		.short	0
 3633 01be 0000     		.short	0
 3634 01c0 0000     		.short	0
 3635 01c2 0000     		.short	0
 3636 01c4 0000     		.short	0
 3637 01c6 0000     		.short	0
 3638 01c8 0000     		.short	0
 3639 01ca 0000     		.short	0
 3640 01cc 0000     		.short	0
 3641 01ce 0000     		.short	0
 3642 01d0 0000     		.short	0
 3643 01d2 0000     		.short	0
 3644 01d4 0000     		.short	0
 3645 01d6 0000     		.short	0
 3646 01d8 0000     		.short	0
 3647 01da 0000     		.short	0
 3648 01dc 0000     		.short	0
 3649 01de 0000     		.short	0
 3650 01e0 0000     		.short	0
 3651 01e2 0000     		.short	0
 3652 01e4 0000     		.short	0
 3653 01e6 0000     		.short	0
 3654 01e8 0000     		.short	0
 3655 01ea 0000     		.short	0
 3656 01ec 5DEF     		.short	-4259
 3657 01ee FFFF     		.short	-1
 3658 01f0 FFFF     		.short	-1
 3659 01f2 9EF7     		.short	-2146
 3660 01f4 0000     		.short	0
 3661 01f6 0000     		.short	0
 3662 01f8 0000     		.short	0
 3663 01fa 0000     		.short	0
 3664 01fc 0000     		.short	0
 3665 01fe 0000     		.short	0
 3666 0200 0000     		.short	0
 3667 0202 0000     		.short	0
ARM GAS  C:\Users\luvsd\AppData\Local\Temp\ccS26oY7.s 			page 84


 3668 0204 0000     		.short	0
 3669 0206 0000     		.short	0
 3670 0208 0000     		.short	0
 3671 020a 0000     		.short	0
 3672 020c 0000     		.short	0
 3673 020e 0000     		.short	0
 3674 0210 0000     		.short	0
 3675 0212 0000     		.short	0
 3676 0214 0000     		.short	0
 3677 0216 0000     		.short	0
 3678 0218 0000     		.short	0
 3679 021a 0000     		.short	0
 3680 021c 0000     		.short	0
 3681 021e 0000     		.short	0
 3682 0220 0000     		.short	0
 3683 0222 0000     		.short	0
 3684 0224 0000     		.short	0
 3685 0226 0000     		.short	0
 3686 0228 0000     		.short	0
 3687 022a 0000     		.short	0
 3688 022c 5DEF     		.short	-4259
 3689 022e FFFF     		.short	-1
 3690 0230 FFFF     		.short	-1
 3691 0232 9EF7     		.short	-2146
 3692 0234 0000     		.short	0
 3693 0236 0000     		.short	0
 3694 0238 0000     		.short	0
 3695 023a 0000     		.short	0
 3696 023c 0000     		.short	0
 3697 023e 0000     		.short	0
 3698 0240 0000     		.short	0
 3699 0242 0000     		.short	0
 3700 0244 0000     		.short	0
 3701 0246 0000     		.short	0
 3702 0248 0000     		.short	0
 3703 024a 0000     		.short	0
 3704 024c 0000     		.short	0
 3705 024e 0000     		.short	0
 3706 0250 0000     		.short	0
 3707 0252 0000     		.short	0
 3708 0254 0000     		.short	0
 3709 0256 0000     		.short	0
 3710 0258 0000     		.short	0
 3711 025a 0000     		.short	0
 3712 025c 0000     		.short	0
 3713 025e 0000     		.short	0
 3714 0260 0000     		.short	0
 3715 0262 0000     		.short	0
 3716 0264 0000     		.short	0
 3717 0266 0000     		.short	0
 3718 0268 0000     		.short	0
 3719 026a 0000     		.short	0
 3720 026c 5DEF     		.short	-4259
 3721 026e FFFF     		.short	-1
 3722 0270 FFFF     		.short	-1
 3723 0272 9EF7     		.short	-2146
 3724 0274 0000     		.short	0
ARM GAS  C:\Users\luvsd\AppData\Local\Temp\ccS26oY7.s 			page 85


 3725 0276 0000     		.short	0
 3726 0278 0000     		.short	0
 3727 027a 0000     		.short	0
 3728 027c 0000     		.short	0
 3729 027e 0000     		.short	0
 3730 0280 0000     		.short	0
 3731 0282 0000     		.short	0
 3732 0284 0000     		.short	0
 3733 0286 0000     		.short	0
 3734 0288 0000     		.short	0
 3735 028a 0000     		.short	0
 3736 028c 0000     		.short	0
 3737 028e 0000     		.short	0
 3738 0290 0000     		.short	0
 3739 0292 0000     		.short	0
 3740 0294 0000     		.short	0
 3741 0296 0000     		.short	0
 3742 0298 0000     		.short	0
 3743 029a 0000     		.short	0
 3744 029c 0000     		.short	0
 3745 029e 0000     		.short	0
 3746 02a0 0000     		.short	0
 3747 02a2 0000     		.short	0
 3748 02a4 0000     		.short	0
 3749 02a6 0000     		.short	0
 3750 02a8 0000     		.short	0
 3751 02aa 0000     		.short	0
 3752 02ac 5DEF     		.short	-4259
 3753 02ae FFFF     		.short	-1
 3754 02b0 FFFF     		.short	-1
 3755 02b2 9EF7     		.short	-2146
 3756 02b4 0000     		.short	0
 3757 02b6 0000     		.short	0
 3758 02b8 0000     		.short	0
 3759 02ba 0000     		.short	0
 3760 02bc 0000     		.short	0
 3761 02be 0000     		.short	0
 3762 02c0 0000     		.short	0
 3763 02c2 0000     		.short	0
 3764 02c4 0000     		.short	0
 3765 02c6 0000     		.short	0
 3766 02c8 0000     		.short	0
 3767 02ca 0000     		.short	0
 3768 02cc 0000     		.short	0
 3769 02ce 0000     		.short	0
 3770 02d0 0000     		.short	0
 3771 02d2 0000     		.short	0
 3772 02d4 0000     		.short	0
 3773 02d6 0000     		.short	0
 3774 02d8 0000     		.short	0
 3775 02da 0000     		.short	0
 3776 02dc 0000     		.short	0
 3777 02de 0000     		.short	0
 3778 02e0 0000     		.short	0
 3779 02e2 0000     		.short	0
 3780 02e4 0000     		.short	0
 3781 02e6 0000     		.short	0
ARM GAS  C:\Users\luvsd\AppData\Local\Temp\ccS26oY7.s 			page 86


 3782 02e8 0000     		.short	0
 3783 02ea 0000     		.short	0
 3784 02ec 5DEF     		.short	-4259
 3785 02ee FFFF     		.short	-1
 3786 02f0 FFFF     		.short	-1
 3787 02f2 9EF7     		.short	-2146
 3788 02f4 0000     		.short	0
 3789 02f6 0000     		.short	0
 3790 02f8 0000     		.short	0
 3791 02fa 0000     		.short	0
 3792 02fc 0000     		.short	0
 3793 02fe 0000     		.short	0
 3794 0300 0000     		.short	0
 3795 0302 0000     		.short	0
 3796 0304 0000     		.short	0
 3797 0306 0000     		.short	0
 3798 0308 0000     		.short	0
 3799 030a 0000     		.short	0
 3800 030c 0000     		.short	0
 3801 030e 0000     		.short	0
 3802 0310 0000     		.short	0
 3803 0312 0000     		.short	0
 3804 0314 0000     		.short	0
 3805 0316 0000     		.short	0
 3806 0318 0000     		.short	0
 3807 031a 0000     		.short	0
 3808 031c 0000     		.short	0
 3809 031e 0000     		.short	0
 3810 0320 0000     		.short	0
 3811 0322 0000     		.short	0
 3812 0324 0000     		.short	0
 3813 0326 0000     		.short	0
 3814 0328 0000     		.short	0
 3815 032a 0000     		.short	0
 3816 032c 5DEF     		.short	-4259
 3817 032e FFFF     		.short	-1
 3818 0330 FFFF     		.short	-1
 3819 0332 9EF7     		.short	-2146
 3820 0334 0000     		.short	0
 3821 0336 0000     		.short	0
 3822 0338 0000     		.short	0
 3823 033a 0000     		.short	0
 3824 033c 0000     		.short	0
 3825 033e 0000     		.short	0
 3826 0340 0000     		.short	0
 3827 0342 0000     		.short	0
 3828 0344 0000     		.short	0
 3829 0346 0000     		.short	0
 3830 0348 0000     		.short	0
 3831 034a 0000     		.short	0
 3832 034c 0000     		.short	0
 3833 034e 0000     		.short	0
 3834 0350 0000     		.short	0
 3835 0352 0000     		.short	0
 3836 0354 0000     		.short	0
 3837 0356 0000     		.short	0
 3838 0358 0000     		.short	0
ARM GAS  C:\Users\luvsd\AppData\Local\Temp\ccS26oY7.s 			page 87


 3839 035a 0000     		.short	0
 3840 035c 0000     		.short	0
 3841 035e 0000     		.short	0
 3842 0360 0000     		.short	0
 3843 0362 0000     		.short	0
 3844 0364 0000     		.short	0
 3845 0366 0000     		.short	0
 3846 0368 0000     		.short	0
 3847 036a 0000     		.short	0
 3848 036c 5DEF     		.short	-4259
 3849 036e FFFF     		.short	-1
 3850 0370 FFFF     		.short	-1
 3851 0372 9EF7     		.short	-2146
 3852 0374 0000     		.short	0
 3853 0376 0000     		.short	0
 3854 0378 0000     		.short	0
 3855 037a 0000     		.short	0
 3856 037c 0000     		.short	0
 3857 037e 0000     		.short	0
 3858 0380 0000     		.short	0
 3859 0382 0000     		.short	0
 3860 0384 0000     		.short	0
 3861 0386 0000     		.short	0
 3862 0388 0000     		.short	0
 3863 038a 0000     		.short	0
 3864 038c 0000     		.short	0
 3865 038e 0000     		.short	0
 3866 0390 0000     		.short	0
 3867 0392 0000     		.short	0
 3868 0394 0000     		.short	0
 3869 0396 0000     		.short	0
 3870 0398 0000     		.short	0
 3871 039a 0000     		.short	0
 3872 039c 0000     		.short	0
 3873 039e 0000     		.short	0
 3874 03a0 0000     		.short	0
 3875 03a2 0000     		.short	0
 3876 03a4 0000     		.short	0
 3877 03a6 0000     		.short	0
 3878 03a8 0000     		.short	0
 3879 03aa 0000     		.short	0
 3880 03ac 5DEF     		.short	-4259
 3881 03ae FFFF     		.short	-1
 3882 03b0 FFFF     		.short	-1
 3883 03b2 9EF7     		.short	-2146
 3884 03b4 0000     		.short	0
 3885 03b6 0000     		.short	0
 3886 03b8 0000     		.short	0
 3887 03ba 0000     		.short	0
 3888 03bc 0000     		.short	0
 3889 03be 0000     		.short	0
 3890 03c0 0000     		.short	0
 3891 03c2 0000     		.short	0
 3892 03c4 0000     		.short	0
 3893 03c6 0000     		.short	0
 3894 03c8 0000     		.short	0
 3895 03ca 0000     		.short	0
ARM GAS  C:\Users\luvsd\AppData\Local\Temp\ccS26oY7.s 			page 88


 3896 03cc 0000     		.short	0
 3897 03ce 0000     		.short	0
 3898 03d0 0000     		.short	0
 3899 03d2 0000     		.short	0
 3900 03d4 0000     		.short	0
 3901 03d6 0000     		.short	0
 3902 03d8 0000     		.short	0
 3903 03da 0000     		.short	0
 3904 03dc 0000     		.short	0
 3905 03de 0000     		.short	0
 3906 03e0 0000     		.short	0
 3907 03e2 0000     		.short	0
 3908 03e4 0000     		.short	0
 3909 03e6 0000     		.short	0
 3910 03e8 0000     		.short	0
 3911 03ea 0000     		.short	0
 3912 03ec 5DEF     		.short	-4259
 3913 03ee FFFF     		.short	-1
 3914 03f0 FFFF     		.short	-1
 3915 03f2 9EF7     		.short	-2146
 3916 03f4 0000     		.short	0
 3917 03f6 0000     		.short	0
 3918 03f8 0000     		.short	0
 3919 03fa 0000     		.short	0
 3920 03fc 0000     		.short	0
 3921 03fe 0000     		.short	0
 3922 0400 0000     		.short	0
 3923 0402 0000     		.short	0
 3924 0404 0000     		.short	0
 3925 0406 0000     		.short	0
 3926 0408 0000     		.short	0
 3927 040a 0000     		.short	0
 3928 040c 0000     		.short	0
 3929 040e 0000     		.short	0
 3930 0410 0000     		.short	0
 3931 0412 0000     		.short	0
 3932 0414 0000     		.short	0
 3933 0416 0000     		.short	0
 3934 0418 0000     		.short	0
 3935 041a 0000     		.short	0
 3936 041c 0000     		.short	0
 3937 041e 0000     		.short	0
 3938 0420 0000     		.short	0
 3939 0422 0000     		.short	0
 3940 0424 0000     		.short	0
 3941 0426 0000     		.short	0
 3942 0428 0000     		.short	0
 3943 042a 0000     		.short	0
 3944 042c 5DEF     		.short	-4259
 3945 042e FFFF     		.short	-1
 3946 0430 FFFF     		.short	-1
 3947 0432 9EF7     		.short	-2146
 3948 0434 0000     		.short	0
 3949 0436 0000     		.short	0
 3950 0438 0000     		.short	0
 3951 043a 0000     		.short	0
 3952 043c 0000     		.short	0
ARM GAS  C:\Users\luvsd\AppData\Local\Temp\ccS26oY7.s 			page 89


 3953 043e 0000     		.short	0
 3954 0440 0000     		.short	0
 3955 0442 0000     		.short	0
 3956 0444 0000     		.short	0
 3957 0446 0000     		.short	0
 3958 0448 0000     		.short	0
 3959 044a 0000     		.short	0
 3960 044c 0000     		.short	0
 3961 044e 0000     		.short	0
 3962 0450 0000     		.short	0
 3963 0452 0000     		.short	0
 3964 0454 0000     		.short	0
 3965 0456 CB5A     		.short	23243
 3966 0458 DBDE     		.short	-8485
 3967 045a B6B5     		.short	-19018
 3968 045c 4529     		.short	10565
 3969 045e 0000     		.short	0
 3970 0460 0000     		.short	0
 3971 0462 0000     		.short	0
 3972 0464 0000     		.short	0
 3973 0466 0000     		.short	0
 3974 0468 0000     		.short	0
 3975 046a 0000     		.short	0
 3976 046c 5DEF     		.short	-4259
 3977 046e FFFF     		.short	-1
 3978 0470 FFFF     		.short	-1
 3979 0472 9EF7     		.short	-2146
 3980 0474 0000     		.short	0
 3981 0476 0000     		.short	0
 3982 0478 0000     		.short	0
 3983 047a 0000     		.short	0
 3984 047c 0000     		.short	0
 3985 047e 0000     		.short	0
 3986 0480 0000     		.short	0
 3987 0482 4529     		.short	10565
 3988 0484 B6B5     		.short	-19018
 3989 0486 DBDE     		.short	-8485
 3990 0488 CB5A     		.short	23243
 3991 048a 0000     		.short	0
 3992 048c 0000     		.short	0
 3993 048e 0000     		.short	0
 3994 0490 0000     		.short	0
 3995 0492 0000     		.short	0
 3996 0494 2000     		.short	32
 3997 0496 5DEF     		.short	-4259
 3998 0498 FFFF     		.short	-1
 3999 049a FFFF     		.short	-1
 4000 049c 5DEF     		.short	-4259
 4001 049e 6529     		.short	10597
 4002 04a0 0000     		.short	0
 4003 04a2 0000     		.short	0
 4004 04a4 0000     		.short	0
 4005 04a6 0000     		.short	0
 4006 04a8 0000     		.short	0
 4007 04aa 0000     		.short	0
 4008 04ac 5DEF     		.short	-4259
 4009 04ae FFFF     		.short	-1
ARM GAS  C:\Users\luvsd\AppData\Local\Temp\ccS26oY7.s 			page 90


 4010 04b0 FFFF     		.short	-1
 4011 04b2 9EF7     		.short	-2146
 4012 04b4 0000     		.short	0
 4013 04b6 0000     		.short	0
 4014 04b8 0000     		.short	0
 4015 04ba 0000     		.short	0
 4016 04bc 0000     		.short	0
 4017 04be 0000     		.short	0
 4018 04c0 6529     		.short	10597
 4019 04c2 5DEF     		.short	-4259
 4020 04c4 FFFF     		.short	-1
 4021 04c6 FFFF     		.short	-1
 4022 04c8 7DEF     		.short	-4227
 4023 04ca 2000     		.short	32
 4024 04cc 0000     		.short	0
 4025 04ce 0000     		.short	0
 4026 04d0 0000     		.short	0
 4027 04d2 0000     		.short	0
 4028 04d4 0000     		.short	0
 4029 04d6 1CE7     		.short	-6372
 4030 04d8 FFFF     		.short	-1
 4031 04da FFFF     		.short	-1
 4032 04dc FFFF     		.short	-1
 4033 04de 5DEF     		.short	-4259
 4034 04e0 6529     		.short	10597
 4035 04e2 0000     		.short	0
 4036 04e4 0000     		.short	0
 4037 04e6 0000     		.short	0
 4038 04e8 0000     		.short	0
 4039 04ea 0000     		.short	0
 4040 04ec 5DEF     		.short	-4259
 4041 04ee FFFF     		.short	-1
 4042 04f0 FFFF     		.short	-1
 4043 04f2 9EF7     		.short	-2146
 4044 04f4 0000     		.short	0
 4045 04f6 0000     		.short	0
 4046 04f8 0000     		.short	0
 4047 04fa 0000     		.short	0
 4048 04fc 0000     		.short	0
 4049 04fe 6529     		.short	10597
 4050 0500 5DEF     		.short	-4259
 4051 0502 FFFF     		.short	-1
 4052 0504 FFFF     		.short	-1
 4053 0506 FFFF     		.short	-1
 4054 0508 FBDE     		.short	-8453
 4055 050a 0000     		.short	0
 4056 050c 0000     		.short	0
 4057 050e 0000     		.short	0
 4058 0510 0000     		.short	0
 4059 0512 0000     		.short	0
 4060 0514 0000     		.short	0
 4061 0516 AA52     		.short	21162
 4062 0518 FFFF     		.short	-1
 4063 051a FFFF     		.short	-1
 4064 051c FFFF     		.short	-1
 4065 051e FFFF     		.short	-1
 4066 0520 5DEF     		.short	-4259
ARM GAS  C:\Users\luvsd\AppData\Local\Temp\ccS26oY7.s 			page 91


 4067 0522 6529     		.short	10597
 4068 0524 0000     		.short	0
 4069 0526 0000     		.short	0
 4070 0528 0000     		.short	0
 4071 052a 0000     		.short	0
 4072 052c 5DEF     		.short	-4259
 4073 052e FFFF     		.short	-1
 4074 0530 FFFF     		.short	-1
 4075 0532 9EF7     		.short	-2146
 4076 0534 0000     		.short	0
 4077 0536 0000     		.short	0
 4078 0538 0000     		.short	0
 4079 053a 0000     		.short	0
 4080 053c 6529     		.short	10597
 4081 053e 5DEF     		.short	-4259
 4082 0540 FFFF     		.short	-1
 4083 0542 FFFF     		.short	-1
 4084 0544 FFFF     		.short	-1
 4085 0546 FFFF     		.short	-1
 4086 0548 AA52     		.short	21162
 4087 054a 0000     		.short	0
 4088 054c 0000     		.short	0
 4089 054e 0000     		.short	0
 4090 0550 0000     		.short	0
 4091 0552 0000     		.short	0
 4092 0554 0000     		.short	0
 4093 0556 0000     		.short	0
 4094 0558 CB5A     		.short	23243
 4095 055a FFFF     		.short	-1
 4096 055c FFFF     		.short	-1
 4097 055e FFFF     		.short	-1
 4098 0560 FFFF     		.short	-1
 4099 0562 5DEF     		.short	-4259
 4100 0564 6529     		.short	10597
 4101 0566 0000     		.short	0
 4102 0568 0000     		.short	0
 4103 056a 0000     		.short	0
 4104 056c 5DEF     		.short	-4259
 4105 056e FFFF     		.short	-1
 4106 0570 FFFF     		.short	-1
 4107 0572 9EF7     		.short	-2146
 4108 0574 0000     		.short	0
 4109 0576 0000     		.short	0
 4110 0578 0000     		.short	0
 4111 057a 6529     		.short	10597
 4112 057c 5DEF     		.short	-4259
 4113 057e FFFF     		.short	-1
 4114 0580 FFFF     		.short	-1
 4115 0582 FFFF     		.short	-1
 4116 0584 FFFF     		.short	-1
 4117 0586 CB5A     		.short	23243
 4118 0588 0000     		.short	0
 4119 058a 0000     		.short	0
 4120 058c 0000     		.short	0
 4121 058e 0000     		.short	0
 4122 0590 0000     		.short	0
 4123 0592 0000     		.short	0
ARM GAS  C:\Users\luvsd\AppData\Local\Temp\ccS26oY7.s 			page 92


 4124 0594 0000     		.short	0
 4125 0596 0000     		.short	0
 4126 0598 0000     		.short	0
 4127 059a EB5A     		.short	23275
 4128 059c FFFF     		.short	-1
 4129 059e FFFF     		.short	-1
 4130 05a0 FFFF     		.short	-1
 4131 05a2 FFFF     		.short	-1
 4132 05a4 5DEF     		.short	-4259
 4133 05a6 6529     		.short	10597
 4134 05a8 0000     		.short	0
 4135 05aa 0000     		.short	0
 4136 05ac 5DEF     		.short	-4259
 4137 05ae FFFF     		.short	-1
 4138 05b0 FFFF     		.short	-1
 4139 05b2 9EF7     		.short	-2146
 4140 05b4 0000     		.short	0
 4141 05b6 0000     		.short	0
 4142 05b8 6529     		.short	10597
 4143 05ba 5DEF     		.short	-4259
 4144 05bc FFFF     		.short	-1
 4145 05be FFFF     		.short	-1
 4146 05c0 FFFF     		.short	-1
 4147 05c2 FFFF     		.short	-1
 4148 05c4 CB5A     		.short	23243
 4149 05c6 0000     		.short	0
 4150 05c8 0000     		.short	0
 4151 05ca 0000     		.short	0
 4152 05cc 0000     		.short	0
 4153 05ce 0000     		.short	0
 4154 05d0 0000     		.short	0
 4155 05d2 0000     		.short	0
 4156 05d4 0000     		.short	0
 4157 05d6 0000     		.short	0
 4158 05d8 0000     		.short	0
 4159 05da 0000     		.short	0
 4160 05dc EB5A     		.short	23275
 4161 05de FFFF     		.short	-1
 4162 05e0 FFFF     		.short	-1
 4163 05e2 FFFF     		.short	-1
 4164 05e4 FFFF     		.short	-1
 4165 05e6 5DEF     		.short	-4259
 4166 05e8 6529     		.short	10597
 4167 05ea 0000     		.short	0
 4168 05ec 7DEF     		.short	-4227
 4169 05ee FFFF     		.short	-1
 4170 05f0 FFFF     		.short	-1
 4171 05f2 BEF7     		.short	-2114
 4172 05f4 2000     		.short	32
 4173 05f6 6529     		.short	10597
 4174 05f8 5DEF     		.short	-4259
 4175 05fa FFFF     		.short	-1
 4176 05fc FFFF     		.short	-1
 4177 05fe FFFF     		.short	-1
 4178 0600 FFFF     		.short	-1
 4179 0602 CB5A     		.short	23243
 4180 0604 0000     		.short	0
ARM GAS  C:\Users\luvsd\AppData\Local\Temp\ccS26oY7.s 			page 93


 4181 0606 0000     		.short	0
 4182 0608 0000     		.short	0
 4183 060a 0000     		.short	0
 4184 060c 0000     		.short	0
 4185 060e 0000     		.short	0
 4186 0610 0000     		.short	0
 4187 0612 0000     		.short	0
 4188 0614 0000     		.short	0
 4189 0616 0000     		.short	0
 4190 0618 0000     		.short	0
 4191 061a 0000     		.short	0
 4192 061c 0000     		.short	0
 4193 061e EB5A     		.short	23275
 4194 0620 FFFF     		.short	-1
 4195 0622 FFFF     		.short	-1
 4196 0624 FFFF     		.short	-1
 4197 0626 FFFF     		.short	-1
 4198 0628 7DEF     		.short	-4227
 4199 062a 59CE     		.short	-12711
 4200 062c FFFF     		.short	-1
 4201 062e FFFF     		.short	-1
 4202 0630 FFFF     		.short	-1
 4203 0632 FFFF     		.short	-1
 4204 0634 38C6     		.short	-14792
 4205 0636 7DEF     		.short	-4227
 4206 0638 FFFF     		.short	-1
 4207 063a FFFF     		.short	-1
 4208 063c FFFF     		.short	-1
 4209 063e FFFF     		.short	-1
 4210 0640 CB5A     		.short	23243
 4211 0642 0000     		.short	0
 4212 0644 0000     		.short	0
 4213 0646 0000     		.short	0
 4214 0648 0000     		.short	0
 4215 064a 0000     		.short	0
 4216 064c 0000     		.short	0
 4217 064e 0000     		.short	0
 4218 0650 0000     		.short	0
 4219 0652 0000     		.short	0
 4220 0654 0000     		.short	0
 4221 0656 0000     		.short	0
 4222 0658 0000     		.short	0
 4223 065a 0000     		.short	0
 4224 065c 0000     		.short	0
 4225 065e 0000     		.short	0
 4226 0660 EB5A     		.short	23275
 4227 0662 FFFF     		.short	-1
 4228 0664 FFFF     		.short	-1
 4229 0666 FFFF     		.short	-1
 4230 0668 FFFF     		.short	-1
 4231 066a FFFF     		.short	-1
 4232 066c FFFF     		.short	-1
 4233 066e FFFF     		.short	-1
 4234 0670 FFFF     		.short	-1
 4235 0672 FFFF     		.short	-1
 4236 0674 FFFF     		.short	-1
 4237 0676 FFFF     		.short	-1
ARM GAS  C:\Users\luvsd\AppData\Local\Temp\ccS26oY7.s 			page 94


 4238 0678 FFFF     		.short	-1
 4239 067a FFFF     		.short	-1
 4240 067c FFFF     		.short	-1
 4241 067e CB5A     		.short	23243
 4242 0680 0000     		.short	0
 4243 0682 0000     		.short	0
 4244 0684 0000     		.short	0
 4245 0686 0000     		.short	0
 4246 0688 0000     		.short	0
 4247 068a 0000     		.short	0
 4248 068c 0000     		.short	0
 4249 068e 0000     		.short	0
 4250 0690 0000     		.short	0
 4251 0692 0000     		.short	0
 4252 0694 0000     		.short	0
 4253 0696 0000     		.short	0
 4254 0698 0000     		.short	0
 4255 069a 0000     		.short	0
 4256 069c 0000     		.short	0
 4257 069e 0000     		.short	0
 4258 06a0 0000     		.short	0
 4259 06a2 EB5A     		.short	23275
 4260 06a4 FFFF     		.short	-1
 4261 06a6 FFFF     		.short	-1
 4262 06a8 FFFF     		.short	-1
 4263 06aa FFFF     		.short	-1
 4264 06ac FFFF     		.short	-1
 4265 06ae FFFF     		.short	-1
 4266 06b0 FFFF     		.short	-1
 4267 06b2 FFFF     		.short	-1
 4268 06b4 FFFF     		.short	-1
 4269 06b6 FFFF     		.short	-1
 4270 06b8 FFFF     		.short	-1
 4271 06ba FFFF     		.short	-1
 4272 06bc CB5A     		.short	23243
 4273 06be 0000     		.short	0
 4274 06c0 0000     		.short	0
 4275 06c2 0000     		.short	0
 4276 06c4 0000     		.short	0
 4277 06c6 0000     		.short	0
 4278 06c8 0000     		.short	0
 4279 06ca 0000     		.short	0
 4280 06cc 0000     		.short	0
 4281 06ce 0000     		.short	0
 4282 06d0 0000     		.short	0
 4283 06d2 0000     		.short	0
 4284 06d4 0000     		.short	0
 4285 06d6 0000     		.short	0
 4286 06d8 0000     		.short	0
 4287 06da 0000     		.short	0
 4288 06dc 0000     		.short	0
 4289 06de 0000     		.short	0
 4290 06e0 0000     		.short	0
 4291 06e2 0000     		.short	0
 4292 06e4 EB5A     		.short	23275
 4293 06e6 FFFF     		.short	-1
 4294 06e8 FFFF     		.short	-1
ARM GAS  C:\Users\luvsd\AppData\Local\Temp\ccS26oY7.s 			page 95


 4295 06ea FFFF     		.short	-1
 4296 06ec FFFF     		.short	-1
 4297 06ee FFFF     		.short	-1
 4298 06f0 FFFF     		.short	-1
 4299 06f2 FFFF     		.short	-1
 4300 06f4 FFFF     		.short	-1
 4301 06f6 FFFF     		.short	-1
 4302 06f8 FFFF     		.short	-1
 4303 06fa CB5A     		.short	23243
 4304 06fc 0000     		.short	0
 4305 06fe 0000     		.short	0
 4306 0700 0000     		.short	0
 4307 0702 0000     		.short	0
 4308 0704 0000     		.short	0
 4309 0706 0000     		.short	0
 4310 0708 0000     		.short	0
 4311 070a 0000     		.short	0
 4312 070c 0000     		.short	0
 4313 070e 0000     		.short	0
 4314 0710 0000     		.short	0
 4315 0712 0000     		.short	0
 4316 0714 0000     		.short	0
 4317 0716 0000     		.short	0
 4318 0718 0000     		.short	0
 4319 071a 0000     		.short	0
 4320 071c 0000     		.short	0
 4321 071e 0000     		.short	0
 4322 0720 0000     		.short	0
 4323 0722 0000     		.short	0
 4324 0724 0000     		.short	0
 4325 0726 0C63     		.short	25356
 4326 0728 FFFF     		.short	-1
 4327 072a FFFF     		.short	-1
 4328 072c FFFF     		.short	-1
 4329 072e FFFF     		.short	-1
 4330 0730 FFFF     		.short	-1
 4331 0732 FFFF     		.short	-1
 4332 0734 FFFF     		.short	-1
 4333 0736 FFFF     		.short	-1
 4334 0738 CB5A     		.short	23243
 4335 073a 0000     		.short	0
 4336 073c 0000     		.short	0
 4337 073e 0000     		.short	0
 4338 0740 0000     		.short	0
 4339 0742 0000     		.short	0
 4340 0744 0000     		.short	0
 4341 0746 0000     		.short	0
 4342 0748 0000     		.short	0
 4343 074a 0000     		.short	0
 4344 074c 0000     		.short	0
 4345 074e 0000     		.short	0
 4346 0750 0000     		.short	0
 4347 0752 0000     		.short	0
 4348 0754 0000     		.short	0
 4349 0756 0000     		.short	0
 4350 0758 0000     		.short	0
 4351 075a 0000     		.short	0
ARM GAS  C:\Users\luvsd\AppData\Local\Temp\ccS26oY7.s 			page 96


 4352 075c 0000     		.short	0
 4353 075e 0000     		.short	0
 4354 0760 0000     		.short	0
 4355 0762 0000     		.short	0
 4356 0764 0000     		.short	0
 4357 0766 0000     		.short	0
 4358 0768 0C63     		.short	25356
 4359 076a FFFF     		.short	-1
 4360 076c FFFF     		.short	-1
 4361 076e FFFF     		.short	-1
 4362 0770 FFFF     		.short	-1
 4363 0772 FFFF     		.short	-1
 4364 0774 FFFF     		.short	-1
 4365 0776 CB5A     		.short	23243
 4366 0778 0000     		.short	0
 4367 077a 0000     		.short	0
 4368 077c 0000     		.short	0
 4369 077e 0000     		.short	0
 4370 0780 0000     		.short	0
 4371 0782 0000     		.short	0
 4372 0784 0000     		.short	0
 4373 0786 0000     		.short	0
 4374 0788 0000     		.short	0
 4375 078a 0000     		.short	0
 4376 078c 0000     		.short	0
 4377 078e 0000     		.short	0
 4378 0790 0000     		.short	0
 4379 0792 0000     		.short	0
 4380 0794 0000     		.short	0
 4381 0796 0000     		.short	0
 4382 0798 0000     		.short	0
 4383 079a 0000     		.short	0
 4384 079c 0000     		.short	0
 4385 079e 0000     		.short	0
 4386 07a0 0000     		.short	0
 4387 07a2 0000     		.short	0
 4388 07a4 0000     		.short	0
 4389 07a6 0000     		.short	0
 4390 07a8 0000     		.short	0
 4391 07aa 0C63     		.short	25356
 4392 07ac FFFF     		.short	-1
 4393 07ae FFFF     		.short	-1
 4394 07b0 FFFF     		.short	-1
 4395 07b2 FFFF     		.short	-1
 4396 07b4 CB5A     		.short	23243
 4397 07b6 0000     		.short	0
 4398 07b8 0000     		.short	0
 4399 07ba 0000     		.short	0
 4400 07bc 0000     		.short	0
 4401 07be 0000     		.short	0
 4402 07c0 0000     		.short	0
 4403 07c2 0000     		.short	0
 4404 07c4 0000     		.short	0
 4405 07c6 0000     		.short	0
 4406 07c8 0000     		.short	0
 4407 07ca 0000     		.short	0
 4408 07cc 0000     		.short	0
ARM GAS  C:\Users\luvsd\AppData\Local\Temp\ccS26oY7.s 			page 97


 4409 07ce 0000     		.short	0
 4410 07d0 0000     		.short	0
 4411 07d2 0000     		.short	0
 4412 07d4 0000     		.short	0
 4413 07d6 0000     		.short	0
 4414 07d8 0000     		.short	0
 4415 07da 0000     		.short	0
 4416 07dc 0000     		.short	0
 4417 07de 0000     		.short	0
 4418 07e0 0000     		.short	0
 4419 07e2 0000     		.short	0
 4420 07e4 0000     		.short	0
 4421 07e6 0000     		.short	0
 4422 07e8 0000     		.short	0
 4423 07ea 0000     		.short	0
 4424 07ec EB5A     		.short	23275
 4425 07ee 9EF7     		.short	-2146
 4426 07f0 7DEF     		.short	-4227
 4427 07f2 AA52     		.short	21162
 4428 07f4 0000     		.short	0
 4429 07f6 0000     		.short	0
 4430 07f8 0000     		.short	0
 4431 07fa 0000     		.short	0
 4432 07fc 0000     		.short	0
 4433 07fe 0000     		.short	0
 4434 0800 0000     		.short	0
 4435 0802 0000     		.short	0
 4436 0804 0000     		.short	0
 4437 0806 0000     		.short	0
 4438 0808 0000     		.short	0
 4439 080a 0000     		.short	0
 4440 080c 0000     		.short	0
 4441 080e 0000     		.short	0
 4442              		.type	image_arrow_up, %object
 4443              		.size	image_arrow_up, 2048
 4444              	image_arrow_up:
 4445 0810 0000     		.short	0
 4446 0812 0000     		.short	0
 4447 0814 0000     		.short	0
 4448 0816 0000     		.short	0
 4449 0818 0000     		.short	0
 4450 081a 0000     		.short	0
 4451 081c 0000     		.short	0
 4452 081e 0000     		.short	0
 4453 0820 0000     		.short	0
 4454 0822 0000     		.short	0
 4455 0824 0000     		.short	0
 4456 0826 0000     		.short	0
 4457 0828 0000     		.short	0
 4458 082a 0000     		.short	0
 4459 082c EB5A     		.short	23275
 4460 082e 9EF7     		.short	-2146
 4461 0830 7DEF     		.short	-4227
 4462 0832 AA52     		.short	21162
 4463 0834 0000     		.short	0
 4464 0836 0000     		.short	0
 4465 0838 0000     		.short	0
ARM GAS  C:\Users\luvsd\AppData\Local\Temp\ccS26oY7.s 			page 98


 4466 083a 0000     		.short	0
 4467 083c 0000     		.short	0
 4468 083e 0000     		.short	0
 4469 0840 0000     		.short	0
 4470 0842 0000     		.short	0
 4471 0844 0000     		.short	0
 4472 0846 0000     		.short	0
 4473 0848 0000     		.short	0
 4474 084a 0000     		.short	0
 4475 084c 0000     		.short	0
 4476 084e 0000     		.short	0
 4477 0850 0000     		.short	0
 4478 0852 0000     		.short	0
 4479 0854 0000     		.short	0
 4480 0856 0000     		.short	0
 4481 0858 0000     		.short	0
 4482 085a 0000     		.short	0
 4483 085c 0000     		.short	0
 4484 085e 0000     		.short	0
 4485 0860 0000     		.short	0
 4486 0862 0000     		.short	0
 4487 0864 0000     		.short	0
 4488 0866 0000     		.short	0
 4489 0868 0000     		.short	0
 4490 086a 0C63     		.short	25356
 4491 086c FFFF     		.short	-1
 4492 086e FFFF     		.short	-1
 4493 0870 FFFF     		.short	-1
 4494 0872 FFFF     		.short	-1
 4495 0874 CB5A     		.short	23243
 4496 0876 0000     		.short	0
 4497 0878 0000     		.short	0
 4498 087a 0000     		.short	0
 4499 087c 0000     		.short	0
 4500 087e 0000     		.short	0
 4501 0880 0000     		.short	0
 4502 0882 0000     		.short	0
 4503 0884 0000     		.short	0
 4504 0886 0000     		.short	0
 4505 0888 0000     		.short	0
 4506 088a 0000     		.short	0
 4507 088c 0000     		.short	0
 4508 088e 0000     		.short	0
 4509 0890 0000     		.short	0
 4510 0892 0000     		.short	0
 4511 0894 0000     		.short	0
 4512 0896 0000     		.short	0
 4513 0898 0000     		.short	0
 4514 089a 0000     		.short	0
 4515 089c 0000     		.short	0
 4516 089e 0000     		.short	0
 4517 08a0 0000     		.short	0
 4518 08a2 0000     		.short	0
 4519 08a4 0000     		.short	0
 4520 08a6 0000     		.short	0
 4521 08a8 0C63     		.short	25356
 4522 08aa FFFF     		.short	-1
ARM GAS  C:\Users\luvsd\AppData\Local\Temp\ccS26oY7.s 			page 99


 4523 08ac FFFF     		.short	-1
 4524 08ae FFFF     		.short	-1
 4525 08b0 FFFF     		.short	-1
 4526 08b2 FFFF     		.short	-1
 4527 08b4 FFFF     		.short	-1
 4528 08b6 CB5A     		.short	23243
 4529 08b8 0000     		.short	0
 4530 08ba 0000     		.short	0
 4531 08bc 0000     		.short	0
 4532 08be 0000     		.short	0
 4533 08c0 0000     		.short	0
 4534 08c2 0000     		.short	0
 4535 08c4 0000     		.short	0
 4536 08c6 0000     		.short	0
 4537 08c8 0000     		.short	0
 4538 08ca 0000     		.short	0
 4539 08cc 0000     		.short	0
 4540 08ce 0000     		.short	0
 4541 08d0 0000     		.short	0
 4542 08d2 0000     		.short	0
 4543 08d4 0000     		.short	0
 4544 08d6 0000     		.short	0
 4545 08d8 0000     		.short	0
 4546 08da 0000     		.short	0
 4547 08dc 0000     		.short	0
 4548 08de 0000     		.short	0
 4549 08e0 0000     		.short	0
 4550 08e2 0000     		.short	0
 4551 08e4 0000     		.short	0
 4552 08e6 0C63     		.short	25356
 4553 08e8 FFFF     		.short	-1
 4554 08ea FFFF     		.short	-1
 4555 08ec FFFF     		.short	-1
 4556 08ee FFFF     		.short	-1
 4557 08f0 FFFF     		.short	-1
 4558 08f2 FFFF     		.short	-1
 4559 08f4 FFFF     		.short	-1
 4560 08f6 FFFF     		.short	-1
 4561 08f8 CB5A     		.short	23243
 4562 08fa 0000     		.short	0
 4563 08fc 0000     		.short	0
 4564 08fe 0000     		.short	0
 4565 0900 0000     		.short	0
 4566 0902 0000     		.short	0
 4567 0904 0000     		.short	0
 4568 0906 0000     		.short	0
 4569 0908 0000     		.short	0
 4570 090a 0000     		.short	0
 4571 090c 0000     		.short	0
 4572 090e 0000     		.short	0
 4573 0910 0000     		.short	0
 4574 0912 0000     		.short	0
 4575 0914 0000     		.short	0
 4576 0916 0000     		.short	0
 4577 0918 0000     		.short	0
 4578 091a 0000     		.short	0
 4579 091c 0000     		.short	0
ARM GAS  C:\Users\luvsd\AppData\Local\Temp\ccS26oY7.s 			page 100


 4580 091e 0000     		.short	0
 4581 0920 0000     		.short	0
 4582 0922 0000     		.short	0
 4583 0924 EB5A     		.short	23275
 4584 0926 FFFF     		.short	-1
 4585 0928 FFFF     		.short	-1
 4586 092a FFFF     		.short	-1
 4587 092c FFFF     		.short	-1
 4588 092e FFFF     		.short	-1
 4589 0930 FFFF     		.short	-1
 4590 0932 FFFF     		.short	-1
 4591 0934 FFFF     		.short	-1
 4592 0936 FFFF     		.short	-1
 4593 0938 FFFF     		.short	-1
 4594 093a CB5A     		.short	23243
 4595 093c 0000     		.short	0
 4596 093e 0000     		.short	0
 4597 0940 0000     		.short	0
 4598 0942 0000     		.short	0
 4599 0944 0000     		.short	0
 4600 0946 0000     		.short	0
 4601 0948 0000     		.short	0
 4602 094a 0000     		.short	0
 4603 094c 0000     		.short	0
 4604 094e 0000     		.short	0
 4605 0950 0000     		.short	0
 4606 0952 0000     		.short	0
 4607 0954 0000     		.short	0
 4608 0956 0000     		.short	0
 4609 0958 0000     		.short	0
 4610 095a 0000     		.short	0
 4611 095c 0000     		.short	0
 4612 095e 0000     		.short	0
 4613 0960 0000     		.short	0
 4614 0962 EB5A     		.short	23275
 4615 0964 FFFF     		.short	-1
 4616 0966 FFFF     		.short	-1
 4617 0968 FFFF     		.short	-1
 4618 096a FFFF     		.short	-1
 4619 096c FFFF     		.short	-1
 4620 096e FFFF     		.short	-1
 4621 0970 FFFF     		.short	-1
 4622 0972 FFFF     		.short	-1
 4623 0974 FFFF     		.short	-1
 4624 0976 FFFF     		.short	-1
 4625 0978 FFFF     		.short	-1
 4626 097a FFFF     		.short	-1
 4627 097c CB5A     		.short	23243
 4628 097e 0000     		.short	0
 4629 0980 0000     		.short	0
 4630 0982 0000     		.short	0
 4631 0984 0000     		.short	0
 4632 0986 0000     		.short	0
 4633 0988 0000     		.short	0
 4634 098a 0000     		.short	0
 4635 098c 0000     		.short	0
 4636 098e 0000     		.short	0
ARM GAS  C:\Users\luvsd\AppData\Local\Temp\ccS26oY7.s 			page 101


 4637 0990 0000     		.short	0
 4638 0992 0000     		.short	0
 4639 0994 0000     		.short	0
 4640 0996 0000     		.short	0
 4641 0998 0000     		.short	0
 4642 099a 0000     		.short	0
 4643 099c 0000     		.short	0
 4644 099e 0000     		.short	0
 4645 09a0 EB5A     		.short	23275
 4646 09a2 FFFF     		.short	-1
 4647 09a4 FFFF     		.short	-1
 4648 09a6 FFFF     		.short	-1
 4649 09a8 FFFF     		.short	-1
 4650 09aa FFFF     		.short	-1
 4651 09ac FFFF     		.short	-1
 4652 09ae FFFF     		.short	-1
 4653 09b0 FFFF     		.short	-1
 4654 09b2 FFFF     		.short	-1
 4655 09b4 FFFF     		.short	-1
 4656 09b6 FFFF     		.short	-1
 4657 09b8 FFFF     		.short	-1
 4658 09ba FFFF     		.short	-1
 4659 09bc FFFF     		.short	-1
 4660 09be CB5A     		.short	23243
 4661 09c0 0000     		.short	0
 4662 09c2 0000     		.short	0
 4663 09c4 0000     		.short	0
 4664 09c6 0000     		.short	0
 4665 09c8 0000     		.short	0
 4666 09ca 0000     		.short	0
 4667 09cc 0000     		.short	0
 4668 09ce 0000     		.short	0
 4669 09d0 0000     		.short	0
 4670 09d2 0000     		.short	0
 4671 09d4 0000     		.short	0
 4672 09d6 0000     		.short	0
 4673 09d8 0000     		.short	0
 4674 09da 0000     		.short	0
 4675 09dc 0000     		.short	0
 4676 09de EB5A     		.short	23275
 4677 09e0 FFFF     		.short	-1
 4678 09e2 FFFF     		.short	-1
 4679 09e4 FFFF     		.short	-1
 4680 09e6 FFFF     		.short	-1
 4681 09e8 7DEF     		.short	-4227
 4682 09ea 59CE     		.short	-12711
 4683 09ec FFFF     		.short	-1
 4684 09ee FFFF     		.short	-1
 4685 09f0 FFFF     		.short	-1
 4686 09f2 FFFF     		.short	-1
 4687 09f4 38C6     		.short	-14792
 4688 09f6 7DEF     		.short	-4227
 4689 09f8 FFFF     		.short	-1
 4690 09fa FFFF     		.short	-1
 4691 09fc FFFF     		.short	-1
 4692 09fe FFFF     		.short	-1
 4693 0a00 CB5A     		.short	23243
ARM GAS  C:\Users\luvsd\AppData\Local\Temp\ccS26oY7.s 			page 102


 4694 0a02 0000     		.short	0
 4695 0a04 0000     		.short	0
 4696 0a06 0000     		.short	0
 4697 0a08 0000     		.short	0
 4698 0a0a 0000     		.short	0
 4699 0a0c 0000     		.short	0
 4700 0a0e 0000     		.short	0
 4701 0a10 0000     		.short	0
 4702 0a12 0000     		.short	0
 4703 0a14 0000     		.short	0
 4704 0a16 0000     		.short	0
 4705 0a18 0000     		.short	0
 4706 0a1a 0000     		.short	0
 4707 0a1c EB5A     		.short	23275
 4708 0a1e FFFF     		.short	-1
 4709 0a20 FFFF     		.short	-1
 4710 0a22 FFFF     		.short	-1
 4711 0a24 FFFF     		.short	-1
 4712 0a26 5DEF     		.short	-4259
 4713 0a28 6529     		.short	10597
 4714 0a2a 0000     		.short	0
 4715 0a2c 7DEF     		.short	-4227
 4716 0a2e FFFF     		.short	-1
 4717 0a30 FFFF     		.short	-1
 4718 0a32 BEF7     		.short	-2114
 4719 0a34 2000     		.short	32
 4720 0a36 6529     		.short	10597
 4721 0a38 5DEF     		.short	-4259
 4722 0a3a FFFF     		.short	-1
 4723 0a3c FFFF     		.short	-1
 4724 0a3e FFFF     		.short	-1
 4725 0a40 FFFF     		.short	-1
 4726 0a42 CB5A     		.short	23243
 4727 0a44 0000     		.short	0
 4728 0a46 0000     		.short	0
 4729 0a48 0000     		.short	0
 4730 0a4a 0000     		.short	0
 4731 0a4c 0000     		.short	0
 4732 0a4e 0000     		.short	0
 4733 0a50 0000     		.short	0
 4734 0a52 0000     		.short	0
 4735 0a54 0000     		.short	0
 4736 0a56 0000     		.short	0
 4737 0a58 0000     		.short	0
 4738 0a5a EB5A     		.short	23275
 4739 0a5c FFFF     		.short	-1
 4740 0a5e FFFF     		.short	-1
 4741 0a60 FFFF     		.short	-1
 4742 0a62 FFFF     		.short	-1
 4743 0a64 5DEF     		.short	-4259
 4744 0a66 6529     		.short	10597
 4745 0a68 0000     		.short	0
 4746 0a6a 0000     		.short	0
 4747 0a6c 5DEF     		.short	-4259
 4748 0a6e FFFF     		.short	-1
 4749 0a70 FFFF     		.short	-1
 4750 0a72 9EF7     		.short	-2146
ARM GAS  C:\Users\luvsd\AppData\Local\Temp\ccS26oY7.s 			page 103


 4751 0a74 0000     		.short	0
 4752 0a76 0000     		.short	0
 4753 0a78 6529     		.short	10597
 4754 0a7a 5DEF     		.short	-4259
 4755 0a7c FFFF     		.short	-1
 4756 0a7e FFFF     		.short	-1
 4757 0a80 FFFF     		.short	-1
 4758 0a82 FFFF     		.short	-1
 4759 0a84 CB5A     		.short	23243
 4760 0a86 0000     		.short	0
 4761 0a88 0000     		.short	0
 4762 0a8a 0000     		.short	0
 4763 0a8c 0000     		.short	0
 4764 0a8e 0000     		.short	0
 4765 0a90 0000     		.short	0
 4766 0a92 0000     		.short	0
 4767 0a94 0000     		.short	0
 4768 0a96 0000     		.short	0
 4769 0a98 CB5A     		.short	23243
 4770 0a9a FFFF     		.short	-1
 4771 0a9c FFFF     		.short	-1
 4772 0a9e FFFF     		.short	-1
 4773 0aa0 FFFF     		.short	-1
 4774 0aa2 5DEF     		.short	-4259
 4775 0aa4 6529     		.short	10597
 4776 0aa6 0000     		.short	0
 4777 0aa8 0000     		.short	0
 4778 0aaa 0000     		.short	0
 4779 0aac 5DEF     		.short	-4259
 4780 0aae FFFF     		.short	-1
 4781 0ab0 FFFF     		.short	-1
 4782 0ab2 9EF7     		.short	-2146
 4783 0ab4 0000     		.short	0
 4784 0ab6 0000     		.short	0
 4785 0ab8 0000     		.short	0
 4786 0aba 6529     		.short	10597
 4787 0abc 5DEF     		.short	-4259
 4788 0abe FFFF     		.short	-1
 4789 0ac0 FFFF     		.short	-1
 4790 0ac2 FFFF     		.short	-1
 4791 0ac4 FFFF     		.short	-1
 4792 0ac6 CB5A     		.short	23243
 4793 0ac8 0000     		.short	0
 4794 0aca 0000     		.short	0
 4795 0acc 0000     		.short	0
 4796 0ace 0000     		.short	0
 4797 0ad0 0000     		.short	0
 4798 0ad2 0000     		.short	0
 4799 0ad4 0000     		.short	0
 4800 0ad6 AA52     		.short	21162
 4801 0ad8 FFFF     		.short	-1
 4802 0ada FFFF     		.short	-1
 4803 0adc FFFF     		.short	-1
 4804 0ade FFFF     		.short	-1
 4805 0ae0 5DEF     		.short	-4259
 4806 0ae2 6529     		.short	10597
 4807 0ae4 0000     		.short	0
ARM GAS  C:\Users\luvsd\AppData\Local\Temp\ccS26oY7.s 			page 104


 4808 0ae6 0000     		.short	0
 4809 0ae8 0000     		.short	0
 4810 0aea 0000     		.short	0
 4811 0aec 5DEF     		.short	-4259
 4812 0aee FFFF     		.short	-1
 4813 0af0 FFFF     		.short	-1
 4814 0af2 9EF7     		.short	-2146
 4815 0af4 0000     		.short	0
 4816 0af6 0000     		.short	0
 4817 0af8 0000     		.short	0
 4818 0afa 0000     		.short	0
 4819 0afc 6529     		.short	10597
 4820 0afe 5DEF     		.short	-4259
 4821 0b00 FFFF     		.short	-1
 4822 0b02 FFFF     		.short	-1
 4823 0b04 FFFF     		.short	-1
 4824 0b06 FFFF     		.short	-1
 4825 0b08 AA52     		.short	21162
 4826 0b0a 0000     		.short	0
 4827 0b0c 0000     		.short	0
 4828 0b0e 0000     		.short	0
 4829 0b10 0000     		.short	0
 4830 0b12 0000     		.short	0
 4831 0b14 0000     		.short	0
 4832 0b16 1CE7     		.short	-6372
 4833 0b18 FFFF     		.short	-1
 4834 0b1a FFFF     		.short	-1
 4835 0b1c FFFF     		.short	-1
 4836 0b1e 5DEF     		.short	-4259
 4837 0b20 6529     		.short	10597
 4838 0b22 0000     		.short	0
 4839 0b24 0000     		.short	0
 4840 0b26 0000     		.short	0
 4841 0b28 0000     		.short	0
 4842 0b2a 0000     		.short	0
 4843 0b2c 5DEF     		.short	-4259
 4844 0b2e FFFF     		.short	-1
 4845 0b30 FFFF     		.short	-1
 4846 0b32 9EF7     		.short	-2146
 4847 0b34 0000     		.short	0
 4848 0b36 0000     		.short	0
 4849 0b38 0000     		.short	0
 4850 0b3a 0000     		.short	0
 4851 0b3c 0000     		.short	0
 4852 0b3e 6529     		.short	10597
 4853 0b40 5DEF     		.short	-4259
 4854 0b42 FFFF     		.short	-1
 4855 0b44 FFFF     		.short	-1
 4856 0b46 FFFF     		.short	-1
 4857 0b48 FBDE     		.short	-8453
 4858 0b4a 0000     		.short	0
 4859 0b4c 0000     		.short	0
 4860 0b4e 0000     		.short	0
 4861 0b50 0000     		.short	0
 4862 0b52 0000     		.short	0
 4863 0b54 2000     		.short	32
 4864 0b56 5DEF     		.short	-4259
ARM GAS  C:\Users\luvsd\AppData\Local\Temp\ccS26oY7.s 			page 105


 4865 0b58 FFFF     		.short	-1
 4866 0b5a FFFF     		.short	-1
 4867 0b5c 5DEF     		.short	-4259
 4868 0b5e 6529     		.short	10597
 4869 0b60 0000     		.short	0
 4870 0b62 0000     		.short	0
 4871 0b64 0000     		.short	0
 4872 0b66 0000     		.short	0
 4873 0b68 0000     		.short	0
 4874 0b6a 0000     		.short	0
 4875 0b6c 5DEF     		.short	-4259
 4876 0b6e FFFF     		.short	-1
 4877 0b70 FFFF     		.short	-1
 4878 0b72 9EF7     		.short	-2146
 4879 0b74 0000     		.short	0
 4880 0b76 0000     		.short	0
 4881 0b78 0000     		.short	0
 4882 0b7a 0000     		.short	0
 4883 0b7c 0000     		.short	0
 4884 0b7e 0000     		.short	0
 4885 0b80 6529     		.short	10597
 4886 0b82 5DEF     		.short	-4259
 4887 0b84 FFFF     		.short	-1
 4888 0b86 FFFF     		.short	-1
 4889 0b88 7DEF     		.short	-4227
 4890 0b8a 2000     		.short	32
 4891 0b8c 0000     		.short	0
 4892 0b8e 0000     		.short	0
 4893 0b90 0000     		.short	0
 4894 0b92 0000     		.short	0
 4895 0b94 0000     		.short	0
 4896 0b96 CB5A     		.short	23243
 4897 0b98 DBDE     		.short	-8485
 4898 0b9a B6B5     		.short	-19018
 4899 0b9c 4529     		.short	10565
 4900 0b9e 0000     		.short	0
 4901 0ba0 0000     		.short	0
 4902 0ba2 0000     		.short	0
 4903 0ba4 0000     		.short	0
 4904 0ba6 0000     		.short	0
 4905 0ba8 0000     		.short	0
 4906 0baa 0000     		.short	0
 4907 0bac 5DEF     		.short	-4259
 4908 0bae FFFF     		.short	-1
 4909 0bb0 FFFF     		.short	-1
 4910 0bb2 9EF7     		.short	-2146
 4911 0bb4 0000     		.short	0
 4912 0bb6 0000     		.short	0
 4913 0bb8 0000     		.short	0
 4914 0bba 0000     		.short	0
 4915 0bbc 0000     		.short	0
 4916 0bbe 0000     		.short	0
 4917 0bc0 0000     		.short	0
 4918 0bc2 4529     		.short	10565
 4919 0bc4 B6B5     		.short	-19018
 4920 0bc6 DBDE     		.short	-8485
 4921 0bc8 CB5A     		.short	23243
ARM GAS  C:\Users\luvsd\AppData\Local\Temp\ccS26oY7.s 			page 106


 4922 0bca 0000     		.short	0
 4923 0bcc 0000     		.short	0
 4924 0bce 0000     		.short	0
 4925 0bd0 0000     		.short	0
 4926 0bd2 0000     		.short	0
 4927 0bd4 0000     		.short	0
 4928 0bd6 0000     		.short	0
 4929 0bd8 0000     		.short	0
 4930 0bda 0000     		.short	0
 4931 0bdc 0000     		.short	0
 4932 0bde 0000     		.short	0
 4933 0be0 0000     		.short	0
 4934 0be2 0000     		.short	0
 4935 0be4 0000     		.short	0
 4936 0be6 0000     		.short	0
 4937 0be8 0000     		.short	0
 4938 0bea 0000     		.short	0
 4939 0bec 5DEF     		.short	-4259
 4940 0bee FFFF     		.short	-1
 4941 0bf0 FFFF     		.short	-1
 4942 0bf2 9EF7     		.short	-2146
 4943 0bf4 0000     		.short	0
 4944 0bf6 0000     		.short	0
 4945 0bf8 0000     		.short	0
 4946 0bfa 0000     		.short	0
 4947 0bfc 0000     		.short	0
 4948 0bfe 0000     		.short	0
 4949 0c00 0000     		.short	0
 4950 0c02 0000     		.short	0
 4951 0c04 0000     		.short	0
 4952 0c06 0000     		.short	0
 4953 0c08 0000     		.short	0
 4954 0c0a 0000     		.short	0
 4955 0c0c 0000     		.short	0
 4956 0c0e 0000     		.short	0
 4957 0c10 0000     		.short	0
 4958 0c12 0000     		.short	0
 4959 0c14 0000     		.short	0
 4960 0c16 0000     		.short	0
 4961 0c18 0000     		.short	0
 4962 0c1a 0000     		.short	0
 4963 0c1c 0000     		.short	0
 4964 0c1e 0000     		.short	0
 4965 0c20 0000     		.short	0
 4966 0c22 0000     		.short	0
 4967 0c24 0000     		.short	0
 4968 0c26 0000     		.short	0
 4969 0c28 0000     		.short	0
 4970 0c2a 0000     		.short	0
 4971 0c2c 5DEF     		.short	-4259
 4972 0c2e FFFF     		.short	-1
 4973 0c30 FFFF     		.short	-1
 4974 0c32 9EF7     		.short	-2146
 4975 0c34 0000     		.short	0
 4976 0c36 0000     		.short	0
 4977 0c38 0000     		.short	0
 4978 0c3a 0000     		.short	0
ARM GAS  C:\Users\luvsd\AppData\Local\Temp\ccS26oY7.s 			page 107


 4979 0c3c 0000     		.short	0
 4980 0c3e 0000     		.short	0
 4981 0c40 0000     		.short	0
 4982 0c42 0000     		.short	0
 4983 0c44 0000     		.short	0
 4984 0c46 0000     		.short	0
 4985 0c48 0000     		.short	0
 4986 0c4a 0000     		.short	0
 4987 0c4c 0000     		.short	0
 4988 0c4e 0000     		.short	0
 4989 0c50 0000     		.short	0
 4990 0c52 0000     		.short	0
 4991 0c54 0000     		.short	0
 4992 0c56 0000     		.short	0
 4993 0c58 0000     		.short	0
 4994 0c5a 0000     		.short	0
 4995 0c5c 0000     		.short	0
 4996 0c5e 0000     		.short	0
 4997 0c60 0000     		.short	0
 4998 0c62 0000     		.short	0
 4999 0c64 0000     		.short	0
 5000 0c66 0000     		.short	0
 5001 0c68 0000     		.short	0
 5002 0c6a 0000     		.short	0
 5003 0c6c 5DEF     		.short	-4259
 5004 0c6e FFFF     		.short	-1
 5005 0c70 FFFF     		.short	-1
 5006 0c72 9EF7     		.short	-2146
 5007 0c74 0000     		.short	0
 5008 0c76 0000     		.short	0
 5009 0c78 0000     		.short	0
 5010 0c7a 0000     		.short	0
 5011 0c7c 0000     		.short	0
 5012 0c7e 0000     		.short	0
 5013 0c80 0000     		.short	0
 5014 0c82 0000     		.short	0
 5015 0c84 0000     		.short	0
 5016 0c86 0000     		.short	0
 5017 0c88 0000     		.short	0
 5018 0c8a 0000     		.short	0
 5019 0c8c 0000     		.short	0
 5020 0c8e 0000     		.short	0
 5021 0c90 0000     		.short	0
 5022 0c92 0000     		.short	0
 5023 0c94 0000     		.short	0
 5024 0c96 0000     		.short	0
 5025 0c98 0000     		.short	0
 5026 0c9a 0000     		.short	0
 5027 0c9c 0000     		.short	0
 5028 0c9e 0000     		.short	0
 5029 0ca0 0000     		.short	0
 5030 0ca2 0000     		.short	0
 5031 0ca4 0000     		.short	0
 5032 0ca6 0000     		.short	0
 5033 0ca8 0000     		.short	0
 5034 0caa 0000     		.short	0
 5035 0cac 5DEF     		.short	-4259
ARM GAS  C:\Users\luvsd\AppData\Local\Temp\ccS26oY7.s 			page 108


 5036 0cae FFFF     		.short	-1
 5037 0cb0 FFFF     		.short	-1
 5038 0cb2 9EF7     		.short	-2146
 5039 0cb4 0000     		.short	0
 5040 0cb6 0000     		.short	0
 5041 0cb8 0000     		.short	0
 5042 0cba 0000     		.short	0
 5043 0cbc 0000     		.short	0
 5044 0cbe 0000     		.short	0
 5045 0cc0 0000     		.short	0
 5046 0cc2 0000     		.short	0
 5047 0cc4 0000     		.short	0
 5048 0cc6 0000     		.short	0
 5049 0cc8 0000     		.short	0
 5050 0cca 0000     		.short	0
 5051 0ccc 0000     		.short	0
 5052 0cce 0000     		.short	0
 5053 0cd0 0000     		.short	0
 5054 0cd2 0000     		.short	0
 5055 0cd4 0000     		.short	0
 5056 0cd6 0000     		.short	0
 5057 0cd8 0000     		.short	0
 5058 0cda 0000     		.short	0
 5059 0cdc 0000     		.short	0
 5060 0cde 0000     		.short	0
 5061 0ce0 0000     		.short	0
 5062 0ce2 0000     		.short	0
 5063 0ce4 0000     		.short	0
 5064 0ce6 0000     		.short	0
 5065 0ce8 0000     		.short	0
 5066 0cea 0000     		.short	0
 5067 0cec 5DEF     		.short	-4259
 5068 0cee FFFF     		.short	-1
 5069 0cf0 FFFF     		.short	-1
 5070 0cf2 9EF7     		.short	-2146
 5071 0cf4 0000     		.short	0
 5072 0cf6 0000     		.short	0
 5073 0cf8 0000     		.short	0
 5074 0cfa 0000     		.short	0
 5075 0cfc 0000     		.short	0
 5076 0cfe 0000     		.short	0
 5077 0d00 0000     		.short	0
 5078 0d02 0000     		.short	0
 5079 0d04 0000     		.short	0
 5080 0d06 0000     		.short	0
 5081 0d08 0000     		.short	0
 5082 0d0a 0000     		.short	0
 5083 0d0c 0000     		.short	0
 5084 0d0e 0000     		.short	0
 5085 0d10 0000     		.short	0
 5086 0d12 0000     		.short	0
 5087 0d14 0000     		.short	0
 5088 0d16 0000     		.short	0
 5089 0d18 0000     		.short	0
 5090 0d1a 0000     		.short	0
 5091 0d1c 0000     		.short	0
 5092 0d1e 0000     		.short	0
ARM GAS  C:\Users\luvsd\AppData\Local\Temp\ccS26oY7.s 			page 109


 5093 0d20 0000     		.short	0
 5094 0d22 0000     		.short	0
 5095 0d24 0000     		.short	0
 5096 0d26 0000     		.short	0
 5097 0d28 0000     		.short	0
 5098 0d2a 0000     		.short	0
 5099 0d2c 5DEF     		.short	-4259
 5100 0d2e FFFF     		.short	-1
 5101 0d30 FFFF     		.short	-1
 5102 0d32 9EF7     		.short	-2146
 5103 0d34 0000     		.short	0
 5104 0d36 0000     		.short	0
 5105 0d38 0000     		.short	0
 5106 0d3a 0000     		.short	0
 5107 0d3c 0000     		.short	0
 5108 0d3e 0000     		.short	0
 5109 0d40 0000     		.short	0
 5110 0d42 0000     		.short	0
 5111 0d44 0000     		.short	0
 5112 0d46 0000     		.short	0
 5113 0d48 0000     		.short	0
 5114 0d4a 0000     		.short	0
 5115 0d4c 0000     		.short	0
 5116 0d4e 0000     		.short	0
 5117 0d50 0000     		.short	0
 5118 0d52 0000     		.short	0
 5119 0d54 0000     		.short	0
 5120 0d56 0000     		.short	0
 5121 0d58 0000     		.short	0
 5122 0d5a 0000     		.short	0
 5123 0d5c 0000     		.short	0
 5124 0d5e 0000     		.short	0
 5125 0d60 0000     		.short	0
 5126 0d62 0000     		.short	0
 5127 0d64 0000     		.short	0
 5128 0d66 0000     		.short	0
 5129 0d68 0000     		.short	0
 5130 0d6a 0000     		.short	0
 5131 0d6c 5DEF     		.short	-4259
 5132 0d6e FFFF     		.short	-1
 5133 0d70 FFFF     		.short	-1
 5134 0d72 9EF7     		.short	-2146
 5135 0d74 0000     		.short	0
 5136 0d76 0000     		.short	0
 5137 0d78 0000     		.short	0
 5138 0d7a 0000     		.short	0
 5139 0d7c 0000     		.short	0
 5140 0d7e 0000     		.short	0
 5141 0d80 0000     		.short	0
 5142 0d82 0000     		.short	0
 5143 0d84 0000     		.short	0
 5144 0d86 0000     		.short	0
 5145 0d88 0000     		.short	0
 5146 0d8a 0000     		.short	0
 5147 0d8c 0000     		.short	0
 5148 0d8e 0000     		.short	0
 5149 0d90 0000     		.short	0
ARM GAS  C:\Users\luvsd\AppData\Local\Temp\ccS26oY7.s 			page 110


 5150 0d92 0000     		.short	0
 5151 0d94 0000     		.short	0
 5152 0d96 0000     		.short	0
 5153 0d98 0000     		.short	0
 5154 0d9a 0000     		.short	0
 5155 0d9c 0000     		.short	0
 5156 0d9e 0000     		.short	0
 5157 0da0 0000     		.short	0
 5158 0da2 0000     		.short	0
 5159 0da4 0000     		.short	0
 5160 0da6 0000     		.short	0
 5161 0da8 0000     		.short	0
 5162 0daa 0000     		.short	0
 5163 0dac 5DEF     		.short	-4259
 5164 0dae FFFF     		.short	-1
 5165 0db0 FFFF     		.short	-1
 5166 0db2 9EF7     		.short	-2146
 5167 0db4 0000     		.short	0
 5168 0db6 0000     		.short	0
 5169 0db8 0000     		.short	0
 5170 0dba 0000     		.short	0
 5171 0dbc 0000     		.short	0
 5172 0dbe 0000     		.short	0
 5173 0dc0 0000     		.short	0
 5174 0dc2 0000     		.short	0
 5175 0dc4 0000     		.short	0
 5176 0dc6 0000     		.short	0
 5177 0dc8 0000     		.short	0
 5178 0dca 0000     		.short	0
 5179 0dcc 0000     		.short	0
 5180 0dce 0000     		.short	0
 5181 0dd0 0000     		.short	0
 5182 0dd2 0000     		.short	0
 5183 0dd4 0000     		.short	0
 5184 0dd6 0000     		.short	0
 5185 0dd8 0000     		.short	0
 5186 0dda 0000     		.short	0
 5187 0ddc 0000     		.short	0
 5188 0dde 0000     		.short	0
 5189 0de0 0000     		.short	0
 5190 0de2 0000     		.short	0
 5191 0de4 0000     		.short	0
 5192 0de6 0000     		.short	0
 5193 0de8 0000     		.short	0
 5194 0dea 0000     		.short	0
 5195 0dec 5DEF     		.short	-4259
 5196 0dee FFFF     		.short	-1
 5197 0df0 FFFF     		.short	-1
 5198 0df2 9EF7     		.short	-2146
 5199 0df4 0000     		.short	0
 5200 0df6 0000     		.short	0
 5201 0df8 0000     		.short	0
 5202 0dfa 0000     		.short	0
 5203 0dfc 0000     		.short	0
 5204 0dfe 0000     		.short	0
 5205 0e00 0000     		.short	0
 5206 0e02 0000     		.short	0
ARM GAS  C:\Users\luvsd\AppData\Local\Temp\ccS26oY7.s 			page 111


 5207 0e04 0000     		.short	0
 5208 0e06 0000     		.short	0
 5209 0e08 0000     		.short	0
 5210 0e0a 0000     		.short	0
 5211 0e0c 0000     		.short	0
 5212 0e0e 0000     		.short	0
 5213 0e10 0000     		.short	0
 5214 0e12 0000     		.short	0
 5215 0e14 0000     		.short	0
 5216 0e16 0000     		.short	0
 5217 0e18 0000     		.short	0
 5218 0e1a 0000     		.short	0
 5219 0e1c 0000     		.short	0
 5220 0e1e 0000     		.short	0
 5221 0e20 0000     		.short	0
 5222 0e22 0000     		.short	0
 5223 0e24 0000     		.short	0
 5224 0e26 0000     		.short	0
 5225 0e28 0000     		.short	0
 5226 0e2a 0000     		.short	0
 5227 0e2c 5DEF     		.short	-4259
 5228 0e2e FFFF     		.short	-1
 5229 0e30 FFFF     		.short	-1
 5230 0e32 9EF7     		.short	-2146
 5231 0e34 0000     		.short	0
 5232 0e36 0000     		.short	0
 5233 0e38 0000     		.short	0
 5234 0e3a 0000     		.short	0
 5235 0e3c 0000     		.short	0
 5236 0e3e 0000     		.short	0
 5237 0e40 0000     		.short	0
 5238 0e42 0000     		.short	0
 5239 0e44 0000     		.short	0
 5240 0e46 0000     		.short	0
 5241 0e48 0000     		.short	0
 5242 0e4a 0000     		.short	0
 5243 0e4c 0000     		.short	0
 5244 0e4e 0000     		.short	0
 5245 0e50 0000     		.short	0
 5246 0e52 0000     		.short	0
 5247 0e54 0000     		.short	0
 5248 0e56 0000     		.short	0
 5249 0e58 0000     		.short	0
 5250 0e5a 0000     		.short	0
 5251 0e5c 0000     		.short	0
 5252 0e5e 0000     		.short	0
 5253 0e60 0000     		.short	0
 5254 0e62 0000     		.short	0
 5255 0e64 0000     		.short	0
 5256 0e66 0000     		.short	0
 5257 0e68 0000     		.short	0
 5258 0e6a 0000     		.short	0
 5259 0e6c 5DEF     		.short	-4259
 5260 0e6e FFFF     		.short	-1
 5261 0e70 FFFF     		.short	-1
 5262 0e72 9EF7     		.short	-2146
 5263 0e74 0000     		.short	0
ARM GAS  C:\Users\luvsd\AppData\Local\Temp\ccS26oY7.s 			page 112


 5264 0e76 0000     		.short	0
 5265 0e78 0000     		.short	0
 5266 0e7a 0000     		.short	0
 5267 0e7c 0000     		.short	0
 5268 0e7e 0000     		.short	0
 5269 0e80 0000     		.short	0
 5270 0e82 0000     		.short	0
 5271 0e84 0000     		.short	0
 5272 0e86 0000     		.short	0
 5273 0e88 0000     		.short	0
 5274 0e8a 0000     		.short	0
 5275 0e8c 0000     		.short	0
 5276 0e8e 0000     		.short	0
 5277 0e90 0000     		.short	0
 5278 0e92 0000     		.short	0
 5279 0e94 0000     		.short	0
 5280 0e96 0000     		.short	0
 5281 0e98 0000     		.short	0
 5282 0e9a 0000     		.short	0
 5283 0e9c 0000     		.short	0
 5284 0e9e 0000     		.short	0
 5285 0ea0 0000     		.short	0
 5286 0ea2 0000     		.short	0
 5287 0ea4 0000     		.short	0
 5288 0ea6 0000     		.short	0
 5289 0ea8 0000     		.short	0
 5290 0eaa 0000     		.short	0
 5291 0eac 5DEF     		.short	-4259
 5292 0eae FFFF     		.short	-1
 5293 0eb0 FFFF     		.short	-1
 5294 0eb2 9EF7     		.short	-2146
 5295 0eb4 0000     		.short	0
 5296 0eb6 0000     		.short	0
 5297 0eb8 0000     		.short	0
 5298 0eba 0000     		.short	0
 5299 0ebc 0000     		.short	0
 5300 0ebe 0000     		.short	0
 5301 0ec0 0000     		.short	0
 5302 0ec2 0000     		.short	0
 5303 0ec4 0000     		.short	0
 5304 0ec6 0000     		.short	0
 5305 0ec8 0000     		.short	0
 5306 0eca 0000     		.short	0
 5307 0ecc 0000     		.short	0
 5308 0ece 0000     		.short	0
 5309 0ed0 0000     		.short	0
 5310 0ed2 0000     		.short	0
 5311 0ed4 0000     		.short	0
 5312 0ed6 0000     		.short	0
 5313 0ed8 0000     		.short	0
 5314 0eda 0000     		.short	0
 5315 0edc 0000     		.short	0
 5316 0ede 0000     		.short	0
 5317 0ee0 0000     		.short	0
 5318 0ee2 0000     		.short	0
 5319 0ee4 0000     		.short	0
 5320 0ee6 0000     		.short	0
ARM GAS  C:\Users\luvsd\AppData\Local\Temp\ccS26oY7.s 			page 113


 5321 0ee8 0000     		.short	0
 5322 0eea 0000     		.short	0
 5323 0eec 5DEF     		.short	-4259
 5324 0eee FFFF     		.short	-1
 5325 0ef0 FFFF     		.short	-1
 5326 0ef2 9EF7     		.short	-2146
 5327 0ef4 0000     		.short	0
 5328 0ef6 0000     		.short	0
 5329 0ef8 0000     		.short	0
 5330 0efa 0000     		.short	0
 5331 0efc 0000     		.short	0
 5332 0efe 0000     		.short	0
 5333 0f00 0000     		.short	0
 5334 0f02 0000     		.short	0
 5335 0f04 0000     		.short	0
 5336 0f06 0000     		.short	0
 5337 0f08 0000     		.short	0
 5338 0f0a 0000     		.short	0
 5339 0f0c 0000     		.short	0
 5340 0f0e 0000     		.short	0
 5341 0f10 0000     		.short	0
 5342 0f12 0000     		.short	0
 5343 0f14 0000     		.short	0
 5344 0f16 0000     		.short	0
 5345 0f18 0000     		.short	0
 5346 0f1a 0000     		.short	0
