ARM GAS  C:\Users\luvsd\AppData\Local\Temp\ccOjXyBY.s 			page 1


   1              		.syntax unified
   2              		.cpu cortex-m0
   3              		.fpu softvfp
   4              		.eabi_attribute 20, 1
   5              		.eabi_attribute 21, 1
   6              		.eabi_attribute 23, 3
   7              		.eabi_attribute 24, 1
   8              		.eabi_attribute 25, 1
   9              		.eabi_attribute 26, 1
  10              		.eabi_attribute 30, 1
  11              		.eabi_attribute 34, 0
  12              		.eabi_attribute 18, 4
  13              		.thumb
  14              		.syntax unified
  15              		.file	"common.c"
  16              		.text
  17              	.Ltext0:
  18              		.cfi_sections	.debug_frame
  19              		.section	.text.init,"ax",%progbits
  20              		.align	2
  21              		.global	init
  22              		.code	16
  23              		.thumb_func
  24              		.type	init, %function
  25              	init:
  26              	.LFB35:
  27              		.file 1 "common.c"
   1:common.c      **** /* ========================================
   2:common.c      ****  *
   3:common.c      ****  * Copyright SUNTECH, 2018-2026
   4:common.c      ****  * All Rights Reserved
   5:common.c      ****  * UNPUBLISHED, LICENSED SOFTWARE.
   6:common.c      ****  *
   7:common.c      ****  * CONFIDENTIAL AND PROPRIETARY INFORMATION
   8:common.c      ****  * WHICH IS THE PROPERTY OF SUNTECH.
   9:common.c      ****  *
  10:common.c      ****  * ========================================
  11:common.c      **** */
  12:common.c      **** #include "main.h"
  13:common.c      **** #include <stdlib.h>
  14:common.c      **** #include <stdarg.h>
  15:common.c      **** 
  16:common.c      **** void init()
  17:common.c      **** {
  28              		.loc 1 17 0
  29              		.cfi_startproc
  30              		@ args = 0, pretend = 0, frame = 0
  31              		@ frame_needed = 0, uses_anonymous_args = 0
  32 0000 10B5     		push	{r4, lr}
  33              		.cfi_def_cfa_offset 8
  34              		.cfi_offset 4, -8
  35              		.cfi_offset 14, -4
  18:common.c      ****     initSysTick();
  36              		.loc 1 18 0
  37 0002 FFF7FEFF 		bl	initSysTick
  38              	.LVL0:
  19:common.c      ****     
ARM GAS  C:\Users\luvsd\AppData\Local\Temp\ccOjXyBY.s 			page 2


  20:common.c      ****     MONITORING_Start();
  39              		.loc 1 20 0
  40 0006 FFF7FEFF 		bl	MONITORING_Start
  41              	.LVL1:
  21:common.c      ****     USB_OP_Start();
  42              		.loc 1 21 0
  43 000a FFF7FEFF 		bl	USB_OP_Start
  44              	.LVL2:
  22:common.c      ****     BARCODE_Start();
  45              		.loc 1 22 0
  46 000e FFF7FEFF 		bl	BARCODE_Start
  47              	.LVL3:
  23:common.c      ****     //UART_OP_Start();
  24:common.c      ****         
  25:common.c      ****     //SetDesignNumber(0x00);
  26:common.c      **** 
  27:common.c      **** }
  48              		.loc 1 27 0
  49              		@ sp needed
  50 0012 10BD     		pop	{r4, pc}
  51              		.cfi_endproc
  52              	.LFE35:
  53              		.size	init, .-init
  54              		.section	.text.BootloaderStart,"ax",%progbits
  55              		.align	2
  56              		.global	BootloaderStart
  57              		.code	16
  58              		.thumb_func
  59              		.type	BootloaderStart, %function
  60              	BootloaderStart:
  61              	.LFB36:
  28:common.c      **** 
  29:common.c      **** 
  30:common.c      **** /*
  31:common.c      **** void convert(char *str) //YES 3314 CPU + Green Switch
  32:common.c      **** {    
  33:common.c      ****     int sum = 0;
  34:common.c      ****     for(unsigned int i=0; i < strlen(str); i++) sum += str[i] - '0';
  35:common.c      ****     
  36:common.c      ****     char ret[4];
  37:common.c      ****     ret[2] = '\r';
  38:common.c      ****     ret[3] = '\0';    
  39:common.c      **** 	
  40:common.c      ****     switch(sum)
  41:common.c      ****     {
  42:common.c      ****        case 0:     break;
  43:common.c      ****        case 1: ret[0] = 0x31;  ret[1] = 0x45;   break;     
  44:common.c      ****        case 2: ret[0] = 0x31;  ret[1] = 0x44;   break;
  45:common.c      ****        case 3: ret[0] = 0x31;  ret[1] = 0x43;   break;
  46:common.c      ****        case 4: ret[0] = 0x31;  ret[1] = 0x42;   break;
  47:common.c      ****        case 5: ret[0] = 0x31;  ret[1] = 0x41;   break;
  48:common.c      ****        case 6: ret[0] = 0x31;  ret[1] = 0x39;   break;
  49:common.c      ****        case 7: ret[0] = 0x31;  ret[1] = 0x38;   break;
  50:common.c      ****        case 8: ret[0] = 0x31;  ret[1] = 0x37;   break;
  51:common.c      ****        case 9: ret[0] = 0x31;  ret[1] = 0x36;   break;
  52:common.c      ****        case 10: ret[0] = 0x31;  ret[1] = 0x35;   break;
  53:common.c      ****        case 11: ret[0] = 0x31;  ret[1] = 0x34;   break;
ARM GAS  C:\Users\luvsd\AppData\Local\Temp\ccOjXyBY.s 			page 3


  54:common.c      ****        case 12: ret[0] = 0x31;  ret[1] = 0x33;   break;
  55:common.c      ****        case 13: ret[0] = 0x31;  ret[1] = 0x32;   break;
  56:common.c      ****        case 14: ret[0] = 0x31;  ret[1] = 0x31;   break;
  57:common.c      ****        case 15: ret[0] = 0x31;  ret[1] = 0x30;   break;
  58:common.c      ****        case 16: ret[0] = 0x30;  ret[1] = 0x46;   break;
  59:common.c      ****        case 17: ret[0] = 0x30;  ret[1] = 0x45;   break;
  60:common.c      ****        case 18: ret[0] = 0x30;  ret[1] = 0x44;   break;
  61:common.c      ****        case 19: ret[0] = 0x30;  ret[1] = 0x43;   break;
  62:common.c      ****        case 20: ret[0] = 0x30;  ret[1] = 0x42;   break;
  63:common.c      ****        case 21: ret[0] = 0x30;  ret[1] = 0x41;   break;
  64:common.c      ****        case 22: ret[0] = 0x30;  ret[1] = 0x39;   break;
  65:common.c      ****        case 23: ret[0] = 0x30;  ret[1] = 0x38;   break;
  66:common.c      ****        case 24: ret[0] = 0x30;  ret[1] = 0x37;   break;
  67:common.c      ****        case 25: ret[0] = 0x30;  ret[1] = 0x36;   break;
  68:common.c      ****        case 26: ret[0] = 0x30;  ret[1] = 0x35;   break;
  69:common.c      ****        case 27: ret[0] = 0x30;  ret[1] = 0x34;   break;
  70:common.c      ****     }
  71:common.c      ****     
  72:common.c      ****     UART_OP_UartPutString(ret);  
  73:common.c      **** }
  74:common.c      **** */
  75:common.c      **** 
  76:common.c      **** 
  77:common.c      **** void BootloaderStart()
  78:common.c      **** {
  62              		.loc 1 78 0
  63              		.cfi_startproc
  64              		@ args = 0, pretend = 0, frame = 0
  65              		@ frame_needed = 0, uses_anonymous_args = 0
  66 0000 10B5     		push	{r4, lr}
  67              		.cfi_def_cfa_offset 8
  68              		.cfi_offset 4, -8
  69              		.cfi_offset 14, -4
  79:common.c      ****     MONITORING_UartPutString(__DATE__);
  70              		.loc 1 79 0
  71 0002 0948     		ldr	r0, .L3
  72 0004 FFF7FEFF 		bl	MONITORING_UartPutString
  73              	.LVL4:
  80:common.c      ****     MONITORING_UartPutString("\r\nCurrent firmware Version is ");
  74              		.loc 1 80 0
  75 0008 0848     		ldr	r0, .L3+4
  76 000a FFF7FEFF 		bl	MONITORING_UartPutString
  77              	.LVL5:
  81:common.c      ****     MONITORING_UartPutString(FIRMWARE_VERSION);
  78              		.loc 1 81 0
  79 000e 0848     		ldr	r0, .L3+8
  80 0010 FFF7FEFF 		bl	MONITORING_UartPutString
  81              	.LVL6:
  82:common.c      ****     MONITORING_UartPutString("\r\nFirmware Upgrade Ready");
  82              		.loc 1 82 0
  83 0014 0748     		ldr	r0, .L3+12
  84 0016 FFF7FEFF 		bl	MONITORING_UartPutString
  85              	.LVL7:
  83:common.c      ****     MONITORING_UartPutString("(115200bps).");
  86              		.loc 1 83 0
  87 001a 0748     		ldr	r0, .L3+16
  88 001c FFF7FEFF 		bl	MONITORING_UartPutString
ARM GAS  C:\Users\luvsd\AppData\Local\Temp\ccOjXyBY.s 			page 4


  89              	.LVL8:
  84:common.c      ****  
  85:common.c      ****     Bootloadable_Load();    
  90              		.loc 1 85 0
  91 0020 FFF7FEFF 		bl	Bootloadable_Load
  92              	.LVL9:
  86:common.c      **** }
  93              		.loc 1 86 0
  94              		@ sp needed
  95 0024 10BD     		pop	{r4, pc}
  96              	.L4:
  97 0026 C046     		.align	2
  98              	.L3:
  99 0028 00000000 		.word	.LC0
 100 002c 0C000000 		.word	.LC2
 101 0030 2C000000 		.word	.LC4
 102 0034 50000000 		.word	.LC6
 103 0038 6C000000 		.word	.LC8
 104              		.cfi_endproc
 105              	.LFE36:
 106              		.size	BootloaderStart, .-BootloaderStart
 107              		.section	.rodata.str1.4,"aMS",%progbits,1
 108              		.align	2
 109              	.LC0:
 110 0000 4D617220 		.ascii	"Mar  4 2026\000"
 110      20342032 
 110      30323600 
 111              	.LC2:
 112 000c 0D0A4375 		.ascii	"\015\012Current firmware Version is \000"
 112      7272656E 
 112      74206669 
 112      726D7761 
 112      72652056 
 113 002b 00       		.space	1
 114              	.LC4:
 115 002c 5441424C 		.ascii	"TABLET_SCANNER_SMALL_BOARD_2026_V1\000"
 115      45545F53 
 115      43414E4E 
 115      45525F53 
 115      4D414C4C 
 116 004f 00       		.space	1
 117              	.LC6:
 118 0050 0D0A4669 		.ascii	"\015\012Firmware Upgrade Ready\000"
 118      726D7761 
 118      72652055 
 118      70677261 
 118      64652052 
 119 0069 000000   		.space	3
 120              	.LC8:
 121 006c 28313135 		.ascii	"(115200bps).\000"
 121      32303062 
 121      7073292E 
 121      00
 122              		.text
 123              	.Letext0:
 124              		.file 2 "main.h"
 125              		.file 3 "Generated_Source\\PSoC4/MONITORING.h"
ARM GAS  C:\Users\luvsd\AppData\Local\Temp\ccOjXyBY.s 			page 5


 126              		.file 4 "Generated_Source\\PSoC4/USB_OP.h"
 127              		.file 5 "Generated_Source\\PSoC4/BARCODE.h"
 128              		.file 6 "Generated_Source\\PSoC4/MONITORING_SPI_UART.h"
 129              		.file 7 "Generated_Source\\PSoC4/Bootloadable.h"