ARM GAS  C:\Users\luvsd\AppData\Local\Temp\ccCXRizP.s 			page 1


   1              		.syntax unified
   2              		.cpu cortex-m0
   3              		.fpu softvfp
   4              		.eabi_attribute 20, 1
   5              		.eabi_attribute 21, 1
   6              		.eabi_attribute 23, 3
   7              		.eabi_attribute 24, 1
   8              		.eabi_attribute 25, 1
   9              		.eabi_attribute 26, 1
  10              		.eabi_attribute 30, 1
  11              		.eabi_attribute 34, 0
  12              		.eabi_attribute 18, 4
  13              		.thumb
  14              		.syntax unified
  15              		.file	"sysTick.c"
  16              		.text
  17              	.Ltext0:
  18              		.cfi_sections	.debug_frame
  19              		.global	__aeabi_uidivmod
  20              		.section	.text.SysTickISRCallback,"ax",%progbits
  21              		.align	2
  22              		.global	SysTickISRCallback
  23              		.code	16
  24              		.thumb_func
  25              		.type	SysTickISRCallback, %function
  26              	SysTickISRCallback:
  27              	.LFB35:
  28              		.file 1 "sysTick.c"
   1:sysTick.c     **** /* ========================================
   2:sysTick.c     ****  *
   3:sysTick.c     ****  * Copyright SUNTECH, 2018-2026
   4:sysTick.c     ****  * All Rights Reserved
   5:sysTick.c     ****  * UNPUBLISHED, LICENSED SOFTWARE.
   6:sysTick.c     ****  *
   7:sysTick.c     ****  * CONFIDENTIAL AND PROPRIETARY INFORMATION
   8:sysTick.c     ****  * WHICH IS THE PROPERTY OF SUNTECH.
   9:sysTick.c     ****  *
  10:sysTick.c     ****  * ========================================
  11:sysTick.c     **** */
  12:sysTick.c     **** #include "project.h"
  13:sysTick.c     **** 
  14:sysTick.c     **** /* Function Prototypes */
  15:sysTick.c     **** void SysTickISRCallback(void);
  16:sysTick.c     **** 
  17:sysTick.c     **** unsigned long int timerCount =0;
  18:sysTick.c     **** 
  19:sysTick.c     **** void initSysTick()
  20:sysTick.c     **** {
  21:sysTick.c     ****     CySysTickStart();
  22:sysTick.c     ****     uint32 i;
  23:sysTick.c     ****     
  24:sysTick.c     ****     /* Find unused callback slot and assign the callback. */
  25:sysTick.c     ****     for (i = 0u; i < CY_SYS_SYST_NUM_OF_CALLBACKS; ++i)
  26:sysTick.c     ****     {
  27:sysTick.c     ****         if (CySysTickGetCallback(i) == NULL)
  28:sysTick.c     ****         {
  29:sysTick.c     ****             /* Set callback */
ARM GAS  C:\Users\luvsd\AppData\Local\Temp\ccCXRizP.s 			page 2


  30:sysTick.c     ****             CySysTickSetCallback(i, SysTickISRCallback);
  31:sysTick.c     ****             break;
  32:sysTick.c     ****         }
  33:sysTick.c     ****     }
  34:sysTick.c     **** }
  35:sysTick.c     **** 
  36:sysTick.c     **** void SysTickISRCallback(void)
  37:sysTick.c     **** { 
  29              		.loc 1 37 0
  30              		.cfi_startproc
  31              		@ args = 0, pretend = 0, frame = 0
  32              		@ frame_needed = 0, uses_anonymous_args = 0
  33 0000 10B5     		push	{r4, lr}
  34              		.cfi_def_cfa_offset 8
  35              		.cfi_offset 4, -8
  36              		.cfi_offset 14, -4
  38:sysTick.c     ****     timerCount++;
  37              		.loc 1 38 0
  38 0002 084B     		ldr	r3, .L3
  39 0004 1A68     		ldr	r2, [r3]
  40 0006 501C     		adds	r0, r2, #1
  41 0008 1860     		str	r0, [r3]
  39:sysTick.c     ****     
  40:sysTick.c     ****     if((timerCount % 1000) == 0) LED_Write(~LED_Read());    
  42              		.loc 1 40 0
  43 000a FA21     		movs	r1, #250
  44 000c 8900     		lsls	r1, r1, #2
  45 000e FFF7FEFF 		bl	__aeabi_uidivmod
  46              	.LVL0:
  47 0012 0029     		cmp	r1, #0
  48 0014 05D1     		bne	.L1
  49              		.loc 1 40 0 is_stmt 0 discriminator 1
  50 0016 FFF7FEFF 		bl	LED_Read
  51              	.LVL1:
  52 001a C043     		mvns	r0, r0
  53 001c C0B2     		uxtb	r0, r0
  54 001e FFF7FEFF 		bl	LED_Write
  55              	.LVL2:
  56              	.L1:
  41:sysTick.c     **** }
  57              		.loc 1 41 0 is_stmt 1
  58              		@ sp needed
  59 0022 10BD     		pop	{r4, pc}
  60              	.L4:
  61              		.align	2
  62              	.L3:
  63 0024 00000000 		.word	.LANCHOR0
  64              		.cfi_endproc
  65              	.LFE35:
  66              		.size	SysTickISRCallback, .-SysTickISRCallback
  67              		.section	.text.initSysTick,"ax",%progbits
  68              		.align	2
  69              		.global	initSysTick
  70              		.code	16
  71              		.thumb_func
  72              		.type	initSysTick, %function
  73              	initSysTick:
ARM GAS  C:\Users\luvsd\AppData\Local\Temp\ccCXRizP.s 			page 3


  74              	.LFB34:
  20:sysTick.c     ****     CySysTickStart();
  75              		.loc 1 20 0
  76              		.cfi_startproc
  77              		@ args = 0, pretend = 0, frame = 0
  78              		@ frame_needed = 0, uses_anonymous_args = 0
  79 0000 10B5     		push	{r4, lr}
  80              		.cfi_def_cfa_offset 8
  81              		.cfi_offset 4, -8
  82              		.cfi_offset 14, -4
  21:sysTick.c     ****     uint32 i;
  83              		.loc 1 21 0
  84 0002 FFF7FEFF 		bl	CySysTickStart
  85              	.LVL3:
  25:sysTick.c     ****     {
  86              		.loc 1 25 0
  87 0006 0024     		movs	r4, #0
  88 0008 0AE0     		b	.L6
  89              	.LVL4:
  90              	.L9:
  27:sysTick.c     ****         {
  91              		.loc 1 27 0
  92 000a 2000     		movs	r0, r4
  93 000c FFF7FEFF 		bl	CySysTickGetCallback
  94              	.LVL5:
  95 0010 0028     		cmp	r0, #0
  96 0012 04D1     		bne	.L7
  30:sysTick.c     ****             break;
  97              		.loc 1 30 0
  98 0014 0449     		ldr	r1, .L10
  99 0016 2000     		movs	r0, r4
 100 0018 FFF7FEFF 		bl	CySysTickSetCallback
 101              	.LVL6:
  31:sysTick.c     ****         }
 102              		.loc 1 31 0
 103 001c 02E0     		b	.L5
 104              	.L7:
  25:sysTick.c     ****     {
 105              		.loc 1 25 0 discriminator 2
 106 001e 0134     		adds	r4, r4, #1
 107              	.LVL7:
 108              	.L6:
  25:sysTick.c     ****     {
 109              		.loc 1 25 0 is_stmt 0 discriminator 1
 110 0020 042C     		cmp	r4, #4
 111 0022 F2D9     		bls	.L9
 112              	.L5:
  34:sysTick.c     **** 
 113              		.loc 1 34 0 is_stmt 1
 114              		@ sp needed
 115              	.LVL8:
 116 0024 10BD     		pop	{r4, pc}
 117              	.L11:
 118 0026 C046     		.align	2
 119              	.L10:
 120 0028 00000000 		.word	SysTickISRCallback
 121              		.cfi_endproc
ARM GAS  C:\Users\luvsd\AppData\Local\Temp\ccCXRizP.s 			page 4


 122              	.LFE34:
 123              		.size	initSysTick, .-initSysTick
 124              		.global	timerCount
 125              		.bss
 126              		.align	2
 127              		.set	.LANCHOR0,. + 0
 128              		.type	timerCount, %object
 129              		.size	timerCount, 4
 130              	timerCount:
 131 0000 00000000 		.space	4
 132              		.text
 133              	.Letext0:
 134              		.file 2 "Generated_Source\\PSoC4/LED.h"
 135              		.file 3 "Generated_Source\\PSoC4/CyLib.h"
 136              		.file 4 "Generated_Source\\PSoC4/cytypes.h"